ARM GAS  /tmp/ccEgXP7Z.s 			page 1


   1              		.cpu cortex-m4
   2              		.eabi_attribute 27, 1
   3              		.eabi_attribute 28, 1
   4              		.eabi_attribute 20, 1
   5              		.eabi_attribute 21, 1
   6              		.eabi_attribute 23, 3
   7              		.eabi_attribute 24, 1
   8              		.eabi_attribute 25, 1
   9              		.eabi_attribute 26, 1
  10              		.eabi_attribute 30, 6
  11              		.eabi_attribute 34, 1
  12              		.eabi_attribute 18, 4
  13              		.file	"chcore_v7m.c"
  14              		.text
  15              	.Ltext0:
  16              		.cfi_sections	.debug_frame
  17              		.section	.text.port_lock,"ax",%progbits
  18              		.align	1
  19              		.p2align 4,,15
  20              		.syntax unified
  21              		.thumb
  22              		.thumb_func
  23              		.fpu fpv4-sp-d16
  24              		.type	port_lock, %function
  25              	port_lock:
  26              	.LFB127:
  27              		.file 1 "../ChibiOS/os/rt/ports/ARMCMx/chcore_v7m.h"
  28              		.loc 1 456 0
  29              		.cfi_startproc
  30              		@ args = 0, pretend = 0, frame = 8
  31              		@ frame_needed = 0, uses_anonymous_args = 0
  32              		@ link register save eliminated.
  33 0000 82B0     		sub	sp, sp, #8
  34              		.cfi_def_cfa_offset 8
  35 0002 2023     		movs	r3, #32
  36 0004 0193     		str	r3, [sp, #4]
  37              	.LBB17:
  38              	.LBB18:
  39              		.file 2 "../ChibiOS/os/ext/CMSIS/include/core_cmFunc.h"
  40              		.loc 2 548 0
  41 0006 019B     		ldr	r3, [sp, #4]
  42              		.syntax unified
  43              	@ 548 "../ChibiOS/os/ext/CMSIS/include/core_cmFunc.h" 1
  44 0008 83F31188 		MSR basepri, r3
  45              	@ 0 "" 2
  46              		.thumb
  47              		.syntax unified
  48              	.LBE18:
  49              	.LBE17:
  50              		.loc 1 473 0
  51 000c 00BF     		nop
  52 000e 02B0     		add	sp, sp, #8
  53              		.cfi_def_cfa_offset 0
  54              		@ sp needed
  55 0010 7047     		bx	lr
  56              		.cfi_endproc
  57              	.LFE127:
ARM GAS  /tmp/ccEgXP7Z.s 			page 2


  58              		.size	port_lock, .-port_lock
  59 0012 00BF     		.section	.text.port_unlock,"ax",%progbits
  60              		.align	1
  61              		.p2align 4,,15
  62              		.syntax unified
  63              		.thumb
  64              		.thumb_func
  65              		.fpu fpv4-sp-d16
  66              		.type	port_unlock, %function
  67              	port_unlock:
  68              	.LFB128:
  69              		.loc 1 480 0
  70              		.cfi_startproc
  71              		@ args = 0, pretend = 0, frame = 8
  72              		@ frame_needed = 0, uses_anonymous_args = 0
  73              		@ link register save eliminated.
  74 0000 82B0     		sub	sp, sp, #8
  75              		.cfi_def_cfa_offset 8
  76 0002 0023     		movs	r3, #0
  77 0004 0193     		str	r3, [sp, #4]
  78              	.LBB19:
  79              	.LBB20:
  80              		.loc 2 548 0
  81 0006 019B     		ldr	r3, [sp, #4]
  82              		.syntax unified
  83              	@ 548 "../ChibiOS/os/ext/CMSIS/include/core_cmFunc.h" 1
  84 0008 83F31188 		MSR basepri, r3
  85              	@ 0 "" 2
  86              		.thumb
  87              		.syntax unified
  88              	.LBE20:
  89              	.LBE19:
  90              		.loc 1 487 0
  91 000c 00BF     		nop
  92 000e 02B0     		add	sp, sp, #8
  93              		.cfi_def_cfa_offset 0
  94              		@ sp needed
  95 0010 7047     		bx	lr
  96              		.cfi_endproc
  97              	.LFE128:
  98              		.size	port_unlock, .-port_unlock
  99 0012 00BF     		.section	.text.port_lock_from_isr,"ax",%progbits
 100              		.align	1
 101              		.p2align 4,,15
 102              		.syntax unified
 103              		.thumb
 104              		.thumb_func
 105              		.fpu fpv4-sp-d16
 106              		.type	port_lock_from_isr, %function
 107              	port_lock_from_isr:
 108              	.LFB129:
 109              		.loc 1 495 0
 110              		.cfi_startproc
 111              		@ args = 0, pretend = 0, frame = 0
 112              		@ frame_needed = 0, uses_anonymous_args = 0
 113 0000 08B5     		push	{r3, lr}
 114              		.cfi_def_cfa_offset 8
ARM GAS  /tmp/ccEgXP7Z.s 			page 3


 115              		.cfi_offset 3, -8
 116              		.cfi_offset 14, -4
 117              		.loc 1 497 0
 118 0002 FFF7FEFF 		bl	port_lock
 119              		.loc 1 498 0
 120 0006 00BF     		nop
 121 0008 08BD     		pop	{r3, pc}
 122              		.cfi_endproc
 123              	.LFE129:
 124              		.size	port_lock_from_isr, .-port_lock_from_isr
 125              		.section	.text.port_unlock_from_isr,"ax",%progbits
 126              		.align	1
 127              		.p2align 4,,15
 128              		.syntax unified
 129              		.thumb
 130              		.thumb_func
 131              		.fpu fpv4-sp-d16
 132              		.type	port_unlock_from_isr, %function
 133              	port_unlock_from_isr:
 134              	.LFB130:
 135              		.loc 1 506 0
 136              		.cfi_startproc
 137              		@ args = 0, pretend = 0, frame = 0
 138              		@ frame_needed = 0, uses_anonymous_args = 0
 139 0000 08B5     		push	{r3, lr}
 140              		.cfi_def_cfa_offset 8
 141              		.cfi_offset 3, -8
 142              		.cfi_offset 14, -4
 143              		.loc 1 508 0
 144 0002 FFF7FEFF 		bl	port_unlock
 145              		.loc 1 509 0
 146 0006 00BF     		nop
 147 0008 08BD     		pop	{r3, pc}
 148              		.cfi_endproc
 149              	.LFE130:
 150              		.size	port_unlock_from_isr, .-port_unlock_from_isr
 151              		.section	.text.SVC_Handler,"ax",%progbits
 152              		.align	1
 153              		.p2align 4,,15
 154              		.global	SVC_Handler
 155              		.syntax unified
 156              		.thumb
 157              		.thumb_func
 158              		.fpu fpv4-sp-d16
 159              		.type	SVC_Handler, %function
 160              	SVC_Handler:
 161              	.LFB231:
 162              		.file 3 "../ChibiOS/os/rt/ports/ARMCMx/chcore_v7m.c"
 163              		.loc 3 62 0
 164              		.cfi_startproc
 165              		@ args = 0, pretend = 0, frame = 8
 166              		@ frame_needed = 1, uses_anonymous_args = 0
 167 0000 90B5     		push	{r4, r7, lr}
 168              		.cfi_def_cfa_offset 12
 169              		.cfi_offset 4, -12
 170              		.cfi_offset 7, -8
 171              		.cfi_offset 14, -4
ARM GAS  /tmp/ccEgXP7Z.s 			page 4


 172 0002 83B0     		sub	sp, sp, #12
 173              		.cfi_def_cfa_offset 24
 174 0004 00AF     		add	r7, sp, #0
 175              		.cfi_def_cfa_register 7
 176              		.loc 3 68 0
 177 0006 0C4A     		ldr	r2, .L7
 178 0008 0B4B     		ldr	r3, .L7
 179 000a 5B68     		ldr	r3, [r3, #4]
 180 000c 23F00103 		bic	r3, r3, #1
 181 0010 5360     		str	r3, [r2, #4]
 182              	.LBB21:
 183              	.LBB22:
 184              		.loc 2 430 0
 185              		.syntax unified
 186              	@ 430 "../ChibiOS/os/ext/CMSIS/include/core_cmFunc.h" 1
 187 0012 EFF30983 		MRS r3, psp
 188              	
 189              	@ 0 "" 2
 190              		.thumb
 191              		.syntax unified
 192 0016 1C46     		mov	r4, r3
 193              		.loc 2 431 0
 194 0018 2346     		mov	r3, r4
 195              	.LBE22:
 196              	.LBE21:
 197              		.loc 3 72 0
 198 001a 7B60     		str	r3, [r7, #4]
 199              		.loc 3 76 0
 200 001c 7B68     		ldr	r3, [r7, #4]
 201 001e 6833     		adds	r3, r3, #104
 202 0020 7B60     		str	r3, [r7, #4]
 203              		.loc 3 79 0
 204 0022 7B68     		ldr	r3, [r7, #4]
 205 0024 3B60     		str	r3, [r7]
 206              	.LBB23:
 207              	.LBB24:
 208              		.loc 2 443 0
 209 0026 3B68     		ldr	r3, [r7]
 210              		.syntax unified
 211              	@ 443 "../ChibiOS/os/ext/CMSIS/include/core_cmFunc.h" 1
 212 0028 83F30988 		MSR psp, r3
 213              	
 214              	@ 0 "" 2
 215              		.thumb
 216              		.syntax unified
 217              	.LBE24:
 218              	.LBE23:
 219              		.loc 3 82 0
 220 002c FFF7FEFF 		bl	port_unlock_from_isr
 221              		.loc 3 83 0
 222 0030 00BF     		nop
 223 0032 0C37     		adds	r7, r7, #12
 224              		.cfi_def_cfa_offset 12
 225 0034 BD46     		mov	sp, r7
 226              		.cfi_def_cfa_register 13
 227              		@ sp needed
 228 0036 90BD     		pop	{r4, r7, pc}
ARM GAS  /tmp/ccEgXP7Z.s 			page 5


 229              	.L8:
 230              		.align	2
 231              	.L7:
 232 0038 30EF00E0 		.word	-536809680
 233              		.cfi_endproc
 234              	.LFE231:
 235              		.size	SVC_Handler, .-SVC_Handler
 236              		.section	.text._port_irq_epilogue,"ax",%progbits
 237              		.align	1
 238              		.p2align 4,,15
 239              		.global	_port_irq_epilogue
 240              		.syntax unified
 241              		.thumb
 242              		.thumb_func
 243              		.fpu fpv4-sp-d16
 244              		.type	_port_irq_epilogue, %function
 245              	_port_irq_epilogue:
 246              	.LFB232:
 247              		.loc 3 122 0
 248              		.cfi_startproc
 249              		@ args = 0, pretend = 0, frame = 16
 250              		@ frame_needed = 1, uses_anonymous_args = 0
 251 0000 90B5     		push	{r4, r7, lr}
 252              		.cfi_def_cfa_offset 12
 253              		.cfi_offset 4, -12
 254              		.cfi_offset 7, -8
 255              		.cfi_offset 14, -4
 256 0002 85B0     		sub	sp, sp, #20
 257              		.cfi_def_cfa_offset 32
 258 0004 00AF     		add	r7, sp, #0
 259              		.cfi_def_cfa_register 7
 260              		.loc 3 124 0
 261 0006 FFF7FEFF 		bl	port_lock_from_isr
 262              		.loc 3 125 0
 263 000a 184B     		ldr	r3, .L16
 264 000c 5B68     		ldr	r3, [r3, #4]
 265 000e 03F40063 		and	r3, r3, #2048
 266 0012 002B     		cmp	r3, #0
 267 0014 25D0     		beq	.L10
 268              	.LBB25:
 269              	.LBB26:
 270              	.LBB27:
 271              		.loc 2 608 0
 272              		.loc 2 609 0
 273              		.syntax unified
 274              	@ 609 "../ChibiOS/os/ext/CMSIS/include/core_cmFunc.h" 1
 275 0016 F1EE103A 		VMRS r3, fpscr
 276              	@ 0 "" 2
 277              		.thumb
 278              		.syntax unified
 279 001a 7B60     		str	r3, [r7, #4]
 280              		.loc 2 610 0
 281              	.LBE27:
 282              	.LBE26:
 283              	.LBB28:
 284              	.LBB29:
 285              		.loc 2 430 0
ARM GAS  /tmp/ccEgXP7Z.s 			page 6


 286              		.syntax unified
 287              	@ 430 "../ChibiOS/os/ext/CMSIS/include/core_cmFunc.h" 1
 288 001c EFF30983 		MRS r3, psp
 289              	
 290              	@ 0 "" 2
 291              		.thumb
 292              		.syntax unified
 293 0020 1C46     		mov	r4, r3
 294              		.loc 2 431 0
 295 0022 2346     		mov	r3, r4
 296              	.LBE29:
 297              	.LBE28:
 298              		.loc 3 134 0
 299 0024 FB60     		str	r3, [r7, #12]
 300              		.loc 3 138 0
 301 0026 FB68     		ldr	r3, [r7, #12]
 302 0028 683B     		subs	r3, r3, #104
 303 002a FB60     		str	r3, [r7, #12]
 304              		.loc 3 141 0
 305 002c FB68     		ldr	r3, [r7, #12]
 306 002e 4FF08072 		mov	r2, #16777216
 307 0032 DA61     		str	r2, [r3, #28]
 308              		.loc 3 143 0
 309 0034 0E4B     		ldr	r3, .L16+4
 310 0036 DB68     		ldr	r3, [r3, #12]
 311 0038 1A46     		mov	r2, r3
 312 003a FB68     		ldr	r3, [r7, #12]
 313 003c 1A66     		str	r2, [r3, #96]
 314              		.loc 3 147 0
 315 003e FB68     		ldr	r3, [r7, #12]
 316 0040 BB60     		str	r3, [r7, #8]
 317              	.LBB30:
 318              	.LBB31:
 319              		.loc 2 443 0
 320 0042 BB68     		ldr	r3, [r7, #8]
 321              		.syntax unified
 322              	@ 443 "../ChibiOS/os/ext/CMSIS/include/core_cmFunc.h" 1
 323 0044 83F30988 		MSR psp, r3
 324              	
 325              	@ 0 "" 2
 326              		.thumb
 327              		.syntax unified
 328              	.LBE31:
 329              	.LBE30:
 330              		.loc 3 151 0
 331 0048 FFF7FEFF 		bl	chSchIsPreemptionRequired
 332 004c 0346     		mov	r3, r0
 333 004e 002B     		cmp	r3, #0
 334 0050 03D0     		beq	.L13
 335              		.loc 3 153 0
 336 0052 FB68     		ldr	r3, [r7, #12]
 337 0054 074A     		ldr	r2, .L16+8
 338 0056 9A61     		str	r2, [r3, #24]
 339              		.loc 3 163 0
 340 0058 05E0     		b	.L9
 341              	.L13:
 342              		.loc 3 158 0
ARM GAS  /tmp/ccEgXP7Z.s 			page 7


 343 005a FB68     		ldr	r3, [r7, #12]
 344 005c 064A     		ldr	r2, .L16+12
 345 005e 9A61     		str	r2, [r3, #24]
 346              		.loc 3 163 0
 347 0060 01E0     		b	.L9
 348              	.L10:
 349              	.LBE25:
 350              		.loc 3 165 0
 351 0062 FFF7FEFF 		bl	port_unlock_from_isr
 352              	.L9:
 353              		.loc 3 166 0
 354 0066 1437     		adds	r7, r7, #20
 355              		.cfi_def_cfa_offset 12
 356 0068 BD46     		mov	sp, r7
 357              		.cfi_def_cfa_register 13
 358              		@ sp needed
 359 006a 90BD     		pop	{r4, r7, pc}
 360              	.L17:
 361              		.align	2
 362              	.L16:
 363 006c 00ED00E0 		.word	-536810240
 364 0070 30EF00E0 		.word	-536809680
 365 0074 00000000 		.word	_port_switch_from_isr
 366 0078 00000000 		.word	_port_exit_from_isr
 367              		.cfi_endproc
 368              	.LFE232:
 369              		.size	_port_irq_epilogue, .-_port_irq_epilogue
 370              		.text
 371              	.Letext0:
 372              		.file 4 "/usr/arm-none-eabi/include/machine/_default_types.h"
 373              		.file 5 "/usr/arm-none-eabi/include/sys/_stdint.h"
 374              		.file 6 "../ChibiOS/os/rt/ports/ARMCMx/compilers/GCC/chtypes.h"
 375              		.file 7 "../ChibiOS/os/rt/include/chsystypes.h"
 376              		.file 8 "../ChibiOS/os/rt/include/chschd.h"
 377              		.file 9 "../ChibiOS/os/ext/CMSIS/include/core_cm4.h"
 378              		.file 10 "../ChibiOS/os/ext/CMSIS/ST/STM32F4xx/system_stm32f4xx.h"
 379              		.file 11 "../ChibiOS/os/rt/ports/ARMCMx/chcore.h"
 380              		.file 12 "../ChibiOS/os/rt/include/chtm.h"
 381              		.file 13 "../ChibiOS/os/rt/include/chstats.h"
 382              		.file 14 "../ChibiOS/os/rt/include/chsem.h"
 383              		.file 15 "../ChibiOS/os/rt/include/chmtx.h"
 384              		.file 16 "../ChibiOS/os/rt/include/chregistry.h"