ARM GAS  /tmp/ccEgXP7Z.s 			page 1


   1              		.cpu cortex-m4
   2              		.eabi_attribute 27, 1
   3              		.eabi_attribute 28, 1
   4              		.eabi_attribute 20, 1
   5              		.eabi_attribute 21, 1
   6              		.eabi_attribute 23, 3
   7              		.eabi_attribute 24, 1
   8              		.eabi_attribute 25, 1
   9              		.eabi_attribute 26, 1
  10              		.eabi_attribute 30, 6
  11              		.eabi_attribute 34, 1
  12              		.eabi_attribute 18, 4
  13              		.file	"chcore_v7m.c"
  14              		.text
  15              	.Ltext0:
  16              		.cfi_sections	.debug_frame
  17              		.section	.text.port_lock,"ax",%progbits
  18              		.align	1
  19              		.p2align 4,,15
  20              		.syntax unified
  21              		.thumb
  22              		.thumb_func
  23              		.fpu fpv4-sp-d16
  24              		.type	port_lock, %function
  25              	port_lock:
  26              	.LFB127:
  27              		.file 1 "../ChibiOS/os/rt/ports/ARMCMx/chcore_v7m.h"
  28              		.loc 1 456 0
  29              		.cfi_startproc
  30              		@ args = 0, pretend = 0, frame = 8
  31              		@ frame_needed = 0, uses_anonymous_args = 0
  32              		@ link register save eliminated.
  33 0000 82B0     		sub	sp, sp, #8
  34              		.cfi_def_cfa_offset 8
  35 0002 2023     		movs	r3, #32
  36 0004 0193     		str	r3, [sp, #4]
  37              	.LBB17:
  38              	.LBB18:
  39              		.file 2 "../ChibiOS/os/ext/CMSIS/include/core_cmFunc.h"
  40              		.loc 2 548 0
  41 0006 019B     		ldr	r3, [sp, #4]
  42              		.syntax unified
  43              	@ 548 "../ChibiOS/os/ext/CMSIS/include/core_cmFunc.h" 1
  44 0008 83F31188 		MSR basepri, r3
  45              	@ 0 "" 2
  46              		.thumb
  47              		.syntax unified
  48              	.LBE18:
  49              	.LBE17:
  50              		.loc 1 473 0
  51 000c 00BF     		nop
  52 000e 02B0     		add	sp, sp, #8
  53              		.cfi_def_cfa_offset 0
  54              		@ sp needed
  55 0010 7047     		bx	lr
  56              		.cfi_endproc
  57              	.LFE127:
ARM GAS  /tmp/ccEgXP7Z.s 			page 2


  58              		.size	port_lock, .-port_lock
  59 0012 00BF     		.section	.text.port_unlock,"ax",%progbits
  60              		.align	1
  61              		.p2align 4,,15
  62              		.syntax unified
  63              		.thumb
  64              		.thumb_func
  65              		.fpu fpv4-sp-d16
  66              		.type	port_unlock, %function
  67              	port_unlock:
  68              	.LFB128:
  69              		.loc 1 480 0
  70              		.cfi_startproc
  71              		@ args = 0, pretend = 0, frame = 8
  72              		@ frame_needed = 0, uses_anonymous_args = 0
  73              		@ link register save eliminated.
  74 0000 82B0     		sub	sp, sp, #8
  75              		.cfi_def_cfa_offset 8
  76 0002 0023     		movs	r3, #0
  77 0004 0193     		str	r3, [sp, #4]
  78              	.LBB19:
  79              	.LBB20:
  80              		.loc 2 548 0
  81 0006 019B     		ldr	r3, [sp, #4]
  82              		.syntax unified
  83              	@ 548 "../ChibiOS/os/ext/CMSIS/include/core_cmFunc.h" 1
  84 0008 83F31188 		MSR basepri, r3
  85              	@ 0 "" 2
  86              		.thumb
  87              		.syntax unified
  88              	.LBE20:
  89              	.LBE19:
  90              		.loc 1 487 0
  91 000c 00BF     		nop
  92 000e 02B0     		add	sp, sp, #8
  93              		.cfi_def_cfa_offset 0
  94              		@ sp needed
  95 0010 7047     		bx	lr
  96              		.cfi_endproc
  97              	.LFE128:
  98              		.size	port_unlock, .-port_unlock
  99 0012 00BF     		.section	.text.port_lock_from_isr,"ax",%progbits
 100              		.align	1
 101              		.p2align 4,,15
 102              		.syntax unified
 103              		.thumb
 104              		.thumb_func
 105              		.fpu fpv4-sp-d16
 106              		.type	port_lock_from_isr, %function
 107              	port_lock_from_isr:
 108              	.LFB129:
 109              		.loc 1 495 0
 110              		.cfi_startproc
 111              		@ args = 0, pretend = 0, frame = 0
 112              		@ frame_needed = 0, uses_anonymous_args = 0
 113 0000 08B5     		push	{r3, lr}
 114              		.cfi_def_cfa_offset 8
ARM GAS  /tmp/ccEgXP7Z.s 			page 3


 115              		.cfi_offset 3, -8
 116              		.cfi_offset 14, -4
 117              		.loc 1 497 0
 118 0002 FFF7FEFF 		bl	port_lock
 119              		.loc 1 498 0
 120 0006 00BF     		nop
 121 0008 08BD     		pop	{r3, pc}
 122              		.cfi_endproc
 123              	.LFE129:
 124              		.size	port_lock_from_isr, .-port_lock_from_isr
 125              		.section	.text.port_unlock_from_isr,"ax",%progbits
 126              		.align	1
 127              		.p2align 4,,15
 128              		.syntax unified
 129              		.thumb
 130              		.thumb_func
 131              		.fpu fpv4-sp-d16
 132              		.type	port_unlock_from_isr, %function
 133              	port_unlock_from_isr:
 134              	.LFB130:
 135              		.loc 1 506 0
 136              		.cfi_startproc
 137              		@ args = 0, pretend = 0, frame = 0
 138              		@ frame_needed = 0, uses_anonymous_args = 0
 139 0000 08B5     		push	{r3, lr}
 140              		.cfi_def_cfa_offset 8
 141              		.cfi_offset 3, -8
 142              		.cfi_offset 14, -4
 143              		.loc 1 508 0
 144 0002 FFF7FEFF 		bl	port_unlock
 145              		.loc 1 509 0
 146 0006 00BF     		nop
 147 0008 08BD     		pop	{r3, pc}
 148              		.cfi_endproc
 149              	.LFE130:
 150              		.size	port_unlock_from_isr, .-port_unlock_from_isr
 151              		.section	.text.SVC_Handler,"ax",%progbits
 152              		.align	1
 153              		.p2align 4,,15
 154              		.global	SVC_Handler
 155              		.syntax unified
 156              		.thumb
 157              		.thumb_func
 158              		.fpu fpv4-sp-d16
 159              		.type	SVC_Handler, %function
 160              	SVC_Handler:
 161              	.LFB231:
 162              		.file 3 "../ChibiOS/os/rt/ports/ARMCMx/chcore_v7m.c"
 163              		.loc 3 62 0
 164              		.cfi_startproc
 165              		@ args = 0, pretend = 0, frame = 8
 166              		@ frame_needed = 1, uses_anonymous_args = 0
 167 0000 90B5     		push	{r4, r7, lr}
 168              		.cfi_def_cfa_offset 12
 169              		.cfi_offset 4, -12
 170              		.cfi_offset 7, -8
 171              		.cfi_offset 14, -4
ARM GAS  /tmp/ccEgXP7Z.s 			page 4


 172 0002 83B0     		sub	sp, sp, #12
 173              		.cfi_def_cfa_offset 24
 174 0004 00AF     		add	r7, sp, #0
 175              		.cfi_def_cfa_register 7
 176              		.loc 3 68 0
 177 0006 0C4A     		ldr	r2, .L7
 178 0008 0B4B     		ldr	r3, .L7
 179 000a 5B68     		ldr	r3, [r3, #4]
 180 000c 23F00103 		bic	r3, r3, #1
 181 0010 5360     		str	r3, [r2, #4]
 182              	.LBB21:
 183              	.LBB22:
 184              		.loc 2 430 0
 185              		.syntax unified
 186              	@ 430 "../ChibiOS/os/ext/CMSIS/include/core_cmFunc.h" 1
 187 0012 EFF30983 		MRS r3, psp
 188              	
 189              	@ 0 "" 2
 190              		.thumb
 191              		.syntax unified
 192 0016 1C46     		mov	r4, r3
 193              		.loc 2 431 0
 194 0018 2346     		mov	r3, r4
 195              	.LBE22:
 196              	.LBE21:
 197              		.loc 3 72 0
 198 001a 7B60     		str	r3, [r7, #4]
 199              		.loc 3 76 0
 200 001c 7B68     		ldr	r3, [r7, #4]
 201 001e 6833     		adds	r3, r3, #104
 202 0020 7B60     		str	r3, [r7, #4]
 203              		.loc 3 79 0
 204 0022 7B68     		ldr	r3, [r7, #4]
 205 0024 3B60     		str	r3, [r7]
 206              	.LBB23:
 207              	.LBB24:
 208              		.loc 2 443 0
 209 0026 3B68     		ldr	r3, [r7]
 210              		.syntax unified
 211              	@ 443 "../ChibiOS/os/ext/CMSIS/include/core_cmFunc.h" 1
 212 0028 83F30988 		MSR psp, r3
 213              	
 214              	@ 0 "" 2
 215              		.thumb
 216              		.syntax unified
 217              	.LBE24:
 218              	.LBE23:
 219              		.loc 3 82 0
 220 002c FFF7FEFF 		bl	port_unlock_from_isr
 221              		.loc 3 83 0
 222 0030 00BF     		nop
 223 0032 0C37     		adds	r7, r7, #12
 224              		.cfi_def_cfa_offset 12
 225 0034 BD46     		mov	sp, r7
 226              		.cfi_def_cfa_register 13
 227              		@ sp needed
 228 0036 90BD     		pop	{r4, r7, pc}
ARM GAS  /tmp/ccEgXP7Z.s 			page 5


 229              	.L8:
 230              		.align	2
 231              	.L7:
 232 0038 30EF00E0 		.word	-536809680
 233              		.cfi_endproc
 234              	.LFE231:
 235              		.size	SVC_Handler, .-SVC_Handler
 236              		.section	.text._port_irq_epilogue,"ax",%progbits
 237              		.align	1
 238              		.p2align 4,,15
 239              		.global	_port_irq_epilogue
 240              		.syntax unified
 241              		.thumb
 242              		.thumb_func
 243              		.fpu fpv4-sp-d16
 244              		.type	_port_irq_epilogue, %function
 245              	_port_irq_epilogue:
 246              	.LFB232:
 247              		.loc 3 122 0
 248              		.cfi_startproc
 249              		@ args = 0, pretend = 0, frame = 16
 250              		@ frame_needed = 1, uses_anonymous_args = 0
 251 0000 90B5     		push	{r4, r7, lr}
 252              		.cfi_def_cfa_offset 12
 253              		.cfi_offset 4, -12
 254              		.cfi_offset 7, -8
 255              		.cfi_offset 14, -4
 256 0002 85B0     		sub	sp, sp, #20
 257              		.cfi_def_cfa_offset 32
 258 0004 00AF     		add	r7, sp, #0
 259              		.cfi_def_cfa_register 7
 260              		.loc 3 124 0
 261 0006 FFF7FEFF 		bl	port_lock_from_isr
 262              		.loc 3 125 0
 263 000a 184B     		ldr	r3, .L16
 264 000c 5B68     		ldr	r3, [r3, #4]
 265 000e 03F40063 		and	r3, r3, #2048
 266 0012 002B     		cmp	r3, #0
 267 0014 25D0     		beq	.L10
 268              	.LBB25:
 269              	.LBB26:
 270              	.LBB27:
 271              		.loc 2 608 0
 272              		.loc 2 609 0
 273              		.syntax unified
 274              	@ 609 "../ChibiOS/os/ext/CMSIS/include/core_cmFunc.h" 1
 275 0016 F1EE103A 		VMRS r3, fpscr
 276              	@ 0 "" 2
 277              		.thumb
 278              		.syntax unified
 279 001a 7B60     		str	r3, [r7, #4]
 280              		.loc 2 610 0
 281              	.LBE27:
 282              	.LBE26:
 283              	.LBB28:
 284              	.LBB29:
 285              		.loc 2 430 0
ARM GAS  /tmp/ccEgXP7Z.s 			page 6


 286              		.syntax unified
 287              	@ 430 "../ChibiOS/os/ext/CMSIS/include/core_cmFunc.h" 1
 288 001c EFF30983 		MRS r3, psp
 289              	
 290              	@ 0 "" 2
 291              		.thumb
 292              		.syntax unified
 293 0020 1C46     		mov	r4, r3
 294              		.loc 2 431 0
 295 0022 2346     		mov	r3, r4
 296              	.LBE29:
 297              	.LBE28:
 298              		.loc 3 134 0
 299 0024 FB60     		str	r3, [r7, #12]
 300              		.loc 3 138 0
 301 0026 FB68     		ldr	r3, [r7, #12]
 302 0028 683B     		subs	r3, r3, #104
 303 002a FB60     		str	r3, [r7, #12]
 304              		.loc 3 141 0
 305 002c FB68     		ldr	r3, [r7, #12]
 306 002e 4FF08072 		mov	r2, #16777216
 307 0032 DA61     		str	r2, [r3, #28]
 308              		.loc 3 143 0
 309 0034 0E4B     		ldr	r3, .L16+4
 310 0036 DB68     		ldr	r3, [r3, #12]
 311 0038 1A46     		mov	r2, r3
 312 003a FB68     		ldr	r3, [r7, #12]
 313 003c 1A66     		str	r2, [r3, #96]
 314              		.loc 3 147 0
 315 003e FB68     		ldr	r3, [r7, #12]
 316 0040 BB60     		str	r3, [r7, #8]
 317              	.LBB30:
 318              	.LBB31:
 319              		.loc 2 443 0
 320 0042 BB68     		ldr	r3, [r7, #8]
 321              		.syntax unified
 322              	@ 443 "../ChibiOS/os/ext/CMSIS/include/core_cmFunc.h" 1
 323 0044 83F30988 		MSR psp, r3
 324              	
 325              	@ 0 "" 2
 326              		.thumb
 327              		.syntax unified
 328              	.LBE31:
 329              	.LBE30:
 330              		.loc 3 151 0
 331 0048 FFF7FEFF 		bl	chSchIsPreemptionRequired
 332 004c 0346     		mov	r3, r0
 333 004e 002B     		cmp	r3, #0
 334 0050 03D0     		beq	.L13
 335              		.loc 3 153 0
 336 0052 FB68     		ldr	r3, [r7, #12]
 337 0054 074A     		ldr	r2, .L16+8
 338 0056 9A61     		str	r2, [r3, #24]
 339              		.loc 3 163 0
 340 0058 05E0     		b	.L9
 341              	.L13:
 342              		.loc 3 158 0
ARM GAS  /tmp/ccEgXP7Z.s 			page 7


 343 005a FB68     		ldr	r3, [r7, #12]
 344 005c 064A     		ldr	r2, .L16+12
 345 005e 9A61     		str	r2, [r3, #24]
 346              		.loc 3 163 0
 347 0060 01E0     		b	.L9
 348              	.L10:
 349              	.LBE25:
 350              		.loc 3 165 0
 351 0062 FFF7FEFF 		bl	port_unlock_from_isr
 352              	.L9:
 353              		.loc 3 166 0
 354 0066 1437     		adds	r7, r7, #20
 355              		.cfi_def_cfa_offset 12
 356 0068 BD46     		mov	sp, r7
 357              		.cfi_def_cfa_register 13
 358              		@ sp needed
 359 006a 90BD     		pop	{r4, r7, pc}
 360              	.L17:
 361              		.align	2
 362              	.L16:
 363 006c 00ED00E0 		.word	-536810240
 364 0070 30EF00E0 		.word	-536809680
 365 0074 00000000 		.word	_port_switch_from_isr
 366 0078 00000000 		.word	_port_exit_from_isr
 367              		.cfi_endproc
 368              	.LFE232:
 369              		.size	_port_irq_epilogue, .-_port_irq_epilogue
 370              		.text
 371              	.Letext0:
 372              		.file 4 "/usr/arm-none-eabi/include/machine/_default_types.h"
 373              		.file 5 "/usr/arm-none-eabi/include/sys/_stdint.h"
 374              		.file 6 "../ChibiOS/os/rt/ports/ARMCMx/compilers/GCC/chtypes.h"
 375              		.file 7 "../ChibiOS/os/rt/include/chsystypes.h"
 376              		.file 8 "../ChibiOS/os/rt/include/chschd.h"
 377              		.file 9 "../ChibiOS/os/ext/CMSIS/include/core_cm4.h"
 378              		.file 10 "../ChibiOS/os/ext/CMSIS/ST/STM32F4xx/system_stm32f4xx.h"
 379              		.file 11 "../ChibiOS/os/rt/ports/ARMCMx/chcore.h"
 380              		.file 12 "../ChibiOS/os/rt/include/chtm.h"
 381              		.file 13 "../ChibiOS/os/rt/include/chstats.h"
 382              		.file 14 "../ChibiOS/os/rt/include/chsem.h"
 383              		.file 15 "../ChibiOS/os/rt/include/chmtx.h"
 384              		.file 16 "../ChibiOS/os/rt/include/chregistry.h"
 385              		.section	.debug_info,"",%progbits
 386              	.Ldebug_info0:
 387 0000 670E0000 		.4byte	0xe67
 388 0004 0400     		.2byte	0x4
 389 0006 00000000 		.4byte	.Ldebug_abbrev0
 390 000a 04       		.byte	0x4
 391 000b 01       		.uleb128 0x1
 392 000c 6D010000 		.4byte	.LASF184
 393 0010 0C       		.byte	0xc
 394 0011 4C070000 		.4byte	.LASF185
 395 0015 6F030000 		.4byte	.LASF186
 396 0019 00000000 		.4byte	.Ldebug_ranges0+0
 397 001d 00000000 		.4byte	0
 398 0021 00000000 		.4byte	.Ldebug_line0
 399 0025 02       		.uleb128 0x2
ARM GAS  /tmp/ccEgXP7Z.s 			page 8


 400 0026 04       		.byte	0x4
 401 0027 05       		.byte	0x5
 402 0028 696E7400 		.ascii	"int\000"
 403 002c 03       		.uleb128 0x3
 404 002d 04       		.byte	0x4
 405 002e 07       		.byte	0x7
 406 002f 37030000 		.4byte	.LASF0
 407 0033 03       		.uleb128 0x3
 408 0034 08       		.byte	0x8
 409 0035 05       		.byte	0x5
 410 0036 F1020000 		.4byte	.LASF1
 411 003a 03       		.uleb128 0x3
 412 003b 08       		.byte	0x8
 413 003c 04       		.byte	0x4
 414 003d F6040000 		.4byte	.LASF2
 415 0041 03       		.uleb128 0x3
 416 0042 01       		.byte	0x1
 417 0043 06       		.byte	0x6
 418 0044 47000000 		.4byte	.LASF3
 419 0048 04       		.uleb128 0x4
 420 0049 53000000 		.4byte	.LASF6
 421 004d 04       		.byte	0x4
 422 004e 2B       		.byte	0x2b
 423 004f 53000000 		.4byte	0x53
 424 0053 03       		.uleb128 0x3
 425 0054 01       		.byte	0x1
 426 0055 08       		.byte	0x8
 427 0056 E3050000 		.4byte	.LASF4
 428 005a 03       		.uleb128 0x3
 429 005b 02       		.byte	0x2
 430 005c 05       		.byte	0x5
 431 005d 0E060000 		.4byte	.LASF5
 432 0061 04       		.uleb128 0x4
 433 0062 2C070000 		.4byte	.LASF7
 434 0066 04       		.byte	0x4
 435 0067 39       		.byte	0x39
 436 0068 6C000000 		.4byte	0x6c
 437 006c 03       		.uleb128 0x3
 438 006d 02       		.byte	0x2
 439 006e 07       		.byte	0x7
 440 006f 61060000 		.4byte	.LASF8
 441 0073 04       		.uleb128 0x4
 442 0074 8F040000 		.4byte	.LASF9
 443 0078 04       		.byte	0x4
 444 0079 4D       		.byte	0x4d
 445 007a 7E000000 		.4byte	0x7e
 446 007e 03       		.uleb128 0x3
 447 007f 04       		.byte	0x4
 448 0080 05       		.byte	0x5
 449 0081 5B010000 		.4byte	.LASF10
 450 0085 04       		.uleb128 0x4
 451 0086 A1070000 		.4byte	.LASF11
 452 008a 04       		.byte	0x4
 453 008b 4F       		.byte	0x4f
 454 008c 90000000 		.4byte	0x90
 455 0090 03       		.uleb128 0x3
 456 0091 04       		.byte	0x4
ARM GAS  /tmp/ccEgXP7Z.s 			page 9


 457 0092 07       		.byte	0x7
 458 0093 0E070000 		.4byte	.LASF12
 459 0097 04       		.uleb128 0x4
 460 0098 5D050000 		.4byte	.LASF13
 461 009c 04       		.byte	0x4
 462 009d 69       		.byte	0x69
 463 009e A2000000 		.4byte	0xa2
 464 00a2 03       		.uleb128 0x3
 465 00a3 08       		.byte	0x8
 466 00a4 07       		.byte	0x7
 467 00a5 15010000 		.4byte	.LASF14
 468 00a9 04       		.uleb128 0x4
 469 00aa 49080000 		.4byte	.LASF15
 470 00ae 05       		.byte	0x5
 471 00af 18       		.byte	0x18
 472 00b0 48000000 		.4byte	0x48
 473 00b4 05       		.uleb128 0x5
 474 00b5 A9000000 		.4byte	0xa9
 475 00b9 04       		.uleb128 0x4
 476 00ba 56030000 		.4byte	.LASF16
 477 00be 05       		.byte	0x5
 478 00bf 24       		.byte	0x24
 479 00c0 61000000 		.4byte	0x61
 480 00c4 04       		.uleb128 0x4
 481 00c5 DB050000 		.4byte	.LASF17
 482 00c9 05       		.byte	0x5
 483 00ca 2C       		.byte	0x2c
 484 00cb 73000000 		.4byte	0x73
 485 00cf 05       		.uleb128 0x5
 486 00d0 C4000000 		.4byte	0xc4
 487 00d4 04       		.uleb128 0x4
 488 00d5 D9060000 		.4byte	.LASF18
 489 00d9 05       		.byte	0x5
 490 00da 30       		.byte	0x30
 491 00db 85000000 		.4byte	0x85
 492 00df 05       		.uleb128 0x5
 493 00e0 D4000000 		.4byte	0xd4
 494 00e4 06       		.uleb128 0x6
 495 00e5 DF000000 		.4byte	0xdf
 496 00e9 04       		.uleb128 0x4
 497 00ea 31000000 		.4byte	.LASF19
 498 00ee 05       		.byte	0x5
 499 00ef 3C       		.byte	0x3c
 500 00f0 97000000 		.4byte	0x97
 501 00f4 04       		.uleb128 0x4
 502 00f5 E6070000 		.4byte	.LASF20
 503 00f9 06       		.byte	0x6
 504 00fa 39       		.byte	0x39
 505 00fb D4000000 		.4byte	0xd4
 506 00ff 04       		.uleb128 0x4
 507 0100 EA000000 		.4byte	.LASF21
 508 0104 06       		.byte	0x6
 509 0105 3A       		.byte	0x3a
 510 0106 E9000000 		.4byte	0xe9
 511 010a 04       		.uleb128 0x4
 512 010b 3A060000 		.4byte	.LASF22
 513 010f 06       		.byte	0x6
ARM GAS  /tmp/ccEgXP7Z.s 			page 10


 514 0110 3C       		.byte	0x3c
 515 0111 A9000000 		.4byte	0xa9
 516 0115 04       		.uleb128 0x4
 517 0116 64010000 		.4byte	.LASF23
 518 011a 06       		.byte	0x6
 519 011b 3D       		.byte	0x3d
 520 011c A9000000 		.4byte	0xa9
 521 0120 04       		.uleb128 0x4
 522 0121 7F050000 		.4byte	.LASF24
 523 0125 06       		.byte	0x6
 524 0126 3E       		.byte	0x3e
 525 0127 A9000000 		.4byte	0xa9
 526 012b 04       		.uleb128 0x4
 527 012c B8050000 		.4byte	.LASF25
 528 0130 06       		.byte	0x6
 529 0131 40       		.byte	0x40
 530 0132 D4000000 		.4byte	0xd4
 531 0136 04       		.uleb128 0x4
 532 0137 1E040000 		.4byte	.LASF26
 533 013b 06       		.byte	0x6
 534 013c 41       		.byte	0x41
 535 013d C4000000 		.4byte	0xc4
 536 0141 04       		.uleb128 0x4
 537 0142 74040000 		.4byte	.LASF27
 538 0146 06       		.byte	0x6
 539 0147 43       		.byte	0x43
 540 0148 D4000000 		.4byte	0xd4
 541 014c 04       		.uleb128 0x4
 542 014d 1D030000 		.4byte	.LASF28
 543 0151 06       		.byte	0x6
 544 0152 45       		.byte	0x45
 545 0153 C4000000 		.4byte	0xc4
 546 0157 04       		.uleb128 0x4
 547 0158 2F040000 		.4byte	.LASF29
 548 015c 06       		.byte	0x6
 549 015d 46       		.byte	0x46
 550 015e D4000000 		.4byte	0xd4
 551 0162 04       		.uleb128 0x4
 552 0163 83070000 		.4byte	.LASF30
 553 0167 07       		.byte	0x7
 554 0168 33       		.byte	0x33
 555 0169 D4000000 		.4byte	0xd4
 556 016d 05       		.uleb128 0x5
 557 016e 62010000 		.4byte	0x162
 558 0172 04       		.uleb128 0x4
 559 0173 35080000 		.4byte	.LASF31
 560 0177 07       		.byte	0x7
 561 0178 3F       		.byte	0x3f
 562 0179 7D010000 		.4byte	0x17d
 563 017d 07       		.uleb128 0x7
 564 017e 0F040000 		.4byte	.LASF53
 565 0182 60       		.byte	0x60
 566 0183 08       		.byte	0x8
 567 0184 C2       		.byte	0xc2
 568 0185 83020000 		.4byte	0x283
 569 0189 08       		.uleb128 0x8
 570 018a 33060000 		.4byte	.LASF32
ARM GAS  /tmp/ccEgXP7Z.s 			page 11


 571 018e 08       		.byte	0x8
 572 018f C3       		.byte	0xc3
 573 0190 8E020000 		.4byte	0x28e
 574 0194 00       		.byte	0
 575 0195 08       		.uleb128 0x8
 576 0196 B1050000 		.4byte	.LASF33
 577 019a 08       		.byte	0x8
 578 019b C5       		.byte	0xc5
 579 019c 8E020000 		.4byte	0x28e
 580 01a0 04       		.byte	0x4
 581 01a1 08       		.uleb128 0x8
 582 01a2 F9000000 		.4byte	.LASF34
 583 01a6 08       		.byte	0x8
 584 01a7 C7       		.byte	0xc7
 585 01a8 2B010000 		.4byte	0x12b
 586 01ac 08       		.byte	0x8
 587 01ad 08       		.uleb128 0x8
 588 01ae 28050000 		.4byte	.LASF35
 589 01b2 08       		.byte	0x8
 590 01b3 C8       		.byte	0xc8
 591 01b4 0A070000 		.4byte	0x70a
 592 01b8 0C       		.byte	0xc
 593 01b9 08       		.uleb128 0x8
 594 01ba 90020000 		.4byte	.LASF36
 595 01be 08       		.byte	0x8
 596 01bf CA       		.byte	0xca
 597 01c0 8E020000 		.4byte	0x28e
 598 01c4 10       		.byte	0x10
 599 01c5 08       		.uleb128 0x8
 600 01c6 1A050000 		.4byte	.LASF37
 601 01ca 08       		.byte	0x8
 602 01cb CB       		.byte	0xcb
 603 01cc 8E020000 		.4byte	0x28e
 604 01d0 14       		.byte	0x14
 605 01d1 08       		.uleb128 0x8
 606 01d2 6B080000 		.4byte	.LASF38
 607 01d6 08       		.byte	0x8
 608 01d7 D2       		.byte	0xd2
 609 01d8 200B0000 		.4byte	0xb20
 610 01dc 18       		.byte	0x18
 611 01dd 08       		.uleb128 0x8
 612 01de 2C030000 		.4byte	.LASF39
 613 01e2 08       		.byte	0x8
 614 01e3 D8       		.byte	0xd8
 615 01e4 370B0000 		.4byte	0xb37
 616 01e8 1C       		.byte	0x1c
 617 01e9 08       		.uleb128 0x8
 618 01ea 18060000 		.4byte	.LASF40
 619 01ee 08       		.byte	0x8
 620 01ef DD       		.byte	0xdd
 621 01f0 15010000 		.4byte	0x115
 622 01f4 20       		.byte	0x20
 623 01f5 08       		.uleb128 0x8
 624 01f6 51060000 		.4byte	.LASF41
 625 01fa 08       		.byte	0x8
 626 01fb E1       		.byte	0xe1
 627 01fc 0A010000 		.4byte	0x10a
ARM GAS  /tmp/ccEgXP7Z.s 			page 12


 628 0200 21       		.byte	0x21
 629 0201 08       		.uleb128 0x8
 630 0202 26080000 		.4byte	.LASF42
 631 0206 08       		.byte	0x8
 632 0207 E6       		.byte	0xe6
 633 0208 20010000 		.4byte	0x120
 634 020c 22       		.byte	0x22
 635 020d 09       		.uleb128 0x9
 636 020e 705F7500 		.ascii	"p_u\000"
 637 0212 08       		.byte	0x8
 638 0213 3101     		.2byte	0x131
 639 0215 5B0A0000 		.4byte	0xa5b
 640 0219 24       		.byte	0x24
 641 021a 0A       		.uleb128 0xa
 642 021b C7040000 		.4byte	.LASF43
 643 021f 08       		.byte	0x8
 644 0220 3601     		.2byte	0x136
 645 0222 94020000 		.4byte	0x294
 646 0226 28       		.byte	0x28
 647 0227 0A       		.uleb128 0xa
 648 0228 DB030000 		.4byte	.LASF44
 649 022c 08       		.byte	0x8
 650 022d 3C01     		.2byte	0x13c
 651 022f B8020000 		.4byte	0x2b8
 652 0233 2C       		.byte	0x2c
 653 0234 0A       		.uleb128 0xa
 654 0235 E0070000 		.4byte	.LASF45
 655 0239 08       		.byte	0x8
 656 023a 4001     		.2byte	0x140
 657 023c 36010000 		.4byte	0x136
 658 0240 34       		.byte	0x34
 659 0241 0A       		.uleb128 0xa
 660 0242 CE060000 		.4byte	.LASF46
 661 0246 08       		.byte	0x8
 662 0247 4601     		.2byte	0x146
 663 0249 41010000 		.4byte	0x141
 664 024d 38       		.byte	0x38
 665 024e 0A       		.uleb128 0xa
 666 024f 04060000 		.4byte	.LASF47
 667 0253 08       		.byte	0x8
 668 0254 4D01     		.2byte	0x14d
 669 0256 1A0B0000 		.4byte	0xb1a
 670 025a 3C       		.byte	0x3c
 671 025b 0A       		.uleb128 0xa
 672 025c 8D070000 		.4byte	.LASF48
 673 0260 08       		.byte	0x8
 674 0261 5101     		.2byte	0x151
 675 0263 2B010000 		.4byte	0x12b
 676 0267 40       		.byte	0x40
 677 0268 0A       		.uleb128 0xa
 678 0269 0D010000 		.4byte	.LASF49
 679 026d 08       		.byte	0x8
 680 026e 5801     		.2byte	0x158
 681 0270 6B030000 		.4byte	0x36b
 682 0274 44       		.byte	0x44
 683 0275 0A       		.uleb128 0xa
 684 0276 59060000 		.4byte	.LASF50
ARM GAS  /tmp/ccEgXP7Z.s 			page 13


 685 027a 08       		.byte	0x8
 686 027b 5E01     		.2byte	0x15e
 687 027d 0C0A0000 		.4byte	0xa0c
 688 0281 48       		.byte	0x48
 689 0282 00       		.byte	0
 690 0283 04       		.uleb128 0x4
 691 0284 51080000 		.4byte	.LASF51
 692 0288 07       		.byte	0x7
 693 0289 44       		.byte	0x44
 694 028a 8E020000 		.4byte	0x28e
 695 028e 0B       		.uleb128 0xb
 696 028f 04       		.byte	0x4
 697 0290 72010000 		.4byte	0x172
 698 0294 04       		.uleb128 0x4
 699 0295 A4040000 		.4byte	.LASF52
 700 0299 07       		.byte	0x7
 701 029a 49       		.byte	0x49
 702 029b 9F020000 		.4byte	0x29f
 703 029f 07       		.uleb128 0x7
 704 02a0 F6060000 		.4byte	.LASF54
 705 02a4 04       		.byte	0x4
 706 02a5 08       		.byte	0x8
 707 02a6 B0       		.byte	0xb0
 708 02a7 B8020000 		.4byte	0x2b8
 709 02ab 08       		.uleb128 0x8
 710 02ac 33060000 		.4byte	.LASF32
 711 02b0 08       		.byte	0x8
 712 02b1 B1       		.byte	0xb1
 713 02b2 8E020000 		.4byte	0x28e
 714 02b6 00       		.byte	0
 715 02b7 00       		.byte	0
 716 02b8 04       		.uleb128 0x4
 717 02b9 93060000 		.4byte	.LASF55
 718 02bd 07       		.byte	0x7
 719 02be 50       		.byte	0x50
 720 02bf C3020000 		.4byte	0x2c3
 721 02c3 07       		.uleb128 0x7
 722 02c4 69000000 		.4byte	.LASF56
 723 02c8 08       		.byte	0x8
 724 02c9 08       		.byte	0x8
 725 02ca B7       		.byte	0xb7
 726 02cb E8020000 		.4byte	0x2e8
 727 02cf 08       		.uleb128 0x8
 728 02d0 33060000 		.4byte	.LASF32
 729 02d4 08       		.byte	0x8
 730 02d5 B8       		.byte	0xb8
 731 02d6 8E020000 		.4byte	0x28e
 732 02da 00       		.byte	0
 733 02db 08       		.uleb128 0x8
 734 02dc B1050000 		.4byte	.LASF33
 735 02e0 08       		.byte	0x8
 736 02e1 B9       		.byte	0xb9
 737 02e2 8E020000 		.4byte	0x28e
 738 02e6 04       		.byte	0x4
 739 02e7 00       		.byte	0
 740 02e8 04       		.uleb128 0x4
 741 02e9 00000000 		.4byte	.LASF57
ARM GAS  /tmp/ccEgXP7Z.s 			page 14


 742 02ed 07       		.byte	0x7
 743 02ee 57       		.byte	0x57
 744 02ef F3020000 		.4byte	0x2f3
 745 02f3 0C       		.uleb128 0xc
 746 02f4 66040000 		.4byte	.LASF58
 747 02f8 1C       		.byte	0x1c
 748 02f9 08       		.byte	0x8
 749 02fa 9001     		.2byte	0x190
 750 02fc 4F030000 		.4byte	0x34f
 751 0300 0A       		.uleb128 0xa
 752 0301 EE060000 		.4byte	.LASF59
 753 0305 08       		.byte	0x8
 754 0306 9101     		.2byte	0x191
 755 0308 B8020000 		.4byte	0x2b8
 756 030c 00       		.byte	0
 757 030d 0A       		.uleb128 0xa
 758 030e 25060000 		.4byte	.LASF60
 759 0312 08       		.byte	0x8
 760 0313 9201     		.2byte	0x192
 761 0315 2B010000 		.4byte	0x12b
 762 0319 08       		.byte	0x8
 763 031a 0A       		.uleb128 0xa
 764 031b 22050000 		.4byte	.LASF61
 765 031f 08       		.byte	0x8
 766 0320 9401     		.2byte	0x194
 767 0322 0A070000 		.4byte	0x70a
 768 0326 0C       		.byte	0xc
 769 0327 0A       		.uleb128 0xa
 770 0328 AA020000 		.4byte	.LASF62
 771 032c 08       		.byte	0x8
 772 032d 9701     		.2byte	0x197
 773 032f 8E020000 		.4byte	0x28e
 774 0333 10       		.byte	0x10
 775 0334 0A       		.uleb128 0xa
 776 0335 55050000 		.4byte	.LASF63
 777 0339 08       		.byte	0x8
 778 033a 9801     		.2byte	0x198
 779 033c 8E020000 		.4byte	0x28e
 780 0340 14       		.byte	0x14
 781 0341 0A       		.uleb128 0xa
 782 0342 4B050000 		.4byte	.LASF64
 783 0346 08       		.byte	0x8
 784 0347 9B01     		.2byte	0x19b
 785 0349 8E020000 		.4byte	0x28e
 786 034d 18       		.byte	0x18
 787 034e 00       		.byte	0
 788 034f 04       		.uleb128 0x4
 789 0350 98070000 		.4byte	.LASF65
 790 0354 07       		.byte	0x7
 791 0355 5C       		.byte	0x5c
 792 0356 5A030000 		.4byte	0x35a
 793 035a 0B       		.uleb128 0xb
 794 035b 04       		.byte	0x4
 795 035c 60030000 		.4byte	0x360
 796 0360 0D       		.uleb128 0xd
 797 0361 6B030000 		.4byte	0x36b
 798 0365 0E       		.uleb128 0xe
ARM GAS  /tmp/ccEgXP7Z.s 			page 15


 799 0366 6B030000 		.4byte	0x36b
 800 036a 00       		.byte	0
 801 036b 0F       		.uleb128 0xf
 802 036c 04       		.byte	0x4
 803 036d 04       		.uleb128 0x4
 804 036e A1050000 		.4byte	.LASF66
 805 0372 07       		.byte	0x7
 806 0373 61       		.byte	0x61
 807 0374 78030000 		.4byte	0x378
 808 0378 0C       		.uleb128 0xc
 809 0379 A3060000 		.4byte	.LASF67
 810 037d 14       		.byte	0x14
 811 037e 08       		.byte	0x8
 812 037f 6B01     		.2byte	0x16b
 813 0381 C7030000 		.4byte	0x3c7
 814 0385 0A       		.uleb128 0xa
 815 0386 4E030000 		.4byte	.LASF68
 816 038a 08       		.byte	0x8
 817 038b 6C01     		.2byte	0x16c
 818 038d 3D0B0000 		.4byte	0xb3d
 819 0391 00       		.byte	0
 820 0392 0A       		.uleb128 0xa
 821 0393 BB020000 		.4byte	.LASF69
 822 0397 08       		.byte	0x8
 823 0398 6D01     		.2byte	0x16d
 824 039a 3D0B0000 		.4byte	0xb3d
 825 039e 04       		.byte	0x4
 826 039f 0A       		.uleb128 0xa
 827 03a0 D2030000 		.4byte	.LASF70
 828 03a4 08       		.byte	0x8
 829 03a5 6E01     		.2byte	0x16e
 830 03a7 62010000 		.4byte	0x162
 831 03ab 08       		.byte	0x8
 832 03ac 0A       		.uleb128 0xa
 833 03ad B8080000 		.4byte	.LASF71
 834 03b1 08       		.byte	0x8
 835 03b2 6F01     		.2byte	0x16f
 836 03b4 4F030000 		.4byte	0x34f
 837 03b8 0C       		.byte	0xc
 838 03b9 0A       		.uleb128 0xa
 839 03ba 0B080000 		.4byte	.LASF72
 840 03be 08       		.byte	0x8
 841 03bf 7101     		.2byte	0x171
 842 03c1 6B030000 		.4byte	0x36b
 843 03c5 10       		.byte	0x10
 844 03c6 00       		.byte	0
 845 03c7 04       		.uleb128 0x4
 846 03c8 CE000000 		.4byte	.LASF73
 847 03cc 07       		.byte	0x7
 848 03cd 66       		.byte	0x66
 849 03ce D2030000 		.4byte	0x3d2
 850 03d2 0C       		.uleb128 0xc
 851 03d3 DF040000 		.4byte	.LASF74
 852 03d7 10       		.byte	0x10
 853 03d8 08       		.byte	0x8
 854 03d9 7B01     		.2byte	0x17b
 855 03db 14040000 		.4byte	0x414
ARM GAS  /tmp/ccEgXP7Z.s 			page 16


 856 03df 0A       		.uleb128 0xa
 857 03e0 4E030000 		.4byte	.LASF68
 858 03e4 08       		.byte	0x8
 859 03e5 7C01     		.2byte	0x17c
 860 03e7 3D0B0000 		.4byte	0xb3d
 861 03eb 00       		.byte	0
 862 03ec 0A       		.uleb128 0xa
 863 03ed BB020000 		.4byte	.LASF69
 864 03f1 08       		.byte	0x8
 865 03f2 7E01     		.2byte	0x17e
 866 03f4 3D0B0000 		.4byte	0xb3d
 867 03f8 04       		.byte	0x4
 868 03f9 0A       		.uleb128 0xa
 869 03fa D2030000 		.4byte	.LASF70
 870 03fe 08       		.byte	0x8
 871 03ff 8001     		.2byte	0x180
 872 0401 62010000 		.4byte	0x162
 873 0405 08       		.byte	0x8
 874 0406 0A       		.uleb128 0xa
 875 0407 BA030000 		.4byte	.LASF75
 876 040b 08       		.byte	0x8
 877 040c 8201     		.2byte	0x182
 878 040e 6D010000 		.4byte	0x16d
 879 0412 0C       		.byte	0xc
 880 0413 00       		.byte	0
 881 0414 04       		.uleb128 0x4
 882 0415 7A000000 		.4byte	.LASF76
 883 0419 07       		.byte	0x7
 884 041a 6B       		.byte	0x6b
 885 041b 1F040000 		.4byte	0x41f
 886 041f 0C       		.uleb128 0xc
 887 0420 D8020000 		.4byte	.LASF77
 888 0424 0C       		.byte	0xc
 889 0425 08       		.byte	0x8
 890 0426 A201     		.2byte	0x1a2
 891 0428 54040000 		.4byte	0x454
 892 042c 0A       		.uleb128 0xa
 893 042d BA070000 		.4byte	.LASF78
 894 0431 08       		.byte	0x8
 895 0432 AA01     		.2byte	0x1aa
 896 0434 260B0000 		.4byte	0xb26
 897 0438 00       		.byte	0
 898 0439 0A       		.uleb128 0xa
 899 043a 2D080000 		.4byte	.LASF79
 900 043e 08       		.byte	0x8
 901 043f AF01     		.2byte	0x1af
 902 0441 4C010000 		.4byte	0x14c
 903 0445 04       		.byte	0x4
 904 0446 0A       		.uleb128 0xa
 905 0447 05030000 		.4byte	.LASF80
 906 044b 08       		.byte	0x8
 907 044c B301     		.2byte	0x1b3
 908 044e 4C010000 		.4byte	0x14c
 909 0452 08       		.byte	0x8
 910 0453 00       		.byte	0
 911 0454 04       		.uleb128 0x4
 912 0455 CC020000 		.4byte	.LASF81
ARM GAS  /tmp/ccEgXP7Z.s 			page 17


 913 0459 07       		.byte	0x7
 914 045a 70       		.byte	0x70
 915 045b 5F040000 		.4byte	0x45f
 916 045f 10       		.uleb128 0x10
 917 0460 51010000 		.4byte	.LASF82
 918 0464 5802     		.2byte	0x258
 919 0466 08       		.byte	0x8
 920 0467 C201     		.2byte	0x1c2
 921 0469 C8040000 		.4byte	0x4c8
 922 046d 0A       		.uleb128 0xa
 923 046e 43080000 		.4byte	.LASF83
 924 0472 08       		.byte	0x8
 925 0473 C601     		.2byte	0x1c6
 926 0475 E8020000 		.4byte	0x2e8
 927 0479 00       		.byte	0
 928 047a 0A       		.uleb128 0xa
 929 047b 39010000 		.4byte	.LASF84
 930 047f 08       		.byte	0x8
 931 0480 CA01     		.2byte	0x1ca
 932 0482 C7030000 		.4byte	0x3c7
 933 0486 1C       		.byte	0x1c
 934 0487 09       		.uleb128 0x9
 935 0488 64626700 		.ascii	"dbg\000"
 936 048c 08       		.byte	0x8
 937 048d CE01     		.2byte	0x1ce
 938 048f 14040000 		.4byte	0x414
 939 0493 2C       		.byte	0x2c
 940 0494 0A       		.uleb128 0xa
 941 0495 C3000000 		.4byte	.LASF85
 942 0499 08       		.byte	0x8
 943 049a D201     		.2byte	0x1d2
 944 049c 72010000 		.4byte	0x172
 945 04a0 38       		.byte	0x38
 946 04a1 09       		.uleb128 0x9
 947 04a2 746D00   		.ascii	"tm\000"
 948 04a5 08       		.byte	0x8
 949 04a6 D701     		.2byte	0x1d7
 950 04a8 BE090000 		.4byte	0x9be
 951 04ac 98       		.byte	0x98
 952 04ad 0A       		.uleb128 0xa
 953 04ae 3A000000 		.4byte	.LASF86
 954 04b2 08       		.byte	0x8
 955 04b3 DD01     		.2byte	0x1dd
 956 04b5 500A0000 		.4byte	0xa50
 957 04b9 A0       		.byte	0xa0
 958 04ba 0A       		.uleb128 0xa
 959 04bb 0E030000 		.4byte	.LASF87
 960 04bf 08       		.byte	0x8
 961 04c0 E301     		.2byte	0x1e3
 962 04c2 430B0000 		.4byte	0xb43
 963 04c6 D8       		.byte	0xd8
 964 04c7 00       		.byte	0
 965 04c8 03       		.uleb128 0x3
 966 04c9 04       		.byte	0x4
 967 04ca 07       		.byte	0x7
 968 04cb D6040000 		.4byte	.LASF88
 969 04cf 11       		.uleb128 0x11
ARM GAS  /tmp/ccEgXP7Z.s 			page 18


 970 04d0 8C       		.byte	0x8c
 971 04d1 09       		.byte	0x9
 972 04d2 C001     		.2byte	0x1c0
 973 04d4 EA050000 		.4byte	0x5ea
 974 04d8 0A       		.uleb128 0xa
 975 04d9 E4000000 		.4byte	.LASF89
 976 04dd 09       		.byte	0x9
 977 04de C201     		.2byte	0x1c2
 978 04e0 E4000000 		.4byte	0xe4
 979 04e4 00       		.byte	0
 980 04e5 0A       		.uleb128 0xa
 981 04e6 19040000 		.4byte	.LASF90
 982 04ea 09       		.byte	0x9
 983 04eb C301     		.2byte	0x1c3
 984 04ed DF000000 		.4byte	0xdf
 985 04f1 04       		.byte	0x4
 986 04f2 0A       		.uleb128 0xa
 987 04f3 F5030000 		.4byte	.LASF91
 988 04f7 09       		.byte	0x9
 989 04f8 C401     		.2byte	0x1c4
 990 04fa DF000000 		.4byte	0xdf
 991 04fe 08       		.byte	0x8
 992 04ff 0A       		.uleb128 0xa
 993 0500 24040000 		.4byte	.LASF92
 994 0504 09       		.byte	0x9
 995 0505 C501     		.2byte	0x1c5
 996 0507 DF000000 		.4byte	0xdf
 997 050b 0C       		.byte	0xc
 998 050c 09       		.uleb128 0x9
 999 050d 53435200 		.ascii	"SCR\000"
 1000 0511 09       		.byte	0x9
 1001 0512 C601     		.2byte	0x1c6
 1002 0514 DF000000 		.4byte	0xdf
 1003 0518 10       		.byte	0x10
 1004 0519 09       		.uleb128 0x9
 1005 051a 43435200 		.ascii	"CCR\000"
 1006 051e 09       		.byte	0x9
 1007 051f C701     		.2byte	0x1c7
 1008 0521 DF000000 		.4byte	0xdf
 1009 0525 14       		.byte	0x14
 1010 0526 09       		.uleb128 0x9
 1011 0527 53485000 		.ascii	"SHP\000"
 1012 052b 09       		.byte	0x9
 1013 052c C801     		.2byte	0x1c8
 1014 052e FA050000 		.4byte	0x5fa
 1015 0532 18       		.byte	0x18
 1016 0533 0A       		.uleb128 0xa
 1017 0534 F1050000 		.4byte	.LASF93
 1018 0538 09       		.byte	0x9
 1019 0539 C901     		.2byte	0x1c9
 1020 053b DF000000 		.4byte	0xdf
 1021 053f 24       		.byte	0x24
 1022 0540 0A       		.uleb128 0xa
 1023 0541 D1040000 		.4byte	.LASF94
 1024 0545 09       		.byte	0x9
 1025 0546 CA01     		.2byte	0x1ca
 1026 0548 DF000000 		.4byte	0xdf
ARM GAS  /tmp/ccEgXP7Z.s 			page 19


 1027 054c 28       		.byte	0x28
 1028 054d 0A       		.uleb128 0xa
 1029 054e 83080000 		.4byte	.LASF95
 1030 0552 09       		.byte	0x9
 1031 0553 CB01     		.2byte	0x1cb
 1032 0555 DF000000 		.4byte	0xdf
 1033 0559 2C       		.byte	0x2c
 1034 055a 0A       		.uleb128 0xa
 1035 055b 2A040000 		.4byte	.LASF96
 1036 055f 09       		.byte	0x9
 1037 0560 CC01     		.2byte	0x1cc
 1038 0562 DF000000 		.4byte	0xdf
 1039 0566 30       		.byte	0x30
 1040 0567 0A       		.uleb128 0xa
 1041 0568 36040000 		.4byte	.LASF97
 1042 056c 09       		.byte	0x9
 1043 056d CD01     		.2byte	0x1cd
 1044 056f DF000000 		.4byte	0xdf
 1045 0573 34       		.byte	0x34
 1046 0574 0A       		.uleb128 0xa
 1047 0575 A0020000 		.4byte	.LASF98
 1048 0579 09       		.byte	0x9
 1049 057a CE01     		.2byte	0x1ce
 1050 057c DF000000 		.4byte	0xdf
 1051 0580 38       		.byte	0x38
 1052 0581 0A       		.uleb128 0xa
 1053 0582 A5020000 		.4byte	.LASF99
 1054 0586 09       		.byte	0x9
 1055 0587 CF01     		.2byte	0x1cf
 1056 0589 DF000000 		.4byte	0xdf
 1057 058d 3C       		.byte	0x3c
 1058 058e 09       		.uleb128 0x9
 1059 058f 50465200 		.ascii	"PFR\000"
 1060 0593 09       		.byte	0x9
 1061 0594 D001     		.2byte	0x1d0
 1062 0596 14060000 		.4byte	0x614
 1063 059a 40       		.byte	0x40
 1064 059b 09       		.uleb128 0x9
 1065 059c 44465200 		.ascii	"DFR\000"
 1066 05a0 09       		.byte	0x9
 1067 05a1 D101     		.2byte	0x1d1
 1068 05a3 E4000000 		.4byte	0xe4
 1069 05a7 48       		.byte	0x48
 1070 05a8 09       		.uleb128 0x9
 1071 05a9 41445200 		.ascii	"ADR\000"
 1072 05ad 09       		.byte	0x9
 1073 05ae D201     		.2byte	0x1d2
 1074 05b0 E4000000 		.4byte	0xe4
 1075 05b4 4C       		.byte	0x4c
 1076 05b5 0A       		.uleb128 0xa
 1077 05b6 3E080000 		.4byte	.LASF100
 1078 05ba 09       		.byte	0x9
 1079 05bb D301     		.2byte	0x1d3
 1080 05bd 2E060000 		.4byte	0x62e
 1081 05c1 50       		.byte	0x50
 1082 05c2 0A       		.uleb128 0xa
 1083 05c3 34010000 		.4byte	.LASF101
ARM GAS  /tmp/ccEgXP7Z.s 			page 20


 1084 05c7 09       		.byte	0x9
 1085 05c8 D401     		.2byte	0x1d4
 1086 05ca 48060000 		.4byte	0x648
 1087 05ce 60       		.byte	0x60
 1088 05cf 0A       		.uleb128 0xa
 1089 05d0 87050000 		.4byte	.LASF102
 1090 05d4 09       		.byte	0x9
 1091 05d5 D501     		.2byte	0x1d5
 1092 05d7 4D060000 		.4byte	0x64d
 1093 05db 74       		.byte	0x74
 1094 05dc 0A       		.uleb128 0xa
 1095 05dd 7D080000 		.4byte	.LASF103
 1096 05e1 09       		.byte	0x9
 1097 05e2 D601     		.2byte	0x1d6
 1098 05e4 DF000000 		.4byte	0xdf
 1099 05e8 88       		.byte	0x88
 1100 05e9 00       		.byte	0
 1101 05ea 12       		.uleb128 0x12
 1102 05eb B4000000 		.4byte	0xb4
 1103 05ef FA050000 		.4byte	0x5fa
 1104 05f3 13       		.uleb128 0x13
 1105 05f4 C8040000 		.4byte	0x4c8
 1106 05f8 0B       		.byte	0xb
 1107 05f9 00       		.byte	0
 1108 05fa 05       		.uleb128 0x5
 1109 05fb EA050000 		.4byte	0x5ea
 1110 05ff 12       		.uleb128 0x12
 1111 0600 E4000000 		.4byte	0xe4
 1112 0604 0F060000 		.4byte	0x60f
 1113 0608 13       		.uleb128 0x13
 1114 0609 C8040000 		.4byte	0x4c8
 1115 060d 01       		.byte	0x1
 1116 060e 00       		.byte	0
 1117 060f 06       		.uleb128 0x6
 1118 0610 FF050000 		.4byte	0x5ff
 1119 0614 05       		.uleb128 0x5
 1120 0615 0F060000 		.4byte	0x60f
 1121 0619 12       		.uleb128 0x12
 1122 061a E4000000 		.4byte	0xe4
 1123 061e 29060000 		.4byte	0x629
 1124 0622 13       		.uleb128 0x13
 1125 0623 C8040000 		.4byte	0x4c8
 1126 0627 03       		.byte	0x3
 1127 0628 00       		.byte	0
 1128 0629 06       		.uleb128 0x6
 1129 062a 19060000 		.4byte	0x619
 1130 062e 05       		.uleb128 0x5
 1131 062f 29060000 		.4byte	0x629
 1132 0633 12       		.uleb128 0x12
 1133 0634 E4000000 		.4byte	0xe4
 1134 0638 43060000 		.4byte	0x643
 1135 063c 13       		.uleb128 0x13
 1136 063d C8040000 		.4byte	0x4c8
 1137 0641 04       		.byte	0x4
 1138 0642 00       		.byte	0
 1139 0643 06       		.uleb128 0x6
 1140 0644 33060000 		.4byte	0x633
ARM GAS  /tmp/ccEgXP7Z.s 			page 21


 1141 0648 05       		.uleb128 0x5
 1142 0649 43060000 		.4byte	0x643
 1143 064d 12       		.uleb128 0x12
 1144 064e D4000000 		.4byte	0xd4
 1145 0652 5D060000 		.4byte	0x65d
 1146 0656 13       		.uleb128 0x13
 1147 0657 C8040000 		.4byte	0x4c8
 1148 065b 04       		.byte	0x4
 1149 065c 00       		.byte	0
 1150 065d 14       		.uleb128 0x14
 1151 065e C3020000 		.4byte	.LASF104
 1152 0662 09       		.byte	0x9
 1153 0663 D701     		.2byte	0x1d7
 1154 0665 CF040000 		.4byte	0x4cf
 1155 0669 12       		.uleb128 0x12
 1156 066a D4000000 		.4byte	0xd4
 1157 066e 79060000 		.4byte	0x679
 1158 0672 13       		.uleb128 0x13
 1159 0673 C8040000 		.4byte	0x4c8
 1160 0677 00       		.byte	0
 1161 0678 00       		.byte	0
 1162 0679 11       		.uleb128 0x11
 1163 067a 18       		.byte	0x18
 1164 067b 09       		.byte	0x9
 1165 067c DE04     		.2byte	0x4de
 1166 067e D1060000 		.4byte	0x6d1
 1167 0682 0A       		.uleb128 0xa
 1168 0683 87050000 		.4byte	.LASF102
 1169 0687 09       		.byte	0x9
 1170 0688 E004     		.2byte	0x4e0
 1171 068a 69060000 		.4byte	0x669
 1172 068e 00       		.byte	0
 1173 068f 0A       		.uleb128 0xa
 1174 0690 8D060000 		.4byte	.LASF105
 1175 0694 09       		.byte	0x9
 1176 0695 E104     		.2byte	0x4e1
 1177 0697 DF000000 		.4byte	0xdf
 1178 069b 04       		.byte	0x4
 1179 069c 0A       		.uleb128 0xa
 1180 069d 7B060000 		.4byte	.LASF106
 1181 06a1 09       		.byte	0x9
 1182 06a2 E204     		.2byte	0x4e2
 1183 06a4 DF000000 		.4byte	0xdf
 1184 06a8 08       		.byte	0x8
 1185 06a9 0A       		.uleb128 0xa
 1186 06aa 1A000000 		.4byte	.LASF107
 1187 06ae 09       		.byte	0x9
 1188 06af E304     		.2byte	0x4e3
 1189 06b1 DF000000 		.4byte	0xdf
 1190 06b5 0C       		.byte	0xc
 1191 06b6 0A       		.uleb128 0xa
 1192 06b7 73050000 		.4byte	.LASF108
 1193 06bb 09       		.byte	0x9
 1194 06bc E404     		.2byte	0x4e4
 1195 06be E4000000 		.4byte	0xe4
 1196 06c2 10       		.byte	0x10
 1197 06c3 0A       		.uleb128 0xa
ARM GAS  /tmp/ccEgXP7Z.s 			page 22


 1198 06c4 79050000 		.4byte	.LASF109
 1199 06c8 09       		.byte	0x9
 1200 06c9 E504     		.2byte	0x4e5
 1201 06cb E4000000 		.4byte	0xe4
 1202 06cf 14       		.byte	0x14
 1203 06d0 00       		.byte	0
 1204 06d1 14       		.uleb128 0x14
 1205 06d2 23030000 		.4byte	.LASF110
 1206 06d6 09       		.byte	0x9
 1207 06d7 E604     		.2byte	0x4e6
 1208 06d9 79060000 		.4byte	0x679
 1209 06dd 15       		.uleb128 0x15
 1210 06de F7050000 		.4byte	.LASF111
 1211 06e2 09       		.byte	0x9
 1212 06e3 FA06     		.2byte	0x6fa
 1213 06e5 CF000000 		.4byte	0xcf
 1214 06e9 16       		.uleb128 0x16
 1215 06ea 5F030000 		.4byte	.LASF112
 1216 06ee 0A       		.byte	0xa
 1217 06ef 4C       		.byte	0x4c
 1218 06f0 D4000000 		.4byte	0xd4
 1219 06f4 04       		.uleb128 0x4
 1220 06f5 B2020000 		.4byte	.LASF113
 1221 06f9 0B       		.byte	0xb
 1222 06fa 65       		.byte	0x65
 1223 06fb 6B030000 		.4byte	0x36b
 1224 06ff 04       		.uleb128 0x4
 1225 0700 99040000 		.4byte	.LASF114
 1226 0704 0B       		.byte	0xb
 1227 0705 6D       		.byte	0x6d
 1228 0706 E9000000 		.4byte	0xe9
 1229 070a 07       		.uleb128 0x7
 1230 070b CB070000 		.4byte	.LASF115
 1231 070f 04       		.byte	0x4
 1232 0710 0B       		.byte	0xb
 1233 0711 89       		.byte	0x89
 1234 0712 23070000 		.4byte	0x723
 1235 0716 17       		.uleb128 0x17
 1236 0717 72313300 		.ascii	"r13\000"
 1237 071b 0B       		.byte	0xb
 1238 071c 8A       		.byte	0x8a
 1239 071d 6D080000 		.4byte	0x86d
 1240 0721 00       		.byte	0
 1241 0722 00       		.byte	0
 1242 0723 07       		.uleb128 0x7
 1243 0724 5D000000 		.4byte	.LASF116
 1244 0728 64       		.byte	0x64
 1245 0729 01       		.byte	0x1
 1246 072a FD       		.byte	0xfd
 1247 072b 6D080000 		.4byte	0x86d
 1248 072f 17       		.uleb128 0x17
 1249 0730 73313600 		.ascii	"s16\000"
 1250 0734 01       		.byte	0x1
 1251 0735 FF       		.byte	0xff
 1252 0736 F4060000 		.4byte	0x6f4
 1253 073a 00       		.byte	0
 1254 073b 09       		.uleb128 0x9
ARM GAS  /tmp/ccEgXP7Z.s 			page 23


 1255 073c 73313700 		.ascii	"s17\000"
 1256 0740 01       		.byte	0x1
 1257 0741 0001     		.2byte	0x100
 1258 0743 F4060000 		.4byte	0x6f4
 1259 0747 04       		.byte	0x4
 1260 0748 09       		.uleb128 0x9
 1261 0749 73313800 		.ascii	"s18\000"
 1262 074d 01       		.byte	0x1
 1263 074e 0101     		.2byte	0x101
 1264 0750 F4060000 		.4byte	0x6f4
 1265 0754 08       		.byte	0x8
 1266 0755 09       		.uleb128 0x9
 1267 0756 73313900 		.ascii	"s19\000"
 1268 075a 01       		.byte	0x1
 1269 075b 0201     		.2byte	0x102
 1270 075d F4060000 		.4byte	0x6f4
 1271 0761 0C       		.byte	0xc
 1272 0762 09       		.uleb128 0x9
 1273 0763 73323000 		.ascii	"s20\000"
 1274 0767 01       		.byte	0x1
 1275 0768 0301     		.2byte	0x103
 1276 076a F4060000 		.4byte	0x6f4
 1277 076e 10       		.byte	0x10
 1278 076f 09       		.uleb128 0x9
 1279 0770 73323100 		.ascii	"s21\000"
 1280 0774 01       		.byte	0x1
 1281 0775 0401     		.2byte	0x104
 1282 0777 F4060000 		.4byte	0x6f4
 1283 077b 14       		.byte	0x14
 1284 077c 09       		.uleb128 0x9
 1285 077d 73323200 		.ascii	"s22\000"
 1286 0781 01       		.byte	0x1
 1287 0782 0501     		.2byte	0x105
 1288 0784 F4060000 		.4byte	0x6f4
 1289 0788 18       		.byte	0x18
 1290 0789 09       		.uleb128 0x9
 1291 078a 73323300 		.ascii	"s23\000"
 1292 078e 01       		.byte	0x1
 1293 078f 0601     		.2byte	0x106
 1294 0791 F4060000 		.4byte	0x6f4
 1295 0795 1C       		.byte	0x1c
 1296 0796 09       		.uleb128 0x9
 1297 0797 73323400 		.ascii	"s24\000"
 1298 079b 01       		.byte	0x1
 1299 079c 0701     		.2byte	0x107
 1300 079e F4060000 		.4byte	0x6f4
 1301 07a2 20       		.byte	0x20
 1302 07a3 09       		.uleb128 0x9
 1303 07a4 73323500 		.ascii	"s25\000"
 1304 07a8 01       		.byte	0x1
 1305 07a9 0801     		.2byte	0x108
 1306 07ab F4060000 		.4byte	0x6f4
 1307 07af 24       		.byte	0x24
 1308 07b0 09       		.uleb128 0x9
 1309 07b1 73323600 		.ascii	"s26\000"
 1310 07b5 01       		.byte	0x1
 1311 07b6 0901     		.2byte	0x109
ARM GAS  /tmp/ccEgXP7Z.s 			page 24


 1312 07b8 F4060000 		.4byte	0x6f4
 1313 07bc 28       		.byte	0x28
 1314 07bd 09       		.uleb128 0x9
 1315 07be 73323700 		.ascii	"s27\000"
 1316 07c2 01       		.byte	0x1
 1317 07c3 0A01     		.2byte	0x10a
 1318 07c5 F4060000 		.4byte	0x6f4
 1319 07c9 2C       		.byte	0x2c
 1320 07ca 09       		.uleb128 0x9
 1321 07cb 73323800 		.ascii	"s28\000"
 1322 07cf 01       		.byte	0x1
 1323 07d0 0B01     		.2byte	0x10b
 1324 07d2 F4060000 		.4byte	0x6f4
 1325 07d6 30       		.byte	0x30
 1326 07d7 09       		.uleb128 0x9
 1327 07d8 73323900 		.ascii	"s29\000"
 1328 07dc 01       		.byte	0x1
 1329 07dd 0C01     		.2byte	0x10c
 1330 07df F4060000 		.4byte	0x6f4
 1331 07e3 34       		.byte	0x34
 1332 07e4 09       		.uleb128 0x9
 1333 07e5 73333000 		.ascii	"s30\000"
 1334 07e9 01       		.byte	0x1
 1335 07ea 0D01     		.2byte	0x10d
 1336 07ec F4060000 		.4byte	0x6f4
 1337 07f0 38       		.byte	0x38
 1338 07f1 09       		.uleb128 0x9
 1339 07f2 73333100 		.ascii	"s31\000"
 1340 07f6 01       		.byte	0x1
 1341 07f7 0E01     		.2byte	0x10e
 1342 07f9 F4060000 		.4byte	0x6f4
 1343 07fd 3C       		.byte	0x3c
 1344 07fe 09       		.uleb128 0x9
 1345 07ff 723400   		.ascii	"r4\000"
 1346 0802 01       		.byte	0x1
 1347 0803 1001     		.2byte	0x110
 1348 0805 F4060000 		.4byte	0x6f4
 1349 0809 40       		.byte	0x40
 1350 080a 09       		.uleb128 0x9
 1351 080b 723500   		.ascii	"r5\000"
 1352 080e 01       		.byte	0x1
 1353 080f 1101     		.2byte	0x111
 1354 0811 F4060000 		.4byte	0x6f4
 1355 0815 44       		.byte	0x44
 1356 0816 09       		.uleb128 0x9
 1357 0817 723600   		.ascii	"r6\000"
 1358 081a 01       		.byte	0x1
 1359 081b 1201     		.2byte	0x112
 1360 081d F4060000 		.4byte	0x6f4
 1361 0821 48       		.byte	0x48
 1362 0822 09       		.uleb128 0x9
 1363 0823 723700   		.ascii	"r7\000"
 1364 0826 01       		.byte	0x1
 1365 0827 1301     		.2byte	0x113
 1366 0829 F4060000 		.4byte	0x6f4
 1367 082d 4C       		.byte	0x4c
 1368 082e 09       		.uleb128 0x9
ARM GAS  /tmp/ccEgXP7Z.s 			page 25


 1369 082f 723800   		.ascii	"r8\000"
 1370 0832 01       		.byte	0x1
 1371 0833 1401     		.2byte	0x114
 1372 0835 F4060000 		.4byte	0x6f4
 1373 0839 50       		.byte	0x50
 1374 083a 09       		.uleb128 0x9
 1375 083b 723900   		.ascii	"r9\000"
 1376 083e 01       		.byte	0x1
 1377 083f 1501     		.2byte	0x115
 1378 0841 F4060000 		.4byte	0x6f4
 1379 0845 54       		.byte	0x54
 1380 0846 09       		.uleb128 0x9
 1381 0847 72313000 		.ascii	"r10\000"
 1382 084b 01       		.byte	0x1
 1383 084c 1601     		.2byte	0x116
 1384 084e F4060000 		.4byte	0x6f4
 1385 0852 58       		.byte	0x58
 1386 0853 09       		.uleb128 0x9
 1387 0854 72313100 		.ascii	"r11\000"
 1388 0858 01       		.byte	0x1
 1389 0859 1701     		.2byte	0x117
 1390 085b F4060000 		.4byte	0x6f4
 1391 085f 5C       		.byte	0x5c
 1392 0860 09       		.uleb128 0x9
 1393 0861 6C7200   		.ascii	"lr\000"
 1394 0864 01       		.byte	0x1
 1395 0865 1801     		.2byte	0x118
 1396 0867 F4060000 		.4byte	0x6f4
 1397 086b 60       		.byte	0x60
 1398 086c 00       		.byte	0
 1399 086d 0B       		.uleb128 0xb
 1400 086e 04       		.byte	0x4
 1401 086f 23070000 		.4byte	0x723
 1402 0873 07       		.uleb128 0x7
 1403 0874 2E050000 		.4byte	.LASF117
 1404 0878 68       		.byte	0x68
 1405 0879 01       		.byte	0x1
 1406 087a DE       		.byte	0xde
 1407 087b A9090000 		.4byte	0x9a9
 1408 087f 17       		.uleb128 0x17
 1409 0880 723000   		.ascii	"r0\000"
 1410 0883 01       		.byte	0x1
 1411 0884 DF       		.byte	0xdf
 1412 0885 F4060000 		.4byte	0x6f4
 1413 0889 00       		.byte	0
 1414 088a 17       		.uleb128 0x17
 1415 088b 723100   		.ascii	"r1\000"
 1416 088e 01       		.byte	0x1
 1417 088f E0       		.byte	0xe0
 1418 0890 F4060000 		.4byte	0x6f4
 1419 0894 04       		.byte	0x4
 1420 0895 17       		.uleb128 0x17
 1421 0896 723200   		.ascii	"r2\000"
 1422 0899 01       		.byte	0x1
 1423 089a E1       		.byte	0xe1
 1424 089b F4060000 		.4byte	0x6f4
 1425 089f 08       		.byte	0x8
ARM GAS  /tmp/ccEgXP7Z.s 			page 26


 1426 08a0 17       		.uleb128 0x17
 1427 08a1 723300   		.ascii	"r3\000"
 1428 08a4 01       		.byte	0x1
 1429 08a5 E2       		.byte	0xe2
 1430 08a6 F4060000 		.4byte	0x6f4
 1431 08aa 0C       		.byte	0xc
 1432 08ab 17       		.uleb128 0x17
 1433 08ac 72313200 		.ascii	"r12\000"
 1434 08b0 01       		.byte	0x1
 1435 08b1 E3       		.byte	0xe3
 1436 08b2 F4060000 		.4byte	0x6f4
 1437 08b6 10       		.byte	0x10
 1438 08b7 08       		.uleb128 0x8
 1439 08b8 74060000 		.4byte	.LASF118
 1440 08bc 01       		.byte	0x1
 1441 08bd E4       		.byte	0xe4
 1442 08be F4060000 		.4byte	0x6f4
 1443 08c2 14       		.byte	0x14
 1444 08c3 17       		.uleb128 0x17
 1445 08c4 706300   		.ascii	"pc\000"
 1446 08c7 01       		.byte	0x1
 1447 08c8 E5       		.byte	0xe5
 1448 08c9 F4060000 		.4byte	0x6f4
 1449 08cd 18       		.byte	0x18
 1450 08ce 08       		.uleb128 0x8
 1451 08cf 20060000 		.4byte	.LASF119
 1452 08d3 01       		.byte	0x1
 1453 08d4 E6       		.byte	0xe6
 1454 08d5 F4060000 		.4byte	0x6f4
 1455 08d9 1C       		.byte	0x1c
 1456 08da 17       		.uleb128 0x17
 1457 08db 733000   		.ascii	"s0\000"
 1458 08de 01       		.byte	0x1
 1459 08df E8       		.byte	0xe8
 1460 08e0 F4060000 		.4byte	0x6f4
 1461 08e4 20       		.byte	0x20
 1462 08e5 17       		.uleb128 0x17
 1463 08e6 733100   		.ascii	"s1\000"
 1464 08e9 01       		.byte	0x1
 1465 08ea E9       		.byte	0xe9
 1466 08eb F4060000 		.4byte	0x6f4
 1467 08ef 24       		.byte	0x24
 1468 08f0 17       		.uleb128 0x17
 1469 08f1 733200   		.ascii	"s2\000"
 1470 08f4 01       		.byte	0x1
 1471 08f5 EA       		.byte	0xea
 1472 08f6 F4060000 		.4byte	0x6f4
 1473 08fa 28       		.byte	0x28
 1474 08fb 17       		.uleb128 0x17
 1475 08fc 733300   		.ascii	"s3\000"
 1476 08ff 01       		.byte	0x1
 1477 0900 EB       		.byte	0xeb
 1478 0901 F4060000 		.4byte	0x6f4
 1479 0905 2C       		.byte	0x2c
 1480 0906 17       		.uleb128 0x17
 1481 0907 733400   		.ascii	"s4\000"
 1482 090a 01       		.byte	0x1
ARM GAS  /tmp/ccEgXP7Z.s 			page 27


 1483 090b EC       		.byte	0xec
 1484 090c F4060000 		.4byte	0x6f4
 1485 0910 30       		.byte	0x30
 1486 0911 17       		.uleb128 0x17
 1487 0912 733500   		.ascii	"s5\000"
 1488 0915 01       		.byte	0x1
 1489 0916 ED       		.byte	0xed
 1490 0917 F4060000 		.4byte	0x6f4
 1491 091b 34       		.byte	0x34
 1492 091c 17       		.uleb128 0x17
 1493 091d 733600   		.ascii	"s6\000"
 1494 0920 01       		.byte	0x1
 1495 0921 EE       		.byte	0xee
 1496 0922 F4060000 		.4byte	0x6f4
 1497 0926 38       		.byte	0x38
 1498 0927 17       		.uleb128 0x17
 1499 0928 733700   		.ascii	"s7\000"
 1500 092b 01       		.byte	0x1
 1501 092c EF       		.byte	0xef
 1502 092d F4060000 		.4byte	0x6f4
 1503 0931 3C       		.byte	0x3c
 1504 0932 17       		.uleb128 0x17
 1505 0933 733800   		.ascii	"s8\000"
 1506 0936 01       		.byte	0x1
 1507 0937 F0       		.byte	0xf0
 1508 0938 F4060000 		.4byte	0x6f4
 1509 093c 40       		.byte	0x40
 1510 093d 17       		.uleb128 0x17
 1511 093e 733900   		.ascii	"s9\000"
 1512 0941 01       		.byte	0x1
 1513 0942 F1       		.byte	0xf1
 1514 0943 F4060000 		.4byte	0x6f4
 1515 0947 44       		.byte	0x44
 1516 0948 17       		.uleb128 0x17
 1517 0949 73313000 		.ascii	"s10\000"
 1518 094d 01       		.byte	0x1
 1519 094e F2       		.byte	0xf2
 1520 094f F4060000 		.4byte	0x6f4
 1521 0953 48       		.byte	0x48
 1522 0954 17       		.uleb128 0x17
 1523 0955 73313100 		.ascii	"s11\000"
 1524 0959 01       		.byte	0x1
 1525 095a F3       		.byte	0xf3
 1526 095b F4060000 		.4byte	0x6f4
 1527 095f 4C       		.byte	0x4c
 1528 0960 17       		.uleb128 0x17
 1529 0961 73313200 		.ascii	"s12\000"
 1530 0965 01       		.byte	0x1
 1531 0966 F4       		.byte	0xf4
 1532 0967 F4060000 		.4byte	0x6f4
 1533 096b 50       		.byte	0x50
 1534 096c 17       		.uleb128 0x17
 1535 096d 73313300 		.ascii	"s13\000"
 1536 0971 01       		.byte	0x1
 1537 0972 F5       		.byte	0xf5
 1538 0973 F4060000 		.4byte	0x6f4
 1539 0977 54       		.byte	0x54
ARM GAS  /tmp/ccEgXP7Z.s 			page 28


 1540 0978 17       		.uleb128 0x17
 1541 0979 73313400 		.ascii	"s14\000"
 1542 097d 01       		.byte	0x1
 1543 097e F6       		.byte	0xf6
 1544 097f F4060000 		.4byte	0x6f4
 1545 0983 58       		.byte	0x58
 1546 0984 17       		.uleb128 0x17
 1547 0985 73313500 		.ascii	"s15\000"
 1548 0989 01       		.byte	0x1
 1549 098a F7       		.byte	0xf7
 1550 098b F4060000 		.4byte	0x6f4
 1551 098f 5C       		.byte	0x5c
 1552 0990 08       		.uleb128 0x8
 1553 0991 F3000000 		.4byte	.LASF120
 1554 0995 01       		.byte	0x1
 1555 0996 F8       		.byte	0xf8
 1556 0997 F4060000 		.4byte	0x6f4
 1557 099b 60       		.byte	0x60
 1558 099c 08       		.uleb128 0x8
 1559 099d E8020000 		.4byte	.LASF121
 1560 09a1 01       		.byte	0x1
 1561 09a2 F9       		.byte	0xf9
 1562 09a3 F4060000 		.4byte	0x6f4
 1563 09a7 64       		.byte	0x64
 1564 09a8 00       		.byte	0
 1565 09a9 18       		.uleb128 0x18
 1566 09aa 04       		.byte	0x4
 1567 09ab 0C       		.byte	0xc
 1568 09ac 38       		.byte	0x38
 1569 09ad BE090000 		.4byte	0x9be
 1570 09b1 08       		.uleb128 0x8
 1571 09b2 C4070000 		.4byte	.LASF122
 1572 09b6 0C       		.byte	0xc
 1573 09b7 3C       		.byte	0x3c
 1574 09b8 F4000000 		.4byte	0xf4
 1575 09bc 00       		.byte	0
 1576 09bd 00       		.byte	0
 1577 09be 04       		.uleb128 0x4
 1578 09bf 3A050000 		.4byte	.LASF123
 1579 09c3 0C       		.byte	0xc
 1580 09c4 3D       		.byte	0x3d
 1581 09c5 A9090000 		.4byte	0x9a9
 1582 09c9 18       		.uleb128 0x18
 1583 09ca 18       		.byte	0x18
 1584 09cb 0C       		.byte	0xc
 1585 09cc 48       		.byte	0x48
 1586 09cd 0C0A0000 		.4byte	0xa0c
 1587 09d1 08       		.uleb128 0x8
 1588 09d2 77070000 		.4byte	.LASF124
 1589 09d6 0C       		.byte	0xc
 1590 09d7 49       		.byte	0x49
 1591 09d8 F4000000 		.4byte	0xf4
 1592 09dc 00       		.byte	0
 1593 09dd 08       		.uleb128 0x8
 1594 09de 93000000 		.4byte	.LASF125
 1595 09e2 0C       		.byte	0xc
 1596 09e3 4A       		.byte	0x4a
ARM GAS  /tmp/ccEgXP7Z.s 			page 29


 1597 09e4 F4000000 		.4byte	0xf4
 1598 09e8 04       		.byte	0x4
 1599 09e9 08       		.uleb128 0x8
 1600 09ea 4C010000 		.4byte	.LASF126
 1601 09ee 0C       		.byte	0xc
 1602 09ef 4B       		.byte	0x4b
 1603 09f0 F4000000 		.4byte	0xf4
 1604 09f4 08       		.byte	0x8
 1605 09f5 17       		.uleb128 0x17
 1606 09f6 6E00     		.ascii	"n\000"
 1607 09f8 0C       		.byte	0xc
 1608 09f9 4C       		.byte	0x4c
 1609 09fa 57010000 		.4byte	0x157
 1610 09fe 0C       		.byte	0xc
 1611 09ff 08       		.uleb128 0x8
 1612 0a00 68050000 		.4byte	.LASF127
 1613 0a04 0C       		.byte	0xc
 1614 0a05 4D       		.byte	0x4d
 1615 0a06 FF000000 		.4byte	0xff
 1616 0a0a 10       		.byte	0x10
 1617 0a0b 00       		.byte	0
 1618 0a0c 04       		.uleb128 0x4
 1619 0a0d 99000000 		.4byte	.LASF128
 1620 0a11 0C       		.byte	0xc
 1621 0a12 4E       		.byte	0x4e
 1622 0a13 C9090000 		.4byte	0x9c9
 1623 0a17 18       		.uleb128 0x18
 1624 0a18 38       		.byte	0x38
 1625 0a19 0D       		.byte	0xd
 1626 0a1a 38       		.byte	0x38
 1627 0a1b 500A0000 		.4byte	0xa50
 1628 0a1f 08       		.uleb128 0x8
 1629 0a20 EF030000 		.4byte	.LASF129
 1630 0a24 0D       		.byte	0xd
 1631 0a25 39       		.byte	0x39
 1632 0a26 57010000 		.4byte	0x157
 1633 0a2a 00       		.byte	0
 1634 0a2b 08       		.uleb128 0x8
 1635 0a2c CC050000 		.4byte	.LASF130
 1636 0a30 0D       		.byte	0xd
 1637 0a31 3A       		.byte	0x3a
 1638 0a32 57010000 		.4byte	0x157
 1639 0a36 04       		.byte	0x4
 1640 0a37 08       		.uleb128 0x8
 1641 0a38 90080000 		.4byte	.LASF131
 1642 0a3c 0D       		.byte	0xd
 1643 0a3d 3B       		.byte	0x3b
 1644 0a3e 0C0A0000 		.4byte	0xa0c
 1645 0a42 08       		.byte	0x8
 1646 0a43 08       		.uleb128 0x8
 1647 0a44 5B040000 		.4byte	.LASF132
 1648 0a48 0D       		.byte	0xd
 1649 0a49 3D       		.byte	0x3d
 1650 0a4a 0C0A0000 		.4byte	0xa0c
 1651 0a4e 20       		.byte	0x20
 1652 0a4f 00       		.byte	0
 1653 0a50 04       		.uleb128 0x4
ARM GAS  /tmp/ccEgXP7Z.s 			page 30


 1654 0a51 00040000 		.4byte	.LASF133
 1655 0a55 0D       		.byte	0xd
 1656 0a56 3F       		.byte	0x3f
 1657 0a57 170A0000 		.4byte	0xa17
 1658 0a5b 19       		.uleb128 0x19
 1659 0a5c 04       		.byte	0x4
 1660 0a5d 08       		.byte	0x8
 1661 0a5e FA       		.byte	0xfa
 1662 0a5f B80A0000 		.4byte	0xab8
 1663 0a63 1A       		.uleb128 0x1a
 1664 0a64 13000000 		.4byte	.LASF134
 1665 0a68 08       		.byte	0x8
 1666 0a69 0101     		.2byte	0x101
 1667 0a6b 36010000 		.4byte	0x136
 1668 0a6f 1A       		.uleb128 0x1a
 1669 0a70 BA000000 		.4byte	.LASF135
 1670 0a74 08       		.byte	0x8
 1671 0a75 0801     		.2byte	0x108
 1672 0a77 36010000 		.4byte	0x136
 1673 0a7b 1A       		.uleb128 0x1a
 1674 0a7c 64080000 		.4byte	.LASF136
 1675 0a80 08       		.byte	0x8
 1676 0a81 0F01     		.2byte	0x10f
 1677 0a83 6B030000 		.4byte	0x36b
 1678 0a87 1A       		.uleb128 0x1a
 1679 0a88 0D000000 		.4byte	.LASF137
 1680 0a8c 08       		.byte	0x8
 1681 0a8d 1601     		.2byte	0x116
 1682 0a8f B80A0000 		.4byte	0xab8
 1683 0a93 1A       		.uleb128 0x1a
 1684 0a94 B3030000 		.4byte	.LASF138
 1685 0a98 08       		.byte	0x8
 1686 0a99 1E01     		.2byte	0x11e
 1687 0a9b E30A0000 		.4byte	0xae3
 1688 0a9f 1A       		.uleb128 0x1a
 1689 0aa0 25070000 		.4byte	.LASF139
 1690 0aa4 08       		.byte	0x8
 1691 0aa5 2701     		.2byte	0x127
 1692 0aa7 1A0B0000 		.4byte	0xb1a
 1693 0aab 1A       		.uleb128 0x1a
 1694 0aac 2C060000 		.4byte	.LASF140
 1695 0ab0 08       		.byte	0x8
 1696 0ab1 2F01     		.2byte	0x12f
 1697 0ab3 41010000 		.4byte	0x141
 1698 0ab7 00       		.byte	0
 1699 0ab8 0B       		.uleb128 0xb
 1700 0ab9 04       		.byte	0x4
 1701 0aba 83020000 		.4byte	0x283
 1702 0abe 07       		.uleb128 0x7
 1703 0abf C1060000 		.4byte	.LASF141
 1704 0ac3 0C       		.byte	0xc
 1705 0ac4 0E       		.byte	0xe
 1706 0ac5 34       		.byte	0x34
 1707 0ac6 E30A0000 		.4byte	0xae3
 1708 0aca 08       		.uleb128 0x8
 1709 0acb 98020000 		.4byte	.LASF142
 1710 0acf 0E       		.byte	0xe
ARM GAS  /tmp/ccEgXP7Z.s 			page 31


 1711 0ad0 35       		.byte	0x35
 1712 0ad1 B8020000 		.4byte	0x2b8
 1713 0ad5 00       		.byte	0
 1714 0ad6 08       		.uleb128 0x8
 1715 0ad7 FA030000 		.4byte	.LASF143
 1716 0adb 0E       		.byte	0xe
 1717 0adc 37       		.byte	0x37
 1718 0add 4C010000 		.4byte	0x14c
 1719 0ae1 08       		.byte	0x8
 1720 0ae2 00       		.byte	0
 1721 0ae3 0B       		.uleb128 0xb
 1722 0ae4 04       		.byte	0x4
 1723 0ae5 BE0A0000 		.4byte	0xabe
 1724 0ae9 07       		.uleb128 0x7
 1725 0aea 1D080000 		.4byte	.LASF144
 1726 0aee 10       		.byte	0x10
 1727 0aef 0F       		.byte	0xf
 1728 0af0 39       		.byte	0x39
 1729 0af1 1A0B0000 		.4byte	0xb1a
 1730 0af5 08       		.uleb128 0x8
 1731 0af6 2C010000 		.4byte	.LASF145
 1732 0afa 0F       		.byte	0xf
 1733 0afb 3A       		.byte	0x3a
 1734 0afc B8020000 		.4byte	0x2b8
 1735 0b00 00       		.byte	0
 1736 0b01 08       		.uleb128 0x8
 1737 0b02 9B080000 		.4byte	.LASF146
 1738 0b06 0F       		.byte	0xf
 1739 0b07 3C       		.byte	0x3c
 1740 0b08 8E020000 		.4byte	0x28e
 1741 0b0c 08       		.byte	0x8
 1742 0b0d 08       		.uleb128 0x8
 1743 0b0e 7C070000 		.4byte	.LASF147
 1744 0b12 0F       		.byte	0xf
 1745 0b13 3E       		.byte	0x3e
 1746 0b14 750C0000 		.4byte	0xc75
 1747 0b18 0C       		.byte	0xc
 1748 0b19 00       		.byte	0
 1749 0b1a 0B       		.uleb128 0xb
 1750 0b1b 04       		.byte	0x4
 1751 0b1c E90A0000 		.4byte	0xae9
 1752 0b20 0B       		.uleb128 0xb
 1753 0b21 04       		.byte	0x4
 1754 0b22 320B0000 		.4byte	0xb32
 1755 0b26 05       		.uleb128 0x5
 1756 0b27 200B0000 		.4byte	0xb20
 1757 0b2b 03       		.uleb128 0x3
 1758 0b2c 01       		.byte	0x1
 1759 0b2d 08       		.byte	0x8
 1760 0b2e 20070000 		.4byte	.LASF148
 1761 0b32 06       		.uleb128 0x6
 1762 0b33 2B0B0000 		.4byte	0xb2b
 1763 0b37 0B       		.uleb128 0xb
 1764 0b38 04       		.byte	0x4
 1765 0b39 FF060000 		.4byte	0x6ff
 1766 0b3d 0B       		.uleb128 0xb
 1767 0b3e 04       		.byte	0x4
ARM GAS  /tmp/ccEgXP7Z.s 			page 32


 1768 0b3f 6D030000 		.4byte	0x36d
 1769 0b43 12       		.uleb128 0x12
 1770 0b44 FF060000 		.4byte	0x6ff
 1771 0b48 530B0000 		.4byte	0xb53
 1772 0b4c 13       		.uleb128 0x13
 1773 0b4d C8040000 		.4byte	0x4c8
 1774 0b51 2F       		.byte	0x2f
 1775 0b52 00       		.byte	0
 1776 0b53 1B       		.uleb128 0x1b
 1777 0b54 636800   		.ascii	"ch\000"
 1778 0b57 08       		.byte	0x8
 1779 0b58 0902     		.2byte	0x209
 1780 0b5a 54040000 		.4byte	0x454
 1781 0b5e 18       		.uleb128 0x18
 1782 0b5f 16       		.byte	0x16
 1783 0b60 10       		.byte	0x10
 1784 0b61 34       		.byte	0x34
 1785 0b62 3F0C0000 		.4byte	0xc3f
 1786 0b66 08       		.uleb128 0x8
 1787 0b67 AA080000 		.4byte	.LASF149
 1788 0b6b 10       		.byte	0x10
 1789 0b6c 35       		.byte	0x35
 1790 0b6d 3F0C0000 		.4byte	0xc3f
 1791 0b71 00       		.byte	0
 1792 0b72 08       		.uleb128 0x8
 1793 0b73 B3040000 		.4byte	.LASF150
 1794 0b77 10       		.byte	0x10
 1795 0b78 36       		.byte	0x36
 1796 0b79 A9000000 		.4byte	0xa9
 1797 0b7d 04       		.byte	0x4
 1798 0b7e 08       		.uleb128 0x8
 1799 0b7f 06070000 		.4byte	.LASF151
 1800 0b83 10       		.byte	0x10
 1801 0b84 37       		.byte	0x37
 1802 0b85 A9000000 		.4byte	0xa9
 1803 0b89 05       		.byte	0x5
 1804 0b8a 08       		.uleb128 0x8
 1805 0b8b 72080000 		.4byte	.LASF152
 1806 0b8f 10       		.byte	0x10
 1807 0b90 38       		.byte	0x38
 1808 0b91 B9000000 		.4byte	0xb9
 1809 0b95 06       		.byte	0x6
 1810 0b96 08       		.uleb128 0x8
 1811 0b97 91050000 		.4byte	.LASF153
 1812 0b9b 10       		.byte	0x10
 1813 0b9c 39       		.byte	0x39
 1814 0b9d A9000000 		.4byte	0xa9
 1815 0ba1 08       		.byte	0x8
 1816 0ba2 08       		.uleb128 0x8
 1817 0ba3 02050000 		.4byte	.LASF154
 1818 0ba7 10       		.byte	0x10
 1819 0ba8 3A       		.byte	0x3a
 1820 0ba9 A9000000 		.4byte	0xa9
 1821 0bad 09       		.byte	0x9
 1822 0bae 08       		.uleb128 0x8
 1823 0baf AC000000 		.4byte	.LASF155
 1824 0bb3 10       		.byte	0x10
ARM GAS  /tmp/ccEgXP7Z.s 			page 33


 1825 0bb4 3B       		.byte	0x3b
 1826 0bb5 A9000000 		.4byte	0xa9
 1827 0bb9 0A       		.byte	0xa
 1828 0bba 08       		.uleb128 0x8
 1829 0bbb E2060000 		.4byte	.LASF156
 1830 0bbf 10       		.byte	0x10
 1831 0bc0 3C       		.byte	0x3c
 1832 0bc1 A9000000 		.4byte	0xa9
 1833 0bc5 0B       		.byte	0xb
 1834 0bc6 08       		.uleb128 0x8
 1835 0bc7 12080000 		.4byte	.LASF157
 1836 0bcb 10       		.byte	0x10
 1837 0bcc 3D       		.byte	0x3d
 1838 0bcd A9000000 		.4byte	0xa9
 1839 0bd1 0C       		.byte	0xc
 1840 0bd2 08       		.uleb128 0x8
 1841 0bd3 B4060000 		.4byte	.LASF158
 1842 0bd7 10       		.byte	0x10
 1843 0bd8 3E       		.byte	0x3e
 1844 0bd9 A9000000 		.4byte	0xa9
 1845 0bdd 0D       		.byte	0xd
 1846 0bde 08       		.uleb128 0x8
 1847 0bdf C5030000 		.4byte	.LASF159
 1848 0be3 10       		.byte	0x10
 1849 0be4 3F       		.byte	0x3f
 1850 0be5 A9000000 		.4byte	0xa9
 1851 0be9 0E       		.byte	0xe
 1852 0bea 08       		.uleb128 0x8
 1853 0beb 0E050000 		.4byte	.LASF160
 1854 0bef 10       		.byte	0x10
 1855 0bf0 40       		.byte	0x40
 1856 0bf1 A9000000 		.4byte	0xa9
 1857 0bf5 0F       		.byte	0xf
 1858 0bf6 08       		.uleb128 0x8
 1859 0bf7 21000000 		.4byte	.LASF161
 1860 0bfb 10       		.byte	0x10
 1861 0bfc 41       		.byte	0x41
 1862 0bfd A9000000 		.4byte	0xa9
 1863 0c01 10       		.byte	0x10
 1864 0c02 08       		.uleb128 0x8
 1865 0c03 D3070000 		.4byte	.LASF162
 1866 0c07 10       		.byte	0x10
 1867 0c08 43       		.byte	0x43
 1868 0c09 A9000000 		.4byte	0xa9
 1869 0c0d 11       		.byte	0x11
 1870 0c0e 08       		.uleb128 0x8
 1871 0c0f 00010000 		.4byte	.LASF163
 1872 0c13 10       		.byte	0x10
 1873 0c14 44       		.byte	0x44
 1874 0c15 A9000000 		.4byte	0xa9
 1875 0c19 12       		.byte	0x12
 1876 0c1a 08       		.uleb128 0x8
 1877 0c1b BB040000 		.4byte	.LASF164
 1878 0c1f 10       		.byte	0x10
 1879 0c20 45       		.byte	0x45
 1880 0c21 A9000000 		.4byte	0xa9
 1881 0c25 13       		.byte	0x13
ARM GAS  /tmp/ccEgXP7Z.s 			page 34


 1882 0c26 08       		.uleb128 0x8
 1883 0c27 42060000 		.4byte	.LASF165
 1884 0c2b 10       		.byte	0x10
 1885 0c2c 46       		.byte	0x46
 1886 0c2d A9000000 		.4byte	0xa9
 1887 0c31 14       		.byte	0x14
 1888 0c32 08       		.uleb128 0x8
 1889 0c33 4F040000 		.4byte	.LASF166
 1890 0c37 10       		.byte	0x10
 1891 0c38 48       		.byte	0x48
 1892 0c39 A9000000 		.4byte	0xa9
 1893 0c3d 15       		.byte	0x15
 1894 0c3e 00       		.byte	0
 1895 0c3f 12       		.uleb128 0x12
 1896 0c40 2B0B0000 		.4byte	0xb2b
 1897 0c44 4F0C0000 		.4byte	0xc4f
 1898 0c48 13       		.uleb128 0x13
 1899 0c49 C8040000 		.4byte	0x4c8
 1900 0c4d 03       		.byte	0x3
 1901 0c4e 00       		.byte	0
 1902 0c4f 04       		.uleb128 0x4
 1903 0c50 86020000 		.4byte	.LASF167
 1904 0c54 10       		.byte	0x10
 1905 0c55 49       		.byte	0x49
 1906 0c56 5E0B0000 		.4byte	0xb5e
 1907 0c5a 06       		.uleb128 0x6
 1908 0c5b 4F0C0000 		.4byte	0xc4f
 1909 0c5f 16       		.uleb128 0x16
 1910 0c60 E6030000 		.4byte	.LASF168
 1911 0c64 10       		.byte	0x10
 1912 0c65 6E       		.byte	0x6e
 1913 0c66 5A0C0000 		.4byte	0xc5a
 1914 0c6a 04       		.uleb128 0x4
 1915 0c6b 88080000 		.4byte	.LASF169
 1916 0c6f 0F       		.byte	0xf
 1917 0c70 34       		.byte	0x34
 1918 0c71 E90A0000 		.4byte	0xae9
 1919 0c75 0B       		.uleb128 0xb
 1920 0c76 04       		.byte	0x4
 1921 0c77 6A0C0000 		.4byte	0xc6a
 1922 0c7b 03       		.uleb128 0x3
 1923 0c7c 01       		.byte	0x1
 1924 0c7d 02       		.byte	0x2
 1925 0c7e D5050000 		.4byte	.LASF170
 1926 0c82 1C       		.uleb128 0x1c
 1927 0c83 3C040000 		.4byte	.LASF171
 1928 0c87 03       		.byte	0x3
 1929 0c88 7A       		.byte	0x7a
 1930 0c89 00000000 		.4byte	.LFB232
 1931 0c8d 7C000000 		.4byte	.LFE232-.LFB232
 1932 0c91 01       		.uleb128 0x1
 1933 0c92 9C       		.byte	0x9c
 1934 0c93 130D0000 		.4byte	0xd13
 1935 0c97 1D       		.uleb128 0x1d
 1936 0c98 16000000 		.4byte	.LBB25
 1937 0c9c 4C000000 		.4byte	.LBE25-.LBB25
 1938 0ca0 1E       		.uleb128 0x1e
ARM GAS  /tmp/ccEgXP7Z.s 			page 35


 1939 0ca1 9C050000 		.4byte	.LASF173
 1940 0ca5 03       		.byte	0x3
 1941 0ca6 7E       		.byte	0x7e
 1942 0ca7 130D0000 		.4byte	0xd13
 1943 0cab 02       		.uleb128 0x2
 1944 0cac 91       		.byte	0x91
 1945 0cad 6C       		.sleb128 -20
 1946 0cae 1F       		.uleb128 0x1f
 1947 0caf FE0D0000 		.4byte	0xdfe
 1948 0cb3 16000000 		.4byte	.LBB26
 1949 0cb7 06000000 		.4byte	.LBE26-.LBB26
 1950 0cbb 03       		.byte	0x3
 1951 0cbc 82       		.byte	0x82
 1952 0cbd D40C0000 		.4byte	0xcd4
 1953 0cc1 1D       		.uleb128 0x1d
 1954 0cc2 16000000 		.4byte	.LBB27
 1955 0cc6 06000000 		.4byte	.LBE27-.LBB27
 1956 0cca 20       		.uleb128 0x20
 1957 0ccb 0F0E0000 		.4byte	0xe0f
 1958 0ccf 02       		.uleb128 0x2
 1959 0cd0 91       		.byte	0x91
 1960 0cd1 64       		.sleb128 -28
 1961 0cd2 00       		.byte	0
 1962 0cd3 00       		.byte	0
 1963 0cd4 1F       		.uleb128 0x1f
 1964 0cd5 500E0000 		.4byte	0xe50
 1965 0cd9 1C000000 		.4byte	.LBB28
 1966 0cdd 08000000 		.4byte	.LBE28-.LBB28
 1967 0ce1 03       		.byte	0x3
 1968 0ce2 86       		.byte	0x86
 1969 0ce3 F90C0000 		.4byte	0xcf9
 1970 0ce7 1D       		.uleb128 0x1d
 1971 0ce8 1C000000 		.4byte	.LBB29
 1972 0cec 08000000 		.4byte	.LBE29-.LBB29
 1973 0cf0 20       		.uleb128 0x20
 1974 0cf1 5D0E0000 		.4byte	0xe5d
 1975 0cf5 01       		.uleb128 0x1
 1976 0cf6 54       		.byte	0x54
 1977 0cf7 00       		.byte	0
 1978 0cf8 00       		.byte	0
 1979 0cf9 21       		.uleb128 0x21
 1980 0cfa 360E0000 		.4byte	0xe36
 1981 0cfe 42000000 		.4byte	.LBB30
 1982 0d02 06000000 		.4byte	.LBE30-.LBB30
 1983 0d06 03       		.byte	0x3
 1984 0d07 93       		.byte	0x93
 1985 0d08 22       		.uleb128 0x22
 1986 0d09 430E0000 		.4byte	0xe43
 1987 0d0d 02       		.uleb128 0x2
 1988 0d0e 91       		.byte	0x91
 1989 0d0f 68       		.sleb128 -24
 1990 0d10 00       		.byte	0
 1991 0d11 00       		.byte	0
 1992 0d12 00       		.byte	0
 1993 0d13 0B       		.uleb128 0xb
 1994 0d14 04       		.byte	0x4
 1995 0d15 73080000 		.4byte	0x873
ARM GAS  /tmp/ccEgXP7Z.s 			page 36


 1996 0d19 1C       		.uleb128 0x1c
 1997 0d1a 81060000 		.4byte	.LASF172
 1998 0d1e 03       		.byte	0x3
 1999 0d1f 3E       		.byte	0x3e
 2000 0d20 00000000 		.4byte	.LFB231
 2001 0d24 3C000000 		.4byte	.LFE231-.LFB231
 2002 0d28 01       		.uleb128 0x1
 2003 0d29 9C       		.byte	0x9c
 2004 0d2a 7A0D0000 		.4byte	0xd7a
 2005 0d2e 1E       		.uleb128 0x1e
 2006 0d2f 9C050000 		.4byte	.LASF173
 2007 0d33 03       		.byte	0x3
 2008 0d34 40       		.byte	0x40
 2009 0d35 130D0000 		.4byte	0xd13
 2010 0d39 02       		.uleb128 0x2
 2011 0d3a 91       		.byte	0x91
 2012 0d3b 6C       		.sleb128 -20
 2013 0d3c 1F       		.uleb128 0x1f
 2014 0d3d 500E0000 		.4byte	0xe50
 2015 0d41 12000000 		.4byte	.LBB21
 2016 0d45 08000000 		.4byte	.LBE21-.LBB21
 2017 0d49 03       		.byte	0x3
 2018 0d4a 48       		.byte	0x48
 2019 0d4b 610D0000 		.4byte	0xd61
 2020 0d4f 1D       		.uleb128 0x1d
 2021 0d50 12000000 		.4byte	.LBB22
 2022 0d54 08000000 		.4byte	.LBE22-.LBB22
 2023 0d58 20       		.uleb128 0x20
 2024 0d59 5D0E0000 		.4byte	0xe5d
 2025 0d5d 01       		.uleb128 0x1
 2026 0d5e 54       		.byte	0x54
 2027 0d5f 00       		.byte	0
 2028 0d60 00       		.byte	0
 2029 0d61 21       		.uleb128 0x21
 2030 0d62 360E0000 		.4byte	0xe36
 2031 0d66 26000000 		.4byte	.LBB23
 2032 0d6a 06000000 		.4byte	.LBE23-.LBB23
 2033 0d6e 03       		.byte	0x3
 2034 0d6f 4F       		.byte	0x4f
 2035 0d70 22       		.uleb128 0x22
 2036 0d71 430E0000 		.4byte	0xe43
 2037 0d75 02       		.uleb128 0x2
 2038 0d76 91       		.byte	0x91
 2039 0d77 68       		.sleb128 -24
 2040 0d78 00       		.byte	0
 2041 0d79 00       		.byte	0
 2042 0d7a 23       		.uleb128 0x23
 2043 0d7b 37070000 		.4byte	.LASF174
 2044 0d7f 01       		.byte	0x1
 2045 0d80 FA01     		.2byte	0x1fa
 2046 0d82 00000000 		.4byte	.LFB130
 2047 0d86 0A000000 		.4byte	.LFE130-.LFB130
 2048 0d8a 01       		.uleb128 0x1
 2049 0d8b 9C       		.byte	0x9c
 2050 0d8c 23       		.uleb128 0x23
 2051 0d8d EE070000 		.4byte	.LASF175
 2052 0d91 01       		.byte	0x1
ARM GAS  /tmp/ccEgXP7Z.s 			page 37


 2053 0d92 EF01     		.2byte	0x1ef
 2054 0d94 00000000 		.4byte	.LFB129
 2055 0d98 0A000000 		.4byte	.LFE129-.LFB129
 2056 0d9c 01       		.uleb128 0x1
 2057 0d9d 9C       		.byte	0x9c
 2058 0d9e 24       		.uleb128 0x24
 2059 0d9f 40010000 		.4byte	.LASF176
 2060 0da3 01       		.byte	0x1
 2061 0da4 E001     		.2byte	0x1e0
 2062 0da6 00000000 		.4byte	.LFB128
 2063 0daa 12000000 		.4byte	.LFE128-.LFB128
 2064 0dae 01       		.uleb128 0x1
 2065 0daf 9C       		.byte	0x9c
 2066 0db0 CE0D0000 		.4byte	0xdce
 2067 0db4 25       		.uleb128 0x25
 2068 0db5 1C0E0000 		.4byte	0xe1c
 2069 0db9 06000000 		.4byte	.LBB19
 2070 0dbd 06000000 		.4byte	.LBE19-.LBB19
 2071 0dc1 01       		.byte	0x1
 2072 0dc2 E301     		.2byte	0x1e3
 2073 0dc4 22       		.uleb128 0x22
 2074 0dc5 290E0000 		.4byte	0xe29
 2075 0dc9 02       		.uleb128 0x2
 2076 0dca 91       		.byte	0x91
 2077 0dcb 7C       		.sleb128 -4
 2078 0dcc 00       		.byte	0
 2079 0dcd 00       		.byte	0
 2080 0dce 24       		.uleb128 0x24
 2081 0dcf 89000000 		.4byte	.LASF177
 2082 0dd3 01       		.byte	0x1
 2083 0dd4 C801     		.2byte	0x1c8
 2084 0dd6 00000000 		.4byte	.LFB127
 2085 0dda 12000000 		.4byte	.LFE127-.LFB127
 2086 0dde 01       		.uleb128 0x1
 2087 0ddf 9C       		.byte	0x9c
 2088 0de0 FE0D0000 		.4byte	0xdfe
 2089 0de4 25       		.uleb128 0x25
 2090 0de5 1C0E0000 		.4byte	0xe1c
 2091 0de9 06000000 		.4byte	.LBB17
 2092 0ded 06000000 		.4byte	.LBE17-.LBB17
 2093 0df1 01       		.byte	0x1
 2094 0df2 D001     		.2byte	0x1d0
 2095 0df4 22       		.uleb128 0x22
 2096 0df5 290E0000 		.4byte	0xe29
 2097 0df9 02       		.uleb128 0x2
 2098 0dfa 91       		.byte	0x91
 2099 0dfb 7C       		.sleb128 -4
 2100 0dfc 00       		.byte	0
 2101 0dfd 00       		.byte	0
 2102 0dfe 26       		.uleb128 0x26
 2103 0dff C0050000 		.4byte	.LASF187
 2104 0e03 02       		.byte	0x2
 2105 0e04 5A02     		.2byte	0x25a
 2106 0e06 D4000000 		.4byte	0xd4
 2107 0e0a 03       		.byte	0x3
 2108 0e0b 1C0E0000 		.4byte	0xe1c
 2109 0e0f 27       		.uleb128 0x27
ARM GAS  /tmp/ccEgXP7Z.s 			page 38


 2110 0e10 A3080000 		.4byte	.LASF183
 2111 0e14 02       		.byte	0x2
 2112 0e15 5D02     		.2byte	0x25d
 2113 0e17 D4000000 		.4byte	0xd4
 2114 0e1b 00       		.byte	0
 2115 0e1c 28       		.uleb128 0x28
 2116 0e1d AC070000 		.4byte	.LASF178
 2117 0e21 02       		.byte	0x2
 2118 0e22 2202     		.2byte	0x222
 2119 0e24 03       		.byte	0x3
 2120 0e25 360E0000 		.4byte	0xe36
 2121 0e29 29       		.uleb128 0x29
 2122 0e2a FF020000 		.4byte	.LASF180
 2123 0e2e 02       		.byte	0x2
 2124 0e2f 2202     		.2byte	0x222
 2125 0e31 D4000000 		.4byte	0xd4
 2126 0e35 00       		.byte	0
 2127 0e36 28       		.uleb128 0x28
 2128 0e37 44030000 		.4byte	.LASF179
 2129 0e3b 02       		.byte	0x2
 2130 0e3c B901     		.2byte	0x1b9
 2131 0e3e 03       		.byte	0x3
 2132 0e3f 500E0000 		.4byte	0xe50
 2133 0e43 29       		.uleb128 0x29
 2134 0e44 80040000 		.4byte	.LASF181
 2135 0e48 02       		.byte	0x2
 2136 0e49 B901     		.2byte	0x1b9
 2137 0e4b D4000000 		.4byte	0xd4
 2138 0e4f 00       		.byte	0
 2139 0e50 2A       		.uleb128 0x2a
 2140 0e51 01080000 		.4byte	.LASF182
 2141 0e55 02       		.byte	0x2
 2142 0e56 AA01     		.2byte	0x1aa
 2143 0e58 D4000000 		.4byte	0xd4
 2144 0e5c 03       		.byte	0x3
 2145 0e5d 27       		.uleb128 0x27
 2146 0e5e A3080000 		.4byte	.LASF183
 2147 0e62 02       		.byte	0x2
 2148 0e63 AC01     		.2byte	0x1ac
 2149 0e65 D4000000 		.4byte	0xd4
 2150 0e69 00       		.byte	0
 2151 0e6a 00       		.byte	0
 2152              		.section	.debug_abbrev,"",%progbits
 2153              	.Ldebug_abbrev0:
 2154 0000 01       		.uleb128 0x1
 2155 0001 11       		.uleb128 0x11
 2156 0002 01       		.byte	0x1
 2157 0003 25       		.uleb128 0x25
 2158 0004 0E       		.uleb128 0xe
 2159 0005 13       		.uleb128 0x13
 2160 0006 0B       		.uleb128 0xb
 2161 0007 03       		.uleb128 0x3
 2162 0008 0E       		.uleb128 0xe
 2163 0009 1B       		.uleb128 0x1b
 2164 000a 0E       		.uleb128 0xe
 2165 000b 55       		.uleb128 0x55
 2166 000c 17       		.uleb128 0x17
ARM GAS  /tmp/ccEgXP7Z.s 			page 39


 2167 000d 11       		.uleb128 0x11
 2168 000e 01       		.uleb128 0x1
 2169 000f 10       		.uleb128 0x10
 2170 0010 17       		.uleb128 0x17
 2171 0011 00       		.byte	0
 2172 0012 00       		.byte	0
 2173 0013 02       		.uleb128 0x2
 2174 0014 24       		.uleb128 0x24
 2175 0015 00       		.byte	0
 2176 0016 0B       		.uleb128 0xb
 2177 0017 0B       		.uleb128 0xb
 2178 0018 3E       		.uleb128 0x3e
 2179 0019 0B       		.uleb128 0xb
 2180 001a 03       		.uleb128 0x3
 2181 001b 08       		.uleb128 0x8
 2182 001c 00       		.byte	0
 2183 001d 00       		.byte	0
 2184 001e 03       		.uleb128 0x3
 2185 001f 24       		.uleb128 0x24
 2186 0020 00       		.byte	0
 2187 0021 0B       		.uleb128 0xb
 2188 0022 0B       		.uleb128 0xb
 2189 0023 3E       		.uleb128 0x3e
 2190 0024 0B       		.uleb128 0xb
 2191 0025 03       		.uleb128 0x3
 2192 0026 0E       		.uleb128 0xe
 2193 0027 00       		.byte	0
 2194 0028 00       		.byte	0
 2195 0029 04       		.uleb128 0x4
 2196 002a 16       		.uleb128 0x16
 2197 002b 00       		.byte	0
 2198 002c 03       		.uleb128 0x3
 2199 002d 0E       		.uleb128 0xe
 2200 002e 3A       		.uleb128 0x3a
 2201 002f 0B       		.uleb128 0xb
 2202 0030 3B       		.uleb128 0x3b
 2203 0031 0B       		.uleb128 0xb
 2204 0032 49       		.uleb128 0x49
 2205 0033 13       		.uleb128 0x13
 2206 0034 00       		.byte	0
 2207 0035 00       		.byte	0
 2208 0036 05       		.uleb128 0x5
 2209 0037 35       		.uleb128 0x35
 2210 0038 00       		.byte	0
 2211 0039 49       		.uleb128 0x49
 2212 003a 13       		.uleb128 0x13
 2213 003b 00       		.byte	0
 2214 003c 00       		.byte	0
 2215 003d 06       		.uleb128 0x6
 2216 003e 26       		.uleb128 0x26
 2217 003f 00       		.byte	0
 2218 0040 49       		.uleb128 0x49
 2219 0041 13       		.uleb128 0x13
 2220 0042 00       		.byte	0
 2221 0043 00       		.byte	0
 2222 0044 07       		.uleb128 0x7
 2223 0045 13       		.uleb128 0x13
ARM GAS  /tmp/ccEgXP7Z.s 			page 40


 2224 0046 01       		.byte	0x1
 2225 0047 03       		.uleb128 0x3
 2226 0048 0E       		.uleb128 0xe
 2227 0049 0B       		.uleb128 0xb
 2228 004a 0B       		.uleb128 0xb
 2229 004b 3A       		.uleb128 0x3a
 2230 004c 0B       		.uleb128 0xb
 2231 004d 3B       		.uleb128 0x3b
 2232 004e 0B       		.uleb128 0xb
 2233 004f 01       		.uleb128 0x1
 2234 0050 13       		.uleb128 0x13
 2235 0051 00       		.byte	0
 2236 0052 00       		.byte	0
 2237 0053 08       		.uleb128 0x8
 2238 0054 0D       		.uleb128 0xd
 2239 0055 00       		.byte	0
 2240 0056 03       		.uleb128 0x3
 2241 0057 0E       		.uleb128 0xe
 2242 0058 3A       		.uleb128 0x3a
 2243 0059 0B       		.uleb128 0xb
 2244 005a 3B       		.uleb128 0x3b
 2245 005b 0B       		.uleb128 0xb
 2246 005c 49       		.uleb128 0x49
 2247 005d 13       		.uleb128 0x13
 2248 005e 38       		.uleb128 0x38
 2249 005f 0B       		.uleb128 0xb
 2250 0060 00       		.byte	0
 2251 0061 00       		.byte	0
 2252 0062 09       		.uleb128 0x9
 2253 0063 0D       		.uleb128 0xd
 2254 0064 00       		.byte	0
 2255 0065 03       		.uleb128 0x3
 2256 0066 08       		.uleb128 0x8
 2257 0067 3A       		.uleb128 0x3a
 2258 0068 0B       		.uleb128 0xb
 2259 0069 3B       		.uleb128 0x3b
 2260 006a 05       		.uleb128 0x5
 2261 006b 49       		.uleb128 0x49
 2262 006c 13       		.uleb128 0x13
 2263 006d 38       		.uleb128 0x38
 2264 006e 0B       		.uleb128 0xb
 2265 006f 00       		.byte	0
 2266 0070 00       		.byte	0
 2267 0071 0A       		.uleb128 0xa
 2268 0072 0D       		.uleb128 0xd
 2269 0073 00       		.byte	0
 2270 0074 03       		.uleb128 0x3
 2271 0075 0E       		.uleb128 0xe
 2272 0076 3A       		.uleb128 0x3a
 2273 0077 0B       		.uleb128 0xb
 2274 0078 3B       		.uleb128 0x3b
 2275 0079 05       		.uleb128 0x5
 2276 007a 49       		.uleb128 0x49
 2277 007b 13       		.uleb128 0x13
 2278 007c 38       		.uleb128 0x38
 2279 007d 0B       		.uleb128 0xb
 2280 007e 00       		.byte	0
ARM GAS  /tmp/ccEgXP7Z.s 			page 41


 2281 007f 00       		.byte	0
 2282 0080 0B       		.uleb128 0xb
 2283 0081 0F       		.uleb128 0xf
 2284 0082 00       		.byte	0
 2285 0083 0B       		.uleb128 0xb
 2286 0084 0B       		.uleb128 0xb
 2287 0085 49       		.uleb128 0x49
 2288 0086 13       		.uleb128 0x13
 2289 0087 00       		.byte	0
 2290 0088 00       		.byte	0
 2291 0089 0C       		.uleb128 0xc
 2292 008a 13       		.uleb128 0x13
 2293 008b 01       		.byte	0x1
 2294 008c 03       		.uleb128 0x3
 2295 008d 0E       		.uleb128 0xe
 2296 008e 0B       		.uleb128 0xb
 2297 008f 0B       		.uleb128 0xb
 2298 0090 3A       		.uleb128 0x3a
 2299 0091 0B       		.uleb128 0xb
 2300 0092 3B       		.uleb128 0x3b
 2301 0093 05       		.uleb128 0x5
 2302 0094 01       		.uleb128 0x1
 2303 0095 13       		.uleb128 0x13
 2304 0096 00       		.byte	0
 2305 0097 00       		.byte	0
 2306 0098 0D       		.uleb128 0xd
 2307 0099 15       		.uleb128 0x15
 2308 009a 01       		.byte	0x1
 2309 009b 27       		.uleb128 0x27
 2310 009c 19       		.uleb128 0x19
 2311 009d 01       		.uleb128 0x1
 2312 009e 13       		.uleb128 0x13
 2313 009f 00       		.byte	0
 2314 00a0 00       		.byte	0
 2315 00a1 0E       		.uleb128 0xe
 2316 00a2 05       		.uleb128 0x5
 2317 00a3 00       		.byte	0
 2318 00a4 49       		.uleb128 0x49
 2319 00a5 13       		.uleb128 0x13
 2320 00a6 00       		.byte	0
 2321 00a7 00       		.byte	0
 2322 00a8 0F       		.uleb128 0xf
 2323 00a9 0F       		.uleb128 0xf
 2324 00aa 00       		.byte	0
 2325 00ab 0B       		.uleb128 0xb
 2326 00ac 0B       		.uleb128 0xb
 2327 00ad 00       		.byte	0
 2328 00ae 00       		.byte	0
 2329 00af 10       		.uleb128 0x10
 2330 00b0 13       		.uleb128 0x13
 2331 00b1 01       		.byte	0x1
 2332 00b2 03       		.uleb128 0x3
 2333 00b3 0E       		.uleb128 0xe
 2334 00b4 0B       		.uleb128 0xb
 2335 00b5 05       		.uleb128 0x5
 2336 00b6 3A       		.uleb128 0x3a
 2337 00b7 0B       		.uleb128 0xb
ARM GAS  /tmp/ccEgXP7Z.s 			page 42


 2338 00b8 3B       		.uleb128 0x3b
 2339 00b9 05       		.uleb128 0x5
 2340 00ba 01       		.uleb128 0x1
 2341 00bb 13       		.uleb128 0x13
 2342 00bc 00       		.byte	0
 2343 00bd 00       		.byte	0
 2344 00be 11       		.uleb128 0x11
 2345 00bf 13       		.uleb128 0x13
 2346 00c0 01       		.byte	0x1
 2347 00c1 0B       		.uleb128 0xb
 2348 00c2 0B       		.uleb128 0xb
 2349 00c3 3A       		.uleb128 0x3a
 2350 00c4 0B       		.uleb128 0xb
 2351 00c5 3B       		.uleb128 0x3b
 2352 00c6 05       		.uleb128 0x5
 2353 00c7 01       		.uleb128 0x1
 2354 00c8 13       		.uleb128 0x13
 2355 00c9 00       		.byte	0
 2356 00ca 00       		.byte	0
 2357 00cb 12       		.uleb128 0x12
 2358 00cc 01       		.uleb128 0x1
 2359 00cd 01       		.byte	0x1
 2360 00ce 49       		.uleb128 0x49
 2361 00cf 13       		.uleb128 0x13
 2362 00d0 01       		.uleb128 0x1
 2363 00d1 13       		.uleb128 0x13
 2364 00d2 00       		.byte	0
 2365 00d3 00       		.byte	0
 2366 00d4 13       		.uleb128 0x13
 2367 00d5 21       		.uleb128 0x21
 2368 00d6 00       		.byte	0
 2369 00d7 49       		.uleb128 0x49
 2370 00d8 13       		.uleb128 0x13
 2371 00d9 2F       		.uleb128 0x2f
 2372 00da 0B       		.uleb128 0xb
 2373 00db 00       		.byte	0
 2374 00dc 00       		.byte	0
 2375 00dd 14       		.uleb128 0x14
 2376 00de 16       		.uleb128 0x16
 2377 00df 00       		.byte	0
 2378 00e0 03       		.uleb128 0x3
 2379 00e1 0E       		.uleb128 0xe
 2380 00e2 3A       		.uleb128 0x3a
 2381 00e3 0B       		.uleb128 0xb
 2382 00e4 3B       		.uleb128 0x3b
 2383 00e5 05       		.uleb128 0x5
 2384 00e6 49       		.uleb128 0x49
 2385 00e7 13       		.uleb128 0x13
 2386 00e8 00       		.byte	0
 2387 00e9 00       		.byte	0
 2388 00ea 15       		.uleb128 0x15
 2389 00eb 34       		.uleb128 0x34
 2390 00ec 00       		.byte	0
 2391 00ed 03       		.uleb128 0x3
 2392 00ee 0E       		.uleb128 0xe
 2393 00ef 3A       		.uleb128 0x3a
 2394 00f0 0B       		.uleb128 0xb
ARM GAS  /tmp/ccEgXP7Z.s 			page 43


 2395 00f1 3B       		.uleb128 0x3b
 2396 00f2 05       		.uleb128 0x5
 2397 00f3 49       		.uleb128 0x49
 2398 00f4 13       		.uleb128 0x13
 2399 00f5 3F       		.uleb128 0x3f
 2400 00f6 19       		.uleb128 0x19
 2401 00f7 3C       		.uleb128 0x3c
 2402 00f8 19       		.uleb128 0x19
 2403 00f9 00       		.byte	0
 2404 00fa 00       		.byte	0
 2405 00fb 16       		.uleb128 0x16
 2406 00fc 34       		.uleb128 0x34
 2407 00fd 00       		.byte	0
 2408 00fe 03       		.uleb128 0x3
 2409 00ff 0E       		.uleb128 0xe
 2410 0100 3A       		.uleb128 0x3a
 2411 0101 0B       		.uleb128 0xb
 2412 0102 3B       		.uleb128 0x3b
 2413 0103 0B       		.uleb128 0xb
 2414 0104 49       		.uleb128 0x49
 2415 0105 13       		.uleb128 0x13
 2416 0106 3F       		.uleb128 0x3f
 2417 0107 19       		.uleb128 0x19
 2418 0108 3C       		.uleb128 0x3c
 2419 0109 19       		.uleb128 0x19
 2420 010a 00       		.byte	0
 2421 010b 00       		.byte	0
 2422 010c 17       		.uleb128 0x17
 2423 010d 0D       		.uleb128 0xd
 2424 010e 00       		.byte	0
 2425 010f 03       		.uleb128 0x3
 2426 0110 08       		.uleb128 0x8
 2427 0111 3A       		.uleb128 0x3a
 2428 0112 0B       		.uleb128 0xb
 2429 0113 3B       		.uleb128 0x3b
 2430 0114 0B       		.uleb128 0xb
 2431 0115 49       		.uleb128 0x49
 2432 0116 13       		.uleb128 0x13
 2433 0117 38       		.uleb128 0x38
 2434 0118 0B       		.uleb128 0xb
 2435 0119 00       		.byte	0
 2436 011a 00       		.byte	0
 2437 011b 18       		.uleb128 0x18
 2438 011c 13       		.uleb128 0x13
 2439 011d 01       		.byte	0x1
 2440 011e 0B       		.uleb128 0xb
 2441 011f 0B       		.uleb128 0xb
 2442 0120 3A       		.uleb128 0x3a
 2443 0121 0B       		.uleb128 0xb
 2444 0122 3B       		.uleb128 0x3b
 2445 0123 0B       		.uleb128 0xb
 2446 0124 01       		.uleb128 0x1
 2447 0125 13       		.uleb128 0x13
 2448 0126 00       		.byte	0
 2449 0127 00       		.byte	0
 2450 0128 19       		.uleb128 0x19
 2451 0129 17       		.uleb128 0x17
ARM GAS  /tmp/ccEgXP7Z.s 			page 44


 2452 012a 01       		.byte	0x1
 2453 012b 0B       		.uleb128 0xb
 2454 012c 0B       		.uleb128 0xb
 2455 012d 3A       		.uleb128 0x3a
 2456 012e 0B       		.uleb128 0xb
 2457 012f 3B       		.uleb128 0x3b
 2458 0130 0B       		.uleb128 0xb
 2459 0131 01       		.uleb128 0x1
 2460 0132 13       		.uleb128 0x13
 2461 0133 00       		.byte	0
 2462 0134 00       		.byte	0
 2463 0135 1A       		.uleb128 0x1a
 2464 0136 0D       		.uleb128 0xd
 2465 0137 00       		.byte	0
 2466 0138 03       		.uleb128 0x3
 2467 0139 0E       		.uleb128 0xe
 2468 013a 3A       		.uleb128 0x3a
 2469 013b 0B       		.uleb128 0xb
 2470 013c 3B       		.uleb128 0x3b
 2471 013d 05       		.uleb128 0x5
 2472 013e 49       		.uleb128 0x49
 2473 013f 13       		.uleb128 0x13
 2474 0140 00       		.byte	0
 2475 0141 00       		.byte	0
 2476 0142 1B       		.uleb128 0x1b
 2477 0143 34       		.uleb128 0x34
 2478 0144 00       		.byte	0
 2479 0145 03       		.uleb128 0x3
 2480 0146 08       		.uleb128 0x8
 2481 0147 3A       		.uleb128 0x3a
 2482 0148 0B       		.uleb128 0xb
 2483 0149 3B       		.uleb128 0x3b
 2484 014a 05       		.uleb128 0x5
 2485 014b 49       		.uleb128 0x49
 2486 014c 13       		.uleb128 0x13
 2487 014d 3F       		.uleb128 0x3f
 2488 014e 19       		.uleb128 0x19
 2489 014f 3C       		.uleb128 0x3c
 2490 0150 19       		.uleb128 0x19
 2491 0151 00       		.byte	0
 2492 0152 00       		.byte	0
 2493 0153 1C       		.uleb128 0x1c
 2494 0154 2E       		.uleb128 0x2e
 2495 0155 01       		.byte	0x1
 2496 0156 3F       		.uleb128 0x3f
 2497 0157 19       		.uleb128 0x19
 2498 0158 03       		.uleb128 0x3
 2499 0159 0E       		.uleb128 0xe
 2500 015a 3A       		.uleb128 0x3a
 2501 015b 0B       		.uleb128 0xb
 2502 015c 3B       		.uleb128 0x3b
 2503 015d 0B       		.uleb128 0xb
 2504 015e 27       		.uleb128 0x27
 2505 015f 19       		.uleb128 0x19
 2506 0160 11       		.uleb128 0x11
 2507 0161 01       		.uleb128 0x1
 2508 0162 12       		.uleb128 0x12
ARM GAS  /tmp/ccEgXP7Z.s 			page 45


 2509 0163 06       		.uleb128 0x6
 2510 0164 40       		.uleb128 0x40
 2511 0165 18       		.uleb128 0x18
 2512 0166 9642     		.uleb128 0x2116
 2513 0168 19       		.uleb128 0x19
 2514 0169 01       		.uleb128 0x1
 2515 016a 13       		.uleb128 0x13
 2516 016b 00       		.byte	0
 2517 016c 00       		.byte	0
 2518 016d 1D       		.uleb128 0x1d
 2519 016e 0B       		.uleb128 0xb
 2520 016f 01       		.byte	0x1
 2521 0170 11       		.uleb128 0x11
 2522 0171 01       		.uleb128 0x1
 2523 0172 12       		.uleb128 0x12
 2524 0173 06       		.uleb128 0x6
 2525 0174 00       		.byte	0
 2526 0175 00       		.byte	0
 2527 0176 1E       		.uleb128 0x1e
 2528 0177 34       		.uleb128 0x34
 2529 0178 00       		.byte	0
 2530 0179 03       		.uleb128 0x3
 2531 017a 0E       		.uleb128 0xe
 2532 017b 3A       		.uleb128 0x3a
 2533 017c 0B       		.uleb128 0xb
 2534 017d 3B       		.uleb128 0x3b
 2535 017e 0B       		.uleb128 0xb
 2536 017f 49       		.uleb128 0x49
 2537 0180 13       		.uleb128 0x13
 2538 0181 02       		.uleb128 0x2
 2539 0182 18       		.uleb128 0x18
 2540 0183 00       		.byte	0
 2541 0184 00       		.byte	0
 2542 0185 1F       		.uleb128 0x1f
 2543 0186 1D       		.uleb128 0x1d
 2544 0187 01       		.byte	0x1
 2545 0188 31       		.uleb128 0x31
 2546 0189 13       		.uleb128 0x13
 2547 018a 11       		.uleb128 0x11
 2548 018b 01       		.uleb128 0x1
 2549 018c 12       		.uleb128 0x12
 2550 018d 06       		.uleb128 0x6
 2551 018e 58       		.uleb128 0x58
 2552 018f 0B       		.uleb128 0xb
 2553 0190 59       		.uleb128 0x59
 2554 0191 0B       		.uleb128 0xb
 2555 0192 01       		.uleb128 0x1
 2556 0193 13       		.uleb128 0x13
 2557 0194 00       		.byte	0
 2558 0195 00       		.byte	0
 2559 0196 20       		.uleb128 0x20
 2560 0197 34       		.uleb128 0x34
 2561 0198 00       		.byte	0
 2562 0199 31       		.uleb128 0x31
 2563 019a 13       		.uleb128 0x13
 2564 019b 02       		.uleb128 0x2
 2565 019c 18       		.uleb128 0x18
ARM GAS  /tmp/ccEgXP7Z.s 			page 46


 2566 019d 00       		.byte	0
 2567 019e 00       		.byte	0
 2568 019f 21       		.uleb128 0x21
 2569 01a0 1D       		.uleb128 0x1d
 2570 01a1 01       		.byte	0x1
 2571 01a2 31       		.uleb128 0x31
 2572 01a3 13       		.uleb128 0x13
 2573 01a4 11       		.uleb128 0x11
 2574 01a5 01       		.uleb128 0x1
 2575 01a6 12       		.uleb128 0x12
 2576 01a7 06       		.uleb128 0x6
 2577 01a8 58       		.uleb128 0x58
 2578 01a9 0B       		.uleb128 0xb
 2579 01aa 59       		.uleb128 0x59
 2580 01ab 0B       		.uleb128 0xb
 2581 01ac 00       		.byte	0
 2582 01ad 00       		.byte	0
 2583 01ae 22       		.uleb128 0x22
 2584 01af 05       		.uleb128 0x5
 2585 01b0 00       		.byte	0
 2586 01b1 31       		.uleb128 0x31
 2587 01b2 13       		.uleb128 0x13
 2588 01b3 02       		.uleb128 0x2
 2589 01b4 18       		.uleb128 0x18
 2590 01b5 00       		.byte	0
 2591 01b6 00       		.byte	0
 2592 01b7 23       		.uleb128 0x23
 2593 01b8 2E       		.uleb128 0x2e
 2594 01b9 00       		.byte	0
 2595 01ba 03       		.uleb128 0x3
 2596 01bb 0E       		.uleb128 0xe
 2597 01bc 3A       		.uleb128 0x3a
 2598 01bd 0B       		.uleb128 0xb
 2599 01be 3B       		.uleb128 0x3b
 2600 01bf 05       		.uleb128 0x5
 2601 01c0 27       		.uleb128 0x27
 2602 01c1 19       		.uleb128 0x19
 2603 01c2 11       		.uleb128 0x11
 2604 01c3 01       		.uleb128 0x1
 2605 01c4 12       		.uleb128 0x12
 2606 01c5 06       		.uleb128 0x6
 2607 01c6 40       		.uleb128 0x40
 2608 01c7 18       		.uleb128 0x18
 2609 01c8 9642     		.uleb128 0x2116
 2610 01ca 19       		.uleb128 0x19
 2611 01cb 00       		.byte	0
 2612 01cc 00       		.byte	0
 2613 01cd 24       		.uleb128 0x24
 2614 01ce 2E       		.uleb128 0x2e
 2615 01cf 01       		.byte	0x1
 2616 01d0 03       		.uleb128 0x3
 2617 01d1 0E       		.uleb128 0xe
 2618 01d2 3A       		.uleb128 0x3a
 2619 01d3 0B       		.uleb128 0xb
 2620 01d4 3B       		.uleb128 0x3b
 2621 01d5 05       		.uleb128 0x5
 2622 01d6 27       		.uleb128 0x27
ARM GAS  /tmp/ccEgXP7Z.s 			page 47


 2623 01d7 19       		.uleb128 0x19
 2624 01d8 11       		.uleb128 0x11
 2625 01d9 01       		.uleb128 0x1
 2626 01da 12       		.uleb128 0x12
 2627 01db 06       		.uleb128 0x6
 2628 01dc 40       		.uleb128 0x40
 2629 01dd 18       		.uleb128 0x18
 2630 01de 9742     		.uleb128 0x2117
 2631 01e0 19       		.uleb128 0x19
 2632 01e1 01       		.uleb128 0x1
 2633 01e2 13       		.uleb128 0x13
 2634 01e3 00       		.byte	0
 2635 01e4 00       		.byte	0
 2636 01e5 25       		.uleb128 0x25
 2637 01e6 1D       		.uleb128 0x1d
 2638 01e7 01       		.byte	0x1
 2639 01e8 31       		.uleb128 0x31
 2640 01e9 13       		.uleb128 0x13
 2641 01ea 11       		.uleb128 0x11
 2642 01eb 01       		.uleb128 0x1
 2643 01ec 12       		.uleb128 0x12
 2644 01ed 06       		.uleb128 0x6
 2645 01ee 58       		.uleb128 0x58
 2646 01ef 0B       		.uleb128 0xb
 2647 01f0 59       		.uleb128 0x59
 2648 01f1 05       		.uleb128 0x5
 2649 01f2 00       		.byte	0
 2650 01f3 00       		.byte	0
 2651 01f4 26       		.uleb128 0x26
 2652 01f5 2E       		.uleb128 0x2e
 2653 01f6 01       		.byte	0x1
 2654 01f7 03       		.uleb128 0x3
 2655 01f8 0E       		.uleb128 0xe
 2656 01f9 3A       		.uleb128 0x3a
 2657 01fa 0B       		.uleb128 0xb
 2658 01fb 3B       		.uleb128 0x3b
 2659 01fc 05       		.uleb128 0x5
 2660 01fd 27       		.uleb128 0x27
 2661 01fe 19       		.uleb128 0x19
 2662 01ff 49       		.uleb128 0x49
 2663 0200 13       		.uleb128 0x13
 2664 0201 20       		.uleb128 0x20
 2665 0202 0B       		.uleb128 0xb
 2666 0203 01       		.uleb128 0x1
 2667 0204 13       		.uleb128 0x13
 2668 0205 00       		.byte	0
 2669 0206 00       		.byte	0
 2670 0207 27       		.uleb128 0x27
 2671 0208 34       		.uleb128 0x34
 2672 0209 00       		.byte	0
 2673 020a 03       		.uleb128 0x3
 2674 020b 0E       		.uleb128 0xe
 2675 020c 3A       		.uleb128 0x3a
 2676 020d 0B       		.uleb128 0xb
 2677 020e 3B       		.uleb128 0x3b
 2678 020f 05       		.uleb128 0x5
 2679 0210 49       		.uleb128 0x49
ARM GAS  /tmp/ccEgXP7Z.s 			page 48


 2680 0211 13       		.uleb128 0x13
 2681 0212 00       		.byte	0
 2682 0213 00       		.byte	0
 2683 0214 28       		.uleb128 0x28
 2684 0215 2E       		.uleb128 0x2e
 2685 0216 01       		.byte	0x1
 2686 0217 03       		.uleb128 0x3
 2687 0218 0E       		.uleb128 0xe
 2688 0219 3A       		.uleb128 0x3a
 2689 021a 0B       		.uleb128 0xb
 2690 021b 3B       		.uleb128 0x3b
 2691 021c 05       		.uleb128 0x5
 2692 021d 27       		.uleb128 0x27
 2693 021e 19       		.uleb128 0x19
 2694 021f 20       		.uleb128 0x20
 2695 0220 0B       		.uleb128 0xb
 2696 0221 01       		.uleb128 0x1
 2697 0222 13       		.uleb128 0x13
 2698 0223 00       		.byte	0
 2699 0224 00       		.byte	0
 2700 0225 29       		.uleb128 0x29
 2701 0226 05       		.uleb128 0x5
 2702 0227 00       		.byte	0
 2703 0228 03       		.uleb128 0x3
 2704 0229 0E       		.uleb128 0xe
 2705 022a 3A       		.uleb128 0x3a
 2706 022b 0B       		.uleb128 0xb
 2707 022c 3B       		.uleb128 0x3b
 2708 022d 05       		.uleb128 0x5
 2709 022e 49       		.uleb128 0x49
 2710 022f 13       		.uleb128 0x13
 2711 0230 00       		.byte	0
 2712 0231 00       		.byte	0
 2713 0232 2A       		.uleb128 0x2a
 2714 0233 2E       		.uleb128 0x2e
 2715 0234 01       		.byte	0x1
 2716 0235 03       		.uleb128 0x3
 2717 0236 0E       		.uleb128 0xe
 2718 0237 3A       		.uleb128 0x3a
 2719 0238 0B       		.uleb128 0xb
 2720 0239 3B       		.uleb128 0x3b
 2721 023a 05       		.uleb128 0x5
 2722 023b 27       		.uleb128 0x27
 2723 023c 19       		.uleb128 0x19
 2724 023d 49       		.uleb128 0x49
 2725 023e 13       		.uleb128 0x13
 2726 023f 20       		.uleb128 0x20
 2727 0240 0B       		.uleb128 0xb
 2728 0241 00       		.byte	0
 2729 0242 00       		.byte	0
 2730 0243 00       		.byte	0
 2731              		.section	.debug_aranges,"",%progbits
 2732 0000 44000000 		.4byte	0x44
 2733 0004 0200     		.2byte	0x2
 2734 0006 00000000 		.4byte	.Ldebug_info0
 2735 000a 04       		.byte	0x4
 2736 000b 00       		.byte	0
ARM GAS  /tmp/ccEgXP7Z.s 			page 49


 2737 000c 0000     		.2byte	0
 2738 000e 0000     		.2byte	0
 2739 0010 00000000 		.4byte	.LFB127
 2740 0014 12000000 		.4byte	.LFE127-.LFB127
 2741 0018 00000000 		.4byte	.LFB128
 2742 001c 12000000 		.4byte	.LFE128-.LFB128
 2743 0020 00000000 		.4byte	.LFB129
 2744 0024 0A000000 		.4byte	.LFE129-.LFB129
 2745 0028 00000000 		.4byte	.LFB130
 2746 002c 0A000000 		.4byte	.LFE130-.LFB130
 2747 0030 00000000 		.4byte	.LFB231
 2748 0034 3C000000 		.4byte	.LFE231-.LFB231
 2749 0038 00000000 		.4byte	.LFB232
 2750 003c 7C000000 		.4byte	.LFE232-.LFB232
 2751 0040 00000000 		.4byte	0
 2752 0044 00000000 		.4byte	0
 2753              		.section	.debug_ranges,"",%progbits
 2754              	.Ldebug_ranges0:
 2755 0000 00000000 		.4byte	.LFB127
 2756 0004 12000000 		.4byte	.LFE127
 2757 0008 00000000 		.4byte	.LFB128
 2758 000c 12000000 		.4byte	.LFE128
 2759 0010 00000000 		.4byte	.LFB129
 2760 0014 0A000000 		.4byte	.LFE129
 2761 0018 00000000 		.4byte	.LFB130
 2762 001c 0A000000 		.4byte	.LFE130
 2763 0020 00000000 		.4byte	.LFB231
 2764 0024 3C000000 		.4byte	.LFE231
 2765 0028 00000000 		.4byte	.LFB232
 2766 002c 7C000000 		.4byte	.LFE232
 2767 0030 00000000 		.4byte	0
 2768 0034 00000000 		.4byte	0
 2769              		.section	.debug_line,"",%progbits
 2770              	.Ldebug_line0:
 2771 0000 B3020000 		.section	.debug_str,"MS",%progbits,1
 2771      0200E501 
 2771      00000201 
 2771      FB0E0D00 
 2771      01010101 
 2772              	.LASF57:
 2773 0000 72656164 		.ascii	"ready_list_t\000"
 2773      795F6C69 
 2773      73745F74 
 2773      00
 2774              	.LASF137:
 2775 000d 77747472 		.ascii	"wttrp\000"
 2775      7000
 2776              	.LASF134:
 2777 0013 7264796D 		.ascii	"rdymsg\000"
 2777      736700
 2778              	.LASF107:
 2779 001a 46504453 		.ascii	"FPDSCR\000"
 2779      435200
 2780              	.LASF161:
 2781 0021 63665F6F 		.ascii	"cf_off_stklimit\000"
 2781      66665F73 
 2781      746B6C69 
ARM GAS  /tmp/ccEgXP7Z.s 			page 50


 2781      6D697400 
 2782              	.LASF19:
 2783 0031 75696E74 		.ascii	"uint64_t\000"
 2783      36345F74 
 2783      00
 2784              	.LASF86:
 2785 003a 6B65726E 		.ascii	"kernel_stats\000"
 2785      656C5F73 
 2785      74617473 
 2785      00
 2786              	.LASF3:
 2787 0047 7369676E 		.ascii	"signed char\000"
 2787      65642063 
 2787      68617200 
 2788              	.LASF6:
 2789 0053 5F5F7569 		.ascii	"__uint8_t\000"
 2789      6E74385F 
 2789      7400
 2790              	.LASF116:
 2791 005d 706F7274 		.ascii	"port_intctx\000"
 2791      5F696E74 
 2791      63747800 
 2792              	.LASF56:
 2793 0069 63685F74 		.ascii	"ch_threads_queue\000"
 2793      68726561 
 2793      64735F71 
 2793      75657565 
 2793      00
 2794              	.LASF76:
 2795 007a 73797374 		.ascii	"system_debug_t\000"
 2795      656D5F64 
 2795      65627567 
 2795      5F7400
 2796              	.LASF177:
 2797 0089 706F7274 		.ascii	"port_lock\000"
 2797      5F6C6F63 
 2797      6B00
 2798              	.LASF125:
 2799 0093 776F7273 		.ascii	"worst\000"
 2799      7400
 2800              	.LASF128:
 2801 0099 74696D65 		.ascii	"time_measurement_t\000"
 2801      5F6D6561 
 2801      73757265 
 2801      6D656E74 
 2801      5F7400
 2802              	.LASF155:
 2803 00ac 63685F74 		.ascii	"ch_threadsize\000"
 2803      68726561 
 2803      6473697A 
 2803      6500
 2804              	.LASF135:
 2805 00ba 65786974 		.ascii	"exitcode\000"
 2805      636F6465 
 2805      00
 2806              	.LASF85:
 2807 00c3 6D61696E 		.ascii	"mainthread\000"
ARM GAS  /tmp/ccEgXP7Z.s 			page 51


 2807      74687265 
 2807      616400
 2808              	.LASF73:
 2809 00ce 76697274 		.ascii	"virtual_timers_list_t\000"
 2809      75616C5F 
 2809      74696D65 
 2809      72735F6C 
 2809      6973745F 
 2810              	.LASF89:
 2811 00e4 43505549 		.ascii	"CPUID\000"
 2811      4400
 2812              	.LASF21:
 2813 00ea 72747469 		.ascii	"rttime_t\000"
 2813      6D655F74 
 2813      00
 2814              	.LASF120:
 2815 00f3 66707363 		.ascii	"fpscr\000"
 2815      7200
 2816              	.LASF34:
 2817 00f9 705F7072 		.ascii	"p_prio\000"
 2817      696F00
 2818              	.LASF163:
 2819 0100 63665F6F 		.ascii	"cf_off_flags\000"
 2819      66665F66 
 2819      6C616773 
 2819      00
 2820              	.LASF49:
 2821 010d 705F6D70 		.ascii	"p_mpool\000"
 2821      6F6F6C00 
 2822              	.LASF14:
 2823 0115 6C6F6E67 		.ascii	"long long unsigned int\000"
 2823      206C6F6E 
 2823      6720756E 
 2823      7369676E 
 2823      65642069 
 2824              	.LASF145:
 2825 012c 6D5F7175 		.ascii	"m_queue\000"
 2825      65756500 
 2826              	.LASF101:
 2827 0134 49534152 		.ascii	"ISAR\000"
 2827      00
 2828              	.LASF84:
 2829 0139 76746C69 		.ascii	"vtlist\000"
 2829      737400
 2830              	.LASF176:
 2831 0140 706F7274 		.ascii	"port_unlock\000"
 2831      5F756E6C 
 2831      6F636B00 
 2832              	.LASF126:
 2833 014c 6C617374 		.ascii	"last\000"
 2833      00
 2834              	.LASF82:
 2835 0151 63685F73 		.ascii	"ch_system\000"
 2835      79737465 
 2835      6D00
 2836              	.LASF10:
 2837 015b 6C6F6E67 		.ascii	"long int\000"
ARM GAS  /tmp/ccEgXP7Z.s 			page 52


 2837      20696E74 
 2837      00
 2838              	.LASF23:
 2839 0164 74737461 		.ascii	"tstate_t\000"
 2839      74655F74 
 2839      00
 2840              	.LASF184:
 2841 016d 474E5520 		.ascii	"GNU C11 6.3.1 20170620 (release) [ARM/embedded-6-br"
 2841      43313120 
 2841      362E332E 
 2841      31203230 
 2841      31373036 
 2842 01a0 616E6368 		.ascii	"anch revision 249437] -mcpu=cortex-m4 -mfloat-abi=h"
 2842      20726576 
 2842      6973696F 
 2842      6E203234 
 2842      39343337 
 2843 01d3 61726420 		.ascii	"ard -mfpu=fpv4-sp-d16 -mno-thumb-interwork -mthumb "
 2843      2D6D6670 
 2843      753D6670 
 2843      76342D73 
 2843      702D6431 
 2844 0206 2D676764 		.ascii	"-ggdb -O0 -fomit-frame-pointer -falign-functions=16"
 2844      62202D4F 
 2844      30202D66 
 2844      6F6D6974 
 2844      2D667261 
 2845 0239 202D6666 		.ascii	" -ffunction-sections -fdata-sections -fno-common -f"
 2845      756E6374 
 2845      696F6E2D 
 2845      73656374 
 2845      696F6E73 
 2846 026c 73696E67 		.ascii	"single-precision-constant\000"
 2846      6C652D70 
 2846      72656369 
 2846      73696F6E 
 2846      2D636F6E 
 2847              	.LASF167:
 2848 0286 63686465 		.ascii	"chdebug_t\000"
 2848      6275675F 
 2848      7400
 2849              	.LASF36:
 2850 0290 705F6E65 		.ascii	"p_newer\000"
 2850      77657200 
 2851              	.LASF142:
 2852 0298 735F7175 		.ascii	"s_queue\000"
 2852      65756500 
 2853              	.LASF98:
 2854 02a0 42464152 		.ascii	"BFAR\000"
 2854      00
 2855              	.LASF99:
 2856 02a5 41465352 		.ascii	"AFSR\000"
 2856      00
 2857              	.LASF62:
 2858 02aa 725F6E65 		.ascii	"r_newer\000"
 2858      77657200 
 2859              	.LASF113:
ARM GAS  /tmp/ccEgXP7Z.s 			page 53


 2860 02b2 72656761 		.ascii	"regarm_t\000"
 2860      726D5F74 
 2860      00
 2861              	.LASF69:
 2862 02bb 76745F70 		.ascii	"vt_prev\000"
 2862      72657600 
 2863              	.LASF104:
 2864 02c3 5343425F 		.ascii	"SCB_Type\000"
 2864      54797065 
 2864      00
 2865              	.LASF81:
 2866 02cc 63685F73 		.ascii	"ch_system_t\000"
 2866      79737465 
 2866      6D5F7400 
 2867              	.LASF77:
 2868 02d8 63685F73 		.ascii	"ch_system_debug\000"
 2868      79737465 
 2868      6D5F6465 
 2868      62756700 
 2869              	.LASF121:
 2870 02e8 72657365 		.ascii	"reserved\000"
 2870      72766564 
 2870      00
 2871              	.LASF1:
 2872 02f1 6C6F6E67 		.ascii	"long long int\000"
 2872      206C6F6E 
 2872      6720696E 
 2872      7400
 2873              	.LASF180:
 2874 02ff 76616C75 		.ascii	"value\000"
 2874      6500
 2875              	.LASF80:
 2876 0305 6C6F636B 		.ascii	"lock_cnt\000"
 2876      5F636E74 
 2876      00
 2877              	.LASF87:
 2878 030e 69646C65 		.ascii	"idle_thread_wa\000"
 2878      5F746872 
 2878      6561645F 
 2878      776100
 2879              	.LASF28:
 2880 031d 636E745F 		.ascii	"cnt_t\000"
 2880      7400
 2881              	.LASF110:
 2882 0323 4650555F 		.ascii	"FPU_Type\000"
 2882      54797065 
 2882      00
 2883              	.LASF39:
 2884 032c 705F7374 		.ascii	"p_stklimit\000"
 2884      6B6C696D 
 2884      697400
 2885              	.LASF0:
 2886 0337 756E7369 		.ascii	"unsigned int\000"
 2886      676E6564 
 2886      20696E74 
 2886      00
 2887              	.LASF179:
ARM GAS  /tmp/ccEgXP7Z.s 			page 54


 2888 0344 5F5F7365 		.ascii	"__set_PSP\000"
 2888      745F5053 
 2888      5000
 2889              	.LASF68:
 2890 034e 76745F6E 		.ascii	"vt_next\000"
 2890      65787400 
 2891              	.LASF16:
 2892 0356 75696E74 		.ascii	"uint16_t\000"
 2892      31365F74 
 2892      00
 2893              	.LASF112:
 2894 035f 53797374 		.ascii	"SystemCoreClock\000"
 2894      656D436F 
 2894      7265436C 
 2894      6F636B00 
 2895              	.LASF186:
 2896 036f 2F686F6D 		.ascii	"/home/matt/Documents/fibre-link/header-detection/pc"
 2896      652F6D61 
 2896      74742F44 
 2896      6F63756D 
 2896      656E7473 
 2897 03a2 622F7374 		.ascii	"b/stm32/firmware\000"
 2897      6D33322F 
 2897      6669726D 
 2897      77617265 
 2897      00
 2898              	.LASF138:
 2899 03b3 77747365 		.ascii	"wtsemp\000"
 2899      6D7000
 2900              	.LASF75:
 2901 03ba 76745F73 		.ascii	"vt_systime\000"
 2901      79737469 
 2901      6D6500
 2902              	.LASF159:
 2903 03c5 63665F6F 		.ascii	"cf_off_older\000"
 2903      66665F6F 
 2903      6C646572 
 2903      00
 2904              	.LASF70:
 2905 03d2 76745F64 		.ascii	"vt_delta\000"
 2905      656C7461 
 2905      00
 2906              	.LASF44:
 2907 03db 705F6D73 		.ascii	"p_msgqueue\000"
 2907      67717565 
 2907      756500
 2908              	.LASF168:
 2909 03e6 63685F64 		.ascii	"ch_debug\000"
 2909      65627567 
 2909      00
 2910              	.LASF129:
 2911 03ef 6E5F6972 		.ascii	"n_irq\000"
 2911      7100
 2912              	.LASF91:
 2913 03f5 56544F52 		.ascii	"VTOR\000"
 2913      00
 2914              	.LASF143:
ARM GAS  /tmp/ccEgXP7Z.s 			page 55


 2915 03fa 735F636E 		.ascii	"s_cnt\000"
 2915      7400
 2916              	.LASF133:
 2917 0400 6B65726E 		.ascii	"kernel_stats_t\000"
 2917      656C5F73 
 2917      74617473 
 2917      5F7400
 2918              	.LASF53:
 2919 040f 63685F74 		.ascii	"ch_thread\000"
 2919      68726561 
 2919      6400
 2920              	.LASF90:
 2921 0419 49435352 		.ascii	"ICSR\000"
 2921      00
 2922              	.LASF26:
 2923 041e 6D73675F 		.ascii	"msg_t\000"
 2923      7400
 2924              	.LASF92:
 2925 0424 41495243 		.ascii	"AIRCR\000"
 2925      5200
 2926              	.LASF96:
 2927 042a 44465352 		.ascii	"DFSR\000"
 2927      00
 2928              	.LASF29:
 2929 042f 75636E74 		.ascii	"ucnt_t\000"
 2929      5F7400
 2930              	.LASF97:
 2931 0436 4D4D4641 		.ascii	"MMFAR\000"
 2931      5200
 2932              	.LASF171:
 2933 043c 5F706F72 		.ascii	"_port_irq_epilogue\000"
 2933      745F6972 
 2933      715F6570 
 2933      696C6F67 
 2933      756500
 2934              	.LASF166:
 2935 044f 63665F6F 		.ascii	"cf_off_time\000"
 2935      66665F74 
 2935      696D6500 
 2936              	.LASF132:
 2937 045b 6D5F6372 		.ascii	"m_crit_isr\000"
 2937      69745F69 
 2937      737200
 2938              	.LASF58:
 2939 0466 63685F72 		.ascii	"ch_ready_list\000"
 2939      65616479 
 2939      5F6C6973 
 2939      7400
 2940              	.LASF27:
 2941 0474 6576656E 		.ascii	"eventmask_t\000"
 2941      746D6173 
 2941      6B5F7400 
 2942              	.LASF181:
 2943 0480 746F704F 		.ascii	"topOfProcStack\000"
 2943      6650726F 
 2943      63537461 
 2943      636B00
ARM GAS  /tmp/ccEgXP7Z.s 			page 56


 2944              	.LASF9:
 2945 048f 5F5F696E 		.ascii	"__int32_t\000"
 2945      7433325F 
 2945      7400
 2946              	.LASF114:
 2947 0499 73746B61 		.ascii	"stkalign_t\000"
 2947      6C69676E 
 2947      5F7400
 2948              	.LASF52:
 2949 04a4 74687265 		.ascii	"threads_list_t\000"
 2949      6164735F 
 2949      6C697374 
 2949      5F7400
 2950              	.LASF150:
 2951 04b3 63685F7A 		.ascii	"ch_zero\000"
 2951      65726F00 
 2952              	.LASF164:
 2953 04bb 63665F6F 		.ascii	"cf_off_refs\000"
 2953      66665F72 
 2953      65667300 
 2954              	.LASF43:
 2955 04c7 705F7761 		.ascii	"p_waiting\000"
 2955      6974696E 
 2955      6700
 2956              	.LASF94:
 2957 04d1 43465352 		.ascii	"CFSR\000"
 2957      00
 2958              	.LASF88:
 2959 04d6 73697A65 		.ascii	"sizetype\000"
 2959      74797065 
 2959      00
 2960              	.LASF74:
 2961 04df 63685F76 		.ascii	"ch_virtual_timers_list\000"
 2961      69727475 
 2961      616C5F74 
 2961      696D6572 
 2961      735F6C69 
 2962              	.LASF2:
 2963 04f6 6C6F6E67 		.ascii	"long double\000"
 2963      20646F75 
 2963      626C6500 
 2964              	.LASF154:
 2965 0502 63685F74 		.ascii	"ch_timesize\000"
 2965      696D6573 
 2965      697A6500 
 2966              	.LASF160:
 2967 050e 63665F6F 		.ascii	"cf_off_name\000"
 2967      66665F6E 
 2967      616D6500 
 2968              	.LASF37:
 2969 051a 705F6F6C 		.ascii	"p_older\000"
 2969      64657200 
 2970              	.LASF61:
 2971 0522 725F6374 		.ascii	"r_ctx\000"
 2971      7800
 2972              	.LASF35:
 2973 0528 705F6374 		.ascii	"p_ctx\000"
ARM GAS  /tmp/ccEgXP7Z.s 			page 57


 2973      7800
 2974              	.LASF117:
 2975 052e 706F7274 		.ascii	"port_extctx\000"
 2975      5F657874 
 2975      63747800 
 2976              	.LASF123:
 2977 053a 746D5F63 		.ascii	"tm_calibration_t\000"
 2977      616C6962 
 2977      72617469 
 2977      6F6E5F74 
 2977      00
 2978              	.LASF64:
 2979 054b 725F6375 		.ascii	"r_current\000"
 2979      7272656E 
 2979      7400
 2980              	.LASF63:
 2981 0555 725F6F6C 		.ascii	"r_older\000"
 2981      64657200 
 2982              	.LASF13:
 2983 055d 5F5F7569 		.ascii	"__uint64_t\000"
 2983      6E743634 
 2983      5F7400
 2984              	.LASF127:
 2985 0568 63756D75 		.ascii	"cumulative\000"
 2985      6C617469 
 2985      766500
 2986              	.LASF108:
 2987 0573 4D564652 		.ascii	"MVFR0\000"
 2987      3000
 2988              	.LASF109:
 2989 0579 4D564652 		.ascii	"MVFR1\000"
 2989      3100
 2990              	.LASF24:
 2991 057f 74726566 		.ascii	"trefs_t\000"
 2991      735F7400 
 2992              	.LASF102:
 2993 0587 52455345 		.ascii	"RESERVED0\000"
 2993      52564544 
 2993      3000
 2994              	.LASF153:
 2995 0591 63685F70 		.ascii	"ch_ptrsize\000"
 2995      74727369 
 2995      7A6500
 2996              	.LASF173:
 2997 059c 63747870 		.ascii	"ctxp\000"
 2997      00
 2998              	.LASF66:
 2999 05a1 76697274 		.ascii	"virtual_timer_t\000"
 2999      75616C5F 
 2999      74696D65 
 2999      725F7400 
 3000              	.LASF33:
 3001 05b1 705F7072 		.ascii	"p_prev\000"
 3001      657600
 3002              	.LASF25:
 3003 05b8 74707269 		.ascii	"tprio_t\000"
 3003      6F5F7400 
ARM GAS  /tmp/ccEgXP7Z.s 			page 58


 3004              	.LASF187:
 3005 05c0 5F5F6765 		.ascii	"__get_FPSCR\000"
 3005      745F4650 
 3005      53435200 
 3006              	.LASF130:
 3007 05cc 6E5F6374 		.ascii	"n_ctxswc\000"
 3007      78737763 
 3007      00
 3008              	.LASF170:
 3009 05d5 5F426F6F 		.ascii	"_Bool\000"
 3009      6C00
 3010              	.LASF17:
 3011 05db 696E7433 		.ascii	"int32_t\000"
 3011      325F7400 
 3012              	.LASF4:
 3013 05e3 756E7369 		.ascii	"unsigned char\000"
 3013      676E6564 
 3013      20636861 
 3013      7200
 3014              	.LASF93:
 3015 05f1 53484353 		.ascii	"SHCSR\000"
 3015      5200
 3016              	.LASF111:
 3017 05f7 49544D5F 		.ascii	"ITM_RxBuffer\000"
 3017      52784275 
 3017      66666572 
 3017      00
 3018              	.LASF47:
 3019 0604 705F6D74 		.ascii	"p_mtxlist\000"
 3019      786C6973 
 3019      7400
 3020              	.LASF5:
 3021 060e 73686F72 		.ascii	"short int\000"
 3021      7420696E 
 3021      7400
 3022              	.LASF40:
 3023 0618 705F7374 		.ascii	"p_state\000"
 3023      61746500 
 3024              	.LASF119:
 3025 0620 78707372 		.ascii	"xpsr\000"
 3025      00
 3026              	.LASF60:
 3027 0625 725F7072 		.ascii	"r_prio\000"
 3027      696F00
 3028              	.LASF140:
 3029 062c 65776D61 		.ascii	"ewmask\000"
 3029      736B00
 3030              	.LASF32:
 3031 0633 705F6E65 		.ascii	"p_next\000"
 3031      787400
 3032              	.LASF22:
 3033 063a 746D6F64 		.ascii	"tmode_t\000"
 3033      655F7400 
 3034              	.LASF165:
 3035 0642 63665F6F 		.ascii	"cf_off_preempt\000"
 3035      66665F70 
 3035      7265656D 
ARM GAS  /tmp/ccEgXP7Z.s 			page 59


 3035      707400
 3036              	.LASF41:
 3037 0651 705F666C 		.ascii	"p_flags\000"
 3037      61677300 
 3038              	.LASF50:
 3039 0659 705F7374 		.ascii	"p_stats\000"
 3039      61747300 
 3040              	.LASF8:
 3041 0661 73686F72 		.ascii	"short unsigned int\000"
 3041      7420756E 
 3041      7369676E 
 3041      65642069 
 3041      6E7400
 3042              	.LASF118:
 3043 0674 6C725F74 		.ascii	"lr_thd\000"
 3043      686400
 3044              	.LASF106:
 3045 067b 46504341 		.ascii	"FPCAR\000"
 3045      5200
 3046              	.LASF172:
 3047 0681 5356435F 		.ascii	"SVC_Handler\000"
 3047      48616E64 
 3047      6C657200 
 3048              	.LASF105:
 3049 068d 46504343 		.ascii	"FPCCR\000"
 3049      5200
 3050              	.LASF55:
 3051 0693 74687265 		.ascii	"threads_queue_t\000"
 3051      6164735F 
 3051      71756575 
 3051      655F7400 
 3052              	.LASF67:
 3053 06a3 63685F76 		.ascii	"ch_virtual_timer\000"
 3053      69727475 
 3053      616C5F74 
 3053      696D6572 
 3053      00
 3054              	.LASF158:
 3055 06b4 63665F6F 		.ascii	"cf_off_newer\000"
 3055      66665F6E 
 3055      65776572 
 3055      00
 3056              	.LASF141:
 3057 06c1 63685F73 		.ascii	"ch_semaphore\000"
 3057      656D6170 
 3057      686F7265 
 3057      00
 3058              	.LASF46:
 3059 06ce 705F6570 		.ascii	"p_epending\000"
 3059      656E6469 
 3059      6E6700
 3060              	.LASF18:
 3061 06d9 75696E74 		.ascii	"uint32_t\000"
 3061      33325F74 
 3061      00
 3062              	.LASF156:
 3063 06e2 63665F6F 		.ascii	"cf_off_prio\000"
ARM GAS  /tmp/ccEgXP7Z.s 			page 60


 3063      66665F70 
 3063      72696F00 
 3064              	.LASF59:
 3065 06ee 725F7175 		.ascii	"r_queue\000"
 3065      65756500 
 3066              	.LASF54:
 3067 06f6 63685F74 		.ascii	"ch_threads_list\000"
 3067      68726561 
 3067      64735F6C 
 3067      69737400 
 3068              	.LASF151:
 3069 0706 63685F73 		.ascii	"ch_size\000"
 3069      697A6500 
 3070              	.LASF12:
 3071 070e 6C6F6E67 		.ascii	"long unsigned int\000"
 3071      20756E73 
 3071      69676E65 
 3071      6420696E 
 3071      7400
 3072              	.LASF148:
 3073 0720 63686172 		.ascii	"char\000"
 3073      00
 3074              	.LASF139:
 3075 0725 77746D74 		.ascii	"wtmtxp\000"
 3075      787000
 3076              	.LASF7:
 3077 072c 5F5F7569 		.ascii	"__uint16_t\000"
 3077      6E743136 
 3077      5F7400
 3078              	.LASF174:
 3079 0737 706F7274 		.ascii	"port_unlock_from_isr\000"
 3079      5F756E6C 
 3079      6F636B5F 
 3079      66726F6D 
 3079      5F697372 
 3080              	.LASF185:
 3081 074c 2E2E2F43 		.ascii	"../ChibiOS/os/rt/ports/ARMCMx/chcore_v7m.c\000"
 3081      68696269 
 3081      4F532F6F 
 3081      732F7274 
 3081      2F706F72 
 3082              	.LASF124:
 3083 0777 62657374 		.ascii	"best\000"
 3083      00
 3084              	.LASF147:
 3085 077c 6D5F6E65 		.ascii	"m_next\000"
 3085      787400
 3086              	.LASF30:
 3087 0783 73797374 		.ascii	"systime_t\000"
 3087      696D655F 
 3087      7400
 3088              	.LASF48:
 3089 078d 705F7265 		.ascii	"p_realprio\000"
 3089      616C7072 
 3089      696F00
 3090              	.LASF65:
 3091 0798 76746675 		.ascii	"vtfunc_t\000"
ARM GAS  /tmp/ccEgXP7Z.s 			page 61


 3091      6E635F74 
 3091      00
 3092              	.LASF11:
 3093 07a1 5F5F7569 		.ascii	"__uint32_t\000"
 3093      6E743332 
 3093      5F7400
 3094              	.LASF178:
 3095 07ac 5F5F7365 		.ascii	"__set_BASEPRI\000"
 3095      745F4241 
 3095      53455052 
 3095      4900
 3096              	.LASF78:
 3097 07ba 70616E69 		.ascii	"panic_msg\000"
 3097      635F6D73 
 3097      6700
 3098              	.LASF122:
 3099 07c4 6F666673 		.ascii	"offset\000"
 3099      657400
 3100              	.LASF115:
 3101 07cb 636F6E74 		.ascii	"context\000"
 3101      65787400 
 3102              	.LASF162:
 3103 07d3 63665F6F 		.ascii	"cf_off_state\000"
 3103      66665F73 
 3103      74617465 
 3103      00
 3104              	.LASF45:
 3105 07e0 705F6D73 		.ascii	"p_msg\000"
 3105      6700
 3106              	.LASF20:
 3107 07e6 7274636E 		.ascii	"rtcnt_t\000"
 3107      745F7400 
 3108              	.LASF175:
 3109 07ee 706F7274 		.ascii	"port_lock_from_isr\000"
 3109      5F6C6F63 
 3109      6B5F6672 
 3109      6F6D5F69 
 3109      737200
 3110              	.LASF182:
 3111 0801 5F5F6765 		.ascii	"__get_PSP\000"
 3111      745F5053 
 3111      5000
 3112              	.LASF72:
 3113 080b 76745F70 		.ascii	"vt_par\000"
 3113      617200
 3114              	.LASF157:
 3115 0812 63665F6F 		.ascii	"cf_off_ctx\000"
 3115      66665F63 
 3115      747800
 3116              	.LASF144:
 3117 081d 63685F6D 		.ascii	"ch_mutex\000"
 3117      75746578 
 3117      00
 3118              	.LASF42:
 3119 0826 705F7265 		.ascii	"p_refs\000"
 3119      667300
 3120              	.LASF79:
ARM GAS  /tmp/ccEgXP7Z.s 			page 62


 3121 082d 6973725F 		.ascii	"isr_cnt\000"
 3121      636E7400 
 3122              	.LASF31:
 3123 0835 74687265 		.ascii	"thread_t\000"
 3123      61645F74 
 3123      00
 3124              	.LASF100:
 3125 083e 4D4D4652 		.ascii	"MMFR\000"
 3125      00
 3126              	.LASF83:
 3127 0843 726C6973 		.ascii	"rlist\000"
 3127      7400
 3128              	.LASF15:
 3129 0849 75696E74 		.ascii	"uint8_t\000"
 3129      385F7400 
 3130              	.LASF51:
 3131 0851 74687265 		.ascii	"thread_reference_t\000"
 3131      61645F72 
 3131      65666572 
 3131      656E6365 
 3131      5F7400
 3132              	.LASF136:
 3133 0864 77746F62 		.ascii	"wtobjp\000"
 3133      6A7000
 3134              	.LASF38:
 3135 086b 705F6E61 		.ascii	"p_name\000"
 3135      6D6500
 3136              	.LASF152:
 3137 0872 63685F76 		.ascii	"ch_version\000"
 3137      65727369 
 3137      6F6E00
 3138              	.LASF103:
 3139 087d 43504143 		.ascii	"CPACR\000"
 3139      5200
 3140              	.LASF95:
 3141 0883 48465352 		.ascii	"HFSR\000"
 3141      00
 3142              	.LASF169:
 3143 0888 6D757465 		.ascii	"mutex_t\000"
 3143      785F7400 
 3144              	.LASF131:
 3145 0890 6D5F6372 		.ascii	"m_crit_thd\000"
 3145      69745F74 
 3145      686400
 3146              	.LASF146:
 3147 089b 6D5F6F77 		.ascii	"m_owner\000"
 3147      6E657200 
 3148              	.LASF183:
 3149 08a3 72657375 		.ascii	"result\000"
 3149      6C7400
 3150              	.LASF149:
 3151 08aa 63685F69 		.ascii	"ch_identifier\000"
 3151      64656E74 
 3151      69666965 
 3151      7200
 3152              	.LASF71:
 3153 08b8 76745F66 		.ascii	"vt_func\000"
ARM GAS  /tmp/ccEgXP7Z.s 			page 63


 3153      756E6300 
 3154              		.ident	"GCC: (GNU Tools for ARM Embedded Processors 6-2017-q2-update) 6.3.1 20170620 (release) [AR
ARM GAS  /tmp/ccEgXP7Z.s 			page 64


DEFINED SYMBOLS
                            *ABS*:0000000000000000 chcore_v7m.c
     /tmp/ccEgXP7Z.s:18     .text.port_lock:0000000000000000 $t
     /tmp/ccEgXP7Z.s:25     .text.port_lock:0000000000000000 port_lock
     /tmp/ccEgXP7Z.s:60     .text.port_unlock:0000000000000000 $t
     /tmp/ccEgXP7Z.s:67     .text.port_unlock:0000000000000000 port_unlock
     /tmp/ccEgXP7Z.s:100    .text.port_lock_from_isr:0000000000000000 $t
     /tmp/ccEgXP7Z.s:107    .text.port_lock_from_isr:0000000000000000 port_lock_from_isr
     /tmp/ccEgXP7Z.s:126    .text.port_unlock_from_isr:0000000000000000 $t
     /tmp/ccEgXP7Z.s:133    .text.port_unlock_from_isr:0000000000000000 port_unlock_from_isr
     /tmp/ccEgXP7Z.s:152    .text.SVC_Handler:0000000000000000 $t
     /tmp/ccEgXP7Z.s:160    .text.SVC_Handler:0000000000000000 SVC_Handler
     /tmp/ccEgXP7Z.s:232    .text.SVC_Handler:0000000000000038 $d
     /tmp/ccEgXP7Z.s:237    .text._port_irq_epilogue:0000000000000000 $t
     /tmp/ccEgXP7Z.s:245    .text._port_irq_epilogue:0000000000000000 _port_irq_epilogue
     /tmp/ccEgXP7Z.s:363    .text._port_irq_epilogue:000000000000006c $d
                     .debug_frame:0000000000000010 $d

UNDEFINED SYMBOLS
chSchIsPreemptionRequired
_port_switch_from_isr
_port_exit_from_isr
