ARM GAS  /tmp/ccPngymc.s 			page 1


   1              		.cpu cortex-m4
   2              		.eabi_attribute 27, 1
   3              		.eabi_attribute 28, 1
   4              		.eabi_attribute 20, 1
   5              		.eabi_attribute 21, 1
   6              		.eabi_attribute 23, 3
   7              		.eabi_attribute 24, 1
   8              		.eabi_attribute 25, 1
   9              		.eabi_attribute 26, 1
  10              		.eabi_attribute 30, 6
  11              		.eabi_attribute 34, 1
  12              		.eabi_attribute 18, 4
  13              		.file	"chmboxes.c"
  14              		.text
  15              	.Ltext0:
  16              		.cfi_sections	.debug_frame
  17              		.section	.text.port_lock,"ax",%progbits
  18              		.align	1
  19              		.p2align 4,,15
  20              		.syntax unified
  21              		.thumb
  22              		.thumb_func
  23              		.fpu fpv4-sp-d16
  24              		.type	port_lock, %function
  25              	port_lock:
  26              	.LFB127:
  27              		.file 1 "../ChibiOS/os/rt/ports/ARMCMx/chcore_v7m.h"
  28              		.loc 1 456 0
  29              		.cfi_startproc
  30              		@ args = 0, pretend = 0, frame = 8
  31              		@ frame_needed = 0, uses_anonymous_args = 0
  32              		@ link register save eliminated.
  33 0000 82B0     		sub	sp, sp, #8
  34              		.cfi_def_cfa_offset 8
  35 0002 2023     		movs	r3, #32
  36 0004 0193     		str	r3, [sp, #4]
  37              	.LBB6:
  38              	.LBB7:
  39              		.file 2 "../ChibiOS/os/ext/CMSIS/include/core_cmFunc.h"
  40              		.loc 2 548 0
  41 0006 019B     		ldr	r3, [sp, #4]
  42              		.syntax unified
  43              	@ 548 "../ChibiOS/os/ext/CMSIS/include/core_cmFunc.h" 1
  44 0008 83F31188 		MSR basepri, r3
  45              	@ 0 "" 2
  46              		.thumb
  47              		.syntax unified
  48              	.LBE7:
  49              	.LBE6:
  50              		.loc 1 473 0
  51 000c 00BF     		nop
  52 000e 02B0     		add	sp, sp, #8
  53              		.cfi_def_cfa_offset 0
  54              		@ sp needed
  55 0010 7047     		bx	lr
  56              		.cfi_endproc
  57              	.LFE127:
ARM GAS  /tmp/ccPngymc.s 			page 2


  58              		.size	port_lock, .-port_lock
  59 0012 00BF     		.section	.text.port_unlock,"ax",%progbits
  60              		.align	1
  61              		.p2align 4,,15
  62              		.syntax unified
  63              		.thumb
  64              		.thumb_func
  65              		.fpu fpv4-sp-d16
  66              		.type	port_unlock, %function
  67              	port_unlock:
  68              	.LFB128:
  69              		.loc 1 480 0
  70              		.cfi_startproc
  71              		@ args = 0, pretend = 0, frame = 8
  72              		@ frame_needed = 0, uses_anonymous_args = 0
  73              		@ link register save eliminated.
  74 0000 82B0     		sub	sp, sp, #8
  75              		.cfi_def_cfa_offset 8
  76 0002 0023     		movs	r3, #0
  77 0004 0193     		str	r3, [sp, #4]
  78              	.LBB8:
  79              	.LBB9:
  80              		.loc 2 548 0
  81 0006 019B     		ldr	r3, [sp, #4]
  82              		.syntax unified
  83              	@ 548 "../ChibiOS/os/ext/CMSIS/include/core_cmFunc.h" 1
  84 0008 83F31188 		MSR basepri, r3
  85              	@ 0 "" 2
  86              		.thumb
  87              		.syntax unified
  88              	.LBE9:
  89              	.LBE8:
  90              		.loc 1 487 0
  91 000c 00BF     		nop
  92 000e 02B0     		add	sp, sp, #8
  93              		.cfi_def_cfa_offset 0
  94              		@ sp needed
  95 0010 7047     		bx	lr
  96              		.cfi_endproc
  97              	.LFE128:
  98              		.size	port_unlock, .-port_unlock
  99 0012 00BF     		.section	.text.queue_init,"ax",%progbits
 100              		.align	1
 101              		.p2align 4,,15
 102              		.syntax unified
 103              		.thumb
 104              		.thumb_func
 105              		.fpu fpv4-sp-d16
 106              		.type	queue_init, %function
 107              	queue_init:
 108              	.LFB139:
 109              		.file 3 "../ChibiOS/os/rt/include/chschd.h"
 110              		.loc 3 602 0
 111              		.cfi_startproc
 112              		@ args = 0, pretend = 0, frame = 8
 113              		@ frame_needed = 0, uses_anonymous_args = 0
 114              		@ link register save eliminated.
ARM GAS  /tmp/ccPngymc.s 			page 3


 115 0000 82B0     		sub	sp, sp, #8
 116              		.cfi_def_cfa_offset 8
 117 0002 0190     		str	r0, [sp, #4]
 118              		.loc 3 604 0
 119 0004 019B     		ldr	r3, [sp, #4]
 120 0006 019A     		ldr	r2, [sp, #4]
 121 0008 1A60     		str	r2, [r3]
 122              		.loc 3 605 0
 123 000a 019B     		ldr	r3, [sp, #4]
 124 000c 019A     		ldr	r2, [sp, #4]
 125 000e 5A60     		str	r2, [r3, #4]
 126              		.loc 3 606 0
 127 0010 00BF     		nop
 128 0012 02B0     		add	sp, sp, #8
 129              		.cfi_def_cfa_offset 0
 130              		@ sp needed
 131 0014 7047     		bx	lr
 132              		.cfi_endproc
 133              	.LFE139:
 134              		.size	queue_init, .-queue_init
 135              		.section	.text.chSysLock,"ax",%progbits
 136              		.align	1
 137              		.p2align 4,,15
 138              		.syntax unified
 139              		.thumb
 140              		.thumb_func
 141              		.fpu fpv4-sp-d16
 142              		.type	chSysLock, %function
 143              	chSysLock:
 144              	.LFB156:
 145              		.file 4 "../ChibiOS/os/rt/include/chsys.h"
 146              		.loc 4 346 0
 147              		.cfi_startproc
 148              		@ args = 0, pretend = 0, frame = 0
 149              		@ frame_needed = 0, uses_anonymous_args = 0
 150 0000 08B5     		push	{r3, lr}
 151              		.cfi_def_cfa_offset 8
 152              		.cfi_offset 3, -8
 153              		.cfi_offset 14, -4
 154              		.loc 4 348 0
 155 0002 FFF7FEFF 		bl	port_lock
 156              		.loc 4 349 0
 157 0006 FFF7FEFF 		bl	_stats_start_measure_crit_thd
 158              		.loc 4 350 0
 159 000a FFF7FEFF 		bl	_dbg_check_lock
 160              		.loc 4 351 0
 161 000e 00BF     		nop
 162 0010 08BD     		pop	{r3, pc}
 163              		.cfi_endproc
 164              	.LFE156:
 165              		.size	chSysLock, .-chSysLock
 166 0012 00BF     		.section	.text.chSysUnlock,"ax",%progbits
 167              		.align	1
 168              		.p2align 4,,15
 169              		.syntax unified
 170              		.thumb
 171              		.thumb_func
ARM GAS  /tmp/ccPngymc.s 			page 4


 172              		.fpu fpv4-sp-d16
 173              		.type	chSysUnlock, %function
 174              	chSysUnlock:
 175              	.LFB157:
 176              		.loc 4 358 0
 177              		.cfi_startproc
 178              		@ args = 0, pretend = 0, frame = 0
 179              		@ frame_needed = 0, uses_anonymous_args = 0
 180 0000 08B5     		push	{r3, lr}
 181              		.cfi_def_cfa_offset 8
 182              		.cfi_offset 3, -8
 183              		.cfi_offset 14, -4
 184              		.loc 4 360 0
 185 0002 FFF7FEFF 		bl	_dbg_check_unlock
 186              		.loc 4 361 0
 187 0006 FFF7FEFF 		bl	_stats_stop_measure_crit_thd
 188              		.loc 4 367 0
 189 000a 0A4B     		ldr	r3, .L7
 190 000c 1B68     		ldr	r3, [r3]
 191 000e 094A     		ldr	r2, .L7
 192 0010 9342     		cmp	r3, r2
 193 0012 0AD0     		beq	.L6
 194              		.loc 4 367 0 is_stmt 0 discriminator 2
 195 0014 074B     		ldr	r3, .L7
 196 0016 9B69     		ldr	r3, [r3, #24]
 197 0018 9A68     		ldr	r2, [r3, #8]
 198 001a 064B     		ldr	r3, .L7
 199 001c 1B68     		ldr	r3, [r3]
 200 001e 9B68     		ldr	r3, [r3, #8]
 201 0020 9A42     		cmp	r2, r3
 202 0022 02D2     		bcs	.L6
 203              		.loc 4 367 0 discriminator 3
 204 0024 0448     		ldr	r0, .L7+4
 205 0026 FFF7FEFF 		bl	chSysHalt
 206              	.L6:
 207              		.loc 4 371 0 is_stmt 1
 208 002a FFF7FEFF 		bl	port_unlock
 209              		.loc 4 372 0
 210 002e 00BF     		nop
 211 0030 08BD     		pop	{r3, pc}
 212              	.L8:
 213 0032 00BF     		.align	2
 214              	.L7:
 215 0034 00000000 		.word	ch
 216 0038 00000000 		.word	__func__.7157
 217              		.cfi_endproc
 218              	.LFE157:
 219              		.size	chSysUnlock, .-chSysUnlock
 220              		.section	.text.chThdQueueObjectInit,"ax",%progbits
 221              		.align	1
 222              		.p2align 4,,15
 223              		.syntax unified
 224              		.thumb
 225              		.thumb_func
 226              		.fpu fpv4-sp-d16
 227              		.type	chThdQueueObjectInit, %function
 228              	chThdQueueObjectInit:
ARM GAS  /tmp/ccPngymc.s 			page 5


 229              	.LFB184:
 230              		.file 5 "../ChibiOS/os/rt/include/chthreads.h"
 231              		.loc 5 278 0
 232              		.cfi_startproc
 233              		@ args = 0, pretend = 0, frame = 8
 234              		@ frame_needed = 0, uses_anonymous_args = 0
 235 0000 00B5     		push	{lr}
 236              		.cfi_def_cfa_offset 4
 237              		.cfi_offset 14, -4
 238 0002 83B0     		sub	sp, sp, #12
 239              		.cfi_def_cfa_offset 16
 240 0004 0190     		str	r0, [sp, #4]
 241              		.loc 5 280 0
 242 0006 0198     		ldr	r0, [sp, #4]
 243 0008 FFF7FEFF 		bl	queue_init
 244              		.loc 5 281 0
 245 000c 00BF     		nop
 246 000e 03B0     		add	sp, sp, #12
 247              		.cfi_def_cfa_offset 4
 248              		@ sp needed
 249 0010 5DF804FB 		ldr	pc, [sp], #4
 250              		.cfi_endproc
 251              	.LFE184:
 252              		.size	chThdQueueObjectInit, .-chThdQueueObjectInit
 253              		.section	.text.chMBGetSizeI,"ax",%progbits
 254              		.align	1
 255              		.p2align 4,,15
 256              		.syntax unified
 257              		.thumb
 258              		.thumb_func
 259              		.fpu fpv4-sp-d16
 260              		.type	chMBGetSizeI, %function
 261              	chMBGetSizeI:
 262              	.LFB214:
 263              		.file 6 "../ChibiOS/os/rt/include/chmboxes.h"
 264              		.loc 6 136 0
 265              		.cfi_startproc
 266              		@ args = 0, pretend = 0, frame = 8
 267              		@ frame_needed = 0, uses_anonymous_args = 0
 268              		@ link register save eliminated.
 269 0000 82B0     		sub	sp, sp, #8
 270              		.cfi_def_cfa_offset 8
 271 0002 0190     		str	r0, [sp, #4]
 272              		.loc 6 140 0
 273 0004 019B     		ldr	r3, [sp, #4]
 274 0006 5B68     		ldr	r3, [r3, #4]
 275 0008 1A46     		mov	r2, r3
 276 000a 019B     		ldr	r3, [sp, #4]
 277 000c 1B68     		ldr	r3, [r3]
 278 000e D31A     		subs	r3, r2, r3
 279 0010 9B10     		asrs	r3, r3, #2
 280              		.loc 6 142 0
 281 0012 1846     		mov	r0, r3
 282 0014 02B0     		add	sp, sp, #8
 283              		.cfi_def_cfa_offset 0
 284              		@ sp needed
 285 0016 7047     		bx	lr
ARM GAS  /tmp/ccPngymc.s 			page 6


 286              		.cfi_endproc
 287              	.LFE214:
 288              		.size	chMBGetSizeI, .-chMBGetSizeI
 289              		.section	.text.chMBGetUsedCountI,"ax",%progbits
 290              		.align	1
 291              		.p2align 4,,15
 292              		.syntax unified
 293              		.thumb
 294              		.thumb_func
 295              		.fpu fpv4-sp-d16
 296              		.type	chMBGetUsedCountI, %function
 297              	chMBGetUsedCountI:
 298              	.LFB215:
 299              		.loc 6 153 0
 300              		.cfi_startproc
 301              		@ args = 0, pretend = 0, frame = 8
 302              		@ frame_needed = 0, uses_anonymous_args = 0
 303 0000 00B5     		push	{lr}
 304              		.cfi_def_cfa_offset 4
 305              		.cfi_offset 14, -4
 306 0002 83B0     		sub	sp, sp, #12
 307              		.cfi_def_cfa_offset 16
 308 0004 0190     		str	r0, [sp, #4]
 309              		.loc 6 155 0
 310 0006 FFF7FEFF 		bl	chDbgCheckClassI
 311              		.loc 6 157 0
 312 000a 019B     		ldr	r3, [sp, #4]
 313 000c 1B69     		ldr	r3, [r3, #16]
 314              		.loc 6 158 0
 315 000e 1846     		mov	r0, r3
 316 0010 03B0     		add	sp, sp, #12
 317              		.cfi_def_cfa_offset 4
 318              		@ sp needed
 319 0012 5DF804FB 		ldr	pc, [sp], #4
 320              		.cfi_endproc
 321              	.LFE215:
 322              		.size	chMBGetUsedCountI, .-chMBGetUsedCountI
 323 0016 00BF     		.section	.text.chMBGetFreeCountI,"ax",%progbits
 324              		.align	1
 325              		.p2align 4,,15
 326              		.syntax unified
 327              		.thumb
 328              		.thumb_func
 329              		.fpu fpv4-sp-d16
 330              		.type	chMBGetFreeCountI, %function
 331              	chMBGetFreeCountI:
 332              	.LFB216:
 333              		.loc 6 168 0
 334              		.cfi_startproc
 335              		@ args = 0, pretend = 0, frame = 8
 336              		@ frame_needed = 0, uses_anonymous_args = 0
 337 0000 10B5     		push	{r4, lr}
 338              		.cfi_def_cfa_offset 8
 339              		.cfi_offset 4, -8
 340              		.cfi_offset 14, -4
 341 0002 82B0     		sub	sp, sp, #8
 342              		.cfi_def_cfa_offset 16
ARM GAS  /tmp/ccPngymc.s 			page 7


 343 0004 0190     		str	r0, [sp, #4]
 344              		.loc 6 170 0
 345 0006 FFF7FEFF 		bl	chDbgCheckClassI
 346              		.loc 6 172 0
 347 000a 0198     		ldr	r0, [sp, #4]
 348 000c FFF7FEFF 		bl	chMBGetSizeI
 349 0010 0446     		mov	r4, r0
 350 0012 0198     		ldr	r0, [sp, #4]
 351 0014 FFF7FEFF 		bl	chMBGetUsedCountI
 352 0018 0346     		mov	r3, r0
 353 001a E31A     		subs	r3, r4, r3
 354              		.loc 6 173 0
 355 001c 1846     		mov	r0, r3
 356 001e 02B0     		add	sp, sp, #8
 357              		.cfi_def_cfa_offset 8
 358              		@ sp needed
 359 0020 10BD     		pop	{r4, pc}
 360              		.cfi_endproc
 361              	.LFE216:
 362              		.size	chMBGetFreeCountI, .-chMBGetFreeCountI
 363 0022 00BF     		.section	.text.chMBObjectInit,"ax",%progbits
 364              		.align	1
 365              		.p2align 4,,15
 366              		.global	chMBObjectInit
 367              		.syntax unified
 368              		.thumb
 369              		.thumb_func
 370              		.fpu fpv4-sp-d16
 371              		.type	chMBObjectInit, %function
 372              	chMBObjectInit:
 373              	.LFB231:
 374              		.file 7 "../ChibiOS/os/rt/src/chmboxes.c"
 375              		.loc 7 86 0
 376              		.cfi_startproc
 377              		@ args = 0, pretend = 0, frame = 16
 378              		@ frame_needed = 0, uses_anonymous_args = 0
 379 0000 00B5     		push	{lr}
 380              		.cfi_def_cfa_offset 4
 381              		.cfi_offset 14, -4
 382 0002 85B0     		sub	sp, sp, #20
 383              		.cfi_def_cfa_offset 24
 384 0004 0390     		str	r0, [sp, #12]
 385 0006 0291     		str	r1, [sp, #8]
 386 0008 0192     		str	r2, [sp, #4]
 387              		.loc 7 88 0
 388 000a 039B     		ldr	r3, [sp, #12]
 389 000c 002B     		cmp	r3, #0
 390 000e 05D0     		beq	.L17
 391              		.loc 7 88 0 is_stmt 0 discriminator 3
 392 0010 029B     		ldr	r3, [sp, #8]
 393 0012 002B     		cmp	r3, #0
 394 0014 02D0     		beq	.L17
 395              		.loc 7 88 0 discriminator 5
 396 0016 019B     		ldr	r3, [sp, #4]
 397 0018 002B     		cmp	r3, #0
 398 001a 02DC     		bgt	.L18
 399              	.L17:
ARM GAS  /tmp/ccPngymc.s 			page 8


 400              		.loc 7 88 0 discriminator 6
 401 001c 1248     		ldr	r0, .L19
 402 001e FFF7FEFF 		bl	chSysHalt
 403              	.L18:
 404              		.loc 7 90 0 is_stmt 1
 405 0022 039B     		ldr	r3, [sp, #12]
 406 0024 029A     		ldr	r2, [sp, #8]
 407 0026 1A60     		str	r2, [r3]
 408              		.loc 7 91 0
 409 0028 039B     		ldr	r3, [sp, #12]
 410 002a 029A     		ldr	r2, [sp, #8]
 411 002c DA60     		str	r2, [r3, #12]
 412              		.loc 7 92 0
 413 002e 039B     		ldr	r3, [sp, #12]
 414 0030 029A     		ldr	r2, [sp, #8]
 415 0032 9A60     		str	r2, [r3, #8]
 416              		.loc 7 93 0
 417 0034 019B     		ldr	r3, [sp, #4]
 418 0036 9B00     		lsls	r3, r3, #2
 419 0038 029A     		ldr	r2, [sp, #8]
 420 003a 1A44     		add	r2, r2, r3
 421 003c 039B     		ldr	r3, [sp, #12]
 422 003e 5A60     		str	r2, [r3, #4]
 423              		.loc 7 94 0
 424 0040 039B     		ldr	r3, [sp, #12]
 425 0042 0022     		movs	r2, #0
 426 0044 1A61     		str	r2, [r3, #16]
 427              		.loc 7 95 0
 428 0046 039B     		ldr	r3, [sp, #12]
 429 0048 0022     		movs	r2, #0
 430 004a 1A75     		strb	r2, [r3, #20]
 431              		.loc 7 96 0
 432 004c 039B     		ldr	r3, [sp, #12]
 433 004e 1833     		adds	r3, r3, #24
 434 0050 1846     		mov	r0, r3
 435 0052 FFF7FEFF 		bl	chThdQueueObjectInit
 436              		.loc 7 97 0
 437 0056 039B     		ldr	r3, [sp, #12]
 438 0058 2033     		adds	r3, r3, #32
 439 005a 1846     		mov	r0, r3
 440 005c FFF7FEFF 		bl	chThdQueueObjectInit
 441              		.loc 7 98 0
 442 0060 00BF     		nop
 443 0062 05B0     		add	sp, sp, #20
 444              		.cfi_def_cfa_offset 4
 445              		@ sp needed
 446 0064 5DF804FB 		ldr	pc, [sp], #4
 447              	.L20:
 448              		.align	2
 449              	.L19:
 450 0068 00000000 		.word	__func__.7859
 451              		.cfi_endproc
 452              	.LFE231:
 453              		.size	chMBObjectInit, .-chMBObjectInit
 454              		.section	.text.chMBReset,"ax",%progbits
 455              		.align	1
 456              		.p2align 4,,15
ARM GAS  /tmp/ccPngymc.s 			page 9


 457              		.global	chMBReset
 458              		.syntax unified
 459              		.thumb
 460              		.thumb_func
 461              		.fpu fpv4-sp-d16
 462              		.type	chMBReset, %function
 463              	chMBReset:
 464              	.LFB232:
 465              		.loc 7 112 0
 466              		.cfi_startproc
 467              		@ args = 0, pretend = 0, frame = 8
 468              		@ frame_needed = 0, uses_anonymous_args = 0
 469 0000 00B5     		push	{lr}
 470              		.cfi_def_cfa_offset 4
 471              		.cfi_offset 14, -4
 472 0002 83B0     		sub	sp, sp, #12
 473              		.cfi_def_cfa_offset 16
 474 0004 0190     		str	r0, [sp, #4]
 475              		.loc 7 114 0
 476 0006 FFF7FEFF 		bl	chSysLock
 477              		.loc 7 115 0
 478 000a 0198     		ldr	r0, [sp, #4]
 479 000c FFF7FEFF 		bl	chMBResetI
 480              		.loc 7 116 0
 481 0010 FFF7FEFF 		bl	chSchRescheduleS
 482              		.loc 7 117 0
 483 0014 FFF7FEFF 		bl	chSysUnlock
 484              		.loc 7 118 0
 485 0018 00BF     		nop
 486 001a 03B0     		add	sp, sp, #12
 487              		.cfi_def_cfa_offset 4
 488              		@ sp needed
 489 001c 5DF804FB 		ldr	pc, [sp], #4
 490              		.cfi_endproc
 491              	.LFE232:
 492              		.size	chMBReset, .-chMBReset
 493              		.section	.text.chMBResetI,"ax",%progbits
 494              		.align	1
 495              		.p2align 4,,15
 496              		.global	chMBResetI
 497              		.syntax unified
 498              		.thumb
 499              		.thumb_func
 500              		.fpu fpv4-sp-d16
 501              		.type	chMBResetI, %function
 502              	chMBResetI:
 503              	.LFB233:
 504              		.loc 7 132 0
 505              		.cfi_startproc
 506              		@ args = 0, pretend = 0, frame = 8
 507              		@ frame_needed = 0, uses_anonymous_args = 0
 508 0000 00B5     		push	{lr}
 509              		.cfi_def_cfa_offset 4
 510              		.cfi_offset 14, -4
 511 0002 83B0     		sub	sp, sp, #12
 512              		.cfi_def_cfa_offset 16
 513 0004 0190     		str	r0, [sp, #4]
ARM GAS  /tmp/ccPngymc.s 			page 10


 514              		.loc 7 134 0
 515 0006 FFF7FEFF 		bl	chDbgCheckClassI
 516              		.loc 7 135 0
 517 000a 019B     		ldr	r3, [sp, #4]
 518 000c 002B     		cmp	r3, #0
 519 000e 02D1     		bne	.L23
 520              		.loc 7 135 0 is_stmt 0 discriminator 2
 521 0010 1148     		ldr	r0, .L24
 522 0012 FFF7FEFF 		bl	chSysHalt
 523              	.L23:
 524              		.loc 7 137 0 is_stmt 1
 525 0016 019B     		ldr	r3, [sp, #4]
 526 0018 1A68     		ldr	r2, [r3]
 527 001a 019B     		ldr	r3, [sp, #4]
 528 001c 9A60     		str	r2, [r3, #8]
 529              		.loc 7 138 0
 530 001e 019B     		ldr	r3, [sp, #4]
 531 0020 1A68     		ldr	r2, [r3]
 532 0022 019B     		ldr	r3, [sp, #4]
 533 0024 DA60     		str	r2, [r3, #12]
 534              		.loc 7 139 0
 535 0026 019B     		ldr	r3, [sp, #4]
 536 0028 0022     		movs	r2, #0
 537 002a 1A61     		str	r2, [r3, #16]
 538              		.loc 7 140 0
 539 002c 019B     		ldr	r3, [sp, #4]
 540 002e 0122     		movs	r2, #1
 541 0030 1A75     		strb	r2, [r3, #20]
 542              		.loc 7 141 0
 543 0032 019B     		ldr	r3, [sp, #4]
 544 0034 1833     		adds	r3, r3, #24
 545 0036 6FF00101 		mvn	r1, #1
 546 003a 1846     		mov	r0, r3
 547 003c FFF7FEFF 		bl	chThdDequeueAllI
 548              		.loc 7 142 0
 549 0040 019B     		ldr	r3, [sp, #4]
 550 0042 2033     		adds	r3, r3, #32
 551 0044 6FF00101 		mvn	r1, #1
 552 0048 1846     		mov	r0, r3
 553 004a FFF7FEFF 		bl	chThdDequeueAllI
 554              		.loc 7 143 0
 555 004e 00BF     		nop
 556 0050 03B0     		add	sp, sp, #12
 557              		.cfi_def_cfa_offset 4
 558              		@ sp needed
 559 0052 5DF804FB 		ldr	pc, [sp], #4
 560              	.L25:
 561 0056 00BF     		.align	2
 562              	.L24:
 563 0058 00000000 		.word	__func__.7866
 564              		.cfi_endproc
 565              	.LFE233:
 566              		.size	chMBResetI, .-chMBResetI
 567              		.section	.text.chMBPost,"ax",%progbits
 568              		.align	1
 569              		.p2align 4,,15
 570              		.global	chMBPost
ARM GAS  /tmp/ccPngymc.s 			page 11


 571              		.syntax unified
 572              		.thumb
 573              		.thumb_func
 574              		.fpu fpv4-sp-d16
 575              		.type	chMBPost, %function
 576              	chMBPost:
 577              	.LFB234:
 578              		.loc 7 164 0
 579              		.cfi_startproc
 580              		@ args = 0, pretend = 0, frame = 24
 581              		@ frame_needed = 0, uses_anonymous_args = 0
 582 0000 00B5     		push	{lr}
 583              		.cfi_def_cfa_offset 4
 584              		.cfi_offset 14, -4
 585 0002 87B0     		sub	sp, sp, #28
 586              		.cfi_def_cfa_offset 32
 587 0004 0390     		str	r0, [sp, #12]
 588 0006 0291     		str	r1, [sp, #8]
 589 0008 0192     		str	r2, [sp, #4]
 590              		.loc 7 167 0
 591 000a FFF7FEFF 		bl	chSysLock
 592              		.loc 7 168 0
 593 000e 019A     		ldr	r2, [sp, #4]
 594 0010 0299     		ldr	r1, [sp, #8]
 595 0012 0398     		ldr	r0, [sp, #12]
 596 0014 FFF7FEFF 		bl	chMBPostS
 597 0018 0590     		str	r0, [sp, #20]
 598              		.loc 7 169 0
 599 001a FFF7FEFF 		bl	chSysUnlock
 600              		.loc 7 171 0
 601 001e 059B     		ldr	r3, [sp, #20]
 602              		.loc 7 172 0
 603 0020 1846     		mov	r0, r3
 604 0022 07B0     		add	sp, sp, #28
 605              		.cfi_def_cfa_offset 4
 606              		@ sp needed
 607 0024 5DF804FB 		ldr	pc, [sp], #4
 608              		.cfi_endproc
 609              	.LFE234:
 610              		.size	chMBPost, .-chMBPost
 611              		.section	.text.chMBPostS,"ax",%progbits
 612              		.align	1
 613              		.p2align 4,,15
 614              		.global	chMBPostS
 615              		.syntax unified
 616              		.thumb
 617              		.thumb_func
 618              		.fpu fpv4-sp-d16
 619              		.type	chMBPostS, %function
 620              	chMBPostS:
 621              	.LFB235:
 622              		.loc 7 193 0
 623              		.cfi_startproc
 624              		@ args = 0, pretend = 0, frame = 24
 625              		@ frame_needed = 0, uses_anonymous_args = 0
 626 0000 00B5     		push	{lr}
 627              		.cfi_def_cfa_offset 4
ARM GAS  /tmp/ccPngymc.s 			page 12


 628              		.cfi_offset 14, -4
 629 0002 87B0     		sub	sp, sp, #28
 630              		.cfi_def_cfa_offset 32
 631 0004 0390     		str	r0, [sp, #12]
 632 0006 0291     		str	r1, [sp, #8]
 633 0008 0192     		str	r2, [sp, #4]
 634              		.loc 7 196 0
 635 000a FFF7FEFF 		bl	chDbgCheckClassS
 636              		.loc 7 197 0
 637 000e 039B     		ldr	r3, [sp, #12]
 638 0010 002B     		cmp	r3, #0
 639 0012 02D1     		bne	.L29
 640              		.loc 7 197 0 is_stmt 0 discriminator 2
 641 0014 1F48     		ldr	r0, .L34
 642 0016 FFF7FEFF 		bl	chSysHalt
 643              	.L29:
 644              		.loc 7 201 0 is_stmt 1
 645 001a 039B     		ldr	r3, [sp, #12]
 646 001c 1B7D     		ldrb	r3, [r3, #20]	@ zero_extendqisi2
 647 001e 002B     		cmp	r3, #0
 648 0020 02D0     		beq	.L30
 649              		.loc 7 202 0
 650 0022 6FF00103 		mvn	r3, #1
 651 0026 30E0     		b	.L31
 652              	.L30:
 653              		.loc 7 206 0
 654 0028 0398     		ldr	r0, [sp, #12]
 655 002a FFF7FEFF 		bl	chMBGetFreeCountI
 656 002e 0346     		mov	r3, r0
 657 0030 002B     		cmp	r3, #0
 658 0032 1FDD     		ble	.L32
 659              		.loc 7 207 0
 660 0034 039B     		ldr	r3, [sp, #12]
 661 0036 9B68     		ldr	r3, [r3, #8]
 662 0038 191D     		adds	r1, r3, #4
 663 003a 039A     		ldr	r2, [sp, #12]
 664 003c 9160     		str	r1, [r2, #8]
 665 003e 029A     		ldr	r2, [sp, #8]
 666 0040 1A60     		str	r2, [r3]
 667              		.loc 7 208 0
 668 0042 039B     		ldr	r3, [sp, #12]
 669 0044 9A68     		ldr	r2, [r3, #8]
 670 0046 039B     		ldr	r3, [sp, #12]
 671 0048 5B68     		ldr	r3, [r3, #4]
 672 004a 9A42     		cmp	r2, r3
 673 004c 03D3     		bcc	.L33
 674              		.loc 7 209 0
 675 004e 039B     		ldr	r3, [sp, #12]
 676 0050 1A68     		ldr	r2, [r3]
 677 0052 039B     		ldr	r3, [sp, #12]
 678 0054 9A60     		str	r2, [r3, #8]
 679              	.L33:
 680              		.loc 7 211 0
 681 0056 039B     		ldr	r3, [sp, #12]
 682 0058 1B69     		ldr	r3, [r3, #16]
 683 005a 5A1C     		adds	r2, r3, #1
 684 005c 039B     		ldr	r3, [sp, #12]
ARM GAS  /tmp/ccPngymc.s 			page 13


 685 005e 1A61     		str	r2, [r3, #16]
 686              		.loc 7 214 0
 687 0060 039B     		ldr	r3, [sp, #12]
 688 0062 2033     		adds	r3, r3, #32
 689 0064 0021     		movs	r1, #0
 690 0066 1846     		mov	r0, r3
 691 0068 FFF7FEFF 		bl	chThdDequeueNextI
 692              		.loc 7 215 0
 693 006c FFF7FEFF 		bl	chSchRescheduleS
 694              		.loc 7 217 0
 695 0070 0023     		movs	r3, #0
 696 0072 0AE0     		b	.L31
 697              	.L32:
 698              		.loc 7 221 0
 699 0074 039B     		ldr	r3, [sp, #12]
 700 0076 1833     		adds	r3, r3, #24
 701 0078 0199     		ldr	r1, [sp, #4]
 702 007a 1846     		mov	r0, r3
 703 007c FFF7FEFF 		bl	chThdEnqueueTimeoutS
 704 0080 0590     		str	r0, [sp, #20]
 705              		.loc 7 222 0
 706 0082 059B     		ldr	r3, [sp, #20]
 707 0084 002B     		cmp	r3, #0
 708 0086 C8D0     		beq	.L29
 709              		.loc 7 224 0
 710 0088 059B     		ldr	r3, [sp, #20]
 711              	.L31:
 712              		.loc 7 225 0
 713 008a 1846     		mov	r0, r3
 714 008c 07B0     		add	sp, sp, #28
 715              		.cfi_def_cfa_offset 4
 716              		@ sp needed
 717 008e 5DF804FB 		ldr	pc, [sp], #4
 718              	.L35:
 719 0092 00BF     		.align	2
 720              	.L34:
 721 0094 00000000 		.word	__func__.7879
 722              		.cfi_endproc
 723              	.LFE235:
 724              		.size	chMBPostS, .-chMBPostS
 725              		.section	.text.chMBPostI,"ax",%progbits
 726              		.align	1
 727              		.p2align 4,,15
 728              		.global	chMBPostI
 729              		.syntax unified
 730              		.thumb
 731              		.thumb_func
 732              		.fpu fpv4-sp-d16
 733              		.type	chMBPostI, %function
 734              	chMBPostI:
 735              	.LFB236:
 736              		.loc 7 242 0
 737              		.cfi_startproc
 738              		@ args = 0, pretend = 0, frame = 8
 739              		@ frame_needed = 0, uses_anonymous_args = 0
 740 0000 00B5     		push	{lr}
 741              		.cfi_def_cfa_offset 4
ARM GAS  /tmp/ccPngymc.s 			page 14


 742              		.cfi_offset 14, -4
 743 0002 83B0     		sub	sp, sp, #12
 744              		.cfi_def_cfa_offset 16
 745 0004 0190     		str	r0, [sp, #4]
 746 0006 0091     		str	r1, [sp]
 747              		.loc 7 244 0
 748 0008 FFF7FEFF 		bl	chDbgCheckClassI
 749              		.loc 7 245 0
 750 000c 019B     		ldr	r3, [sp, #4]
 751 000e 002B     		cmp	r3, #0
 752 0010 02D1     		bne	.L37
 753              		.loc 7 245 0 is_stmt 0 discriminator 2
 754 0012 1A48     		ldr	r0, .L42
 755 0014 FFF7FEFF 		bl	chSysHalt
 756              	.L37:
 757              		.loc 7 248 0 is_stmt 1
 758 0018 019B     		ldr	r3, [sp, #4]
 759 001a 1B7D     		ldrb	r3, [r3, #20]	@ zero_extendqisi2
 760 001c 002B     		cmp	r3, #0
 761 001e 02D0     		beq	.L38
 762              		.loc 7 249 0
 763 0020 6FF00103 		mvn	r3, #1
 764 0024 25E0     		b	.L39
 765              	.L38:
 766              		.loc 7 253 0
 767 0026 0198     		ldr	r0, [sp, #4]
 768 0028 FFF7FEFF 		bl	chMBGetFreeCountI
 769 002c 0346     		mov	r3, r0
 770 002e 002B     		cmp	r3, #0
 771 0030 1DDD     		ble	.L40
 772              		.loc 7 254 0
 773 0032 019B     		ldr	r3, [sp, #4]
 774 0034 9B68     		ldr	r3, [r3, #8]
 775 0036 191D     		adds	r1, r3, #4
 776 0038 019A     		ldr	r2, [sp, #4]
 777 003a 9160     		str	r1, [r2, #8]
 778 003c 009A     		ldr	r2, [sp]
 779 003e 1A60     		str	r2, [r3]
 780              		.loc 7 255 0
 781 0040 019B     		ldr	r3, [sp, #4]
 782 0042 9A68     		ldr	r2, [r3, #8]
 783 0044 019B     		ldr	r3, [sp, #4]
 784 0046 5B68     		ldr	r3, [r3, #4]
 785 0048 9A42     		cmp	r2, r3
 786 004a 03D3     		bcc	.L41
 787              		.loc 7 256 0
 788 004c 019B     		ldr	r3, [sp, #4]
 789 004e 1A68     		ldr	r2, [r3]
 790 0050 019B     		ldr	r3, [sp, #4]
 791 0052 9A60     		str	r2, [r3, #8]
 792              	.L41:
 793              		.loc 7 258 0
 794 0054 019B     		ldr	r3, [sp, #4]
 795 0056 1B69     		ldr	r3, [r3, #16]
 796 0058 5A1C     		adds	r2, r3, #1
 797 005a 019B     		ldr	r3, [sp, #4]
 798 005c 1A61     		str	r2, [r3, #16]
ARM GAS  /tmp/ccPngymc.s 			page 15


 799              		.loc 7 261 0
 800 005e 019B     		ldr	r3, [sp, #4]
 801 0060 2033     		adds	r3, r3, #32
 802 0062 0021     		movs	r1, #0
 803 0064 1846     		mov	r0, r3
 804 0066 FFF7FEFF 		bl	chThdDequeueNextI
 805              		.loc 7 263 0
 806 006a 0023     		movs	r3, #0
 807 006c 01E0     		b	.L39
 808              	.L40:
 809              		.loc 7 267 0
 810 006e 4FF0FF33 		mov	r3, #-1
 811              	.L39:
 812              		.loc 7 268 0
 813 0072 1846     		mov	r0, r3
 814 0074 03B0     		add	sp, sp, #12
 815              		.cfi_def_cfa_offset 4
 816              		@ sp needed
 817 0076 5DF804FB 		ldr	pc, [sp], #4
 818              	.L43:
 819 007a 00BF     		.align	2
 820              	.L42:
 821 007c 00000000 		.word	__func__.7886
 822              		.cfi_endproc
 823              	.LFE236:
 824              		.size	chMBPostI, .-chMBPostI
 825              		.section	.text.chMBPostAhead,"ax",%progbits
 826              		.align	1
 827              		.p2align 4,,15
 828              		.global	chMBPostAhead
 829              		.syntax unified
 830              		.thumb
 831              		.thumb_func
 832              		.fpu fpv4-sp-d16
 833              		.type	chMBPostAhead, %function
 834              	chMBPostAhead:
 835              	.LFB237:
 836              		.loc 7 289 0
 837              		.cfi_startproc
 838              		@ args = 0, pretend = 0, frame = 24
 839              		@ frame_needed = 0, uses_anonymous_args = 0
 840 0000 00B5     		push	{lr}
 841              		.cfi_def_cfa_offset 4
 842              		.cfi_offset 14, -4
 843 0002 87B0     		sub	sp, sp, #28
 844              		.cfi_def_cfa_offset 32
 845 0004 0390     		str	r0, [sp, #12]
 846 0006 0291     		str	r1, [sp, #8]
 847 0008 0192     		str	r2, [sp, #4]
 848              		.loc 7 292 0
 849 000a FFF7FEFF 		bl	chSysLock
 850              		.loc 7 293 0
 851 000e 019A     		ldr	r2, [sp, #4]
 852 0010 0299     		ldr	r1, [sp, #8]
 853 0012 0398     		ldr	r0, [sp, #12]
 854 0014 FFF7FEFF 		bl	chMBPostAheadS
 855 0018 0590     		str	r0, [sp, #20]
ARM GAS  /tmp/ccPngymc.s 			page 16


 856              		.loc 7 294 0
 857 001a FFF7FEFF 		bl	chSysUnlock
 858              		.loc 7 296 0
 859 001e 059B     		ldr	r3, [sp, #20]
 860              		.loc 7 297 0
 861 0020 1846     		mov	r0, r3
 862 0022 07B0     		add	sp, sp, #28
 863              		.cfi_def_cfa_offset 4
 864              		@ sp needed
 865 0024 5DF804FB 		ldr	pc, [sp], #4
 866              		.cfi_endproc
 867              	.LFE237:
 868              		.size	chMBPostAhead, .-chMBPostAhead
 869              		.section	.text.chMBPostAheadS,"ax",%progbits
 870              		.align	1
 871              		.p2align 4,,15
 872              		.global	chMBPostAheadS
 873              		.syntax unified
 874              		.thumb
 875              		.thumb_func
 876              		.fpu fpv4-sp-d16
 877              		.type	chMBPostAheadS, %function
 878              	chMBPostAheadS:
 879              	.LFB238:
 880              		.loc 7 318 0
 881              		.cfi_startproc
 882              		@ args = 0, pretend = 0, frame = 24
 883              		@ frame_needed = 0, uses_anonymous_args = 0
 884 0000 00B5     		push	{lr}
 885              		.cfi_def_cfa_offset 4
 886              		.cfi_offset 14, -4
 887 0002 87B0     		sub	sp, sp, #28
 888              		.cfi_def_cfa_offset 32
 889 0004 0390     		str	r0, [sp, #12]
 890 0006 0291     		str	r1, [sp, #8]
 891 0008 0192     		str	r2, [sp, #4]
 892              		.loc 7 321 0
 893 000a FFF7FEFF 		bl	chDbgCheckClassS
 894              		.loc 7 322 0
 895 000e 039B     		ldr	r3, [sp, #12]
 896 0010 002B     		cmp	r3, #0
 897 0012 02D1     		bne	.L47
 898              		.loc 7 322 0 is_stmt 0 discriminator 2
 899 0014 2048     		ldr	r0, .L52
 900 0016 FFF7FEFF 		bl	chSysHalt
 901              	.L47:
 902              		.loc 7 326 0 is_stmt 1
 903 001a 039B     		ldr	r3, [sp, #12]
 904 001c 1B7D     		ldrb	r3, [r3, #20]	@ zero_extendqisi2
 905 001e 002B     		cmp	r3, #0
 906 0020 02D0     		beq	.L48
 907              		.loc 7 327 0
 908 0022 6FF00103 		mvn	r3, #1
 909 0026 33E0     		b	.L49
 910              	.L48:
 911              		.loc 7 331 0
 912 0028 0398     		ldr	r0, [sp, #12]
ARM GAS  /tmp/ccPngymc.s 			page 17


 913 002a FFF7FEFF 		bl	chMBGetFreeCountI
 914 002e 0346     		mov	r3, r0
 915 0030 002B     		cmp	r3, #0
 916 0032 22DD     		ble	.L50
 917              		.loc 7 332 0
 918 0034 039B     		ldr	r3, [sp, #12]
 919 0036 DB68     		ldr	r3, [r3, #12]
 920 0038 1A1F     		subs	r2, r3, #4
 921 003a 039B     		ldr	r3, [sp, #12]
 922 003c DA60     		str	r2, [r3, #12]
 923 003e 039B     		ldr	r3, [sp, #12]
 924 0040 DA68     		ldr	r2, [r3, #12]
 925 0042 039B     		ldr	r3, [sp, #12]
 926 0044 1B68     		ldr	r3, [r3]
 927 0046 9A42     		cmp	r2, r3
 928 0048 04D2     		bcs	.L51
 929              		.loc 7 333 0
 930 004a 039B     		ldr	r3, [sp, #12]
 931 004c 5B68     		ldr	r3, [r3, #4]
 932 004e 1A1F     		subs	r2, r3, #4
 933 0050 039B     		ldr	r3, [sp, #12]
 934 0052 DA60     		str	r2, [r3, #12]
 935              	.L51:
 936              		.loc 7 335 0
 937 0054 039B     		ldr	r3, [sp, #12]
 938 0056 DB68     		ldr	r3, [r3, #12]
 939 0058 029A     		ldr	r2, [sp, #8]
 940 005a 1A60     		str	r2, [r3]
 941              		.loc 7 336 0
 942 005c 039B     		ldr	r3, [sp, #12]
 943 005e 1B69     		ldr	r3, [r3, #16]
 944 0060 5A1C     		adds	r2, r3, #1
 945 0062 039B     		ldr	r3, [sp, #12]
 946 0064 1A61     		str	r2, [r3, #16]
 947              		.loc 7 339 0
 948 0066 039B     		ldr	r3, [sp, #12]
 949 0068 2033     		adds	r3, r3, #32
 950 006a 0021     		movs	r1, #0
 951 006c 1846     		mov	r0, r3
 952 006e FFF7FEFF 		bl	chThdDequeueNextI
 953              		.loc 7 340 0
 954 0072 FFF7FEFF 		bl	chSchRescheduleS
 955              		.loc 7 342 0
 956 0076 0023     		movs	r3, #0
 957 0078 0AE0     		b	.L49
 958              	.L50:
 959              		.loc 7 346 0
 960 007a 039B     		ldr	r3, [sp, #12]
 961 007c 1833     		adds	r3, r3, #24
 962 007e 0199     		ldr	r1, [sp, #4]
 963 0080 1846     		mov	r0, r3
 964 0082 FFF7FEFF 		bl	chThdEnqueueTimeoutS
 965 0086 0590     		str	r0, [sp, #20]
 966              		.loc 7 347 0
 967 0088 059B     		ldr	r3, [sp, #20]
 968 008a 002B     		cmp	r3, #0
 969 008c C5D0     		beq	.L47
ARM GAS  /tmp/ccPngymc.s 			page 18


 970              		.loc 7 349 0
 971 008e 059B     		ldr	r3, [sp, #20]
 972              	.L49:
 973              		.loc 7 350 0
 974 0090 1846     		mov	r0, r3
 975 0092 07B0     		add	sp, sp, #28
 976              		.cfi_def_cfa_offset 4
 977              		@ sp needed
 978 0094 5DF804FB 		ldr	pc, [sp], #4
 979              	.L53:
 980              		.align	2
 981              	.L52:
 982 0098 00000000 		.word	__func__.7899
 983              		.cfi_endproc
 984              	.LFE238:
 985              		.size	chMBPostAheadS, .-chMBPostAheadS
 986              		.section	.text.chMBPostAheadI,"ax",%progbits
 987              		.align	1
 988              		.p2align 4,,15
 989              		.global	chMBPostAheadI
 990              		.syntax unified
 991              		.thumb
 992              		.thumb_func
 993              		.fpu fpv4-sp-d16
 994              		.type	chMBPostAheadI, %function
 995              	chMBPostAheadI:
 996              	.LFB239:
 997              		.loc 7 367 0
 998              		.cfi_startproc
 999              		@ args = 0, pretend = 0, frame = 8
 1000              		@ frame_needed = 0, uses_anonymous_args = 0
 1001 0000 00B5     		push	{lr}
 1002              		.cfi_def_cfa_offset 4
 1003              		.cfi_offset 14, -4
 1004 0002 83B0     		sub	sp, sp, #12
 1005              		.cfi_def_cfa_offset 16
 1006 0004 0190     		str	r0, [sp, #4]
 1007 0006 0091     		str	r1, [sp]
 1008              		.loc 7 369 0
 1009 0008 FFF7FEFF 		bl	chDbgCheckClassI
 1010              		.loc 7 370 0
 1011 000c 019B     		ldr	r3, [sp, #4]
 1012 000e 002B     		cmp	r3, #0
 1013 0010 02D1     		bne	.L55
 1014              		.loc 7 370 0 is_stmt 0 discriminator 2
 1015 0012 1B48     		ldr	r0, .L60
 1016 0014 FFF7FEFF 		bl	chSysHalt
 1017              	.L55:
 1018              		.loc 7 373 0 is_stmt 1
 1019 0018 019B     		ldr	r3, [sp, #4]
 1020 001a 1B7D     		ldrb	r3, [r3, #20]	@ zero_extendqisi2
 1021 001c 002B     		cmp	r3, #0
 1022 001e 02D0     		beq	.L56
 1023              		.loc 7 374 0
 1024 0020 6FF00103 		mvn	r3, #1
 1025 0024 28E0     		b	.L57
 1026              	.L56:
ARM GAS  /tmp/ccPngymc.s 			page 19


 1027              		.loc 7 378 0
 1028 0026 0198     		ldr	r0, [sp, #4]
 1029 0028 FFF7FEFF 		bl	chMBGetFreeCountI
 1030 002c 0346     		mov	r3, r0
 1031 002e 002B     		cmp	r3, #0
 1032 0030 20DD     		ble	.L58
 1033              		.loc 7 379 0
 1034 0032 019B     		ldr	r3, [sp, #4]
 1035 0034 DB68     		ldr	r3, [r3, #12]
 1036 0036 1A1F     		subs	r2, r3, #4
 1037 0038 019B     		ldr	r3, [sp, #4]
 1038 003a DA60     		str	r2, [r3, #12]
 1039 003c 019B     		ldr	r3, [sp, #4]
 1040 003e DA68     		ldr	r2, [r3, #12]
 1041 0040 019B     		ldr	r3, [sp, #4]
 1042 0042 1B68     		ldr	r3, [r3]
 1043 0044 9A42     		cmp	r2, r3
 1044 0046 04D2     		bcs	.L59
 1045              		.loc 7 380 0
 1046 0048 019B     		ldr	r3, [sp, #4]
 1047 004a 5B68     		ldr	r3, [r3, #4]
 1048 004c 1A1F     		subs	r2, r3, #4
 1049 004e 019B     		ldr	r3, [sp, #4]
 1050 0050 DA60     		str	r2, [r3, #12]
 1051              	.L59:
 1052              		.loc 7 382 0
 1053 0052 019B     		ldr	r3, [sp, #4]
 1054 0054 DB68     		ldr	r3, [r3, #12]
 1055 0056 009A     		ldr	r2, [sp]
 1056 0058 1A60     		str	r2, [r3]
 1057              		.loc 7 383 0
 1058 005a 019B     		ldr	r3, [sp, #4]
 1059 005c 1B69     		ldr	r3, [r3, #16]
 1060 005e 5A1C     		adds	r2, r3, #1
 1061 0060 019B     		ldr	r3, [sp, #4]
 1062 0062 1A61     		str	r2, [r3, #16]
 1063              		.loc 7 386 0
 1064 0064 019B     		ldr	r3, [sp, #4]
 1065 0066 2033     		adds	r3, r3, #32
 1066 0068 0021     		movs	r1, #0
 1067 006a 1846     		mov	r0, r3
 1068 006c FFF7FEFF 		bl	chThdDequeueNextI
 1069              		.loc 7 388 0
 1070 0070 0023     		movs	r3, #0
 1071 0072 01E0     		b	.L57
 1072              	.L58:
 1073              		.loc 7 392 0
 1074 0074 4FF0FF33 		mov	r3, #-1
 1075              	.L57:
 1076              		.loc 7 393 0
 1077 0078 1846     		mov	r0, r3
 1078 007a 03B0     		add	sp, sp, #12
 1079              		.cfi_def_cfa_offset 4
 1080              		@ sp needed
 1081 007c 5DF804FB 		ldr	pc, [sp], #4
 1082              	.L61:
 1083              		.align	2
ARM GAS  /tmp/ccPngymc.s 			page 20


 1084              	.L60:
 1085 0080 00000000 		.word	__func__.7906
 1086              		.cfi_endproc
 1087              	.LFE239:
 1088              		.size	chMBPostAheadI, .-chMBPostAheadI
 1089              		.section	.text.chMBFetch,"ax",%progbits
 1090              		.align	1
 1091              		.p2align 4,,15
 1092              		.global	chMBFetch
 1093              		.syntax unified
 1094              		.thumb
 1095              		.thumb_func
 1096              		.fpu fpv4-sp-d16
 1097              		.type	chMBFetch, %function
 1098              	chMBFetch:
 1099              	.LFB240:
 1100              		.loc 7 414 0
 1101              		.cfi_startproc
 1102              		@ args = 0, pretend = 0, frame = 24
 1103              		@ frame_needed = 0, uses_anonymous_args = 0
 1104 0000 00B5     		push	{lr}
 1105              		.cfi_def_cfa_offset 4
 1106              		.cfi_offset 14, -4
 1107 0002 87B0     		sub	sp, sp, #28
 1108              		.cfi_def_cfa_offset 32
 1109 0004 0390     		str	r0, [sp, #12]
 1110 0006 0291     		str	r1, [sp, #8]
 1111 0008 0192     		str	r2, [sp, #4]
 1112              		.loc 7 417 0
 1113 000a FFF7FEFF 		bl	chSysLock
 1114              		.loc 7 418 0
 1115 000e 019A     		ldr	r2, [sp, #4]
 1116 0010 0299     		ldr	r1, [sp, #8]
 1117 0012 0398     		ldr	r0, [sp, #12]
 1118 0014 FFF7FEFF 		bl	chMBFetchS
 1119 0018 0590     		str	r0, [sp, #20]
 1120              		.loc 7 419 0
 1121 001a FFF7FEFF 		bl	chSysUnlock
 1122              		.loc 7 421 0
 1123 001e 059B     		ldr	r3, [sp, #20]
 1124              		.loc 7 422 0
 1125 0020 1846     		mov	r0, r3
 1126 0022 07B0     		add	sp, sp, #28
 1127              		.cfi_def_cfa_offset 4
 1128              		@ sp needed
 1129 0024 5DF804FB 		ldr	pc, [sp], #4
 1130              		.cfi_endproc
 1131              	.LFE240:
 1132              		.size	chMBFetch, .-chMBFetch
 1133              		.section	.text.chMBFetchS,"ax",%progbits
 1134              		.align	1
 1135              		.p2align 4,,15
 1136              		.global	chMBFetchS
 1137              		.syntax unified
 1138              		.thumb
 1139              		.thumb_func
 1140              		.fpu fpv4-sp-d16
ARM GAS  /tmp/ccPngymc.s 			page 21


 1141              		.type	chMBFetchS, %function
 1142              	chMBFetchS:
 1143              	.LFB241:
 1144              		.loc 7 443 0
 1145              		.cfi_startproc
 1146              		@ args = 0, pretend = 0, frame = 24
 1147              		@ frame_needed = 0, uses_anonymous_args = 0
 1148 0000 00B5     		push	{lr}
 1149              		.cfi_def_cfa_offset 4
 1150              		.cfi_offset 14, -4
 1151 0002 87B0     		sub	sp, sp, #28
 1152              		.cfi_def_cfa_offset 32
 1153 0004 0390     		str	r0, [sp, #12]
 1154 0006 0291     		str	r1, [sp, #8]
 1155 0008 0192     		str	r2, [sp, #4]
 1156              		.loc 7 446 0
 1157 000a FFF7FEFF 		bl	chDbgCheckClassS
 1158              		.loc 7 447 0
 1159 000e 039B     		ldr	r3, [sp, #12]
 1160 0010 002B     		cmp	r3, #0
 1161 0012 02D0     		beq	.L65
 1162              		.loc 7 447 0 is_stmt 0 discriminator 3
 1163 0014 029B     		ldr	r3, [sp, #8]
 1164 0016 002B     		cmp	r3, #0
 1165 0018 02D1     		bne	.L66
 1166              	.L65:
 1167              		.loc 7 447 0 discriminator 4
 1168 001a 2048     		ldr	r0, .L71
 1169 001c FFF7FEFF 		bl	chSysHalt
 1170              	.L66:
 1171              		.loc 7 451 0 is_stmt 1
 1172 0020 039B     		ldr	r3, [sp, #12]
 1173 0022 1B7D     		ldrb	r3, [r3, #20]	@ zero_extendqisi2
 1174 0024 002B     		cmp	r3, #0
 1175 0026 02D0     		beq	.L67
 1176              		.loc 7 452 0
 1177 0028 6FF00103 		mvn	r3, #1
 1178 002c 31E0     		b	.L68
 1179              	.L67:
 1180              		.loc 7 456 0
 1181 002e 0398     		ldr	r0, [sp, #12]
 1182 0030 FFF7FEFF 		bl	chMBGetUsedCountI
 1183 0034 0346     		mov	r3, r0
 1184 0036 002B     		cmp	r3, #0
 1185 0038 20DD     		ble	.L69
 1186              		.loc 7 457 0
 1187 003a 039B     		ldr	r3, [sp, #12]
 1188 003c DB68     		ldr	r3, [r3, #12]
 1189 003e 191D     		adds	r1, r3, #4
 1190 0040 039A     		ldr	r2, [sp, #12]
 1191 0042 D160     		str	r1, [r2, #12]
 1192 0044 1A68     		ldr	r2, [r3]
 1193 0046 029B     		ldr	r3, [sp, #8]
 1194 0048 1A60     		str	r2, [r3]
 1195              		.loc 7 458 0
 1196 004a 039B     		ldr	r3, [sp, #12]
 1197 004c DA68     		ldr	r2, [r3, #12]
ARM GAS  /tmp/ccPngymc.s 			page 22


 1198 004e 039B     		ldr	r3, [sp, #12]
 1199 0050 5B68     		ldr	r3, [r3, #4]
 1200 0052 9A42     		cmp	r2, r3
 1201 0054 03D3     		bcc	.L70
 1202              		.loc 7 459 0
 1203 0056 039B     		ldr	r3, [sp, #12]
 1204 0058 1A68     		ldr	r2, [r3]
 1205 005a 039B     		ldr	r3, [sp, #12]
 1206 005c DA60     		str	r2, [r3, #12]
 1207              	.L70:
 1208              		.loc 7 461 0
 1209 005e 039B     		ldr	r3, [sp, #12]
 1210 0060 1B69     		ldr	r3, [r3, #16]
 1211 0062 5A1E     		subs	r2, r3, #1
 1212 0064 039B     		ldr	r3, [sp, #12]
 1213 0066 1A61     		str	r2, [r3, #16]
 1214              		.loc 7 464 0
 1215 0068 039B     		ldr	r3, [sp, #12]
 1216 006a 1833     		adds	r3, r3, #24
 1217 006c 0021     		movs	r1, #0
 1218 006e 1846     		mov	r0, r3
 1219 0070 FFF7FEFF 		bl	chThdDequeueNextI
 1220              		.loc 7 465 0
 1221 0074 FFF7FEFF 		bl	chSchRescheduleS
 1222              		.loc 7 467 0
 1223 0078 0023     		movs	r3, #0
 1224 007a 0AE0     		b	.L68
 1225              	.L69:
 1226              		.loc 7 471 0
 1227 007c 039B     		ldr	r3, [sp, #12]
 1228 007e 2033     		adds	r3, r3, #32
 1229 0080 0199     		ldr	r1, [sp, #4]
 1230 0082 1846     		mov	r0, r3
 1231 0084 FFF7FEFF 		bl	chThdEnqueueTimeoutS
 1232 0088 0590     		str	r0, [sp, #20]
 1233              		.loc 7 472 0
 1234 008a 059B     		ldr	r3, [sp, #20]
 1235 008c 002B     		cmp	r3, #0
 1236 008e C7D0     		beq	.L66
 1237              		.loc 7 474 0
 1238 0090 059B     		ldr	r3, [sp, #20]
 1239              	.L68:
 1240              		.loc 7 475 0
 1241 0092 1846     		mov	r0, r3
 1242 0094 07B0     		add	sp, sp, #28
 1243              		.cfi_def_cfa_offset 4
 1244              		@ sp needed
 1245 0096 5DF804FB 		ldr	pc, [sp], #4
 1246              	.L72:
 1247 009a 00BF     		.align	2
 1248              	.L71:
 1249 009c 00000000 		.word	__func__.7919
 1250              		.cfi_endproc
 1251              	.LFE241:
 1252              		.size	chMBFetchS, .-chMBFetchS
 1253              		.section	.text.chMBFetchI,"ax",%progbits
 1254              		.align	1
ARM GAS  /tmp/ccPngymc.s 			page 23


 1255              		.p2align 4,,15
 1256              		.global	chMBFetchI
 1257              		.syntax unified
 1258              		.thumb
 1259              		.thumb_func
 1260              		.fpu fpv4-sp-d16
 1261              		.type	chMBFetchI, %function
 1262              	chMBFetchI:
 1263              	.LFB242:
 1264              		.loc 7 492 0
 1265              		.cfi_startproc
 1266              		@ args = 0, pretend = 0, frame = 8
 1267              		@ frame_needed = 0, uses_anonymous_args = 0
 1268 0000 00B5     		push	{lr}
 1269              		.cfi_def_cfa_offset 4
 1270              		.cfi_offset 14, -4
 1271 0002 83B0     		sub	sp, sp, #12
 1272              		.cfi_def_cfa_offset 16
 1273 0004 0190     		str	r0, [sp, #4]
 1274 0006 0091     		str	r1, [sp]
 1275              		.loc 7 494 0
 1276 0008 FFF7FEFF 		bl	chDbgCheckClassI
 1277              		.loc 7 495 0
 1278 000c 019B     		ldr	r3, [sp, #4]
 1279 000e 002B     		cmp	r3, #0
 1280 0010 02D0     		beq	.L74
 1281              		.loc 7 495 0 is_stmt 0 discriminator 3
 1282 0012 009B     		ldr	r3, [sp]
 1283 0014 002B     		cmp	r3, #0
 1284 0016 02D1     		bne	.L75
 1285              	.L74:
 1286              		.loc 7 495 0 discriminator 4
 1287 0018 1A48     		ldr	r0, .L80
 1288 001a FFF7FEFF 		bl	chSysHalt
 1289              	.L75:
 1290              		.loc 7 498 0 is_stmt 1
 1291 001e 019B     		ldr	r3, [sp, #4]
 1292 0020 1B7D     		ldrb	r3, [r3, #20]	@ zero_extendqisi2
 1293 0022 002B     		cmp	r3, #0
 1294 0024 02D0     		beq	.L76
 1295              		.loc 7 499 0
 1296 0026 6FF00103 		mvn	r3, #1
 1297 002a 26E0     		b	.L77
 1298              	.L76:
 1299              		.loc 7 503 0
 1300 002c 0198     		ldr	r0, [sp, #4]
 1301 002e FFF7FEFF 		bl	chMBGetUsedCountI
 1302 0032 0346     		mov	r3, r0
 1303 0034 002B     		cmp	r3, #0
 1304 0036 1EDD     		ble	.L78
 1305              		.loc 7 504 0
 1306 0038 019B     		ldr	r3, [sp, #4]
 1307 003a DB68     		ldr	r3, [r3, #12]
 1308 003c 191D     		adds	r1, r3, #4
 1309 003e 019A     		ldr	r2, [sp, #4]
 1310 0040 D160     		str	r1, [r2, #12]
 1311 0042 1A68     		ldr	r2, [r3]
ARM GAS  /tmp/ccPngymc.s 			page 24


 1312 0044 009B     		ldr	r3, [sp]
 1313 0046 1A60     		str	r2, [r3]
 1314              		.loc 7 505 0
 1315 0048 019B     		ldr	r3, [sp, #4]
 1316 004a DA68     		ldr	r2, [r3, #12]
 1317 004c 019B     		ldr	r3, [sp, #4]
 1318 004e 5B68     		ldr	r3, [r3, #4]
 1319 0050 9A42     		cmp	r2, r3
 1320 0052 03D3     		bcc	.L79
 1321              		.loc 7 506 0
 1322 0054 019B     		ldr	r3, [sp, #4]
 1323 0056 1A68     		ldr	r2, [r3]
 1324 0058 019B     		ldr	r3, [sp, #4]
 1325 005a DA60     		str	r2, [r3, #12]
 1326              	.L79:
 1327              		.loc 7 508 0
 1328 005c 019B     		ldr	r3, [sp, #4]
 1329 005e 1B69     		ldr	r3, [r3, #16]
 1330 0060 5A1E     		subs	r2, r3, #1
 1331 0062 019B     		ldr	r3, [sp, #4]
 1332 0064 1A61     		str	r2, [r3, #16]
 1333              		.loc 7 511 0
 1334 0066 019B     		ldr	r3, [sp, #4]
 1335 0068 1833     		adds	r3, r3, #24
 1336 006a 0021     		movs	r1, #0
 1337 006c 1846     		mov	r0, r3
 1338 006e FFF7FEFF 		bl	chThdDequeueNextI
 1339              		.loc 7 513 0
 1340 0072 0023     		movs	r3, #0
 1341 0074 01E0     		b	.L77
 1342              	.L78:
 1343              		.loc 7 517 0
 1344 0076 4FF0FF33 		mov	r3, #-1
 1345              	.L77:
 1346              		.loc 7 518 0
 1347 007a 1846     		mov	r0, r3
 1348 007c 03B0     		add	sp, sp, #12
 1349              		.cfi_def_cfa_offset 4
 1350              		@ sp needed
 1351 007e 5DF804FB 		ldr	pc, [sp], #4
 1352              	.L81:
 1353 0082 00BF     		.align	2
 1354              	.L80:
 1355 0084 00000000 		.word	__func__.7926
 1356              		.cfi_endproc
 1357              	.LFE242:
 1358              		.size	chMBFetchI, .-chMBFetchI
 1359              		.section	.rodata.__func__.7859,"a",%progbits
 1360              		.align	2
 1361              		.type	__func__.7859, %object
 1362              		.size	__func__.7859, 15
 1363              	__func__.7859:
 1364 0000 63684D42 		.ascii	"chMBObjectInit\000"
 1364      4F626A65 
 1364      6374496E 
 1364      697400
 1365              		.section	.rodata.__func__.7157,"a",%progbits
ARM GAS  /tmp/ccPngymc.s 			page 25


 1366              		.align	2
 1367              		.type	__func__.7157, %object
 1368              		.size	__func__.7157, 12
 1369              	__func__.7157:
 1370 0000 63685379 		.ascii	"chSysUnlock\000"
 1370      73556E6C 
 1370      6F636B00 
 1371              		.section	.rodata.__func__.7866,"a",%progbits
 1372              		.align	2
 1373              		.type	__func__.7866, %object
 1374              		.size	__func__.7866, 11
 1375              	__func__.7866:
 1376 0000 63684D42 		.ascii	"chMBResetI\000"
 1376      52657365 
 1376      744900
 1377              		.section	.rodata.__func__.7879,"a",%progbits
 1378              		.align	2
 1379              		.type	__func__.7879, %object
 1380              		.size	__func__.7879, 10
 1381              	__func__.7879:
 1382 0000 63684D42 		.ascii	"chMBPostS\000"
 1382      506F7374 
 1382      5300
 1383              		.section	.rodata.__func__.7886,"a",%progbits
 1384              		.align	2
 1385              		.type	__func__.7886, %object
 1386              		.size	__func__.7886, 10
 1387              	__func__.7886:
 1388 0000 63684D42 		.ascii	"chMBPostI\000"
 1388      506F7374 
 1388      4900
 1389              		.section	.rodata.__func__.7899,"a",%progbits
 1390              		.align	2
 1391              		.type	__func__.7899, %object
 1392              		.size	__func__.7899, 15
 1393              	__func__.7899:
 1394 0000 63684D42 		.ascii	"chMBPostAheadS\000"
 1394      506F7374 
 1394      41686561 
 1394      645300
 1395              		.section	.rodata.__func__.7906,"a",%progbits
 1396              		.align	2
 1397              		.type	__func__.7906, %object
 1398              		.size	__func__.7906, 15
 1399              	__func__.7906:
 1400 0000 63684D42 		.ascii	"chMBPostAheadI\000"
 1400      506F7374 
 1400      41686561 
 1400      644900
 1401              		.section	.rodata.__func__.7919,"a",%progbits
 1402              		.align	2
 1403              		.type	__func__.7919, %object
 1404              		.size	__func__.7919, 11
 1405              	__func__.7919:
 1406 0000 63684D42 		.ascii	"chMBFetchS\000"
 1406      46657463 
 1406      685300
ARM GAS  /tmp/ccPngymc.s 			page 26


 1407              		.section	.rodata.__func__.7926,"a",%progbits
 1408              		.align	2
 1409              		.type	__func__.7926, %object
 1410              		.size	__func__.7926, 11
 1411              	__func__.7926:
 1412 0000 63684D42 		.ascii	"chMBFetchI\000"
 1412      46657463 
 1412      684900
 1413              		.text
 1414              	.Letext0:
 1415              		.file 8 "/usr/arm-none-eabi/include/machine/_default_types.h"
 1416              		.file 9 "/usr/arm-none-eabi/include/sys/_stdint.h"
 1417              		.file 10 "../ChibiOS/os/rt/ports/ARMCMx/compilers/GCC/chtypes.h"
 1418              		.file 11 "../ChibiOS/os/rt/include/chsystypes.h"
 1419              		.file 12 "../ChibiOS/os/ext/CMSIS/include/core_cm4.h"
 1420              		.file 13 "../ChibiOS/os/ext/CMSIS/ST/STM32F4xx/system_stm32f4xx.h"
 1421              		.file 14 "../ChibiOS/os/rt/ports/ARMCMx/chcore.h"
 1422              		.file 15 "../ChibiOS/os/rt/include/chtm.h"
 1423              		.file 16 "../ChibiOS/os/rt/include/chstats.h"
 1424              		.file 17 "../ChibiOS/os/rt/include/chsem.h"
 1425              		.file 18 "../ChibiOS/os/rt/include/chmtx.h"
 1426              		.file 19 "../ChibiOS/os/rt/include/chregistry.h"
 1427              		.section	.debug_info,"",%progbits
 1428              	.Ldebug_info0:
 1429 0000 1E0F0000 		.4byte	0xf1e
 1430 0004 0400     		.2byte	0x4
 1431 0006 00000000 		.4byte	.Ldebug_abbrev0
 1432 000a 04       		.byte	0x4
 1433 000b 01       		.uleb128 0x1
 1434 000c B9010000 		.4byte	.LASF176
 1435 0010 0C       		.byte	0xc
 1436 0011 27080000 		.4byte	.LASF177
 1437 0015 B2030000 		.4byte	.LASF178
 1438 0019 00000000 		.4byte	.Ldebug_ranges0+0
 1439 001d 00000000 		.4byte	0
 1440 0021 00000000 		.4byte	.Ldebug_line0
 1441 0025 02       		.uleb128 0x2
 1442 0026 04       		.byte	0x4
 1443 0027 05       		.byte	0x5
 1444 0028 696E7400 		.ascii	"int\000"
 1445 002c 03       		.uleb128 0x3
 1446 002d 04       		.byte	0x4
 1447 002e 07       		.byte	0x7
 1448 002f 84030000 		.4byte	.LASF0
 1449 0033 03       		.uleb128 0x3
 1450 0034 08       		.byte	0x8
 1451 0035 05       		.byte	0x5
 1452 0036 44010000 		.4byte	.LASF1
 1453 003a 03       		.uleb128 0x3
 1454 003b 08       		.byte	0x8
 1455 003c 04       		.byte	0x4
 1456 003d 11030000 		.4byte	.LASF2
 1457 0041 03       		.uleb128 0x3
 1458 0042 01       		.byte	0x1
 1459 0043 06       		.byte	0x6
 1460 0044 52010000 		.4byte	.LASF3
 1461 0048 04       		.uleb128 0x4
ARM GAS  /tmp/ccPngymc.s 			page 27


 1462 0049 4C000000 		.4byte	.LASF6
 1463 004d 08       		.byte	0x8
 1464 004e 2B       		.byte	0x2b
 1465 004f 53000000 		.4byte	0x53
 1466 0053 03       		.uleb128 0x3
 1467 0054 01       		.byte	0x1
 1468 0055 08       		.byte	0x8
 1469 0056 19060000 		.4byte	.LASF4
 1470 005a 03       		.uleb128 0x3
 1471 005b 02       		.byte	0x2
 1472 005c 05       		.byte	0x5
 1473 005d 57060000 		.4byte	.LASF5
 1474 0061 04       		.uleb128 0x4
 1475 0062 6E070000 		.4byte	.LASF7
 1476 0066 08       		.byte	0x8
 1477 0067 39       		.byte	0x39
 1478 0068 6C000000 		.4byte	0x6c
 1479 006c 03       		.uleb128 0x3
 1480 006d 02       		.byte	0x2
 1481 006e 07       		.byte	0x7
 1482 006f FE020000 		.4byte	.LASF8
 1483 0073 04       		.uleb128 0x4
 1484 0074 CA040000 		.4byte	.LASF9
 1485 0078 08       		.byte	0x8
 1486 0079 4D       		.byte	0x4d
 1487 007a 7E000000 		.4byte	0x7e
 1488 007e 03       		.uleb128 0x3
 1489 007f 04       		.byte	0x4
 1490 0080 05       		.byte	0x5
 1491 0081 A7010000 		.4byte	.LASF10
 1492 0085 04       		.uleb128 0x4
 1493 0086 AC070000 		.4byte	.LASF11
 1494 008a 08       		.byte	0x8
 1495 008b 4F       		.byte	0x4f
 1496 008c 90000000 		.4byte	0x90
 1497 0090 03       		.uleb128 0x3
 1498 0091 04       		.byte	0x4
 1499 0092 07       		.byte	0x7
 1500 0093 4A070000 		.4byte	.LASF12
 1501 0097 04       		.uleb128 0x4
 1502 0098 B3050000 		.4byte	.LASF13
 1503 009c 08       		.byte	0x8
 1504 009d 69       		.byte	0x69
 1505 009e A2000000 		.4byte	0xa2
 1506 00a2 03       		.uleb128 0x3
 1507 00a3 08       		.byte	0x8
 1508 00a4 07       		.byte	0x7
 1509 00a5 D3000000 		.4byte	.LASF14
 1510 00a9 04       		.uleb128 0x4
 1511 00aa 47080000 		.4byte	.LASF15
 1512 00ae 09       		.byte	0x9
 1513 00af 18       		.byte	0x18
 1514 00b0 48000000 		.4byte	0x48
 1515 00b4 04       		.uleb128 0x4
 1516 00b5 99030000 		.4byte	.LASF16
 1517 00b9 09       		.byte	0x9
 1518 00ba 24       		.byte	0x24
ARM GAS  /tmp/ccPngymc.s 			page 28


 1519 00bb 61000000 		.4byte	0x61
 1520 00bf 04       		.uleb128 0x4
 1521 00c0 11060000 		.4byte	.LASF17
 1522 00c4 09       		.byte	0x9
 1523 00c5 2C       		.byte	0x2c
 1524 00c6 73000000 		.4byte	0x73
 1525 00ca 05       		.uleb128 0x5
 1526 00cb BF000000 		.4byte	0xbf
 1527 00cf 04       		.uleb128 0x4
 1528 00d0 15070000 		.4byte	.LASF18
 1529 00d4 09       		.byte	0x9
 1530 00d5 30       		.byte	0x30
 1531 00d6 85000000 		.4byte	0x85
 1532 00da 04       		.uleb128 0x4
 1533 00db 36000000 		.4byte	.LASF19
 1534 00df 09       		.byte	0x9
 1535 00e0 3C       		.byte	0x3c
 1536 00e1 97000000 		.4byte	0x97
 1537 00e5 04       		.uleb128 0x4
 1538 00e6 EC070000 		.4byte	.LASF20
 1539 00ea 0A       		.byte	0xa
 1540 00eb 39       		.byte	0x39
 1541 00ec CF000000 		.4byte	0xcf
 1542 00f0 04       		.uleb128 0x4
 1543 00f1 27010000 		.4byte	.LASF21
 1544 00f5 0A       		.byte	0xa
 1545 00f6 3A       		.byte	0x3a
 1546 00f7 DA000000 		.4byte	0xda
 1547 00fb 04       		.uleb128 0x4
 1548 00fc 7E060000 		.4byte	.LASF22
 1549 0100 0A       		.byte	0xa
 1550 0101 3C       		.byte	0x3c
 1551 0102 A9000000 		.4byte	0xa9
 1552 0106 04       		.uleb128 0x4
 1553 0107 B0010000 		.4byte	.LASF23
 1554 010b 0A       		.byte	0xa
 1555 010c 3D       		.byte	0x3d
 1556 010d A9000000 		.4byte	0xa9
 1557 0111 04       		.uleb128 0x4
 1558 0112 D0050000 		.4byte	.LASF24
 1559 0116 0A       		.byte	0xa
 1560 0117 3E       		.byte	0x3e
 1561 0118 A9000000 		.4byte	0xa9
 1562 011c 04       		.uleb128 0x4
 1563 011d FA050000 		.4byte	.LASF25
 1564 0121 0A       		.byte	0xa
 1565 0122 40       		.byte	0x40
 1566 0123 CF000000 		.4byte	0xcf
 1567 0127 04       		.uleb128 0x4
 1568 0128 68040000 		.4byte	.LASF26
 1569 012c 0A       		.byte	0xa
 1570 012d 41       		.byte	0x41
 1571 012e BF000000 		.4byte	0xbf
 1572 0132 04       		.uleb128 0x4
 1573 0133 BE040000 		.4byte	.LASF27
 1574 0137 0A       		.byte	0xa
 1575 0138 43       		.byte	0x43
ARM GAS  /tmp/ccPngymc.s 			page 29


 1576 0139 CF000000 		.4byte	0xcf
 1577 013d 04       		.uleb128 0x4
 1578 013e 73030000 		.4byte	.LASF28
 1579 0142 0A       		.byte	0xa
 1580 0143 45       		.byte	0x45
 1581 0144 BF000000 		.4byte	0xbf
 1582 0148 04       		.uleb128 0x4
 1583 0149 73040000 		.4byte	.LASF29
 1584 014d 0A       		.byte	0xa
 1585 014e 46       		.byte	0x46
 1586 014f CF000000 		.4byte	0xcf
 1587 0153 04       		.uleb128 0x4
 1588 0154 8E070000 		.4byte	.LASF30
 1589 0158 0B       		.byte	0xb
 1590 0159 33       		.byte	0x33
 1591 015a CF000000 		.4byte	0xcf
 1592 015e 05       		.uleb128 0x5
 1593 015f 53010000 		.4byte	0x153
 1594 0163 04       		.uleb128 0x4
 1595 0164 79070000 		.4byte	.LASF31
 1596 0168 0B       		.byte	0xb
 1597 0169 3F       		.byte	0x3f
 1598 016a 6E010000 		.4byte	0x16e
 1599 016e 06       		.uleb128 0x6
 1600 016f 48040000 		.4byte	.LASF53
 1601 0173 60       		.byte	0x60
 1602 0174 03       		.byte	0x3
 1603 0175 C2       		.byte	0xc2
 1604 0176 74020000 		.4byte	0x274
 1605 017a 07       		.uleb128 0x7
 1606 017b 77060000 		.4byte	.LASF32
 1607 017f 03       		.byte	0x3
 1608 0180 C3       		.byte	0xc3
 1609 0181 7F020000 		.4byte	0x27f
 1610 0185 00       		.byte	0
 1611 0186 07       		.uleb128 0x7
 1612 0187 F3050000 		.4byte	.LASF33
 1613 018b 03       		.byte	0x3
 1614 018c C5       		.byte	0xc5
 1615 018d 7F020000 		.4byte	0x27f
 1616 0191 04       		.byte	0x4
 1617 0192 07       		.uleb128 0x7
 1618 0193 30010000 		.4byte	.LASF34
 1619 0197 03       		.byte	0x3
 1620 0198 C7       		.byte	0xc7
 1621 0199 1C010000 		.4byte	0x11c
 1622 019d 08       		.byte	0x8
 1623 019e 07       		.uleb128 0x7
 1624 019f 80050000 		.4byte	.LASF35
 1625 01a3 03       		.byte	0x3
 1626 01a4 C8       		.byte	0xc8
 1627 01a5 ED040000 		.4byte	0x4ed
 1628 01a9 0C       		.byte	0xc
 1629 01aa 07       		.uleb128 0x7
 1630 01ab DC020000 		.4byte	.LASF36
 1631 01af 03       		.byte	0x3
 1632 01b0 CA       		.byte	0xca
ARM GAS  /tmp/ccPngymc.s 			page 30


 1633 01b1 7F020000 		.4byte	0x27f
 1634 01b5 10       		.byte	0x10
 1635 01b6 07       		.uleb128 0x7
 1636 01b7 72050000 		.4byte	.LASF37
 1637 01bb 03       		.byte	0x3
 1638 01bc CB       		.byte	0xcb
 1639 01bd 7F020000 		.4byte	0x27f
 1640 01c1 14       		.byte	0x14
 1641 01c2 07       		.uleb128 0x7
 1642 01c3 69080000 		.4byte	.LASF38
 1643 01c7 03       		.byte	0x3
 1644 01c8 D2       		.byte	0xd2
 1645 01c9 CD070000 		.4byte	0x7cd
 1646 01cd 18       		.byte	0x18
 1647 01ce 07       		.uleb128 0x7
 1648 01cf 79030000 		.4byte	.LASF39
 1649 01d3 03       		.byte	0x3
 1650 01d4 D8       		.byte	0xd8
 1651 01d5 E4070000 		.4byte	0x7e4
 1652 01d9 1C       		.byte	0x1c
 1653 01da 07       		.uleb128 0x7
 1654 01db 61060000 		.4byte	.LASF40
 1655 01df 03       		.byte	0x3
 1656 01e0 DD       		.byte	0xdd
 1657 01e1 06010000 		.4byte	0x106
 1658 01e5 20       		.byte	0x20
 1659 01e6 07       		.uleb128 0x7
 1660 01e7 95060000 		.4byte	.LASF41
 1661 01eb 03       		.byte	0x3
 1662 01ec E1       		.byte	0xe1
 1663 01ed FB000000 		.4byte	0xfb
 1664 01f1 21       		.byte	0x21
 1665 01f2 07       		.uleb128 0x7
 1666 01f3 0F080000 		.4byte	.LASF42
 1667 01f7 03       		.byte	0x3
 1668 01f8 E6       		.byte	0xe6
 1669 01f9 11010000 		.4byte	0x111
 1670 01fd 22       		.byte	0x22
 1671 01fe 08       		.uleb128 0x8
 1672 01ff 705F7500 		.ascii	"p_u\000"
 1673 0203 03       		.byte	0x3
 1674 0204 3101     		.2byte	0x131
 1675 0206 08070000 		.4byte	0x708
 1676 020a 24       		.byte	0x24
 1677 020b 09       		.uleb128 0x9
 1678 020c 1C050000 		.4byte	.LASF43
 1679 0210 03       		.byte	0x3
 1680 0211 3601     		.2byte	0x136
 1681 0213 85020000 		.4byte	0x285
 1682 0217 28       		.byte	0x28
 1683 0218 09       		.uleb128 0x9
 1684 0219 06040000 		.4byte	.LASF44
 1685 021d 03       		.byte	0x3
 1686 021e 3C01     		.2byte	0x13c
 1687 0220 A9020000 		.4byte	0x2a9
 1688 0224 2C       		.byte	0x2c
 1689 0225 09       		.uleb128 0x9
ARM GAS  /tmp/ccPngymc.s 			page 31


 1690 0226 68070000 		.4byte	.LASF45
 1691 022a 03       		.byte	0x3
 1692 022b 4001     		.2byte	0x140
 1693 022d 27010000 		.4byte	0x127
 1694 0231 34       		.byte	0x34
 1695 0232 09       		.uleb128 0x9
 1696 0233 0A070000 		.4byte	.LASF46
 1697 0237 03       		.byte	0x3
 1698 0238 4601     		.2byte	0x146
 1699 023a 32010000 		.4byte	0x132
 1700 023e 38       		.byte	0x38
 1701 023f 09       		.uleb128 0x9
 1702 0240 4D060000 		.4byte	.LASF47
 1703 0244 03       		.byte	0x3
 1704 0245 4D01     		.2byte	0x14d
 1705 0247 C7070000 		.4byte	0x7c7
 1706 024b 3C       		.byte	0x3c
 1707 024c 09       		.uleb128 0x9
 1708 024d 98070000 		.4byte	.LASF48
 1709 0251 03       		.byte	0x3
 1710 0252 5101     		.2byte	0x151
 1711 0254 1C010000 		.4byte	0x11c
 1712 0258 40       		.byte	0x40
 1713 0259 09       		.uleb128 0x9
 1714 025a 7B010000 		.4byte	.LASF49
 1715 025e 03       		.byte	0x3
 1716 025f 5801     		.2byte	0x158
 1717 0261 5C030000 		.4byte	0x35c
 1718 0265 44       		.byte	0x44
 1719 0266 09       		.uleb128 0x9
 1720 0267 A6060000 		.4byte	.LASF50
 1721 026b 03       		.byte	0x3
 1722 026c 5E01     		.2byte	0x15e
 1723 026e B9060000 		.4byte	0x6b9
 1724 0272 48       		.byte	0x48
 1725 0273 00       		.byte	0
 1726 0274 04       		.uleb128 0x4
 1727 0275 4F080000 		.4byte	.LASF51
 1728 0279 0B       		.byte	0xb
 1729 027a 44       		.byte	0x44
 1730 027b 7F020000 		.4byte	0x27f
 1731 027f 0A       		.uleb128 0xa
 1732 0280 04       		.byte	0x4
 1733 0281 63010000 		.4byte	0x163
 1734 0285 04       		.uleb128 0x4
 1735 0286 E4040000 		.4byte	.LASF52
 1736 028a 0B       		.byte	0xb
 1737 028b 49       		.byte	0x49
 1738 028c 90020000 		.4byte	0x290
 1739 0290 06       		.uleb128 0x6
 1740 0291 32070000 		.4byte	.LASF54
 1741 0295 04       		.byte	0x4
 1742 0296 03       		.byte	0x3
 1743 0297 B0       		.byte	0xb0
 1744 0298 A9020000 		.4byte	0x2a9
 1745 029c 07       		.uleb128 0x7
 1746 029d 77060000 		.4byte	.LASF32
ARM GAS  /tmp/ccPngymc.s 			page 32


 1747 02a1 03       		.byte	0x3
 1748 02a2 B1       		.byte	0xb1
 1749 02a3 7F020000 		.4byte	0x27f
 1750 02a7 00       		.byte	0
 1751 02a8 00       		.byte	0
 1752 02a9 04       		.uleb128 0x4
 1753 02aa CF060000 		.4byte	.LASF55
 1754 02ae 0B       		.byte	0xb
 1755 02af 50       		.byte	0x50
 1756 02b0 B4020000 		.4byte	0x2b4
 1757 02b4 06       		.uleb128 0x6
 1758 02b5 70000000 		.4byte	.LASF56
 1759 02b9 08       		.byte	0x8
 1760 02ba 03       		.byte	0x3
 1761 02bb B7       		.byte	0xb7
 1762 02bc D9020000 		.4byte	0x2d9
 1763 02c0 07       		.uleb128 0x7
 1764 02c1 77060000 		.4byte	.LASF32
 1765 02c5 03       		.byte	0x3
 1766 02c6 B8       		.byte	0xb8
 1767 02c7 7F020000 		.4byte	0x27f
 1768 02cb 00       		.byte	0
 1769 02cc 07       		.uleb128 0x7
 1770 02cd F3050000 		.4byte	.LASF33
 1771 02d1 03       		.byte	0x3
 1772 02d2 B9       		.byte	0xb9
 1773 02d3 7F020000 		.4byte	0x27f
 1774 02d7 04       		.byte	0x4
 1775 02d8 00       		.byte	0
 1776 02d9 04       		.uleb128 0x4
 1777 02da 0D000000 		.4byte	.LASF57
 1778 02de 0B       		.byte	0xb
 1779 02df 57       		.byte	0x57
 1780 02e0 E4020000 		.4byte	0x2e4
 1781 02e4 0B       		.uleb128 0xb
 1782 02e5 B0040000 		.4byte	.LASF58
 1783 02e9 1C       		.byte	0x1c
 1784 02ea 03       		.byte	0x3
 1785 02eb 9001     		.2byte	0x190
 1786 02ed 40030000 		.4byte	0x340
 1787 02f1 09       		.uleb128 0x9
 1788 02f2 2A070000 		.4byte	.LASF59
 1789 02f6 03       		.byte	0x3
 1790 02f7 9101     		.2byte	0x191
 1791 02f9 A9020000 		.4byte	0x2a9
 1792 02fd 00       		.byte	0
 1793 02fe 09       		.uleb128 0x9
 1794 02ff 69060000 		.4byte	.LASF60
 1795 0303 03       		.byte	0x3
 1796 0304 9201     		.2byte	0x192
 1797 0306 1C010000 		.4byte	0x11c
 1798 030a 08       		.byte	0x8
 1799 030b 09       		.uleb128 0x9
 1800 030c 7A050000 		.4byte	.LASF61
 1801 0310 03       		.byte	0x3
 1802 0311 9401     		.2byte	0x194
 1803 0313 ED040000 		.4byte	0x4ed
ARM GAS  /tmp/ccPngymc.s 			page 33


 1804 0317 0C       		.byte	0xc
 1805 0318 09       		.uleb128 0x9
 1806 0319 7A040000 		.4byte	.LASF62
 1807 031d 03       		.byte	0x3
 1808 031e 9701     		.2byte	0x197
 1809 0320 7F020000 		.4byte	0x27f
 1810 0324 10       		.byte	0x10
 1811 0325 09       		.uleb128 0x9
 1812 0326 AB050000 		.4byte	.LASF63
 1813 032a 03       		.byte	0x3
 1814 032b 9801     		.2byte	0x198
 1815 032d 7F020000 		.4byte	0x27f
 1816 0331 14       		.byte	0x14
 1817 0332 09       		.uleb128 0x9
 1818 0333 A1050000 		.4byte	.LASF64
 1819 0337 03       		.byte	0x3
 1820 0338 9B01     		.2byte	0x19b
 1821 033a 7F020000 		.4byte	0x27f
 1822 033e 18       		.byte	0x18
 1823 033f 00       		.byte	0
 1824 0340 04       		.uleb128 0x4
 1825 0341 A3070000 		.4byte	.LASF65
 1826 0345 0B       		.byte	0xb
 1827 0346 5C       		.byte	0x5c
 1828 0347 4B030000 		.4byte	0x34b
 1829 034b 0A       		.uleb128 0xa
 1830 034c 04       		.byte	0x4
 1831 034d 51030000 		.4byte	0x351
 1832 0351 0C       		.uleb128 0xc
 1833 0352 5C030000 		.4byte	0x35c
 1834 0356 0D       		.uleb128 0xd
 1835 0357 5C030000 		.4byte	0x35c
 1836 035b 00       		.byte	0
 1837 035c 0E       		.uleb128 0xe
 1838 035d 04       		.byte	0x4
 1839 035e 04       		.uleb128 0x4
 1840 035f E3050000 		.4byte	.LASF66
 1841 0363 0B       		.byte	0xb
 1842 0364 61       		.byte	0x61
 1843 0365 69030000 		.4byte	0x369
 1844 0369 0B       		.uleb128 0xb
 1845 036a DF060000 		.4byte	.LASF67
 1846 036e 14       		.byte	0x14
 1847 036f 03       		.byte	0x3
 1848 0370 6B01     		.2byte	0x16b
 1849 0372 B8030000 		.4byte	0x3b8
 1850 0376 09       		.uleb128 0x9
 1851 0377 91030000 		.4byte	.LASF68
 1852 037b 03       		.byte	0x3
 1853 037c 6C01     		.2byte	0x16c
 1854 037e EA070000 		.4byte	0x7ea
 1855 0382 00       		.byte	0
 1856 0383 09       		.uleb128 0x9
 1857 0384 2F030000 		.4byte	.LASF69
 1858 0388 03       		.byte	0x3
 1859 0389 6D01     		.2byte	0x16d
 1860 038b EA070000 		.4byte	0x7ea
ARM GAS  /tmp/ccPngymc.s 			page 34


 1861 038f 04       		.byte	0x4
 1862 0390 09       		.uleb128 0x9
 1863 0391 FD030000 		.4byte	.LASF70
 1864 0395 03       		.byte	0x3
 1865 0396 6E01     		.2byte	0x16e
 1866 0398 53010000 		.4byte	0x153
 1867 039c 08       		.byte	0x8
 1868 039d 09       		.uleb128 0x9
 1869 039e D1080000 		.4byte	.LASF71
 1870 03a2 03       		.byte	0x3
 1871 03a3 6F01     		.2byte	0x16f
 1872 03a5 40030000 		.4byte	0x340
 1873 03a9 0C       		.byte	0xc
 1874 03aa 09       		.uleb128 0x9
 1875 03ab F4070000 		.4byte	.LASF72
 1876 03af 03       		.byte	0x3
 1877 03b0 7101     		.2byte	0x171
 1878 03b2 5C030000 		.4byte	0x35c
 1879 03b6 10       		.byte	0x10
 1880 03b7 00       		.byte	0
 1881 03b8 04       		.uleb128 0x4
 1882 03b9 08010000 		.4byte	.LASF73
 1883 03bd 0B       		.byte	0xb
 1884 03be 66       		.byte	0x66
 1885 03bf C3030000 		.4byte	0x3c3
 1886 03c3 0B       		.uleb128 0xb
 1887 03c4 2F050000 		.4byte	.LASF74
 1888 03c8 10       		.byte	0x10
 1889 03c9 03       		.byte	0x3
 1890 03ca 7B01     		.2byte	0x17b
 1891 03cc 05040000 		.4byte	0x405
 1892 03d0 09       		.uleb128 0x9
 1893 03d1 91030000 		.4byte	.LASF68
 1894 03d5 03       		.byte	0x3
 1895 03d6 7C01     		.2byte	0x17c
 1896 03d8 EA070000 		.4byte	0x7ea
 1897 03dc 00       		.byte	0
 1898 03dd 09       		.uleb128 0x9
 1899 03de 2F030000 		.4byte	.LASF69
 1900 03e2 03       		.byte	0x3
 1901 03e3 7E01     		.2byte	0x17e
 1902 03e5 EA070000 		.4byte	0x7ea
 1903 03e9 04       		.byte	0x4
 1904 03ea 09       		.uleb128 0x9
 1905 03eb FD030000 		.4byte	.LASF70
 1906 03ef 03       		.byte	0x3
 1907 03f0 8001     		.2byte	0x180
 1908 03f2 53010000 		.4byte	0x153
 1909 03f6 08       		.byte	0x8
 1910 03f7 09       		.uleb128 0x9
 1911 03f8 7A080000 		.4byte	.LASF75
 1912 03fc 03       		.byte	0x3
 1913 03fd 8201     		.2byte	0x182
 1914 03ff 5E010000 		.4byte	0x15e
 1915 0403 0C       		.byte	0xc
 1916 0404 00       		.byte	0
 1917 0405 04       		.uleb128 0x4
ARM GAS  /tmp/ccPngymc.s 			page 35


 1918 0406 81000000 		.4byte	.LASF76
 1919 040a 0B       		.byte	0xb
 1920 040b 6B       		.byte	0x6b
 1921 040c 10040000 		.4byte	0x410
 1922 0410 0B       		.uleb128 0xb
 1923 0411 37030000 		.4byte	.LASF77
 1924 0415 0C       		.byte	0xc
 1925 0416 03       		.byte	0x3
 1926 0417 A201     		.2byte	0x1a2
 1927 0419 45040000 		.4byte	0x445
 1928 041d 09       		.uleb128 0x9
 1929 041e C5070000 		.4byte	.LASF78
 1930 0422 03       		.byte	0x3
 1931 0423 AA01     		.2byte	0x1aa
 1932 0425 D3070000 		.4byte	0x7d3
 1933 0429 00       		.byte	0
 1934 042a 09       		.uleb128 0x9
 1935 042b 16080000 		.4byte	.LASF79
 1936 042f 03       		.byte	0x3
 1937 0430 AF01     		.2byte	0x1af
 1938 0432 3D010000 		.4byte	0x13d
 1939 0436 04       		.byte	0x4
 1940 0437 09       		.uleb128 0x9
 1941 0438 5B030000 		.4byte	.LASF80
 1942 043c 03       		.byte	0x3
 1943 043d B301     		.2byte	0x1b3
 1944 043f 3D010000 		.4byte	0x13d
 1945 0443 08       		.byte	0x8
 1946 0444 00       		.byte	0
 1947 0445 04       		.uleb128 0x4
 1948 0446 82040000 		.4byte	.LASF81
 1949 044a 0B       		.byte	0xb
 1950 044b 70       		.byte	0x70
 1951 044c 50040000 		.4byte	0x450
 1952 0450 0F       		.uleb128 0xf
 1953 0451 B8060000 		.4byte	.LASF82
 1954 0455 5802     		.2byte	0x258
 1955 0457 03       		.byte	0x3
 1956 0458 C201     		.2byte	0x1c2
 1957 045a B9040000 		.4byte	0x4b9
 1958 045e 09       		.uleb128 0x9
 1959 045f 47030000 		.4byte	.LASF83
 1960 0463 03       		.byte	0x3
 1961 0464 C601     		.2byte	0x1c6
 1962 0466 D9020000 		.4byte	0x2d9
 1963 046a 00       		.byte	0
 1964 046b 09       		.uleb128 0x9
 1965 046c 8B010000 		.4byte	.LASF84
 1966 0470 03       		.byte	0x3
 1967 0471 CA01     		.2byte	0x1ca
 1968 0473 B8030000 		.4byte	0x3b8
 1969 0477 1C       		.byte	0x1c
 1970 0478 08       		.uleb128 0x8
 1971 0479 64626700 		.ascii	"dbg\000"
 1972 047d 03       		.byte	0x3
 1973 047e CE01     		.2byte	0x1ce
 1974 0480 05040000 		.4byte	0x405
ARM GAS  /tmp/ccPngymc.s 			page 36


 1975 0484 2C       		.byte	0x2c
 1976 0485 09       		.uleb128 0x9
 1977 0486 52040000 		.4byte	.LASF85
 1978 048a 03       		.byte	0x3
 1979 048b D201     		.2byte	0x1d2
 1980 048d 63010000 		.4byte	0x163
 1981 0491 38       		.byte	0x38
 1982 0492 08       		.uleb128 0x8
 1983 0493 746D00   		.ascii	"tm\000"
 1984 0496 03       		.byte	0x3
 1985 0497 D701     		.2byte	0x1d7
 1986 0499 6B060000 		.4byte	0x66b
 1987 049d 98       		.byte	0x98
 1988 049e 09       		.uleb128 0x9
 1989 049f 3F000000 		.4byte	.LASF86
 1990 04a3 03       		.byte	0x3
 1991 04a4 DD01     		.2byte	0x1dd
 1992 04a6 FD060000 		.4byte	0x6fd
 1993 04aa A0       		.byte	0xa0
 1994 04ab 09       		.uleb128 0x9
 1995 04ac 64030000 		.4byte	.LASF87
 1996 04b0 03       		.byte	0x3
 1997 04b1 E301     		.2byte	0x1e3
 1998 04b3 F0070000 		.4byte	0x7f0
 1999 04b7 D8       		.byte	0xd8
 2000 04b8 00       		.byte	0
 2001 04b9 03       		.uleb128 0x3
 2002 04ba 04       		.byte	0x4
 2003 04bb 07       		.byte	0x7
 2004 04bc 26050000 		.4byte	.LASF88
 2005 04c0 10       		.uleb128 0x10
 2006 04c1 40060000 		.4byte	.LASF89
 2007 04c5 0C       		.byte	0xc
 2008 04c6 FA06     		.2byte	0x6fa
 2009 04c8 CA000000 		.4byte	0xca
 2010 04cc 11       		.uleb128 0x11
 2011 04cd A2030000 		.4byte	.LASF90
 2012 04d1 0D       		.byte	0xd
 2013 04d2 4C       		.byte	0x4c
 2014 04d3 CF000000 		.4byte	0xcf
 2015 04d7 04       		.uleb128 0x4
 2016 04d8 26030000 		.4byte	.LASF91
 2017 04dc 0E       		.byte	0xe
 2018 04dd 65       		.byte	0x65
 2019 04de 5C030000 		.4byte	0x35c
 2020 04e2 04       		.uleb128 0x4
 2021 04e3 D9040000 		.4byte	.LASF92
 2022 04e7 0E       		.byte	0xe
 2023 04e8 6D       		.byte	0x6d
 2024 04e9 DA000000 		.4byte	0xda
 2025 04ed 06       		.uleb128 0x6
 2026 04ee D6070000 		.4byte	.LASF93
 2027 04f2 04       		.byte	0x4
 2028 04f3 0E       		.byte	0xe
 2029 04f4 89       		.byte	0x89
 2030 04f5 06050000 		.4byte	0x506
 2031 04f9 12       		.uleb128 0x12
ARM GAS  /tmp/ccPngymc.s 			page 37


 2032 04fa 72313300 		.ascii	"r13\000"
 2033 04fe 0E       		.byte	0xe
 2034 04ff 8A       		.byte	0x8a
 2035 0500 50060000 		.4byte	0x650
 2036 0504 00       		.byte	0
 2037 0505 00       		.byte	0
 2038 0506 06       		.uleb128 0x6
 2039 0507 64000000 		.4byte	.LASF94
 2040 050b 64       		.byte	0x64
 2041 050c 01       		.byte	0x1
 2042 050d FD       		.byte	0xfd
 2043 050e 50060000 		.4byte	0x650
 2044 0512 12       		.uleb128 0x12
 2045 0513 73313600 		.ascii	"s16\000"
 2046 0517 01       		.byte	0x1
 2047 0518 FF       		.byte	0xff
 2048 0519 D7040000 		.4byte	0x4d7
 2049 051d 00       		.byte	0
 2050 051e 08       		.uleb128 0x8
 2051 051f 73313700 		.ascii	"s17\000"
 2052 0523 01       		.byte	0x1
 2053 0524 0001     		.2byte	0x100
 2054 0526 D7040000 		.4byte	0x4d7
 2055 052a 04       		.byte	0x4
 2056 052b 08       		.uleb128 0x8
 2057 052c 73313800 		.ascii	"s18\000"
 2058 0530 01       		.byte	0x1
 2059 0531 0101     		.2byte	0x101
 2060 0533 D7040000 		.4byte	0x4d7
 2061 0537 08       		.byte	0x8
 2062 0538 08       		.uleb128 0x8
 2063 0539 73313900 		.ascii	"s19\000"
 2064 053d 01       		.byte	0x1
 2065 053e 0201     		.2byte	0x102
 2066 0540 D7040000 		.4byte	0x4d7
 2067 0544 0C       		.byte	0xc
 2068 0545 08       		.uleb128 0x8
 2069 0546 73323000 		.ascii	"s20\000"
 2070 054a 01       		.byte	0x1
 2071 054b 0301     		.2byte	0x103
 2072 054d D7040000 		.4byte	0x4d7
 2073 0551 10       		.byte	0x10
 2074 0552 08       		.uleb128 0x8
 2075 0553 73323100 		.ascii	"s21\000"
 2076 0557 01       		.byte	0x1
 2077 0558 0401     		.2byte	0x104
 2078 055a D7040000 		.4byte	0x4d7
 2079 055e 14       		.byte	0x14
 2080 055f 08       		.uleb128 0x8
 2081 0560 73323200 		.ascii	"s22\000"
 2082 0564 01       		.byte	0x1
 2083 0565 0501     		.2byte	0x105
 2084 0567 D7040000 		.4byte	0x4d7
 2085 056b 18       		.byte	0x18
 2086 056c 08       		.uleb128 0x8
 2087 056d 73323300 		.ascii	"s23\000"
 2088 0571 01       		.byte	0x1
ARM GAS  /tmp/ccPngymc.s 			page 38


 2089 0572 0601     		.2byte	0x106
 2090 0574 D7040000 		.4byte	0x4d7
 2091 0578 1C       		.byte	0x1c
 2092 0579 08       		.uleb128 0x8
 2093 057a 73323400 		.ascii	"s24\000"
 2094 057e 01       		.byte	0x1
 2095 057f 0701     		.2byte	0x107
 2096 0581 D7040000 		.4byte	0x4d7
 2097 0585 20       		.byte	0x20
 2098 0586 08       		.uleb128 0x8
 2099 0587 73323500 		.ascii	"s25\000"
 2100 058b 01       		.byte	0x1
 2101 058c 0801     		.2byte	0x108
 2102 058e D7040000 		.4byte	0x4d7
 2103 0592 24       		.byte	0x24
 2104 0593 08       		.uleb128 0x8
 2105 0594 73323600 		.ascii	"s26\000"
 2106 0598 01       		.byte	0x1
 2107 0599 0901     		.2byte	0x109
 2108 059b D7040000 		.4byte	0x4d7
 2109 059f 28       		.byte	0x28
 2110 05a0 08       		.uleb128 0x8
 2111 05a1 73323700 		.ascii	"s27\000"
 2112 05a5 01       		.byte	0x1
 2113 05a6 0A01     		.2byte	0x10a
 2114 05a8 D7040000 		.4byte	0x4d7
 2115 05ac 2C       		.byte	0x2c
 2116 05ad 08       		.uleb128 0x8
 2117 05ae 73323800 		.ascii	"s28\000"
 2118 05b2 01       		.byte	0x1
 2119 05b3 0B01     		.2byte	0x10b
 2120 05b5 D7040000 		.4byte	0x4d7
 2121 05b9 30       		.byte	0x30
 2122 05ba 08       		.uleb128 0x8
 2123 05bb 73323900 		.ascii	"s29\000"
 2124 05bf 01       		.byte	0x1
 2125 05c0 0C01     		.2byte	0x10c
 2126 05c2 D7040000 		.4byte	0x4d7
 2127 05c6 34       		.byte	0x34
 2128 05c7 08       		.uleb128 0x8
 2129 05c8 73333000 		.ascii	"s30\000"
 2130 05cc 01       		.byte	0x1
 2131 05cd 0D01     		.2byte	0x10d
 2132 05cf D7040000 		.4byte	0x4d7
 2133 05d3 38       		.byte	0x38
 2134 05d4 08       		.uleb128 0x8
 2135 05d5 73333100 		.ascii	"s31\000"
 2136 05d9 01       		.byte	0x1
 2137 05da 0E01     		.2byte	0x10e
 2138 05dc D7040000 		.4byte	0x4d7
 2139 05e0 3C       		.byte	0x3c
 2140 05e1 08       		.uleb128 0x8
 2141 05e2 723400   		.ascii	"r4\000"
 2142 05e5 01       		.byte	0x1
 2143 05e6 1001     		.2byte	0x110
 2144 05e8 D7040000 		.4byte	0x4d7
 2145 05ec 40       		.byte	0x40
ARM GAS  /tmp/ccPngymc.s 			page 39


 2146 05ed 08       		.uleb128 0x8
 2147 05ee 723500   		.ascii	"r5\000"
 2148 05f1 01       		.byte	0x1
 2149 05f2 1101     		.2byte	0x111
 2150 05f4 D7040000 		.4byte	0x4d7
 2151 05f8 44       		.byte	0x44
 2152 05f9 08       		.uleb128 0x8
 2153 05fa 723600   		.ascii	"r6\000"
 2154 05fd 01       		.byte	0x1
 2155 05fe 1201     		.2byte	0x112
 2156 0600 D7040000 		.4byte	0x4d7
 2157 0604 48       		.byte	0x48
 2158 0605 08       		.uleb128 0x8
 2159 0606 723700   		.ascii	"r7\000"
 2160 0609 01       		.byte	0x1
 2161 060a 1301     		.2byte	0x113
 2162 060c D7040000 		.4byte	0x4d7
 2163 0610 4C       		.byte	0x4c
 2164 0611 08       		.uleb128 0x8
 2165 0612 723800   		.ascii	"r8\000"
 2166 0615 01       		.byte	0x1
 2167 0616 1401     		.2byte	0x114
 2168 0618 D7040000 		.4byte	0x4d7
 2169 061c 50       		.byte	0x50
 2170 061d 08       		.uleb128 0x8
 2171 061e 723900   		.ascii	"r9\000"
 2172 0621 01       		.byte	0x1
 2173 0622 1501     		.2byte	0x115
 2174 0624 D7040000 		.4byte	0x4d7
 2175 0628 54       		.byte	0x54
 2176 0629 08       		.uleb128 0x8
 2177 062a 72313000 		.ascii	"r10\000"
 2178 062e 01       		.byte	0x1
 2179 062f 1601     		.2byte	0x116
 2180 0631 D7040000 		.4byte	0x4d7
 2181 0635 58       		.byte	0x58
 2182 0636 08       		.uleb128 0x8
 2183 0637 72313100 		.ascii	"r11\000"
 2184 063b 01       		.byte	0x1
 2185 063c 1701     		.2byte	0x117
 2186 063e D7040000 		.4byte	0x4d7
 2187 0642 5C       		.byte	0x5c
 2188 0643 08       		.uleb128 0x8
 2189 0644 6C7200   		.ascii	"lr\000"
 2190 0647 01       		.byte	0x1
 2191 0648 1801     		.2byte	0x118
 2192 064a D7040000 		.4byte	0x4d7
 2193 064e 60       		.byte	0x60
 2194 064f 00       		.byte	0
 2195 0650 0A       		.uleb128 0xa
 2196 0651 04       		.byte	0x4
 2197 0652 06050000 		.4byte	0x506
 2198 0656 13       		.uleb128 0x13
 2199 0657 04       		.byte	0x4
 2200 0658 0F       		.byte	0xf
 2201 0659 38       		.byte	0x38
 2202 065a 6B060000 		.4byte	0x66b
ARM GAS  /tmp/ccPngymc.s 			page 40


 2203 065e 07       		.uleb128 0x7
 2204 065f CF070000 		.4byte	.LASF95
 2205 0663 0F       		.byte	0xf
 2206 0664 3C       		.byte	0x3c
 2207 0665 E5000000 		.4byte	0xe5
 2208 0669 00       		.byte	0
 2209 066a 00       		.byte	0
 2210 066b 04       		.uleb128 0x4
 2211 066c 86050000 		.4byte	.LASF96
 2212 0670 0F       		.byte	0xf
 2213 0671 3D       		.byte	0x3d
 2214 0672 56060000 		.4byte	0x656
 2215 0676 13       		.uleb128 0x13
 2216 0677 18       		.byte	0x18
 2217 0678 0F       		.byte	0xf
 2218 0679 48       		.byte	0x48
 2219 067a B9060000 		.4byte	0x6b9
 2220 067e 07       		.uleb128 0x7
 2221 067f 82070000 		.4byte	.LASF97
 2222 0683 0F       		.byte	0xf
 2223 0684 49       		.byte	0x49
 2224 0685 E5000000 		.4byte	0xe5
 2225 0689 00       		.byte	0
 2226 068a 07       		.uleb128 0x7
 2227 068b A5000000 		.4byte	.LASF98
 2228 068f 0F       		.byte	0xf
 2229 0690 4A       		.byte	0x4a
 2230 0691 E5000000 		.4byte	0xe5
 2231 0695 04       		.byte	0x4
 2232 0696 07       		.uleb128 0x7
 2233 0697 6E040000 		.4byte	.LASF99
 2234 069b 0F       		.byte	0xf
 2235 069c 4B       		.byte	0x4b
 2236 069d E5000000 		.4byte	0xe5
 2237 06a1 08       		.byte	0x8
 2238 06a2 12       		.uleb128 0x12
 2239 06a3 6E00     		.ascii	"n\000"
 2240 06a5 0F       		.byte	0xf
 2241 06a6 4C       		.byte	0x4c
 2242 06a7 48010000 		.4byte	0x148
 2243 06ab 0C       		.byte	0xc
 2244 06ac 07       		.uleb128 0x7
 2245 06ad BE050000 		.4byte	.LASF100
 2246 06b1 0F       		.byte	0xf
 2247 06b2 4D       		.byte	0x4d
 2248 06b3 F0000000 		.4byte	0xf0
 2249 06b7 10       		.byte	0x10
 2250 06b8 00       		.byte	0
 2251 06b9 04       		.uleb128 0x4
 2252 06ba AB000000 		.4byte	.LASF101
 2253 06be 0F       		.byte	0xf
 2254 06bf 4E       		.byte	0x4e
 2255 06c0 76060000 		.4byte	0x676
 2256 06c4 13       		.uleb128 0x13
 2257 06c5 38       		.byte	0x38
 2258 06c6 10       		.byte	0x10
 2259 06c7 38       		.byte	0x38
ARM GAS  /tmp/ccPngymc.s 			page 41


 2260 06c8 FD060000 		.4byte	0x6fd
 2261 06cc 07       		.uleb128 0x7
 2262 06cd 22040000 		.4byte	.LASF102
 2263 06d1 10       		.byte	0x10
 2264 06d2 39       		.byte	0x39
 2265 06d3 48010000 		.4byte	0x148
 2266 06d7 00       		.byte	0
 2267 06d8 07       		.uleb128 0x7
 2268 06d9 02060000 		.4byte	.LASF103
 2269 06dd 10       		.byte	0x10
 2270 06de 3A       		.byte	0x3a
 2271 06df 48010000 		.4byte	0x148
 2272 06e3 04       		.byte	0x4
 2273 06e4 07       		.uleb128 0x7
 2274 06e5 B0080000 		.4byte	.LASF104
 2275 06e9 10       		.byte	0x10
 2276 06ea 3B       		.byte	0x3b
 2277 06eb B9060000 		.4byte	0x6b9
 2278 06ef 08       		.byte	0x8
 2279 06f0 07       		.uleb128 0x7
 2280 06f1 A5040000 		.4byte	.LASF105
 2281 06f5 10       		.byte	0x10
 2282 06f6 3D       		.byte	0x3d
 2283 06f7 B9060000 		.4byte	0x6b9
 2284 06fb 20       		.byte	0x20
 2285 06fc 00       		.byte	0
 2286 06fd 04       		.uleb128 0x4
 2287 06fe 39040000 		.4byte	.LASF106
 2288 0702 10       		.byte	0x10
 2289 0703 3F       		.byte	0x3f
 2290 0704 C4060000 		.4byte	0x6c4
 2291 0708 14       		.uleb128 0x14
 2292 0709 04       		.byte	0x4
 2293 070a 03       		.byte	0x3
 2294 070b FA       		.byte	0xfa
 2295 070c 65070000 		.4byte	0x765
 2296 0710 15       		.uleb128 0x15
 2297 0711 2F000000 		.4byte	.LASF107
 2298 0715 03       		.byte	0x3
 2299 0716 0101     		.2byte	0x101
 2300 0718 27010000 		.4byte	0x127
 2301 071c 15       		.uleb128 0x15
 2302 071d F0000000 		.4byte	.LASF108
 2303 0721 03       		.byte	0x3
 2304 0722 0801     		.2byte	0x108
 2305 0724 27010000 		.4byte	0x127
 2306 0728 15       		.uleb128 0x15
 2307 0729 62080000 		.4byte	.LASF109
 2308 072d 03       		.byte	0x3
 2309 072e 0F01     		.2byte	0x10f
 2310 0730 5C030000 		.4byte	0x35c
 2311 0734 15       		.uleb128 0x15
 2312 0735 29000000 		.4byte	.LASF110
 2313 0739 03       		.byte	0x3
 2314 073a 1601     		.2byte	0x116
 2315 073c 65070000 		.4byte	0x765
 2316 0740 15       		.uleb128 0x15
ARM GAS  /tmp/ccPngymc.s 			page 42


 2317 0741 F6030000 		.4byte	.LASF111
 2318 0745 03       		.byte	0x3
 2319 0746 1E01     		.2byte	0x11e
 2320 0748 90070000 		.4byte	0x790
 2321 074c 15       		.uleb128 0x15
 2322 074d 61070000 		.4byte	.LASF112
 2323 0751 03       		.byte	0x3
 2324 0752 2701     		.2byte	0x127
 2325 0754 C7070000 		.4byte	0x7c7
 2326 0758 15       		.uleb128 0x15
 2327 0759 70060000 		.4byte	.LASF113
 2328 075d 03       		.byte	0x3
 2329 075e 2F01     		.2byte	0x12f
 2330 0760 32010000 		.4byte	0x132
 2331 0764 00       		.byte	0
 2332 0765 0A       		.uleb128 0xa
 2333 0766 04       		.byte	0x4
 2334 0767 74020000 		.4byte	0x274
 2335 076b 06       		.uleb128 0x6
 2336 076c C2060000 		.4byte	.LASF114
 2337 0770 0C       		.byte	0xc
 2338 0771 11       		.byte	0x11
 2339 0772 34       		.byte	0x34
 2340 0773 90070000 		.4byte	0x790
 2341 0777 07       		.uleb128 0x7
 2342 0778 E4020000 		.4byte	.LASF115
 2343 077c 11       		.byte	0x11
 2344 077d 35       		.byte	0x35
 2345 077e A9020000 		.4byte	0x2a9
 2346 0782 00       		.byte	0
 2347 0783 07       		.uleb128 0x7
 2348 0784 28040000 		.4byte	.LASF116
 2349 0788 11       		.byte	0x11
 2350 0789 37       		.byte	0x37
 2351 078a 3D010000 		.4byte	0x13d
 2352 078e 08       		.byte	0x8
 2353 078f 00       		.byte	0
 2354 0790 0A       		.uleb128 0xa
 2355 0791 04       		.byte	0x4
 2356 0792 6B070000 		.4byte	0x76b
 2357 0796 06       		.uleb128 0x6
 2358 0797 06080000 		.4byte	.LASF117
 2359 079b 10       		.byte	0x10
 2360 079c 12       		.byte	0x12
 2361 079d 39       		.byte	0x39
 2362 079e C7070000 		.4byte	0x7c7
 2363 07a2 07       		.uleb128 0x7
 2364 07a3 83010000 		.4byte	.LASF118
 2365 07a7 12       		.byte	0x12
 2366 07a8 3A       		.byte	0x3a
 2367 07a9 A9020000 		.4byte	0x2a9
 2368 07ad 00       		.byte	0
 2369 07ae 07       		.uleb128 0x7
 2370 07af BB080000 		.4byte	.LASF119
 2371 07b3 12       		.byte	0x12
 2372 07b4 3C       		.byte	0x3c
 2373 07b5 7F020000 		.4byte	0x27f
ARM GAS  /tmp/ccPngymc.s 			page 43


 2374 07b9 08       		.byte	0x8
 2375 07ba 07       		.uleb128 0x7
 2376 07bb 87070000 		.4byte	.LASF120
 2377 07bf 12       		.byte	0x12
 2378 07c0 3E       		.byte	0x3e
 2379 07c1 22090000 		.4byte	0x922
 2380 07c5 0C       		.byte	0xc
 2381 07c6 00       		.byte	0
 2382 07c7 0A       		.uleb128 0xa
 2383 07c8 04       		.byte	0x4
 2384 07c9 96070000 		.4byte	0x796
 2385 07cd 0A       		.uleb128 0xa
 2386 07ce 04       		.byte	0x4
 2387 07cf DF070000 		.4byte	0x7df
 2388 07d3 05       		.uleb128 0x5
 2389 07d4 CD070000 		.4byte	0x7cd
 2390 07d8 03       		.uleb128 0x3
 2391 07d9 01       		.byte	0x1
 2392 07da 08       		.byte	0x8
 2393 07db 5C070000 		.4byte	.LASF121
 2394 07df 16       		.uleb128 0x16
 2395 07e0 D8070000 		.4byte	0x7d8
 2396 07e4 0A       		.uleb128 0xa
 2397 07e5 04       		.byte	0x4
 2398 07e6 E2040000 		.4byte	0x4e2
 2399 07ea 0A       		.uleb128 0xa
 2400 07eb 04       		.byte	0x4
 2401 07ec 5E030000 		.4byte	0x35e
 2402 07f0 17       		.uleb128 0x17
 2403 07f1 E2040000 		.4byte	0x4e2
 2404 07f5 00080000 		.4byte	0x800
 2405 07f9 18       		.uleb128 0x18
 2406 07fa B9040000 		.4byte	0x4b9
 2407 07fe 2F       		.byte	0x2f
 2408 07ff 00       		.byte	0
 2409 0800 19       		.uleb128 0x19
 2410 0801 636800   		.ascii	"ch\000"
 2411 0804 03       		.byte	0x3
 2412 0805 0902     		.2byte	0x209
 2413 0807 45040000 		.4byte	0x445
 2414 080b 13       		.uleb128 0x13
 2415 080c 16       		.byte	0x16
 2416 080d 13       		.byte	0x13
 2417 080e 34       		.byte	0x34
 2418 080f EC080000 		.4byte	0x8ec
 2419 0813 07       		.uleb128 0x7
 2420 0814 C3080000 		.4byte	.LASF122
 2421 0818 13       		.byte	0x13
 2422 0819 35       		.byte	0x35
 2423 081a EC080000 		.4byte	0x8ec
 2424 081e 00       		.byte	0
 2425 081f 07       		.uleb128 0x7
 2426 0820 F3040000 		.4byte	.LASF123
 2427 0824 13       		.byte	0x13
 2428 0825 36       		.byte	0x36
 2429 0826 A9000000 		.4byte	0xa9
 2430 082a 04       		.byte	0x4
ARM GAS  /tmp/ccPngymc.s 			page 44


 2431 082b 07       		.uleb128 0x7
 2432 082c 42070000 		.4byte	.LASF124
 2433 0830 13       		.byte	0x13
 2434 0831 37       		.byte	0x37
 2435 0832 A9000000 		.4byte	0xa9
 2436 0836 05       		.byte	0x5
 2437 0837 07       		.uleb128 0x7
 2438 0838 9B080000 		.4byte	.LASF125
 2439 083c 13       		.byte	0x13
 2440 083d 38       		.byte	0x38
 2441 083e B4000000 		.4byte	0xb4
 2442 0842 06       		.byte	0x6
 2443 0843 07       		.uleb128 0x7
 2444 0844 D8050000 		.4byte	.LASF126
 2445 0848 13       		.byte	0x13
 2446 0849 39       		.byte	0x39
 2447 084a A9000000 		.4byte	0xa9
 2448 084e 08       		.byte	0x8
 2449 084f 07       		.uleb128 0x7
 2450 0850 50050000 		.4byte	.LASF127
 2451 0854 13       		.byte	0x13
 2452 0855 3A       		.byte	0x3a
 2453 0856 A9000000 		.4byte	0xa9
 2454 085a 09       		.byte	0x9
 2455 085b 07       		.uleb128 0x7
 2456 085c 56000000 		.4byte	.LASF128
 2457 0860 13       		.byte	0x13
 2458 0861 3B       		.byte	0x3b
 2459 0862 A9000000 		.4byte	0xa9
 2460 0866 0A       		.byte	0xa
 2461 0867 07       		.uleb128 0x7
 2462 0868 1E070000 		.4byte	.LASF129
 2463 086c 13       		.byte	0x13
 2464 086d 3C       		.byte	0x3c
 2465 086e A9000000 		.4byte	0xa9
 2466 0872 0B       		.byte	0xb
 2467 0873 07       		.uleb128 0x7
 2468 0874 FB070000 		.4byte	.LASF130
 2469 0878 13       		.byte	0x13
 2470 0879 3D       		.byte	0x3d
 2471 087a A9000000 		.4byte	0xa9
 2472 087e 0C       		.byte	0xc
 2473 087f 07       		.uleb128 0x7
 2474 0880 F0060000 		.4byte	.LASF131
 2475 0884 13       		.byte	0x13
 2476 0885 3E       		.byte	0x3e
 2477 0886 A9000000 		.4byte	0xa9
 2478 088a 0D       		.byte	0xd
 2479 088b 07       		.uleb128 0x7
 2480 088c 00000000 		.4byte	.LASF132
 2481 0890 13       		.byte	0x13
 2482 0891 3F       		.byte	0x3f
 2483 0892 A9000000 		.4byte	0xa9
 2484 0896 0E       		.byte	0xe
 2485 0897 07       		.uleb128 0x7
 2486 0898 66050000 		.4byte	.LASF133
 2487 089c 13       		.byte	0x13
ARM GAS  /tmp/ccPngymc.s 			page 45


 2488 089d 40       		.byte	0x40
 2489 089e A9000000 		.4byte	0xa9
 2490 08a2 0F       		.byte	0xf
 2491 08a3 07       		.uleb128 0x7
 2492 08a4 5E010000 		.4byte	.LASF134
 2493 08a8 13       		.byte	0x13
 2494 08a9 41       		.byte	0x41
 2495 08aa A9000000 		.4byte	0xa9
 2496 08ae 10       		.byte	0x10
 2497 08af 07       		.uleb128 0x7
 2498 08b0 37010000 		.4byte	.LASF135
 2499 08b4 13       		.byte	0x13
 2500 08b5 43       		.byte	0x43
 2501 08b6 A9000000 		.4byte	0xa9
 2502 08ba 11       		.byte	0x11
 2503 08bb 07       		.uleb128 0x7
 2504 08bc 6E010000 		.4byte	.LASF136
 2505 08c0 13       		.byte	0x13
 2506 08c1 44       		.byte	0x44
 2507 08c2 A9000000 		.4byte	0xa9
 2508 08c6 12       		.byte	0x12
 2509 08c7 07       		.uleb128 0x7
 2510 08c8 FB040000 		.4byte	.LASF137
 2511 08cc 13       		.byte	0x13
 2512 08cd 45       		.byte	0x45
 2513 08ce A9000000 		.4byte	0xa9
 2514 08d2 13       		.byte	0x13
 2515 08d3 07       		.uleb128 0x7
 2516 08d4 86060000 		.4byte	.LASF138
 2517 08d8 13       		.byte	0x13
 2518 08d9 46       		.byte	0x46
 2519 08da A9000000 		.4byte	0xa9
 2520 08de 14       		.byte	0x14
 2521 08df 07       		.uleb128 0x7
 2522 08e0 99040000 		.4byte	.LASF139
 2523 08e4 13       		.byte	0x13
 2524 08e5 48       		.byte	0x48
 2525 08e6 A9000000 		.4byte	0xa9
 2526 08ea 15       		.byte	0x15
 2527 08eb 00       		.byte	0
 2528 08ec 17       		.uleb128 0x17
 2529 08ed D8070000 		.4byte	0x7d8
 2530 08f1 FC080000 		.4byte	0x8fc
 2531 08f5 18       		.uleb128 0x18
 2532 08f6 B9040000 		.4byte	0x4b9
 2533 08fa 03       		.byte	0x3
 2534 08fb 00       		.byte	0
 2535 08fc 04       		.uleb128 0x4
 2536 08fd D2020000 		.4byte	.LASF140
 2537 0901 13       		.byte	0x13
 2538 0902 49       		.byte	0x49
 2539 0903 0B080000 		.4byte	0x80b
 2540 0907 16       		.uleb128 0x16
 2541 0908 FC080000 		.4byte	0x8fc
 2542 090c 11       		.uleb128 0x11
 2543 090d 11040000 		.4byte	.LASF141
 2544 0911 13       		.byte	0x13
ARM GAS  /tmp/ccPngymc.s 			page 46


 2545 0912 6E       		.byte	0x6e
 2546 0913 07090000 		.4byte	0x907
 2547 0917 04       		.uleb128 0x4
 2548 0918 4D030000 		.4byte	.LASF142
 2549 091c 12       		.byte	0x12
 2550 091d 34       		.byte	0x34
 2551 091e 96070000 		.4byte	0x796
 2552 0922 0A       		.uleb128 0xa
 2553 0923 04       		.byte	0x4
 2554 0924 17090000 		.4byte	0x917
 2555 0928 13       		.uleb128 0x13
 2556 0929 28       		.byte	0x28
 2557 092a 06       		.byte	0x6
 2558 092b 34       		.byte	0x34
 2559 092c 91090000 		.4byte	0x991
 2560 0930 07       		.uleb128 0x7
 2561 0931 97050000 		.4byte	.LASF143
 2562 0935 06       		.byte	0x6
 2563 0936 35       		.byte	0x35
 2564 0937 91090000 		.4byte	0x991
 2565 093b 00       		.byte	0
 2566 093c 07       		.uleb128 0x7
 2567 093d 39060000 		.4byte	.LASF144
 2568 0941 06       		.byte	0x6
 2569 0942 37       		.byte	0x37
 2570 0943 91090000 		.4byte	0x991
 2571 0947 04       		.byte	0x4
 2572 0948 07       		.uleb128 0x7
 2573 0949 1E010000 		.4byte	.LASF145
 2574 094d 06       		.byte	0x6
 2575 094e 39       		.byte	0x39
 2576 094f 91090000 		.4byte	0x991
 2577 0953 08       		.byte	0x8
 2578 0954 07       		.uleb128 0x7
 2579 0955 1D030000 		.4byte	.LASF146
 2580 0959 06       		.byte	0x6
 2581 095a 3A       		.byte	0x3a
 2582 095b 91090000 		.4byte	0x991
 2583 095f 0C       		.byte	0xc
 2584 0960 07       		.uleb128 0x7
 2585 0961 C9050000 		.4byte	.LASF147
 2586 0965 06       		.byte	0x6
 2587 0966 3B       		.byte	0x3b
 2588 0967 3D010000 		.4byte	0x13d
 2589 096b 10       		.byte	0x10
 2590 096c 07       		.uleb128 0x7
 2591 096d 1E080000 		.4byte	.LASF148
 2592 0971 06       		.byte	0x6
 2593 0972 3C       		.byte	0x3c
 2594 0973 97090000 		.4byte	0x997
 2595 0977 14       		.byte	0x14
 2596 0978 07       		.uleb128 0x7
 2597 0979 EA000000 		.4byte	.LASF149
 2598 097d 06       		.byte	0x6
 2599 097e 3D       		.byte	0x3d
 2600 097f A9020000 		.4byte	0x2a9
 2601 0983 18       		.byte	0x18
ARM GAS  /tmp/ccPngymc.s 			page 47


 2602 0984 07       		.uleb128 0x7
 2603 0985 CD000000 		.4byte	.LASF150
 2604 0989 06       		.byte	0x6
 2605 098a 3E       		.byte	0x3e
 2606 098b A9020000 		.4byte	0x2a9
 2607 098f 20       		.byte	0x20
 2608 0990 00       		.byte	0
 2609 0991 0A       		.uleb128 0xa
 2610 0992 04       		.byte	0x4
 2611 0993 27010000 		.4byte	0x127
 2612 0997 03       		.uleb128 0x3
 2613 0998 01       		.byte	0x1
 2614 0999 02       		.byte	0x2
 2615 099a 0B060000 		.4byte	.LASF151
 2616 099e 04       		.uleb128 0x4
 2617 099f 85080000 		.4byte	.LASF152
 2618 09a3 06       		.byte	0x6
 2619 09a4 3F       		.byte	0x3f
 2620 09a5 28090000 		.4byte	0x928
 2621 09a9 1A       		.uleb128 0x1a
 2622 09aa 5D040000 		.4byte	.LASF154
 2623 09ae 07       		.byte	0x7
 2624 09af EC01     		.2byte	0x1ec
 2625 09b1 27010000 		.4byte	0x127
 2626 09b5 00000000 		.4byte	.LFB242
 2627 09b9 88000000 		.4byte	.LFE242-.LFB242
 2628 09bd 01       		.uleb128 0x1
 2629 09be 9C       		.byte	0x9c
 2630 09bf F1090000 		.4byte	0x9f1
 2631 09c3 1B       		.uleb128 0x1b
 2632 09c4 6D627000 		.ascii	"mbp\000"
 2633 09c8 07       		.byte	0x7
 2634 09c9 EC01     		.2byte	0x1ec
 2635 09cb F1090000 		.4byte	0x9f1
 2636 09cf 02       		.uleb128 0x2
 2637 09d0 91       		.byte	0x91
 2638 09d1 74       		.sleb128 -12
 2639 09d2 1C       		.uleb128 0x1c
 2640 09d3 D4040000 		.4byte	.LASF153
 2641 09d7 07       		.byte	0x7
 2642 09d8 EC01     		.2byte	0x1ec
 2643 09da 91090000 		.4byte	0x991
 2644 09de 02       		.uleb128 0x2
 2645 09df 91       		.byte	0x91
 2646 09e0 70       		.sleb128 -16
 2647 09e1 1D       		.uleb128 0x1d
 2648 09e2 9D060000 		.4byte	.LASF157
 2649 09e6 070A0000 		.4byte	0xa07
 2650 09ea 05       		.uleb128 0x5
 2651 09eb 03       		.byte	0x3
 2652 09ec 00000000 		.4byte	__func__.7926
 2653 09f0 00       		.byte	0
 2654 09f1 0A       		.uleb128 0xa
 2655 09f2 04       		.byte	0x4
 2656 09f3 9E090000 		.4byte	0x99e
 2657 09f7 17       		.uleb128 0x17
 2658 09f8 DF070000 		.4byte	0x7df
ARM GAS  /tmp/ccPngymc.s 			page 48


 2659 09fc 070A0000 		.4byte	0xa07
 2660 0a00 18       		.uleb128 0x18
 2661 0a01 B9040000 		.4byte	0x4b9
 2662 0a05 0A       		.byte	0xa
 2663 0a06 00       		.byte	0
 2664 0a07 16       		.uleb128 0x16
 2665 0a08 F7090000 		.4byte	0x9f7
 2666 0a0c 1A       		.uleb128 0x1a
 2667 0a0d 8E040000 		.4byte	.LASF155
 2668 0a11 07       		.byte	0x7
 2669 0a12 BB01     		.2byte	0x1bb
 2670 0a14 27010000 		.4byte	0x127
 2671 0a18 00000000 		.4byte	.LFB241
 2672 0a1c A0000000 		.4byte	.LFE241-.LFB241
 2673 0a20 01       		.uleb128 0x1
 2674 0a21 9C       		.byte	0x9c
 2675 0a22 720A0000 		.4byte	0xa72
 2676 0a26 1B       		.uleb128 0x1b
 2677 0a27 6D627000 		.ascii	"mbp\000"
 2678 0a2b 07       		.byte	0x7
 2679 0a2c BB01     		.2byte	0x1bb
 2680 0a2e F1090000 		.4byte	0x9f1
 2681 0a32 02       		.uleb128 0x2
 2682 0a33 91       		.byte	0x91
 2683 0a34 6C       		.sleb128 -20
 2684 0a35 1C       		.uleb128 0x1c
 2685 0a36 D4040000 		.4byte	.LASF153
 2686 0a3a 07       		.byte	0x7
 2687 0a3b BB01     		.2byte	0x1bb
 2688 0a3d 91090000 		.4byte	0x991
 2689 0a41 02       		.uleb128 0x2
 2690 0a42 91       		.byte	0x91
 2691 0a43 68       		.sleb128 -24
 2692 0a44 1C       		.uleb128 0x1c
 2693 0a45 1A040000 		.4byte	.LASF156
 2694 0a49 07       		.byte	0x7
 2695 0a4a BB01     		.2byte	0x1bb
 2696 0a4c 53010000 		.4byte	0x153
 2697 0a50 02       		.uleb128 0x2
 2698 0a51 91       		.byte	0x91
 2699 0a52 64       		.sleb128 -28
 2700 0a53 1E       		.uleb128 0x1e
 2701 0a54 2F000000 		.4byte	.LASF107
 2702 0a58 07       		.byte	0x7
 2703 0a59 BC01     		.2byte	0x1bc
 2704 0a5b 27010000 		.4byte	0x127
 2705 0a5f 02       		.uleb128 0x2
 2706 0a60 91       		.byte	0x91
 2707 0a61 74       		.sleb128 -12
 2708 0a62 1D       		.uleb128 0x1d
 2709 0a63 9D060000 		.4byte	.LASF157
 2710 0a67 070A0000 		.4byte	0xa07
 2711 0a6b 05       		.uleb128 0x5
 2712 0a6c 03       		.byte	0x3
 2713 0a6d 00000000 		.4byte	__func__.7919
 2714 0a71 00       		.byte	0
 2715 0a72 1A       		.uleb128 0x1a
ARM GAS  /tmp/ccPngymc.s 			page 49


 2716 0a73 46050000 		.4byte	.LASF158
 2717 0a77 07       		.byte	0x7
 2718 0a78 9E01     		.2byte	0x19e
 2719 0a7a 27010000 		.4byte	0x127
 2720 0a7e 00000000 		.4byte	.LFB240
 2721 0a82 28000000 		.4byte	.LFE240-.LFB240
 2722 0a86 01       		.uleb128 0x1
 2723 0a87 9C       		.byte	0x9c
 2724 0a88 C90A0000 		.4byte	0xac9
 2725 0a8c 1B       		.uleb128 0x1b
 2726 0a8d 6D627000 		.ascii	"mbp\000"
 2727 0a91 07       		.byte	0x7
 2728 0a92 9E01     		.2byte	0x19e
 2729 0a94 F1090000 		.4byte	0x9f1
 2730 0a98 02       		.uleb128 0x2
 2731 0a99 91       		.byte	0x91
 2732 0a9a 6C       		.sleb128 -20
 2733 0a9b 1C       		.uleb128 0x1c
 2734 0a9c D4040000 		.4byte	.LASF153
 2735 0aa0 07       		.byte	0x7
 2736 0aa1 9E01     		.2byte	0x19e
 2737 0aa3 91090000 		.4byte	0x991
 2738 0aa7 02       		.uleb128 0x2
 2739 0aa8 91       		.byte	0x91
 2740 0aa9 68       		.sleb128 -24
 2741 0aaa 1C       		.uleb128 0x1c
 2742 0aab 1A040000 		.4byte	.LASF156
 2743 0aaf 07       		.byte	0x7
 2744 0ab0 9E01     		.2byte	0x19e
 2745 0ab2 53010000 		.4byte	0x153
 2746 0ab6 02       		.uleb128 0x2
 2747 0ab7 91       		.byte	0x91
 2748 0ab8 64       		.sleb128 -28
 2749 0ab9 1E       		.uleb128 0x1e
 2750 0aba 2F000000 		.4byte	.LASF107
 2751 0abe 07       		.byte	0x7
 2752 0abf 9F01     		.2byte	0x19f
 2753 0ac1 27010000 		.4byte	0x127
 2754 0ac5 02       		.uleb128 0x2
 2755 0ac6 91       		.byte	0x91
 2756 0ac7 74       		.sleb128 -12
 2757 0ac8 00       		.byte	0
 2758 0ac9 1A       		.uleb128 0x1a
 2759 0aca BE000000 		.4byte	.LASF159
 2760 0ace 07       		.byte	0x7
 2761 0acf 6F01     		.2byte	0x16f
 2762 0ad1 27010000 		.4byte	0x127
 2763 0ad5 00000000 		.4byte	.LFB239
 2764 0ad9 84000000 		.4byte	.LFE239-.LFB239
 2765 0add 01       		.uleb128 0x1
 2766 0ade 9C       		.byte	0x9c
 2767 0adf 110B0000 		.4byte	0xb11
 2768 0ae3 1B       		.uleb128 0x1b
 2769 0ae4 6D627000 		.ascii	"mbp\000"
 2770 0ae8 07       		.byte	0x7
 2771 0ae9 6F01     		.2byte	0x16f
 2772 0aeb F1090000 		.4byte	0x9f1
ARM GAS  /tmp/ccPngymc.s 			page 50


 2773 0aef 02       		.uleb128 0x2
 2774 0af0 91       		.byte	0x91
 2775 0af1 74       		.sleb128 -12
 2776 0af2 1B       		.uleb128 0x1b
 2777 0af3 6D736700 		.ascii	"msg\000"
 2778 0af7 07       		.byte	0x7
 2779 0af8 6F01     		.2byte	0x16f
 2780 0afa 27010000 		.4byte	0x127
 2781 0afe 02       		.uleb128 0x2
 2782 0aff 91       		.byte	0x91
 2783 0b00 70       		.sleb128 -16
 2784 0b01 1D       		.uleb128 0x1d
 2785 0b02 9D060000 		.4byte	.LASF157
 2786 0b06 210B0000 		.4byte	0xb21
 2787 0b0a 05       		.uleb128 0x5
 2788 0b0b 03       		.byte	0x3
 2789 0b0c 00000000 		.4byte	__func__.7906
 2790 0b10 00       		.byte	0
 2791 0b11 17       		.uleb128 0x17
 2792 0b12 DF070000 		.4byte	0x7df
 2793 0b16 210B0000 		.4byte	0xb21
 2794 0b1a 18       		.uleb128 0x18
 2795 0b1b B9040000 		.4byte	0x4b9
 2796 0b1f 0E       		.byte	0xe
 2797 0b20 00       		.byte	0
 2798 0b21 16       		.uleb128 0x16
 2799 0b22 110B0000 		.4byte	0xb11
 2800 0b26 1A       		.uleb128 0x1a
 2801 0b27 F9000000 		.4byte	.LASF160
 2802 0b2b 07       		.byte	0x7
 2803 0b2c 3E01     		.2byte	0x13e
 2804 0b2e 27010000 		.4byte	0x127
 2805 0b32 00000000 		.4byte	.LFB238
 2806 0b36 9C000000 		.4byte	.LFE238-.LFB238
 2807 0b3a 01       		.uleb128 0x1
 2808 0b3b 9C       		.byte	0x9c
 2809 0b3c 8C0B0000 		.4byte	0xb8c
 2810 0b40 1B       		.uleb128 0x1b
 2811 0b41 6D627000 		.ascii	"mbp\000"
 2812 0b45 07       		.byte	0x7
 2813 0b46 3E01     		.2byte	0x13e
 2814 0b48 F1090000 		.4byte	0x9f1
 2815 0b4c 02       		.uleb128 0x2
 2816 0b4d 91       		.byte	0x91
 2817 0b4e 6C       		.sleb128 -20
 2818 0b4f 1B       		.uleb128 0x1b
 2819 0b50 6D736700 		.ascii	"msg\000"
 2820 0b54 07       		.byte	0x7
 2821 0b55 3E01     		.2byte	0x13e
 2822 0b57 27010000 		.4byte	0x127
 2823 0b5b 02       		.uleb128 0x2
 2824 0b5c 91       		.byte	0x91
 2825 0b5d 68       		.sleb128 -24
 2826 0b5e 1C       		.uleb128 0x1c
 2827 0b5f 1A040000 		.4byte	.LASF156
 2828 0b63 07       		.byte	0x7
 2829 0b64 3E01     		.2byte	0x13e
ARM GAS  /tmp/ccPngymc.s 			page 51


 2830 0b66 53010000 		.4byte	0x153
 2831 0b6a 02       		.uleb128 0x2
 2832 0b6b 91       		.byte	0x91
 2833 0b6c 64       		.sleb128 -28
 2834 0b6d 1E       		.uleb128 0x1e
 2835 0b6e 2F000000 		.4byte	.LASF107
 2836 0b72 07       		.byte	0x7
 2837 0b73 3F01     		.2byte	0x13f
 2838 0b75 27010000 		.4byte	0x127
 2839 0b79 02       		.uleb128 0x2
 2840 0b7a 91       		.byte	0x91
 2841 0b7b 74       		.sleb128 -12
 2842 0b7c 1D       		.uleb128 0x1d
 2843 0b7d 9D060000 		.4byte	.LASF157
 2844 0b81 210B0000 		.4byte	0xb21
 2845 0b85 05       		.uleb128 0x5
 2846 0b86 03       		.byte	0x3
 2847 0b87 00000000 		.4byte	__func__.7899
 2848 0b8b 00       		.byte	0
 2849 0b8c 1A       		.uleb128 0x1a
 2850 0b8d DE070000 		.4byte	.LASF161
 2851 0b91 07       		.byte	0x7
 2852 0b92 2101     		.2byte	0x121
 2853 0b94 27010000 		.4byte	0x127
 2854 0b98 00000000 		.4byte	.LFB237
 2855 0b9c 28000000 		.4byte	.LFE237-.LFB237
 2856 0ba0 01       		.uleb128 0x1
 2857 0ba1 9C       		.byte	0x9c
 2858 0ba2 E30B0000 		.4byte	0xbe3
 2859 0ba6 1B       		.uleb128 0x1b
 2860 0ba7 6D627000 		.ascii	"mbp\000"
 2861 0bab 07       		.byte	0x7
 2862 0bac 2101     		.2byte	0x121
 2863 0bae F1090000 		.4byte	0x9f1
 2864 0bb2 02       		.uleb128 0x2
 2865 0bb3 91       		.byte	0x91
 2866 0bb4 6C       		.sleb128 -20
 2867 0bb5 1B       		.uleb128 0x1b
 2868 0bb6 6D736700 		.ascii	"msg\000"
 2869 0bba 07       		.byte	0x7
 2870 0bbb 2101     		.2byte	0x121
 2871 0bbd 27010000 		.4byte	0x127
 2872 0bc1 02       		.uleb128 0x2
 2873 0bc2 91       		.byte	0x91
 2874 0bc3 68       		.sleb128 -24
 2875 0bc4 1C       		.uleb128 0x1c
 2876 0bc5 1A040000 		.4byte	.LASF156
 2877 0bc9 07       		.byte	0x7
 2878 0bca 2101     		.2byte	0x121
 2879 0bcc 53010000 		.4byte	0x153
 2880 0bd0 02       		.uleb128 0x2
 2881 0bd1 91       		.byte	0x91
 2882 0bd2 64       		.sleb128 -28
 2883 0bd3 1E       		.uleb128 0x1e
 2884 0bd4 2F000000 		.4byte	.LASF107
 2885 0bd8 07       		.byte	0x7
 2886 0bd9 2201     		.2byte	0x122
ARM GAS  /tmp/ccPngymc.s 			page 52


 2887 0bdb 27010000 		.4byte	0x127
 2888 0bdf 02       		.uleb128 0x2
 2889 0be0 91       		.byte	0x91
 2890 0be1 74       		.sleb128 -12
 2891 0be2 00       		.byte	0
 2892 0be3 1F       		.uleb128 0x1f
 2893 0be4 70080000 		.4byte	.LASF162
 2894 0be8 07       		.byte	0x7
 2895 0be9 F2       		.byte	0xf2
 2896 0bea 27010000 		.4byte	0x127
 2897 0bee 00000000 		.4byte	.LFB236
 2898 0bf2 80000000 		.4byte	.LFE236-.LFB236
 2899 0bf6 01       		.uleb128 0x1
 2900 0bf7 9C       		.byte	0x9c
 2901 0bf8 280C0000 		.4byte	0xc28
 2902 0bfc 20       		.uleb128 0x20
 2903 0bfd 6D627000 		.ascii	"mbp\000"
 2904 0c01 07       		.byte	0x7
 2905 0c02 F2       		.byte	0xf2
 2906 0c03 F1090000 		.4byte	0x9f1
 2907 0c07 02       		.uleb128 0x2
 2908 0c08 91       		.byte	0x91
 2909 0c09 74       		.sleb128 -12
 2910 0c0a 20       		.uleb128 0x20
 2911 0c0b 6D736700 		.ascii	"msg\000"
 2912 0c0f 07       		.byte	0x7
 2913 0c10 F2       		.byte	0xf2
 2914 0c11 27010000 		.4byte	0x127
 2915 0c15 02       		.uleb128 0x2
 2916 0c16 91       		.byte	0x91
 2917 0c17 70       		.sleb128 -16
 2918 0c18 1D       		.uleb128 0x1d
 2919 0c19 9D060000 		.4byte	.LASF157
 2920 0c1d 380C0000 		.4byte	0xc38
 2921 0c21 05       		.uleb128 0x5
 2922 0c22 03       		.byte	0x3
 2923 0c23 00000000 		.4byte	__func__.7886
 2924 0c27 00       		.byte	0
 2925 0c28 17       		.uleb128 0x17
 2926 0c29 DF070000 		.4byte	0x7df
 2927 0c2d 380C0000 		.4byte	0xc38
 2928 0c31 18       		.uleb128 0x18
 2929 0c32 B9040000 		.4byte	0x4b9
 2930 0c36 09       		.byte	0x9
 2931 0c37 00       		.byte	0
 2932 0c38 16       		.uleb128 0x16
 2933 0c39 280C0000 		.4byte	0xc28
 2934 0c3d 1F       		.uleb128 0x1f
 2935 0c3e 9B000000 		.4byte	.LASF163
 2936 0c42 07       		.byte	0x7
 2937 0c43 C1       		.byte	0xc1
 2938 0c44 27010000 		.4byte	0x127
 2939 0c48 00000000 		.4byte	.LFB235
 2940 0c4c 98000000 		.4byte	.LFE235-.LFB235
 2941 0c50 01       		.uleb128 0x1
 2942 0c51 9C       		.byte	0x9c
 2943 0c52 9E0C0000 		.4byte	0xc9e
ARM GAS  /tmp/ccPngymc.s 			page 53


 2944 0c56 20       		.uleb128 0x20
 2945 0c57 6D627000 		.ascii	"mbp\000"
 2946 0c5b 07       		.byte	0x7
 2947 0c5c C1       		.byte	0xc1
 2948 0c5d F1090000 		.4byte	0x9f1
 2949 0c61 02       		.uleb128 0x2
 2950 0c62 91       		.byte	0x91
 2951 0c63 6C       		.sleb128 -20
 2952 0c64 20       		.uleb128 0x20
 2953 0c65 6D736700 		.ascii	"msg\000"
 2954 0c69 07       		.byte	0x7
 2955 0c6a C1       		.byte	0xc1
 2956 0c6b 27010000 		.4byte	0x127
 2957 0c6f 02       		.uleb128 0x2
 2958 0c70 91       		.byte	0x91
 2959 0c71 68       		.sleb128 -24
 2960 0c72 21       		.uleb128 0x21
 2961 0c73 1A040000 		.4byte	.LASF156
 2962 0c77 07       		.byte	0x7
 2963 0c78 C1       		.byte	0xc1
 2964 0c79 53010000 		.4byte	0x153
 2965 0c7d 02       		.uleb128 0x2
 2966 0c7e 91       		.byte	0x91
 2967 0c7f 64       		.sleb128 -28
 2968 0c80 22       		.uleb128 0x22
 2969 0c81 2F000000 		.4byte	.LASF107
 2970 0c85 07       		.byte	0x7
 2971 0c86 C2       		.byte	0xc2
 2972 0c87 27010000 		.4byte	0x127
 2973 0c8b 02       		.uleb128 0x2
 2974 0c8c 91       		.byte	0x91
 2975 0c8d 74       		.sleb128 -12
 2976 0c8e 1D       		.uleb128 0x1d
 2977 0c8f 9D060000 		.4byte	.LASF157
 2978 0c93 380C0000 		.4byte	0xc38
 2979 0c97 05       		.uleb128 0x5
 2980 0c98 03       		.byte	0x3
 2981 0c99 00000000 		.4byte	__func__.7879
 2982 0c9d 00       		.byte	0
 2983 0c9e 1F       		.uleb128 0x1f
 2984 0c9f 9E010000 		.4byte	.LASF164
 2985 0ca3 07       		.byte	0x7
 2986 0ca4 A4       		.byte	0xa4
 2987 0ca5 27010000 		.4byte	0x127
 2988 0ca9 00000000 		.4byte	.LFB234
 2989 0cad 28000000 		.4byte	.LFE234-.LFB234
 2990 0cb1 01       		.uleb128 0x1
 2991 0cb2 9C       		.byte	0x9c
 2992 0cb3 F00C0000 		.4byte	0xcf0
 2993 0cb7 20       		.uleb128 0x20
 2994 0cb8 6D627000 		.ascii	"mbp\000"
 2995 0cbc 07       		.byte	0x7
 2996 0cbd A4       		.byte	0xa4
 2997 0cbe F1090000 		.4byte	0x9f1
 2998 0cc2 02       		.uleb128 0x2
 2999 0cc3 91       		.byte	0x91
 3000 0cc4 6C       		.sleb128 -20
ARM GAS  /tmp/ccPngymc.s 			page 54


 3001 0cc5 20       		.uleb128 0x20
 3002 0cc6 6D736700 		.ascii	"msg\000"
 3003 0cca 07       		.byte	0x7
 3004 0ccb A4       		.byte	0xa4
 3005 0ccc 27010000 		.4byte	0x127
 3006 0cd0 02       		.uleb128 0x2
 3007 0cd1 91       		.byte	0x91
 3008 0cd2 68       		.sleb128 -24
 3009 0cd3 21       		.uleb128 0x21
 3010 0cd4 1A040000 		.4byte	.LASF156
 3011 0cd8 07       		.byte	0x7
 3012 0cd9 A4       		.byte	0xa4
 3013 0cda 53010000 		.4byte	0x153
 3014 0cde 02       		.uleb128 0x2
 3015 0cdf 91       		.byte	0x91
 3016 0ce0 64       		.sleb128 -28
 3017 0ce1 22       		.uleb128 0x22
 3018 0ce2 2F000000 		.4byte	.LASF107
 3019 0ce6 07       		.byte	0x7
 3020 0ce7 A5       		.byte	0xa5
 3021 0ce8 27010000 		.4byte	0x127
 3022 0cec 02       		.uleb128 0x2
 3023 0ced 91       		.byte	0x91
 3024 0cee 74       		.sleb128 -12
 3025 0cef 00       		.byte	0
 3026 0cf0 23       		.uleb128 0x23
 3027 0cf1 2E040000 		.4byte	.LASF165
 3028 0cf5 07       		.byte	0x7
 3029 0cf6 84       		.byte	0x84
 3030 0cf7 00000000 		.4byte	.LFB233
 3031 0cfb 5C000000 		.4byte	.LFE233-.LFB233
 3032 0cff 01       		.uleb128 0x1
 3033 0d00 9C       		.byte	0x9c
 3034 0d01 230D0000 		.4byte	0xd23
 3035 0d05 20       		.uleb128 0x20
 3036 0d06 6D627000 		.ascii	"mbp\000"
 3037 0d0a 07       		.byte	0x7
 3038 0d0b 84       		.byte	0x84
 3039 0d0c F1090000 		.4byte	0x9f1
 3040 0d10 02       		.uleb128 0x2
 3041 0d11 91       		.byte	0x91
 3042 0d12 74       		.sleb128 -12
 3043 0d13 1D       		.uleb128 0x1d
 3044 0d14 9D060000 		.4byte	.LASF157
 3045 0d18 070A0000 		.4byte	0xa07
 3046 0d1c 05       		.uleb128 0x5
 3047 0d1d 03       		.byte	0x3
 3048 0d1e 00000000 		.4byte	__func__.7866
 3049 0d22 00       		.byte	0
 3050 0d23 23       		.uleb128 0x23
 3051 0d24 5C050000 		.4byte	.LASF166
 3052 0d28 07       		.byte	0x7
 3053 0d29 70       		.byte	0x70
 3054 0d2a 00000000 		.4byte	.LFB232
 3055 0d2e 20000000 		.4byte	.LFE232-.LFB232
 3056 0d32 01       		.uleb128 0x1
 3057 0d33 9C       		.byte	0x9c
ARM GAS  /tmp/ccPngymc.s 			page 55


 3058 0d34 470D0000 		.4byte	0xd47
 3059 0d38 20       		.uleb128 0x20
 3060 0d39 6D627000 		.ascii	"mbp\000"
 3061 0d3d 07       		.byte	0x7
 3062 0d3e 70       		.byte	0x70
 3063 0d3f F1090000 		.4byte	0x9f1
 3064 0d43 02       		.uleb128 0x2
 3065 0d44 91       		.byte	0x91
 3066 0d45 74       		.sleb128 -12
 3067 0d46 00       		.byte	0
 3068 0d47 23       		.uleb128 0x23
 3069 0d48 1A000000 		.4byte	.LASF167
 3070 0d4c 07       		.byte	0x7
 3071 0d4d 56       		.byte	0x56
 3072 0d4e 00000000 		.4byte	.LFB231
 3073 0d52 6C000000 		.4byte	.LFE231-.LFB231
 3074 0d56 01       		.uleb128 0x1
 3075 0d57 9C       		.byte	0x9c
 3076 0d58 940D0000 		.4byte	0xd94
 3077 0d5c 20       		.uleb128 0x20
 3078 0d5d 6D627000 		.ascii	"mbp\000"
 3079 0d61 07       		.byte	0x7
 3080 0d62 56       		.byte	0x56
 3081 0d63 F1090000 		.4byte	0x9f1
 3082 0d67 02       		.uleb128 0x2
 3083 0d68 91       		.byte	0x91
 3084 0d69 74       		.sleb128 -12
 3085 0d6a 20       		.uleb128 0x20
 3086 0d6b 62756600 		.ascii	"buf\000"
 3087 0d6f 07       		.byte	0x7
 3088 0d70 56       		.byte	0x56
 3089 0d71 91090000 		.4byte	0x991
 3090 0d75 02       		.uleb128 0x2
 3091 0d76 91       		.byte	0x91
 3092 0d77 70       		.sleb128 -16
 3093 0d78 20       		.uleb128 0x20
 3094 0d79 6E00     		.ascii	"n\000"
 3095 0d7b 07       		.byte	0x7
 3096 0d7c 56       		.byte	0x56
 3097 0d7d 3D010000 		.4byte	0x13d
 3098 0d81 02       		.uleb128 0x2
 3099 0d82 91       		.byte	0x91
 3100 0d83 6C       		.sleb128 -20
 3101 0d84 1D       		.uleb128 0x1d
 3102 0d85 9D060000 		.4byte	.LASF157
 3103 0d89 210B0000 		.4byte	0xb21
 3104 0d8d 05       		.uleb128 0x5
 3105 0d8e 03       		.byte	0x3
 3106 0d8f 00000000 		.4byte	__func__.7859
 3107 0d93 00       		.byte	0
 3108 0d94 24       		.uleb128 0x24
 3109 0d95 EC020000 		.4byte	.LASF168
 3110 0d99 06       		.byte	0x6
 3111 0d9a A8       		.byte	0xa8
 3112 0d9b 3D010000 		.4byte	0x13d
 3113 0d9f 00000000 		.4byte	.LFB216
 3114 0da3 22000000 		.4byte	.LFE216-.LFB216
ARM GAS  /tmp/ccPngymc.s 			page 56


 3115 0da7 01       		.uleb128 0x1
 3116 0da8 9C       		.byte	0x9c
 3117 0da9 BC0D0000 		.4byte	0xdbc
 3118 0dad 20       		.uleb128 0x20
 3119 0dae 6D627000 		.ascii	"mbp\000"
 3120 0db2 06       		.byte	0x6
 3121 0db3 A8       		.byte	0xa8
 3122 0db4 F1090000 		.4byte	0x9f1
 3123 0db8 02       		.uleb128 0x2
 3124 0db9 91       		.byte	0x91
 3125 0dba 74       		.sleb128 -12
 3126 0dbb 00       		.byte	0
 3127 0dbc 24       		.uleb128 0x24
 3128 0dbd 27060000 		.4byte	.LASF169
 3129 0dc1 06       		.byte	0x6
 3130 0dc2 99       		.byte	0x99
 3131 0dc3 3D010000 		.4byte	0x13d
 3132 0dc7 00000000 		.4byte	.LFB215
 3133 0dcb 16000000 		.4byte	.LFE215-.LFB215
 3134 0dcf 01       		.uleb128 0x1
 3135 0dd0 9C       		.byte	0x9c
 3136 0dd1 E40D0000 		.4byte	0xde4
 3137 0dd5 20       		.uleb128 0x20
 3138 0dd6 6D627000 		.ascii	"mbp\000"
 3139 0dda 06       		.byte	0x6
 3140 0ddb 99       		.byte	0x99
 3141 0ddc F1090000 		.4byte	0x9f1
 3142 0de0 02       		.uleb128 0x2
 3143 0de1 91       		.byte	0x91
 3144 0de2 74       		.sleb128 -12
 3145 0de3 00       		.byte	0
 3146 0de4 25       		.uleb128 0x25
 3147 0de5 FD060000 		.4byte	.LASF170
 3148 0de9 06       		.byte	0x6
 3149 0dea 88       		.byte	0x88
 3150 0deb 3D010000 		.4byte	0x13d
 3151 0def 00000000 		.4byte	.LFB214
 3152 0df3 18000000 		.4byte	.LFE214-.LFB214
 3153 0df7 01       		.uleb128 0x1
 3154 0df8 9C       		.byte	0x9c
 3155 0df9 0C0E0000 		.4byte	0xe0c
 3156 0dfd 20       		.uleb128 0x20
 3157 0dfe 6D627000 		.ascii	"mbp\000"
 3158 0e02 06       		.byte	0x6
 3159 0e03 88       		.byte	0x88
 3160 0e04 F1090000 		.4byte	0x9f1
 3161 0e08 02       		.uleb128 0x2
 3162 0e09 91       		.byte	0x91
 3163 0e0a 7C       		.sleb128 -4
 3164 0e0b 00       		.byte	0
 3165 0e0c 26       		.uleb128 0x26
 3166 0e0d 07050000 		.4byte	.LASF171
 3167 0e11 05       		.byte	0x5
 3168 0e12 1601     		.2byte	0x116
 3169 0e14 00000000 		.4byte	.LFB184
 3170 0e18 14000000 		.4byte	.LFE184-.LFB184
 3171 0e1c 01       		.uleb128 0x1
ARM GAS  /tmp/ccPngymc.s 			page 57


 3172 0e1d 9C       		.byte	0x9c
 3173 0e1e 320E0000 		.4byte	0xe32
 3174 0e22 1B       		.uleb128 0x1b
 3175 0e23 74717000 		.ascii	"tqp\000"
 3176 0e27 05       		.byte	0x5
 3177 0e28 1601     		.2byte	0x116
 3178 0e2a 320E0000 		.4byte	0xe32
 3179 0e2e 02       		.uleb128 0x2
 3180 0e2f 91       		.byte	0x91
 3181 0e30 74       		.sleb128 -12
 3182 0e31 00       		.byte	0
 3183 0e32 0A       		.uleb128 0xa
 3184 0e33 04       		.byte	0x4
 3185 0e34 A9020000 		.4byte	0x2a9
 3186 0e38 26       		.uleb128 0x26
 3187 0e39 8F080000 		.4byte	.LASF172
 3188 0e3d 04       		.byte	0x4
 3189 0e3e 6601     		.2byte	0x166
 3190 0e40 00000000 		.4byte	.LFB157
 3191 0e44 3C000000 		.4byte	.LFE157-.LFB157
 3192 0e48 01       		.uleb128 0x1
 3193 0e49 9C       		.byte	0x9c
 3194 0e4a 5E0E0000 		.4byte	0xe5e
 3195 0e4e 1D       		.uleb128 0x1d
 3196 0e4f 9D060000 		.4byte	.LASF157
 3197 0e53 6E0E0000 		.4byte	0xe6e
 3198 0e57 05       		.uleb128 0x5
 3199 0e58 03       		.byte	0x3
 3200 0e59 00000000 		.4byte	__func__.7157
 3201 0e5d 00       		.byte	0
 3202 0e5e 17       		.uleb128 0x17
 3203 0e5f DF070000 		.4byte	0x7df
 3204 0e63 6E0E0000 		.4byte	0xe6e
 3205 0e67 18       		.uleb128 0x18
 3206 0e68 B9040000 		.4byte	0x4b9
 3207 0e6c 0B       		.byte	0xb
 3208 0e6d 00       		.byte	0
 3209 0e6e 16       		.uleb128 0x16
 3210 0e6f 5E0E0000 		.4byte	0xe5e
 3211 0e73 27       		.uleb128 0x27
 3212 0e74 AE060000 		.4byte	.LASF179
 3213 0e78 04       		.byte	0x4
 3214 0e79 5A01     		.2byte	0x15a
 3215 0e7b 00000000 		.4byte	.LFB156
 3216 0e7f 12000000 		.4byte	.LFE156-.LFB156
 3217 0e83 01       		.uleb128 0x1
 3218 0e84 9C       		.byte	0x9c
 3219 0e85 28       		.uleb128 0x28
 3220 0e86 90000000 		.4byte	.LASF173
 3221 0e8a 03       		.byte	0x3
 3222 0e8b 5A02     		.2byte	0x25a
 3223 0e8d 00000000 		.4byte	.LFB139
 3224 0e91 16000000 		.4byte	.LFE139-.LFB139
 3225 0e95 01       		.uleb128 0x1
 3226 0e96 9C       		.byte	0x9c
 3227 0e97 AB0E0000 		.4byte	0xeab
 3228 0e9b 1B       		.uleb128 0x1b
ARM GAS  /tmp/ccPngymc.s 			page 58


 3229 0e9c 74717000 		.ascii	"tqp\000"
 3230 0ea0 03       		.byte	0x3
 3231 0ea1 5A02     		.2byte	0x25a
 3232 0ea3 320E0000 		.4byte	0xe32
 3233 0ea7 02       		.uleb128 0x2
 3234 0ea8 91       		.byte	0x91
 3235 0ea9 7C       		.sleb128 -4
 3236 0eaa 00       		.byte	0
 3237 0eab 28       		.uleb128 0x28
 3238 0eac 92010000 		.4byte	.LASF174
 3239 0eb0 01       		.byte	0x1
 3240 0eb1 E001     		.2byte	0x1e0
 3241 0eb3 00000000 		.4byte	.LFB128
 3242 0eb7 12000000 		.4byte	.LFE128-.LFB128
 3243 0ebb 01       		.uleb128 0x1
 3244 0ebc 9C       		.byte	0x9c
 3245 0ebd DB0E0000 		.4byte	0xedb
 3246 0ec1 29       		.uleb128 0x29
 3247 0ec2 0B0F0000 		.4byte	0xf0b
 3248 0ec6 06000000 		.4byte	.LBB8
 3249 0eca 06000000 		.4byte	.LBE8-.LBB8
 3250 0ece 01       		.byte	0x1
 3251 0ecf E301     		.2byte	0x1e3
 3252 0ed1 2A       		.uleb128 0x2a
 3253 0ed2 140F0000 		.4byte	0xf14
 3254 0ed6 02       		.uleb128 0x2
 3255 0ed7 91       		.byte	0x91
 3256 0ed8 7C       		.sleb128 -4
 3257 0ed9 00       		.byte	0
 3258 0eda 00       		.byte	0
 3259 0edb 28       		.uleb128 0x28
 3260 0edc A6080000 		.4byte	.LASF175
 3261 0ee0 01       		.byte	0x1
 3262 0ee1 C801     		.2byte	0x1c8
 3263 0ee3 00000000 		.4byte	.LFB127
 3264 0ee7 12000000 		.4byte	.LFE127-.LFB127
 3265 0eeb 01       		.uleb128 0x1
 3266 0eec 9C       		.byte	0x9c
 3267 0eed 0B0F0000 		.4byte	0xf0b
 3268 0ef1 29       		.uleb128 0x29
 3269 0ef2 0B0F0000 		.4byte	0xf0b
 3270 0ef6 06000000 		.4byte	.LBB6
 3271 0efa 06000000 		.4byte	.LBE6-.LBB6
 3272 0efe 01       		.byte	0x1
 3273 0eff D001     		.2byte	0x1d0
 3274 0f01 2A       		.uleb128 0x2a
 3275 0f02 140F0000 		.4byte	0xf14
 3276 0f06 02       		.uleb128 0x2
 3277 0f07 91       		.byte	0x91
 3278 0f08 7C       		.sleb128 -4
 3279 0f09 00       		.byte	0
 3280 0f0a 00       		.byte	0
 3281 0f0b 2B       		.uleb128 0x2b
 3282 0f0c B7070000 		.4byte	.LASF180
 3283 0f10 02       		.byte	0x2
 3284 0f11 2202     		.2byte	0x222
 3285 0f13 03       		.byte	0x3
ARM GAS  /tmp/ccPngymc.s 			page 59


 3286 0f14 2C       		.uleb128 0x2c
 3287 0f15 55030000 		.4byte	.LASF181
 3288 0f19 02       		.byte	0x2
 3289 0f1a 2202     		.2byte	0x222
 3290 0f1c CF000000 		.4byte	0xcf
 3291 0f20 00       		.byte	0
 3292 0f21 00       		.byte	0
 3293              		.section	.debug_abbrev,"",%progbits
 3294              	.Ldebug_abbrev0:
 3295 0000 01       		.uleb128 0x1
 3296 0001 11       		.uleb128 0x11
 3297 0002 01       		.byte	0x1
 3298 0003 25       		.uleb128 0x25
 3299 0004 0E       		.uleb128 0xe
 3300 0005 13       		.uleb128 0x13
 3301 0006 0B       		.uleb128 0xb
 3302 0007 03       		.uleb128 0x3
 3303 0008 0E       		.uleb128 0xe
 3304 0009 1B       		.uleb128 0x1b
 3305 000a 0E       		.uleb128 0xe
 3306 000b 55       		.uleb128 0x55
 3307 000c 17       		.uleb128 0x17
 3308 000d 11       		.uleb128 0x11
 3309 000e 01       		.uleb128 0x1
 3310 000f 10       		.uleb128 0x10
 3311 0010 17       		.uleb128 0x17
 3312 0011 00       		.byte	0
 3313 0012 00       		.byte	0
 3314 0013 02       		.uleb128 0x2
 3315 0014 24       		.uleb128 0x24
 3316 0015 00       		.byte	0
 3317 0016 0B       		.uleb128 0xb
 3318 0017 0B       		.uleb128 0xb
 3319 0018 3E       		.uleb128 0x3e
 3320 0019 0B       		.uleb128 0xb
 3321 001a 03       		.uleb128 0x3
 3322 001b 08       		.uleb128 0x8
 3323 001c 00       		.byte	0
 3324 001d 00       		.byte	0
 3325 001e 03       		.uleb128 0x3
 3326 001f 24       		.uleb128 0x24
 3327 0020 00       		.byte	0
 3328 0021 0B       		.uleb128 0xb
 3329 0022 0B       		.uleb128 0xb
 3330 0023 3E       		.uleb128 0x3e
 3331 0024 0B       		.uleb128 0xb
 3332 0025 03       		.uleb128 0x3
 3333 0026 0E       		.uleb128 0xe
 3334 0027 00       		.byte	0
 3335 0028 00       		.byte	0
 3336 0029 04       		.uleb128 0x4
 3337 002a 16       		.uleb128 0x16
 3338 002b 00       		.byte	0
 3339 002c 03       		.uleb128 0x3
 3340 002d 0E       		.uleb128 0xe
 3341 002e 3A       		.uleb128 0x3a
 3342 002f 0B       		.uleb128 0xb
ARM GAS  /tmp/ccPngymc.s 			page 60


 3343 0030 3B       		.uleb128 0x3b
 3344 0031 0B       		.uleb128 0xb
 3345 0032 49       		.uleb128 0x49
 3346 0033 13       		.uleb128 0x13
 3347 0034 00       		.byte	0
 3348 0035 00       		.byte	0
 3349 0036 05       		.uleb128 0x5
 3350 0037 35       		.uleb128 0x35
 3351 0038 00       		.byte	0
 3352 0039 49       		.uleb128 0x49
 3353 003a 13       		.uleb128 0x13
 3354 003b 00       		.byte	0
 3355 003c 00       		.byte	0
 3356 003d 06       		.uleb128 0x6
 3357 003e 13       		.uleb128 0x13
 3358 003f 01       		.byte	0x1
 3359 0040 03       		.uleb128 0x3
 3360 0041 0E       		.uleb128 0xe
 3361 0042 0B       		.uleb128 0xb
 3362 0043 0B       		.uleb128 0xb
 3363 0044 3A       		.uleb128 0x3a
 3364 0045 0B       		.uleb128 0xb
 3365 0046 3B       		.uleb128 0x3b
 3366 0047 0B       		.uleb128 0xb
 3367 0048 01       		.uleb128 0x1
 3368 0049 13       		.uleb128 0x13
 3369 004a 00       		.byte	0
 3370 004b 00       		.byte	0
 3371 004c 07       		.uleb128 0x7
 3372 004d 0D       		.uleb128 0xd
 3373 004e 00       		.byte	0
 3374 004f 03       		.uleb128 0x3
 3375 0050 0E       		.uleb128 0xe
 3376 0051 3A       		.uleb128 0x3a
 3377 0052 0B       		.uleb128 0xb
 3378 0053 3B       		.uleb128 0x3b
 3379 0054 0B       		.uleb128 0xb
 3380 0055 49       		.uleb128 0x49
 3381 0056 13       		.uleb128 0x13
 3382 0057 38       		.uleb128 0x38
 3383 0058 0B       		.uleb128 0xb
 3384 0059 00       		.byte	0
 3385 005a 00       		.byte	0
 3386 005b 08       		.uleb128 0x8
 3387 005c 0D       		.uleb128 0xd
 3388 005d 00       		.byte	0
 3389 005e 03       		.uleb128 0x3
 3390 005f 08       		.uleb128 0x8
 3391 0060 3A       		.uleb128 0x3a
 3392 0061 0B       		.uleb128 0xb
 3393 0062 3B       		.uleb128 0x3b
 3394 0063 05       		.uleb128 0x5
 3395 0064 49       		.uleb128 0x49
 3396 0065 13       		.uleb128 0x13
 3397 0066 38       		.uleb128 0x38
 3398 0067 0B       		.uleb128 0xb
 3399 0068 00       		.byte	0
ARM GAS  /tmp/ccPngymc.s 			page 61


 3400 0069 00       		.byte	0
 3401 006a 09       		.uleb128 0x9
 3402 006b 0D       		.uleb128 0xd
 3403 006c 00       		.byte	0
 3404 006d 03       		.uleb128 0x3
 3405 006e 0E       		.uleb128 0xe
 3406 006f 3A       		.uleb128 0x3a
 3407 0070 0B       		.uleb128 0xb
 3408 0071 3B       		.uleb128 0x3b
 3409 0072 05       		.uleb128 0x5
 3410 0073 49       		.uleb128 0x49
 3411 0074 13       		.uleb128 0x13
 3412 0075 38       		.uleb128 0x38
 3413 0076 0B       		.uleb128 0xb
 3414 0077 00       		.byte	0
 3415 0078 00       		.byte	0
 3416 0079 0A       		.uleb128 0xa
 3417 007a 0F       		.uleb128 0xf
 3418 007b 00       		.byte	0
 3419 007c 0B       		.uleb128 0xb
 3420 007d 0B       		.uleb128 0xb
 3421 007e 49       		.uleb128 0x49
 3422 007f 13       		.uleb128 0x13
 3423 0080 00       		.byte	0
 3424 0081 00       		.byte	0
 3425 0082 0B       		.uleb128 0xb
 3426 0083 13       		.uleb128 0x13
 3427 0084 01       		.byte	0x1
 3428 0085 03       		.uleb128 0x3
 3429 0086 0E       		.uleb128 0xe
 3430 0087 0B       		.uleb128 0xb
 3431 0088 0B       		.uleb128 0xb
 3432 0089 3A       		.uleb128 0x3a
 3433 008a 0B       		.uleb128 0xb
 3434 008b 3B       		.uleb128 0x3b
 3435 008c 05       		.uleb128 0x5
 3436 008d 01       		.uleb128 0x1
 3437 008e 13       		.uleb128 0x13
 3438 008f 00       		.byte	0
 3439 0090 00       		.byte	0
 3440 0091 0C       		.uleb128 0xc
 3441 0092 15       		.uleb128 0x15
 3442 0093 01       		.byte	0x1
 3443 0094 27       		.uleb128 0x27
 3444 0095 19       		.uleb128 0x19
 3445 0096 01       		.uleb128 0x1
 3446 0097 13       		.uleb128 0x13
 3447 0098 00       		.byte	0
 3448 0099 00       		.byte	0
 3449 009a 0D       		.uleb128 0xd
 3450 009b 05       		.uleb128 0x5
 3451 009c 00       		.byte	0
 3452 009d 49       		.uleb128 0x49
 3453 009e 13       		.uleb128 0x13
 3454 009f 00       		.byte	0
 3455 00a0 00       		.byte	0
 3456 00a1 0E       		.uleb128 0xe
ARM GAS  /tmp/ccPngymc.s 			page 62


 3457 00a2 0F       		.uleb128 0xf
 3458 00a3 00       		.byte	0
 3459 00a4 0B       		.uleb128 0xb
 3460 00a5 0B       		.uleb128 0xb
 3461 00a6 00       		.byte	0
 3462 00a7 00       		.byte	0
 3463 00a8 0F       		.uleb128 0xf
 3464 00a9 13       		.uleb128 0x13
 3465 00aa 01       		.byte	0x1
 3466 00ab 03       		.uleb128 0x3
 3467 00ac 0E       		.uleb128 0xe
 3468 00ad 0B       		.uleb128 0xb
 3469 00ae 05       		.uleb128 0x5
 3470 00af 3A       		.uleb128 0x3a
 3471 00b0 0B       		.uleb128 0xb
 3472 00b1 3B       		.uleb128 0x3b
 3473 00b2 05       		.uleb128 0x5
 3474 00b3 01       		.uleb128 0x1
 3475 00b4 13       		.uleb128 0x13
 3476 00b5 00       		.byte	0
 3477 00b6 00       		.byte	0
 3478 00b7 10       		.uleb128 0x10
 3479 00b8 34       		.uleb128 0x34
 3480 00b9 00       		.byte	0
 3481 00ba 03       		.uleb128 0x3
 3482 00bb 0E       		.uleb128 0xe
 3483 00bc 3A       		.uleb128 0x3a
 3484 00bd 0B       		.uleb128 0xb
 3485 00be 3B       		.uleb128 0x3b
 3486 00bf 05       		.uleb128 0x5
 3487 00c0 49       		.uleb128 0x49
 3488 00c1 13       		.uleb128 0x13
 3489 00c2 3F       		.uleb128 0x3f
 3490 00c3 19       		.uleb128 0x19
 3491 00c4 3C       		.uleb128 0x3c
 3492 00c5 19       		.uleb128 0x19
 3493 00c6 00       		.byte	0
 3494 00c7 00       		.byte	0
 3495 00c8 11       		.uleb128 0x11
 3496 00c9 34       		.uleb128 0x34
 3497 00ca 00       		.byte	0
 3498 00cb 03       		.uleb128 0x3
 3499 00cc 0E       		.uleb128 0xe
 3500 00cd 3A       		.uleb128 0x3a
 3501 00ce 0B       		.uleb128 0xb
 3502 00cf 3B       		.uleb128 0x3b
 3503 00d0 0B       		.uleb128 0xb
 3504 00d1 49       		.uleb128 0x49
 3505 00d2 13       		.uleb128 0x13
 3506 00d3 3F       		.uleb128 0x3f
 3507 00d4 19       		.uleb128 0x19
 3508 00d5 3C       		.uleb128 0x3c
 3509 00d6 19       		.uleb128 0x19
 3510 00d7 00       		.byte	0
 3511 00d8 00       		.byte	0
 3512 00d9 12       		.uleb128 0x12
 3513 00da 0D       		.uleb128 0xd
ARM GAS  /tmp/ccPngymc.s 			page 63


 3514 00db 00       		.byte	0
 3515 00dc 03       		.uleb128 0x3
 3516 00dd 08       		.uleb128 0x8
 3517 00de 3A       		.uleb128 0x3a
 3518 00df 0B       		.uleb128 0xb
 3519 00e0 3B       		.uleb128 0x3b
 3520 00e1 0B       		.uleb128 0xb
 3521 00e2 49       		.uleb128 0x49
 3522 00e3 13       		.uleb128 0x13
 3523 00e4 38       		.uleb128 0x38
 3524 00e5 0B       		.uleb128 0xb
 3525 00e6 00       		.byte	0
 3526 00e7 00       		.byte	0
 3527 00e8 13       		.uleb128 0x13
 3528 00e9 13       		.uleb128 0x13
 3529 00ea 01       		.byte	0x1
 3530 00eb 0B       		.uleb128 0xb
 3531 00ec 0B       		.uleb128 0xb
 3532 00ed 3A       		.uleb128 0x3a
 3533 00ee 0B       		.uleb128 0xb
 3534 00ef 3B       		.uleb128 0x3b
 3535 00f0 0B       		.uleb128 0xb
 3536 00f1 01       		.uleb128 0x1
 3537 00f2 13       		.uleb128 0x13
 3538 00f3 00       		.byte	0
 3539 00f4 00       		.byte	0
 3540 00f5 14       		.uleb128 0x14
 3541 00f6 17       		.uleb128 0x17
 3542 00f7 01       		.byte	0x1
 3543 00f8 0B       		.uleb128 0xb
 3544 00f9 0B       		.uleb128 0xb
 3545 00fa 3A       		.uleb128 0x3a
 3546 00fb 0B       		.uleb128 0xb
 3547 00fc 3B       		.uleb128 0x3b
 3548 00fd 0B       		.uleb128 0xb
 3549 00fe 01       		.uleb128 0x1
 3550 00ff 13       		.uleb128 0x13
 3551 0100 00       		.byte	0
 3552 0101 00       		.byte	0
 3553 0102 15       		.uleb128 0x15
 3554 0103 0D       		.uleb128 0xd
 3555 0104 00       		.byte	0
 3556 0105 03       		.uleb128 0x3
 3557 0106 0E       		.uleb128 0xe
 3558 0107 3A       		.uleb128 0x3a
 3559 0108 0B       		.uleb128 0xb
 3560 0109 3B       		.uleb128 0x3b
 3561 010a 05       		.uleb128 0x5
 3562 010b 49       		.uleb128 0x49
 3563 010c 13       		.uleb128 0x13
 3564 010d 00       		.byte	0
 3565 010e 00       		.byte	0
 3566 010f 16       		.uleb128 0x16
 3567 0110 26       		.uleb128 0x26
 3568 0111 00       		.byte	0
 3569 0112 49       		.uleb128 0x49
 3570 0113 13       		.uleb128 0x13
ARM GAS  /tmp/ccPngymc.s 			page 64


 3571 0114 00       		.byte	0
 3572 0115 00       		.byte	0
 3573 0116 17       		.uleb128 0x17
 3574 0117 01       		.uleb128 0x1
 3575 0118 01       		.byte	0x1
 3576 0119 49       		.uleb128 0x49
 3577 011a 13       		.uleb128 0x13
 3578 011b 01       		.uleb128 0x1
 3579 011c 13       		.uleb128 0x13
 3580 011d 00       		.byte	0
 3581 011e 00       		.byte	0
 3582 011f 18       		.uleb128 0x18
 3583 0120 21       		.uleb128 0x21
 3584 0121 00       		.byte	0
 3585 0122 49       		.uleb128 0x49
 3586 0123 13       		.uleb128 0x13
 3587 0124 2F       		.uleb128 0x2f
 3588 0125 0B       		.uleb128 0xb
 3589 0126 00       		.byte	0
 3590 0127 00       		.byte	0
 3591 0128 19       		.uleb128 0x19
 3592 0129 34       		.uleb128 0x34
 3593 012a 00       		.byte	0
 3594 012b 03       		.uleb128 0x3
 3595 012c 08       		.uleb128 0x8
 3596 012d 3A       		.uleb128 0x3a
 3597 012e 0B       		.uleb128 0xb
 3598 012f 3B       		.uleb128 0x3b
 3599 0130 05       		.uleb128 0x5
 3600 0131 49       		.uleb128 0x49
 3601 0132 13       		.uleb128 0x13
 3602 0133 3F       		.uleb128 0x3f
 3603 0134 19       		.uleb128 0x19
 3604 0135 3C       		.uleb128 0x3c
 3605 0136 19       		.uleb128 0x19
 3606 0137 00       		.byte	0
 3607 0138 00       		.byte	0
 3608 0139 1A       		.uleb128 0x1a
 3609 013a 2E       		.uleb128 0x2e
 3610 013b 01       		.byte	0x1
 3611 013c 3F       		.uleb128 0x3f
 3612 013d 19       		.uleb128 0x19
 3613 013e 03       		.uleb128 0x3
 3614 013f 0E       		.uleb128 0xe
 3615 0140 3A       		.uleb128 0x3a
 3616 0141 0B       		.uleb128 0xb
 3617 0142 3B       		.uleb128 0x3b
 3618 0143 05       		.uleb128 0x5
 3619 0144 27       		.uleb128 0x27
 3620 0145 19       		.uleb128 0x19
 3621 0146 49       		.uleb128 0x49
 3622 0147 13       		.uleb128 0x13
 3623 0148 11       		.uleb128 0x11
 3624 0149 01       		.uleb128 0x1
 3625 014a 12       		.uleb128 0x12
 3626 014b 06       		.uleb128 0x6
 3627 014c 40       		.uleb128 0x40
ARM GAS  /tmp/ccPngymc.s 			page 65


 3628 014d 18       		.uleb128 0x18
 3629 014e 9642     		.uleb128 0x2116
 3630 0150 19       		.uleb128 0x19
 3631 0151 01       		.uleb128 0x1
 3632 0152 13       		.uleb128 0x13
 3633 0153 00       		.byte	0
 3634 0154 00       		.byte	0
 3635 0155 1B       		.uleb128 0x1b
 3636 0156 05       		.uleb128 0x5
 3637 0157 00       		.byte	0
 3638 0158 03       		.uleb128 0x3
 3639 0159 08       		.uleb128 0x8
 3640 015a 3A       		.uleb128 0x3a
 3641 015b 0B       		.uleb128 0xb
 3642 015c 3B       		.uleb128 0x3b
 3643 015d 05       		.uleb128 0x5
 3644 015e 49       		.uleb128 0x49
 3645 015f 13       		.uleb128 0x13
 3646 0160 02       		.uleb128 0x2
 3647 0161 18       		.uleb128 0x18
 3648 0162 00       		.byte	0
 3649 0163 00       		.byte	0
 3650 0164 1C       		.uleb128 0x1c
 3651 0165 05       		.uleb128 0x5
 3652 0166 00       		.byte	0
 3653 0167 03       		.uleb128 0x3
 3654 0168 0E       		.uleb128 0xe
 3655 0169 3A       		.uleb128 0x3a
 3656 016a 0B       		.uleb128 0xb
 3657 016b 3B       		.uleb128 0x3b
 3658 016c 05       		.uleb128 0x5
 3659 016d 49       		.uleb128 0x49
 3660 016e 13       		.uleb128 0x13
 3661 016f 02       		.uleb128 0x2
 3662 0170 18       		.uleb128 0x18
 3663 0171 00       		.byte	0
 3664 0172 00       		.byte	0
 3665 0173 1D       		.uleb128 0x1d
 3666 0174 34       		.uleb128 0x34
 3667 0175 00       		.byte	0
 3668 0176 03       		.uleb128 0x3
 3669 0177 0E       		.uleb128 0xe
 3670 0178 49       		.uleb128 0x49
 3671 0179 13       		.uleb128 0x13
 3672 017a 34       		.uleb128 0x34
 3673 017b 19       		.uleb128 0x19
 3674 017c 02       		.uleb128 0x2
 3675 017d 18       		.uleb128 0x18
 3676 017e 00       		.byte	0
 3677 017f 00       		.byte	0
 3678 0180 1E       		.uleb128 0x1e
 3679 0181 34       		.uleb128 0x34
 3680 0182 00       		.byte	0
 3681 0183 03       		.uleb128 0x3
 3682 0184 0E       		.uleb128 0xe
 3683 0185 3A       		.uleb128 0x3a
 3684 0186 0B       		.uleb128 0xb
ARM GAS  /tmp/ccPngymc.s 			page 66


 3685 0187 3B       		.uleb128 0x3b
 3686 0188 05       		.uleb128 0x5
 3687 0189 49       		.uleb128 0x49
 3688 018a 13       		.uleb128 0x13
 3689 018b 02       		.uleb128 0x2
 3690 018c 18       		.uleb128 0x18
 3691 018d 00       		.byte	0
 3692 018e 00       		.byte	0
 3693 018f 1F       		.uleb128 0x1f
 3694 0190 2E       		.uleb128 0x2e
 3695 0191 01       		.byte	0x1
 3696 0192 3F       		.uleb128 0x3f
 3697 0193 19       		.uleb128 0x19
 3698 0194 03       		.uleb128 0x3
 3699 0195 0E       		.uleb128 0xe
 3700 0196 3A       		.uleb128 0x3a
 3701 0197 0B       		.uleb128 0xb
 3702 0198 3B       		.uleb128 0x3b
 3703 0199 0B       		.uleb128 0xb
 3704 019a 27       		.uleb128 0x27
 3705 019b 19       		.uleb128 0x19
 3706 019c 49       		.uleb128 0x49
 3707 019d 13       		.uleb128 0x13
 3708 019e 11       		.uleb128 0x11
 3709 019f 01       		.uleb128 0x1
 3710 01a0 12       		.uleb128 0x12
 3711 01a1 06       		.uleb128 0x6
 3712 01a2 40       		.uleb128 0x40
 3713 01a3 18       		.uleb128 0x18
 3714 01a4 9642     		.uleb128 0x2116
 3715 01a6 19       		.uleb128 0x19
 3716 01a7 01       		.uleb128 0x1
 3717 01a8 13       		.uleb128 0x13
 3718 01a9 00       		.byte	0
 3719 01aa 00       		.byte	0
 3720 01ab 20       		.uleb128 0x20
 3721 01ac 05       		.uleb128 0x5
 3722 01ad 00       		.byte	0
 3723 01ae 03       		.uleb128 0x3
 3724 01af 08       		.uleb128 0x8
 3725 01b0 3A       		.uleb128 0x3a
 3726 01b1 0B       		.uleb128 0xb
 3727 01b2 3B       		.uleb128 0x3b
 3728 01b3 0B       		.uleb128 0xb
 3729 01b4 49       		.uleb128 0x49
 3730 01b5 13       		.uleb128 0x13
 3731 01b6 02       		.uleb128 0x2
 3732 01b7 18       		.uleb128 0x18
 3733 01b8 00       		.byte	0
 3734 01b9 00       		.byte	0
 3735 01ba 21       		.uleb128 0x21
 3736 01bb 05       		.uleb128 0x5
 3737 01bc 00       		.byte	0
 3738 01bd 03       		.uleb128 0x3
 3739 01be 0E       		.uleb128 0xe
 3740 01bf 3A       		.uleb128 0x3a
 3741 01c0 0B       		.uleb128 0xb
ARM GAS  /tmp/ccPngymc.s 			page 67


 3742 01c1 3B       		.uleb128 0x3b
 3743 01c2 0B       		.uleb128 0xb
 3744 01c3 49       		.uleb128 0x49
 3745 01c4 13       		.uleb128 0x13
 3746 01c5 02       		.uleb128 0x2
 3747 01c6 18       		.uleb128 0x18
 3748 01c7 00       		.byte	0
 3749 01c8 00       		.byte	0
 3750 01c9 22       		.uleb128 0x22
 3751 01ca 34       		.uleb128 0x34
 3752 01cb 00       		.byte	0
 3753 01cc 03       		.uleb128 0x3
 3754 01cd 0E       		.uleb128 0xe
 3755 01ce 3A       		.uleb128 0x3a
 3756 01cf 0B       		.uleb128 0xb
 3757 01d0 3B       		.uleb128 0x3b
 3758 01d1 0B       		.uleb128 0xb
 3759 01d2 49       		.uleb128 0x49
 3760 01d3 13       		.uleb128 0x13
 3761 01d4 02       		.uleb128 0x2
 3762 01d5 18       		.uleb128 0x18
 3763 01d6 00       		.byte	0
 3764 01d7 00       		.byte	0
 3765 01d8 23       		.uleb128 0x23
 3766 01d9 2E       		.uleb128 0x2e
 3767 01da 01       		.byte	0x1
 3768 01db 3F       		.uleb128 0x3f
 3769 01dc 19       		.uleb128 0x19
 3770 01dd 03       		.uleb128 0x3
 3771 01de 0E       		.uleb128 0xe
 3772 01df 3A       		.uleb128 0x3a
 3773 01e0 0B       		.uleb128 0xb
 3774 01e1 3B       		.uleb128 0x3b
 3775 01e2 0B       		.uleb128 0xb
 3776 01e3 27       		.uleb128 0x27
 3777 01e4 19       		.uleb128 0x19
 3778 01e5 11       		.uleb128 0x11
 3779 01e6 01       		.uleb128 0x1
 3780 01e7 12       		.uleb128 0x12
 3781 01e8 06       		.uleb128 0x6
 3782 01e9 40       		.uleb128 0x40
 3783 01ea 18       		.uleb128 0x18
 3784 01eb 9642     		.uleb128 0x2116
 3785 01ed 19       		.uleb128 0x19
 3786 01ee 01       		.uleb128 0x1
 3787 01ef 13       		.uleb128 0x13
 3788 01f0 00       		.byte	0
 3789 01f1 00       		.byte	0
 3790 01f2 24       		.uleb128 0x24
 3791 01f3 2E       		.uleb128 0x2e
 3792 01f4 01       		.byte	0x1
 3793 01f5 03       		.uleb128 0x3
 3794 01f6 0E       		.uleb128 0xe
 3795 01f7 3A       		.uleb128 0x3a
 3796 01f8 0B       		.uleb128 0xb
 3797 01f9 3B       		.uleb128 0x3b
 3798 01fa 0B       		.uleb128 0xb
ARM GAS  /tmp/ccPngymc.s 			page 68


 3799 01fb 27       		.uleb128 0x27
 3800 01fc 19       		.uleb128 0x19
 3801 01fd 49       		.uleb128 0x49
 3802 01fe 13       		.uleb128 0x13
 3803 01ff 11       		.uleb128 0x11
 3804 0200 01       		.uleb128 0x1
 3805 0201 12       		.uleb128 0x12
 3806 0202 06       		.uleb128 0x6
 3807 0203 40       		.uleb128 0x40
 3808 0204 18       		.uleb128 0x18
 3809 0205 9642     		.uleb128 0x2116
 3810 0207 19       		.uleb128 0x19
 3811 0208 01       		.uleb128 0x1
 3812 0209 13       		.uleb128 0x13
 3813 020a 00       		.byte	0
 3814 020b 00       		.byte	0
 3815 020c 25       		.uleb128 0x25
 3816 020d 2E       		.uleb128 0x2e
 3817 020e 01       		.byte	0x1
 3818 020f 03       		.uleb128 0x3
 3819 0210 0E       		.uleb128 0xe
 3820 0211 3A       		.uleb128 0x3a
 3821 0212 0B       		.uleb128 0xb
 3822 0213 3B       		.uleb128 0x3b
 3823 0214 0B       		.uleb128 0xb
 3824 0215 27       		.uleb128 0x27
 3825 0216 19       		.uleb128 0x19
 3826 0217 49       		.uleb128 0x49
 3827 0218 13       		.uleb128 0x13
 3828 0219 11       		.uleb128 0x11
 3829 021a 01       		.uleb128 0x1
 3830 021b 12       		.uleb128 0x12
 3831 021c 06       		.uleb128 0x6
 3832 021d 40       		.uleb128 0x40
 3833 021e 18       		.uleb128 0x18
 3834 021f 9742     		.uleb128 0x2117
 3835 0221 19       		.uleb128 0x19
 3836 0222 01       		.uleb128 0x1
 3837 0223 13       		.uleb128 0x13
 3838 0224 00       		.byte	0
 3839 0225 00       		.byte	0
 3840 0226 26       		.uleb128 0x26
 3841 0227 2E       		.uleb128 0x2e
 3842 0228 01       		.byte	0x1
 3843 0229 03       		.uleb128 0x3
 3844 022a 0E       		.uleb128 0xe
 3845 022b 3A       		.uleb128 0x3a
 3846 022c 0B       		.uleb128 0xb
 3847 022d 3B       		.uleb128 0x3b
 3848 022e 05       		.uleb128 0x5
 3849 022f 27       		.uleb128 0x27
 3850 0230 19       		.uleb128 0x19
 3851 0231 11       		.uleb128 0x11
 3852 0232 01       		.uleb128 0x1
 3853 0233 12       		.uleb128 0x12
 3854 0234 06       		.uleb128 0x6
 3855 0235 40       		.uleb128 0x40
ARM GAS  /tmp/ccPngymc.s 			page 69


 3856 0236 18       		.uleb128 0x18
 3857 0237 9642     		.uleb128 0x2116
 3858 0239 19       		.uleb128 0x19
 3859 023a 01       		.uleb128 0x1
 3860 023b 13       		.uleb128 0x13
 3861 023c 00       		.byte	0
 3862 023d 00       		.byte	0
 3863 023e 27       		.uleb128 0x27
 3864 023f 2E       		.uleb128 0x2e
 3865 0240 00       		.byte	0
 3866 0241 03       		.uleb128 0x3
 3867 0242 0E       		.uleb128 0xe
 3868 0243 3A       		.uleb128 0x3a
 3869 0244 0B       		.uleb128 0xb
 3870 0245 3B       		.uleb128 0x3b
 3871 0246 05       		.uleb128 0x5
 3872 0247 27       		.uleb128 0x27
 3873 0248 19       		.uleb128 0x19
 3874 0249 11       		.uleb128 0x11
 3875 024a 01       		.uleb128 0x1
 3876 024b 12       		.uleb128 0x12
 3877 024c 06       		.uleb128 0x6
 3878 024d 40       		.uleb128 0x40
 3879 024e 18       		.uleb128 0x18
 3880 024f 9642     		.uleb128 0x2116
 3881 0251 19       		.uleb128 0x19
 3882 0252 00       		.byte	0
 3883 0253 00       		.byte	0
 3884 0254 28       		.uleb128 0x28
 3885 0255 2E       		.uleb128 0x2e
 3886 0256 01       		.byte	0x1
 3887 0257 03       		.uleb128 0x3
 3888 0258 0E       		.uleb128 0xe
 3889 0259 3A       		.uleb128 0x3a
 3890 025a 0B       		.uleb128 0xb
 3891 025b 3B       		.uleb128 0x3b
 3892 025c 05       		.uleb128 0x5
 3893 025d 27       		.uleb128 0x27
 3894 025e 19       		.uleb128 0x19
 3895 025f 11       		.uleb128 0x11
 3896 0260 01       		.uleb128 0x1
 3897 0261 12       		.uleb128 0x12
 3898 0262 06       		.uleb128 0x6
 3899 0263 40       		.uleb128 0x40
 3900 0264 18       		.uleb128 0x18
 3901 0265 9742     		.uleb128 0x2117
 3902 0267 19       		.uleb128 0x19
 3903 0268 01       		.uleb128 0x1
 3904 0269 13       		.uleb128 0x13
 3905 026a 00       		.byte	0
 3906 026b 00       		.byte	0
 3907 026c 29       		.uleb128 0x29
 3908 026d 1D       		.uleb128 0x1d
 3909 026e 01       		.byte	0x1
 3910 026f 31       		.uleb128 0x31
 3911 0270 13       		.uleb128 0x13
 3912 0271 11       		.uleb128 0x11
ARM GAS  /tmp/ccPngymc.s 			page 70


 3913 0272 01       		.uleb128 0x1
 3914 0273 12       		.uleb128 0x12
 3915 0274 06       		.uleb128 0x6
 3916 0275 58       		.uleb128 0x58
 3917 0276 0B       		.uleb128 0xb
 3918 0277 59       		.uleb128 0x59
 3919 0278 05       		.uleb128 0x5
 3920 0279 00       		.byte	0
 3921 027a 00       		.byte	0
 3922 027b 2A       		.uleb128 0x2a
 3923 027c 05       		.uleb128 0x5
 3924 027d 00       		.byte	0
 3925 027e 31       		.uleb128 0x31
 3926 027f 13       		.uleb128 0x13
 3927 0280 02       		.uleb128 0x2
 3928 0281 18       		.uleb128 0x18
 3929 0282 00       		.byte	0
 3930 0283 00       		.byte	0
 3931 0284 2B       		.uleb128 0x2b
 3932 0285 2E       		.uleb128 0x2e
 3933 0286 01       		.byte	0x1
 3934 0287 03       		.uleb128 0x3
 3935 0288 0E       		.uleb128 0xe
 3936 0289 3A       		.uleb128 0x3a
 3937 028a 0B       		.uleb128 0xb
 3938 028b 3B       		.uleb128 0x3b
 3939 028c 05       		.uleb128 0x5
 3940 028d 27       		.uleb128 0x27
 3941 028e 19       		.uleb128 0x19
 3942 028f 20       		.uleb128 0x20
 3943 0290 0B       		.uleb128 0xb
 3944 0291 00       		.byte	0
 3945 0292 00       		.byte	0
 3946 0293 2C       		.uleb128 0x2c
 3947 0294 05       		.uleb128 0x5
 3948 0295 00       		.byte	0
 3949 0296 03       		.uleb128 0x3
 3950 0297 0E       		.uleb128 0xe
 3951 0298 3A       		.uleb128 0x3a
 3952 0299 0B       		.uleb128 0xb
 3953 029a 3B       		.uleb128 0x3b
 3954 029b 05       		.uleb128 0x5
 3955 029c 49       		.uleb128 0x49
 3956 029d 13       		.uleb128 0x13
 3957 029e 00       		.byte	0
 3958 029f 00       		.byte	0
 3959 02a0 00       		.byte	0
 3960              		.section	.debug_aranges,"",%progbits
 3961 0000 BC000000 		.4byte	0xbc
 3962 0004 0200     		.2byte	0x2
 3963 0006 00000000 		.4byte	.Ldebug_info0
 3964 000a 04       		.byte	0x4
 3965 000b 00       		.byte	0
 3966 000c 0000     		.2byte	0
 3967 000e 0000     		.2byte	0
 3968 0010 00000000 		.4byte	.LFB127
 3969 0014 12000000 		.4byte	.LFE127-.LFB127
ARM GAS  /tmp/ccPngymc.s 			page 71


 3970 0018 00000000 		.4byte	.LFB128
 3971 001c 12000000 		.4byte	.LFE128-.LFB128
 3972 0020 00000000 		.4byte	.LFB139
 3973 0024 16000000 		.4byte	.LFE139-.LFB139
 3974 0028 00000000 		.4byte	.LFB156
 3975 002c 12000000 		.4byte	.LFE156-.LFB156
 3976 0030 00000000 		.4byte	.LFB157
 3977 0034 3C000000 		.4byte	.LFE157-.LFB157
 3978 0038 00000000 		.4byte	.LFB184
 3979 003c 14000000 		.4byte	.LFE184-.LFB184
 3980 0040 00000000 		.4byte	.LFB214
 3981 0044 18000000 		.4byte	.LFE214-.LFB214
 3982 0048 00000000 		.4byte	.LFB215
 3983 004c 16000000 		.4byte	.LFE215-.LFB215
 3984 0050 00000000 		.4byte	.LFB216
 3985 0054 22000000 		.4byte	.LFE216-.LFB216
 3986 0058 00000000 		.4byte	.LFB231
 3987 005c 6C000000 		.4byte	.LFE231-.LFB231
 3988 0060 00000000 		.4byte	.LFB232
 3989 0064 20000000 		.4byte	.LFE232-.LFB232
 3990 0068 00000000 		.4byte	.LFB233
 3991 006c 5C000000 		.4byte	.LFE233-.LFB233
 3992 0070 00000000 		.4byte	.LFB234
 3993 0074 28000000 		.4byte	.LFE234-.LFB234
 3994 0078 00000000 		.4byte	.LFB235
 3995 007c 98000000 		.4byte	.LFE235-.LFB235
 3996 0080 00000000 		.4byte	.LFB236
 3997 0084 80000000 		.4byte	.LFE236-.LFB236
 3998 0088 00000000 		.4byte	.LFB237
 3999 008c 28000000 		.4byte	.LFE237-.LFB237
 4000 0090 00000000 		.4byte	.LFB238
 4001 0094 9C000000 		.4byte	.LFE238-.LFB238
 4002 0098 00000000 		.4byte	.LFB239
 4003 009c 84000000 		.4byte	.LFE239-.LFB239
 4004 00a0 00000000 		.4byte	.LFB240
 4005 00a4 28000000 		.4byte	.LFE240-.LFB240
 4006 00a8 00000000 		.4byte	.LFB241
 4007 00ac A0000000 		.4byte	.LFE241-.LFB241
 4008 00b0 00000000 		.4byte	.LFB242
 4009 00b4 88000000 		.4byte	.LFE242-.LFB242
 4010 00b8 00000000 		.4byte	0
 4011 00bc 00000000 		.4byte	0
 4012              		.section	.debug_ranges,"",%progbits
 4013              	.Ldebug_ranges0:
 4014 0000 00000000 		.4byte	.LFB127
 4015 0004 12000000 		.4byte	.LFE127
 4016 0008 00000000 		.4byte	.LFB128
 4017 000c 12000000 		.4byte	.LFE128
 4018 0010 00000000 		.4byte	.LFB139
 4019 0014 16000000 		.4byte	.LFE139
 4020 0018 00000000 		.4byte	.LFB156
 4021 001c 12000000 		.4byte	.LFE156
 4022 0020 00000000 		.4byte	.LFB157
 4023 0024 3C000000 		.4byte	.LFE157
 4024 0028 00000000 		.4byte	.LFB184
 4025 002c 14000000 		.4byte	.LFE184
 4026 0030 00000000 		.4byte	.LFB214
ARM GAS  /tmp/ccPngymc.s 			page 72


 4027 0034 18000000 		.4byte	.LFE214
 4028 0038 00000000 		.4byte	.LFB215
 4029 003c 16000000 		.4byte	.LFE215
 4030 0040 00000000 		.4byte	.LFB216
 4031 0044 22000000 		.4byte	.LFE216
 4032 0048 00000000 		.4byte	.LFB231
 4033 004c 6C000000 		.4byte	.LFE231
 4034 0050 00000000 		.4byte	.LFB232
 4035 0054 20000000 		.4byte	.LFE232
 4036 0058 00000000 		.4byte	.LFB233
 4037 005c 5C000000 		.4byte	.LFE233
 4038 0060 00000000 		.4byte	.LFB234
 4039 0064 28000000 		.4byte	.LFE234
 4040 0068 00000000 		.4byte	.LFB235
 4041 006c 98000000 		.4byte	.LFE235
 4042 0070 00000000 		.4byte	.LFB236
 4043 0074 80000000 		.4byte	.LFE236
 4044 0078 00000000 		.4byte	.LFB237
 4045 007c 28000000 		.4byte	.LFE237
 4046 0080 00000000 		.4byte	.LFB238
 4047 0084 9C000000 		.4byte	.LFE238
 4048 0088 00000000 		.4byte	.LFB239
 4049 008c 84000000 		.4byte	.LFE239
 4050 0090 00000000 		.4byte	.LFB240
 4051 0094 28000000 		.4byte	.LFE240
 4052 0098 00000000 		.4byte	.LFB241
 4053 009c A0000000 		.4byte	.LFE241
 4054 00a0 00000000 		.4byte	.LFB242
 4055 00a4 88000000 		.4byte	.LFE242
 4056 00a8 00000000 		.4byte	0
 4057 00ac 00000000 		.4byte	0
 4058              		.section	.debug_line,"",%progbits
 4059              	.Ldebug_line0:
 4060 0000 9F040000 		.section	.debug_str,"MS",%progbits,1
 4060      02002002 
 4060      00000201 
 4060      FB0E0D00 
 4060      01010101 
 4061              	.LASF132:
 4062 0000 63665F6F 		.ascii	"cf_off_older\000"
 4062      66665F6F 
 4062      6C646572 
 4062      00
 4063              	.LASF57:
 4064 000d 72656164 		.ascii	"ready_list_t\000"
 4064      795F6C69 
 4064      73745F74 
 4064      00
 4065              	.LASF167:
 4066 001a 63684D42 		.ascii	"chMBObjectInit\000"
 4066      4F626A65 
 4066      6374496E 
 4066      697400
 4067              	.LASF110:
 4068 0029 77747472 		.ascii	"wttrp\000"
 4068      7000
 4069              	.LASF107:
ARM GAS  /tmp/ccPngymc.s 			page 73


 4070 002f 7264796D 		.ascii	"rdymsg\000"
 4070      736700
 4071              	.LASF19:
 4072 0036 75696E74 		.ascii	"uint64_t\000"
 4072      36345F74 
 4072      00
 4073              	.LASF86:
 4074 003f 6B65726E 		.ascii	"kernel_stats\000"
 4074      656C5F73 
 4074      74617473 
 4074      00
 4075              	.LASF6:
 4076 004c 5F5F7569 		.ascii	"__uint8_t\000"
 4076      6E74385F 
 4076      7400
 4077              	.LASF128:
 4078 0056 63685F74 		.ascii	"ch_threadsize\000"
 4078      68726561 
 4078      6473697A 
 4078      6500
 4079              	.LASF94:
 4080 0064 706F7274 		.ascii	"port_intctx\000"
 4080      5F696E74 
 4080      63747800 
 4081              	.LASF56:
 4082 0070 63685F74 		.ascii	"ch_threads_queue\000"
 4082      68726561 
 4082      64735F71 
 4082      75657565 
 4082      00
 4083              	.LASF76:
 4084 0081 73797374 		.ascii	"system_debug_t\000"
 4084      656D5F64 
 4084      65627567 
 4084      5F7400
 4085              	.LASF173:
 4086 0090 71756575 		.ascii	"queue_init\000"
 4086      655F696E 
 4086      697400
 4087              	.LASF163:
 4088 009b 63684D42 		.ascii	"chMBPostS\000"
 4088      506F7374 
 4088      5300
 4089              	.LASF98:
 4090 00a5 776F7273 		.ascii	"worst\000"
 4090      7400
 4091              	.LASF101:
 4092 00ab 74696D65 		.ascii	"time_measurement_t\000"
 4092      5F6D6561 
 4092      73757265 
 4092      6D656E74 
 4092      5F7400
 4093              	.LASF159:
 4094 00be 63684D42 		.ascii	"chMBPostAheadI\000"
 4094      506F7374 
 4094      41686561 
 4094      644900
ARM GAS  /tmp/ccPngymc.s 			page 74


 4095              	.LASF150:
 4096 00cd 6D625F71 		.ascii	"mb_qr\000"
 4096      7200
 4097              	.LASF14:
 4098 00d3 6C6F6E67 		.ascii	"long long unsigned int\000"
 4098      206C6F6E 
 4098      6720756E 
 4098      7369676E 
 4098      65642069 
 4099              	.LASF149:
 4100 00ea 6D625F71 		.ascii	"mb_qw\000"
 4100      7700
 4101              	.LASF108:
 4102 00f0 65786974 		.ascii	"exitcode\000"
 4102      636F6465 
 4102      00
 4103              	.LASF160:
 4104 00f9 63684D42 		.ascii	"chMBPostAheadS\000"
 4104      506F7374 
 4104      41686561 
 4104      645300
 4105              	.LASF73:
 4106 0108 76697274 		.ascii	"virtual_timers_list_t\000"
 4106      75616C5F 
 4106      74696D65 
 4106      72735F6C 
 4106      6973745F 
 4107              	.LASF145:
 4108 011e 6D625F77 		.ascii	"mb_wrptr\000"
 4108      72707472 
 4108      00
 4109              	.LASF21:
 4110 0127 72747469 		.ascii	"rttime_t\000"
 4110      6D655F74 
 4110      00
 4111              	.LASF34:
 4112 0130 705F7072 		.ascii	"p_prio\000"
 4112      696F00
 4113              	.LASF135:
 4114 0137 63665F6F 		.ascii	"cf_off_state\000"
 4114      66665F73 
 4114      74617465 
 4114      00
 4115              	.LASF1:
 4116 0144 6C6F6E67 		.ascii	"long long int\000"
 4116      206C6F6E 
 4116      6720696E 
 4116      7400
 4117              	.LASF3:
 4118 0152 7369676E 		.ascii	"signed char\000"
 4118      65642063 
 4118      68617200 
 4119              	.LASF134:
 4120 015e 63665F6F 		.ascii	"cf_off_stklimit\000"
 4120      66665F73 
 4120      746B6C69 
 4120      6D697400 
ARM GAS  /tmp/ccPngymc.s 			page 75


 4121              	.LASF136:
 4122 016e 63665F6F 		.ascii	"cf_off_flags\000"
 4122      66665F66 
 4122      6C616773 
 4122      00
 4123              	.LASF49:
 4124 017b 705F6D70 		.ascii	"p_mpool\000"
 4124      6F6F6C00 
 4125              	.LASF118:
 4126 0183 6D5F7175 		.ascii	"m_queue\000"
 4126      65756500 
 4127              	.LASF84:
 4128 018b 76746C69 		.ascii	"vtlist\000"
 4128      737400
 4129              	.LASF174:
 4130 0192 706F7274 		.ascii	"port_unlock\000"
 4130      5F756E6C 
 4130      6F636B00 
 4131              	.LASF164:
 4132 019e 63684D42 		.ascii	"chMBPost\000"
 4132      506F7374 
 4132      00
 4133              	.LASF10:
 4134 01a7 6C6F6E67 		.ascii	"long int\000"
 4134      20696E74 
 4134      00
 4135              	.LASF23:
 4136 01b0 74737461 		.ascii	"tstate_t\000"
 4136      74655F74 
 4136      00
 4137              	.LASF176:
 4138 01b9 474E5520 		.ascii	"GNU C11 6.3.1 20170620 (release) [ARM/embedded-6-br"
 4138      43313120 
 4138      362E332E 
 4138      31203230 
 4138      31373036 
 4139 01ec 616E6368 		.ascii	"anch revision 249437] -mcpu=cortex-m4 -mfloat-abi=h"
 4139      20726576 
 4139      6973696F 
 4139      6E203234 
 4139      39343337 
 4140 021f 61726420 		.ascii	"ard -mfpu=fpv4-sp-d16 -mno-thumb-interwork -mthumb "
 4140      2D6D6670 
 4140      753D6670 
 4140      76342D73 
 4140      702D6431 
 4141 0252 2D676764 		.ascii	"-ggdb -O0 -fomit-frame-pointer -falign-functions=16"
 4141      62202D4F 
 4141      30202D66 
 4141      6F6D6974 
 4141      2D667261 
 4142 0285 202D6666 		.ascii	" -ffunction-sections -fdata-sections -fno-common -f"
 4142      756E6374 
 4142      696F6E2D 
 4142      73656374 
 4142      696F6E73 
 4143 02b8 73696E67 		.ascii	"single-precision-constant\000"
ARM GAS  /tmp/ccPngymc.s 			page 76


 4143      6C652D70 
 4143      72656369 
 4143      73696F6E 
 4143      2D636F6E 
 4144              	.LASF140:
 4145 02d2 63686465 		.ascii	"chdebug_t\000"
 4145      6275675F 
 4145      7400
 4146              	.LASF36:
 4147 02dc 705F6E65 		.ascii	"p_newer\000"
 4147      77657200 
 4148              	.LASF115:
 4149 02e4 735F7175 		.ascii	"s_queue\000"
 4149      65756500 
 4150              	.LASF168:
 4151 02ec 63684D42 		.ascii	"chMBGetFreeCountI\000"
 4151      47657446 
 4151      72656543 
 4151      6F756E74 
 4151      4900
 4152              	.LASF8:
 4153 02fe 73686F72 		.ascii	"short unsigned int\000"
 4153      7420756E 
 4153      7369676E 
 4153      65642069 
 4153      6E7400
 4154              	.LASF2:
 4155 0311 6C6F6E67 		.ascii	"long double\000"
 4155      20646F75 
 4155      626C6500 
 4156              	.LASF146:
 4157 031d 6D625F72 		.ascii	"mb_rdptr\000"
 4157      64707472 
 4157      00
 4158              	.LASF91:
 4159 0326 72656761 		.ascii	"regarm_t\000"
 4159      726D5F74 
 4159      00
 4160              	.LASF69:
 4161 032f 76745F70 		.ascii	"vt_prev\000"
 4161      72657600 
 4162              	.LASF77:
 4163 0337 63685F73 		.ascii	"ch_system_debug\000"
 4163      79737465 
 4163      6D5F6465 
 4163      62756700 
 4164              	.LASF83:
 4165 0347 726C6973 		.ascii	"rlist\000"
 4165      7400
 4166              	.LASF142:
 4167 034d 6D757465 		.ascii	"mutex_t\000"
 4167      785F7400 
 4168              	.LASF181:
 4169 0355 76616C75 		.ascii	"value\000"
 4169      6500
 4170              	.LASF80:
 4171 035b 6C6F636B 		.ascii	"lock_cnt\000"
ARM GAS  /tmp/ccPngymc.s 			page 77


 4171      5F636E74 
 4171      00
 4172              	.LASF87:
 4173 0364 69646C65 		.ascii	"idle_thread_wa\000"
 4173      5F746872 
 4173      6561645F 
 4173      776100
 4174              	.LASF28:
 4175 0373 636E745F 		.ascii	"cnt_t\000"
 4175      7400
 4176              	.LASF39:
 4177 0379 705F7374 		.ascii	"p_stklimit\000"
 4177      6B6C696D 
 4177      697400
 4178              	.LASF0:
 4179 0384 756E7369 		.ascii	"unsigned int\000"
 4179      676E6564 
 4179      20696E74 
 4179      00
 4180              	.LASF68:
 4181 0391 76745F6E 		.ascii	"vt_next\000"
 4181      65787400 
 4182              	.LASF16:
 4183 0399 75696E74 		.ascii	"uint16_t\000"
 4183      31365F74 
 4183      00
 4184              	.LASF90:
 4185 03a2 53797374 		.ascii	"SystemCoreClock\000"
 4185      656D436F 
 4185      7265436C 
 4185      6F636B00 
 4186              	.LASF178:
 4187 03b2 2F686F6D 		.ascii	"/home/matt/Documents/fibre-link/header-detection/pc"
 4187      652F6D61 
 4187      74742F44 
 4187      6F63756D 
 4187      656E7473 
 4188 03e5 622F7374 		.ascii	"b/stm32/firmware\000"
 4188      6D33322F 
 4188      6669726D 
 4188      77617265 
 4188      00
 4189              	.LASF111:
 4190 03f6 77747365 		.ascii	"wtsemp\000"
 4190      6D7000
 4191              	.LASF70:
 4192 03fd 76745F64 		.ascii	"vt_delta\000"
 4192      656C7461 
 4192      00
 4193              	.LASF44:
 4194 0406 705F6D73 		.ascii	"p_msgqueue\000"
 4194      67717565 
 4194      756500
 4195              	.LASF141:
 4196 0411 63685F64 		.ascii	"ch_debug\000"
 4196      65627567 
 4196      00
ARM GAS  /tmp/ccPngymc.s 			page 78


 4197              	.LASF156:
 4198 041a 74696D65 		.ascii	"timeout\000"
 4198      6F757400 
 4199              	.LASF102:
 4200 0422 6E5F6972 		.ascii	"n_irq\000"
 4200      7100
 4201              	.LASF116:
 4202 0428 735F636E 		.ascii	"s_cnt\000"
 4202      7400
 4203              	.LASF165:
 4204 042e 63684D42 		.ascii	"chMBResetI\000"
 4204      52657365 
 4204      744900
 4205              	.LASF106:
 4206 0439 6B65726E 		.ascii	"kernel_stats_t\000"
 4206      656C5F73 
 4206      74617473 
 4206      5F7400
 4207              	.LASF53:
 4208 0448 63685F74 		.ascii	"ch_thread\000"
 4208      68726561 
 4208      6400
 4209              	.LASF85:
 4210 0452 6D61696E 		.ascii	"mainthread\000"
 4210      74687265 
 4210      616400
 4211              	.LASF154:
 4212 045d 63684D42 		.ascii	"chMBFetchI\000"
 4212      46657463 
 4212      684900
 4213              	.LASF26:
 4214 0468 6D73675F 		.ascii	"msg_t\000"
 4214      7400
 4215              	.LASF99:
 4216 046e 6C617374 		.ascii	"last\000"
 4216      00
 4217              	.LASF29:
 4218 0473 75636E74 		.ascii	"ucnt_t\000"
 4218      5F7400
 4219              	.LASF62:
 4220 047a 725F6E65 		.ascii	"r_newer\000"
 4220      77657200 
 4221              	.LASF81:
 4222 0482 63685F73 		.ascii	"ch_system_t\000"
 4222      79737465 
 4222      6D5F7400 
 4223              	.LASF155:
 4224 048e 63684D42 		.ascii	"chMBFetchS\000"
 4224      46657463 
 4224      685300
 4225              	.LASF139:
 4226 0499 63665F6F 		.ascii	"cf_off_time\000"
 4226      66665F74 
 4226      696D6500 
 4227              	.LASF105:
 4228 04a5 6D5F6372 		.ascii	"m_crit_isr\000"
 4228      69745F69 
ARM GAS  /tmp/ccPngymc.s 			page 79


 4228      737200
 4229              	.LASF58:
 4230 04b0 63685F72 		.ascii	"ch_ready_list\000"
 4230      65616479 
 4230      5F6C6973 
 4230      7400
 4231              	.LASF27:
 4232 04be 6576656E 		.ascii	"eventmask_t\000"
 4232      746D6173 
 4232      6B5F7400 
 4233              	.LASF9:
 4234 04ca 5F5F696E 		.ascii	"__int32_t\000"
 4234      7433325F 
 4234      7400
 4235              	.LASF153:
 4236 04d4 6D736770 		.ascii	"msgp\000"
 4236      00
 4237              	.LASF92:
 4238 04d9 73746B61 		.ascii	"stkalign_t\000"
 4238      6C69676E 
 4238      5F7400
 4239              	.LASF52:
 4240 04e4 74687265 		.ascii	"threads_list_t\000"
 4240      6164735F 
 4240      6C697374 
 4240      5F7400
 4241              	.LASF123:
 4242 04f3 63685F7A 		.ascii	"ch_zero\000"
 4242      65726F00 
 4243              	.LASF137:
 4244 04fb 63665F6F 		.ascii	"cf_off_refs\000"
 4244      66665F72 
 4244      65667300 
 4245              	.LASF171:
 4246 0507 63685468 		.ascii	"chThdQueueObjectInit\000"
 4246      64517565 
 4246      75654F62 
 4246      6A656374 
 4246      496E6974 
 4247              	.LASF43:
 4248 051c 705F7761 		.ascii	"p_waiting\000"
 4248      6974696E 
 4248      6700
 4249              	.LASF88:
 4250 0526 73697A65 		.ascii	"sizetype\000"
 4250      74797065 
 4250      00
 4251              	.LASF74:
 4252 052f 63685F76 		.ascii	"ch_virtual_timers_list\000"
 4252      69727475 
 4252      616C5F74 
 4252      696D6572 
 4252      735F6C69 
 4253              	.LASF158:
 4254 0546 63684D42 		.ascii	"chMBFetch\000"
 4254      46657463 
 4254      6800
ARM GAS  /tmp/ccPngymc.s 			page 80


 4255              	.LASF127:
 4256 0550 63685F74 		.ascii	"ch_timesize\000"
 4256      696D6573 
 4256      697A6500 
 4257              	.LASF166:
 4258 055c 63684D42 		.ascii	"chMBReset\000"
 4258      52657365 
 4258      7400
 4259              	.LASF133:
 4260 0566 63665F6F 		.ascii	"cf_off_name\000"
 4260      66665F6E 
 4260      616D6500 
 4261              	.LASF37:
 4262 0572 705F6F6C 		.ascii	"p_older\000"
 4262      64657200 
 4263              	.LASF61:
 4264 057a 725F6374 		.ascii	"r_ctx\000"
 4264      7800
 4265              	.LASF35:
 4266 0580 705F6374 		.ascii	"p_ctx\000"
 4266      7800
 4267              	.LASF96:
 4268 0586 746D5F63 		.ascii	"tm_calibration_t\000"
 4268      616C6962 
 4268      72617469 
 4268      6F6E5F74 
 4268      00
 4269              	.LASF143:
 4270 0597 6D625F62 		.ascii	"mb_buffer\000"
 4270      75666665 
 4270      7200
 4271              	.LASF64:
 4272 05a1 725F6375 		.ascii	"r_current\000"
 4272      7272656E 
 4272      7400
 4273              	.LASF63:
 4274 05ab 725F6F6C 		.ascii	"r_older\000"
 4274      64657200 
 4275              	.LASF13:
 4276 05b3 5F5F7569 		.ascii	"__uint64_t\000"
 4276      6E743634 
 4276      5F7400
 4277              	.LASF100:
 4278 05be 63756D75 		.ascii	"cumulative\000"
 4278      6C617469 
 4278      766500
 4279              	.LASF147:
 4280 05c9 6D625F63 		.ascii	"mb_cnt\000"
 4280      6E7400
 4281              	.LASF24:
 4282 05d0 74726566 		.ascii	"trefs_t\000"
 4282      735F7400 
 4283              	.LASF126:
 4284 05d8 63685F70 		.ascii	"ch_ptrsize\000"
 4284      74727369 
 4284      7A6500
 4285              	.LASF66:
ARM GAS  /tmp/ccPngymc.s 			page 81


 4286 05e3 76697274 		.ascii	"virtual_timer_t\000"
 4286      75616C5F 
 4286      74696D65 
 4286      725F7400 
 4287              	.LASF33:
 4288 05f3 705F7072 		.ascii	"p_prev\000"
 4288      657600
 4289              	.LASF25:
 4290 05fa 74707269 		.ascii	"tprio_t\000"
 4290      6F5F7400 
 4291              	.LASF103:
 4292 0602 6E5F6374 		.ascii	"n_ctxswc\000"
 4292      78737763 
 4292      00
 4293              	.LASF151:
 4294 060b 5F426F6F 		.ascii	"_Bool\000"
 4294      6C00
 4295              	.LASF17:
 4296 0611 696E7433 		.ascii	"int32_t\000"
 4296      325F7400 
 4297              	.LASF4:
 4298 0619 756E7369 		.ascii	"unsigned char\000"
 4298      676E6564 
 4298      20636861 
 4298      7200
 4299              	.LASF169:
 4300 0627 63684D42 		.ascii	"chMBGetUsedCountI\000"
 4300      47657455 
 4300      73656443 
 4300      6F756E74 
 4300      4900
 4301              	.LASF144:
 4302 0639 6D625F74 		.ascii	"mb_top\000"
 4302      6F7000
 4303              	.LASF89:
 4304 0640 49544D5F 		.ascii	"ITM_RxBuffer\000"
 4304      52784275 
 4304      66666572 
 4304      00
 4305              	.LASF47:
 4306 064d 705F6D74 		.ascii	"p_mtxlist\000"
 4306      786C6973 
 4306      7400
 4307              	.LASF5:
 4308 0657 73686F72 		.ascii	"short int\000"
 4308      7420696E 
 4308      7400
 4309              	.LASF40:
 4310 0661 705F7374 		.ascii	"p_state\000"
 4310      61746500 
 4311              	.LASF60:
 4312 0669 725F7072 		.ascii	"r_prio\000"
 4312      696F00
 4313              	.LASF113:
 4314 0670 65776D61 		.ascii	"ewmask\000"
 4314      736B00
 4315              	.LASF32:
ARM GAS  /tmp/ccPngymc.s 			page 82


 4316 0677 705F6E65 		.ascii	"p_next\000"
 4316      787400
 4317              	.LASF22:
 4318 067e 746D6F64 		.ascii	"tmode_t\000"
 4318      655F7400 
 4319              	.LASF138:
 4320 0686 63665F6F 		.ascii	"cf_off_preempt\000"
 4320      66665F70 
 4320      7265656D 
 4320      707400
 4321              	.LASF41:
 4322 0695 705F666C 		.ascii	"p_flags\000"
 4322      61677300 
 4323              	.LASF157:
 4324 069d 5F5F6675 		.ascii	"__func__\000"
 4324      6E635F5F 
 4324      00
 4325              	.LASF50:
 4326 06a6 705F7374 		.ascii	"p_stats\000"
 4326      61747300 
 4327              	.LASF179:
 4328 06ae 63685379 		.ascii	"chSysLock\000"
 4328      734C6F63 
 4328      6B00
 4329              	.LASF82:
 4330 06b8 63685F73 		.ascii	"ch_system\000"
 4330      79737465 
 4330      6D00
 4331              	.LASF114:
 4332 06c2 63685F73 		.ascii	"ch_semaphore\000"
 4332      656D6170 
 4332      686F7265 
 4332      00
 4333              	.LASF55:
 4334 06cf 74687265 		.ascii	"threads_queue_t\000"
 4334      6164735F 
 4334      71756575 
 4334      655F7400 
 4335              	.LASF67:
 4336 06df 63685F76 		.ascii	"ch_virtual_timer\000"
 4336      69727475 
 4336      616C5F74 
 4336      696D6572 
 4336      00
 4337              	.LASF131:
 4338 06f0 63665F6F 		.ascii	"cf_off_newer\000"
 4338      66665F6E 
 4338      65776572 
 4338      00
 4339              	.LASF170:
 4340 06fd 63684D42 		.ascii	"chMBGetSizeI\000"
 4340      47657453 
 4340      697A6549 
 4340      00
 4341              	.LASF46:
 4342 070a 705F6570 		.ascii	"p_epending\000"
 4342      656E6469 
ARM GAS  /tmp/ccPngymc.s 			page 83


 4342      6E6700
 4343              	.LASF18:
 4344 0715 75696E74 		.ascii	"uint32_t\000"
 4344      33325F74 
 4344      00
 4345              	.LASF129:
 4346 071e 63665F6F 		.ascii	"cf_off_prio\000"
 4346      66665F70 
 4346      72696F00 
 4347              	.LASF59:
 4348 072a 725F7175 		.ascii	"r_queue\000"
 4348      65756500 
 4349              	.LASF54:
 4350 0732 63685F74 		.ascii	"ch_threads_list\000"
 4350      68726561 
 4350      64735F6C 
 4350      69737400 
 4351              	.LASF124:
 4352 0742 63685F73 		.ascii	"ch_size\000"
 4352      697A6500 
 4353              	.LASF12:
 4354 074a 6C6F6E67 		.ascii	"long unsigned int\000"
 4354      20756E73 
 4354      69676E65 
 4354      6420696E 
 4354      7400
 4355              	.LASF121:
 4356 075c 63686172 		.ascii	"char\000"
 4356      00
 4357              	.LASF112:
 4358 0761 77746D74 		.ascii	"wtmtxp\000"
 4358      787000
 4359              	.LASF45:
 4360 0768 705F6D73 		.ascii	"p_msg\000"
 4360      6700
 4361              	.LASF7:
 4362 076e 5F5F7569 		.ascii	"__uint16_t\000"
 4362      6E743136 
 4362      5F7400
 4363              	.LASF31:
 4364 0779 74687265 		.ascii	"thread_t\000"
 4364      61645F74 
 4364      00
 4365              	.LASF97:
 4366 0782 62657374 		.ascii	"best\000"
 4366      00
 4367              	.LASF120:
 4368 0787 6D5F6E65 		.ascii	"m_next\000"
 4368      787400
 4369              	.LASF30:
 4370 078e 73797374 		.ascii	"systime_t\000"
 4370      696D655F 
 4370      7400
 4371              	.LASF48:
 4372 0798 705F7265 		.ascii	"p_realprio\000"
 4372      616C7072 
 4372      696F00
ARM GAS  /tmp/ccPngymc.s 			page 84


 4373              	.LASF65:
 4374 07a3 76746675 		.ascii	"vtfunc_t\000"
 4374      6E635F74 
 4374      00
 4375              	.LASF11:
 4376 07ac 5F5F7569 		.ascii	"__uint32_t\000"
 4376      6E743332 
 4376      5F7400
 4377              	.LASF180:
 4378 07b7 5F5F7365 		.ascii	"__set_BASEPRI\000"
 4378      745F4241 
 4378      53455052 
 4378      4900
 4379              	.LASF78:
 4380 07c5 70616E69 		.ascii	"panic_msg\000"
 4380      635F6D73 
 4380      6700
 4381              	.LASF95:
 4382 07cf 6F666673 		.ascii	"offset\000"
 4382      657400
 4383              	.LASF93:
 4384 07d6 636F6E74 		.ascii	"context\000"
 4384      65787400 
 4385              	.LASF161:
 4386 07de 63684D42 		.ascii	"chMBPostAhead\000"
 4386      506F7374 
 4386      41686561 
 4386      6400
 4387              	.LASF20:
 4388 07ec 7274636E 		.ascii	"rtcnt_t\000"
 4388      745F7400 
 4389              	.LASF72:
 4390 07f4 76745F70 		.ascii	"vt_par\000"
 4390      617200
 4391              	.LASF130:
 4392 07fb 63665F6F 		.ascii	"cf_off_ctx\000"
 4392      66665F63 
 4392      747800
 4393              	.LASF117:
 4394 0806 63685F6D 		.ascii	"ch_mutex\000"
 4394      75746578 
 4394      00
 4395              	.LASF42:
 4396 080f 705F7265 		.ascii	"p_refs\000"
 4396      667300
 4397              	.LASF79:
 4398 0816 6973725F 		.ascii	"isr_cnt\000"
 4398      636E7400 
 4399              	.LASF148:
 4400 081e 6D625F72 		.ascii	"mb_reset\000"
 4400      65736574 
 4400      00
 4401              	.LASF177:
 4402 0827 2E2E2F43 		.ascii	"../ChibiOS/os/rt/src/chmboxes.c\000"
 4402      68696269 
 4402      4F532F6F 
 4402      732F7274 
ARM GAS  /tmp/ccPngymc.s 			page 85


 4402      2F737263 
 4403              	.LASF15:
 4404 0847 75696E74 		.ascii	"uint8_t\000"
 4404      385F7400 
 4405              	.LASF51:
 4406 084f 74687265 		.ascii	"thread_reference_t\000"
 4406      61645F72 
 4406      65666572 
 4406      656E6365 
 4406      5F7400
 4407              	.LASF109:
 4408 0862 77746F62 		.ascii	"wtobjp\000"
 4408      6A7000
 4409              	.LASF38:
 4410 0869 705F6E61 		.ascii	"p_name\000"
 4410      6D6500
 4411              	.LASF162:
 4412 0870 63684D42 		.ascii	"chMBPostI\000"
 4412      506F7374 
 4412      4900
 4413              	.LASF75:
 4414 087a 76745F73 		.ascii	"vt_systime\000"
 4414      79737469 
 4414      6D6500
 4415              	.LASF152:
 4416 0885 6D61696C 		.ascii	"mailbox_t\000"
 4416      626F785F 
 4416      7400
 4417              	.LASF172:
 4418 088f 63685379 		.ascii	"chSysUnlock\000"
 4418      73556E6C 
 4418      6F636B00 
 4419              	.LASF125:
 4420 089b 63685F76 		.ascii	"ch_version\000"
 4420      65727369 
 4420      6F6E00
 4421              	.LASF175:
 4422 08a6 706F7274 		.ascii	"port_lock\000"
 4422      5F6C6F63 
 4422      6B00
 4423              	.LASF104:
 4424 08b0 6D5F6372 		.ascii	"m_crit_thd\000"
 4424      69745F74 
 4424      686400
 4425              	.LASF119:
 4426 08bb 6D5F6F77 		.ascii	"m_owner\000"
 4426      6E657200 
 4427              	.LASF122:
 4428 08c3 63685F69 		.ascii	"ch_identifier\000"
 4428      64656E74 
 4428      69666965 
 4428      7200
 4429              	.LASF71:
 4430 08d1 76745F66 		.ascii	"vt_func\000"
 4430      756E6300 
 4431              		.ident	"GCC: (GNU Tools for ARM Embedded Processors 6-2017-q2-update) 6.3.1 20170620 (release) [AR
ARM GAS  /tmp/ccPngymc.s 			page 86


DEFINED SYMBOLS
                            *ABS*:0000000000000000 chmboxes.c
     /tmp/ccPngymc.s:18     .text.port_lock:0000000000000000 $t
     /tmp/ccPngymc.s:25     .text.port_lock:0000000000000000 port_lock
     /tmp/ccPngymc.s:60     .text.port_unlock:0000000000000000 $t
     /tmp/ccPngymc.s:67     .text.port_unlock:0000000000000000 port_unlock
     /tmp/ccPngymc.s:100    .text.queue_init:0000000000000000 $t
     /tmp/ccPngymc.s:107    .text.queue_init:0000000000000000 queue_init
     /tmp/ccPngymc.s:136    .text.chSysLock:0000000000000000 $t
     /tmp/ccPngymc.s:143    .text.chSysLock:0000000000000000 chSysLock
     /tmp/ccPngymc.s:167    .text.chSysUnlock:0000000000000000 $t
     /tmp/ccPngymc.s:174    .text.chSysUnlock:0000000000000000 chSysUnlock
     /tmp/ccPngymc.s:215    .text.chSysUnlock:0000000000000034 $d
     /tmp/ccPngymc.s:1369   .rodata.__func__.7157:0000000000000000 __func__.7157
     /tmp/ccPngymc.s:221    .text.chThdQueueObjectInit:0000000000000000 $t
     /tmp/ccPngymc.s:228    .text.chThdQueueObjectInit:0000000000000000 chThdQueueObjectInit
     /tmp/ccPngymc.s:254    .text.chMBGetSizeI:0000000000000000 $t
     /tmp/ccPngymc.s:261    .text.chMBGetSizeI:0000000000000000 chMBGetSizeI
     /tmp/ccPngymc.s:290    .text.chMBGetUsedCountI:0000000000000000 $t
     /tmp/ccPngymc.s:297    .text.chMBGetUsedCountI:0000000000000000 chMBGetUsedCountI
     /tmp/ccPngymc.s:324    .text.chMBGetFreeCountI:0000000000000000 $t
     /tmp/ccPngymc.s:331    .text.chMBGetFreeCountI:0000000000000000 chMBGetFreeCountI
     /tmp/ccPngymc.s:364    .text.chMBObjectInit:0000000000000000 $t
     /tmp/ccPngymc.s:372    .text.chMBObjectInit:0000000000000000 chMBObjectInit
     /tmp/ccPngymc.s:450    .text.chMBObjectInit:0000000000000068 $d
     /tmp/ccPngymc.s:1363   .rodata.__func__.7859:0000000000000000 __func__.7859
     /tmp/ccPngymc.s:455    .text.chMBReset:0000000000000000 $t
     /tmp/ccPngymc.s:463    .text.chMBReset:0000000000000000 chMBReset
     /tmp/ccPngymc.s:502    .text.chMBResetI:0000000000000000 chMBResetI
     /tmp/ccPngymc.s:494    .text.chMBResetI:0000000000000000 $t
     /tmp/ccPngymc.s:563    .text.chMBResetI:0000000000000058 $d
     /tmp/ccPngymc.s:1375   .rodata.__func__.7866:0000000000000000 __func__.7866
     /tmp/ccPngymc.s:568    .text.chMBPost:0000000000000000 $t
     /tmp/ccPngymc.s:576    .text.chMBPost:0000000000000000 chMBPost
     /tmp/ccPngymc.s:620    .text.chMBPostS:0000000000000000 chMBPostS
     /tmp/ccPngymc.s:612    .text.chMBPostS:0000000000000000 $t
     /tmp/ccPngymc.s:721    .text.chMBPostS:0000000000000094 $d
     /tmp/ccPngymc.s:1381   .rodata.__func__.7879:0000000000000000 __func__.7879
     /tmp/ccPngymc.s:726    .text.chMBPostI:0000000000000000 $t
     /tmp/ccPngymc.s:734    .text.chMBPostI:0000000000000000 chMBPostI
     /tmp/ccPngymc.s:821    .text.chMBPostI:000000000000007c $d
     /tmp/ccPngymc.s:1387   .rodata.__func__.7886:0000000000000000 __func__.7886
     /tmp/ccPngymc.s:826    .text.chMBPostAhead:0000000000000000 $t
     /tmp/ccPngymc.s:834    .text.chMBPostAhead:0000000000000000 chMBPostAhead
     /tmp/ccPngymc.s:878    .text.chMBPostAheadS:0000000000000000 chMBPostAheadS
     /tmp/ccPngymc.s:870    .text.chMBPostAheadS:0000000000000000 $t
     /tmp/ccPngymc.s:982    .text.chMBPostAheadS:0000000000000098 $d
     /tmp/ccPngymc.s:1393   .rodata.__func__.7899:0000000000000000 __func__.7899
     /tmp/ccPngymc.s:987    .text.chMBPostAheadI:0000000000000000 $t
     /tmp/ccPngymc.s:995    .text.chMBPostAheadI:0000000000000000 chMBPostAheadI
     /tmp/ccPngymc.s:1085   .text.chMBPostAheadI:0000000000000080 $d
     /tmp/ccPngymc.s:1399   .rodata.__func__.7906:0000000000000000 __func__.7906
     /tmp/ccPngymc.s:1090   .text.chMBFetch:0000000000000000 $t
     /tmp/ccPngymc.s:1098   .text.chMBFetch:0000000000000000 chMBFetch
     /tmp/ccPngymc.s:1142   .text.chMBFetchS:0000000000000000 chMBFetchS
     /tmp/ccPngymc.s:1134   .text.chMBFetchS:0000000000000000 $t
     /tmp/ccPngymc.s:1249   .text.chMBFetchS:000000000000009c $d
ARM GAS  /tmp/ccPngymc.s 			page 87


     /tmp/ccPngymc.s:1405   .rodata.__func__.7919:0000000000000000 __func__.7919
     /tmp/ccPngymc.s:1254   .text.chMBFetchI:0000000000000000 $t
     /tmp/ccPngymc.s:1262   .text.chMBFetchI:0000000000000000 chMBFetchI
     /tmp/ccPngymc.s:1355   .text.chMBFetchI:0000000000000084 $d
     /tmp/ccPngymc.s:1411   .rodata.__func__.7926:0000000000000000 __func__.7926
     /tmp/ccPngymc.s:1360   .rodata.__func__.7859:0000000000000000 $d
     /tmp/ccPngymc.s:1366   .rodata.__func__.7157:0000000000000000 $d
     /tmp/ccPngymc.s:1372   .rodata.__func__.7866:0000000000000000 $d
     /tmp/ccPngymc.s:1378   .rodata.__func__.7879:0000000000000000 $d
     /tmp/ccPngymc.s:1384   .rodata.__func__.7886:0000000000000000 $d
     /tmp/ccPngymc.s:1390   .rodata.__func__.7899:0000000000000000 $d
     /tmp/ccPngymc.s:1396   .rodata.__func__.7906:0000000000000000 $d
     /tmp/ccPngymc.s:1402   .rodata.__func__.7919:0000000000000000 $d
     /tmp/ccPngymc.s:1408   .rodata.__func__.7926:0000000000000000 $d
                     .debug_frame:0000000000000010 $d

UNDEFINED SYMBOLS
_stats_start_measure_crit_thd
_dbg_check_lock
_dbg_check_unlock
_stats_stop_measure_crit_thd
chSysHalt
ch
chDbgCheckClassI
chSchRescheduleS
chThdDequeueAllI
chDbgCheckClassS
chThdDequeueNextI
chThdEnqueueTimeoutS
