ARM GAS  /tmp/ccPngymc.s 			page 1


   1              		.cpu cortex-m4
   2              		.eabi_attribute 27, 1
   3              		.eabi_attribute 28, 1
   4              		.eabi_attribute 20, 1
   5              		.eabi_attribute 21, 1
   6              		.eabi_attribute 23, 3
   7              		.eabi_attribute 24, 1
   8              		.eabi_attribute 25, 1
   9              		.eabi_attribute 26, 1
  10              		.eabi_attribute 30, 6
  11              		.eabi_attribute 34, 1
  12              		.eabi_attribute 18, 4
  13              		.file	"chmboxes.c"
  14              		.text
  15              	.Ltext0:
  16              		.cfi_sections	.debug_frame
  17              		.section	.text.port_lock,"ax",%progbits
  18              		.align	1
  19              		.p2align 4,,15
  20              		.syntax unified
  21              		.thumb
  22              		.thumb_func
  23              		.fpu fpv4-sp-d16
  24              		.type	port_lock, %function
  25              	port_lock:
  26              	.LFB127:
  27              		.file 1 "../ChibiOS/os/rt/ports/ARMCMx/chcore_v7m.h"
  28              		.loc 1 456 0
  29              		.cfi_startproc
  30              		@ args = 0, pretend = 0, frame = 8
  31              		@ frame_needed = 0, uses_anonymous_args = 0
  32              		@ link register save eliminated.
  33 0000 82B0     		sub	sp, sp, #8
  34              		.cfi_def_cfa_offset 8
  35 0002 2023     		movs	r3, #32
  36 0004 0193     		str	r3, [sp, #4]
  37              	.LBB6:
  38              	.LBB7:
  39              		.file 2 "../ChibiOS/os/ext/CMSIS/include/core_cmFunc.h"
  40              		.loc 2 548 0
  41 0006 019B     		ldr	r3, [sp, #4]
  42              		.syntax unified
  43              	@ 548 "../ChibiOS/os/ext/CMSIS/include/core_cmFunc.h" 1
  44 0008 83F31188 		MSR basepri, r3
  45              	@ 0 "" 2
  46              		.thumb
  47              		.syntax unified
  48              	.LBE7:
  49              	.LBE6:
  50              		.loc 1 473 0
  51 000c 00BF     		nop
  52 000e 02B0     		add	sp, sp, #8
  53              		.cfi_def_cfa_offset 0
  54              		@ sp needed
  55 0010 7047     		bx	lr
  56              		.cfi_endproc
  57              	.LFE127:
ARM GAS  /tmp/ccPngymc.s 			page 2


  58              		.size	port_lock, .-port_lock
  59 0012 00BF     		.section	.text.port_unlock,"ax",%progbits
  60              		.align	1
  61              		.p2align 4,,15
  62              		.syntax unified
  63              		.thumb
  64              		.thumb_func
  65              		.fpu fpv4-sp-d16
  66              		.type	port_unlock, %function
  67              	port_unlock:
  68              	.LFB128:
  69              		.loc 1 480 0
  70              		.cfi_startproc
  71              		@ args = 0, pretend = 0, frame = 8
  72              		@ frame_needed = 0, uses_anonymous_args = 0
  73              		@ link register save eliminated.
  74 0000 82B0     		sub	sp, sp, #8
  75              		.cfi_def_cfa_offset 8
  76 0002 0023     		movs	r3, #0
  77 0004 0193     		str	r3, [sp, #4]
  78              	.LBB8:
  79              	.LBB9:
  80              		.loc 2 548 0
  81 0006 019B     		ldr	r3, [sp, #4]
  82              		.syntax unified
  83              	@ 548 "../ChibiOS/os/ext/CMSIS/include/core_cmFunc.h" 1
  84 0008 83F31188 		MSR basepri, r3
  85              	@ 0 "" 2
  86              		.thumb
  87              		.syntax unified
  88              	.LBE9:
  89              	.LBE8:
  90              		.loc 1 487 0
  91 000c 00BF     		nop
  92 000e 02B0     		add	sp, sp, #8
  93              		.cfi_def_cfa_offset 0
  94              		@ sp needed
  95 0010 7047     		bx	lr
  96              		.cfi_endproc
  97              	.LFE128:
  98              		.size	port_unlock, .-port_unlock
  99 0012 00BF     		.section	.text.queue_init,"ax",%progbits
 100              		.align	1
 101              		.p2align 4,,15
 102              		.syntax unified
 103              		.thumb
 104              		.thumb_func
 105              		.fpu fpv4-sp-d16
 106              		.type	queue_init, %function
 107              	queue_init:
 108              	.LFB139:
 109              		.file 3 "../ChibiOS/os/rt/include/chschd.h"
 110              		.loc 3 602 0
 111              		.cfi_startproc
 112              		@ args = 0, pretend = 0, frame = 8
 113              		@ frame_needed = 0, uses_anonymous_args = 0
 114              		@ link register save eliminated.
ARM GAS  /tmp/ccPngymc.s 			page 3


 115 0000 82B0     		sub	sp, sp, #8
 116              		.cfi_def_cfa_offset 8
 117 0002 0190     		str	r0, [sp, #4]
 118              		.loc 3 604 0
 119 0004 019B     		ldr	r3, [sp, #4]
 120 0006 019A     		ldr	r2, [sp, #4]
 121 0008 1A60     		str	r2, [r3]
 122              		.loc 3 605 0
 123 000a 019B     		ldr	r3, [sp, #4]
 124 000c 019A     		ldr	r2, [sp, #4]
 125 000e 5A60     		str	r2, [r3, #4]
 126              		.loc 3 606 0
 127 0010 00BF     		nop
 128 0012 02B0     		add	sp, sp, #8
 129              		.cfi_def_cfa_offset 0
 130              		@ sp needed
 131 0014 7047     		bx	lr
 132              		.cfi_endproc
 133              	.LFE139:
 134              		.size	queue_init, .-queue_init
 135              		.section	.text.chSysLock,"ax",%progbits
 136              		.align	1
 137              		.p2align 4,,15
 138              		.syntax unified
 139              		.thumb
 140              		.thumb_func
 141              		.fpu fpv4-sp-d16
 142              		.type	chSysLock, %function
 143              	chSysLock:
 144              	.LFB156:
 145              		.file 4 "../ChibiOS/os/rt/include/chsys.h"
 146              		.loc 4 346 0
 147              		.cfi_startproc
 148              		@ args = 0, pretend = 0, frame = 0
 149              		@ frame_needed = 0, uses_anonymous_args = 0
 150 0000 08B5     		push	{r3, lr}
 151              		.cfi_def_cfa_offset 8
 152              		.cfi_offset 3, -8
 153              		.cfi_offset 14, -4
 154              		.loc 4 348 0
 155 0002 FFF7FEFF 		bl	port_lock
 156              		.loc 4 349 0
 157 0006 FFF7FEFF 		bl	_stats_start_measure_crit_thd
 158              		.loc 4 350 0
 159 000a FFF7FEFF 		bl	_dbg_check_lock
 160              		.loc 4 351 0
 161 000e 00BF     		nop
 162 0010 08BD     		pop	{r3, pc}
 163              		.cfi_endproc
 164              	.LFE156:
 165              		.size	chSysLock, .-chSysLock
 166 0012 00BF     		.section	.text.chSysUnlock,"ax",%progbits
 167              		.align	1
 168              		.p2align 4,,15
 169              		.syntax unified
 170              		.thumb
 171              		.thumb_func
ARM GAS  /tmp/ccPngymc.s 			page 4


 172              		.fpu fpv4-sp-d16
 173              		.type	chSysUnlock, %function
 174              	chSysUnlock:
 175              	.LFB157:
 176              		.loc 4 358 0
 177              		.cfi_startproc
 178              		@ args = 0, pretend = 0, frame = 0
 179              		@ frame_needed = 0, uses_anonymous_args = 0
 180 0000 08B5     		push	{r3, lr}
 181              		.cfi_def_cfa_offset 8
 182              		.cfi_offset 3, -8
 183              		.cfi_offset 14, -4
 184              		.loc 4 360 0
 185 0002 FFF7FEFF 		bl	_dbg_check_unlock
 186              		.loc 4 361 0
 187 0006 FFF7FEFF 		bl	_stats_stop_measure_crit_thd
 188              		.loc 4 367 0
 189 000a 0A4B     		ldr	r3, .L7
 190 000c 1B68     		ldr	r3, [r3]
 191 000e 094A     		ldr	r2, .L7
 192 0010 9342     		cmp	r3, r2
 193 0012 0AD0     		beq	.L6
 194              		.loc 4 367 0 is_stmt 0 discriminator 2
 195 0014 074B     		ldr	r3, .L7
 196 0016 9B69     		ldr	r3, [r3, #24]
 197 0018 9A68     		ldr	r2, [r3, #8]
 198 001a 064B     		ldr	r3, .L7
 199 001c 1B68     		ldr	r3, [r3]
 200 001e 9B68     		ldr	r3, [r3, #8]
 201 0020 9A42     		cmp	r2, r3
 202 0022 02D2     		bcs	.L6
 203              		.loc 4 367 0 discriminator 3
 204 0024 0448     		ldr	r0, .L7+4
 205 0026 FFF7FEFF 		bl	chSysHalt
 206              	.L6:
 207              		.loc 4 371 0 is_stmt 1
 208 002a FFF7FEFF 		bl	port_unlock
 209              		.loc 4 372 0
 210 002e 00BF     		nop
 211 0030 08BD     		pop	{r3, pc}
 212              	.L8:
 213 0032 00BF     		.align	2
 214              	.L7:
 215 0034 00000000 		.word	ch
 216 0038 00000000 		.word	__func__.7157
 217              		.cfi_endproc
 218              	.LFE157:
 219              		.size	chSysUnlock, .-chSysUnlock
 220              		.section	.text.chThdQueueObjectInit,"ax",%progbits
 221              		.align	1
 222              		.p2align 4,,15
 223              		.syntax unified
 224              		.thumb
 225              		.thumb_func
 226              		.fpu fpv4-sp-d16
 227              		.type	chThdQueueObjectInit, %function
 228              	chThdQueueObjectInit:
ARM GAS  /tmp/ccPngymc.s 			page 5


 229              	.LFB184:
 230              		.file 5 "../ChibiOS/os/rt/include/chthreads.h"
 231              		.loc 5 278 0
 232              		.cfi_startproc
 233              		@ args = 0, pretend = 0, frame = 8
 234              		@ frame_needed = 0, uses_anonymous_args = 0
 235 0000 00B5     		push	{lr}
 236              		.cfi_def_cfa_offset 4
 237              		.cfi_offset 14, -4
 238 0002 83B0     		sub	sp, sp, #12
 239              		.cfi_def_cfa_offset 16
 240 0004 0190     		str	r0, [sp, #4]
 241              		.loc 5 280 0
 242 0006 0198     		ldr	r0, [sp, #4]
 243 0008 FFF7FEFF 		bl	queue_init
 244              		.loc 5 281 0
 245 000c 00BF     		nop
 246 000e 03B0     		add	sp, sp, #12
 247              		.cfi_def_cfa_offset 4
 248              		@ sp needed
 249 0010 5DF804FB 		ldr	pc, [sp], #4
 250              		.cfi_endproc
 251              	.LFE184:
 252              		.size	chThdQueueObjectInit, .-chThdQueueObjectInit
 253              		.section	.text.chMBGetSizeI,"ax",%progbits
 254              		.align	1
 255              		.p2align 4,,15
 256              		.syntax unified
 257              		.thumb
 258              		.thumb_func
 259              		.fpu fpv4-sp-d16
 260              		.type	chMBGetSizeI, %function
 261              	chMBGetSizeI:
 262              	.LFB214:
 263              		.file 6 "../ChibiOS/os/rt/include/chmboxes.h"
 264              		.loc 6 136 0
 265              		.cfi_startproc
 266              		@ args = 0, pretend = 0, frame = 8
 267              		@ frame_needed = 0, uses_anonymous_args = 0
 268              		@ link register save eliminated.
 269 0000 82B0     		sub	sp, sp, #8
 270              		.cfi_def_cfa_offset 8
 271 0002 0190     		str	r0, [sp, #4]
 272              		.loc 6 140 0
 273 0004 019B     		ldr	r3, [sp, #4]
 274 0006 5B68     		ldr	r3, [r3, #4]
 275 0008 1A46     		mov	r2, r3
 276 000a 019B     		ldr	r3, [sp, #4]
 277 000c 1B68     		ldr	r3, [r3]
 278 000e D31A     		subs	r3, r2, r3
 279 0010 9B10     		asrs	r3, r3, #2
 280              		.loc 6 142 0
 281 0012 1846     		mov	r0, r3
 282 0014 02B0     		add	sp, sp, #8
 283              		.cfi_def_cfa_offset 0
 284              		@ sp needed
 285 0016 7047     		bx	lr
ARM GAS  /tmp/ccPngymc.s 			page 6


 286              		.cfi_endproc
 287              	.LFE214:
 288              		.size	chMBGetSizeI, .-chMBGetSizeI
 289              		.section	.text.chMBGetUsedCountI,"ax",%progbits
 290              		.align	1
 291              		.p2align 4,,15
 292              		.syntax unified
 293              		.thumb
 294              		.thumb_func
 295              		.fpu fpv4-sp-d16
 296              		.type	chMBGetUsedCountI, %function
 297              	chMBGetUsedCountI:
 298              	.LFB215:
 299              		.loc 6 153 0
 300              		.cfi_startproc
 301              		@ args = 0, pretend = 0, frame = 8
 302              		@ frame_needed = 0, uses_anonymous_args = 0
 303 0000 00B5     		push	{lr}
 304              		.cfi_def_cfa_offset 4
 305              		.cfi_offset 14, -4
 306 0002 83B0     		sub	sp, sp, #12
 307              		.cfi_def_cfa_offset 16
 308 0004 0190     		str	r0, [sp, #4]
 309              		.loc 6 155 0
 310 0006 FFF7FEFF 		bl	chDbgCheckClassI
 311              		.loc 6 157 0
 312 000a 019B     		ldr	r3, [sp, #4]
 313 000c 1B69     		ldr	r3, [r3, #16]
 314              		.loc 6 158 0
 315 000e 1846     		mov	r0, r3
 316 0010 03B0     		add	sp, sp, #12
 317              		.cfi_def_cfa_offset 4
 318              		@ sp needed
 319 0012 5DF804FB 		ldr	pc, [sp], #4
 320              		.cfi_endproc
 321              	.LFE215:
 322              		.size	chMBGetUsedCountI, .-chMBGetUsedCountI
 323 0016 00BF     		.section	.text.chMBGetFreeCountI,"ax",%progbits
 324              		.align	1
 325              		.p2align 4,,15
 326              		.syntax unified
 327              		.thumb
 328              		.thumb_func
 329              		.fpu fpv4-sp-d16
 330              		.type	chMBGetFreeCountI, %function
 331              	chMBGetFreeCountI:
 332              	.LFB216:
 333              		.loc 6 168 0
 334              		.cfi_startproc
 335              		@ args = 0, pretend = 0, frame = 8
 336              		@ frame_needed = 0, uses_anonymous_args = 0
 337 0000 10B5     		push	{r4, lr}
 338              		.cfi_def_cfa_offset 8
 339              		.cfi_offset 4, -8
 340              		.cfi_offset 14, -4
 341 0002 82B0     		sub	sp, sp, #8
 342              		.cfi_def_cfa_offset 16
ARM GAS  /tmp/ccPngymc.s 			page 7


 343 0004 0190     		str	r0, [sp, #4]
 344              		.loc 6 170 0
 345 0006 FFF7FEFF 		bl	chDbgCheckClassI
 346              		.loc 6 172 0
 347 000a 0198     		ldr	r0, [sp, #4]
 348 000c FFF7FEFF 		bl	chMBGetSizeI
 349 0010 0446     		mov	r4, r0
 350 0012 0198     		ldr	r0, [sp, #4]
 351 0014 FFF7FEFF 		bl	chMBGetUsedCountI
 352 0018 0346     		mov	r3, r0
 353 001a E31A     		subs	r3, r4, r3
 354              		.loc 6 173 0
 355 001c 1846     		mov	r0, r3
 356 001e 02B0     		add	sp, sp, #8
 357              		.cfi_def_cfa_offset 8
 358              		@ sp needed
 359 0020 10BD     		pop	{r4, pc}
 360              		.cfi_endproc
 361              	.LFE216:
 362              		.size	chMBGetFreeCountI, .-chMBGetFreeCountI
 363 0022 00BF     		.section	.text.chMBObjectInit,"ax",%progbits
 364              		.align	1
 365              		.p2align 4,,15
 366              		.global	chMBObjectInit
 367              		.syntax unified
 368              		.thumb
 369              		.thumb_func
 370              		.fpu fpv4-sp-d16
 371              		.type	chMBObjectInit, %function
 372              	chMBObjectInit:
 373              	.LFB231:
 374              		.file 7 "../ChibiOS/os/rt/src/chmboxes.c"
 375              		.loc 7 86 0
 376              		.cfi_startproc
 377              		@ args = 0, pretend = 0, frame = 16
 378              		@ frame_needed = 0, uses_anonymous_args = 0
 379 0000 00B5     		push	{lr}
 380              		.cfi_def_cfa_offset 4
 381              		.cfi_offset 14, -4
 382 0002 85B0     		sub	sp, sp, #20
 383              		.cfi_def_cfa_offset 24
 384 0004 0390     		str	r0, [sp, #12]
 385 0006 0291     		str	r1, [sp, #8]
 386 0008 0192     		str	r2, [sp, #4]
 387              		.loc 7 88 0
 388 000a 039B     		ldr	r3, [sp, #12]
 389 000c 002B     		cmp	r3, #0
 390 000e 05D0     		beq	.L17
 391              		.loc 7 88 0 is_stmt 0 discriminator 3
 392 0010 029B     		ldr	r3, [sp, #8]
 393 0012 002B     		cmp	r3, #0
 394 0014 02D0     		beq	.L17
 395              		.loc 7 88 0 discriminator 5
 396 0016 019B     		ldr	r3, [sp, #4]
 397 0018 002B     		cmp	r3, #0
 398 001a 02DC     		bgt	.L18
 399              	.L17:
ARM GAS  /tmp/ccPngymc.s 			page 8


 400              		.loc 7 88 0 discriminator 6
 401 001c 1248     		ldr	r0, .L19
 402 001e FFF7FEFF 		bl	chSysHalt
 403              	.L18:
 404              		.loc 7 90 0 is_stmt 1
 405 0022 039B     		ldr	r3, [sp, #12]
 406 0024 029A     		ldr	r2, [sp, #8]
 407 0026 1A60     		str	r2, [r3]
 408              		.loc 7 91 0
 409 0028 039B     		ldr	r3, [sp, #12]
 410 002a 029A     		ldr	r2, [sp, #8]
 411 002c DA60     		str	r2, [r3, #12]
 412              		.loc 7 92 0
 413 002e 039B     		ldr	r3, [sp, #12]
 414 0030 029A     		ldr	r2, [sp, #8]
 415 0032 9A60     		str	r2, [r3, #8]
 416              		.loc 7 93 0
 417 0034 019B     		ldr	r3, [sp, #4]
 418 0036 9B00     		lsls	r3, r3, #2
 419 0038 029A     		ldr	r2, [sp, #8]
 420 003a 1A44     		add	r2, r2, r3
 421 003c 039B     		ldr	r3, [sp, #12]
 422 003e 5A60     		str	r2, [r3, #4]
 423              		.loc 7 94 0
 424 0040 039B     		ldr	r3, [sp, #12]
 425 0042 0022     		movs	r2, #0
 426 0044 1A61     		str	r2, [r3, #16]
 427              		.loc 7 95 0
 428 0046 039B     		ldr	r3, [sp, #12]
 429 0048 0022     		movs	r2, #0
 430 004a 1A75     		strb	r2, [r3, #20]
 431              		.loc 7 96 0
 432 004c 039B     		ldr	r3, [sp, #12]
 433 004e 1833     		adds	r3, r3, #24
 434 0050 1846     		mov	r0, r3
 435 0052 FFF7FEFF 		bl	chThdQueueObjectInit
 436              		.loc 7 97 0
 437 0056 039B     		ldr	r3, [sp, #12]
 438 0058 2033     		adds	r3, r3, #32
 439 005a 1846     		mov	r0, r3
 440 005c FFF7FEFF 		bl	chThdQueueObjectInit
 441              		.loc 7 98 0
 442 0060 00BF     		nop
 443 0062 05B0     		add	sp, sp, #20
 444              		.cfi_def_cfa_offset 4
 445              		@ sp needed
 446 0064 5DF804FB 		ldr	pc, [sp], #4
 447              	.L20:
 448              		.align	2
 449              	.L19:
 450 0068 00000000 		.word	__func__.7859
 451              		.cfi_endproc
 452              	.LFE231:
 453              		.size	chMBObjectInit, .-chMBObjectInit
 454              		.section	.text.chMBReset,"ax",%progbits
 455              		.align	1
 456              		.p2align 4,,15
ARM GAS  /tmp/ccPngymc.s 			page 9


 457              		.global	chMBReset
 458              		.syntax unified
 459              		.thumb
 460              		.thumb_func
 461              		.fpu fpv4-sp-d16
 462              		.type	chMBReset, %function
 463              	chMBReset:
 464              	.LFB232:
 465              		.loc 7 112 0
 466              		.cfi_startproc
 467              		@ args = 0, pretend = 0, frame = 8
 468              		@ frame_needed = 0, uses_anonymous_args = 0
 469 0000 00B5     		push	{lr}
 470              		.cfi_def_cfa_offset 4
 471              		.cfi_offset 14, -4
 472 0002 83B0     		sub	sp, sp, #12
 473              		.cfi_def_cfa_offset 16
 474 0004 0190     		str	r0, [sp, #4]
 475              		.loc 7 114 0
 476 0006 FFF7FEFF 		bl	chSysLock
 477              		.loc 7 115 0
 478 000a 0198     		ldr	r0, [sp, #4]
 479 000c FFF7FEFF 		bl	chMBResetI
 480              		.loc 7 116 0
 481 0010 FFF7FEFF 		bl	chSchRescheduleS
 482              		.loc 7 117 0
 483 0014 FFF7FEFF 		bl	chSysUnlock
 484              		.loc 7 118 0
 485 0018 00BF     		nop
 486 001a 03B0     		add	sp, sp, #12
 487              		.cfi_def_cfa_offset 4
 488              		@ sp needed
 489 001c 5DF804FB 		ldr	pc, [sp], #4
 490              		.cfi_endproc
 491              	.LFE232:
 492              		.size	chMBReset, .-chMBReset
 493              		.section	.text.chMBResetI,"ax",%progbits
 494              		.align	1
 495              		.p2align 4,,15
 496              		.global	chMBResetI
 497              		.syntax unified
 498              		.thumb
 499              		.thumb_func
 500              		.fpu fpv4-sp-d16
 501              		.type	chMBResetI, %function
 502              	chMBResetI:
 503              	.LFB233:
 504              		.loc 7 132 0
 505              		.cfi_startproc
 506              		@ args = 0, pretend = 0, frame = 8
 507              		@ frame_needed = 0, uses_anonymous_args = 0
 508 0000 00B5     		push	{lr}
 509              		.cfi_def_cfa_offset 4
 510              		.cfi_offset 14, -4
 511 0002 83B0     		sub	sp, sp, #12
 512              		.cfi_def_cfa_offset 16
 513 0004 0190     		str	r0, [sp, #4]
ARM GAS  /tmp/ccPngymc.s 			page 10


 514              		.loc 7 134 0
 515 0006 FFF7FEFF 		bl	chDbgCheckClassI
 516              		.loc 7 135 0
 517 000a 019B     		ldr	r3, [sp, #4]
 518 000c 002B     		cmp	r3, #0
 519 000e 02D1     		bne	.L23
 520              		.loc 7 135 0 is_stmt 0 discriminator 2
 521 0010 1148     		ldr	r0, .L24
 522 0012 FFF7FEFF 		bl	chSysHalt
 523              	.L23:
 524              		.loc 7 137 0 is_stmt 1
 525 0016 019B     		ldr	r3, [sp, #4]
 526 0018 1A68     		ldr	r2, [r3]
 527 001a 019B     		ldr	r3, [sp, #4]
 528 001c 9A60     		str	r2, [r3, #8]
 529              		.loc 7 138 0
 530 001e 019B     		ldr	r3, [sp, #4]
 531 0020 1A68     		ldr	r2, [r3]
 532 0022 019B     		ldr	r3, [sp, #4]
 533 0024 DA60     		str	r2, [r3, #12]
 534              		.loc 7 139 0
 535 0026 019B     		ldr	r3, [sp, #4]
 536 0028 0022     		movs	r2, #0
 537 002a 1A61     		str	r2, [r3, #16]
 538              		.loc 7 140 0
 539 002c 019B     		ldr	r3, [sp, #4]
 540 002e 0122     		movs	r2, #1
 541 0030 1A75     		strb	r2, [r3, #20]
 542              		.loc 7 141 0
 543 0032 019B     		ldr	r3, [sp, #4]
 544 0034 1833     		adds	r3, r3, #24
 545 0036 6FF00101 		mvn	r1, #1
 546 003a 1846     		mov	r0, r3
 547 003c FFF7FEFF 		bl	chThdDequeueAllI
 548              		.loc 7 142 0
 549 0040 019B     		ldr	r3, [sp, #4]
 550 0042 2033     		adds	r3, r3, #32
 551 0044 6FF00101 		mvn	r1, #1
 552 0048 1846     		mov	r0, r3
 553 004a FFF7FEFF 		bl	chThdDequeueAllI
 554              		.loc 7 143 0
 555 004e 00BF     		nop
 556 0050 03B0     		add	sp, sp, #12
 557              		.cfi_def_cfa_offset 4
 558              		@ sp needed
 559 0052 5DF804FB 		ldr	pc, [sp], #4
 560              	.L25:
 561 0056 00BF     		.align	2
 562              	.L24:
 563 0058 00000000 		.word	__func__.7866
 564              		.cfi_endproc
 565              	.LFE233:
 566              		.size	chMBResetI, .-chMBResetI
 567              		.section	.text.chMBPost,"ax",%progbits
 568              		.align	1
 569              		.p2align 4,,15
 570              		.global	chMBPost
ARM GAS  /tmp/ccPngymc.s 			page 11


 571              		.syntax unified
 572              		.thumb
 573              		.thumb_func
 574              		.fpu fpv4-sp-d16
 575              		.type	chMBPost, %function
 576              	chMBPost:
 577              	.LFB234:
 578              		.loc 7 164 0
 579              		.cfi_startproc
 580              		@ args = 0, pretend = 0, frame = 24
 581              		@ frame_needed = 0, uses_anonymous_args = 0
 582 0000 00B5     		push	{lr}
 583              		.cfi_def_cfa_offset 4
 584              		.cfi_offset 14, -4
 585 0002 87B0     		sub	sp, sp, #28
 586              		.cfi_def_cfa_offset 32
 587 0004 0390     		str	r0, [sp, #12]
 588 0006 0291     		str	r1, [sp, #8]
 589 0008 0192     		str	r2, [sp, #4]
 590              		.loc 7 167 0
 591 000a FFF7FEFF 		bl	chSysLock
 592              		.loc 7 168 0
 593 000e 019A     		ldr	r2, [sp, #4]
 594 0010 0299     		ldr	r1, [sp, #8]
 595 0012 0398     		ldr	r0, [sp, #12]
 596 0014 FFF7FEFF 		bl	chMBPostS
 597 0018 0590     		str	r0, [sp, #20]
 598              		.loc 7 169 0
 599 001a FFF7FEFF 		bl	chSysUnlock
 600              		.loc 7 171 0
 601 001e 059B     		ldr	r3, [sp, #20]
 602              		.loc 7 172 0
 603 0020 1846     		mov	r0, r3
 604 0022 07B0     		add	sp, sp, #28
 605              		.cfi_def_cfa_offset 4
 606              		@ sp needed
 607 0024 5DF804FB 		ldr	pc, [sp], #4
 608              		.cfi_endproc
 609              	.LFE234:
 610              		.size	chMBPost, .-chMBPost
 611              		.section	.text.chMBPostS,"ax",%progbits
 612              		.align	1
 613              		.p2align 4,,15
 614              		.global	chMBPostS
 615              		.syntax unified
 616              		.thumb
 617              		.thumb_func
 618              		.fpu fpv4-sp-d16
 619              		.type	chMBPostS, %function
 620              	chMBPostS:
 621              	.LFB235:
 622              		.loc 7 193 0
 623              		.cfi_startproc
 624              		@ args = 0, pretend = 0, frame = 24
 625              		@ frame_needed = 0, uses_anonymous_args = 0
 626 0000 00B5     		push	{lr}
 627              		.cfi_def_cfa_offset 4
ARM GAS  /tmp/ccPngymc.s 			page 12


 628              		.cfi_offset 14, -4
 629 0002 87B0     		sub	sp, sp, #28
 630              		.cfi_def_cfa_offset 32
 631 0004 0390     		str	r0, [sp, #12]
 632 0006 0291     		str	r1, [sp, #8]
 633 0008 0192     		str	r2, [sp, #4]
 634              		.loc 7 196 0
 635 000a FFF7FEFF 		bl	chDbgCheckClassS
 636              		.loc 7 197 0
 637 000e 039B     		ldr	r3, [sp, #12]
 638 0010 002B     		cmp	r3, #0
 639 0012 02D1     		bne	.L29
 640              		.loc 7 197 0 is_stmt 0 discriminator 2
 641 0014 1F48     		ldr	r0, .L34
 642 0016 FFF7FEFF 		bl	chSysHalt
 643              	.L29:
 644              		.loc 7 201 0 is_stmt 1
 645 001a 039B     		ldr	r3, [sp, #12]
 646 001c 1B7D     		ldrb	r3, [r3, #20]	@ zero_extendqisi2
 647 001e 002B     		cmp	r3, #0
 648 0020 02D0     		beq	.L30
 649              		.loc 7 202 0
 650 0022 6FF00103 		mvn	r3, #1
 651 0026 30E0     		b	.L31
 652              	.L30:
 653              		.loc 7 206 0
 654 0028 0398     		ldr	r0, [sp, #12]
 655 002a FFF7FEFF 		bl	chMBGetFreeCountI
 656 002e 0346     		mov	r3, r0
 657 0030 002B     		cmp	r3, #0
 658 0032 1FDD     		ble	.L32
 659              		.loc 7 207 0
 660 0034 039B     		ldr	r3, [sp, #12]
 661 0036 9B68     		ldr	r3, [r3, #8]
 662 0038 191D     		adds	r1, r3, #4
 663 003a 039A     		ldr	r2, [sp, #12]
 664 003c 9160     		str	r1, [r2, #8]
 665 003e 029A     		ldr	r2, [sp, #8]
 666 0040 1A60     		str	r2, [r3]
 667              		.loc 7 208 0
 668 0042 039B     		ldr	r3, [sp, #12]
 669 0044 9A68     		ldr	r2, [r3, #8]
 670 0046 039B     		ldr	r3, [sp, #12]
 671 0048 5B68     		ldr	r3, [r3, #4]
 672 004a 9A42     		cmp	r2, r3
 673 004c 03D3     		bcc	.L33
 674              		.loc 7 209 0
 675 004e 039B     		ldr	r3, [sp, #12]
 676 0050 1A68     		ldr	r2, [r3]
 677 0052 039B     		ldr	r3, [sp, #12]
 678 0054 9A60     		str	r2, [r3, #8]
 679              	.L33:
 680              		.loc 7 211 0
 681 0056 039B     		ldr	r3, [sp, #12]
 682 0058 1B69     		ldr	r3, [r3, #16]
 683 005a 5A1C     		adds	r2, r3, #1
 684 005c 039B     		ldr	r3, [sp, #12]
ARM GAS  /tmp/ccPngymc.s 			page 13


 685 005e 1A61     		str	r2, [r3, #16]
 686              		.loc 7 214 0
 687 0060 039B     		ldr	r3, [sp, #12]
 688 0062 2033     		adds	r3, r3, #32
 689 0064 0021     		movs	r1, #0
 690 0066 1846     		mov	r0, r3
 691 0068 FFF7FEFF 		bl	chThdDequeueNextI
 692              		.loc 7 215 0
 693 006c FFF7FEFF 		bl	chSchRescheduleS
 694              		.loc 7 217 0
 695 0070 0023     		movs	r3, #0
 696 0072 0AE0     		b	.L31
 697              	.L32:
 698              		.loc 7 221 0
 699 0074 039B     		ldr	r3, [sp, #12]
 700 0076 1833     		adds	r3, r3, #24
 701 0078 0199     		ldr	r1, [sp, #4]
 702 007a 1846     		mov	r0, r3
 703 007c FFF7FEFF 		bl	chThdEnqueueTimeoutS
 704 0080 0590     		str	r0, [sp, #20]
 705              		.loc 7 222 0
 706 0082 059B     		ldr	r3, [sp, #20]
 707 0084 002B     		cmp	r3, #0
 708 0086 C8D0     		beq	.L29
 709              		.loc 7 224 0
 710 0088 059B     		ldr	r3, [sp, #20]
 711              	.L31:
 712              		.loc 7 225 0
 713 008a 1846     		mov	r0, r3
 714 008c 07B0     		add	sp, sp, #28
 715              		.cfi_def_cfa_offset 4
 716              		@ sp needed
 717 008e 5DF804FB 		ldr	pc, [sp], #4
 718              	.L35:
 719 0092 00BF     		.align	2
 720              	.L34:
 721 0094 00000000 		.word	__func__.7879
 722              		.cfi_endproc
 723              	.LFE235:
 724              		.size	chMBPostS, .-chMBPostS
 725              		.section	.text.chMBPostI,"ax",%progbits
 726              		.align	1
 727              		.p2align 4,,15
 728              		.global	chMBPostI
 729              		.syntax unified
 730              		.thumb
 731              		.thumb_func
 732              		.fpu fpv4-sp-d16
 733              		.type	chMBPostI, %function
 734              	chMBPostI:
 735              	.LFB236:
 736              		.loc 7 242 0
 737              		.cfi_startproc
 738              		@ args = 0, pretend = 0, frame = 8
 739              		@ frame_needed = 0, uses_anonymous_args = 0
 740 0000 00B5     		push	{lr}
 741              		.cfi_def_cfa_offset 4
ARM GAS  /tmp/ccPngymc.s 			page 14


 742              		.cfi_offset 14, -4
 743 0002 83B0     		sub	sp, sp, #12
 744              		.cfi_def_cfa_offset 16
 745 0004 0190     		str	r0, [sp, #4]
 746 0006 0091     		str	r1, [sp]
 747              		.loc 7 244 0
 748 0008 FFF7FEFF 		bl	chDbgCheckClassI
 749              		.loc 7 245 0
 750 000c 019B     		ldr	r3, [sp, #4]
 751 000e 002B     		cmp	r3, #0
 752 0010 02D1     		bne	.L37
 753              		.loc 7 245 0 is_stmt 0 discriminator 2
 754 0012 1A48     		ldr	r0, .L42
 755 0014 FFF7FEFF 		bl	chSysHalt
 756              	.L37:
 757              		.loc 7 248 0 is_stmt 1
 758 0018 019B     		ldr	r3, [sp, #4]
 759 001a 1B7D     		ldrb	r3, [r3, #20]	@ zero_extendqisi2
 760 001c 002B     		cmp	r3, #0
 761 001e 02D0     		beq	.L38
 762              		.loc 7 249 0
 763 0020 6FF00103 		mvn	r3, #1
 764 0024 25E0     		b	.L39
 765              	.L38:
 766              		.loc 7 253 0
 767 0026 0198     		ldr	r0, [sp, #4]
 768 0028 FFF7FEFF 		bl	chMBGetFreeCountI
 769 002c 0346     		mov	r3, r0
 770 002e 002B     		cmp	r3, #0
 771 0030 1DDD     		ble	.L40
 772              		.loc 7 254 0
 773 0032 019B     		ldr	r3, [sp, #4]
 774 0034 9B68     		ldr	r3, [r3, #8]
 775 0036 191D     		adds	r1, r3, #4
 776 0038 019A     		ldr	r2, [sp, #4]
 777 003a 9160     		str	r1, [r2, #8]
 778 003c 009A     		ldr	r2, [sp]
 779 003e 1A60     		str	r2, [r3]
 780              		.loc 7 255 0
 781 0040 019B     		ldr	r3, [sp, #4]
 782 0042 9A68     		ldr	r2, [r3, #8]
 783 0044 019B     		ldr	r3, [sp, #4]
 784 0046 5B68     		ldr	r3, [r3, #4]
 785 0048 9A42     		cmp	r2, r3
 786 004a 03D3     		bcc	.L41
 787              		.loc 7 256 0
 788 004c 019B     		ldr	r3, [sp, #4]
 789 004e 1A68     		ldr	r2, [r3]
 790 0050 019B     		ldr	r3, [sp, #4]
 791 0052 9A60     		str	r2, [r3, #8]
 792              	.L41:
 793              		.loc 7 258 0
 794 0054 019B     		ldr	r3, [sp, #4]
 795 0056 1B69     		ldr	r3, [r3, #16]
 796 0058 5A1C     		adds	r2, r3, #1
 797 005a 019B     		ldr	r3, [sp, #4]
 798 005c 1A61     		str	r2, [r3, #16]
ARM GAS  /tmp/ccPngymc.s 			page 15


 799              		.loc 7 261 0
 800 005e 019B     		ldr	r3, [sp, #4]
 801 0060 2033     		adds	r3, r3, #32
 802 0062 0021     		movs	r1, #0
 803 0064 1846     		mov	r0, r3
 804 0066 FFF7FEFF 		bl	chThdDequeueNextI
 805              		.loc 7 263 0
 806 006a 0023     		movs	r3, #0
 807 006c 01E0     		b	.L39
 808              	.L40:
 809              		.loc 7 267 0
 810 006e 4FF0FF33 		mov	r3, #-1
 811              	.L39:
 812              		.loc 7 268 0
 813 0072 1846     		mov	r0, r3
 814 0074 03B0     		add	sp, sp, #12
 815              		.cfi_def_cfa_offset 4
 816              		@ sp needed
 817 0076 5DF804FB 		ldr	pc, [sp], #4
 818              	.L43:
 819 007a 00BF     		.align	2
 820              	.L42:
 821 007c 00000000 		.word	__func__.7886
 822              		.cfi_endproc
 823              	.LFE236:
 824              		.size	chMBPostI, .-chMBPostI
 825              		.section	.text.chMBPostAhead,"ax",%progbits
 826              		.align	1
 827              		.p2align 4,,15
 828              		.global	chMBPostAhead
 829              		.syntax unified
 830              		.thumb
 831              		.thumb_func
 832              		.fpu fpv4-sp-d16
 833              		.type	chMBPostAhead, %function
 834              	chMBPostAhead:
 835              	.LFB237:
 836              		.loc 7 289 0
 837              		.cfi_startproc
 838              		@ args = 0, pretend = 0, frame = 24
 839              		@ frame_needed = 0, uses_anonymous_args = 0
 840 0000 00B5     		push	{lr}
 841              		.cfi_def_cfa_offset 4
 842              		.cfi_offset 14, -4
 843 0002 87B0     		sub	sp, sp, #28
 844              		.cfi_def_cfa_offset 32
 845 0004 0390     		str	r0, [sp, #12]
 846 0006 0291     		str	r1, [sp, #8]
 847 0008 0192     		str	r2, [sp, #4]
 848              		.loc 7 292 0
 849 000a FFF7FEFF 		bl	chSysLock
 850              		.loc 7 293 0
 851 000e 019A     		ldr	r2, [sp, #4]
 852 0010 0299     		ldr	r1, [sp, #8]
 853 0012 0398     		ldr	r0, [sp, #12]
 854 0014 FFF7FEFF 		bl	chMBPostAheadS
 855 0018 0590     		str	r0, [sp, #20]
ARM GAS  /tmp/ccPngymc.s 			page 16


 856              		.loc 7 294 0
 857 001a FFF7FEFF 		bl	chSysUnlock
 858              		.loc 7 296 0
 859 001e 059B     		ldr	r3, [sp, #20]
 860              		.loc 7 297 0
 861 0020 1846     		mov	r0, r3
 862 0022 07B0     		add	sp, sp, #28
 863              		.cfi_def_cfa_offset 4
 864              		@ sp needed
 865 0024 5DF804FB 		ldr	pc, [sp], #4
 866              		.cfi_endproc
 867              	.LFE237:
 868              		.size	chMBPostAhead, .-chMBPostAhead
 869              		.section	.text.chMBPostAheadS,"ax",%progbits
 870              		.align	1
 871              		.p2align 4,,15
 872              		.global	chMBPostAheadS
 873              		.syntax unified
 874              		.thumb
 875              		.thumb_func
 876              		.fpu fpv4-sp-d16
 877              		.type	chMBPostAheadS, %function
 878              	chMBPostAheadS:
 879              	.LFB238:
 880              		.loc 7 318 0
 881              		.cfi_startproc
 882              		@ args = 0, pretend = 0, frame = 24
 883              		@ frame_needed = 0, uses_anonymous_args = 0
 884 0000 00B5     		push	{lr}
 885              		.cfi_def_cfa_offset 4
 886              		.cfi_offset 14, -4
 887 0002 87B0     		sub	sp, sp, #28
 888              		.cfi_def_cfa_offset 32
 889 0004 0390     		str	r0, [sp, #12]
 890 0006 0291     		str	r1, [sp, #8]
 891 0008 0192     		str	r2, [sp, #4]
 892              		.loc 7 321 0
 893 000a FFF7FEFF 		bl	chDbgCheckClassS
 894              		.loc 7 322 0
 895 000e 039B     		ldr	r3, [sp, #12]
 896 0010 002B     		cmp	r3, #0
 897 0012 02D1     		bne	.L47
 898              		.loc 7 322 0 is_stmt 0 discriminator 2
 899 0014 2048     		ldr	r0, .L52
 900 0016 FFF7FEFF 		bl	chSysHalt
 901              	.L47:
 902              		.loc 7 326 0 is_stmt 1
 903 001a 039B     		ldr	r3, [sp, #12]
 904 001c 1B7D     		ldrb	r3, [r3, #20]	@ zero_extendqisi2
 905 001e 002B     		cmp	r3, #0
 906 0020 02D0     		beq	.L48
 907              		.loc 7 327 0
 908 0022 6FF00103 		mvn	r3, #1
 909 0026 33E0     		b	.L49
 910              	.L48:
 911              		.loc 7 331 0
 912 0028 0398     		ldr	r0, [sp, #12]
ARM GAS  /tmp/ccPngymc.s 			page 17


 913 002a FFF7FEFF 		bl	chMBGetFreeCountI
 914 002e 0346     		mov	r3, r0
 915 0030 002B     		cmp	r3, #0
 916 0032 22DD     		ble	.L50
 917              		.loc 7 332 0
 918 0034 039B     		ldr	r3, [sp, #12]
 919 0036 DB68     		ldr	r3, [r3, #12]
 920 0038 1A1F     		subs	r2, r3, #4
 921 003a 039B     		ldr	r3, [sp, #12]
 922 003c DA60     		str	r2, [r3, #12]
 923 003e 039B     		ldr	r3, [sp, #12]
 924 0040 DA68     		ldr	r2, [r3, #12]
 925 0042 039B     		ldr	r3, [sp, #12]
 926 0044 1B68     		ldr	r3, [r3]
 927 0046 9A42     		cmp	r2, r3
 928 0048 04D2     		bcs	.L51
 929              		.loc 7 333 0
 930 004a 039B     		ldr	r3, [sp, #12]
 931 004c 5B68     		ldr	r3, [r3, #4]
 932 004e 1A1F     		subs	r2, r3, #4
 933 0050 039B     		ldr	r3, [sp, #12]
 934 0052 DA60     		str	r2, [r3, #12]
 935              	.L51:
 936              		.loc 7 335 0
 937 0054 039B     		ldr	r3, [sp, #12]
 938 0056 DB68     		ldr	r3, [r3, #12]
 939 0058 029A     		ldr	r2, [sp, #8]
 940 005a 1A60     		str	r2, [r3]
 941              		.loc 7 336 0
 942 005c 039B     		ldr	r3, [sp, #12]
 943 005e 1B69     		ldr	r3, [r3, #16]
 944 0060 5A1C     		adds	r2, r3, #1
 945 0062 039B     		ldr	r3, [sp, #12]
 946 0064 1A61     		str	r2, [r3, #16]
 947              		.loc 7 339 0
 948 0066 039B     		ldr	r3, [sp, #12]
 949 0068 2033     		adds	r3, r3, #32
 950 006a 0021     		movs	r1, #0
 951 006c 1846     		mov	r0, r3
 952 006e FFF7FEFF 		bl	chThdDequeueNextI
 953              		.loc 7 340 0
 954 0072 FFF7FEFF 		bl	chSchRescheduleS
 955              		.loc 7 342 0
 956 0076 0023     		movs	r3, #0
 957 0078 0AE0     		b	.L49
 958              	.L50:
 959              		.loc 7 346 0
 960 007a 039B     		ldr	r3, [sp, #12]
 961 007c 1833     		adds	r3, r3, #24
 962 007e 0199     		ldr	r1, [sp, #4]
 963 0080 1846     		mov	r0, r3
 964 0082 FFF7FEFF 		bl	chThdEnqueueTimeoutS
 965 0086 0590     		str	r0, [sp, #20]
 966              		.loc 7 347 0
 967 0088 059B     		ldr	r3, [sp, #20]
 968 008a 002B     		cmp	r3, #0
 969 008c C5D0     		beq	.L47
ARM GAS  /tmp/ccPngymc.s 			page 18


 970              		.loc 7 349 0
 971 008e 059B     		ldr	r3, [sp, #20]
 972              	.L49:
 973              		.loc 7 350 0
 974 0090 1846     		mov	r0, r3
 975 0092 07B0     		add	sp, sp, #28
 976              		.cfi_def_cfa_offset 4
 977              		@ sp needed
 978 0094 5DF804FB 		ldr	pc, [sp], #4
 979              	.L53:
 980              		.align	2
 981              	.L52:
 982 0098 00000000 		.word	__func__.7899
 983              		.cfi_endproc
 984              	.LFE238:
 985              		.size	chMBPostAheadS, .-chMBPostAheadS
 986              		.section	.text.chMBPostAheadI,"ax",%progbits
 987              		.align	1
 988              		.p2align 4,,15
 989              		.global	chMBPostAheadI
 990              		.syntax unified
 991              		.thumb
 992              		.thumb_func
 993              		.fpu fpv4-sp-d16
 994              		.type	chMBPostAheadI, %function
 995              	chMBPostAheadI:
 996              	.LFB239:
 997              		.loc 7 367 0
 998              		.cfi_startproc
 999              		@ args = 0, pretend = 0, frame = 8
 1000              		@ frame_needed = 0, uses_anonymous_args = 0
 1001 0000 00B5     		push	{lr}
 1002              		.cfi_def_cfa_offset 4
 1003              		.cfi_offset 14, -4
 1004 0002 83B0     		sub	sp, sp, #12
 1005              		.cfi_def_cfa_offset 16
 1006 0004 0190     		str	r0, [sp, #4]
 1007 0006 0091     		str	r1, [sp]
 1008              		.loc 7 369 0
 1009 0008 FFF7FEFF 		bl	chDbgCheckClassI
 1010              		.loc 7 370 0
 1011 000c 019B     		ldr	r3, [sp, #4]
 1012 000e 002B     		cmp	r3, #0
 1013 0010 02D1     		bne	.L55
 1014              		.loc 7 370 0 is_stmt 0 discriminator 2
 1015 0012 1B48     		ldr	r0, .L60
 1016 0014 FFF7FEFF 		bl	chSysHalt
 1017              	.L55:
 1018              		.loc 7 373 0 is_stmt 1
 1019 0018 019B     		ldr	r3, [sp, #4]
 1020 001a 1B7D     		ldrb	r3, [r3, #20]	@ zero_extendqisi2
 1021 001c 002B     		cmp	r3, #0
 1022 001e 02D0     		beq	.L56
 1023              		.loc 7 374 0
 1024 0020 6FF00103 		mvn	r3, #1
 1025 0024 28E0     		b	.L57
 1026              	.L56:
ARM GAS  /tmp/ccPngymc.s 			page 19


 1027              		.loc 7 378 0
 1028 0026 0198     		ldr	r0, [sp, #4]
 1029 0028 FFF7FEFF 		bl	chMBGetFreeCountI
 1030 002c 0346     		mov	r3, r0
 1031 002e 002B     		cmp	r3, #0
 1032 0030 20DD     		ble	.L58
 1033              		.loc 7 379 0
 1034 0032 019B     		ldr	r3, [sp, #4]
 1035 0034 DB68     		ldr	r3, [r3, #12]
 1036 0036 1A1F     		subs	r2, r3, #4
 1037 0038 019B     		ldr	r3, [sp, #4]
 1038 003a DA60     		str	r2, [r3, #12]
 1039 003c 019B     		ldr	r3, [sp, #4]
 1040 003e DA68     		ldr	r2, [r3, #12]
 1041 0040 019B     		ldr	r3, [sp, #4]
 1042 0042 1B68     		ldr	r3, [r3]
 1043 0044 9A42     		cmp	r2, r3
 1044 0046 04D2     		bcs	.L59
 1045              		.loc 7 380 0
 1046 0048 019B     		ldr	r3, [sp, #4]
 1047 004a 5B68     		ldr	r3, [r3, #4]
 1048 004c 1A1F     		subs	r2, r3, #4
 1049 004e 019B     		ldr	r3, [sp, #4]
 1050 0050 DA60     		str	r2, [r3, #12]
 1051              	.L59:
 1052              		.loc 7 382 0
 1053 0052 019B     		ldr	r3, [sp, #4]
 1054 0054 DB68     		ldr	r3, [r3, #12]
 1055 0056 009A     		ldr	r2, [sp]
 1056 0058 1A60     		str	r2, [r3]
 1057              		.loc 7 383 0
 1058 005a 019B     		ldr	r3, [sp, #4]
 1059 005c 1B69     		ldr	r3, [r3, #16]
 1060 005e 5A1C     		adds	r2, r3, #1
 1061 0060 019B     		ldr	r3, [sp, #4]
 1062 0062 1A61     		str	r2, [r3, #16]
 1063              		.loc 7 386 0
 1064 0064 019B     		ldr	r3, [sp, #4]
 1065 0066 2033     		adds	r3, r3, #32
 1066 0068 0021     		movs	r1, #0
 1067 006a 1846     		mov	r0, r3
 1068 006c FFF7FEFF 		bl	chThdDequeueNextI
 1069              		.loc 7 388 0
 1070 0070 0023     		movs	r3, #0
 1071 0072 01E0     		b	.L57
 1072              	.L58:
 1073              		.loc 7 392 0
 1074 0074 4FF0FF33 		mov	r3, #-1
 1075              	.L57:
 1076              		.loc 7 393 0
 1077 0078 1846     		mov	r0, r3
 1078 007a 03B0     		add	sp, sp, #12
 1079              		.cfi_def_cfa_offset 4
 1080              		@ sp needed
 1081 007c 5DF804FB 		ldr	pc, [sp], #4
 1082              	.L61:
 1083              		.align	2
ARM GAS  /tmp/ccPngymc.s 			page 20


 1084              	.L60:
 1085 0080 00000000 		.word	__func__.7906
 1086              		.cfi_endproc
 1087              	.LFE239:
 1088              		.size	chMBPostAheadI, .-chMBPostAheadI
 1089              		.section	.text.chMBFetch,"ax",%progbits
 1090              		.align	1
 1091              		.p2align 4,,15
 1092              		.global	chMBFetch
 1093              		.syntax unified
 1094              		.thumb
 1095              		.thumb_func
 1096              		.fpu fpv4-sp-d16
 1097              		.type	chMBFetch, %function
 1098              	chMBFetch:
 1099              	.LFB240:
 1100              		.loc 7 414 0
 1101              		.cfi_startproc
 1102              		@ args = 0, pretend = 0, frame = 24
 1103              		@ frame_needed = 0, uses_anonymous_args = 0
 1104 0000 00B5     		push	{lr}
 1105              		.cfi_def_cfa_offset 4
 1106              		.cfi_offset 14, -4
 1107 0002 87B0     		sub	sp, sp, #28
 1108              		.cfi_def_cfa_offset 32
 1109 0004 0390     		str	r0, [sp, #12]
 1110 0006 0291     		str	r1, [sp, #8]
 1111 0008 0192     		str	r2, [sp, #4]
 1112              		.loc 7 417 0
 1113 000a FFF7FEFF 		bl	chSysLock
 1114              		.loc 7 418 0
 1115 000e 019A     		ldr	r2, [sp, #4]
 1116 0010 0299     		ldr	r1, [sp, #8]
 1117 0012 0398     		ldr	r0, [sp, #12]
 1118 0014 FFF7FEFF 		bl	chMBFetchS
 1119 0018 0590     		str	r0, [sp, #20]
 1120              		.loc 7 419 0
 1121 001a FFF7FEFF 		bl	chSysUnlock
 1122              		.loc 7 421 0
 1123 001e 059B     		ldr	r3, [sp, #20]
 1124              		.loc 7 422 0
 1125 0020 1846     		mov	r0, r3
 1126 0022 07B0     		add	sp, sp, #28
 1127              		.cfi_def_cfa_offset 4
 1128              		@ sp needed
 1129 0024 5DF804FB 		ldr	pc, [sp], #4
 1130              		.cfi_endproc
 1131              	.LFE240:
 1132              		.size	chMBFetch, .-chMBFetch
 1133              		.section	.text.chMBFetchS,"ax",%progbits
 1134              		.align	1
 1135              		.p2align 4,,15
 1136              		.global	chMBFetchS
 1137              		.syntax unified
 1138              		.thumb
 1139              		.thumb_func
 1140              		.fpu fpv4-sp-d16
ARM GAS  /tmp/ccPngymc.s 			page 21


 1141              		.type	chMBFetchS, %function
 1142              	chMBFetchS:
 1143              	.LFB241:
 1144              		.loc 7 443 0
 1145              		.cfi_startproc
 1146              		@ args = 0, pretend = 0, frame = 24
 1147              		@ frame_needed = 0, uses_anonymous_args = 0
 1148 0000 00B5     		push	{lr}
 1149              		.cfi_def_cfa_offset 4
 1150              		.cfi_offset 14, -4
 1151 0002 87B0     		sub	sp, sp, #28
 1152              		.cfi_def_cfa_offset 32
 1153 0004 0390     		str	r0, [sp, #12]
 1154 0006 0291     		str	r1, [sp, #8]
 1155 0008 0192     		str	r2, [sp, #4]
 1156              		.loc 7 446 0
 1157 000a FFF7FEFF 		bl	chDbgCheckClassS
 1158              		.loc 7 447 0
 1159 000e 039B     		ldr	r3, [sp, #12]
 1160 0010 002B     		cmp	r3, #0
 1161 0012 02D0     		beq	.L65
 1162              		.loc 7 447 0 is_stmt 0 discriminator 3
 1163 0014 029B     		ldr	r3, [sp, #8]
 1164 0016 002B     		cmp	r3, #0
 1165 0018 02D1     		bne	.L66
 1166              	.L65:
 1167              		.loc 7 447 0 discriminator 4
 1168 001a 2048     		ldr	r0, .L71
 1169 001c FFF7FEFF 		bl	chSysHalt
 1170              	.L66:
 1171              		.loc 7 451 0 is_stmt 1
 1172 0020 039B     		ldr	r3, [sp, #12]
 1173 0022 1B7D     		ldrb	r3, [r3, #20]	@ zero_extendqisi2
 1174 0024 002B     		cmp	r3, #0
 1175 0026 02D0     		beq	.L67
 1176              		.loc 7 452 0
 1177 0028 6FF00103 		mvn	r3, #1
 1178 002c 31E0     		b	.L68
 1179              	.L67:
 1180              		.loc 7 456 0
 1181 002e 0398     		ldr	r0, [sp, #12]
 1182 0030 FFF7FEFF 		bl	chMBGetUsedCountI
 1183 0034 0346     		mov	r3, r0
 1184 0036 002B     		cmp	r3, #0
 1185 0038 20DD     		ble	.L69
 1186              		.loc 7 457 0
 1187 003a 039B     		ldr	r3, [sp, #12]
 1188 003c DB68     		ldr	r3, [r3, #12]
 1189 003e 191D     		adds	r1, r3, #4
 1190 0040 039A     		ldr	r2, [sp, #12]
 1191 0042 D160     		str	r1, [r2, #12]
 1192 0044 1A68     		ldr	r2, [r3]
 1193 0046 029B     		ldr	r3, [sp, #8]
 1194 0048 1A60     		str	r2, [r3]
 1195              		.loc 7 458 0
 1196 004a 039B     		ldr	r3, [sp, #12]
 1197 004c DA68     		ldr	r2, [r3, #12]
ARM GAS  /tmp/ccPngymc.s 			page 22


 1198 004e 039B     		ldr	r3, [sp, #12]
 1199 0050 5B68     		ldr	r3, [r3, #4]
 1200 0052 9A42     		cmp	r2, r3
 1201 0054 03D3     		bcc	.L70
 1202              		.loc 7 459 0
 1203 0056 039B     		ldr	r3, [sp, #12]
 1204 0058 1A68     		ldr	r2, [r3]
 1205 005a 039B     		ldr	r3, [sp, #12]
 1206 005c DA60     		str	r2, [r3, #12]
 1207              	.L70:
 1208              		.loc 7 461 0
 1209 005e 039B     		ldr	r3, [sp, #12]
 1210 0060 1B69     		ldr	r3, [r3, #16]
 1211 0062 5A1E     		subs	r2, r3, #1
 1212 0064 039B     		ldr	r3, [sp, #12]
 1213 0066 1A61     		str	r2, [r3, #16]
 1214              		.loc 7 464 0
 1215 0068 039B     		ldr	r3, [sp, #12]
 1216 006a 1833     		adds	r3, r3, #24
 1217 006c 0021     		movs	r1, #0
 1218 006e 1846     		mov	r0, r3
 1219 0070 FFF7FEFF 		bl	chThdDequeueNextI
 1220              		.loc 7 465 0
 1221 0074 FFF7FEFF 		bl	chSchRescheduleS
 1222              		.loc 7 467 0
 1223 0078 0023     		movs	r3, #0
 1224 007a 0AE0     		b	.L68
 1225              	.L69:
 1226              		.loc 7 471 0
 1227 007c 039B     		ldr	r3, [sp, #12]
 1228 007e 2033     		adds	r3, r3, #32
 1229 0080 0199     		ldr	r1, [sp, #4]
 1230 0082 1846     		mov	r0, r3
 1231 0084 FFF7FEFF 		bl	chThdEnqueueTimeoutS
 1232 0088 0590     		str	r0, [sp, #20]
 1233              		.loc 7 472 0
 1234 008a 059B     		ldr	r3, [sp, #20]
 1235 008c 002B     		cmp	r3, #0
 1236 008e C7D0     		beq	.L66
 1237              		.loc 7 474 0
 1238 0090 059B     		ldr	r3, [sp, #20]
 1239              	.L68:
 1240              		.loc 7 475 0
 1241 0092 1846     		mov	r0, r3
 1242 0094 07B0     		add	sp, sp, #28
 1243              		.cfi_def_cfa_offset 4
 1244              		@ sp needed
 1245 0096 5DF804FB 		ldr	pc, [sp], #4
 1246              	.L72:
 1247 009a 00BF     		.align	2
 1248              	.L71:
 1249 009c 00000000 		.word	__func__.7919
 1250              		.cfi_endproc
 1251              	.LFE241:
 1252              		.size	chMBFetchS, .-chMBFetchS
 1253              		.section	.text.chMBFetchI,"ax",%progbits
 1254              		.align	1
ARM GAS  /tmp/ccPngymc.s 			page 23


 1255              		.p2align 4,,15
 1256              		.global	chMBFetchI
 1257              		.syntax unified
 1258              		.thumb
 1259              		.thumb_func
 1260              		.fpu fpv4-sp-d16
 1261              		.type	chMBFetchI, %function
 1262              	chMBFetchI:
 1263              	.LFB242:
 1264              		.loc 7 492 0
 1265              		.cfi_startproc
 1266              		@ args = 0, pretend = 0, frame = 8
 1267              		@ frame_needed = 0, uses_anonymous_args = 0
 1268 0000 00B5     		push	{lr}
 1269              		.cfi_def_cfa_offset 4
 1270              		.cfi_offset 14, -4
 1271 0002 83B0     		sub	sp, sp, #12
 1272              		.cfi_def_cfa_offset 16
 1273 0004 0190     		str	r0, [sp, #4]
 1274 0006 0091     		str	r1, [sp]
 1275              		.loc 7 494 0
 1276 0008 FFF7FEFF 		bl	chDbgCheckClassI
 1277              		.loc 7 495 0
 1278 000c 019B     		ldr	r3, [sp, #4]
 1279 000e 002B     		cmp	r3, #0
 1280 0010 02D0     		beq	.L74
 1281              		.loc 7 495 0 is_stmt 0 discriminator 3
 1282 0012 009B     		ldr	r3, [sp]
 1283 0014 002B     		cmp	r3, #0
 1284 0016 02D1     		bne	.L75
 1285              	.L74:
 1286              		.loc 7 495 0 discriminator 4
 1287 0018 1A48     		ldr	r0, .L80
 1288 001a FFF7FEFF 		bl	chSysHalt
 1289              	.L75:
 1290              		.loc 7 498 0 is_stmt 1
 1291 001e 019B     		ldr	r3, [sp, #4]
 1292 0020 1B7D     		ldrb	r3, [r3, #20]	@ zero_extendqisi2
 1293 0022 002B     		cmp	r3, #0
 1294 0024 02D0     		beq	.L76
 1295              		.loc 7 499 0
 1296 0026 6FF00103 		mvn	r3, #1
 1297 002a 26E0     		b	.L77
 1298              	.L76:
 1299              		.loc 7 503 0
 1300 002c 0198     		ldr	r0, [sp, #4]
 1301 002e FFF7FEFF 		bl	chMBGetUsedCountI
 1302 0032 0346     		mov	r3, r0
 1303 0034 002B     		cmp	r3, #0
 1304 0036 1EDD     		ble	.L78
 1305              		.loc 7 504 0
 1306 0038 019B     		ldr	r3, [sp, #4]
 1307 003a DB68     		ldr	r3, [r3, #12]
 1308 003c 191D     		adds	r1, r3, #4
 1309 003e 019A     		ldr	r2, [sp, #4]
 1310 0040 D160     		str	r1, [r2, #12]
 1311 0042 1A68     		ldr	r2, [r3]
ARM GAS  /tmp/ccPngymc.s 			page 24


 1312 0044 009B     		ldr	r3, [sp]
 1313 0046 1A60     		str	r2, [r3]
 1314              		.loc 7 505 0
 1315 0048 019B     		ldr	r3, [sp, #4]
 1316 004a DA68     		ldr	r2, [r3, #12]
 1317 004c 019B     		ldr	r3, [sp, #4]
 1318 004e 5B68     		ldr	r3, [r3, #4]
 1319 0050 9A42     		cmp	r2, r3
 1320 0052 03D3     		bcc	.L79
 1321              		.loc 7 506 0
 1322 0054 019B     		ldr	r3, [sp, #4]
 1323 0056 1A68     		ldr	r2, [r3]
 1324 0058 019B     		ldr	r3, [sp, #4]
 1325 005a DA60     		str	r2, [r3, #12]
 1326              	.L79:
 1327              		.loc 7 508 0
 1328 005c 019B     		ldr	r3, [sp, #4]
 1329 005e 1B69     		ldr	r3, [r3, #16]
 1330 0060 5A1E     		subs	r2, r3, #1
 1331 0062 019B     		ldr	r3, [sp, #4]
 1332 0064 1A61     		str	r2, [r3, #16]
 1333              		.loc 7 511 0
 1334 0066 019B     		ldr	r3, [sp, #4]
 1335 0068 1833     		adds	r3, r3, #24
 1336 006a 0021     		movs	r1, #0
 1337 006c 1846     		mov	r0, r3
 1338 006e FFF7FEFF 		bl	chThdDequeueNextI
 1339              		.loc 7 513 0
 1340 0072 0023     		movs	r3, #0
 1341 0074 01E0     		b	.L77
 1342              	.L78:
 1343              		.loc 7 517 0
 1344 0076 4FF0FF33 		mov	r3, #-1
 1345              	.L77:
 1346              		.loc 7 518 0
 1347 007a 1846     		mov	r0, r3
 1348 007c 03B0     		add	sp, sp, #12
 1349              		.cfi_def_cfa_offset 4
 1350              		@ sp needed
 1351 007e 5DF804FB 		ldr	pc, [sp], #4
 1352              	.L81:
 1353 0082 00BF     		.align	2
 1354              	.L80:
 1355 0084 00000000 		.word	__func__.7926
 1356              		.cfi_endproc
 1357              	.LFE242:
 1358              		.size	chMBFetchI, .-chMBFetchI
 1359              		.section	.rodata.__func__.7859,"a",%progbits
 1360              		.align	2
 1361              		.type	__func__.7859, %object
 1362              		.size	__func__.7859, 15
 1363              	__func__.7859:
 1364 0000 63684D42 		.ascii	"chMBObjectInit\000"
 1364      4F626A65 
 1364      6374496E 
 1364      697400
 1365              		.section	.rodata.__func__.7157,"a",%progbits
ARM GAS  /tmp/ccPngymc.s 			page 25


 1366              		.align	2
 1367              		.type	__func__.7157, %object
 1368              		.size	__func__.7157, 12
 1369              	__func__.7157:
 1370 0000 63685379 		.ascii	"chSysUnlock\000"
 1370      73556E6C 
 1370      6F636B00 
 1371              		.section	.rodata.__func__.7866,"a",%progbits
 1372              		.align	2
 1373              		.type	__func__.7866, %object
 1374              		.size	__func__.7866, 11
 1375              	__func__.7866:
 1376 0000 63684D42 		.ascii	"chMBResetI\000"
 1376      52657365 
 1376      744900
 1377              		.section	.rodata.__func__.7879,"a",%progbits
 1378              		.align	2
 1379              		.type	__func__.7879, %object
 1380              		.size	__func__.7879, 10
 1381              	__func__.7879:
 1382 0000 63684D42 		.ascii	"chMBPostS\000"
 1382      506F7374 
 1382      5300
 1383              		.section	.rodata.__func__.7886,"a",%progbits
 1384              		.align	2
 1385              		.type	__func__.7886, %object
 1386              		.size	__func__.7886, 10
 1387              	__func__.7886:
 1388 0000 63684D42 		.ascii	"chMBPostI\000"
 1388      506F7374 
 1388      4900
 1389              		.section	.rodata.__func__.7899,"a",%progbits
 1390              		.align	2
 1391              		.type	__func__.7899, %object
 1392              		.size	__func__.7899, 15
 1393              	__func__.7899:
 1394 0000 63684D42 		.ascii	"chMBPostAheadS\000"
 1394      506F7374 
 1394      41686561 
 1394      645300
 1395              		.section	.rodata.__func__.7906,"a",%progbits
 1396              		.align	2
 1397              		.type	__func__.7906, %object
 1398              		.size	__func__.7906, 15
 1399              	__func__.7906:
 1400 0000 63684D42 		.ascii	"chMBPostAheadI\000"
 1400      506F7374 
 1400      41686561 
 1400      644900
 1401              		.section	.rodata.__func__.7919,"a",%progbits
 1402              		.align	2
 1403              		.type	__func__.7919, %object
 1404              		.size	__func__.7919, 11
 1405              	__func__.7919:
 1406 0000 63684D42 		.ascii	"chMBFetchS\000"
 1406      46657463 
 1406      685300
ARM GAS  /tmp/ccPngymc.s 			page 26


 1407              		.section	.rodata.__func__.7926,"a",%progbits
 1408              		.align	2
 1409              		.type	__func__.7926, %object
 1410              		.size	__func__.7926, 11
 1411              	__func__.7926:
 1412 0000 63684D42 		.ascii	"chMBFetchI\000"
 1412      46657463 
 1412      684900
 1413              		.text
 1414              	.Letext0:
 1415              		.file 8 "/usr/arm-none-eabi/include/machine/_default_types.h"
 1416              		.file 9 "/usr/arm-none-eabi/include/sys/_stdint.h"
 1417              		.file 10 "../ChibiOS/os/rt/ports/ARMCMx/compilers/GCC/chtypes.h"
 1418              		.file 11 "../ChibiOS/os/rt/include/chsystypes.h"
 1419              		.file 12 "../ChibiOS/os/ext/CMSIS/include/core_cm4.h"
 1420              		.file 13 "../ChibiOS/os/ext/CMSIS/ST/STM32F4xx/system_stm32f4xx.h"
 1421              		.file 14 "../ChibiOS/os/rt/ports/ARMCMx/chcore.h"
 1422              		.file 15 "../ChibiOS/os/rt/include/chtm.h"
 1423              		.file 16 "../ChibiOS/os/rt/include/chstats.h"
 1424              		.file 17 "../ChibiOS/os/rt/include/chsem.h"
 1425              		.file 18 "../ChibiOS/os/rt/include/chmtx.h"
 1426              		.file 19 "../ChibiOS/os/rt/include/chregistry.h"