ARM GAS  /tmp/ccemXhdN.s 			page 1


   1              		.cpu cortex-m4
   2              		.eabi_attribute 27, 1
   3              		.eabi_attribute 28, 1
   4              		.eabi_attribute 20, 1
   5              		.eabi_attribute 21, 1
   6              		.eabi_attribute 23, 3
   7              		.eabi_attribute 24, 1
   8              		.eabi_attribute 25, 1
   9              		.eabi_attribute 26, 1
  10              		.eabi_attribute 30, 6
  11              		.eabi_attribute 34, 1
  12              		.eabi_attribute 18, 4
  13              		.file	"chmtx.c"
  14              		.text
  15              	.Ltext0:
  16              		.cfi_sections	.debug_frame
  17              		.section	.text.port_lock,"ax",%progbits
  18              		.align	1
  19              		.p2align 4,,15
  20              		.syntax unified
  21              		.thumb
  22              		.thumb_func
  23              		.fpu fpv4-sp-d16
  24              		.type	port_lock, %function
  25              	port_lock:
  26              	.LFB127:
  27              		.file 1 "../ChibiOS/os/rt/ports/ARMCMx/chcore_v7m.h"
  28              		.loc 1 456 0
  29              		.cfi_startproc
  30              		@ args = 0, pretend = 0, frame = 8
  31              		@ frame_needed = 0, uses_anonymous_args = 0
  32              		@ link register save eliminated.
  33 0000 82B0     		sub	sp, sp, #8
  34              		.cfi_def_cfa_offset 8
  35 0002 2023     		movs	r3, #32
  36 0004 0193     		str	r3, [sp, #4]
  37              	.LBB6:
  38              	.LBB7:
  39              		.file 2 "../ChibiOS/os/ext/CMSIS/include/core_cmFunc.h"
  40              		.loc 2 548 0
  41 0006 019B     		ldr	r3, [sp, #4]
  42              		.syntax unified
  43              	@ 548 "../ChibiOS/os/ext/CMSIS/include/core_cmFunc.h" 1
  44 0008 83F31188 		MSR basepri, r3
  45              	@ 0 "" 2
  46              		.thumb
  47              		.syntax unified
  48              	.LBE7:
  49              	.LBE6:
  50              		.loc 1 473 0
  51 000c 00BF     		nop
  52 000e 02B0     		add	sp, sp, #8
  53              		.cfi_def_cfa_offset 0
  54              		@ sp needed
  55 0010 7047     		bx	lr
  56              		.cfi_endproc
  57              	.LFE127:
ARM GAS  /tmp/ccemXhdN.s 			page 2


  58              		.size	port_lock, .-port_lock
  59 0012 00BF     		.section	.text.port_unlock,"ax",%progbits
  60              		.align	1
  61              		.p2align 4,,15
  62              		.syntax unified
  63              		.thumb
  64              		.thumb_func
  65              		.fpu fpv4-sp-d16
  66              		.type	port_unlock, %function
  67              	port_unlock:
  68              	.LFB128:
  69              		.loc 1 480 0
  70              		.cfi_startproc
  71              		@ args = 0, pretend = 0, frame = 8
  72              		@ frame_needed = 0, uses_anonymous_args = 0
  73              		@ link register save eliminated.
  74 0000 82B0     		sub	sp, sp, #8
  75              		.cfi_def_cfa_offset 8
  76 0002 0023     		movs	r3, #0
  77 0004 0193     		str	r3, [sp, #4]
  78              	.LBB8:
  79              	.LBB9:
  80              		.loc 2 548 0
  81 0006 019B     		ldr	r3, [sp, #4]
  82              		.syntax unified
  83              	@ 548 "../ChibiOS/os/ext/CMSIS/include/core_cmFunc.h" 1
  84 0008 83F31188 		MSR basepri, r3
  85              	@ 0 "" 2
  86              		.thumb
  87              		.syntax unified
  88              	.LBE9:
  89              	.LBE8:
  90              		.loc 1 487 0
  91 000c 00BF     		nop
  92 000e 02B0     		add	sp, sp, #8
  93              		.cfi_def_cfa_offset 0
  94              		@ sp needed
  95 0010 7047     		bx	lr
  96              		.cfi_endproc
  97              	.LFE128:
  98              		.size	port_unlock, .-port_unlock
  99 0012 00BF     		.section	.text.queue_init,"ax",%progbits
 100              		.align	1
 101              		.p2align 4,,15
 102              		.syntax unified
 103              		.thumb
 104              		.thumb_func
 105              		.fpu fpv4-sp-d16
 106              		.type	queue_init, %function
 107              	queue_init:
 108              	.LFB139:
 109              		.file 3 "../ChibiOS/os/rt/include/chschd.h"
 110              		.loc 3 602 0
 111              		.cfi_startproc
 112              		@ args = 0, pretend = 0, frame = 8
 113              		@ frame_needed = 0, uses_anonymous_args = 0
 114              		@ link register save eliminated.
ARM GAS  /tmp/ccemXhdN.s 			page 3


 115 0000 82B0     		sub	sp, sp, #8
 116              		.cfi_def_cfa_offset 8
 117 0002 0190     		str	r0, [sp, #4]
 118              		.loc 3 604 0
 119 0004 019B     		ldr	r3, [sp, #4]
 120 0006 019A     		ldr	r2, [sp, #4]
 121 0008 1A60     		str	r2, [r3]
 122              		.loc 3 605 0
 123 000a 019B     		ldr	r3, [sp, #4]
 124 000c 019A     		ldr	r2, [sp, #4]
 125 000e 5A60     		str	r2, [r3, #4]
 126              		.loc 3 606 0
 127 0010 00BF     		nop
 128 0012 02B0     		add	sp, sp, #8
 129              		.cfi_def_cfa_offset 0
 130              		@ sp needed
 131 0014 7047     		bx	lr
 132              		.cfi_endproc
 133              	.LFE139:
 134              		.size	queue_init, .-queue_init
 135              		.section	.text.queue_notempty,"ax",%progbits
 136              		.align	1
 137              		.p2align 4,,15
 138              		.syntax unified
 139              		.thumb
 140              		.thumb_func
 141              		.fpu fpv4-sp-d16
 142              		.type	queue_notempty, %function
 143              	queue_notempty:
 144              	.LFB141:
 145              		.loc 3 629 0
 146              		.cfi_startproc
 147              		@ args = 0, pretend = 0, frame = 8
 148              		@ frame_needed = 0, uses_anonymous_args = 0
 149              		@ link register save eliminated.
 150 0000 82B0     		sub	sp, sp, #8
 151              		.cfi_def_cfa_offset 8
 152 0002 0190     		str	r0, [sp, #4]
 153              		.loc 3 631 0
 154 0004 019B     		ldr	r3, [sp, #4]
 155 0006 1A68     		ldr	r2, [r3]
 156 0008 019B     		ldr	r3, [sp, #4]
 157 000a 9A42     		cmp	r2, r3
 158 000c 14BF     		ite	ne
 159 000e 0123     		movne	r3, #1
 160 0010 0023     		moveq	r3, #0
 161 0012 DBB2     		uxtb	r3, r3
 162              		.loc 3 632 0
 163 0014 1846     		mov	r0, r3
 164 0016 02B0     		add	sp, sp, #8
 165              		.cfi_def_cfa_offset 0
 166              		@ sp needed
 167 0018 7047     		bx	lr
 168              		.cfi_endproc
 169              	.LFE141:
 170              		.size	queue_notempty, .-queue_notempty
 171 001a 00BF     		.section	.text.queue_prio_insert,"ax",%progbits
ARM GAS  /tmp/ccemXhdN.s 			page 4


 172              		.align	1
 173              		.p2align 4,,15
 174              		.syntax unified
 175              		.thumb
 176              		.thumb_func
 177              		.fpu fpv4-sp-d16
 178              		.type	queue_prio_insert, %function
 179              	queue_prio_insert:
 180              	.LFB144:
 181              		.loc 3 651 0
 182              		.cfi_startproc
 183              		@ args = 0, pretend = 0, frame = 16
 184              		@ frame_needed = 0, uses_anonymous_args = 0
 185              		@ link register save eliminated.
 186 0000 84B0     		sub	sp, sp, #16
 187              		.cfi_def_cfa_offset 16
 188 0002 0190     		str	r0, [sp, #4]
 189 0004 0091     		str	r1, [sp]
 190              		.loc 3 653 0
 191 0006 009B     		ldr	r3, [sp]
 192 0008 0393     		str	r3, [sp, #12]
 193              	.L8:
 194              		.loc 3 655 0 discriminator 2
 195 000a 039B     		ldr	r3, [sp, #12]
 196 000c 1B68     		ldr	r3, [r3]
 197 000e 0393     		str	r3, [sp, #12]
 198              		.loc 3 656 0 discriminator 2
 199 0010 039A     		ldr	r2, [sp, #12]
 200 0012 009B     		ldr	r3, [sp]
 201 0014 9A42     		cmp	r2, r3
 202 0016 05D0     		beq	.L7
 203              		.loc 3 656 0 is_stmt 0 discriminator 1
 204 0018 039B     		ldr	r3, [sp, #12]
 205 001a 9A68     		ldr	r2, [r3, #8]
 206 001c 019B     		ldr	r3, [sp, #4]
 207 001e 9B68     		ldr	r3, [r3, #8]
 208 0020 9A42     		cmp	r2, r3
 209 0022 F2D2     		bcs	.L8
 210              	.L7:
 211              		.loc 3 657 0 is_stmt 1
 212 0024 019B     		ldr	r3, [sp, #4]
 213 0026 039A     		ldr	r2, [sp, #12]
 214 0028 1A60     		str	r2, [r3]
 215              		.loc 3 658 0
 216 002a 039B     		ldr	r3, [sp, #12]
 217 002c 5A68     		ldr	r2, [r3, #4]
 218 002e 019B     		ldr	r3, [sp, #4]
 219 0030 5A60     		str	r2, [r3, #4]
 220              		.loc 3 659 0
 221 0032 019B     		ldr	r3, [sp, #4]
 222 0034 5B68     		ldr	r3, [r3, #4]
 223 0036 019A     		ldr	r2, [sp, #4]
 224 0038 1A60     		str	r2, [r3]
 225              		.loc 3 660 0
 226 003a 039B     		ldr	r3, [sp, #12]
 227 003c 019A     		ldr	r2, [sp, #4]
 228 003e 5A60     		str	r2, [r3, #4]
ARM GAS  /tmp/ccemXhdN.s 			page 5


 229              		.loc 3 661 0
 230 0040 00BF     		nop
 231 0042 04B0     		add	sp, sp, #16
 232              		.cfi_def_cfa_offset 0
 233              		@ sp needed
 234 0044 7047     		bx	lr
 235              		.cfi_endproc
 236              	.LFE144:
 237              		.size	queue_prio_insert, .-queue_prio_insert
 238 0046 00BF     		.section	.text.queue_fifo_remove,"ax",%progbits
 239              		.align	1
 240              		.p2align 4,,15
 241              		.syntax unified
 242              		.thumb
 243              		.thumb_func
 244              		.fpu fpv4-sp-d16
 245              		.type	queue_fifo_remove, %function
 246              	queue_fifo_remove:
 247              	.LFB146:
 248              		.loc 3 671 0
 249              		.cfi_startproc
 250              		@ args = 0, pretend = 0, frame = 16
 251              		@ frame_needed = 0, uses_anonymous_args = 0
 252              		@ link register save eliminated.
 253 0000 84B0     		sub	sp, sp, #16
 254              		.cfi_def_cfa_offset 16
 255 0002 0190     		str	r0, [sp, #4]
 256              		.loc 3 672 0
 257 0004 019B     		ldr	r3, [sp, #4]
 258 0006 1B68     		ldr	r3, [r3]
 259 0008 0393     		str	r3, [sp, #12]
 260              		.loc 3 674 0
 261 000a 039B     		ldr	r3, [sp, #12]
 262 000c 1A68     		ldr	r2, [r3]
 263 000e 019B     		ldr	r3, [sp, #4]
 264 0010 1A60     		str	r2, [r3]
 265              		.loc 3 675 0
 266 0012 019B     		ldr	r3, [sp, #4]
 267 0014 1B68     		ldr	r3, [r3]
 268 0016 019A     		ldr	r2, [sp, #4]
 269 0018 5A60     		str	r2, [r3, #4]
 270              		.loc 3 677 0
 271 001a 039B     		ldr	r3, [sp, #12]
 272              		.loc 3 678 0
 273 001c 1846     		mov	r0, r3
 274 001e 04B0     		add	sp, sp, #16
 275              		.cfi_def_cfa_offset 0
 276              		@ sp needed
 277 0020 7047     		bx	lr
 278              		.cfi_endproc
 279              	.LFE146:
 280              		.size	queue_fifo_remove, .-queue_fifo_remove
 281 0022 00BF     		.section	.text.queue_dequeue,"ax",%progbits
 282              		.align	1
 283              		.p2align 4,,15
 284              		.syntax unified
 285              		.thumb
ARM GAS  /tmp/ccemXhdN.s 			page 6


 286              		.thumb_func
 287              		.fpu fpv4-sp-d16
 288              		.type	queue_dequeue, %function
 289              	queue_dequeue:
 290              	.LFB148:
 291              		.loc 3 689 0
 292              		.cfi_startproc
 293              		@ args = 0, pretend = 0, frame = 8
 294              		@ frame_needed = 0, uses_anonymous_args = 0
 295              		@ link register save eliminated.
 296 0000 82B0     		sub	sp, sp, #8
 297              		.cfi_def_cfa_offset 8
 298 0002 0190     		str	r0, [sp, #4]
 299              		.loc 3 691 0
 300 0004 019B     		ldr	r3, [sp, #4]
 301 0006 5B68     		ldr	r3, [r3, #4]
 302 0008 019A     		ldr	r2, [sp, #4]
 303 000a 1268     		ldr	r2, [r2]
 304 000c 1A60     		str	r2, [r3]
 305              		.loc 3 692 0
 306 000e 019B     		ldr	r3, [sp, #4]
 307 0010 1B68     		ldr	r3, [r3]
 308 0012 019A     		ldr	r2, [sp, #4]
 309 0014 5268     		ldr	r2, [r2, #4]
 310 0016 5A60     		str	r2, [r3, #4]
 311              		.loc 3 694 0
 312 0018 019B     		ldr	r3, [sp, #4]
 313              		.loc 3 695 0
 314 001a 1846     		mov	r0, r3
 315 001c 02B0     		add	sp, sp, #8
 316              		.cfi_def_cfa_offset 0
 317              		@ sp needed
 318 001e 7047     		bx	lr
 319              		.cfi_endproc
 320              	.LFE148:
 321              		.size	queue_dequeue, .-queue_dequeue
 322              		.section	.text.chSysLock,"ax",%progbits
 323              		.align	1
 324              		.p2align 4,,15
 325              		.syntax unified
 326              		.thumb
 327              		.thumb_func
 328              		.fpu fpv4-sp-d16
 329              		.type	chSysLock, %function
 330              	chSysLock:
 331              	.LFB156:
 332              		.file 4 "../ChibiOS/os/rt/include/chsys.h"
 333              		.loc 4 346 0
 334              		.cfi_startproc
 335              		@ args = 0, pretend = 0, frame = 0
 336              		@ frame_needed = 0, uses_anonymous_args = 0
 337 0000 08B5     		push	{r3, lr}
 338              		.cfi_def_cfa_offset 8
 339              		.cfi_offset 3, -8
 340              		.cfi_offset 14, -4
 341              		.loc 4 348 0
 342 0002 FFF7FEFF 		bl	port_lock
ARM GAS  /tmp/ccemXhdN.s 			page 7


 343              		.loc 4 349 0
 344 0006 FFF7FEFF 		bl	_stats_start_measure_crit_thd
 345              		.loc 4 350 0
 346 000a FFF7FEFF 		bl	_dbg_check_lock
 347              		.loc 4 351 0
 348 000e 00BF     		nop
 349 0010 08BD     		pop	{r3, pc}
 350              		.cfi_endproc
 351              	.LFE156:
 352              		.size	chSysLock, .-chSysLock
 353 0012 00BF     		.section	.text.chSysUnlock,"ax",%progbits
 354              		.align	1
 355              		.p2align 4,,15
 356              		.syntax unified
 357              		.thumb
 358              		.thumb_func
 359              		.fpu fpv4-sp-d16
 360              		.type	chSysUnlock, %function
 361              	chSysUnlock:
 362              	.LFB157:
 363              		.loc 4 358 0
 364              		.cfi_startproc
 365              		@ args = 0, pretend = 0, frame = 0
 366              		@ frame_needed = 0, uses_anonymous_args = 0
 367 0000 08B5     		push	{r3, lr}
 368              		.cfi_def_cfa_offset 8
 369              		.cfi_offset 3, -8
 370              		.cfi_offset 14, -4
 371              		.loc 4 360 0
 372 0002 FFF7FEFF 		bl	_dbg_check_unlock
 373              		.loc 4 361 0
 374 0006 FFF7FEFF 		bl	_stats_stop_measure_crit_thd
 375              		.loc 4 367 0
 376 000a 0A4B     		ldr	r3, .L16
 377 000c 1B68     		ldr	r3, [r3]
 378 000e 094A     		ldr	r2, .L16
 379 0010 9342     		cmp	r3, r2
 380 0012 0AD0     		beq	.L15
 381              		.loc 4 367 0 is_stmt 0 discriminator 2
 382 0014 074B     		ldr	r3, .L16
 383 0016 9B69     		ldr	r3, [r3, #24]
 384 0018 9A68     		ldr	r2, [r3, #8]
 385 001a 064B     		ldr	r3, .L16
 386 001c 1B68     		ldr	r3, [r3]
 387 001e 9B68     		ldr	r3, [r3, #8]
 388 0020 9A42     		cmp	r2, r3
 389 0022 02D2     		bcs	.L15
 390              		.loc 4 367 0 discriminator 3
 391 0024 0448     		ldr	r0, .L16+4
 392 0026 FFF7FEFF 		bl	chSysHalt
 393              	.L15:
 394              		.loc 4 371 0 is_stmt 1
 395 002a FFF7FEFF 		bl	port_unlock
 396              		.loc 4 372 0
 397 002e 00BF     		nop
 398 0030 08BD     		pop	{r3, pc}
 399              	.L17:
ARM GAS  /tmp/ccemXhdN.s 			page 8


 400 0032 00BF     		.align	2
 401              	.L16:
 402 0034 00000000 		.word	ch
 403 0038 00000000 		.word	__func__.7157
 404              		.cfi_endproc
 405              	.LFE157:
 406              		.size	chSysUnlock, .-chSysUnlock
 407              		.section	.text.chMtxQueueNotEmptyS,"ax",%progbits
 408              		.align	1
 409              		.p2align 4,,15
 410              		.syntax unified
 411              		.thumb
 412              		.thumb_func
 413              		.fpu fpv4-sp-d16
 414              		.type	chMtxQueueNotEmptyS, %function
 415              	chMtxQueueNotEmptyS:
 416              	.LFB203:
 417              		.file 5 "../ChibiOS/os/rt/include/chmtx.h"
 418              		.loc 5 128 0
 419              		.cfi_startproc
 420              		@ args = 0, pretend = 0, frame = 8
 421              		@ frame_needed = 0, uses_anonymous_args = 0
 422 0000 00B5     		push	{lr}
 423              		.cfi_def_cfa_offset 4
 424              		.cfi_offset 14, -4
 425 0002 83B0     		sub	sp, sp, #12
 426              		.cfi_def_cfa_offset 16
 427 0004 0190     		str	r0, [sp, #4]
 428              		.loc 5 130 0
 429 0006 FFF7FEFF 		bl	chDbgCheckClassS
 430              		.loc 5 132 0
 431 000a 019B     		ldr	r3, [sp, #4]
 432 000c 1846     		mov	r0, r3
 433 000e FFF7FEFF 		bl	queue_notempty
 434 0012 0346     		mov	r3, r0
 435              		.loc 5 133 0
 436 0014 1846     		mov	r0, r3
 437 0016 03B0     		add	sp, sp, #12
 438              		.cfi_def_cfa_offset 4
 439              		@ sp needed
 440 0018 5DF804FB 		ldr	pc, [sp], #4
 441              		.cfi_endproc
 442              	.LFE203:
 443              		.size	chMtxQueueNotEmptyS, .-chMtxQueueNotEmptyS
 444              		.section	.text.chMtxObjectInit,"ax",%progbits
 445              		.align	1
 446              		.p2align 4,,15
 447              		.global	chMtxObjectInit
 448              		.syntax unified
 449              		.thumb
 450              		.thumb_func
 451              		.fpu fpv4-sp-d16
 452              		.type	chMtxObjectInit, %function
 453              	chMtxObjectInit:
 454              	.LFB231:
 455              		.file 6 "../ChibiOS/os/rt/src/chmtx.c"
 456              		.loc 6 103 0
ARM GAS  /tmp/ccemXhdN.s 			page 9


 457              		.cfi_startproc
 458              		@ args = 0, pretend = 0, frame = 8
 459              		@ frame_needed = 0, uses_anonymous_args = 0
 460 0000 00B5     		push	{lr}
 461              		.cfi_def_cfa_offset 4
 462              		.cfi_offset 14, -4
 463 0002 83B0     		sub	sp, sp, #12
 464              		.cfi_def_cfa_offset 16
 465 0004 0190     		str	r0, [sp, #4]
 466              		.loc 6 105 0
 467 0006 019B     		ldr	r3, [sp, #4]
 468 0008 002B     		cmp	r3, #0
 469 000a 02D1     		bne	.L21
 470              		.loc 6 105 0 is_stmt 0 discriminator 2
 471 000c 0648     		ldr	r0, .L22
 472 000e FFF7FEFF 		bl	chSysHalt
 473              	.L21:
 474              		.loc 6 107 0 is_stmt 1
 475 0012 019B     		ldr	r3, [sp, #4]
 476 0014 1846     		mov	r0, r3
 477 0016 FFF7FEFF 		bl	queue_init
 478              		.loc 6 108 0
 479 001a 019B     		ldr	r3, [sp, #4]
 480 001c 0022     		movs	r2, #0
 481 001e 9A60     		str	r2, [r3, #8]
 482              		.loc 6 112 0
 483 0020 00BF     		nop
 484 0022 03B0     		add	sp, sp, #12
 485              		.cfi_def_cfa_offset 4
 486              		@ sp needed
 487 0024 5DF804FB 		ldr	pc, [sp], #4
 488              	.L23:
 489              		.align	2
 490              	.L22:
 491 0028 00000000 		.word	__func__.7857
 492              		.cfi_endproc
 493              	.LFE231:
 494              		.size	chMtxObjectInit, .-chMtxObjectInit
 495              		.section	.text.chMtxLock,"ax",%progbits
 496              		.align	1
 497              		.p2align 4,,15
 498              		.global	chMtxLock
 499              		.syntax unified
 500              		.thumb
 501              		.thumb_func
 502              		.fpu fpv4-sp-d16
 503              		.type	chMtxLock, %function
 504              	chMtxLock:
 505              	.LFB232:
 506              		.loc 6 123 0
 507              		.cfi_startproc
 508              		@ args = 0, pretend = 0, frame = 8
 509              		@ frame_needed = 0, uses_anonymous_args = 0
 510 0000 00B5     		push	{lr}
 511              		.cfi_def_cfa_offset 4
 512              		.cfi_offset 14, -4
 513 0002 83B0     		sub	sp, sp, #12
ARM GAS  /tmp/ccemXhdN.s 			page 10


 514              		.cfi_def_cfa_offset 16
 515 0004 0190     		str	r0, [sp, #4]
 516              		.loc 6 125 0
 517 0006 FFF7FEFF 		bl	chSysLock
 518              		.loc 6 126 0
 519 000a 0198     		ldr	r0, [sp, #4]
 520 000c FFF7FEFF 		bl	chMtxLockS
 521              		.loc 6 127 0
 522 0010 FFF7FEFF 		bl	chSysUnlock
 523              		.loc 6 128 0
 524 0014 00BF     		nop
 525 0016 03B0     		add	sp, sp, #12
 526              		.cfi_def_cfa_offset 4
 527              		@ sp needed
 528 0018 5DF804FB 		ldr	pc, [sp], #4
 529              		.cfi_endproc
 530              	.LFE232:
 531              		.size	chMtxLock, .-chMtxLock
 532              		.section	.text.chMtxLockS,"ax",%progbits
 533              		.align	1
 534              		.p2align 4,,15
 535              		.global	chMtxLockS
 536              		.syntax unified
 537              		.thumb
 538              		.thumb_func
 539              		.fpu fpv4-sp-d16
 540              		.type	chMtxLockS, %function
 541              	chMtxLockS:
 542              	.LFB233:
 543              		.loc 6 139 0
 544              		.cfi_startproc
 545              		@ args = 0, pretend = 0, frame = 16
 546              		@ frame_needed = 0, uses_anonymous_args = 0
 547 0000 00B5     		push	{lr}
 548              		.cfi_def_cfa_offset 4
 549              		.cfi_offset 14, -4
 550 0002 85B0     		sub	sp, sp, #20
 551              		.cfi_def_cfa_offset 24
 552 0004 0190     		str	r0, [sp, #4]
 553              		.loc 6 140 0
 554 0006 3C4B     		ldr	r3, .L41
 555 0008 9B69     		ldr	r3, [r3, #24]
 556 000a 0293     		str	r3, [sp, #8]
 557              		.loc 6 142 0
 558 000c FFF7FEFF 		bl	chDbgCheckClassS
 559              		.loc 6 143 0
 560 0010 019B     		ldr	r3, [sp, #4]
 561 0012 002B     		cmp	r3, #0
 562 0014 02D1     		bne	.L26
 563              		.loc 6 143 0 is_stmt 0 discriminator 2
 564 0016 3948     		ldr	r0, .L41+4
 565 0018 FFF7FEFF 		bl	chSysHalt
 566              	.L26:
 567              		.loc 6 146 0 is_stmt 1
 568 001c 019B     		ldr	r3, [sp, #4]
 569 001e 9B68     		ldr	r3, [r3, #8]
 570 0020 002B     		cmp	r3, #0
ARM GAS  /tmp/ccemXhdN.s 			page 11


 571 0022 5AD0     		beq	.L27
 572              	.LBB10:
 573              		.loc 6 161 0
 574 0024 019B     		ldr	r3, [sp, #4]
 575 0026 9B68     		ldr	r3, [r3, #8]
 576 0028 0393     		str	r3, [sp, #12]
 577              		.loc 6 165 0
 578 002a 34E0     		b	.L28
 579              	.L35:
 580              		.loc 6 167 0
 581 002c 029B     		ldr	r3, [sp, #8]
 582 002e 9A68     		ldr	r2, [r3, #8]
 583 0030 039B     		ldr	r3, [sp, #12]
 584 0032 9A60     		str	r2, [r3, #8]
 585              		.loc 6 170 0
 586 0034 039B     		ldr	r3, [sp, #12]
 587 0036 93F82030 		ldrb	r3, [r3, #32]	@ zero_extendqisi2
 588 003a 062B     		cmp	r3, #6
 589 003c 04D0     		beq	.L30
 590 003e 072B     		cmp	r3, #7
 591 0040 11D0     		beq	.L31
 592 0042 002B     		cmp	r3, #0
 593 0044 1AD0     		beq	.L32
 594              		.loc 6 206 0
 595 0046 25E0     		b	.L33
 596              	.L30:
 597              		.loc 6 173 0
 598 0048 0398     		ldr	r0, [sp, #12]
 599 004a FFF7FEFF 		bl	queue_dequeue
 600 004e 0246     		mov	r2, r0
 601 0050 039B     		ldr	r3, [sp, #12]
 602 0052 5B6A     		ldr	r3, [r3, #36]
 603 0054 1946     		mov	r1, r3
 604 0056 1046     		mov	r0, r2
 605 0058 FFF7FEFF 		bl	queue_prio_insert
 606              		.loc 6 174 0
 607 005c 039B     		ldr	r3, [sp, #12]
 608 005e 5B6A     		ldr	r3, [r3, #36]
 609 0060 9B68     		ldr	r3, [r3, #8]
 610 0062 0393     		str	r3, [sp, #12]
 611              		.loc 6 176 0
 612 0064 17E0     		b	.L28
 613              	.L31:
 614              		.loc 6 193 0
 615 0066 0398     		ldr	r0, [sp, #12]
 616 0068 FFF7FEFF 		bl	queue_dequeue
 617 006c 0246     		mov	r2, r0
 618 006e 039B     		ldr	r3, [sp, #12]
 619 0070 5B6A     		ldr	r3, [r3, #36]
 620 0072 1946     		mov	r1, r3
 621 0074 1046     		mov	r0, r2
 622 0076 FFF7FEFF 		bl	queue_prio_insert
 623              		.loc 6 194 0
 624 007a 0BE0     		b	.L33
 625              	.L32:
 626              		.loc 6 199 0
 627 007c 039B     		ldr	r3, [sp, #12]
ARM GAS  /tmp/ccemXhdN.s 			page 12


 628 007e 0122     		movs	r2, #1
 629 0080 83F82020 		strb	r2, [r3, #32]
 630              		.loc 6 202 0
 631 0084 0398     		ldr	r0, [sp, #12]
 632 0086 FFF7FEFF 		bl	queue_dequeue
 633 008a 0346     		mov	r3, r0
 634 008c 1846     		mov	r0, r3
 635 008e FFF7FEFF 		bl	chSchReadyI
 636              		.loc 6 203 0
 637 0092 00BF     		nop
 638              	.L33:
 639              		.loc 6 208 0 discriminator 1
 640 0094 05E0     		b	.L34
 641              	.L28:
 642              		.loc 6 165 0
 643 0096 039B     		ldr	r3, [sp, #12]
 644 0098 9A68     		ldr	r2, [r3, #8]
 645 009a 029B     		ldr	r3, [sp, #8]
 646 009c 9B68     		ldr	r3, [r3, #8]
 647 009e 9A42     		cmp	r2, r3
 648 00a0 C4D3     		bcc	.L35
 649              	.L34:
 650              		.loc 6 212 0
 651 00a2 019B     		ldr	r3, [sp, #4]
 652 00a4 1946     		mov	r1, r3
 653 00a6 0298     		ldr	r0, [sp, #8]
 654 00a8 FFF7FEFF 		bl	queue_prio_insert
 655              		.loc 6 213 0
 656 00ac 029B     		ldr	r3, [sp, #8]
 657 00ae 019A     		ldr	r2, [sp, #4]
 658 00b0 5A62     		str	r2, [r3, #36]
 659              		.loc 6 214 0
 660 00b2 0620     		movs	r0, #6
 661 00b4 FFF7FEFF 		bl	chSchGoSleepS
 662              		.loc 6 218 0
 663 00b8 019B     		ldr	r3, [sp, #4]
 664 00ba 9A68     		ldr	r2, [r3, #8]
 665 00bc 029B     		ldr	r3, [sp, #8]
 666 00be 9A42     		cmp	r2, r3
 667 00c0 02D0     		beq	.L39
 668              		.loc 6 218 0 is_stmt 0 discriminator 2
 669 00c2 0E48     		ldr	r0, .L41+4
 670 00c4 FFF7FEFF 		bl	chSysHalt
 671              	.L39:
 672              		.loc 6 219 0 is_stmt 1 discriminator 1
 673 00c8 029B     		ldr	r3, [sp, #8]
 674 00ca DA6B     		ldr	r2, [r3, #60]
 675 00cc 019B     		ldr	r3, [sp, #4]
 676 00ce 9A42     		cmp	r2, r3
 677 00d0 0DD0     		beq	.L40
 678              		.loc 6 219 0 is_stmt 0 discriminator 2
 679 00d2 0A48     		ldr	r0, .L41+4
 680 00d4 FFF7FEFF 		bl	chSysHalt
 681              	.LBE10:
 682              		.loc 6 236 0 is_stmt 1 discriminator 2
 683 00d8 09E0     		b	.L40
 684              	.L27:
ARM GAS  /tmp/ccemXhdN.s 			page 13


 685              		.loc 6 232 0
 686 00da 019B     		ldr	r3, [sp, #4]
 687 00dc 029A     		ldr	r2, [sp, #8]
 688 00de 9A60     		str	r2, [r3, #8]
 689              		.loc 6 233 0
 690 00e0 029B     		ldr	r3, [sp, #8]
 691 00e2 DA6B     		ldr	r2, [r3, #60]
 692 00e4 019B     		ldr	r3, [sp, #4]
 693 00e6 DA60     		str	r2, [r3, #12]
 694              		.loc 6 234 0
 695 00e8 029B     		ldr	r3, [sp, #8]
 696 00ea 019A     		ldr	r2, [sp, #4]
 697 00ec DA63     		str	r2, [r3, #60]
 698              	.L40:
 699              		.loc 6 236 0
 700 00ee 00BF     		nop
 701 00f0 05B0     		add	sp, sp, #20
 702              		.cfi_def_cfa_offset 4
 703              		@ sp needed
 704 00f2 5DF804FB 		ldr	pc, [sp], #4
 705              	.L42:
 706 00f6 00BF     		.align	2
 707              	.L41:
 708 00f8 00000000 		.word	ch
 709 00fc 00000000 		.word	__func__.7865
 710              		.cfi_endproc
 711              	.LFE233:
 712              		.size	chMtxLockS, .-chMtxLockS
 713              		.section	.text.chMtxTryLock,"ax",%progbits
 714              		.align	1
 715              		.p2align 4,,15
 716              		.global	chMtxTryLock
 717              		.syntax unified
 718              		.thumb
 719              		.thumb_func
 720              		.fpu fpv4-sp-d16
 721              		.type	chMtxTryLock, %function
 722              	chMtxTryLock:
 723              	.LFB234:
 724              		.loc 6 255 0
 725              		.cfi_startproc
 726              		@ args = 0, pretend = 0, frame = 16
 727              		@ frame_needed = 0, uses_anonymous_args = 0
 728 0000 00B5     		push	{lr}
 729              		.cfi_def_cfa_offset 4
 730              		.cfi_offset 14, -4
 731 0002 85B0     		sub	sp, sp, #20
 732              		.cfi_def_cfa_offset 24
 733 0004 0190     		str	r0, [sp, #4]
 734              		.loc 6 258 0
 735 0006 FFF7FEFF 		bl	chSysLock
 736              		.loc 6 259 0
 737 000a 0198     		ldr	r0, [sp, #4]
 738 000c FFF7FEFF 		bl	chMtxTryLockS
 739 0010 0346     		mov	r3, r0
 740 0012 8DF80F30 		strb	r3, [sp, #15]
 741              		.loc 6 260 0
ARM GAS  /tmp/ccemXhdN.s 			page 14


 742 0016 FFF7FEFF 		bl	chSysUnlock
 743              		.loc 6 262 0
 744 001a 9DF80F30 		ldrb	r3, [sp, #15]	@ zero_extendqisi2
 745              		.loc 6 263 0
 746 001e 1846     		mov	r0, r3
 747 0020 05B0     		add	sp, sp, #20
 748              		.cfi_def_cfa_offset 4
 749              		@ sp needed
 750 0022 5DF804FB 		ldr	pc, [sp], #4
 751              		.cfi_endproc
 752              	.LFE234:
 753              		.size	chMtxTryLock, .-chMtxTryLock
 754 0026 00BF     		.section	.text.chMtxTryLockS,"ax",%progbits
 755              		.align	1
 756              		.p2align 4,,15
 757              		.global	chMtxTryLockS
 758              		.syntax unified
 759              		.thumb
 760              		.thumb_func
 761              		.fpu fpv4-sp-d16
 762              		.type	chMtxTryLockS, %function
 763              	chMtxTryLockS:
 764              	.LFB235:
 765              		.loc 6 282 0
 766              		.cfi_startproc
 767              		@ args = 0, pretend = 0, frame = 8
 768              		@ frame_needed = 0, uses_anonymous_args = 0
 769 0000 00B5     		push	{lr}
 770              		.cfi_def_cfa_offset 4
 771              		.cfi_offset 14, -4
 772 0002 83B0     		sub	sp, sp, #12
 773              		.cfi_def_cfa_offset 16
 774 0004 0190     		str	r0, [sp, #4]
 775              		.loc 6 284 0
 776 0006 FFF7FEFF 		bl	chDbgCheckClassS
 777              		.loc 6 285 0
 778 000a 019B     		ldr	r3, [sp, #4]
 779 000c 002B     		cmp	r3, #0
 780 000e 02D1     		bne	.L46
 781              		.loc 6 285 0 is_stmt 0 discriminator 2
 782 0010 0D48     		ldr	r0, .L49
 783 0012 FFF7FEFF 		bl	chSysHalt
 784              	.L46:
 785              		.loc 6 287 0 is_stmt 1
 786 0016 019B     		ldr	r3, [sp, #4]
 787 0018 9B68     		ldr	r3, [r3, #8]
 788 001a 002B     		cmp	r3, #0
 789 001c 01D0     		beq	.L47
 790              		.loc 6 297 0
 791 001e 0023     		movs	r3, #0
 792 0020 0DE0     		b	.L48
 793              	.L47:
 794              		.loc 6 305 0
 795 0022 0A4B     		ldr	r3, .L49+4
 796 0024 9A69     		ldr	r2, [r3, #24]
 797 0026 019B     		ldr	r3, [sp, #4]
 798 0028 9A60     		str	r2, [r3, #8]
ARM GAS  /tmp/ccemXhdN.s 			page 15


 799              		.loc 6 306 0
 800 002a 084B     		ldr	r3, .L49+4
 801 002c 9B69     		ldr	r3, [r3, #24]
 802 002e DA6B     		ldr	r2, [r3, #60]
 803 0030 019B     		ldr	r3, [sp, #4]
 804 0032 DA60     		str	r2, [r3, #12]
 805              		.loc 6 307 0
 806 0034 054B     		ldr	r3, .L49+4
 807 0036 9B69     		ldr	r3, [r3, #24]
 808 0038 019A     		ldr	r2, [sp, #4]
 809 003a DA63     		str	r2, [r3, #60]
 810              		.loc 6 308 0
 811 003c 0123     		movs	r3, #1
 812              	.L48:
 813              		.loc 6 309 0
 814 003e 1846     		mov	r0, r3
 815 0040 03B0     		add	sp, sp, #12
 816              		.cfi_def_cfa_offset 4
 817              		@ sp needed
 818 0042 5DF804FB 		ldr	pc, [sp], #4
 819              	.L50:
 820 0046 00BF     		.align	2
 821              	.L49:
 822 0048 00000000 		.word	__func__.7882
 823 004c 00000000 		.word	ch
 824              		.cfi_endproc
 825              	.LFE235:
 826              		.size	chMtxTryLockS, .-chMtxTryLockS
 827              		.section	.text.chMtxUnlock,"ax",%progbits
 828              		.align	1
 829              		.p2align 4,,15
 830              		.global	chMtxUnlock
 831              		.syntax unified
 832              		.thumb
 833              		.thumb_func
 834              		.fpu fpv4-sp-d16
 835              		.type	chMtxUnlock, %function
 836              	chMtxUnlock:
 837              	.LFB236:
 838              		.loc 6 323 0
 839              		.cfi_startproc
 840              		@ args = 0, pretend = 0, frame = 24
 841              		@ frame_needed = 0, uses_anonymous_args = 0
 842 0000 00B5     		push	{lr}
 843              		.cfi_def_cfa_offset 4
 844              		.cfi_offset 14, -4
 845 0002 87B0     		sub	sp, sp, #28
 846              		.cfi_def_cfa_offset 32
 847 0004 0190     		str	r0, [sp, #4]
 848              		.loc 6 324 0
 849 0006 354B     		ldr	r3, .L63
 850 0008 9B69     		ldr	r3, [r3, #24]
 851 000a 0393     		str	r3, [sp, #12]
 852              		.loc 6 327 0
 853 000c 019B     		ldr	r3, [sp, #4]
 854 000e 002B     		cmp	r3, #0
 855 0010 02D1     		bne	.L52
ARM GAS  /tmp/ccemXhdN.s 			page 16


 856              		.loc 6 327 0 is_stmt 0 discriminator 2
 857 0012 3348     		ldr	r0, .L63+4
 858 0014 FFF7FEFF 		bl	chSysHalt
 859              	.L52:
 860              		.loc 6 329 0 is_stmt 1
 861 0018 FFF7FEFF 		bl	chSysLock
 862              		.loc 6 331 0
 863 001c 039B     		ldr	r3, [sp, #12]
 864 001e DB6B     		ldr	r3, [r3, #60]
 865 0020 002B     		cmp	r3, #0
 866 0022 02D1     		bne	.L61
 867              		.loc 6 331 0 is_stmt 0 discriminator 2
 868 0024 2E48     		ldr	r0, .L63+4
 869 0026 FFF7FEFF 		bl	chSysHalt
 870              	.L61:
 871              		.loc 6 332 0 is_stmt 1 discriminator 1
 872 002a 039B     		ldr	r3, [sp, #12]
 873 002c DB6B     		ldr	r3, [r3, #60]
 874 002e 9A68     		ldr	r2, [r3, #8]
 875 0030 039B     		ldr	r3, [sp, #12]
 876 0032 9A42     		cmp	r2, r3
 877 0034 02D0     		beq	.L62
 878              		.loc 6 332 0 is_stmt 0 discriminator 2
 879 0036 2A48     		ldr	r0, .L63+4
 880 0038 FFF7FEFF 		bl	chSysHalt
 881              	.L62:
 882              		.loc 6 339 0 is_stmt 1 discriminator 1
 883 003c 039B     		ldr	r3, [sp, #12]
 884 003e DA6B     		ldr	r2, [r3, #60]
 885 0040 019B     		ldr	r3, [sp, #4]
 886 0042 9A42     		cmp	r2, r3
 887 0044 02D0     		beq	.L55
 888              		.loc 6 339 0 is_stmt 0 discriminator 2
 889 0046 2648     		ldr	r0, .L63+4
 890 0048 FFF7FEFF 		bl	chSysHalt
 891              	.L55:
 892              		.loc 6 344 0 is_stmt 1
 893 004c 019B     		ldr	r3, [sp, #4]
 894 004e DA68     		ldr	r2, [r3, #12]
 895 0050 039B     		ldr	r3, [sp, #12]
 896 0052 DA63     		str	r2, [r3, #60]
 897              		.loc 6 347 0
 898 0054 0198     		ldr	r0, [sp, #4]
 899 0056 FFF7FEFF 		bl	chMtxQueueNotEmptyS
 900 005a 0346     		mov	r3, r0
 901 005c 002B     		cmp	r3, #0
 902 005e 34D0     		beq	.L56
 903              	.LBB11:
 904              		.loc 6 352 0
 905 0060 039B     		ldr	r3, [sp, #12]
 906 0062 1B6C     		ldr	r3, [r3, #64]
 907 0064 0493     		str	r3, [sp, #16]
 908              		.loc 6 353 0
 909 0066 039B     		ldr	r3, [sp, #12]
 910 0068 DB6B     		ldr	r3, [r3, #60]
 911 006a 0593     		str	r3, [sp, #20]
 912              		.loc 6 354 0
ARM GAS  /tmp/ccemXhdN.s 			page 17


 913 006c 12E0     		b	.L57
 914              	.L59:
 915              		.loc 6 358 0
 916 006e 0598     		ldr	r0, [sp, #20]
 917 0070 FFF7FEFF 		bl	chMtxQueueNotEmptyS
 918 0074 0346     		mov	r3, r0
 919 0076 002B     		cmp	r3, #0
 920 0078 09D0     		beq	.L58
 921              		.loc 6 359 0 discriminator 1
 922 007a 059B     		ldr	r3, [sp, #20]
 923 007c 1B68     		ldr	r3, [r3]
 924 007e 9A68     		ldr	r2, [r3, #8]
 925              		.loc 6 358 0 discriminator 1
 926 0080 049B     		ldr	r3, [sp, #16]
 927 0082 9A42     		cmp	r2, r3
 928 0084 03D9     		bls	.L58
 929              		.loc 6 360 0
 930 0086 059B     		ldr	r3, [sp, #20]
 931 0088 1B68     		ldr	r3, [r3]
 932 008a 9B68     		ldr	r3, [r3, #8]
 933 008c 0493     		str	r3, [sp, #16]
 934              	.L58:
 935              		.loc 6 362 0
 936 008e 059B     		ldr	r3, [sp, #20]
 937 0090 DB68     		ldr	r3, [r3, #12]
 938 0092 0593     		str	r3, [sp, #20]
 939              	.L57:
 940              		.loc 6 354 0
 941 0094 059B     		ldr	r3, [sp, #20]
 942 0096 002B     		cmp	r3, #0
 943 0098 E9D1     		bne	.L59
 944              		.loc 6 367 0
 945 009a 039B     		ldr	r3, [sp, #12]
 946 009c 049A     		ldr	r2, [sp, #16]
 947 009e 9A60     		str	r2, [r3, #8]
 948              		.loc 6 374 0
 949 00a0 019B     		ldr	r3, [sp, #4]
 950 00a2 1846     		mov	r0, r3
 951 00a4 FFF7FEFF 		bl	queue_fifo_remove
 952 00a8 0290     		str	r0, [sp, #8]
 953              		.loc 6 375 0
 954 00aa 019B     		ldr	r3, [sp, #4]
 955 00ac 029A     		ldr	r2, [sp, #8]
 956 00ae 9A60     		str	r2, [r3, #8]
 957              		.loc 6 376 0
 958 00b0 029B     		ldr	r3, [sp, #8]
 959 00b2 DA6B     		ldr	r2, [r3, #60]
 960 00b4 019B     		ldr	r3, [sp, #4]
 961 00b6 DA60     		str	r2, [r3, #12]
 962              		.loc 6 377 0
 963 00b8 029B     		ldr	r3, [sp, #8]
 964 00ba 019A     		ldr	r2, [sp, #4]
 965 00bc DA63     		str	r2, [r3, #60]
 966              		.loc 6 383 0
 967 00be 0298     		ldr	r0, [sp, #8]
 968 00c0 FFF7FEFF 		bl	chSchReadyI
 969              		.loc 6 384 0
ARM GAS  /tmp/ccemXhdN.s 			page 18


 970 00c4 FFF7FEFF 		bl	chSchRescheduleS
 971              	.LBE11:
 972 00c8 02E0     		b	.L60
 973              	.L56:
 974              		.loc 6 387 0
 975 00ca 019B     		ldr	r3, [sp, #4]
 976 00cc 0022     		movs	r2, #0
 977 00ce 9A60     		str	r2, [r3, #8]
 978              	.L60:
 979              		.loc 6 393 0
 980 00d0 FFF7FEFF 		bl	chSysUnlock
 981              		.loc 6 394 0
 982 00d4 00BF     		nop
 983 00d6 07B0     		add	sp, sp, #28
 984              		.cfi_def_cfa_offset 4
 985              		@ sp needed
 986 00d8 5DF804FB 		ldr	pc, [sp], #4
 987              	.L64:
 988              		.align	2
 989              	.L63:
 990 00dc 00000000 		.word	ch
 991 00e0 00000000 		.word	__func__.7888
 992              		.cfi_endproc
 993              	.LFE236:
 994              		.size	chMtxUnlock, .-chMtxUnlock
 995              		.section	.text.chMtxUnlockS,"ax",%progbits
 996              		.align	1
 997              		.p2align 4,,15
 998              		.global	chMtxUnlockS
 999              		.syntax unified
 1000              		.thumb
 1001              		.thumb_func
 1002              		.fpu fpv4-sp-d16
 1003              		.type	chMtxUnlockS, %function
 1004              	chMtxUnlockS:
 1005              	.LFB237:
 1006              		.loc 6 410 0
 1007              		.cfi_startproc
 1008              		@ args = 0, pretend = 0, frame = 24
 1009              		@ frame_needed = 0, uses_anonymous_args = 0
 1010 0000 00B5     		push	{lr}
 1011              		.cfi_def_cfa_offset 4
 1012              		.cfi_offset 14, -4
 1013 0002 87B0     		sub	sp, sp, #28
 1014              		.cfi_def_cfa_offset 32
 1015 0004 0190     		str	r0, [sp, #4]
 1016              		.loc 6 411 0
 1017 0006 334B     		ldr	r3, .L79
 1018 0008 9B69     		ldr	r3, [r3, #24]
 1019 000a 0393     		str	r3, [sp, #12]
 1020              		.loc 6 414 0
 1021 000c FFF7FEFF 		bl	chDbgCheckClassS
 1022              		.loc 6 415 0
 1023 0010 019B     		ldr	r3, [sp, #4]
 1024 0012 002B     		cmp	r3, #0
 1025 0014 02D1     		bne	.L75
 1026              		.loc 6 415 0 is_stmt 0 discriminator 2
ARM GAS  /tmp/ccemXhdN.s 			page 19


 1027 0016 3048     		ldr	r0, .L79+4
 1028 0018 FFF7FEFF 		bl	chSysHalt
 1029              	.L75:
 1030              		.loc 6 417 0 is_stmt 1 discriminator 1
 1031 001c 039B     		ldr	r3, [sp, #12]
 1032 001e DB6B     		ldr	r3, [r3, #60]
 1033 0020 002B     		cmp	r3, #0
 1034 0022 02D1     		bne	.L76
 1035              		.loc 6 417 0 is_stmt 0 discriminator 2
 1036 0024 2C48     		ldr	r0, .L79+4
 1037 0026 FFF7FEFF 		bl	chSysHalt
 1038              	.L76:
 1039              		.loc 6 418 0 is_stmt 1 discriminator 1
 1040 002a 039B     		ldr	r3, [sp, #12]
 1041 002c DB6B     		ldr	r3, [r3, #60]
 1042 002e 9A68     		ldr	r2, [r3, #8]
 1043 0030 039B     		ldr	r3, [sp, #12]
 1044 0032 9A42     		cmp	r2, r3
 1045 0034 02D0     		beq	.L77
 1046              		.loc 6 418 0 is_stmt 0 discriminator 2
 1047 0036 2848     		ldr	r0, .L79+4
 1048 0038 FFF7FEFF 		bl	chSysHalt
 1049              	.L77:
 1050              		.loc 6 425 0 is_stmt 1 discriminator 1
 1051 003c 039B     		ldr	r3, [sp, #12]
 1052 003e DA6B     		ldr	r2, [r3, #60]
 1053 0040 019B     		ldr	r3, [sp, #4]
 1054 0042 9A42     		cmp	r2, r3
 1055 0044 02D0     		beq	.L69
 1056              		.loc 6 425 0 is_stmt 0 discriminator 2
 1057 0046 2448     		ldr	r0, .L79+4
 1058 0048 FFF7FEFF 		bl	chSysHalt
 1059              	.L69:
 1060              		.loc 6 430 0 is_stmt 1
 1061 004c 019B     		ldr	r3, [sp, #4]
 1062 004e DA68     		ldr	r2, [r3, #12]
 1063 0050 039B     		ldr	r3, [sp, #12]
 1064 0052 DA63     		str	r2, [r3, #60]
 1065              		.loc 6 433 0
 1066 0054 0198     		ldr	r0, [sp, #4]
 1067 0056 FFF7FEFF 		bl	chMtxQueueNotEmptyS
 1068 005a 0346     		mov	r3, r0
 1069 005c 002B     		cmp	r3, #0
 1070 005e 32D0     		beq	.L70
 1071              	.LBB12:
 1072              		.loc 6 438 0
 1073 0060 039B     		ldr	r3, [sp, #12]
 1074 0062 1B6C     		ldr	r3, [r3, #64]
 1075 0064 0493     		str	r3, [sp, #16]
 1076              		.loc 6 439 0
 1077 0066 039B     		ldr	r3, [sp, #12]
 1078 0068 DB6B     		ldr	r3, [r3, #60]
 1079 006a 0593     		str	r3, [sp, #20]
 1080              		.loc 6 440 0
 1081 006c 12E0     		b	.L71
 1082              	.L73:
 1083              		.loc 6 444 0
ARM GAS  /tmp/ccemXhdN.s 			page 20


 1084 006e 0598     		ldr	r0, [sp, #20]
 1085 0070 FFF7FEFF 		bl	chMtxQueueNotEmptyS
 1086 0074 0346     		mov	r3, r0
 1087 0076 002B     		cmp	r3, #0
 1088 0078 09D0     		beq	.L72
 1089              		.loc 6 445 0 discriminator 1
 1090 007a 059B     		ldr	r3, [sp, #20]
 1091 007c 1B68     		ldr	r3, [r3]
 1092 007e 9A68     		ldr	r2, [r3, #8]
 1093              		.loc 6 444 0 discriminator 1
 1094 0080 049B     		ldr	r3, [sp, #16]
 1095 0082 9A42     		cmp	r2, r3
 1096 0084 03D9     		bls	.L72
 1097              		.loc 6 446 0
 1098 0086 059B     		ldr	r3, [sp, #20]
 1099 0088 1B68     		ldr	r3, [r3]
 1100 008a 9B68     		ldr	r3, [r3, #8]
 1101 008c 0493     		str	r3, [sp, #16]
 1102              	.L72:
 1103              		.loc 6 448 0
 1104 008e 059B     		ldr	r3, [sp, #20]
 1105 0090 DB68     		ldr	r3, [r3, #12]
 1106 0092 0593     		str	r3, [sp, #20]
 1107              	.L71:
 1108              		.loc 6 440 0
 1109 0094 059B     		ldr	r3, [sp, #20]
 1110 0096 002B     		cmp	r3, #0
 1111 0098 E9D1     		bne	.L73
 1112              		.loc 6 453 0
 1113 009a 039B     		ldr	r3, [sp, #12]
 1114 009c 049A     		ldr	r2, [sp, #16]
 1115 009e 9A60     		str	r2, [r3, #8]
 1116              		.loc 6 460 0
 1117 00a0 019B     		ldr	r3, [sp, #4]
 1118 00a2 1846     		mov	r0, r3
 1119 00a4 FFF7FEFF 		bl	queue_fifo_remove
 1120 00a8 0290     		str	r0, [sp, #8]
 1121              		.loc 6 461 0
 1122 00aa 019B     		ldr	r3, [sp, #4]
 1123 00ac 029A     		ldr	r2, [sp, #8]
 1124 00ae 9A60     		str	r2, [r3, #8]
 1125              		.loc 6 462 0
 1126 00b0 029B     		ldr	r3, [sp, #8]
 1127 00b2 DA6B     		ldr	r2, [r3, #60]
 1128 00b4 019B     		ldr	r3, [sp, #4]
 1129 00b6 DA60     		str	r2, [r3, #12]
 1130              		.loc 6 463 0
 1131 00b8 029B     		ldr	r3, [sp, #8]
 1132 00ba 019A     		ldr	r2, [sp, #4]
 1133 00bc DA63     		str	r2, [r3, #60]
 1134              		.loc 6 464 0
 1135 00be 0298     		ldr	r0, [sp, #8]
 1136 00c0 FFF7FEFF 		bl	chSchReadyI
 1137              	.LBE12:
 1138              		.loc 6 472 0
 1139 00c4 02E0     		b	.L78
 1140              	.L70:
ARM GAS  /tmp/ccemXhdN.s 			page 21


 1141              		.loc 6 467 0
 1142 00c6 019B     		ldr	r3, [sp, #4]
 1143 00c8 0022     		movs	r2, #0
 1144 00ca 9A60     		str	r2, [r3, #8]
 1145              	.L78:
 1146              		.loc 6 472 0
 1147 00cc 00BF     		nop
 1148 00ce 07B0     		add	sp, sp, #28
 1149              		.cfi_def_cfa_offset 4
 1150              		@ sp needed
 1151 00d0 5DF804FB 		ldr	pc, [sp], #4
 1152              	.L80:
 1153              		.align	2
 1154              	.L79:
 1155 00d4 00000000 		.word	ch
 1156 00d8 00000000 		.word	__func__.7899
 1157              		.cfi_endproc
 1158              	.LFE237:
 1159              		.size	chMtxUnlockS, .-chMtxUnlockS
 1160              		.section	.text.chMtxUnlockAll,"ax",%progbits
 1161              		.align	1
 1162              		.p2align 4,,15
 1163              		.global	chMtxUnlockAll
 1164              		.syntax unified
 1165              		.thumb
 1166              		.thumb_func
 1167              		.fpu fpv4-sp-d16
 1168              		.type	chMtxUnlockAll, %function
 1169              	chMtxUnlockAll:
 1170              	.LFB238:
 1171              		.loc 6 485 0
 1172              		.cfi_startproc
 1173              		@ args = 0, pretend = 0, frame = 16
 1174              		@ frame_needed = 0, uses_anonymous_args = 0
 1175 0000 00B5     		push	{lr}
 1176              		.cfi_def_cfa_offset 4
 1177              		.cfi_offset 14, -4
 1178 0002 85B0     		sub	sp, sp, #20
 1179              		.cfi_def_cfa_offset 24
 1180              		.loc 6 486 0
 1181 0004 1D4B     		ldr	r3, .L86
 1182 0006 9B69     		ldr	r3, [r3, #24]
 1183 0008 0393     		str	r3, [sp, #12]
 1184              		.loc 6 488 0
 1185 000a FFF7FEFF 		bl	chSysLock
 1186              		.loc 6 489 0
 1187 000e 039B     		ldr	r3, [sp, #12]
 1188 0010 DB6B     		ldr	r3, [r3, #60]
 1189 0012 002B     		cmp	r3, #0
 1190 0014 2CD0     		beq	.L82
 1191              	.L85:
 1192              	.LBB13:
 1193              		.loc 6 491 0
 1194 0016 039B     		ldr	r3, [sp, #12]
 1195 0018 DB6B     		ldr	r3, [r3, #60]
 1196 001a 0293     		str	r3, [sp, #8]
 1197              		.loc 6 492 0
ARM GAS  /tmp/ccemXhdN.s 			page 22


 1198 001c 029B     		ldr	r3, [sp, #8]
 1199 001e DA68     		ldr	r2, [r3, #12]
 1200 0020 039B     		ldr	r3, [sp, #12]
 1201 0022 DA63     		str	r2, [r3, #60]
 1202              		.loc 6 493 0
 1203 0024 0298     		ldr	r0, [sp, #8]
 1204 0026 FFF7FEFF 		bl	chMtxQueueNotEmptyS
 1205 002a 0346     		mov	r3, r0
 1206 002c 002B     		cmp	r3, #0
 1207 002e 12D0     		beq	.L83
 1208              	.LBB14:
 1209              		.loc 6 497 0
 1210 0030 029B     		ldr	r3, [sp, #8]
 1211 0032 1846     		mov	r0, r3
 1212 0034 FFF7FEFF 		bl	queue_fifo_remove
 1213 0038 0190     		str	r0, [sp, #4]
 1214              		.loc 6 498 0
 1215 003a 029B     		ldr	r3, [sp, #8]
 1216 003c 019A     		ldr	r2, [sp, #4]
 1217 003e 9A60     		str	r2, [r3, #8]
 1218              		.loc 6 499 0
 1219 0040 019B     		ldr	r3, [sp, #4]
 1220 0042 DA6B     		ldr	r2, [r3, #60]
 1221 0044 029B     		ldr	r3, [sp, #8]
 1222 0046 DA60     		str	r2, [r3, #12]
 1223              		.loc 6 500 0
 1224 0048 019B     		ldr	r3, [sp, #4]
 1225 004a 029A     		ldr	r2, [sp, #8]
 1226 004c DA63     		str	r2, [r3, #60]
 1227              		.loc 6 501 0
 1228 004e 0198     		ldr	r0, [sp, #4]
 1229 0050 FFF7FEFF 		bl	chSchReadyI
 1230              	.LBE14:
 1231 0054 02E0     		b	.L84
 1232              	.L83:
 1233              		.loc 6 507 0
 1234 0056 029B     		ldr	r3, [sp, #8]
 1235 0058 0022     		movs	r2, #0
 1236 005a 9A60     		str	r2, [r3, #8]
 1237              	.L84:
 1238              	.LBE13:
 1239              		.loc 6 509 0
 1240 005c 039B     		ldr	r3, [sp, #12]
 1241 005e DB6B     		ldr	r3, [r3, #60]
 1242 0060 002B     		cmp	r3, #0
 1243 0062 D8D1     		bne	.L85
 1244              		.loc 6 510 0
 1245 0064 039B     		ldr	r3, [sp, #12]
 1246 0066 1A6C     		ldr	r2, [r3, #64]
 1247 0068 039B     		ldr	r3, [sp, #12]
 1248 006a 9A60     		str	r2, [r3, #8]
 1249              		.loc 6 511 0
 1250 006c FFF7FEFF 		bl	chSchRescheduleS
 1251              	.L82:
 1252              		.loc 6 513 0
 1253 0070 FFF7FEFF 		bl	chSysUnlock
 1254              		.loc 6 514 0
ARM GAS  /tmp/ccemXhdN.s 			page 23


 1255 0074 00BF     		nop
 1256 0076 05B0     		add	sp, sp, #20
 1257              		.cfi_def_cfa_offset 4
 1258              		@ sp needed
 1259 0078 5DF804FB 		ldr	pc, [sp], #4
 1260              	.L87:
 1261              		.align	2
 1262              	.L86:
 1263 007c 00000000 		.word	ch
 1264              		.cfi_endproc
 1265              	.LFE238:
 1266              		.size	chMtxUnlockAll, .-chMtxUnlockAll
 1267              		.section	.rodata.__func__.7857,"a",%progbits
 1268              		.align	2
 1269              		.type	__func__.7857, %object
 1270              		.size	__func__.7857, 16
 1271              	__func__.7857:
 1272 0000 63684D74 		.ascii	"chMtxObjectInit\000"
 1272      784F626A 
 1272      65637449 
 1272      6E697400 
 1273              		.section	.rodata.__func__.7157,"a",%progbits
 1274              		.align	2
 1275              		.type	__func__.7157, %object
 1276              		.size	__func__.7157, 12
 1277              	__func__.7157:
 1278 0000 63685379 		.ascii	"chSysUnlock\000"
 1278      73556E6C 
 1278      6F636B00 
 1279              		.section	.rodata.__func__.7865,"a",%progbits
 1280              		.align	2
 1281              		.type	__func__.7865, %object
 1282              		.size	__func__.7865, 11
 1283              	__func__.7865:
 1284 0000 63684D74 		.ascii	"chMtxLockS\000"
 1284      784C6F63 
 1284      6B5300
 1285              		.section	.rodata.__func__.7882,"a",%progbits
 1286              		.align	2
 1287              		.type	__func__.7882, %object
 1288              		.size	__func__.7882, 14
 1289              	__func__.7882:
 1290 0000 63684D74 		.ascii	"chMtxTryLockS\000"
 1290      78547279 
 1290      4C6F636B 
 1290      5300
 1291              		.section	.rodata.__func__.7888,"a",%progbits
 1292              		.align	2
 1293              		.type	__func__.7888, %object
 1294              		.size	__func__.7888, 12
 1295              	__func__.7888:
 1296 0000 63684D74 		.ascii	"chMtxUnlock\000"
 1296      78556E6C 
 1296      6F636B00 
 1297              		.section	.rodata.__func__.7899,"a",%progbits
 1298              		.align	2
 1299              		.type	__func__.7899, %object
ARM GAS  /tmp/ccemXhdN.s 			page 24


 1300              		.size	__func__.7899, 13
 1301              	__func__.7899:
 1302 0000 63684D74 		.ascii	"chMtxUnlockS\000"
 1302      78556E6C 
 1302      6F636B53 
 1302      00
 1303              		.text
 1304              	.Letext0:
 1305              		.file 7 "/usr/arm-none-eabi/include/machine/_default_types.h"
 1306              		.file 8 "/usr/arm-none-eabi/include/sys/_stdint.h"
 1307              		.file 9 "../ChibiOS/os/rt/ports/ARMCMx/compilers/GCC/chtypes.h"
 1308              		.file 10 "../ChibiOS/os/rt/include/chsystypes.h"
 1309              		.file 11 "../ChibiOS/os/ext/CMSIS/include/core_cm4.h"
 1310              		.file 12 "../ChibiOS/os/ext/CMSIS/ST/STM32F4xx/system_stm32f4xx.h"
 1311              		.file 13 "../ChibiOS/os/rt/ports/ARMCMx/chcore.h"
 1312              		.file 14 "../ChibiOS/os/rt/include/chtm.h"
 1313              		.file 15 "../ChibiOS/os/rt/include/chstats.h"
 1314              		.file 16 "../ChibiOS/os/rt/include/chsem.h"
 1315              		.file 17 "../ChibiOS/os/rt/include/chregistry.h"