ARM GAS  /tmp/ccuCUAgF.s 			page 1


   1              		.cpu cortex-m4
   2              		.eabi_attribute 27, 1
   3              		.eabi_attribute 28, 1
   4              		.eabi_attribute 20, 1
   5              		.eabi_attribute 21, 1
   6              		.eabi_attribute 23, 3
   7              		.eabi_attribute 24, 1
   8              		.eabi_attribute 25, 1
   9              		.eabi_attribute 26, 1
  10              		.eabi_attribute 30, 6
  11              		.eabi_attribute 34, 1
  12              		.eabi_attribute 18, 4
  13              		.file	"chprintf.c"
  14              		.text
  15              	.Ltext0:
  16              		.cfi_sections	.debug_frame
  17              		.section	.text.long_to_string_with_divisor,"ax",%progbits
  18              		.align	1
  19              		.p2align 4,,15
  20              		.syntax unified
  21              		.thumb
  22              		.thumb_func
  23              		.fpu fpv4-sp-d16
  24              		.type	long_to_string_with_divisor, %function
  25              	long_to_string_with_divisor:
  26              	.LFB268:
  27              		.file 1 "../ChibiOS/os/hal/lib/streams/chprintf.c"
  28              		.loc 1 40 0
  29              		.cfi_startproc
  30              		@ args = 0, pretend = 0, frame = 32
  31              		@ frame_needed = 0, uses_anonymous_args = 0
  32              		@ link register save eliminated.
  33 0000 88B0     		sub	sp, sp, #32
  34              		.cfi_def_cfa_offset 32
  35 0002 0390     		str	r0, [sp, #12]
  36 0004 0291     		str	r1, [sp, #8]
  37 0006 0192     		str	r2, [sp, #4]
  38 0008 0093     		str	r3, [sp]
  39              		.loc 1 45 0
  40 000a 029B     		ldr	r3, [sp, #8]
  41 000c 0593     		str	r3, [sp, #20]
  42              		.loc 1 46 0
  43 000e 009B     		ldr	r3, [sp]
  44 0010 002B     		cmp	r3, #0
  45 0012 02D1     		bne	.L2
  46              		.loc 1 47 0
  47 0014 029B     		ldr	r3, [sp, #8]
  48 0016 0493     		str	r3, [sp, #16]
  49 0018 01E0     		b	.L3
  50              	.L2:
  51              		.loc 1 49 0
  52 001a 009B     		ldr	r3, [sp]
  53 001c 0493     		str	r3, [sp, #16]
  54              	.L3:
  55              		.loc 1 52 0
  56 001e 039B     		ldr	r3, [sp, #12]
  57 0020 0B33     		adds	r3, r3, #11
ARM GAS  /tmp/ccuCUAgF.s 			page 2


  58 0022 0693     		str	r3, [sp, #24]
  59              	.L5:
  60              		.loc 1 54 0
  61 0024 059B     		ldr	r3, [sp, #20]
  62 0026 019A     		ldr	r2, [sp, #4]
  63 0028 B3FBF2F2 		udiv	r2, r3, r2
  64 002c 0199     		ldr	r1, [sp, #4]
  65 002e 01FB02F2 		mul	r2, r1, r2
  66 0032 9B1A     		subs	r3, r3, r2
  67 0034 0793     		str	r3, [sp, #28]
  68              		.loc 1 55 0
  69 0036 079B     		ldr	r3, [sp, #28]
  70 0038 3033     		adds	r3, r3, #48
  71 003a 0793     		str	r3, [sp, #28]
  72              		.loc 1 56 0
  73 003c 079B     		ldr	r3, [sp, #28]
  74 003e 392B     		cmp	r3, #57
  75 0040 02DD     		ble	.L4
  76              		.loc 1 57 0
  77 0042 079B     		ldr	r3, [sp, #28]
  78 0044 0733     		adds	r3, r3, #7
  79 0046 0793     		str	r3, [sp, #28]
  80              	.L4:
  81              		.loc 1 58 0
  82 0048 069B     		ldr	r3, [sp, #24]
  83 004a 013B     		subs	r3, r3, #1
  84 004c 0693     		str	r3, [sp, #24]
  85 004e 079B     		ldr	r3, [sp, #28]
  86 0050 DAB2     		uxtb	r2, r3
  87 0052 069B     		ldr	r3, [sp, #24]
  88 0054 1A70     		strb	r2, [r3]
  89              		.loc 1 59 0
  90 0056 059A     		ldr	r2, [sp, #20]
  91 0058 019B     		ldr	r3, [sp, #4]
  92 005a B2FBF3F3 		udiv	r3, r2, r3
  93 005e 0593     		str	r3, [sp, #20]
  94              		.loc 1 60 0
  95 0060 049A     		ldr	r2, [sp, #16]
  96 0062 019B     		ldr	r3, [sp, #4]
  97 0064 B2FBF3F3 		udiv	r3, r2, r3
  98 0068 0493     		str	r3, [sp, #16]
  99 006a 049B     		ldr	r3, [sp, #16]
 100 006c 002B     		cmp	r3, #0
 101 006e D9D1     		bne	.L5
 102              		.loc 1 62 0
 103 0070 039B     		ldr	r3, [sp, #12]
 104 0072 0B33     		adds	r3, r3, #11
 105 0074 1A46     		mov	r2, r3
 106 0076 069B     		ldr	r3, [sp, #24]
 107 0078 D31A     		subs	r3, r2, r3
 108 007a 0793     		str	r3, [sp, #28]
 109              	.L6:
 110              		.loc 1 64 0 discriminator 1
 111 007c 039B     		ldr	r3, [sp, #12]
 112 007e 5A1C     		adds	r2, r3, #1
 113 0080 0392     		str	r2, [sp, #12]
 114 0082 069A     		ldr	r2, [sp, #24]
ARM GAS  /tmp/ccuCUAgF.s 			page 3


 115 0084 511C     		adds	r1, r2, #1
 116 0086 0691     		str	r1, [sp, #24]
 117 0088 1278     		ldrb	r2, [r2]	@ zero_extendqisi2
 118 008a 1A70     		strb	r2, [r3]
 119              		.loc 1 65 0 discriminator 1
 120 008c 079B     		ldr	r3, [sp, #28]
 121 008e 013B     		subs	r3, r3, #1
 122 0090 0793     		str	r3, [sp, #28]
 123 0092 079B     		ldr	r3, [sp, #28]
 124 0094 002B     		cmp	r3, #0
 125 0096 F1D1     		bne	.L6
 126              		.loc 1 67 0
 127 0098 039B     		ldr	r3, [sp, #12]
 128              		.loc 1 68 0
 129 009a 1846     		mov	r0, r3
 130 009c 08B0     		add	sp, sp, #32
 131              		.cfi_def_cfa_offset 0
 132              		@ sp needed
 133 009e 7047     		bx	lr
 134              		.cfi_endproc
 135              	.LFE268:
 136              		.size	long_to_string_with_divisor, .-long_to_string_with_divisor
 137              		.section	.text.ch_ltoa,"ax",%progbits
 138              		.align	1
 139              		.p2align 4,,15
 140              		.syntax unified
 141              		.thumb
 142              		.thumb_func
 143              		.fpu fpv4-sp-d16
 144              		.type	ch_ltoa, %function
 145              	ch_ltoa:
 146              	.LFB269:
 147              		.loc 1 70 0
 148              		.cfi_startproc
 149              		@ args = 0, pretend = 0, frame = 16
 150              		@ frame_needed = 0, uses_anonymous_args = 0
 151 0000 00B5     		push	{lr}
 152              		.cfi_def_cfa_offset 4
 153              		.cfi_offset 14, -4
 154 0002 85B0     		sub	sp, sp, #20
 155              		.cfi_def_cfa_offset 24
 156 0004 0390     		str	r0, [sp, #12]
 157 0006 0291     		str	r1, [sp, #8]
 158 0008 0192     		str	r2, [sp, #4]
 159              		.loc 1 72 0
 160 000a 0023     		movs	r3, #0
 161 000c 019A     		ldr	r2, [sp, #4]
 162 000e 0299     		ldr	r1, [sp, #8]
 163 0010 0398     		ldr	r0, [sp, #12]
 164 0012 FFF7FEFF 		bl	long_to_string_with_divisor
 165 0016 0346     		mov	r3, r0
 166              		.loc 1 73 0
 167 0018 1846     		mov	r0, r3
 168 001a 05B0     		add	sp, sp, #20
 169              		.cfi_def_cfa_offset 4
 170              		@ sp needed
 171 001c 5DF804FB 		ldr	pc, [sp], #4
ARM GAS  /tmp/ccuCUAgF.s 			page 4


 172              		.cfi_endproc
 173              	.LFE269:
 174              		.size	ch_ltoa, .-ch_ltoa
 175              		.section	.rodata
 176              		.align	2
 177              	.LC0:
 178 0000 286E756C 		.ascii	"(null)\000"
 178      6C2900
 179              		.section	.text.chvprintf,"ax",%progbits
 180              		.align	1
 181              		.p2align 4,,15
 182              		.global	chvprintf
 183              		.syntax unified
 184              		.thumb
 185              		.thumb_func
 186              		.fpu fpv4-sp-d16
 187              		.type	chvprintf, %function
 188              	chvprintf:
 189              	.LFB270:
 190              		.loc 1 121 0
 191              		.cfi_startproc
 192              		@ args = 0, pretend = 0, frame = 64
 193              		@ frame_needed = 0, uses_anonymous_args = 0
 194 0000 00B5     		push	{lr}
 195              		.cfi_def_cfa_offset 4
 196              		.cfi_offset 14, -4
 197 0002 91B0     		sub	sp, sp, #68
 198              		.cfi_def_cfa_offset 72
 199 0004 0390     		str	r0, [sp, #12]
 200 0006 0291     		str	r1, [sp, #8]
 201 0008 0192     		str	r2, [sp, #4]
 202              		.loc 1 124 0
 203 000a 0023     		movs	r3, #0
 204 000c 0993     		str	r3, [sp, #36]
 205              	.L61:
 206              		.loc 1 135 0
 207 000e 029B     		ldr	r3, [sp, #8]
 208 0010 5A1C     		adds	r2, r3, #1
 209 0012 0292     		str	r2, [sp, #8]
 210 0014 1B78     		ldrb	r3, [r3]
 211 0016 8DF83730 		strb	r3, [sp, #55]
 212              		.loc 1 136 0
 213 001a 9DF83730 		ldrb	r3, [sp, #55]	@ zero_extendqisi2
 214 001e 002B     		cmp	r3, #0
 215 0020 01D1     		bne	.L11
 216              		.loc 1 137 0
 217 0022 099B     		ldr	r3, [sp, #36]
 218 0024 0DE2     		b	.L62
 219              	.L11:
 220              		.loc 1 138 0
 221 0026 9DF83730 		ldrb	r3, [sp, #55]	@ zero_extendqisi2
 222 002a 252B     		cmp	r3, #37
 223 002c 0BD0     		beq	.L13
 224              		.loc 1 139 0
 225 002e 039B     		ldr	r3, [sp, #12]
 226 0030 1B68     		ldr	r3, [r3]
 227 0032 9B68     		ldr	r3, [r3, #8]
ARM GAS  /tmp/ccuCUAgF.s 			page 5


 228 0034 9DF83720 		ldrb	r2, [sp, #55]	@ zero_extendqisi2
 229 0038 1146     		mov	r1, r2
 230 003a 0398     		ldr	r0, [sp, #12]
 231 003c 9847     		blx	r3
 232              	.LVL0:
 233              		.loc 1 140 0
 234 003e 099B     		ldr	r3, [sp, #36]
 235 0040 0133     		adds	r3, r3, #1
 236 0042 0993     		str	r3, [sp, #36]
 237              		.loc 1 141 0
 238 0044 FCE1     		b	.L14
 239              	.L13:
 240              		.loc 1 143 0
 241 0046 04AB     		add	r3, sp, #16
 242 0048 0F93     		str	r3, [sp, #60]
 243              		.loc 1 144 0
 244 004a 04AB     		add	r3, sp, #16
 245 004c 0E93     		str	r3, [sp, #56]
 246              		.loc 1 145 0
 247 004e 0023     		movs	r3, #0
 248 0050 8DF82230 		strb	r3, [sp, #34]
 249              		.loc 1 146 0
 250 0054 029B     		ldr	r3, [sp, #8]
 251 0056 1B78     		ldrb	r3, [r3]	@ zero_extendqisi2
 252 0058 2D2B     		cmp	r3, #45
 253 005a 05D1     		bne	.L15
 254              		.loc 1 147 0
 255 005c 029B     		ldr	r3, [sp, #8]
 256 005e 0133     		adds	r3, r3, #1
 257 0060 0293     		str	r3, [sp, #8]
 258              		.loc 1 148 0
 259 0062 0123     		movs	r3, #1
 260 0064 8DF82230 		strb	r3, [sp, #34]
 261              	.L15:
 262              		.loc 1 150 0
 263 0068 2023     		movs	r3, #32
 264 006a 8DF83630 		strb	r3, [sp, #54]
 265              		.loc 1 151 0
 266 006e 029B     		ldr	r3, [sp, #8]
 267 0070 1B78     		ldrb	r3, [r3]	@ zero_extendqisi2
 268 0072 302B     		cmp	r3, #48
 269 0074 05D1     		bne	.L16
 270              		.loc 1 152 0
 271 0076 029B     		ldr	r3, [sp, #8]
 272 0078 0133     		adds	r3, r3, #1
 273 007a 0293     		str	r3, [sp, #8]
 274              		.loc 1 153 0
 275 007c 3023     		movs	r3, #48
 276 007e 8DF83630 		strb	r3, [sp, #54]
 277              	.L16:
 278              		.loc 1 155 0
 279 0082 0023     		movs	r3, #0
 280 0084 0A93     		str	r3, [sp, #40]
 281              	.L21:
 282              		.loc 1 157 0
 283 0086 029B     		ldr	r3, [sp, #8]
 284 0088 5A1C     		adds	r2, r3, #1
ARM GAS  /tmp/ccuCUAgF.s 			page 6


 285 008a 0292     		str	r2, [sp, #8]
 286 008c 1B78     		ldrb	r3, [r3]
 287 008e 8DF83730 		strb	r3, [sp, #55]
 288              		.loc 1 158 0
 289 0092 9DF83730 		ldrb	r3, [sp, #55]	@ zero_extendqisi2
 290 0096 2F2B     		cmp	r3, #47
 291 0098 09D9     		bls	.L17
 292              		.loc 1 158 0 is_stmt 0 discriminator 1
 293 009a 9DF83730 		ldrb	r3, [sp, #55]	@ zero_extendqisi2
 294 009e 392B     		cmp	r3, #57
 295 00a0 05D8     		bhi	.L17
 296              		.loc 1 159 0 is_stmt 1
 297 00a2 9DF83730 		ldrb	r3, [sp, #55]
 298 00a6 303B     		subs	r3, r3, #48
 299 00a8 8DF83730 		strb	r3, [sp, #55]
 300 00ac 09E0     		b	.L18
 301              	.L17:
 302              		.loc 1 160 0
 303 00ae 9DF83730 		ldrb	r3, [sp, #55]	@ zero_extendqisi2
 304 00b2 2A2B     		cmp	r3, #42
 305 00b4 10D1     		bne	.L63
 306              		.loc 1 161 0
 307 00b6 019B     		ldr	r3, [sp, #4]
 308 00b8 1A1D     		adds	r2, r3, #4
 309 00ba 0192     		str	r2, [sp, #4]
 310 00bc 1B68     		ldr	r3, [r3]
 311 00be 8DF83730 		strb	r3, [sp, #55]
 312              	.L18:
 313              		.loc 1 164 0
 314 00c2 0A9A     		ldr	r2, [sp, #40]
 315 00c4 1346     		mov	r3, r2
 316 00c6 9B00     		lsls	r3, r3, #2
 317 00c8 1344     		add	r3, r3, r2
 318 00ca 5B00     		lsls	r3, r3, #1
 319 00cc 1A46     		mov	r2, r3
 320 00ce 9DF83730 		ldrb	r3, [sp, #55]	@ zero_extendqisi2
 321 00d2 1344     		add	r3, r3, r2
 322 00d4 0A93     		str	r3, [sp, #40]
 323              		.loc 1 157 0
 324 00d6 D6E7     		b	.L21
 325              	.L63:
 326              		.loc 1 163 0
 327 00d8 00BF     		nop
 328              		.loc 1 166 0
 329 00da 0023     		movs	r3, #0
 330 00dc 0B93     		str	r3, [sp, #44]
 331              		.loc 1 167 0
 332 00de 9DF83730 		ldrb	r3, [sp, #55]	@ zero_extendqisi2
 333 00e2 2E2B     		cmp	r3, #46
 334 00e4 2AD1     		bne	.L22
 335              	.L26:
 336              		.loc 1 169 0
 337 00e6 029B     		ldr	r3, [sp, #8]
 338 00e8 5A1C     		adds	r2, r3, #1
 339 00ea 0292     		str	r2, [sp, #8]
 340 00ec 1B78     		ldrb	r3, [r3]
 341 00ee 8DF83730 		strb	r3, [sp, #55]
ARM GAS  /tmp/ccuCUAgF.s 			page 7


 342              		.loc 1 170 0
 343 00f2 9DF83730 		ldrb	r3, [sp, #55]	@ zero_extendqisi2
 344 00f6 2F2B     		cmp	r3, #47
 345 00f8 09D9     		bls	.L23
 346              		.loc 1 170 0 is_stmt 0 discriminator 1
 347 00fa 9DF83730 		ldrb	r3, [sp, #55]	@ zero_extendqisi2
 348 00fe 392B     		cmp	r3, #57
 349 0100 05D8     		bhi	.L23
 350              		.loc 1 171 0 is_stmt 1
 351 0102 9DF83730 		ldrb	r3, [sp, #55]
 352 0106 303B     		subs	r3, r3, #48
 353 0108 8DF83730 		strb	r3, [sp, #55]
 354 010c 09E0     		b	.L24
 355              	.L23:
 356              		.loc 1 172 0
 357 010e 9DF83730 		ldrb	r3, [sp, #55]	@ zero_extendqisi2
 358 0112 2A2B     		cmp	r3, #42
 359 0114 11D1     		bne	.L64
 360              		.loc 1 173 0
 361 0116 019B     		ldr	r3, [sp, #4]
 362 0118 1A1D     		adds	r2, r3, #4
 363 011a 0192     		str	r2, [sp, #4]
 364 011c 1B68     		ldr	r3, [r3]
 365 011e 8DF83730 		strb	r3, [sp, #55]
 366              	.L24:
 367              		.loc 1 176 0
 368 0122 0B9A     		ldr	r2, [sp, #44]
 369 0124 1346     		mov	r3, r2
 370 0126 9B00     		lsls	r3, r3, #2
 371 0128 1344     		add	r3, r3, r2
 372 012a 5B00     		lsls	r3, r3, #1
 373 012c 0B93     		str	r3, [sp, #44]
 374              		.loc 1 177 0
 375 012e 9DF83730 		ldrb	r3, [sp, #55]	@ zero_extendqisi2
 376 0132 0B9A     		ldr	r2, [sp, #44]
 377 0134 1344     		add	r3, r3, r2
 378 0136 0B93     		str	r3, [sp, #44]
 379              		.loc 1 169 0
 380 0138 D5E7     		b	.L26
 381              	.L64:
 382              		.loc 1 175 0
 383 013a 00BF     		nop
 384              	.L22:
 385              		.loc 1 181 0
 386 013c 9DF83730 		ldrb	r3, [sp, #55]	@ zero_extendqisi2
 387 0140 6C2B     		cmp	r3, #108
 388 0142 03D0     		beq	.L27
 389              		.loc 1 181 0 is_stmt 0 discriminator 1
 390 0144 9DF83730 		ldrb	r3, [sp, #55]	@ zero_extendqisi2
 391 0148 4C2B     		cmp	r3, #76
 392 014a 0DD1     		bne	.L28
 393              	.L27:
 394              		.loc 1 182 0 is_stmt 1
 395 014c 0123     		movs	r3, #1
 396 014e 8DF82330 		strb	r3, [sp, #35]
 397              		.loc 1 183 0
 398 0152 029B     		ldr	r3, [sp, #8]
ARM GAS  /tmp/ccuCUAgF.s 			page 8


 399 0154 1B78     		ldrb	r3, [r3]	@ zero_extendqisi2
 400 0156 002B     		cmp	r3, #0
 401 0158 19D0     		beq	.L30
 402              		.loc 1 184 0
 403 015a 029B     		ldr	r3, [sp, #8]
 404 015c 5A1C     		adds	r2, r3, #1
 405 015e 0292     		str	r2, [sp, #8]
 406 0160 1B78     		ldrb	r3, [r3]
 407 0162 8DF83730 		strb	r3, [sp, #55]
 408              		.loc 1 183 0
 409 0166 12E0     		b	.L30
 410              	.L28:
 411              		.loc 1 187 0
 412 0168 9DF83730 		ldrb	r3, [sp, #55]	@ zero_extendqisi2
 413 016c 402B     		cmp	r3, #64
 414 016e 05D9     		bls	.L31
 415              		.loc 1 187 0 is_stmt 0 discriminator 1
 416 0170 9DF83730 		ldrb	r3, [sp, #55]	@ zero_extendqisi2
 417 0174 5A2B     		cmp	r3, #90
 418 0176 01D8     		bhi	.L31
 419              		.loc 1 187 0 discriminator 3
 420 0178 0123     		movs	r3, #1
 421 017a 00E0     		b	.L32
 422              	.L31:
 423              		.loc 1 187 0 discriminator 4
 424 017c 0023     		movs	r3, #0
 425              	.L32:
 426              		.loc 1 187 0 discriminator 6
 427 017e 8DF82330 		strb	r3, [sp, #35]
 428 0182 9DF82330 		ldrb	r3, [sp, #35]
 429 0186 03F00103 		and	r3, r3, #1
 430 018a 8DF82330 		strb	r3, [sp, #35]
 431              	.L30:
 432              		.loc 1 190 0 is_stmt 1
 433 018e 9DF83730 		ldrb	r3, [sp, #55]	@ zero_extendqisi2
 434 0192 443B     		subs	r3, r3, #68
 435 0194 342B     		cmp	r3, #52
 436 0196 00F2E280 		bhi	.L33
 437 019a 01A2     		adr	r2, .L35
 438 019c 52F823F0 		ldr	pc, [r2, r3, lsl #2]
 439              		.p2align 2
 440              	.L35:
 441 01a0 D7020000 		.word	.L34+1
 442 01a4 5F030000 		.word	.L33+1
 443 01a8 5F030000 		.word	.L33+1
 444 01ac 5F030000 		.word	.L33+1
 445 01b0 5F030000 		.word	.L33+1
 446 01b4 D7020000 		.word	.L34+1
 447 01b8 5F030000 		.word	.L33+1
 448 01bc 5F030000 		.word	.L33+1
 449 01c0 5F030000 		.word	.L33+1
 450 01c4 5F030000 		.word	.L33+1
 451 01c8 5F030000 		.word	.L33+1
 452 01cc 29030000 		.word	.L36+1
 453 01d0 5F030000 		.word	.L33+1
 454 01d4 5F030000 		.word	.L33+1
 455 01d8 5F030000 		.word	.L33+1
ARM GAS  /tmp/ccuCUAgF.s 			page 9


 456 01dc 5F030000 		.word	.L33+1
 457 01e0 5F030000 		.word	.L33+1
 458 01e4 21030000 		.word	.L37+1
 459 01e8 5F030000 		.word	.L33+1
 460 01ec 5F030000 		.word	.L33+1
 461 01f0 19030000 		.word	.L38+1
 462 01f4 5F030000 		.word	.L33+1
 463 01f8 5F030000 		.word	.L33+1
 464 01fc 5F030000 		.word	.L33+1
 465 0200 5F030000 		.word	.L33+1
 466 0204 5F030000 		.word	.L33+1
 467 0208 5F030000 		.word	.L33+1
 468 020c 5F030000 		.word	.L33+1
 469 0210 5F030000 		.word	.L33+1
 470 0214 5F030000 		.word	.L33+1
 471 0218 5F030000 		.word	.L33+1
 472 021c 75020000 		.word	.L39+1
 473 0220 D7020000 		.word	.L34+1
 474 0224 5F030000 		.word	.L33+1
 475 0228 5F030000 		.word	.L33+1
 476 022c 5F030000 		.word	.L33+1
 477 0230 5F030000 		.word	.L33+1
 478 0234 D7020000 		.word	.L34+1
 479 0238 5F030000 		.word	.L33+1
 480 023c 5F030000 		.word	.L33+1
 481 0240 5F030000 		.word	.L33+1
 482 0244 5F030000 		.word	.L33+1
 483 0248 5F030000 		.word	.L33+1
 484 024c 29030000 		.word	.L36+1
 485 0250 5F030000 		.word	.L33+1
 486 0254 5F030000 		.word	.L33+1
 487 0258 5F030000 		.word	.L33+1
 488 025c 8F020000 		.word	.L40+1
 489 0260 5F030000 		.word	.L33+1
 490 0264 21030000 		.word	.L37+1
 491 0268 5F030000 		.word	.L33+1
 492 026c 5F030000 		.word	.L33+1
 493 0270 19030000 		.word	.L38+1
 494              		.p2align 1
 495              	.L39:
 496              		.loc 1 192 0
 497 0274 2023     		movs	r3, #32
 498 0276 8DF83630 		strb	r3, [sp, #54]
 499              		.loc 1 193 0
 500 027a 0F9B     		ldr	r3, [sp, #60]
 501 027c 5A1C     		adds	r2, r3, #1
 502 027e 0F92     		str	r2, [sp, #60]
 503 0280 019A     		ldr	r2, [sp, #4]
 504 0282 111D     		adds	r1, r2, #4
 505 0284 0191     		str	r1, [sp, #4]
 506 0286 1268     		ldr	r2, [r2]
 507 0288 D2B2     		uxtb	r2, r2
 508 028a 1A70     		strb	r2, [r3]
 509              		.loc 1 194 0
 510 028c 6FE0     		b	.L41
 511              	.L40:
 512              		.loc 1 196 0
ARM GAS  /tmp/ccuCUAgF.s 			page 10


 513 028e 2023     		movs	r3, #32
 514 0290 8DF83630 		strb	r3, [sp, #54]
 515              		.loc 1 197 0
 516 0294 019B     		ldr	r3, [sp, #4]
 517 0296 1A1D     		adds	r2, r3, #4
 518 0298 0192     		str	r2, [sp, #4]
 519 029a 1B68     		ldr	r3, [r3]
 520 029c 0E93     		str	r3, [sp, #56]
 521 029e 0E9B     		ldr	r3, [sp, #56]
 522 02a0 002B     		cmp	r3, #0
 523 02a2 01D1     		bne	.L42
 524              		.loc 1 198 0
 525 02a4 694B     		ldr	r3, .L66
 526 02a6 0E93     		str	r3, [sp, #56]
 527              	.L42:
 528              		.loc 1 199 0
 529 02a8 0B9B     		ldr	r3, [sp, #44]
 530 02aa 002B     		cmp	r3, #0
 531 02ac 02D1     		bne	.L43
 532              		.loc 1 200 0
 533 02ae 47F6FF73 		movw	r3, #32767
 534 02b2 0B93     		str	r3, [sp, #44]
 535              	.L43:
 536              		.loc 1 201 0
 537 02b4 0E9B     		ldr	r3, [sp, #56]
 538 02b6 0F93     		str	r3, [sp, #60]
 539 02b8 02E0     		b	.L44
 540              	.L46:
 541              		.loc 1 201 0 is_stmt 0 discriminator 4
 542 02ba 0F9B     		ldr	r3, [sp, #60]
 543 02bc 0133     		adds	r3, r3, #1
 544 02be 0F93     		str	r3, [sp, #60]
 545              	.L44:
 546              		.loc 1 201 0 discriminator 1
 547 02c0 0F9B     		ldr	r3, [sp, #60]
 548 02c2 1B78     		ldrb	r3, [r3]	@ zero_extendqisi2
 549 02c4 002B     		cmp	r3, #0
 550 02c6 51D0     		beq	.L65
 551              		.loc 1 201 0 discriminator 3
 552 02c8 0B9B     		ldr	r3, [sp, #44]
 553 02ca 013B     		subs	r3, r3, #1
 554 02cc 0B93     		str	r3, [sp, #44]
 555 02ce 0B9B     		ldr	r3, [sp, #44]
 556 02d0 002B     		cmp	r3, #0
 557 02d2 F2DA     		bge	.L46
 558              		.loc 1 203 0 is_stmt 1
 559 02d4 4AE0     		b	.L65
 560              	.L34:
 561              		.loc 1 208 0
 562 02d6 9DF82330 		ldrb	r3, [sp, #35]	@ zero_extendqisi2
 563 02da 002B     		cmp	r3, #0
 564 02dc 05D0     		beq	.L47
 565              		.loc 1 209 0
 566 02de 019B     		ldr	r3, [sp, #4]
 567 02e0 1A1D     		adds	r2, r3, #4
 568 02e2 0192     		str	r2, [sp, #4]
 569 02e4 1B68     		ldr	r3, [r3]
ARM GAS  /tmp/ccuCUAgF.s 			page 11


 570 02e6 0793     		str	r3, [sp, #28]
 571 02e8 04E0     		b	.L48
 572              	.L47:
 573              		.loc 1 211 0
 574 02ea 019B     		ldr	r3, [sp, #4]
 575 02ec 1A1D     		adds	r2, r3, #4
 576 02ee 0192     		str	r2, [sp, #4]
 577 02f0 1B68     		ldr	r3, [r3]
 578 02f2 0793     		str	r3, [sp, #28]
 579              	.L48:
 580              		.loc 1 212 0
 581 02f4 079B     		ldr	r3, [sp, #28]
 582 02f6 002B     		cmp	r3, #0
 583 02f8 07DA     		bge	.L49
 584              		.loc 1 213 0
 585 02fa 0F9B     		ldr	r3, [sp, #60]
 586 02fc 5A1C     		adds	r2, r3, #1
 587 02fe 0F92     		str	r2, [sp, #60]
 588 0300 2D22     		movs	r2, #45
 589 0302 1A70     		strb	r2, [r3]
 590              		.loc 1 214 0
 591 0304 079B     		ldr	r3, [sp, #28]
 592 0306 5B42     		negs	r3, r3
 593 0308 0793     		str	r3, [sp, #28]
 594              	.L49:
 595              		.loc 1 216 0
 596 030a 0A22     		movs	r2, #10
 597 030c 0799     		ldr	r1, [sp, #28]
 598 030e 0F98     		ldr	r0, [sp, #60]
 599 0310 FFF7FEFF 		bl	ch_ltoa
 600 0314 0F90     		str	r0, [sp, #60]
 601              		.loc 1 217 0
 602 0316 2AE0     		b	.L41
 603              	.L38:
 604              		.loc 1 230 0
 605 0318 1023     		movs	r3, #16
 606 031a 8DF83730 		strb	r3, [sp, #55]
 607              		.loc 1 231 0
 608 031e 06E0     		b	.L50
 609              	.L37:
 610              		.loc 1 234 0
 611 0320 0A23     		movs	r3, #10
 612 0322 8DF83730 		strb	r3, [sp, #55]
 613              		.loc 1 235 0
 614 0326 02E0     		b	.L50
 615              	.L36:
 616              		.loc 1 238 0
 617 0328 0823     		movs	r3, #8
 618 032a 8DF83730 		strb	r3, [sp, #55]
 619              	.L50:
 620              		.loc 1 240 0
 621 032e 9DF82330 		ldrb	r3, [sp, #35]	@ zero_extendqisi2
 622 0332 002B     		cmp	r3, #0
 623 0334 05D0     		beq	.L51
 624              		.loc 1 241 0
 625 0336 019B     		ldr	r3, [sp, #4]
 626 0338 1A1D     		adds	r2, r3, #4
ARM GAS  /tmp/ccuCUAgF.s 			page 12


 627 033a 0192     		str	r2, [sp, #4]
 628 033c 1B68     		ldr	r3, [r3]
 629 033e 0793     		str	r3, [sp, #28]
 630 0340 04E0     		b	.L52
 631              	.L51:
 632              		.loc 1 243 0
 633 0342 019B     		ldr	r3, [sp, #4]
 634 0344 1A1D     		adds	r2, r3, #4
 635 0346 0192     		str	r2, [sp, #4]
 636 0348 1B68     		ldr	r3, [r3]
 637 034a 0793     		str	r3, [sp, #28]
 638              	.L52:
 639              		.loc 1 244 0
 640 034c 9DF83730 		ldrb	r3, [sp, #55]	@ zero_extendqisi2
 641 0350 1A46     		mov	r2, r3
 642 0352 0799     		ldr	r1, [sp, #28]
 643 0354 0F98     		ldr	r0, [sp, #60]
 644 0356 FFF7FEFF 		bl	ch_ltoa
 645 035a 0F90     		str	r0, [sp, #60]
 646              		.loc 1 245 0
 647 035c 07E0     		b	.L41
 648              	.L33:
 649              		.loc 1 247 0
 650 035e 0F9B     		ldr	r3, [sp, #60]
 651 0360 5A1C     		adds	r2, r3, #1
 652 0362 0F92     		str	r2, [sp, #60]
 653 0364 9DF83720 		ldrb	r2, [sp, #55]
 654 0368 1A70     		strb	r2, [r3]
 655              		.loc 1 248 0
 656 036a 00E0     		b	.L41
 657              	.L65:
 658              		.loc 1 203 0
 659 036c 00BF     		nop
 660              	.L41:
 661              		.loc 1 250 0
 662 036e 0F9A     		ldr	r2, [sp, #60]
 663 0370 0E9B     		ldr	r3, [sp, #56]
 664 0372 D31A     		subs	r3, r2, r3
 665 0374 0C93     		str	r3, [sp, #48]
 666              		.loc 1 251 0
 667 0376 0A9A     		ldr	r2, [sp, #40]
 668 0378 0C9B     		ldr	r3, [sp, #48]
 669 037a D31A     		subs	r3, r2, r3
 670 037c 0A93     		str	r3, [sp, #40]
 671 037e 0A9B     		ldr	r3, [sp, #40]
 672 0380 002B     		cmp	r3, #0
 673 0382 01DA     		bge	.L53
 674              		.loc 1 252 0
 675 0384 0023     		movs	r3, #0
 676 0386 0A93     		str	r3, [sp, #40]
 677              	.L53:
 678              		.loc 1 253 0
 679 0388 9DF82230 		ldrb	r3, [sp, #34]
 680 038c 83F00103 		eor	r3, r3, #1
 681 0390 DBB2     		uxtb	r3, r3
 682 0392 002B     		cmp	r3, #0
 683 0394 02D0     		beq	.L54
ARM GAS  /tmp/ccuCUAgF.s 			page 13


 684              		.loc 1 254 0
 685 0396 0A9B     		ldr	r3, [sp, #40]
 686 0398 5B42     		negs	r3, r3
 687 039a 0A93     		str	r3, [sp, #40]
 688              	.L54:
 689              		.loc 1 255 0
 690 039c 0A9B     		ldr	r3, [sp, #40]
 691 039e 002B     		cmp	r3, #0
 692 03a0 36DA     		bge	.L57
 693              		.loc 1 256 0
 694 03a2 0E9B     		ldr	r3, [sp, #56]
 695 03a4 1B78     		ldrb	r3, [r3]	@ zero_extendqisi2
 696 03a6 2D2B     		cmp	r3, #45
 697 03a8 13D1     		bne	.L56
 698              		.loc 1 256 0 is_stmt 0 discriminator 1
 699 03aa 9DF83630 		ldrb	r3, [sp, #54]	@ zero_extendqisi2
 700 03ae 302B     		cmp	r3, #48
 701 03b0 0FD1     		bne	.L56
 702              		.loc 1 257 0 is_stmt 1
 703 03b2 039B     		ldr	r3, [sp, #12]
 704 03b4 1B68     		ldr	r3, [r3]
 705 03b6 9A68     		ldr	r2, [r3, #8]
 706 03b8 0E9B     		ldr	r3, [sp, #56]
 707 03ba 591C     		adds	r1, r3, #1
 708 03bc 0E91     		str	r1, [sp, #56]
 709 03be 1B78     		ldrb	r3, [r3]	@ zero_extendqisi2
 710 03c0 1946     		mov	r1, r3
 711 03c2 0398     		ldr	r0, [sp, #12]
 712 03c4 9047     		blx	r2
 713              	.LVL1:
 714              		.loc 1 258 0
 715 03c6 099B     		ldr	r3, [sp, #36]
 716 03c8 0133     		adds	r3, r3, #1
 717 03ca 0993     		str	r3, [sp, #36]
 718              		.loc 1 259 0
 719 03cc 0C9B     		ldr	r3, [sp, #48]
 720 03ce 013B     		subs	r3, r3, #1
 721 03d0 0C93     		str	r3, [sp, #48]
 722              	.L56:
 723              		.loc 1 262 0 discriminator 1
 724 03d2 039B     		ldr	r3, [sp, #12]
 725 03d4 1B68     		ldr	r3, [r3]
 726 03d6 9B68     		ldr	r3, [r3, #8]
 727 03d8 9DF83620 		ldrb	r2, [sp, #54]	@ zero_extendqisi2
 728 03dc 1146     		mov	r1, r2
 729 03de 0398     		ldr	r0, [sp, #12]
 730 03e0 9847     		blx	r3
 731              	.LVL2:
 732              		.loc 1 263 0 discriminator 1
 733 03e2 099B     		ldr	r3, [sp, #36]
 734 03e4 0133     		adds	r3, r3, #1
 735 03e6 0993     		str	r3, [sp, #36]
 736              		.loc 1 264 0 discriminator 1
 737 03e8 0A9B     		ldr	r3, [sp, #40]
 738 03ea 0133     		adds	r3, r3, #1
 739 03ec 0A93     		str	r3, [sp, #40]
 740 03ee 0A9B     		ldr	r3, [sp, #40]
ARM GAS  /tmp/ccuCUAgF.s 			page 14


 741 03f0 002B     		cmp	r3, #0
 742 03f2 EED1     		bne	.L56
 743              		.loc 1 266 0
 744 03f4 0CE0     		b	.L57
 745              	.L58:
 746              		.loc 1 267 0
 747 03f6 039B     		ldr	r3, [sp, #12]
 748 03f8 1B68     		ldr	r3, [r3]
 749 03fa 9A68     		ldr	r2, [r3, #8]
 750 03fc 0E9B     		ldr	r3, [sp, #56]
 751 03fe 591C     		adds	r1, r3, #1
 752 0400 0E91     		str	r1, [sp, #56]
 753 0402 1B78     		ldrb	r3, [r3]	@ zero_extendqisi2
 754 0404 1946     		mov	r1, r3
 755 0406 0398     		ldr	r0, [sp, #12]
 756 0408 9047     		blx	r2
 757              	.LVL3:
 758              		.loc 1 268 0
 759 040a 099B     		ldr	r3, [sp, #36]
 760 040c 0133     		adds	r3, r3, #1
 761 040e 0993     		str	r3, [sp, #36]
 762              	.L57:
 763              		.loc 1 266 0
 764 0410 0C9B     		ldr	r3, [sp, #48]
 765 0412 013B     		subs	r3, r3, #1
 766 0414 0C93     		str	r3, [sp, #48]
 767 0416 0C9B     		ldr	r3, [sp, #48]
 768 0418 002B     		cmp	r3, #0
 769 041a ECDA     		bge	.L58
 770              		.loc 1 271 0
 771 041c 0DE0     		b	.L59
 772              	.L60:
 773              		.loc 1 272 0
 774 041e 039B     		ldr	r3, [sp, #12]
 775 0420 1B68     		ldr	r3, [r3]
 776 0422 9B68     		ldr	r3, [r3, #8]
 777 0424 9DF83620 		ldrb	r2, [sp, #54]	@ zero_extendqisi2
 778 0428 1146     		mov	r1, r2
 779 042a 0398     		ldr	r0, [sp, #12]
 780 042c 9847     		blx	r3
 781              	.LVL4:
 782              		.loc 1 273 0
 783 042e 099B     		ldr	r3, [sp, #36]
 784 0430 0133     		adds	r3, r3, #1
 785 0432 0993     		str	r3, [sp, #36]
 786              		.loc 1 274 0
 787 0434 0A9B     		ldr	r3, [sp, #40]
 788 0436 013B     		subs	r3, r3, #1
 789 0438 0A93     		str	r3, [sp, #40]
 790              	.L59:
 791              		.loc 1 271 0
 792 043a 0A9B     		ldr	r3, [sp, #40]
 793 043c 002B     		cmp	r3, #0
 794 043e EED1     		bne	.L60
 795              	.L14:
 796              		.loc 1 135 0
 797 0440 E5E5     		b	.L61
ARM GAS  /tmp/ccuCUAgF.s 			page 15


 798              	.L62:
 799              		.loc 1 277 0
 800 0442 1846     		mov	r0, r3
 801 0444 11B0     		add	sp, sp, #68
 802              		.cfi_def_cfa_offset 4
 803              		@ sp needed
 804 0446 5DF804FB 		ldr	pc, [sp], #4
 805              	.L67:
 806 044a 00BF     		.align	2
 807              	.L66:
 808 044c 00000000 		.word	.LC0
 809              		.cfi_endproc
 810              	.LFE270:
 811              		.size	chvprintf, .-chvprintf
 812              		.section	.text.chprintf,"ax",%progbits
 813              		.align	1
 814              		.p2align 4,,15
 815              		.global	chprintf
 816              		.syntax unified
 817              		.thumb
 818              		.thumb_func
 819              		.fpu fpv4-sp-d16
 820              		.type	chprintf, %function
 821              	chprintf:
 822              	.LFB271:
 823              		.loc 1 302 0
 824              		.cfi_startproc
 825              		@ args = 4, pretend = 12, frame = 16
 826              		@ frame_needed = 0, uses_anonymous_args = 1
 827 0000 0EB4     		push	{r1, r2, r3}
 828              		.cfi_def_cfa_offset 12
 829              		.cfi_offset 1, -12
 830              		.cfi_offset 2, -8
 831              		.cfi_offset 3, -4
 832 0002 00B5     		push	{lr}
 833              		.cfi_def_cfa_offset 16
 834              		.cfi_offset 14, -16
 835 0004 84B0     		sub	sp, sp, #16
 836              		.cfi_def_cfa_offset 32
 837 0006 0190     		str	r0, [sp, #4]
 838              		.loc 1 306 0
 839 0008 06AB     		add	r3, sp, #24
 840 000a 0293     		str	r3, [sp, #8]
 841              		.loc 1 307 0
 842 000c 029A     		ldr	r2, [sp, #8]
 843 000e 0599     		ldr	r1, [sp, #20]
 844 0010 0198     		ldr	r0, [sp, #4]
 845 0012 FFF7FEFF 		bl	chvprintf
 846 0016 0390     		str	r0, [sp, #12]
 847              		.loc 1 310 0
 848 0018 039B     		ldr	r3, [sp, #12]
 849              		.loc 1 311 0
 850 001a 1846     		mov	r0, r3
 851 001c 04B0     		add	sp, sp, #16
 852              		.cfi_def_cfa_offset 16
 853              		@ sp needed
 854 001e 5DF804EB 		ldr	lr, [sp], #4
ARM GAS  /tmp/ccuCUAgF.s 			page 16


 855              		.cfi_restore 14
 856              		.cfi_def_cfa_offset 12
 857 0022 03B0     		add	sp, sp, #12
 858              		.cfi_restore 3
 859              		.cfi_restore 2
 860              		.cfi_restore 1
 861              		.cfi_def_cfa_offset 0
 862 0024 7047     		bx	lr
 863              		.cfi_endproc
 864              	.LFE271:
 865              		.size	chprintf, .-chprintf
 866 0026 00BF     		.section	.text.chsnprintf,"ax",%progbits
 867              		.align	1
 868              		.p2align 4,,15
 869              		.global	chsnprintf
 870              		.syntax unified
 871              		.thumb
 872              		.thumb_func
 873              		.fpu fpv4-sp-d16
 874              		.type	chsnprintf, %function
 875              	chsnprintf:
 876              	.LFB272:
 877              		.loc 1 340 0
 878              		.cfi_startproc
 879              		@ args = 4, pretend = 8, frame = 48
 880              		@ frame_needed = 0, uses_anonymous_args = 1
 881 0000 0CB4     		push	{r2, r3}
 882              		.cfi_def_cfa_offset 8
 883              		.cfi_offset 2, -8
 884              		.cfi_offset 3, -4
 885 0002 00B5     		push	{lr}
 886              		.cfi_def_cfa_offset 12
 887              		.cfi_offset 14, -12
 888 0004 8DB0     		sub	sp, sp, #52
 889              		.cfi_def_cfa_offset 64
 890 0006 0190     		str	r0, [sp, #4]
 891 0008 0091     		str	r1, [sp]
 892              		.loc 1 347 0
 893 000a 009B     		ldr	r3, [sp]
 894 000c 002B     		cmp	r3, #0
 895 000e 03D0     		beq	.L71
 896              		.loc 1 348 0
 897 0010 009B     		ldr	r3, [sp]
 898 0012 013B     		subs	r3, r3, #1
 899 0014 0B93     		str	r3, [sp, #44]
 900 0016 01E0     		b	.L72
 901              	.L71:
 902              		.loc 1 350 0
 903 0018 0023     		movs	r3, #0
 904 001a 0B93     		str	r3, [sp, #44]
 905              	.L72:
 906              		.loc 1 354 0
 907 001c 03A8     		add	r0, sp, #12
 908 001e 0023     		movs	r3, #0
 909 0020 0B9A     		ldr	r2, [sp, #44]
 910 0022 0199     		ldr	r1, [sp, #4]
 911 0024 FFF7FEFF 		bl	msObjectInit
ARM GAS  /tmp/ccuCUAgF.s 			page 17


 912              		.loc 1 357 0
 913 0028 03AB     		add	r3, sp, #12
 914 002a 0A93     		str	r3, [sp, #40]
 915              		.loc 1 358 0
 916 002c 0FAB     		add	r3, sp, #60
 917 002e 0893     		str	r3, [sp, #32]
 918              		.loc 1 359 0
 919 0030 089A     		ldr	r2, [sp, #32]
 920 0032 0E99     		ldr	r1, [sp, #56]
 921 0034 0A98     		ldr	r0, [sp, #40]
 922 0036 FFF7FEFF 		bl	chvprintf
 923 003a 0990     		str	r0, [sp, #36]
 924              		.loc 1 363 0
 925 003c 069A     		ldr	r2, [sp, #24]
 926 003e 009B     		ldr	r3, [sp]
 927 0040 9A42     		cmp	r2, r3
 928 0042 04D2     		bcs	.L73
 929              		.loc 1 364 0
 930 0044 069B     		ldr	r3, [sp, #24]
 931 0046 019A     		ldr	r2, [sp, #4]
 932 0048 1344     		add	r3, r3, r2
 933 004a 0022     		movs	r2, #0
 934 004c 1A70     		strb	r2, [r3]
 935              	.L73:
 936              		.loc 1 367 0
 937 004e 099B     		ldr	r3, [sp, #36]
 938              		.loc 1 368 0
 939 0050 1846     		mov	r0, r3
 940 0052 0DB0     		add	sp, sp, #52
 941              		.cfi_def_cfa_offset 12
 942              		@ sp needed
 943 0054 5DF804EB 		ldr	lr, [sp], #4
 944              		.cfi_restore 14
 945              		.cfi_def_cfa_offset 8
 946 0058 02B0     		add	sp, sp, #8
 947              		.cfi_restore 3
 948              		.cfi_restore 2
 949              		.cfi_def_cfa_offset 0
 950 005a 7047     		bx	lr
 951              		.cfi_endproc
 952              	.LFE272:
 953              		.size	chsnprintf, .-chsnprintf
 954              		.text
 955              	.Letext0:
 956              		.file 2 "/usr/lib/gcc/arm-none-eabi/6.3.1/include/stddef.h"
 957              		.file 3 "/usr/arm-none-eabi/include/machine/_default_types.h"
 958              		.file 4 "/usr/arm-none-eabi/include/sys/_stdint.h"
 959              		.file 5 "../ChibiOS/os/rt/ports/ARMCMx/compilers/GCC/chtypes.h"
 960              		.file 6 "../ChibiOS/os/rt/include/chsystypes.h"
 961              		.file 7 "../ChibiOS/os/rt/include/chschd.h"
 962              		.file 8 "../ChibiOS/os/ext/CMSIS/include/core_cm4.h"
 963              		.file 9 "../ChibiOS/os/ext/CMSIS/ST/STM32F4xx/system_stm32f4xx.h"
 964              		.file 10 "../ChibiOS/os/ext/CMSIS/ST/STM32F4xx/stm32f437xx.h"
 965              		.file 11 "../ChibiOS/os/rt/ports/ARMCMx/chcore.h"
 966              		.file 12 "../ChibiOS/os/rt/ports/ARMCMx/chcore_v7m.h"
 967              		.file 13 "../ChibiOS/os/rt/include/chtm.h"
 968              		.file 14 "../ChibiOS/os/rt/include/chstats.h"
ARM GAS  /tmp/ccuCUAgF.s 			page 18


 969              		.file 15 "../ChibiOS/os/rt/include/chsem.h"
 970              		.file 16 "../ChibiOS/os/rt/include/chmtx.h"
 971              		.file 17 "../ChibiOS/os/rt/include/chregistry.h"
 972              		.file 18 "../ChibiOS/os/rt/include/chevents.h"
 973              		.file 19 "../ChibiOS/os/rt/include/chqueues.h"
 974              		.file 20 "../ChibiOS/os/rt/include/chstreams.h"
 975              		.file 21 "../ChibiOS/os/hal/ports/STM32/LLD/DMAv2/stm32_dma.h"
 976              		.file 22 "../ChibiOS/os/hal/ports/STM32/LLD/GPIOv2/pal_lld.h"
 977              		.file 23 "../ChibiOS/os/hal/include/ext.h"
 978              		.file 24 "../ChibiOS/os/hal/ports/STM32/LLD/EXTIv1/ext_lld.h"
 979              		.file 25 "../ChibiOS/os/hal/include/gpt.h"
 980              		.file 26 "../ChibiOS/os/hal/ports/STM32/LLD/TIMv1/gpt_lld.h"
 981              		.file 27 "../ChibiOS/os/hal/ports/STM32/LLD/TIMv1/stm32_tim.h"
 982              		.file 28 "../ChibiOS/os/hal/include/pwm.h"
 983              		.file 29 "../ChibiOS/os/hal/ports/STM32/LLD/TIMv1/pwm_lld.h"
 984              		.file 30 "../ChibiOS/os/hal/include/serial.h"
 985              		.file 31 "../ChibiOS/os/hal/ports/STM32/LLD/USARTv1/serial_lld.h"
 986              		.file 32 "../ChibiOS/os/hal/include/usb.h"
 987              		.file 33 "../ChibiOS/os/hal/ports/STM32/LLD/OTGv1/usb_lld.h"
 988              		.file 34 "../ChibiOS/os/hal/ports/STM32/LLD/OTGv1/stm32_otg.h"
 989              		.file 35 "/usr/lib/gcc/arm-none-eabi/6.3.1/include/stdarg.h"
 990              		.file 36 "<built-in>"
 991              		.file 37 "../ChibiOS/os/hal/lib/streams/memstreams.h"