ARM GAS  /tmp/ccP4CAJn.s 			page 1


   1              		.cpu cortex-m4
   2              		.eabi_attribute 27, 1
   3              		.eabi_attribute 28, 1
   4              		.eabi_attribute 20, 1
   5              		.eabi_attribute 21, 1
   6              		.eabi_attribute 23, 3
   7              		.eabi_attribute 24, 1
   8              		.eabi_attribute 25, 1
   9              		.eabi_attribute 26, 1
  10              		.eabi_attribute 30, 6
  11              		.eabi_attribute 34, 1
  12              		.eabi_attribute 18, 4
  13              		.file	"chqueues.c"
  14              		.text
  15              	.Ltext0:
  16              		.cfi_sections	.debug_frame
  17              		.section	.text.port_lock,"ax",%progbits
  18              		.align	1
  19              		.p2align 4,,15
  20              		.syntax unified
  21              		.thumb
  22              		.thumb_func
  23              		.fpu fpv4-sp-d16
  24              		.type	port_lock, %function
  25              	port_lock:
  26              	.LFB127:
  27              		.file 1 "../ChibiOS/os/rt/ports/ARMCMx/chcore_v7m.h"
  28              		.loc 1 456 0
  29              		.cfi_startproc
  30              		@ args = 0, pretend = 0, frame = 8
  31              		@ frame_needed = 0, uses_anonymous_args = 0
  32              		@ link register save eliminated.
  33 0000 82B0     		sub	sp, sp, #8
  34              		.cfi_def_cfa_offset 8
  35 0002 2023     		movs	r3, #32
  36 0004 0193     		str	r3, [sp, #4]
  37              	.LBB6:
  38              	.LBB7:
  39              		.file 2 "../ChibiOS/os/ext/CMSIS/include/core_cmFunc.h"
  40              		.loc 2 548 0
  41 0006 019B     		ldr	r3, [sp, #4]
  42              		.syntax unified
  43              	@ 548 "../ChibiOS/os/ext/CMSIS/include/core_cmFunc.h" 1
  44 0008 83F31188 		MSR basepri, r3
  45              	@ 0 "" 2
  46              		.thumb
  47              		.syntax unified
  48              	.LBE7:
  49              	.LBE6:
  50              		.loc 1 473 0
  51 000c 00BF     		nop
  52 000e 02B0     		add	sp, sp, #8
  53              		.cfi_def_cfa_offset 0
  54              		@ sp needed
  55 0010 7047     		bx	lr
  56              		.cfi_endproc
  57              	.LFE127:
ARM GAS  /tmp/ccP4CAJn.s 			page 2


  58              		.size	port_lock, .-port_lock
  59 0012 00BF     		.section	.text.port_unlock,"ax",%progbits
  60              		.align	1
  61              		.p2align 4,,15
  62              		.syntax unified
  63              		.thumb
  64              		.thumb_func
  65              		.fpu fpv4-sp-d16
  66              		.type	port_unlock, %function
  67              	port_unlock:
  68              	.LFB128:
  69              		.loc 1 480 0
  70              		.cfi_startproc
  71              		@ args = 0, pretend = 0, frame = 8
  72              		@ frame_needed = 0, uses_anonymous_args = 0
  73              		@ link register save eliminated.
  74 0000 82B0     		sub	sp, sp, #8
  75              		.cfi_def_cfa_offset 8
  76 0002 0023     		movs	r3, #0
  77 0004 0193     		str	r3, [sp, #4]
  78              	.LBB8:
  79              	.LBB9:
  80              		.loc 2 548 0
  81 0006 019B     		ldr	r3, [sp, #4]
  82              		.syntax unified
  83              	@ 548 "../ChibiOS/os/ext/CMSIS/include/core_cmFunc.h" 1
  84 0008 83F31188 		MSR basepri, r3
  85              	@ 0 "" 2
  86              		.thumb
  87              		.syntax unified
  88              	.LBE9:
  89              	.LBE8:
  90              		.loc 1 487 0
  91 000c 00BF     		nop
  92 000e 02B0     		add	sp, sp, #8
  93              		.cfi_def_cfa_offset 0
  94              		@ sp needed
  95 0010 7047     		bx	lr
  96              		.cfi_endproc
  97              	.LFE128:
  98              		.size	port_unlock, .-port_unlock
  99 0012 00BF     		.section	.text.queue_init,"ax",%progbits
 100              		.align	1
 101              		.p2align 4,,15
 102              		.syntax unified
 103              		.thumb
 104              		.thumb_func
 105              		.fpu fpv4-sp-d16
 106              		.type	queue_init, %function
 107              	queue_init:
 108              	.LFB139:
 109              		.file 3 "../ChibiOS/os/rt/include/chschd.h"
 110              		.loc 3 602 0
 111              		.cfi_startproc
 112              		@ args = 0, pretend = 0, frame = 8
 113              		@ frame_needed = 0, uses_anonymous_args = 0
 114              		@ link register save eliminated.
ARM GAS  /tmp/ccP4CAJn.s 			page 3


 115 0000 82B0     		sub	sp, sp, #8
 116              		.cfi_def_cfa_offset 8
 117 0002 0190     		str	r0, [sp, #4]
 118              		.loc 3 604 0
 119 0004 019B     		ldr	r3, [sp, #4]
 120 0006 019A     		ldr	r2, [sp, #4]
 121 0008 1A60     		str	r2, [r3]
 122              		.loc 3 605 0
 123 000a 019B     		ldr	r3, [sp, #4]
 124 000c 019A     		ldr	r2, [sp, #4]
 125 000e 5A60     		str	r2, [r3, #4]
 126              		.loc 3 606 0
 127 0010 00BF     		nop
 128 0012 02B0     		add	sp, sp, #8
 129              		.cfi_def_cfa_offset 0
 130              		@ sp needed
 131 0014 7047     		bx	lr
 132              		.cfi_endproc
 133              	.LFE139:
 134              		.size	queue_init, .-queue_init
 135              		.section	.text.chSysLock,"ax",%progbits
 136              		.align	1
 137              		.p2align 4,,15
 138              		.syntax unified
 139              		.thumb
 140              		.thumb_func
 141              		.fpu fpv4-sp-d16
 142              		.type	chSysLock, %function
 143              	chSysLock:
 144              	.LFB156:
 145              		.file 4 "../ChibiOS/os/rt/include/chsys.h"
 146              		.loc 4 346 0
 147              		.cfi_startproc
 148              		@ args = 0, pretend = 0, frame = 0
 149              		@ frame_needed = 0, uses_anonymous_args = 0
 150 0000 08B5     		push	{r3, lr}
 151              		.cfi_def_cfa_offset 8
 152              		.cfi_offset 3, -8
 153              		.cfi_offset 14, -4
 154              		.loc 4 348 0
 155 0002 FFF7FEFF 		bl	port_lock
 156              		.loc 4 349 0
 157 0006 FFF7FEFF 		bl	_stats_start_measure_crit_thd
 158              		.loc 4 350 0
 159 000a FFF7FEFF 		bl	_dbg_check_lock
 160              		.loc 4 351 0
 161 000e 00BF     		nop
 162 0010 08BD     		pop	{r3, pc}
 163              		.cfi_endproc
 164              	.LFE156:
 165              		.size	chSysLock, .-chSysLock
 166 0012 00BF     		.section	.text.chSysUnlock,"ax",%progbits
 167              		.align	1
 168              		.p2align 4,,15
 169              		.syntax unified
 170              		.thumb
 171              		.thumb_func
ARM GAS  /tmp/ccP4CAJn.s 			page 4


 172              		.fpu fpv4-sp-d16
 173              		.type	chSysUnlock, %function
 174              	chSysUnlock:
 175              	.LFB157:
 176              		.loc 4 358 0
 177              		.cfi_startproc
 178              		@ args = 0, pretend = 0, frame = 0
 179              		@ frame_needed = 0, uses_anonymous_args = 0
 180 0000 08B5     		push	{r3, lr}
 181              		.cfi_def_cfa_offset 8
 182              		.cfi_offset 3, -8
 183              		.cfi_offset 14, -4
 184              		.loc 4 360 0
 185 0002 FFF7FEFF 		bl	_dbg_check_unlock
 186              		.loc 4 361 0
 187 0006 FFF7FEFF 		bl	_stats_stop_measure_crit_thd
 188              		.loc 4 367 0
 189 000a 0A4B     		ldr	r3, .L7
 190 000c 1B68     		ldr	r3, [r3]
 191 000e 094A     		ldr	r2, .L7
 192 0010 9342     		cmp	r3, r2
 193 0012 0AD0     		beq	.L6
 194              		.loc 4 367 0 is_stmt 0 discriminator 2
 195 0014 074B     		ldr	r3, .L7
 196 0016 9B69     		ldr	r3, [r3, #24]
 197 0018 9A68     		ldr	r2, [r3, #8]
 198 001a 064B     		ldr	r3, .L7
 199 001c 1B68     		ldr	r3, [r3]
 200 001e 9B68     		ldr	r3, [r3, #8]
 201 0020 9A42     		cmp	r2, r3
 202 0022 02D2     		bcs	.L6
 203              		.loc 4 367 0 discriminator 3
 204 0024 0448     		ldr	r0, .L7+4
 205 0026 FFF7FEFF 		bl	chSysHalt
 206              	.L6:
 207              		.loc 4 371 0 is_stmt 1
 208 002a FFF7FEFF 		bl	port_unlock
 209              		.loc 4 372 0
 210 002e 00BF     		nop
 211 0030 08BD     		pop	{r3, pc}
 212              	.L8:
 213 0032 00BF     		.align	2
 214              	.L7:
 215 0034 00000000 		.word	ch
 216 0038 00000000 		.word	__func__.7157
 217              		.cfi_endproc
 218              	.LFE157:
 219              		.size	chSysUnlock, .-chSysUnlock
 220              		.section	.text.chThdQueueObjectInit,"ax",%progbits
 221              		.align	1
 222              		.p2align 4,,15
 223              		.syntax unified
 224              		.thumb
 225              		.thumb_func
 226              		.fpu fpv4-sp-d16
 227              		.type	chThdQueueObjectInit, %function
 228              	chThdQueueObjectInit:
ARM GAS  /tmp/ccP4CAJn.s 			page 5


 229              	.LFB184:
 230              		.file 5 "../ChibiOS/os/rt/include/chthreads.h"
 231              		.loc 5 278 0
 232              		.cfi_startproc
 233              		@ args = 0, pretend = 0, frame = 8
 234              		@ frame_needed = 0, uses_anonymous_args = 0
 235 0000 00B5     		push	{lr}
 236              		.cfi_def_cfa_offset 4
 237              		.cfi_offset 14, -4
 238 0002 83B0     		sub	sp, sp, #12
 239              		.cfi_def_cfa_offset 16
 240 0004 0190     		str	r0, [sp, #4]
 241              		.loc 5 280 0
 242 0006 0198     		ldr	r0, [sp, #4]
 243 0008 FFF7FEFF 		bl	queue_init
 244              		.loc 5 281 0
 245 000c 00BF     		nop
 246 000e 03B0     		add	sp, sp, #12
 247              		.cfi_def_cfa_offset 4
 248              		@ sp needed
 249 0010 5DF804FB 		ldr	pc, [sp], #4
 250              		.cfi_endproc
 251              	.LFE184:
 252              		.size	chThdQueueObjectInit, .-chThdQueueObjectInit
 253              		.section	.text.chIQIsEmptyI,"ax",%progbits
 254              		.align	1
 255              		.p2align 4,,15
 256              		.syntax unified
 257              		.thumb
 258              		.thumb_func
 259              		.fpu fpv4-sp-d16
 260              		.type	chIQIsEmptyI, %function
 261              	chIQIsEmptyI:
 262              	.LFB223:
 263              		.file 6 "../ChibiOS/os/rt/include/chqueues.h"
 264              		.loc 6 303 0
 265              		.cfi_startproc
 266              		@ args = 0, pretend = 0, frame = 8
 267              		@ frame_needed = 0, uses_anonymous_args = 0
 268 0000 00B5     		push	{lr}
 269              		.cfi_def_cfa_offset 4
 270              		.cfi_offset 14, -4
 271 0002 83B0     		sub	sp, sp, #12
 272              		.cfi_def_cfa_offset 16
 273 0004 0190     		str	r0, [sp, #4]
 274              		.loc 6 305 0
 275 0006 FFF7FEFF 		bl	chDbgCheckClassI
 276              		.loc 6 307 0
 277 000a 019B     		ldr	r3, [sp, #4]
 278 000c 9B68     		ldr	r3, [r3, #8]
 279 000e 002B     		cmp	r3, #0
 280 0010 0CBF     		ite	eq
 281 0012 0123     		moveq	r3, #1
 282 0014 0023     		movne	r3, #0
 283 0016 DBB2     		uxtb	r3, r3
 284              		.loc 6 308 0
 285 0018 1846     		mov	r0, r3
ARM GAS  /tmp/ccP4CAJn.s 			page 6


 286 001a 03B0     		add	sp, sp, #12
 287              		.cfi_def_cfa_offset 4
 288              		@ sp needed
 289 001c 5DF804FB 		ldr	pc, [sp], #4
 290              		.cfi_endproc
 291              	.LFE223:
 292              		.size	chIQIsEmptyI, .-chIQIsEmptyI
 293              		.section	.text.chIQIsFullI,"ax",%progbits
 294              		.align	1
 295              		.p2align 4,,15
 296              		.syntax unified
 297              		.thumb
 298              		.thumb_func
 299              		.fpu fpv4-sp-d16
 300              		.type	chIQIsFullI, %function
 301              	chIQIsFullI:
 302              	.LFB224:
 303              		.loc 6 320 0
 304              		.cfi_startproc
 305              		@ args = 0, pretend = 0, frame = 8
 306              		@ frame_needed = 0, uses_anonymous_args = 0
 307 0000 00B5     		push	{lr}
 308              		.cfi_def_cfa_offset 4
 309              		.cfi_offset 14, -4
 310 0002 83B0     		sub	sp, sp, #12
 311              		.cfi_def_cfa_offset 16
 312 0004 0190     		str	r0, [sp, #4]
 313              		.loc 6 322 0
 314 0006 FFF7FEFF 		bl	chDbgCheckClassI
 315              		.loc 6 325 0
 316 000a 019B     		ldr	r3, [sp, #4]
 317 000c 5A69     		ldr	r2, [r3, #20]
 318 000e 019B     		ldr	r3, [sp, #4]
 319 0010 9B69     		ldr	r3, [r3, #24]
 320 0012 9A42     		cmp	r2, r3
 321 0014 05D1     		bne	.L13
 322              		.loc 6 325 0 is_stmt 0 discriminator 1
 323 0016 019B     		ldr	r3, [sp, #4]
 324 0018 9B68     		ldr	r3, [r3, #8]
 325 001a 002B     		cmp	r3, #0
 326 001c 01D0     		beq	.L13
 327              		.loc 6 325 0 discriminator 3
 328 001e 0123     		movs	r3, #1
 329 0020 00E0     		b	.L14
 330              	.L13:
 331              		.loc 6 325 0 discriminator 4
 332 0022 0023     		movs	r3, #0
 333              	.L14:
 334              		.loc 6 325 0 discriminator 6
 335 0024 03F00103 		and	r3, r3, #1
 336 0028 DBB2     		uxtb	r3, r3
 337              		.loc 6 327 0 is_stmt 1 discriminator 6
 338 002a 1846     		mov	r0, r3
 339 002c 03B0     		add	sp, sp, #12
 340              		.cfi_def_cfa_offset 4
 341              		@ sp needed
 342 002e 5DF804FB 		ldr	pc, [sp], #4
ARM GAS  /tmp/ccP4CAJn.s 			page 7


 343              		.cfi_endproc
 344              	.LFE224:
 345              		.size	chIQIsFullI, .-chIQIsFullI
 346 0032 00BF     		.section	.text.chOQIsEmptyI,"ax",%progbits
 347              		.align	1
 348              		.p2align 4,,15
 349              		.syntax unified
 350              		.thumb
 351              		.thumb_func
 352              		.fpu fpv4-sp-d16
 353              		.type	chOQIsEmptyI, %function
 354              	chOQIsEmptyI:
 355              	.LFB228:
 356              		.loc 6 388 0
 357              		.cfi_startproc
 358              		@ args = 0, pretend = 0, frame = 8
 359              		@ frame_needed = 0, uses_anonymous_args = 0
 360 0000 00B5     		push	{lr}
 361              		.cfi_def_cfa_offset 4
 362              		.cfi_offset 14, -4
 363 0002 83B0     		sub	sp, sp, #12
 364              		.cfi_def_cfa_offset 16
 365 0004 0190     		str	r0, [sp, #4]
 366              		.loc 6 390 0
 367 0006 FFF7FEFF 		bl	chDbgCheckClassI
 368              		.loc 6 393 0
 369 000a 019B     		ldr	r3, [sp, #4]
 370 000c 5A69     		ldr	r2, [r3, #20]
 371 000e 019B     		ldr	r3, [sp, #4]
 372 0010 9B69     		ldr	r3, [r3, #24]
 373 0012 9A42     		cmp	r2, r3
 374 0014 05D1     		bne	.L17
 375              		.loc 6 393 0 is_stmt 0 discriminator 1
 376 0016 019B     		ldr	r3, [sp, #4]
 377 0018 9B68     		ldr	r3, [r3, #8]
 378 001a 002B     		cmp	r3, #0
 379 001c 01D0     		beq	.L17
 380              		.loc 6 393 0 discriminator 3
 381 001e 0123     		movs	r3, #1
 382 0020 00E0     		b	.L18
 383              	.L17:
 384              		.loc 6 393 0 discriminator 4
 385 0022 0023     		movs	r3, #0
 386              	.L18:
 387              		.loc 6 393 0 discriminator 6
 388 0024 03F00103 		and	r3, r3, #1
 389 0028 DBB2     		uxtb	r3, r3
 390              		.loc 6 395 0 is_stmt 1 discriminator 6
 391 002a 1846     		mov	r0, r3
 392 002c 03B0     		add	sp, sp, #12
 393              		.cfi_def_cfa_offset 4
 394              		@ sp needed
 395 002e 5DF804FB 		ldr	pc, [sp], #4
 396              		.cfi_endproc
 397              	.LFE228:
 398              		.size	chOQIsEmptyI, .-chOQIsEmptyI
 399 0032 00BF     		.section	.text.chOQIsFullI,"ax",%progbits
ARM GAS  /tmp/ccP4CAJn.s 			page 8


 400              		.align	1
 401              		.p2align 4,,15
 402              		.syntax unified
 403              		.thumb
 404              		.thumb_func
 405              		.fpu fpv4-sp-d16
 406              		.type	chOQIsFullI, %function
 407              	chOQIsFullI:
 408              	.LFB229:
 409              		.loc 6 407 0
 410              		.cfi_startproc
 411              		@ args = 0, pretend = 0, frame = 8
 412              		@ frame_needed = 0, uses_anonymous_args = 0
 413 0000 00B5     		push	{lr}
 414              		.cfi_def_cfa_offset 4
 415              		.cfi_offset 14, -4
 416 0002 83B0     		sub	sp, sp, #12
 417              		.cfi_def_cfa_offset 16
 418 0004 0190     		str	r0, [sp, #4]
 419              		.loc 6 409 0
 420 0006 FFF7FEFF 		bl	chDbgCheckClassI
 421              		.loc 6 411 0
 422 000a 019B     		ldr	r3, [sp, #4]
 423 000c 9B68     		ldr	r3, [r3, #8]
 424 000e 002B     		cmp	r3, #0
 425 0010 0CBF     		ite	eq
 426 0012 0123     		moveq	r3, #1
 427 0014 0023     		movne	r3, #0
 428 0016 DBB2     		uxtb	r3, r3
 429              		.loc 6 412 0
 430 0018 1846     		mov	r0, r3
 431 001a 03B0     		add	sp, sp, #12
 432              		.cfi_def_cfa_offset 4
 433              		@ sp needed
 434 001c 5DF804FB 		ldr	pc, [sp], #4
 435              		.cfi_endproc
 436              	.LFE229:
 437              		.size	chOQIsFullI, .-chOQIsFullI
 438              		.section	.text.chIQObjectInit,"ax",%progbits
 439              		.align	1
 440              		.p2align 4,,15
 441              		.global	chIQObjectInit
 442              		.syntax unified
 443              		.thumb
 444              		.thumb_func
 445              		.fpu fpv4-sp-d16
 446              		.type	chIQObjectInit, %function
 447              	chIQObjectInit:
 448              	.LFB231:
 449              		.file 7 "../ChibiOS/os/rt/src/chqueues.c"
 450              		.loc 7 88 0
 451              		.cfi_startproc
 452              		@ args = 4, pretend = 0, frame = 16
 453              		@ frame_needed = 0, uses_anonymous_args = 0
 454 0000 00B5     		push	{lr}
 455              		.cfi_def_cfa_offset 4
 456              		.cfi_offset 14, -4
ARM GAS  /tmp/ccP4CAJn.s 			page 9


 457 0002 85B0     		sub	sp, sp, #20
 458              		.cfi_def_cfa_offset 24
 459 0004 0390     		str	r0, [sp, #12]
 460 0006 0291     		str	r1, [sp, #8]
 461 0008 0192     		str	r2, [sp, #4]
 462 000a 0093     		str	r3, [sp]
 463              		.loc 7 90 0
 464 000c 039B     		ldr	r3, [sp, #12]
 465 000e 1846     		mov	r0, r3
 466 0010 FFF7FEFF 		bl	chThdQueueObjectInit
 467              		.loc 7 91 0
 468 0014 039B     		ldr	r3, [sp, #12]
 469 0016 0022     		movs	r2, #0
 470 0018 9A60     		str	r2, [r3, #8]
 471              		.loc 7 92 0
 472 001a 039B     		ldr	r3, [sp, #12]
 473 001c 029A     		ldr	r2, [sp, #8]
 474 001e DA60     		str	r2, [r3, #12]
 475              		.loc 7 93 0
 476 0020 039B     		ldr	r3, [sp, #12]
 477 0022 029A     		ldr	r2, [sp, #8]
 478 0024 9A61     		str	r2, [r3, #24]
 479              		.loc 7 94 0
 480 0026 039B     		ldr	r3, [sp, #12]
 481 0028 029A     		ldr	r2, [sp, #8]
 482 002a 5A61     		str	r2, [r3, #20]
 483              		.loc 7 95 0
 484 002c 029A     		ldr	r2, [sp, #8]
 485 002e 019B     		ldr	r3, [sp, #4]
 486 0030 1A44     		add	r2, r2, r3
 487 0032 039B     		ldr	r3, [sp, #12]
 488 0034 1A61     		str	r2, [r3, #16]
 489              		.loc 7 96 0
 490 0036 039B     		ldr	r3, [sp, #12]
 491 0038 009A     		ldr	r2, [sp]
 492 003a DA61     		str	r2, [r3, #28]
 493              		.loc 7 97 0
 494 003c 039B     		ldr	r3, [sp, #12]
 495 003e 069A     		ldr	r2, [sp, #24]
 496 0040 1A62     		str	r2, [r3, #32]
 497              		.loc 7 98 0
 498 0042 00BF     		nop
 499 0044 05B0     		add	sp, sp, #20
 500              		.cfi_def_cfa_offset 4
 501              		@ sp needed
 502 0046 5DF804FB 		ldr	pc, [sp], #4
 503              		.cfi_endproc
 504              	.LFE231:
 505              		.size	chIQObjectInit, .-chIQObjectInit
 506 004a 00BF     		.section	.text.chIQResetI,"ax",%progbits
 507              		.align	1
 508              		.p2align 4,,15
 509              		.global	chIQResetI
 510              		.syntax unified
 511              		.thumb
 512              		.thumb_func
 513              		.fpu fpv4-sp-d16
ARM GAS  /tmp/ccP4CAJn.s 			page 10


 514              		.type	chIQResetI, %function
 515              	chIQResetI:
 516              	.LFB232:
 517              		.loc 7 111 0
 518              		.cfi_startproc
 519              		@ args = 0, pretend = 0, frame = 8
 520              		@ frame_needed = 0, uses_anonymous_args = 0
 521 0000 00B5     		push	{lr}
 522              		.cfi_def_cfa_offset 4
 523              		.cfi_offset 14, -4
 524 0002 83B0     		sub	sp, sp, #12
 525              		.cfi_def_cfa_offset 16
 526 0004 0190     		str	r0, [sp, #4]
 527              		.loc 7 113 0
 528 0006 FFF7FEFF 		bl	chDbgCheckClassI
 529              		.loc 7 115 0
 530 000a 019B     		ldr	r3, [sp, #4]
 531 000c DA68     		ldr	r2, [r3, #12]
 532 000e 019B     		ldr	r3, [sp, #4]
 533 0010 9A61     		str	r2, [r3, #24]
 534              		.loc 7 116 0
 535 0012 019B     		ldr	r3, [sp, #4]
 536 0014 DA68     		ldr	r2, [r3, #12]
 537 0016 019B     		ldr	r3, [sp, #4]
 538 0018 5A61     		str	r2, [r3, #20]
 539              		.loc 7 117 0
 540 001a 019B     		ldr	r3, [sp, #4]
 541 001c 0022     		movs	r2, #0
 542 001e 9A60     		str	r2, [r3, #8]
 543              		.loc 7 118 0
 544 0020 019B     		ldr	r3, [sp, #4]
 545 0022 6FF00101 		mvn	r1, #1
 546 0026 1846     		mov	r0, r3
 547 0028 FFF7FEFF 		bl	chThdDequeueAllI
 548              		.loc 7 119 0
 549 002c 00BF     		nop
 550 002e 03B0     		add	sp, sp, #12
 551              		.cfi_def_cfa_offset 4
 552              		@ sp needed
 553 0030 5DF804FB 		ldr	pc, [sp], #4
 554              		.cfi_endproc
 555              	.LFE232:
 556              		.size	chIQResetI, .-chIQResetI
 557              		.section	.text.chIQPutI,"ax",%progbits
 558              		.align	1
 559              		.p2align 4,,15
 560              		.global	chIQPutI
 561              		.syntax unified
 562              		.thumb
 563              		.thumb_func
 564              		.fpu fpv4-sp-d16
 565              		.type	chIQPutI, %function
 566              	chIQPutI:
 567              	.LFB233:
 568              		.loc 7 134 0
 569              		.cfi_startproc
 570              		@ args = 0, pretend = 0, frame = 8
ARM GAS  /tmp/ccP4CAJn.s 			page 11


 571              		@ frame_needed = 0, uses_anonymous_args = 0
 572 0000 00B5     		push	{lr}
 573              		.cfi_def_cfa_offset 4
 574              		.cfi_offset 14, -4
 575 0002 83B0     		sub	sp, sp, #12
 576              		.cfi_def_cfa_offset 16
 577 0004 0190     		str	r0, [sp, #4]
 578 0006 0B46     		mov	r3, r1
 579 0008 8DF80330 		strb	r3, [sp, #3]
 580              		.loc 7 136 0
 581 000c FFF7FEFF 		bl	chDbgCheckClassI
 582              		.loc 7 138 0
 583 0010 0198     		ldr	r0, [sp, #4]
 584 0012 FFF7FEFF 		bl	chIQIsFullI
 585 0016 0346     		mov	r3, r0
 586 0018 002B     		cmp	r3, #0
 587 001a 02D0     		beq	.L25
 588              		.loc 7 139 0
 589 001c 6FF00303 		mvn	r3, #3
 590 0020 1CE0     		b	.L26
 591              	.L25:
 592              		.loc 7 142 0
 593 0022 019B     		ldr	r3, [sp, #4]
 594 0024 9B68     		ldr	r3, [r3, #8]
 595 0026 5A1C     		adds	r2, r3, #1
 596 0028 019B     		ldr	r3, [sp, #4]
 597 002a 9A60     		str	r2, [r3, #8]
 598              		.loc 7 143 0
 599 002c 019B     		ldr	r3, [sp, #4]
 600 002e 5B69     		ldr	r3, [r3, #20]
 601 0030 591C     		adds	r1, r3, #1
 602 0032 019A     		ldr	r2, [sp, #4]
 603 0034 5161     		str	r1, [r2, #20]
 604 0036 9DF80320 		ldrb	r2, [sp, #3]
 605 003a 1A70     		strb	r2, [r3]
 606              		.loc 7 144 0
 607 003c 019B     		ldr	r3, [sp, #4]
 608 003e 5A69     		ldr	r2, [r3, #20]
 609 0040 019B     		ldr	r3, [sp, #4]
 610 0042 1B69     		ldr	r3, [r3, #16]
 611 0044 9A42     		cmp	r2, r3
 612 0046 03D3     		bcc	.L27
 613              		.loc 7 145 0
 614 0048 019B     		ldr	r3, [sp, #4]
 615 004a DA68     		ldr	r2, [r3, #12]
 616 004c 019B     		ldr	r3, [sp, #4]
 617 004e 5A61     		str	r2, [r3, #20]
 618              	.L27:
 619              		.loc 7 148 0
 620 0050 019B     		ldr	r3, [sp, #4]
 621 0052 0021     		movs	r1, #0
 622 0054 1846     		mov	r0, r3
 623 0056 FFF7FEFF 		bl	chThdDequeueNextI
 624              		.loc 7 150 0
 625 005a 0023     		movs	r3, #0
 626              	.L26:
 627              		.loc 7 151 0
ARM GAS  /tmp/ccP4CAJn.s 			page 12


 628 005c 1846     		mov	r0, r3
 629 005e 03B0     		add	sp, sp, #12
 630              		.cfi_def_cfa_offset 4
 631              		@ sp needed
 632 0060 5DF804FB 		ldr	pc, [sp], #4
 633              		.cfi_endproc
 634              	.LFE233:
 635              		.size	chIQPutI, .-chIQPutI
 636              		.section	.text.chIQGetTimeout,"ax",%progbits
 637              		.align	1
 638              		.p2align 4,,15
 639              		.global	chIQGetTimeout
 640              		.syntax unified
 641              		.thumb
 642              		.thumb_func
 643              		.fpu fpv4-sp-d16
 644              		.type	chIQGetTimeout, %function
 645              	chIQGetTimeout:
 646              	.LFB234:
 647              		.loc 7 173 0
 648              		.cfi_startproc
 649              		@ args = 0, pretend = 0, frame = 16
 650              		@ frame_needed = 0, uses_anonymous_args = 0
 651 0000 00B5     		push	{lr}
 652              		.cfi_def_cfa_offset 4
 653              		.cfi_offset 14, -4
 654 0002 85B0     		sub	sp, sp, #20
 655              		.cfi_def_cfa_offset 24
 656 0004 0190     		str	r0, [sp, #4]
 657 0006 0091     		str	r1, [sp]
 658              		.loc 7 176 0
 659 0008 FFF7FEFF 		bl	chSysLock
 660              		.loc 7 177 0
 661 000c 019B     		ldr	r3, [sp, #4]
 662 000e DB69     		ldr	r3, [r3, #28]
 663 0010 002B     		cmp	r3, #0
 664 0012 11D0     		beq	.L30
 665              		.loc 7 178 0
 666 0014 019B     		ldr	r3, [sp, #4]
 667 0016 DB69     		ldr	r3, [r3, #28]
 668 0018 0198     		ldr	r0, [sp, #4]
 669 001a 9847     		blx	r3
 670              	.LVL0:
 671              		.loc 7 181 0
 672 001c 0CE0     		b	.L30
 673              	.L32:
 674              	.LBB10:
 675              		.loc 7 182 0
 676 001e 019B     		ldr	r3, [sp, #4]
 677 0020 0099     		ldr	r1, [sp]
 678 0022 1846     		mov	r0, r3
 679 0024 FFF7FEFF 		bl	chThdEnqueueTimeoutS
 680 0028 0390     		str	r0, [sp, #12]
 681              		.loc 7 183 0
 682 002a 039B     		ldr	r3, [sp, #12]
 683 002c 002B     		cmp	r3, #0
 684 002e 03DA     		bge	.L30
ARM GAS  /tmp/ccP4CAJn.s 			page 13


 685              		.loc 7 184 0
 686 0030 FFF7FEFF 		bl	chSysUnlock
 687              		.loc 7 185 0
 688 0034 039B     		ldr	r3, [sp, #12]
 689 0036 20E0     		b	.L31
 690              	.L30:
 691              	.LBE10:
 692              		.loc 7 181 0
 693 0038 0198     		ldr	r0, [sp, #4]
 694 003a FFF7FEFF 		bl	chIQIsEmptyI
 695 003e 0346     		mov	r3, r0
 696 0040 002B     		cmp	r3, #0
 697 0042 ECD1     		bne	.L32
 698              		.loc 7 189 0
 699 0044 019B     		ldr	r3, [sp, #4]
 700 0046 9B68     		ldr	r3, [r3, #8]
 701 0048 5A1E     		subs	r2, r3, #1
 702 004a 019B     		ldr	r3, [sp, #4]
 703 004c 9A60     		str	r2, [r3, #8]
 704              		.loc 7 190 0
 705 004e 019B     		ldr	r3, [sp, #4]
 706 0050 9B69     		ldr	r3, [r3, #24]
 707 0052 591C     		adds	r1, r3, #1
 708 0054 019A     		ldr	r2, [sp, #4]
 709 0056 9161     		str	r1, [r2, #24]
 710 0058 1B78     		ldrb	r3, [r3]
 711 005a 8DF80B30 		strb	r3, [sp, #11]
 712              		.loc 7 191 0
 713 005e 019B     		ldr	r3, [sp, #4]
 714 0060 9A69     		ldr	r2, [r3, #24]
 715 0062 019B     		ldr	r3, [sp, #4]
 716 0064 1B69     		ldr	r3, [r3, #16]
 717 0066 9A42     		cmp	r2, r3
 718 0068 03D3     		bcc	.L33
 719              		.loc 7 192 0
 720 006a 019B     		ldr	r3, [sp, #4]
 721 006c DA68     		ldr	r2, [r3, #12]
 722 006e 019B     		ldr	r3, [sp, #4]
 723 0070 9A61     		str	r2, [r3, #24]
 724              	.L33:
 725              		.loc 7 194 0
 726 0072 FFF7FEFF 		bl	chSysUnlock
 727              		.loc 7 196 0
 728 0076 9DF80B30 		ldrb	r3, [sp, #11]	@ zero_extendqisi2
 729              	.L31:
 730              		.loc 7 197 0
 731 007a 1846     		mov	r0, r3
 732 007c 05B0     		add	sp, sp, #20
 733              		.cfi_def_cfa_offset 4
 734              		@ sp needed
 735 007e 5DF804FB 		ldr	pc, [sp], #4
 736              		.cfi_endproc
 737              	.LFE234:
 738              		.size	chIQGetTimeout, .-chIQGetTimeout
 739 0082 00BF     		.section	.text.chIQReadTimeout,"ax",%progbits
 740              		.align	1
 741              		.p2align 4,,15
ARM GAS  /tmp/ccP4CAJn.s 			page 14


 742              		.global	chIQReadTimeout
 743              		.syntax unified
 744              		.thumb
 745              		.thumb_func
 746              		.fpu fpv4-sp-d16
 747              		.type	chIQReadTimeout, %function
 748              	chIQReadTimeout:
 749              	.LFB235:
 750              		.loc 7 224 0
 751              		.cfi_startproc
 752              		@ args = 0, pretend = 0, frame = 24
 753              		@ frame_needed = 0, uses_anonymous_args = 0
 754 0000 00B5     		push	{lr}
 755              		.cfi_def_cfa_offset 4
 756              		.cfi_offset 14, -4
 757 0002 87B0     		sub	sp, sp, #28
 758              		.cfi_def_cfa_offset 32
 759 0004 0390     		str	r0, [sp, #12]
 760 0006 0291     		str	r1, [sp, #8]
 761 0008 0192     		str	r2, [sp, #4]
 762 000a 0093     		str	r3, [sp]
 763              		.loc 7 225 0
 764 000c 039B     		ldr	r3, [sp, #12]
 765 000e DB69     		ldr	r3, [r3, #28]
 766 0010 0493     		str	r3, [sp, #16]
 767              		.loc 7 226 0
 768 0012 0023     		movs	r3, #0
 769 0014 0593     		str	r3, [sp, #20]
 770              		.loc 7 228 0
 771 0016 019B     		ldr	r3, [sp, #4]
 772 0018 002B     		cmp	r3, #0
 773 001a 02D1     		bne	.L35
 774              		.loc 7 228 0 is_stmt 0 discriminator 2
 775 001c 2548     		ldr	r0, .L43
 776 001e FFF7FEFF 		bl	chSysHalt
 777              	.L35:
 778              		.loc 7 230 0 is_stmt 1
 779 0022 FFF7FEFF 		bl	chSysLock
 780              	.L42:
 781              		.loc 7 232 0
 782 0026 049B     		ldr	r3, [sp, #16]
 783 0028 002B     		cmp	r3, #0
 784 002a 0FD0     		beq	.L37
 785              		.loc 7 233 0
 786 002c 049B     		ldr	r3, [sp, #16]
 787 002e 0398     		ldr	r0, [sp, #12]
 788 0030 9847     		blx	r3
 789              	.LVL1:
 790              		.loc 7 236 0
 791 0032 0BE0     		b	.L37
 792              	.L39:
 793              		.loc 7 237 0
 794 0034 039B     		ldr	r3, [sp, #12]
 795 0036 0099     		ldr	r1, [sp]
 796 0038 1846     		mov	r0, r3
 797 003a FFF7FEFF 		bl	chThdEnqueueTimeoutS
 798 003e 0346     		mov	r3, r0
ARM GAS  /tmp/ccP4CAJn.s 			page 15


 799 0040 002B     		cmp	r3, #0
 800 0042 03D0     		beq	.L37
 801              		.loc 7 238 0
 802 0044 FFF7FEFF 		bl	chSysUnlock
 803              		.loc 7 239 0
 804 0048 059B     		ldr	r3, [sp, #20]
 805 004a 2EE0     		b	.L38
 806              	.L37:
 807              		.loc 7 236 0
 808 004c 0398     		ldr	r0, [sp, #12]
 809 004e FFF7FEFF 		bl	chIQIsEmptyI
 810 0052 0346     		mov	r3, r0
 811 0054 002B     		cmp	r3, #0
 812 0056 EDD1     		bne	.L39
 813              		.loc 7 243 0
 814 0058 039B     		ldr	r3, [sp, #12]
 815 005a 9B68     		ldr	r3, [r3, #8]
 816 005c 5A1E     		subs	r2, r3, #1
 817 005e 039B     		ldr	r3, [sp, #12]
 818 0060 9A60     		str	r2, [r3, #8]
 819              		.loc 7 244 0
 820 0062 029B     		ldr	r3, [sp, #8]
 821 0064 5A1C     		adds	r2, r3, #1
 822 0066 0292     		str	r2, [sp, #8]
 823 0068 039A     		ldr	r2, [sp, #12]
 824 006a 9269     		ldr	r2, [r2, #24]
 825 006c 501C     		adds	r0, r2, #1
 826 006e 0399     		ldr	r1, [sp, #12]
 827 0070 8861     		str	r0, [r1, #24]
 828 0072 1278     		ldrb	r2, [r2]	@ zero_extendqisi2
 829 0074 1A70     		strb	r2, [r3]
 830              		.loc 7 245 0
 831 0076 039B     		ldr	r3, [sp, #12]
 832 0078 9A69     		ldr	r2, [r3, #24]
 833 007a 039B     		ldr	r3, [sp, #12]
 834 007c 1B69     		ldr	r3, [r3, #16]
 835 007e 9A42     		cmp	r2, r3
 836 0080 03D3     		bcc	.L40
 837              		.loc 7 246 0
 838 0082 039B     		ldr	r3, [sp, #12]
 839 0084 DA68     		ldr	r2, [r3, #12]
 840 0086 039B     		ldr	r3, [sp, #12]
 841 0088 9A61     		str	r2, [r3, #24]
 842              	.L40:
 843              		.loc 7 248 0
 844 008a FFF7FEFF 		bl	chSysUnlock
 845              		.loc 7 250 0
 846 008e 059B     		ldr	r3, [sp, #20]
 847 0090 0133     		adds	r3, r3, #1
 848 0092 0593     		str	r3, [sp, #20]
 849              		.loc 7 251 0
 850 0094 019B     		ldr	r3, [sp, #4]
 851 0096 013B     		subs	r3, r3, #1
 852 0098 0193     		str	r3, [sp, #4]
 853 009a 019B     		ldr	r3, [sp, #4]
 854 009c 002B     		cmp	r3, #0
 855 009e 01D1     		bne	.L41
ARM GAS  /tmp/ccP4CAJn.s 			page 16


 856              		.loc 7 252 0
 857 00a0 059B     		ldr	r3, [sp, #20]
 858 00a2 02E0     		b	.L38
 859              	.L41:
 860              		.loc 7 255 0
 861 00a4 FFF7FEFF 		bl	chSysLock
 862              		.loc 7 232 0
 863 00a8 BDE7     		b	.L42
 864              	.L38:
 865              		.loc 7 257 0
 866 00aa 1846     		mov	r0, r3
 867 00ac 07B0     		add	sp, sp, #28
 868              		.cfi_def_cfa_offset 4
 869              		@ sp needed
 870 00ae 5DF804FB 		ldr	pc, [sp], #4
 871              	.L44:
 872 00b2 00BF     		.align	2
 873              	.L43:
 874 00b4 00000000 		.word	__func__.7885
 875              		.cfi_endproc
 876              	.LFE235:
 877              		.size	chIQReadTimeout, .-chIQReadTimeout
 878              		.section	.text.chOQObjectInit,"ax",%progbits
 879              		.align	1
 880              		.p2align 4,,15
 881              		.global	chOQObjectInit
 882              		.syntax unified
 883              		.thumb
 884              		.thumb_func
 885              		.fpu fpv4-sp-d16
 886              		.type	chOQObjectInit, %function
 887              	chOQObjectInit:
 888              	.LFB236:
 889              		.loc 7 276 0
 890              		.cfi_startproc
 891              		@ args = 4, pretend = 0, frame = 16
 892              		@ frame_needed = 0, uses_anonymous_args = 0
 893 0000 00B5     		push	{lr}
 894              		.cfi_def_cfa_offset 4
 895              		.cfi_offset 14, -4
 896 0002 85B0     		sub	sp, sp, #20
 897              		.cfi_def_cfa_offset 24
 898 0004 0390     		str	r0, [sp, #12]
 899 0006 0291     		str	r1, [sp, #8]
 900 0008 0192     		str	r2, [sp, #4]
 901 000a 0093     		str	r3, [sp]
 902              		.loc 7 278 0
 903 000c 039B     		ldr	r3, [sp, #12]
 904 000e 1846     		mov	r0, r3
 905 0010 FFF7FEFF 		bl	chThdQueueObjectInit
 906              		.loc 7 279 0
 907 0014 039B     		ldr	r3, [sp, #12]
 908 0016 019A     		ldr	r2, [sp, #4]
 909 0018 9A60     		str	r2, [r3, #8]
 910              		.loc 7 280 0
 911 001a 039B     		ldr	r3, [sp, #12]
 912 001c 029A     		ldr	r2, [sp, #8]
ARM GAS  /tmp/ccP4CAJn.s 			page 17


 913 001e DA60     		str	r2, [r3, #12]
 914              		.loc 7 281 0
 915 0020 039B     		ldr	r3, [sp, #12]
 916 0022 029A     		ldr	r2, [sp, #8]
 917 0024 9A61     		str	r2, [r3, #24]
 918              		.loc 7 282 0
 919 0026 039B     		ldr	r3, [sp, #12]
 920 0028 029A     		ldr	r2, [sp, #8]
 921 002a 5A61     		str	r2, [r3, #20]
 922              		.loc 7 283 0
 923 002c 029A     		ldr	r2, [sp, #8]
 924 002e 019B     		ldr	r3, [sp, #4]
 925 0030 1A44     		add	r2, r2, r3
 926 0032 039B     		ldr	r3, [sp, #12]
 927 0034 1A61     		str	r2, [r3, #16]
 928              		.loc 7 284 0
 929 0036 039B     		ldr	r3, [sp, #12]
 930 0038 009A     		ldr	r2, [sp]
 931 003a DA61     		str	r2, [r3, #28]
 932              		.loc 7 285 0
 933 003c 039B     		ldr	r3, [sp, #12]
 934 003e 069A     		ldr	r2, [sp, #24]
 935 0040 1A62     		str	r2, [r3, #32]
 936              		.loc 7 286 0
 937 0042 00BF     		nop
 938 0044 05B0     		add	sp, sp, #20
 939              		.cfi_def_cfa_offset 4
 940              		@ sp needed
 941 0046 5DF804FB 		ldr	pc, [sp], #4
 942              		.cfi_endproc
 943              	.LFE236:
 944              		.size	chOQObjectInit, .-chOQObjectInit
 945 004a 00BF     		.section	.text.chOQResetI,"ax",%progbits
 946              		.align	1
 947              		.p2align 4,,15
 948              		.global	chOQResetI
 949              		.syntax unified
 950              		.thumb
 951              		.thumb_func
 952              		.fpu fpv4-sp-d16
 953              		.type	chOQResetI, %function
 954              	chOQResetI:
 955              	.LFB237:
 956              		.loc 7 299 0
 957              		.cfi_startproc
 958              		@ args = 0, pretend = 0, frame = 8
 959              		@ frame_needed = 0, uses_anonymous_args = 0
 960 0000 00B5     		push	{lr}
 961              		.cfi_def_cfa_offset 4
 962              		.cfi_offset 14, -4
 963 0002 83B0     		sub	sp, sp, #12
 964              		.cfi_def_cfa_offset 16
 965 0004 0190     		str	r0, [sp, #4]
 966              		.loc 7 301 0
 967 0006 FFF7FEFF 		bl	chDbgCheckClassI
 968              		.loc 7 303 0
 969 000a 019B     		ldr	r3, [sp, #4]
ARM GAS  /tmp/ccP4CAJn.s 			page 18


 970 000c DA68     		ldr	r2, [r3, #12]
 971 000e 019B     		ldr	r3, [sp, #4]
 972 0010 9A61     		str	r2, [r3, #24]
 973              		.loc 7 304 0
 974 0012 019B     		ldr	r3, [sp, #4]
 975 0014 DA68     		ldr	r2, [r3, #12]
 976 0016 019B     		ldr	r3, [sp, #4]
 977 0018 5A61     		str	r2, [r3, #20]
 978              		.loc 7 305 0
 979 001a 019B     		ldr	r3, [sp, #4]
 980 001c 1B69     		ldr	r3, [r3, #16]
 981 001e 1A46     		mov	r2, r3
 982 0020 019B     		ldr	r3, [sp, #4]
 983 0022 DB68     		ldr	r3, [r3, #12]
 984 0024 D31A     		subs	r3, r2, r3
 985 0026 1A46     		mov	r2, r3
 986 0028 019B     		ldr	r3, [sp, #4]
 987 002a 9A60     		str	r2, [r3, #8]
 988              		.loc 7 306 0
 989 002c 019B     		ldr	r3, [sp, #4]
 990 002e 6FF00101 		mvn	r1, #1
 991 0032 1846     		mov	r0, r3
 992 0034 FFF7FEFF 		bl	chThdDequeueAllI
 993              		.loc 7 307 0
 994 0038 00BF     		nop
 995 003a 03B0     		add	sp, sp, #12
 996              		.cfi_def_cfa_offset 4
 997              		@ sp needed
 998 003c 5DF804FB 		ldr	pc, [sp], #4
 999              		.cfi_endproc
 1000              	.LFE237:
 1001              		.size	chOQResetI, .-chOQResetI
 1002              		.section	.text.chOQPutTimeout,"ax",%progbits
 1003              		.align	1
 1004              		.p2align 4,,15
 1005              		.global	chOQPutTimeout
 1006              		.syntax unified
 1007              		.thumb
 1008              		.thumb_func
 1009              		.fpu fpv4-sp-d16
 1010              		.type	chOQPutTimeout, %function
 1011              	chOQPutTimeout:
 1012              	.LFB238:
 1013              		.loc 7 331 0
 1014              		.cfi_startproc
 1015              		@ args = 0, pretend = 0, frame = 24
 1016              		@ frame_needed = 0, uses_anonymous_args = 0
 1017 0000 00B5     		push	{lr}
 1018              		.cfi_def_cfa_offset 4
 1019              		.cfi_offset 14, -4
 1020 0002 87B0     		sub	sp, sp, #28
 1021              		.cfi_def_cfa_offset 32
 1022 0004 0390     		str	r0, [sp, #12]
 1023 0006 0B46     		mov	r3, r1
 1024 0008 0192     		str	r2, [sp, #4]
 1025 000a 8DF80B30 		strb	r3, [sp, #11]
 1026              		.loc 7 333 0
ARM GAS  /tmp/ccP4CAJn.s 			page 19


 1027 000e FFF7FEFF 		bl	chSysLock
 1028              		.loc 7 334 0
 1029 0012 0CE0     		b	.L48
 1030              	.L50:
 1031              	.LBB11:
 1032              		.loc 7 335 0
 1033 0014 039B     		ldr	r3, [sp, #12]
 1034 0016 0199     		ldr	r1, [sp, #4]
 1035 0018 1846     		mov	r0, r3
 1036 001a FFF7FEFF 		bl	chThdEnqueueTimeoutS
 1037 001e 0590     		str	r0, [sp, #20]
 1038              		.loc 7 336 0
 1039 0020 059B     		ldr	r3, [sp, #20]
 1040 0022 002B     		cmp	r3, #0
 1041 0024 03DA     		bge	.L48
 1042              		.loc 7 337 0
 1043 0026 FFF7FEFF 		bl	chSysUnlock
 1044              		.loc 7 338 0
 1045 002a 059B     		ldr	r3, [sp, #20]
 1046 002c 27E0     		b	.L49
 1047              	.L48:
 1048              	.LBE11:
 1049              		.loc 7 334 0
 1050 002e 0398     		ldr	r0, [sp, #12]
 1051 0030 FFF7FEFF 		bl	chOQIsFullI
 1052 0034 0346     		mov	r3, r0
 1053 0036 002B     		cmp	r3, #0
 1054 0038 ECD1     		bne	.L50
 1055              		.loc 7 342 0
 1056 003a 039B     		ldr	r3, [sp, #12]
 1057 003c 9B68     		ldr	r3, [r3, #8]
 1058 003e 5A1E     		subs	r2, r3, #1
 1059 0040 039B     		ldr	r3, [sp, #12]
 1060 0042 9A60     		str	r2, [r3, #8]
 1061              		.loc 7 343 0
 1062 0044 039B     		ldr	r3, [sp, #12]
 1063 0046 5B69     		ldr	r3, [r3, #20]
 1064 0048 591C     		adds	r1, r3, #1
 1065 004a 039A     		ldr	r2, [sp, #12]
 1066 004c 5161     		str	r1, [r2, #20]
 1067 004e 9DF80B20 		ldrb	r2, [sp, #11]
 1068 0052 1A70     		strb	r2, [r3]
 1069              		.loc 7 344 0
 1070 0054 039B     		ldr	r3, [sp, #12]
 1071 0056 5A69     		ldr	r2, [r3, #20]
 1072 0058 039B     		ldr	r3, [sp, #12]
 1073 005a 1B69     		ldr	r3, [r3, #16]
 1074 005c 9A42     		cmp	r2, r3
 1075 005e 03D3     		bcc	.L51
 1076              		.loc 7 345 0
 1077 0060 039B     		ldr	r3, [sp, #12]
 1078 0062 DA68     		ldr	r2, [r3, #12]
 1079 0064 039B     		ldr	r3, [sp, #12]
 1080 0066 5A61     		str	r2, [r3, #20]
 1081              	.L51:
 1082              		.loc 7 348 0
 1083 0068 039B     		ldr	r3, [sp, #12]
ARM GAS  /tmp/ccP4CAJn.s 			page 20


 1084 006a DB69     		ldr	r3, [r3, #28]
 1085 006c 002B     		cmp	r3, #0
 1086 006e 03D0     		beq	.L52
 1087              		.loc 7 349 0
 1088 0070 039B     		ldr	r3, [sp, #12]
 1089 0072 DB69     		ldr	r3, [r3, #28]
 1090 0074 0398     		ldr	r0, [sp, #12]
 1091 0076 9847     		blx	r3
 1092              	.LVL2:
 1093              	.L52:
 1094              		.loc 7 351 0
 1095 0078 FFF7FEFF 		bl	chSysUnlock
 1096              		.loc 7 353 0
 1097 007c 0023     		movs	r3, #0
 1098              	.L49:
 1099              		.loc 7 354 0
 1100 007e 1846     		mov	r0, r3
 1101 0080 07B0     		add	sp, sp, #28
 1102              		.cfi_def_cfa_offset 4
 1103              		@ sp needed
 1104 0082 5DF804FB 		ldr	pc, [sp], #4
 1105              		.cfi_endproc
 1106              	.LFE238:
 1107              		.size	chOQPutTimeout, .-chOQPutTimeout
 1108 0086 00BF     		.section	.text.chOQGetI,"ax",%progbits
 1109              		.align	1
 1110              		.p2align 4,,15
 1111              		.global	chOQGetI
 1112              		.syntax unified
 1113              		.thumb
 1114              		.thumb_func
 1115              		.fpu fpv4-sp-d16
 1116              		.type	chOQGetI, %function
 1117              	chOQGetI:
 1118              	.LFB239:
 1119              		.loc 7 366 0
 1120              		.cfi_startproc
 1121              		@ args = 0, pretend = 0, frame = 16
 1122              		@ frame_needed = 0, uses_anonymous_args = 0
 1123 0000 00B5     		push	{lr}
 1124              		.cfi_def_cfa_offset 4
 1125              		.cfi_offset 14, -4
 1126 0002 85B0     		sub	sp, sp, #20
 1127              		.cfi_def_cfa_offset 24
 1128 0004 0190     		str	r0, [sp, #4]
 1129              		.loc 7 369 0
 1130 0006 FFF7FEFF 		bl	chDbgCheckClassI
 1131              		.loc 7 371 0
 1132 000a 0198     		ldr	r0, [sp, #4]
 1133 000c FFF7FEFF 		bl	chOQIsEmptyI
 1134 0010 0346     		mov	r3, r0
 1135 0012 002B     		cmp	r3, #0
 1136 0014 02D0     		beq	.L54
 1137              		.loc 7 372 0
 1138 0016 6FF00203 		mvn	r3, #2
 1139 001a 1DE0     		b	.L55
 1140              	.L54:
ARM GAS  /tmp/ccP4CAJn.s 			page 21


 1141              		.loc 7 375 0
 1142 001c 019B     		ldr	r3, [sp, #4]
 1143 001e 9B68     		ldr	r3, [r3, #8]
 1144 0020 5A1C     		adds	r2, r3, #1
 1145 0022 019B     		ldr	r3, [sp, #4]
 1146 0024 9A60     		str	r2, [r3, #8]
 1147              		.loc 7 376 0
 1148 0026 019B     		ldr	r3, [sp, #4]
 1149 0028 9B69     		ldr	r3, [r3, #24]
 1150 002a 591C     		adds	r1, r3, #1
 1151 002c 019A     		ldr	r2, [sp, #4]
 1152 002e 9161     		str	r1, [r2, #24]
 1153 0030 1B78     		ldrb	r3, [r3]
 1154 0032 8DF80F30 		strb	r3, [sp, #15]
 1155              		.loc 7 377 0
 1156 0036 019B     		ldr	r3, [sp, #4]
 1157 0038 9A69     		ldr	r2, [r3, #24]
 1158 003a 019B     		ldr	r3, [sp, #4]
 1159 003c 1B69     		ldr	r3, [r3, #16]
 1160 003e 9A42     		cmp	r2, r3
 1161 0040 03D3     		bcc	.L56
 1162              		.loc 7 378 0
 1163 0042 019B     		ldr	r3, [sp, #4]
 1164 0044 DA68     		ldr	r2, [r3, #12]
 1165 0046 019B     		ldr	r3, [sp, #4]
 1166 0048 9A61     		str	r2, [r3, #24]
 1167              	.L56:
 1168              		.loc 7 381 0
 1169 004a 019B     		ldr	r3, [sp, #4]
 1170 004c 0021     		movs	r1, #0
 1171 004e 1846     		mov	r0, r3
 1172 0050 FFF7FEFF 		bl	chThdDequeueNextI
 1173              		.loc 7 383 0
 1174 0054 9DF80F30 		ldrb	r3, [sp, #15]	@ zero_extendqisi2
 1175              	.L55:
 1176              		.loc 7 384 0
 1177 0058 1846     		mov	r0, r3
 1178 005a 05B0     		add	sp, sp, #20
 1179              		.cfi_def_cfa_offset 4
 1180              		@ sp needed
 1181 005c 5DF804FB 		ldr	pc, [sp], #4
 1182              		.cfi_endproc
 1183              	.LFE239:
 1184              		.size	chOQGetI, .-chOQGetI
 1185              		.section	.text.chOQWriteTimeout,"ax",%progbits
 1186              		.align	1
 1187              		.p2align 4,,15
 1188              		.global	chOQWriteTimeout
 1189              		.syntax unified
 1190              		.thumb
 1191              		.thumb_func
 1192              		.fpu fpv4-sp-d16
 1193              		.type	chOQWriteTimeout, %function
 1194              	chOQWriteTimeout:
 1195              	.LFB240:
 1196              		.loc 7 411 0
 1197              		.cfi_startproc
ARM GAS  /tmp/ccP4CAJn.s 			page 22


 1198              		@ args = 0, pretend = 0, frame = 24
 1199              		@ frame_needed = 0, uses_anonymous_args = 0
 1200 0000 00B5     		push	{lr}
 1201              		.cfi_def_cfa_offset 4
 1202              		.cfi_offset 14, -4
 1203 0002 87B0     		sub	sp, sp, #28
 1204              		.cfi_def_cfa_offset 32
 1205 0004 0390     		str	r0, [sp, #12]
 1206 0006 0291     		str	r1, [sp, #8]
 1207 0008 0192     		str	r2, [sp, #4]
 1208 000a 0093     		str	r3, [sp]
 1209              		.loc 7 412 0
 1210 000c 039B     		ldr	r3, [sp, #12]
 1211 000e DB69     		ldr	r3, [r3, #28]
 1212 0010 0493     		str	r3, [sp, #16]
 1213              		.loc 7 413 0
 1214 0012 0023     		movs	r3, #0
 1215 0014 0593     		str	r3, [sp, #20]
 1216              		.loc 7 415 0
 1217 0016 019B     		ldr	r3, [sp, #4]
 1218 0018 002B     		cmp	r3, #0
 1219 001a 02D1     		bne	.L58
 1220              		.loc 7 415 0 is_stmt 0 discriminator 2
 1221 001c 2548     		ldr	r0, .L66
 1222 001e FFF7FEFF 		bl	chSysHalt
 1223              	.L58:
 1224              		.loc 7 417 0 is_stmt 1
 1225 0022 FFF7FEFF 		bl	chSysLock
 1226              		.loc 7 419 0
 1227 0026 0BE0     		b	.L59
 1228              	.L61:
 1229              		.loc 7 420 0
 1230 0028 039B     		ldr	r3, [sp, #12]
 1231 002a 0099     		ldr	r1, [sp]
 1232 002c 1846     		mov	r0, r3
 1233 002e FFF7FEFF 		bl	chThdEnqueueTimeoutS
 1234 0032 0346     		mov	r3, r0
 1235 0034 002B     		cmp	r3, #0
 1236 0036 03D0     		beq	.L59
 1237              		.loc 7 421 0
 1238 0038 FFF7FEFF 		bl	chSysUnlock
 1239              		.loc 7 422 0
 1240 003c 059B     		ldr	r3, [sp, #20]
 1241 003e 34E0     		b	.L60
 1242              	.L59:
 1243              		.loc 7 419 0
 1244 0040 0398     		ldr	r0, [sp, #12]
 1245 0042 FFF7FEFF 		bl	chOQIsFullI
 1246 0046 0346     		mov	r3, r0
 1247 0048 002B     		cmp	r3, #0
 1248 004a EDD1     		bne	.L61
 1249              		.loc 7 426 0
 1250 004c 039B     		ldr	r3, [sp, #12]
 1251 004e 9B68     		ldr	r3, [r3, #8]
 1252 0050 5A1E     		subs	r2, r3, #1
 1253 0052 039B     		ldr	r3, [sp, #12]
 1254 0054 9A60     		str	r2, [r3, #8]
ARM GAS  /tmp/ccP4CAJn.s 			page 23


 1255              		.loc 7 427 0
 1256 0056 039B     		ldr	r3, [sp, #12]
 1257 0058 5B69     		ldr	r3, [r3, #20]
 1258 005a 591C     		adds	r1, r3, #1
 1259 005c 039A     		ldr	r2, [sp, #12]
 1260 005e 5161     		str	r1, [r2, #20]
 1261 0060 029A     		ldr	r2, [sp, #8]
 1262 0062 511C     		adds	r1, r2, #1
 1263 0064 0291     		str	r1, [sp, #8]
 1264 0066 1278     		ldrb	r2, [r2]	@ zero_extendqisi2
 1265 0068 1A70     		strb	r2, [r3]
 1266              		.loc 7 428 0
 1267 006a 039B     		ldr	r3, [sp, #12]
 1268 006c 5A69     		ldr	r2, [r3, #20]
 1269 006e 039B     		ldr	r3, [sp, #12]
 1270 0070 1B69     		ldr	r3, [r3, #16]
 1271 0072 9A42     		cmp	r2, r3
 1272 0074 03D3     		bcc	.L62
 1273              		.loc 7 429 0
 1274 0076 039B     		ldr	r3, [sp, #12]
 1275 0078 DA68     		ldr	r2, [r3, #12]
 1276 007a 039B     		ldr	r3, [sp, #12]
 1277 007c 5A61     		str	r2, [r3, #20]
 1278              	.L62:
 1279              		.loc 7 432 0
 1280 007e 049B     		ldr	r3, [sp, #16]
 1281 0080 002B     		cmp	r3, #0
 1282 0082 02D0     		beq	.L63
 1283              		.loc 7 433 0
 1284 0084 049B     		ldr	r3, [sp, #16]
 1285 0086 0398     		ldr	r0, [sp, #12]
 1286 0088 9847     		blx	r3
 1287              	.LVL3:
 1288              	.L63:
 1289              		.loc 7 435 0
 1290 008a FFF7FEFF 		bl	chSysUnlock
 1291              		.loc 7 437 0
 1292 008e 059B     		ldr	r3, [sp, #20]
 1293 0090 0133     		adds	r3, r3, #1
 1294 0092 0593     		str	r3, [sp, #20]
 1295              		.loc 7 438 0
 1296 0094 019B     		ldr	r3, [sp, #4]
 1297 0096 013B     		subs	r3, r3, #1
 1298 0098 0193     		str	r3, [sp, #4]
 1299 009a 019B     		ldr	r3, [sp, #4]
 1300 009c 002B     		cmp	r3, #0
 1301 009e 01D1     		bne	.L64
 1302              		.loc 7 439 0
 1303 00a0 059B     		ldr	r3, [sp, #20]
 1304 00a2 02E0     		b	.L60
 1305              	.L64:
 1306              		.loc 7 441 0
 1307 00a4 FFF7FEFF 		bl	chSysLock
 1308              		.loc 7 419 0
 1309 00a8 CAE7     		b	.L59
 1310              	.L60:
 1311              		.loc 7 443 0
ARM GAS  /tmp/ccP4CAJn.s 			page 24


 1312 00aa 1846     		mov	r0, r3
 1313 00ac 07B0     		add	sp, sp, #28
 1314              		.cfi_def_cfa_offset 4
 1315              		@ sp needed
 1316 00ae 5DF804FB 		ldr	pc, [sp], #4
 1317              	.L67:
 1318 00b2 00BF     		.align	2
 1319              	.L66:
 1320 00b4 00000000 		.word	__func__.7921
 1321              		.cfi_endproc
 1322              	.LFE240:
 1323              		.size	chOQWriteTimeout, .-chOQWriteTimeout
 1324              		.section	.rodata.__func__.7157,"a",%progbits
 1325              		.align	2
 1326              		.type	__func__.7157, %object
 1327              		.size	__func__.7157, 12
 1328              	__func__.7157:
 1329 0000 63685379 		.ascii	"chSysUnlock\000"
 1329      73556E6C 
 1329      6F636B00 
 1330              		.section	.rodata.__func__.7885,"a",%progbits
 1331              		.align	2
 1332              		.type	__func__.7885, %object
 1333              		.size	__func__.7885, 16
 1334              	__func__.7885:
 1335 0000 63684951 		.ascii	"chIQReadTimeout\000"
 1335      52656164 
 1335      54696D65 
 1335      6F757400 
 1336              		.section	.rodata.__func__.7921,"a",%progbits
 1337              		.align	2
 1338              		.type	__func__.7921, %object
 1339              		.size	__func__.7921, 17
 1340              	__func__.7921:
 1341 0000 63684F51 		.ascii	"chOQWriteTimeout\000"
 1341      57726974 
 1341      6554696D 
 1341      656F7574 
 1341      00
 1342              		.text
 1343              	.Letext0:
 1344              		.file 8 "/usr/lib/gcc/arm-none-eabi/6.3.1/include/stddef.h"
 1345              		.file 9 "/usr/arm-none-eabi/include/machine/_default_types.h"
 1346              		.file 10 "/usr/arm-none-eabi/include/sys/_stdint.h"
 1347              		.file 11 "../ChibiOS/os/rt/ports/ARMCMx/compilers/GCC/chtypes.h"
 1348              		.file 12 "../ChibiOS/os/rt/include/chsystypes.h"
 1349              		.file 13 "../ChibiOS/os/ext/CMSIS/include/core_cm4.h"
 1350              		.file 14 "../ChibiOS/os/ext/CMSIS/ST/STM32F4xx/system_stm32f4xx.h"
 1351              		.file 15 "../ChibiOS/os/rt/ports/ARMCMx/chcore.h"
 1352              		.file 16 "../ChibiOS/os/rt/include/chtm.h"
 1353              		.file 17 "../ChibiOS/os/rt/include/chstats.h"
 1354              		.file 18 "../ChibiOS/os/rt/include/chsem.h"
 1355              		.file 19 "../ChibiOS/os/rt/include/chmtx.h"
 1356              		.file 20 "../ChibiOS/os/rt/include/chregistry.h"