ARM GAS  /tmp/ccR3FXEj.s 			page 1


   1              		.cpu cortex-m4
   2              		.eabi_attribute 27, 1
   3              		.eabi_attribute 28, 1
   4              		.eabi_attribute 20, 1
   5              		.eabi_attribute 21, 1
   6              		.eabi_attribute 23, 3
   7              		.eabi_attribute 24, 1
   8              		.eabi_attribute 25, 1
   9              		.eabi_attribute 26, 1
  10              		.eabi_attribute 30, 6
  11              		.eabi_attribute 34, 1
  12              		.eabi_attribute 18, 4
  13              		.file	"chstats.c"
  14              		.text
  15              	.Ltext0:
  16              		.cfi_sections	.debug_frame
  17              		.section	.text.port_lock,"ax",%progbits
  18              		.align	1
  19              		.p2align 4,,15
  20              		.syntax unified
  21              		.thumb
  22              		.thumb_func
  23              		.fpu fpv4-sp-d16
  24              		.type	port_lock, %function
  25              	port_lock:
  26              	.LFB127:
  27              		.file 1 "../ChibiOS/os/rt/ports/ARMCMx/chcore_v7m.h"
  28              		.loc 1 456 0
  29              		.cfi_startproc
  30              		@ args = 0, pretend = 0, frame = 8
  31              		@ frame_needed = 0, uses_anonymous_args = 0
  32              		@ link register save eliminated.
  33 0000 82B0     		sub	sp, sp, #8
  34              		.cfi_def_cfa_offset 8
  35 0002 2023     		movs	r3, #32
  36 0004 0193     		str	r3, [sp, #4]
  37              	.LBB6:
  38              	.LBB7:
  39              		.file 2 "../ChibiOS/os/ext/CMSIS/include/core_cmFunc.h"
  40              		.loc 2 548 0
  41 0006 019B     		ldr	r3, [sp, #4]
  42              		.syntax unified
  43              	@ 548 "../ChibiOS/os/ext/CMSIS/include/core_cmFunc.h" 1
  44 0008 83F31188 		MSR basepri, r3
  45              	@ 0 "" 2
  46              		.thumb
  47              		.syntax unified
  48              	.LBE7:
  49              	.LBE6:
  50              		.loc 1 473 0
  51 000c 00BF     		nop
  52 000e 02B0     		add	sp, sp, #8
  53              		.cfi_def_cfa_offset 0
  54              		@ sp needed
  55 0010 7047     		bx	lr
  56              		.cfi_endproc
  57              	.LFE127:
ARM GAS  /tmp/ccR3FXEj.s 			page 2


  58              		.size	port_lock, .-port_lock
  59 0012 00BF     		.section	.text.port_unlock,"ax",%progbits
  60              		.align	1
  61              		.p2align 4,,15
  62              		.syntax unified
  63              		.thumb
  64              		.thumb_func
  65              		.fpu fpv4-sp-d16
  66              		.type	port_unlock, %function
  67              	port_unlock:
  68              	.LFB128:
  69              		.loc 1 480 0
  70              		.cfi_startproc
  71              		@ args = 0, pretend = 0, frame = 8
  72              		@ frame_needed = 0, uses_anonymous_args = 0
  73              		@ link register save eliminated.
  74 0000 82B0     		sub	sp, sp, #8
  75              		.cfi_def_cfa_offset 8
  76 0002 0023     		movs	r3, #0
  77 0004 0193     		str	r3, [sp, #4]
  78              	.LBB8:
  79              	.LBB9:
  80              		.loc 2 548 0
  81 0006 019B     		ldr	r3, [sp, #4]
  82              		.syntax unified
  83              	@ 548 "../ChibiOS/os/ext/CMSIS/include/core_cmFunc.h" 1
  84 0008 83F31188 		MSR basepri, r3
  85              	@ 0 "" 2
  86              		.thumb
  87              		.syntax unified
  88              	.LBE9:
  89              	.LBE8:
  90              		.loc 1 487 0
  91 000c 00BF     		nop
  92 000e 02B0     		add	sp, sp, #8
  93              		.cfi_def_cfa_offset 0
  94              		@ sp needed
  95 0010 7047     		bx	lr
  96              		.cfi_endproc
  97              	.LFE128:
  98              		.size	port_unlock, .-port_unlock
  99 0012 00BF     		.section	.text.port_lock_from_isr,"ax",%progbits
 100              		.align	1
 101              		.p2align 4,,15
 102              		.syntax unified
 103              		.thumb
 104              		.thumb_func
 105              		.fpu fpv4-sp-d16
 106              		.type	port_lock_from_isr, %function
 107              	port_lock_from_isr:
 108              	.LFB129:
 109              		.loc 1 495 0
 110              		.cfi_startproc
 111              		@ args = 0, pretend = 0, frame = 0
 112              		@ frame_needed = 0, uses_anonymous_args = 0
 113 0000 08B5     		push	{r3, lr}
 114              		.cfi_def_cfa_offset 8
ARM GAS  /tmp/ccR3FXEj.s 			page 3


 115              		.cfi_offset 3, -8
 116              		.cfi_offset 14, -4
 117              		.loc 1 497 0
 118 0002 FFF7FEFF 		bl	port_lock
 119              		.loc 1 498 0
 120 0006 00BF     		nop
 121 0008 08BD     		pop	{r3, pc}
 122              		.cfi_endproc
 123              	.LFE129:
 124              		.size	port_lock_from_isr, .-port_lock_from_isr
 125              		.section	.text.port_unlock_from_isr,"ax",%progbits
 126              		.align	1
 127              		.p2align 4,,15
 128              		.syntax unified
 129              		.thumb
 130              		.thumb_func
 131              		.fpu fpv4-sp-d16
 132              		.type	port_unlock_from_isr, %function
 133              	port_unlock_from_isr:
 134              	.LFB130:
 135              		.loc 1 506 0
 136              		.cfi_startproc
 137              		@ args = 0, pretend = 0, frame = 0
 138              		@ frame_needed = 0, uses_anonymous_args = 0
 139 0000 08B5     		push	{r3, lr}
 140              		.cfi_def_cfa_offset 8
 141              		.cfi_offset 3, -8
 142              		.cfi_offset 14, -4
 143              		.loc 1 508 0
 144 0002 FFF7FEFF 		bl	port_unlock
 145              		.loc 1 509 0
 146 0006 00BF     		nop
 147 0008 08BD     		pop	{r3, pc}
 148              		.cfi_endproc
 149              	.LFE130:
 150              		.size	port_unlock_from_isr, .-port_unlock_from_isr
 151              		.section	.text._stats_init,"ax",%progbits
 152              		.align	1
 153              		.p2align 4,,15
 154              		.global	_stats_init
 155              		.syntax unified
 156              		.thumb
 157              		.thumb_func
 158              		.fpu fpv4-sp-d16
 159              		.type	_stats_init, %function
 160              	_stats_init:
 161              	.LFB231:
 162              		.file 3 "../ChibiOS/os/rt/src/chstats.c"
 163              		.loc 3 62 0
 164              		.cfi_startproc
 165              		@ args = 0, pretend = 0, frame = 0
 166              		@ frame_needed = 0, uses_anonymous_args = 0
 167 0000 08B5     		push	{r3, lr}
 168              		.cfi_def_cfa_offset 8
 169              		.cfi_offset 3, -8
 170              		.cfi_offset 14, -4
 171              		.loc 3 64 0
ARM GAS  /tmp/ccR3FXEj.s 			page 4


 172 0002 084B     		ldr	r3, .L6
 173 0004 0022     		movs	r2, #0
 174 0006 C3F8A020 		str	r2, [r3, #160]
 175              		.loc 3 65 0
 176 000a 064B     		ldr	r3, .L6
 177 000c 0022     		movs	r2, #0
 178 000e C3F8A420 		str	r2, [r3, #164]
 179              		.loc 3 66 0
 180 0012 0548     		ldr	r0, .L6+4
 181 0014 FFF7FEFF 		bl	chTMObjectInit
 182              		.loc 3 67 0
 183 0018 0448     		ldr	r0, .L6+8
 184 001a FFF7FEFF 		bl	chTMObjectInit
 185              		.loc 3 68 0
 186 001e 00BF     		nop
 187 0020 08BD     		pop	{r3, pc}
 188              	.L7:
 189 0022 00BF     		.align	2
 190              	.L6:
 191 0024 00000000 		.word	ch
 192 0028 A8000000 		.word	ch+168
 193 002c C0000000 		.word	ch+192
 194              		.cfi_endproc
 195              	.LFE231:
 196              		.size	_stats_init, .-_stats_init
 197              		.section	.text._stats_increase_irq,"ax",%progbits
 198              		.align	1
 199              		.p2align 4,,15
 200              		.global	_stats_increase_irq
 201              		.syntax unified
 202              		.thumb
 203              		.thumb_func
 204              		.fpu fpv4-sp-d16
 205              		.type	_stats_increase_irq, %function
 206              	_stats_increase_irq:
 207              	.LFB232:
 208              		.loc 3 73 0
 209              		.cfi_startproc
 210              		@ args = 0, pretend = 0, frame = 0
 211              		@ frame_needed = 0, uses_anonymous_args = 0
 212 0000 08B5     		push	{r3, lr}
 213              		.cfi_def_cfa_offset 8
 214              		.cfi_offset 3, -8
 215              		.cfi_offset 14, -4
 216              		.loc 3 75 0
 217 0002 FFF7FEFF 		bl	port_lock_from_isr
 218              		.loc 3 76 0
 219 0006 054B     		ldr	r3, .L9
 220 0008 D3F8A030 		ldr	r3, [r3, #160]
 221 000c 0133     		adds	r3, r3, #1
 222 000e 034A     		ldr	r2, .L9
 223 0010 C2F8A030 		str	r3, [r2, #160]
 224              		.loc 3 77 0
 225 0014 FFF7FEFF 		bl	port_unlock_from_isr
 226              		.loc 3 78 0
 227 0018 00BF     		nop
 228 001a 08BD     		pop	{r3, pc}
ARM GAS  /tmp/ccR3FXEj.s 			page 5


 229              	.L10:
 230              		.align	2
 231              	.L9:
 232 001c 00000000 		.word	ch
 233              		.cfi_endproc
 234              	.LFE232:
 235              		.size	_stats_increase_irq, .-_stats_increase_irq
 236              		.section	.text._stats_ctxswc,"ax",%progbits
 237              		.align	1
 238              		.p2align 4,,15
 239              		.global	_stats_ctxswc
 240              		.syntax unified
 241              		.thumb
 242              		.thumb_func
 243              		.fpu fpv4-sp-d16
 244              		.type	_stats_ctxswc, %function
 245              	_stats_ctxswc:
 246              	.LFB233:
 247              		.loc 3 86 0
 248              		.cfi_startproc
 249              		@ args = 0, pretend = 0, frame = 8
 250              		@ frame_needed = 0, uses_anonymous_args = 0
 251 0000 00B5     		push	{lr}
 252              		.cfi_def_cfa_offset 4
 253              		.cfi_offset 14, -4
 254 0002 83B0     		sub	sp, sp, #12
 255              		.cfi_def_cfa_offset 16
 256 0004 0190     		str	r0, [sp, #4]
 257 0006 0091     		str	r1, [sp]
 258              		.loc 3 88 0
 259 0008 094B     		ldr	r3, .L12
 260 000a D3F8A430 		ldr	r3, [r3, #164]
 261 000e 0133     		adds	r3, r3, #1
 262 0010 074A     		ldr	r2, .L12
 263 0012 C2F8A430 		str	r3, [r2, #164]
 264              		.loc 3 89 0
 265 0016 009B     		ldr	r3, [sp]
 266 0018 03F14802 		add	r2, r3, #72
 267 001c 019B     		ldr	r3, [sp, #4]
 268 001e 4833     		adds	r3, r3, #72
 269 0020 1946     		mov	r1, r3
 270 0022 1046     		mov	r0, r2
 271 0024 FFF7FEFF 		bl	chTMChainMeasurementToX
 272              		.loc 3 90 0
 273 0028 00BF     		nop
 274 002a 03B0     		add	sp, sp, #12
 275              		.cfi_def_cfa_offset 4
 276              		@ sp needed
 277 002c 5DF804FB 		ldr	pc, [sp], #4
 278              	.L13:
 279              		.align	2
 280              	.L12:
 281 0030 00000000 		.word	ch
 282              		.cfi_endproc
 283              	.LFE233:
 284              		.size	_stats_ctxswc, .-_stats_ctxswc
 285              		.section	.text._stats_start_measure_crit_thd,"ax",%progbits
ARM GAS  /tmp/ccR3FXEj.s 			page 6


 286              		.align	1
 287              		.p2align 4,,15
 288              		.global	_stats_start_measure_crit_thd
 289              		.syntax unified
 290              		.thumb
 291              		.thumb_func
 292              		.fpu fpv4-sp-d16
 293              		.type	_stats_start_measure_crit_thd, %function
 294              	_stats_start_measure_crit_thd:
 295              	.LFB234:
 296              		.loc 3 95 0
 297              		.cfi_startproc
 298              		@ args = 0, pretend = 0, frame = 0
 299              		@ frame_needed = 0, uses_anonymous_args = 0
 300 0000 08B5     		push	{r3, lr}
 301              		.cfi_def_cfa_offset 8
 302              		.cfi_offset 3, -8
 303              		.cfi_offset 14, -4
 304              		.loc 3 97 0
 305 0002 0248     		ldr	r0, .L15
 306 0004 FFF7FEFF 		bl	chTMStartMeasurementX
 307              		.loc 3 98 0
 308 0008 00BF     		nop
 309 000a 08BD     		pop	{r3, pc}
 310              	.L16:
 311              		.align	2
 312              	.L15:
 313 000c A8000000 		.word	ch+168
 314              		.cfi_endproc
 315              	.LFE234:
 316              		.size	_stats_start_measure_crit_thd, .-_stats_start_measure_crit_thd
 317              		.section	.text._stats_stop_measure_crit_thd,"ax",%progbits
 318              		.align	1
 319              		.p2align 4,,15
 320              		.global	_stats_stop_measure_crit_thd
 321              		.syntax unified
 322              		.thumb
 323              		.thumb_func
 324              		.fpu fpv4-sp-d16
 325              		.type	_stats_stop_measure_crit_thd, %function
 326              	_stats_stop_measure_crit_thd:
 327              	.LFB235:
 328              		.loc 3 103 0
 329              		.cfi_startproc
 330              		@ args = 0, pretend = 0, frame = 0
 331              		@ frame_needed = 0, uses_anonymous_args = 0
 332 0000 08B5     		push	{r3, lr}
 333              		.cfi_def_cfa_offset 8
 334              		.cfi_offset 3, -8
 335              		.cfi_offset 14, -4
 336              		.loc 3 105 0
 337 0002 0248     		ldr	r0, .L18
 338 0004 FFF7FEFF 		bl	chTMStopMeasurementX
 339              		.loc 3 106 0
 340 0008 00BF     		nop
 341 000a 08BD     		pop	{r3, pc}
 342              	.L19:
ARM GAS  /tmp/ccR3FXEj.s 			page 7


 343              		.align	2
 344              	.L18:
 345 000c A8000000 		.word	ch+168
 346              		.cfi_endproc
 347              	.LFE235:
 348              		.size	_stats_stop_measure_crit_thd, .-_stats_stop_measure_crit_thd
 349              		.section	.text._stats_start_measure_crit_isr,"ax",%progbits
 350              		.align	1
 351              		.p2align 4,,15
 352              		.global	_stats_start_measure_crit_isr
 353              		.syntax unified
 354              		.thumb
 355              		.thumb_func
 356              		.fpu fpv4-sp-d16
 357              		.type	_stats_start_measure_crit_isr, %function
 358              	_stats_start_measure_crit_isr:
 359              	.LFB236:
 360              		.loc 3 111 0
 361              		.cfi_startproc
 362              		@ args = 0, pretend = 0, frame = 0
 363              		@ frame_needed = 0, uses_anonymous_args = 0
 364 0000 08B5     		push	{r3, lr}
 365              		.cfi_def_cfa_offset 8
 366              		.cfi_offset 3, -8
 367              		.cfi_offset 14, -4
 368              		.loc 3 113 0
 369 0002 0248     		ldr	r0, .L21
 370 0004 FFF7FEFF 		bl	chTMStartMeasurementX
 371              		.loc 3 114 0
 372 0008 00BF     		nop
 373 000a 08BD     		pop	{r3, pc}
 374              	.L22:
 375              		.align	2
 376              	.L21:
 377 000c C0000000 		.word	ch+192
 378              		.cfi_endproc
 379              	.LFE236:
 380              		.size	_stats_start_measure_crit_isr, .-_stats_start_measure_crit_isr
 381              		.section	.text._stats_stop_measure_crit_isr,"ax",%progbits
 382              		.align	1
 383              		.p2align 4,,15
 384              		.global	_stats_stop_measure_crit_isr
 385              		.syntax unified
 386              		.thumb
 387              		.thumb_func
 388              		.fpu fpv4-sp-d16
 389              		.type	_stats_stop_measure_crit_isr, %function
 390              	_stats_stop_measure_crit_isr:
 391              	.LFB237:
 392              		.loc 3 119 0
 393              		.cfi_startproc
 394              		@ args = 0, pretend = 0, frame = 0
 395              		@ frame_needed = 0, uses_anonymous_args = 0
 396 0000 08B5     		push	{r3, lr}
 397              		.cfi_def_cfa_offset 8
 398              		.cfi_offset 3, -8
 399              		.cfi_offset 14, -4
ARM GAS  /tmp/ccR3FXEj.s 			page 8


 400              		.loc 3 121 0
 401 0002 0248     		ldr	r0, .L24
 402 0004 FFF7FEFF 		bl	chTMStopMeasurementX
 403              		.loc 3 122 0
 404 0008 00BF     		nop
 405 000a 08BD     		pop	{r3, pc}
 406              	.L25:
 407              		.align	2
 408              	.L24:
 409 000c C0000000 		.word	ch+192
 410              		.cfi_endproc
 411              	.LFE237:
 412              		.size	_stats_stop_measure_crit_isr, .-_stats_stop_measure_crit_isr
 413              		.text
 414              	.Letext0:
 415              		.file 4 "/usr/arm-none-eabi/include/machine/_default_types.h"
 416              		.file 5 "/usr/arm-none-eabi/include/sys/_stdint.h"
 417              		.file 6 "../ChibiOS/os/rt/ports/ARMCMx/compilers/GCC/chtypes.h"
 418              		.file 7 "../ChibiOS/os/rt/include/chsystypes.h"
 419              		.file 8 "../ChibiOS/os/rt/include/chschd.h"
 420              		.file 9 "../ChibiOS/os/ext/CMSIS/include/core_cm4.h"
 421              		.file 10 "../ChibiOS/os/ext/CMSIS/ST/STM32F4xx/system_stm32f4xx.h"
 422              		.file 11 "../ChibiOS/os/rt/ports/ARMCMx/chcore.h"
 423              		.file 12 "../ChibiOS/os/rt/include/chtm.h"
 424              		.file 13 "../ChibiOS/os/rt/include/chstats.h"
 425              		.file 14 "../ChibiOS/os/rt/include/chsem.h"
 426              		.file 15 "../ChibiOS/os/rt/include/chmtx.h"
 427              		.file 16 "../ChibiOS/os/rt/include/chregistry.h"