ARM GAS  /tmp/ccR3FXEj.s 			page 1


   1              		.cpu cortex-m4
   2              		.eabi_attribute 27, 1
   3              		.eabi_attribute 28, 1
   4              		.eabi_attribute 20, 1
   5              		.eabi_attribute 21, 1
   6              		.eabi_attribute 23, 3
   7              		.eabi_attribute 24, 1
   8              		.eabi_attribute 25, 1
   9              		.eabi_attribute 26, 1
  10              		.eabi_attribute 30, 6
  11              		.eabi_attribute 34, 1
  12              		.eabi_attribute 18, 4
  13              		.file	"chstats.c"
  14              		.text
  15              	.Ltext0:
  16              		.cfi_sections	.debug_frame
  17              		.section	.text.port_lock,"ax",%progbits
  18              		.align	1
  19              		.p2align 4,,15
  20              		.syntax unified
  21              		.thumb
  22              		.thumb_func
  23              		.fpu fpv4-sp-d16
  24              		.type	port_lock, %function
  25              	port_lock:
  26              	.LFB127:
  27              		.file 1 "../ChibiOS/os/rt/ports/ARMCMx/chcore_v7m.h"
  28              		.loc 1 456 0
  29              		.cfi_startproc
  30              		@ args = 0, pretend = 0, frame = 8
  31              		@ frame_needed = 0, uses_anonymous_args = 0
  32              		@ link register save eliminated.
  33 0000 82B0     		sub	sp, sp, #8
  34              		.cfi_def_cfa_offset 8
  35 0002 2023     		movs	r3, #32
  36 0004 0193     		str	r3, [sp, #4]
  37              	.LBB6:
  38              	.LBB7:
  39              		.file 2 "../ChibiOS/os/ext/CMSIS/include/core_cmFunc.h"
  40              		.loc 2 548 0
  41 0006 019B     		ldr	r3, [sp, #4]
  42              		.syntax unified
  43              	@ 548 "../ChibiOS/os/ext/CMSIS/include/core_cmFunc.h" 1
  44 0008 83F31188 		MSR basepri, r3
  45              	@ 0 "" 2
  46              		.thumb
  47              		.syntax unified
  48              	.LBE7:
  49              	.LBE6:
  50              		.loc 1 473 0
  51 000c 00BF     		nop
  52 000e 02B0     		add	sp, sp, #8
  53              		.cfi_def_cfa_offset 0
  54              		@ sp needed
  55 0010 7047     		bx	lr
  56              		.cfi_endproc
  57              	.LFE127:
ARM GAS  /tmp/ccR3FXEj.s 			page 2


  58              		.size	port_lock, .-port_lock
  59 0012 00BF     		.section	.text.port_unlock,"ax",%progbits
  60              		.align	1
  61              		.p2align 4,,15
  62              		.syntax unified
  63              		.thumb
  64              		.thumb_func
  65              		.fpu fpv4-sp-d16
  66              		.type	port_unlock, %function
  67              	port_unlock:
  68              	.LFB128:
  69              		.loc 1 480 0
  70              		.cfi_startproc
  71              		@ args = 0, pretend = 0, frame = 8
  72              		@ frame_needed = 0, uses_anonymous_args = 0
  73              		@ link register save eliminated.
  74 0000 82B0     		sub	sp, sp, #8
  75              		.cfi_def_cfa_offset 8
  76 0002 0023     		movs	r3, #0
  77 0004 0193     		str	r3, [sp, #4]
  78              	.LBB8:
  79              	.LBB9:
  80              		.loc 2 548 0
  81 0006 019B     		ldr	r3, [sp, #4]
  82              		.syntax unified
  83              	@ 548 "../ChibiOS/os/ext/CMSIS/include/core_cmFunc.h" 1
  84 0008 83F31188 		MSR basepri, r3
  85              	@ 0 "" 2
  86              		.thumb
  87              		.syntax unified
  88              	.LBE9:
  89              	.LBE8:
  90              		.loc 1 487 0
  91 000c 00BF     		nop
  92 000e 02B0     		add	sp, sp, #8
  93              		.cfi_def_cfa_offset 0
  94              		@ sp needed
  95 0010 7047     		bx	lr
  96              		.cfi_endproc
  97              	.LFE128:
  98              		.size	port_unlock, .-port_unlock
  99 0012 00BF     		.section	.text.port_lock_from_isr,"ax",%progbits
 100              		.align	1
 101              		.p2align 4,,15
 102              		.syntax unified
 103              		.thumb
 104              		.thumb_func
 105              		.fpu fpv4-sp-d16
 106              		.type	port_lock_from_isr, %function
 107              	port_lock_from_isr:
 108              	.LFB129:
 109              		.loc 1 495 0
 110              		.cfi_startproc
 111              		@ args = 0, pretend = 0, frame = 0
 112              		@ frame_needed = 0, uses_anonymous_args = 0
 113 0000 08B5     		push	{r3, lr}
 114              		.cfi_def_cfa_offset 8
ARM GAS  /tmp/ccR3FXEj.s 			page 3


 115              		.cfi_offset 3, -8
 116              		.cfi_offset 14, -4
 117              		.loc 1 497 0
 118 0002 FFF7FEFF 		bl	port_lock
 119              		.loc 1 498 0
 120 0006 00BF     		nop
 121 0008 08BD     		pop	{r3, pc}
 122              		.cfi_endproc
 123              	.LFE129:
 124              		.size	port_lock_from_isr, .-port_lock_from_isr
 125              		.section	.text.port_unlock_from_isr,"ax",%progbits
 126              		.align	1
 127              		.p2align 4,,15
 128              		.syntax unified
 129              		.thumb
 130              		.thumb_func
 131              		.fpu fpv4-sp-d16
 132              		.type	port_unlock_from_isr, %function
 133              	port_unlock_from_isr:
 134              	.LFB130:
 135              		.loc 1 506 0
 136              		.cfi_startproc
 137              		@ args = 0, pretend = 0, frame = 0
 138              		@ frame_needed = 0, uses_anonymous_args = 0
 139 0000 08B5     		push	{r3, lr}
 140              		.cfi_def_cfa_offset 8
 141              		.cfi_offset 3, -8
 142              		.cfi_offset 14, -4
 143              		.loc 1 508 0
 144 0002 FFF7FEFF 		bl	port_unlock
 145              		.loc 1 509 0
 146 0006 00BF     		nop
 147 0008 08BD     		pop	{r3, pc}
 148              		.cfi_endproc
 149              	.LFE130:
 150              		.size	port_unlock_from_isr, .-port_unlock_from_isr
 151              		.section	.text._stats_init,"ax",%progbits
 152              		.align	1
 153              		.p2align 4,,15
 154              		.global	_stats_init
 155              		.syntax unified
 156              		.thumb
 157              		.thumb_func
 158              		.fpu fpv4-sp-d16
 159              		.type	_stats_init, %function
 160              	_stats_init:
 161              	.LFB231:
 162              		.file 3 "../ChibiOS/os/rt/src/chstats.c"
 163              		.loc 3 62 0
 164              		.cfi_startproc
 165              		@ args = 0, pretend = 0, frame = 0
 166              		@ frame_needed = 0, uses_anonymous_args = 0
 167 0000 08B5     		push	{r3, lr}
 168              		.cfi_def_cfa_offset 8
 169              		.cfi_offset 3, -8
 170              		.cfi_offset 14, -4
 171              		.loc 3 64 0
ARM GAS  /tmp/ccR3FXEj.s 			page 4


 172 0002 084B     		ldr	r3, .L6
 173 0004 0022     		movs	r2, #0
 174 0006 C3F8A020 		str	r2, [r3, #160]
 175              		.loc 3 65 0
 176 000a 064B     		ldr	r3, .L6
 177 000c 0022     		movs	r2, #0
 178 000e C3F8A420 		str	r2, [r3, #164]
 179              		.loc 3 66 0
 180 0012 0548     		ldr	r0, .L6+4
 181 0014 FFF7FEFF 		bl	chTMObjectInit
 182              		.loc 3 67 0
 183 0018 0448     		ldr	r0, .L6+8
 184 001a FFF7FEFF 		bl	chTMObjectInit
 185              		.loc 3 68 0
 186 001e 00BF     		nop
 187 0020 08BD     		pop	{r3, pc}
 188              	.L7:
 189 0022 00BF     		.align	2
 190              	.L6:
 191 0024 00000000 		.word	ch
 192 0028 A8000000 		.word	ch+168
 193 002c C0000000 		.word	ch+192
 194              		.cfi_endproc
 195              	.LFE231:
 196              		.size	_stats_init, .-_stats_init
 197              		.section	.text._stats_increase_irq,"ax",%progbits
 198              		.align	1
 199              		.p2align 4,,15
 200              		.global	_stats_increase_irq
 201              		.syntax unified
 202              		.thumb
 203              		.thumb_func
 204              		.fpu fpv4-sp-d16
 205              		.type	_stats_increase_irq, %function
 206              	_stats_increase_irq:
 207              	.LFB232:
 208              		.loc 3 73 0
 209              		.cfi_startproc
 210              		@ args = 0, pretend = 0, frame = 0
 211              		@ frame_needed = 0, uses_anonymous_args = 0
 212 0000 08B5     		push	{r3, lr}
 213              		.cfi_def_cfa_offset 8
 214              		.cfi_offset 3, -8
 215              		.cfi_offset 14, -4
 216              		.loc 3 75 0
 217 0002 FFF7FEFF 		bl	port_lock_from_isr
 218              		.loc 3 76 0
 219 0006 054B     		ldr	r3, .L9
 220 0008 D3F8A030 		ldr	r3, [r3, #160]
 221 000c 0133     		adds	r3, r3, #1
 222 000e 034A     		ldr	r2, .L9
 223 0010 C2F8A030 		str	r3, [r2, #160]
 224              		.loc 3 77 0
 225 0014 FFF7FEFF 		bl	port_unlock_from_isr
 226              		.loc 3 78 0
 227 0018 00BF     		nop
 228 001a 08BD     		pop	{r3, pc}
ARM GAS  /tmp/ccR3FXEj.s 			page 5


 229              	.L10:
 230              		.align	2
 231              	.L9:
 232 001c 00000000 		.word	ch
 233              		.cfi_endproc
 234              	.LFE232:
 235              		.size	_stats_increase_irq, .-_stats_increase_irq
 236              		.section	.text._stats_ctxswc,"ax",%progbits
 237              		.align	1
 238              		.p2align 4,,15
 239              		.global	_stats_ctxswc
 240              		.syntax unified
 241              		.thumb
 242              		.thumb_func
 243              		.fpu fpv4-sp-d16
 244              		.type	_stats_ctxswc, %function
 245              	_stats_ctxswc:
 246              	.LFB233:
 247              		.loc 3 86 0
 248              		.cfi_startproc
 249              		@ args = 0, pretend = 0, frame = 8
 250              		@ frame_needed = 0, uses_anonymous_args = 0
 251 0000 00B5     		push	{lr}
 252              		.cfi_def_cfa_offset 4
 253              		.cfi_offset 14, -4
 254 0002 83B0     		sub	sp, sp, #12
 255              		.cfi_def_cfa_offset 16
 256 0004 0190     		str	r0, [sp, #4]
 257 0006 0091     		str	r1, [sp]
 258              		.loc 3 88 0
 259 0008 094B     		ldr	r3, .L12
 260 000a D3F8A430 		ldr	r3, [r3, #164]
 261 000e 0133     		adds	r3, r3, #1
 262 0010 074A     		ldr	r2, .L12
 263 0012 C2F8A430 		str	r3, [r2, #164]
 264              		.loc 3 89 0
 265 0016 009B     		ldr	r3, [sp]
 266 0018 03F14802 		add	r2, r3, #72
 267 001c 019B     		ldr	r3, [sp, #4]
 268 001e 4833     		adds	r3, r3, #72
 269 0020 1946     		mov	r1, r3
 270 0022 1046     		mov	r0, r2
 271 0024 FFF7FEFF 		bl	chTMChainMeasurementToX
 272              		.loc 3 90 0
 273 0028 00BF     		nop
 274 002a 03B0     		add	sp, sp, #12
 275              		.cfi_def_cfa_offset 4
 276              		@ sp needed
 277 002c 5DF804FB 		ldr	pc, [sp], #4
 278              	.L13:
 279              		.align	2
 280              	.L12:
 281 0030 00000000 		.word	ch
 282              		.cfi_endproc
 283              	.LFE233:
 284              		.size	_stats_ctxswc, .-_stats_ctxswc
 285              		.section	.text._stats_start_measure_crit_thd,"ax",%progbits
ARM GAS  /tmp/ccR3FXEj.s 			page 6


 286              		.align	1
 287              		.p2align 4,,15
 288              		.global	_stats_start_measure_crit_thd
 289              		.syntax unified
 290              		.thumb
 291              		.thumb_func
 292              		.fpu fpv4-sp-d16
 293              		.type	_stats_start_measure_crit_thd, %function
 294              	_stats_start_measure_crit_thd:
 295              	.LFB234:
 296              		.loc 3 95 0
 297              		.cfi_startproc
 298              		@ args = 0, pretend = 0, frame = 0
 299              		@ frame_needed = 0, uses_anonymous_args = 0
 300 0000 08B5     		push	{r3, lr}
 301              		.cfi_def_cfa_offset 8
 302              		.cfi_offset 3, -8
 303              		.cfi_offset 14, -4
 304              		.loc 3 97 0
 305 0002 0248     		ldr	r0, .L15
 306 0004 FFF7FEFF 		bl	chTMStartMeasurementX
 307              		.loc 3 98 0
 308 0008 00BF     		nop
 309 000a 08BD     		pop	{r3, pc}
 310              	.L16:
 311              		.align	2
 312              	.L15:
 313 000c A8000000 		.word	ch+168
 314              		.cfi_endproc
 315              	.LFE234:
 316              		.size	_stats_start_measure_crit_thd, .-_stats_start_measure_crit_thd
 317              		.section	.text._stats_stop_measure_crit_thd,"ax",%progbits
 318              		.align	1
 319              		.p2align 4,,15
 320              		.global	_stats_stop_measure_crit_thd
 321              		.syntax unified
 322              		.thumb
 323              		.thumb_func
 324              		.fpu fpv4-sp-d16
 325              		.type	_stats_stop_measure_crit_thd, %function
 326              	_stats_stop_measure_crit_thd:
 327              	.LFB235:
 328              		.loc 3 103 0
 329              		.cfi_startproc
 330              		@ args = 0, pretend = 0, frame = 0
 331              		@ frame_needed = 0, uses_anonymous_args = 0
 332 0000 08B5     		push	{r3, lr}
 333              		.cfi_def_cfa_offset 8
 334              		.cfi_offset 3, -8
 335              		.cfi_offset 14, -4
 336              		.loc 3 105 0
 337 0002 0248     		ldr	r0, .L18
 338 0004 FFF7FEFF 		bl	chTMStopMeasurementX
 339              		.loc 3 106 0
 340 0008 00BF     		nop
 341 000a 08BD     		pop	{r3, pc}
 342              	.L19:
ARM GAS  /tmp/ccR3FXEj.s 			page 7


 343              		.align	2
 344              	.L18:
 345 000c A8000000 		.word	ch+168
 346              		.cfi_endproc
 347              	.LFE235:
 348              		.size	_stats_stop_measure_crit_thd, .-_stats_stop_measure_crit_thd
 349              		.section	.text._stats_start_measure_crit_isr,"ax",%progbits
 350              		.align	1
 351              		.p2align 4,,15
 352              		.global	_stats_start_measure_crit_isr
 353              		.syntax unified
 354              		.thumb
 355              		.thumb_func
 356              		.fpu fpv4-sp-d16
 357              		.type	_stats_start_measure_crit_isr, %function
 358              	_stats_start_measure_crit_isr:
 359              	.LFB236:
 360              		.loc 3 111 0
 361              		.cfi_startproc
 362              		@ args = 0, pretend = 0, frame = 0
 363              		@ frame_needed = 0, uses_anonymous_args = 0
 364 0000 08B5     		push	{r3, lr}
 365              		.cfi_def_cfa_offset 8
 366              		.cfi_offset 3, -8
 367              		.cfi_offset 14, -4
 368              		.loc 3 113 0
 369 0002 0248     		ldr	r0, .L21
 370 0004 FFF7FEFF 		bl	chTMStartMeasurementX
 371              		.loc 3 114 0
 372 0008 00BF     		nop
 373 000a 08BD     		pop	{r3, pc}
 374              	.L22:
 375              		.align	2
 376              	.L21:
 377 000c C0000000 		.word	ch+192
 378              		.cfi_endproc
 379              	.LFE236:
 380              		.size	_stats_start_measure_crit_isr, .-_stats_start_measure_crit_isr
 381              		.section	.text._stats_stop_measure_crit_isr,"ax",%progbits
 382              		.align	1
 383              		.p2align 4,,15
 384              		.global	_stats_stop_measure_crit_isr
 385              		.syntax unified
 386              		.thumb
 387              		.thumb_func
 388              		.fpu fpv4-sp-d16
 389              		.type	_stats_stop_measure_crit_isr, %function
 390              	_stats_stop_measure_crit_isr:
 391              	.LFB237:
 392              		.loc 3 119 0
 393              		.cfi_startproc
 394              		@ args = 0, pretend = 0, frame = 0
 395              		@ frame_needed = 0, uses_anonymous_args = 0
 396 0000 08B5     		push	{r3, lr}
 397              		.cfi_def_cfa_offset 8
 398              		.cfi_offset 3, -8
 399              		.cfi_offset 14, -4
ARM GAS  /tmp/ccR3FXEj.s 			page 8


 400              		.loc 3 121 0
 401 0002 0248     		ldr	r0, .L24
 402 0004 FFF7FEFF 		bl	chTMStopMeasurementX
 403              		.loc 3 122 0
 404 0008 00BF     		nop
 405 000a 08BD     		pop	{r3, pc}
 406              	.L25:
 407              		.align	2
 408              	.L24:
 409 000c C0000000 		.word	ch+192
 410              		.cfi_endproc
 411              	.LFE237:
 412              		.size	_stats_stop_measure_crit_isr, .-_stats_stop_measure_crit_isr
 413              		.text
 414              	.Letext0:
 415              		.file 4 "/usr/arm-none-eabi/include/machine/_default_types.h"
 416              		.file 5 "/usr/arm-none-eabi/include/sys/_stdint.h"
 417              		.file 6 "../ChibiOS/os/rt/ports/ARMCMx/compilers/GCC/chtypes.h"
 418              		.file 7 "../ChibiOS/os/rt/include/chsystypes.h"
 419              		.file 8 "../ChibiOS/os/rt/include/chschd.h"
 420              		.file 9 "../ChibiOS/os/ext/CMSIS/include/core_cm4.h"
 421              		.file 10 "../ChibiOS/os/ext/CMSIS/ST/STM32F4xx/system_stm32f4xx.h"
 422              		.file 11 "../ChibiOS/os/rt/ports/ARMCMx/chcore.h"
 423              		.file 12 "../ChibiOS/os/rt/include/chtm.h"
 424              		.file 13 "../ChibiOS/os/rt/include/chstats.h"
 425              		.file 14 "../ChibiOS/os/rt/include/chsem.h"
 426              		.file 15 "../ChibiOS/os/rt/include/chmtx.h"
 427              		.file 16 "../ChibiOS/os/rt/include/chregistry.h"
 428              		.section	.debug_info,"",%progbits
 429              	.Ldebug_info0:
 430 0000 5E0A0000 		.4byte	0xa5e
 431 0004 0400     		.2byte	0x4
 432 0006 00000000 		.4byte	.Ldebug_abbrev0
 433 000a 04       		.byte	0x4
 434 000b 01       		.uleb128 0x1
 435 000c A3010000 		.4byte	.LASF154
 436 0010 0C       		.byte	0xc
 437 0011 42070000 		.4byte	.LASF155
 438 0015 64030000 		.4byte	.LASF156
 439 0019 00000000 		.4byte	.Ldebug_ranges0+0
 440 001d 00000000 		.4byte	0
 441 0021 00000000 		.4byte	.Ldebug_line0
 442 0025 02       		.uleb128 0x2
 443 0026 04       		.byte	0x4
 444 0027 05       		.byte	0x5
 445 0028 696E7400 		.ascii	"int\000"
 446 002c 03       		.uleb128 0x3
 447 002d 04       		.byte	0x4
 448 002e 07       		.byte	0x7
 449 002f 36030000 		.4byte	.LASF0
 450 0033 03       		.uleb128 0x3
 451 0034 08       		.byte	0x8
 452 0035 05       		.byte	0x5
 453 0036 2D010000 		.4byte	.LASF1
 454 003a 03       		.uleb128 0x3
 455 003b 08       		.byte	0x8
 456 003c 04       		.byte	0x4
ARM GAS  /tmp/ccR3FXEj.s 			page 9


 457 003d E6040000 		.4byte	.LASF2
 458 0041 03       		.uleb128 0x3
 459 0042 01       		.byte	0x1
 460 0043 06       		.byte	0x6
 461 0044 3B010000 		.4byte	.LASF3
 462 0048 04       		.uleb128 0x4
 463 0049 3D000000 		.4byte	.LASF6
 464 004d 04       		.byte	0x4
 465 004e 2B       		.byte	0x2b
 466 004f 53000000 		.4byte	0x53
 467 0053 03       		.uleb128 0x3
 468 0054 01       		.byte	0x1
 469 0055 08       		.byte	0x8
 470 0056 A0050000 		.4byte	.LASF4
 471 005a 03       		.uleb128 0x3
 472 005b 02       		.byte	0x2
 473 005c 05       		.byte	0x5
 474 005d B8050000 		.4byte	.LASF5
 475 0061 04       		.uleb128 0x4
 476 0062 B1060000 		.4byte	.LASF7
 477 0066 04       		.byte	0x4
 478 0067 39       		.byte	0x39
 479 0068 6C000000 		.4byte	0x6c
 480 006c 03       		.uleb128 0x3
 481 006d 02       		.byte	0x2
 482 006e 07       		.byte	0x7
 483 006f D8030000 		.4byte	.LASF8
 484 0073 04       		.uleb128 0x4
 485 0074 A0060000 		.4byte	.LASF9
 486 0078 04       		.byte	0x4
 487 0079 4D       		.byte	0x4d
 488 007a 7E000000 		.4byte	0x7e
 489 007e 03       		.uleb128 0x3
 490 007f 04       		.byte	0x4
 491 0080 05       		.byte	0x5
 492 0081 91010000 		.4byte	.LASF10
 493 0085 04       		.uleb128 0x4
 494 0086 04070000 		.4byte	.LASF11
 495 008a 04       		.byte	0x4
 496 008b 4F       		.byte	0x4f
 497 008c 90000000 		.4byte	0x90
 498 0090 03       		.uleb128 0x3
 499 0091 04       		.byte	0x4
 500 0092 07       		.byte	0x7
 501 0093 89060000 		.4byte	.LASF12
 502 0097 04       		.uleb128 0x4
 503 0098 41050000 		.4byte	.LASF13
 504 009c 04       		.byte	0x4
 505 009d 69       		.byte	0x69
 506 009e A2000000 		.4byte	0xa2
 507 00a2 03       		.uleb128 0x3
 508 00a3 08       		.byte	0x8
 509 00a4 07       		.byte	0x7
 510 00a5 96000000 		.4byte	.LASF14
 511 00a9 04       		.uleb128 0x4
 512 00aa B2070000 		.4byte	.LASF15
 513 00ae 05       		.byte	0x5
ARM GAS  /tmp/ccR3FXEj.s 			page 10


 514 00af 18       		.byte	0x18
 515 00b0 48000000 		.4byte	0x48
 516 00b4 04       		.uleb128 0x4
 517 00b5 4B030000 		.4byte	.LASF16
 518 00b9 05       		.byte	0x5
 519 00ba 24       		.byte	0x24
 520 00bb 61000000 		.4byte	0x61
 521 00bf 04       		.uleb128 0x4
 522 00c0 98050000 		.4byte	.LASF17
 523 00c4 05       		.byte	0x5
 524 00c5 2C       		.byte	0x2c
 525 00c6 73000000 		.4byte	0x73
 526 00ca 05       		.uleb128 0x5
 527 00cb BF000000 		.4byte	0xbf
 528 00cf 04       		.uleb128 0x4
 529 00d0 4C060000 		.4byte	.LASF18
 530 00d4 05       		.byte	0x5
 531 00d5 30       		.byte	0x30
 532 00d6 85000000 		.4byte	0x85
 533 00da 04       		.uleb128 0x4
 534 00db 27000000 		.4byte	.LASF19
 535 00df 05       		.byte	0x5
 536 00e0 3C       		.byte	0x3c
 537 00e1 97000000 		.4byte	0x97
 538 00e5 04       		.uleb128 0x4
 539 00e6 67070000 		.4byte	.LASF20
 540 00ea 06       		.byte	0x6
 541 00eb 39       		.byte	0x39
 542 00ec CF000000 		.4byte	0xcf
 543 00f0 04       		.uleb128 0x4
 544 00f1 10010000 		.4byte	.LASF21
 545 00f5 06       		.byte	0x6
 546 00f6 3A       		.byte	0x3a
 547 00f7 DA000000 		.4byte	0xda
 548 00fb 04       		.uleb128 0x4
 549 00fc DF050000 		.4byte	.LASF22
 550 0100 06       		.byte	0x6
 551 0101 3C       		.byte	0x3c
 552 0102 A9000000 		.4byte	0xa9
 553 0106 04       		.uleb128 0x4
 554 0107 9A010000 		.4byte	.LASF23
 555 010b 06       		.byte	0x6
 556 010c 3D       		.byte	0x3d
 557 010d A9000000 		.4byte	0xa9
 558 0111 04       		.uleb128 0x4
 559 0112 57050000 		.4byte	.LASF24
 560 0116 06       		.byte	0x6
 561 0117 3E       		.byte	0x3e
 562 0118 A9000000 		.4byte	0xa9
 563 011c 04       		.uleb128 0x4
 564 011d 81050000 		.4byte	.LASF25
 565 0121 06       		.byte	0x6
 566 0122 40       		.byte	0x40
 567 0123 CF000000 		.4byte	0xcf
 568 0127 04       		.uleb128 0x4
 569 0128 04040000 		.4byte	.LASF26
 570 012c 06       		.byte	0x6
ARM GAS  /tmp/ccR3FXEj.s 			page 11


 571 012d 41       		.byte	0x41
 572 012e BF000000 		.4byte	0xbf
 573 0132 04       		.uleb128 0x4
 574 0133 47040000 		.4byte	.LASF27
 575 0137 06       		.byte	0x6
 576 0138 43       		.byte	0x43
 577 0139 CF000000 		.4byte	0xcf
 578 013d 04       		.uleb128 0x4
 579 013e 25030000 		.4byte	.LASF28
 580 0142 06       		.byte	0x6
 581 0143 45       		.byte	0x45
 582 0144 BF000000 		.4byte	0xbf
 583 0148 04       		.uleb128 0x4
 584 0149 0F040000 		.4byte	.LASF29
 585 014d 06       		.byte	0x6
 586 014e 46       		.byte	0x46
 587 014f CF000000 		.4byte	0xcf
 588 0153 04       		.uleb128 0x4
 589 0154 E6060000 		.4byte	.LASF30
 590 0158 07       		.byte	0x7
 591 0159 33       		.byte	0x33
 592 015a CF000000 		.4byte	0xcf
 593 015e 05       		.uleb128 0x5
 594 015f 53010000 		.4byte	0x153
 595 0163 04       		.uleb128 0x4
 596 0164 D1060000 		.4byte	.LASF31
 597 0168 07       		.byte	0x7
 598 0169 3F       		.byte	0x3f
 599 016a 6E010000 		.4byte	0x16e
 600 016e 06       		.uleb128 0x6
 601 016f FA030000 		.4byte	.LASF53
 602 0173 60       		.byte	0x60
 603 0174 08       		.byte	0x8
 604 0175 C2       		.byte	0xc2
 605 0176 74020000 		.4byte	0x274
 606 017a 07       		.uleb128 0x7
 607 017b D8050000 		.4byte	.LASF32
 608 017f 08       		.byte	0x8
 609 0180 C3       		.byte	0xc3
 610 0181 7F020000 		.4byte	0x27f
 611 0185 00       		.byte	0
 612 0186 07       		.uleb128 0x7
 613 0187 7A050000 		.4byte	.LASF33
 614 018b 08       		.byte	0x8
 615 018c C5       		.byte	0xc5
 616 018d 7F020000 		.4byte	0x27f
 617 0191 04       		.byte	0x4
 618 0192 07       		.uleb128 0x7
 619 0193 19010000 		.4byte	.LASF34
 620 0197 08       		.byte	0x8
 621 0198 C7       		.byte	0xc7
 622 0199 1C010000 		.4byte	0x11c
 623 019d 08       		.byte	0x8
 624 019e 07       		.uleb128 0x7
 625 019f 18050000 		.4byte	.LASF35
 626 01a3 08       		.byte	0x8
 627 01a4 C8       		.byte	0xc8
ARM GAS  /tmp/ccR3FXEj.s 			page 12


 628 01a5 ED040000 		.4byte	0x4ed
 629 01a9 0C       		.byte	0xc
 630 01aa 07       		.uleb128 0x7
 631 01ab C6020000 		.4byte	.LASF36
 632 01af 08       		.byte	0x8
 633 01b0 CA       		.byte	0xca
 634 01b1 7F020000 		.4byte	0x27f
 635 01b5 10       		.byte	0x10
 636 01b6 07       		.uleb128 0x7
 637 01b7 0A050000 		.4byte	.LASF37
 638 01bb 08       		.byte	0x8
 639 01bc CB       		.byte	0xcb
 640 01bd 7F020000 		.4byte	0x27f
 641 01c1 14       		.byte	0x14
 642 01c2 07       		.uleb128 0x7
 643 01c3 E2070000 		.4byte	.LASF38
 644 01c7 08       		.byte	0x8
 645 01c8 D2       		.byte	0xd2
 646 01c9 CD070000 		.4byte	0x7cd
 647 01cd 18       		.byte	0x18
 648 01ce 07       		.uleb128 0x7
 649 01cf 2B030000 		.4byte	.LASF39
 650 01d3 08       		.byte	0x8
 651 01d4 D8       		.byte	0xd8
 652 01d5 E4070000 		.4byte	0x7e4
 653 01d9 1C       		.byte	0x1c
 654 01da 07       		.uleb128 0x7
 655 01db C2050000 		.4byte	.LASF40
 656 01df 08       		.byte	0x8
 657 01e0 DD       		.byte	0xdd
 658 01e1 06010000 		.4byte	0x106
 659 01e5 20       		.byte	0x20
 660 01e6 07       		.uleb128 0x7
 661 01e7 F6050000 		.4byte	.LASF41
 662 01eb 08       		.byte	0x8
 663 01ec E1       		.byte	0xe1
 664 01ed FB000000 		.4byte	0xfb
 665 01f1 21       		.byte	0x21
 666 01f2 07       		.uleb128 0x7
 667 01f3 9D070000 		.4byte	.LASF42
 668 01f7 08       		.byte	0x8
 669 01f8 E6       		.byte	0xe6
 670 01f9 11010000 		.4byte	0x111
 671 01fd 22       		.byte	0x22
 672 01fe 08       		.uleb128 0x8
 673 01ff 705F7500 		.ascii	"p_u\000"
 674 0203 08       		.byte	0x8
 675 0204 3101     		.2byte	0x131
 676 0206 08070000 		.4byte	0x708
 677 020a 24       		.byte	0x24
 678 020b 09       		.uleb128 0x9
 679 020c 9F040000 		.4byte	.LASF43
 680 0210 08       		.byte	0x8
 681 0211 3601     		.2byte	0x136
 682 0213 85020000 		.4byte	0x285
 683 0217 28       		.byte	0x28
 684 0218 09       		.uleb128 0x9
ARM GAS  /tmp/ccR3FXEj.s 			page 13


 685 0219 B8030000 		.4byte	.LASF44
 686 021d 08       		.byte	0x8
 687 021e 3C01     		.2byte	0x13c
 688 0220 A9020000 		.4byte	0x2a9
 689 0224 2C       		.byte	0x2c
 690 0225 09       		.uleb128 0x9
 691 0226 61070000 		.4byte	.LASF45
 692 022a 08       		.byte	0x8
 693 022b 4001     		.2byte	0x140
 694 022d 27010000 		.4byte	0x127
 695 0231 34       		.byte	0x34
 696 0232 09       		.uleb128 0x9
 697 0233 41060000 		.4byte	.LASF46
 698 0237 08       		.byte	0x8
 699 0238 4601     		.2byte	0x146
 700 023a 32010000 		.4byte	0x132
 701 023e 38       		.byte	0x38
 702 023f 09       		.uleb128 0x9
 703 0240 AE050000 		.4byte	.LASF47
 704 0244 08       		.byte	0x8
 705 0245 4D01     		.2byte	0x14d
 706 0247 C7070000 		.4byte	0x7c7
 707 024b 3C       		.byte	0x3c
 708 024c 09       		.uleb128 0x9
 709 024d F0060000 		.4byte	.LASF48
 710 0251 08       		.byte	0x8
 711 0252 5101     		.2byte	0x151
 712 0254 1C010000 		.4byte	0x11c
 713 0258 40       		.byte	0x40
 714 0259 09       		.uleb128 0x9
 715 025a 64010000 		.4byte	.LASF49
 716 025e 08       		.byte	0x8
 717 025f 5801     		.2byte	0x158
 718 0261 5C030000 		.4byte	0x35c
 719 0265 44       		.byte	0x44
 720 0266 09       		.uleb128 0x9
 721 0267 FE050000 		.4byte	.LASF50
 722 026b 08       		.byte	0x8
 723 026c 5E01     		.2byte	0x15e
 724 026e B9060000 		.4byte	0x6b9
 725 0272 48       		.byte	0x48
 726 0273 00       		.byte	0
 727 0274 04       		.uleb128 0x4
 728 0275 C8070000 		.4byte	.LASF51
 729 0279 07       		.byte	0x7
 730 027a 44       		.byte	0x44
 731 027b 7F020000 		.4byte	0x27f
 732 027f 0A       		.uleb128 0xa
 733 0280 04       		.byte	0x4
 734 0281 63010000 		.4byte	0x163
 735 0285 04       		.uleb128 0x4
 736 0286 7C040000 		.4byte	.LASF52
 737 028a 07       		.byte	0x7
 738 028b 49       		.byte	0x49
 739 028c 90020000 		.4byte	0x290
 740 0290 06       		.uleb128 0x6
 741 0291 71060000 		.4byte	.LASF54
ARM GAS  /tmp/ccR3FXEj.s 			page 14


 742 0295 04       		.byte	0x4
 743 0296 08       		.byte	0x8
 744 0297 B0       		.byte	0xb0
 745 0298 A9020000 		.4byte	0x2a9
 746 029c 07       		.uleb128 0x7
 747 029d D8050000 		.4byte	.LASF32
 748 02a1 08       		.byte	0x8
 749 02a2 B1       		.byte	0xb1
 750 02a3 7F020000 		.4byte	0x27f
 751 02a7 00       		.byte	0
 752 02a8 00       		.byte	0
 753 02a9 04       		.uleb128 0x4
 754 02aa 06060000 		.4byte	.LASF55
 755 02ae 07       		.byte	0x7
 756 02af 50       		.byte	0x50
 757 02b0 B4020000 		.4byte	0x2b4
 758 02b4 06       		.uleb128 0x6
 759 02b5 53000000 		.4byte	.LASF56
 760 02b9 08       		.byte	0x8
 761 02ba 08       		.byte	0x8
 762 02bb B7       		.byte	0xb7
 763 02bc D9020000 		.4byte	0x2d9
 764 02c0 07       		.uleb128 0x7
 765 02c1 D8050000 		.4byte	.LASF32
 766 02c5 08       		.byte	0x8
 767 02c6 B8       		.byte	0xb8
 768 02c7 7F020000 		.4byte	0x27f
 769 02cb 00       		.byte	0
 770 02cc 07       		.uleb128 0x7
 771 02cd 7A050000 		.4byte	.LASF33
 772 02d1 08       		.byte	0x8
 773 02d2 B9       		.byte	0xb9
 774 02d3 7F020000 		.4byte	0x27f
 775 02d7 04       		.byte	0x4
 776 02d8 00       		.byte	0
 777 02d9 04       		.uleb128 0x4
 778 02da 0D000000 		.4byte	.LASF57
 779 02de 07       		.byte	0x7
 780 02df 57       		.byte	0x57
 781 02e0 E4020000 		.4byte	0x2e4
 782 02e4 0B       		.uleb128 0xb
 783 02e5 39040000 		.4byte	.LASF58
 784 02e9 1C       		.byte	0x1c
 785 02ea 08       		.byte	0x8
 786 02eb 9001     		.2byte	0x190
 787 02ed 40030000 		.4byte	0x340
 788 02f1 09       		.uleb128 0x9
 789 02f2 69060000 		.4byte	.LASF59
 790 02f6 08       		.byte	0x8
 791 02f7 9101     		.2byte	0x191
 792 02f9 A9020000 		.4byte	0x2a9
 793 02fd 00       		.byte	0
 794 02fe 09       		.uleb128 0x9
 795 02ff CA050000 		.4byte	.LASF60
 796 0303 08       		.byte	0x8
 797 0304 9201     		.2byte	0x192
 798 0306 1C010000 		.4byte	0x11c
ARM GAS  /tmp/ccR3FXEj.s 			page 15


 799 030a 08       		.byte	0x8
 800 030b 09       		.uleb128 0x9
 801 030c 12050000 		.4byte	.LASF61
 802 0310 08       		.byte	0x8
 803 0311 9401     		.2byte	0x194
 804 0313 ED040000 		.4byte	0x4ed
 805 0317 0C       		.byte	0xc
 806 0318 09       		.uleb128 0x9
 807 0319 D6020000 		.4byte	.LASF62
 808 031d 08       		.byte	0x8
 809 031e 9701     		.2byte	0x197
 810 0320 7F020000 		.4byte	0x27f
 811 0324 10       		.byte	0x10
 812 0325 09       		.uleb128 0x9
 813 0326 39050000 		.4byte	.LASF63
 814 032a 08       		.byte	0x8
 815 032b 9801     		.2byte	0x198
 816 032d 7F020000 		.4byte	0x27f
 817 0331 14       		.byte	0x14
 818 0332 09       		.uleb128 0x9
 819 0333 2F050000 		.4byte	.LASF64
 820 0337 08       		.byte	0x8
 821 0338 9B01     		.2byte	0x19b
 822 033a 7F020000 		.4byte	0x27f
 823 033e 18       		.byte	0x18
 824 033f 00       		.byte	0
 825 0340 04       		.uleb128 0x4
 826 0341 FB060000 		.4byte	.LASF65
 827 0345 07       		.byte	0x7
 828 0346 5C       		.byte	0x5c
 829 0347 4B030000 		.4byte	0x34b
 830 034b 0A       		.uleb128 0xa
 831 034c 04       		.byte	0x4
 832 034d 51030000 		.4byte	0x351
 833 0351 0C       		.uleb128 0xc
 834 0352 5C030000 		.4byte	0x35c
 835 0356 0D       		.uleb128 0xd
 836 0357 5C030000 		.4byte	0x35c
 837 035b 00       		.byte	0
 838 035c 0E       		.uleb128 0xe
 839 035d 04       		.byte	0x4
 840 035e 04       		.uleb128 0x4
 841 035f 6A050000 		.4byte	.LASF66
 842 0363 07       		.byte	0x7
 843 0364 61       		.byte	0x61
 844 0365 69030000 		.4byte	0x369
 845 0369 0B       		.uleb128 0xb
 846 036a 16060000 		.4byte	.LASF67
 847 036e 14       		.byte	0x14
 848 036f 08       		.byte	0x8
 849 0370 6B01     		.2byte	0x16b
 850 0372 B8030000 		.4byte	0x3b8
 851 0376 09       		.uleb128 0x9
 852 0377 43030000 		.4byte	.LASF68
 853 037b 08       		.byte	0x8
 854 037c 6C01     		.2byte	0x16c
 855 037e EA070000 		.4byte	0x7ea
ARM GAS  /tmp/ccR3FXEj.s 			page 16


 856 0382 00       		.byte	0
 857 0383 09       		.uleb128 0x9
 858 0384 E7020000 		.4byte	.LASF69
 859 0388 08       		.byte	0x8
 860 0389 6D01     		.2byte	0x16d
 861 038b EA070000 		.4byte	0x7ea
 862 038f 04       		.byte	0x4
 863 0390 09       		.uleb128 0x9
 864 0391 AF030000 		.4byte	.LASF70
 865 0395 08       		.byte	0x8
 866 0396 6E01     		.2byte	0x16e
 867 0398 53010000 		.4byte	0x153
 868 039c 08       		.byte	0x8
 869 039d 09       		.uleb128 0x9
 870 039e 49080000 		.4byte	.LASF71
 871 03a2 08       		.byte	0x8
 872 03a3 6F01     		.2byte	0x16f
 873 03a5 40030000 		.4byte	0x340
 874 03a9 0C       		.byte	0xc
 875 03aa 09       		.uleb128 0x9
 876 03ab 82070000 		.4byte	.LASF72
 877 03af 08       		.byte	0x8
 878 03b0 7101     		.2byte	0x171
 879 03b2 5C030000 		.4byte	0x35c
 880 03b6 10       		.byte	0x10
 881 03b7 00       		.byte	0
 882 03b8 04       		.uleb128 0x4
 883 03b9 ED000000 		.4byte	.LASF73
 884 03bd 07       		.byte	0x7
 885 03be 66       		.byte	0x66
 886 03bf C3030000 		.4byte	0x3c3
 887 03c3 0B       		.uleb128 0xb
 888 03c4 CF040000 		.4byte	.LASF74
 889 03c8 10       		.byte	0x10
 890 03c9 08       		.byte	0x8
 891 03ca 7B01     		.2byte	0x17b
 892 03cc 05040000 		.4byte	0x405
 893 03d0 09       		.uleb128 0x9
 894 03d1 43030000 		.4byte	.LASF68
 895 03d5 08       		.byte	0x8
 896 03d6 7C01     		.2byte	0x17c
 897 03d8 EA070000 		.4byte	0x7ea
 898 03dc 00       		.byte	0
 899 03dd 09       		.uleb128 0x9
 900 03de E7020000 		.4byte	.LASF69
 901 03e2 08       		.byte	0x8
 902 03e3 7E01     		.2byte	0x17e
 903 03e5 EA070000 		.4byte	0x7ea
 904 03e9 04       		.byte	0x4
 905 03ea 09       		.uleb128 0x9
 906 03eb AF030000 		.4byte	.LASF70
 907 03ef 08       		.byte	0x8
 908 03f0 8001     		.2byte	0x180
 909 03f2 53010000 		.4byte	0x153
 910 03f6 08       		.byte	0x8
 911 03f7 09       		.uleb128 0x9
 912 03f8 E9070000 		.4byte	.LASF75
ARM GAS  /tmp/ccR3FXEj.s 			page 17


 913 03fc 08       		.byte	0x8
 914 03fd 8201     		.2byte	0x182
 915 03ff 5E010000 		.4byte	0x15e
 916 0403 0C       		.byte	0xc
 917 0404 00       		.byte	0
 918 0405 04       		.uleb128 0x4
 919 0406 64000000 		.4byte	.LASF76
 920 040a 07       		.byte	0x7
 921 040b 6B       		.byte	0x6b
 922 040c 10040000 		.4byte	0x410
 923 0410 0B       		.uleb128 0xb
 924 0411 EF020000 		.4byte	.LASF77
 925 0415 0C       		.byte	0xc
 926 0416 08       		.byte	0x8
 927 0417 A201     		.2byte	0x1a2
 928 0419 45040000 		.4byte	0x445
 929 041d 09       		.uleb128 0x9
 930 041e 1D070000 		.4byte	.LASF78
 931 0422 08       		.byte	0x8
 932 0423 AA01     		.2byte	0x1aa
 933 0425 D3070000 		.4byte	0x7d3
 934 0429 00       		.byte	0
 935 042a 09       		.uleb128 0x9
 936 042b A4070000 		.4byte	.LASF79
 937 042f 08       		.byte	0x8
 938 0430 AF01     		.2byte	0x1af
 939 0432 3D010000 		.4byte	0x13d
 940 0436 04       		.byte	0x4
 941 0437 09       		.uleb128 0x9
 942 0438 0D030000 		.4byte	.LASF80
 943 043c 08       		.byte	0x8
 944 043d B301     		.2byte	0x1b3
 945 043f 3D010000 		.4byte	0x13d
 946 0443 08       		.byte	0x8
 947 0444 00       		.byte	0
 948 0445 04       		.uleb128 0x4
 949 0446 16040000 		.4byte	.LASF81
 950 044a 07       		.byte	0x7
 951 044b 70       		.byte	0x70
 952 044c 50040000 		.4byte	0x450
 953 0450 0F       		.uleb128 0xf
 954 0451 87010000 		.4byte	.LASF82
 955 0455 5802     		.2byte	0x258
 956 0457 08       		.byte	0x8
 957 0458 C201     		.2byte	0x1c2
 958 045a B9040000 		.4byte	0x4b9
 959 045e 09       		.uleb128 0x9
 960 045f AC070000 		.4byte	.LASF83
 961 0463 08       		.byte	0x8
 962 0464 C601     		.2byte	0x1c6
 963 0466 D9020000 		.4byte	0x2d9
 964 046a 00       		.byte	0
 965 046b 09       		.uleb128 0x9
 966 046c 74010000 		.4byte	.LASF84
 967 0470 08       		.byte	0x8
 968 0471 CA01     		.2byte	0x1ca
 969 0473 B8030000 		.4byte	0x3b8
ARM GAS  /tmp/ccR3FXEj.s 			page 18


 970 0477 1C       		.byte	0x1c
 971 0478 08       		.uleb128 0x8
 972 0479 64626700 		.ascii	"dbg\000"
 973 047d 08       		.byte	0x8
 974 047e CE01     		.2byte	0x1ce
 975 0480 05040000 		.4byte	0x405
 976 0484 2C       		.byte	0x2c
 977 0485 09       		.uleb128 0x9
 978 0486 C4000000 		.4byte	.LASF85
 979 048a 08       		.byte	0x8
 980 048b D201     		.2byte	0x1d2
 981 048d 63010000 		.4byte	0x163
 982 0491 38       		.byte	0x38
 983 0492 08       		.uleb128 0x8
 984 0493 746D00   		.ascii	"tm\000"
 985 0496 08       		.byte	0x8
 986 0497 D701     		.2byte	0x1d7
 987 0499 6B060000 		.4byte	0x66b
 988 049d 98       		.byte	0x98
 989 049e 09       		.uleb128 0x9
 990 049f 30000000 		.4byte	.LASF86
 991 04a3 08       		.byte	0x8
 992 04a4 DD01     		.2byte	0x1dd
 993 04a6 FD060000 		.4byte	0x6fd
 994 04aa A0       		.byte	0xa0
 995 04ab 09       		.uleb128 0x9
 996 04ac 16030000 		.4byte	.LASF87
 997 04b0 08       		.byte	0x8
 998 04b1 E301     		.2byte	0x1e3
 999 04b3 F0070000 		.4byte	0x7f0
 1000 04b7 D8       		.byte	0xd8
 1001 04b8 00       		.byte	0
 1002 04b9 03       		.uleb128 0x3
 1003 04ba 04       		.byte	0x4
 1004 04bb 07       		.byte	0x7
 1005 04bc C6040000 		.4byte	.LASF88
 1006 04c0 10       		.uleb128 0x10
 1007 04c1 03010000 		.4byte	.LASF89
 1008 04c5 09       		.byte	0x9
 1009 04c6 FA06     		.2byte	0x6fa
 1010 04c8 CA000000 		.4byte	0xca
 1011 04cc 11       		.uleb128 0x11
 1012 04cd 54030000 		.4byte	.LASF90
 1013 04d1 0A       		.byte	0xa
 1014 04d2 4C       		.byte	0x4c
 1015 04d3 CF000000 		.4byte	0xcf
 1016 04d7 04       		.uleb128 0x4
 1017 04d8 DE020000 		.4byte	.LASF91
 1018 04dc 0B       		.byte	0xb
 1019 04dd 65       		.byte	0x65
 1020 04de 5C030000 		.4byte	0x35c
 1021 04e2 04       		.uleb128 0x4
 1022 04e3 71040000 		.4byte	.LASF92
 1023 04e7 0B       		.byte	0xb
 1024 04e8 6D       		.byte	0x6d
 1025 04e9 DA000000 		.4byte	0xda
 1026 04ed 06       		.uleb128 0x6
ARM GAS  /tmp/ccR3FXEj.s 			page 19


 1027 04ee 3A070000 		.4byte	.LASF93
 1028 04f2 04       		.byte	0x4
 1029 04f3 0B       		.byte	0xb
 1030 04f4 89       		.byte	0x89
 1031 04f5 06050000 		.4byte	0x506
 1032 04f9 12       		.uleb128 0x12
 1033 04fa 72313300 		.ascii	"r13\000"
 1034 04fe 0B       		.byte	0xb
 1035 04ff 8A       		.byte	0x8a
 1036 0500 50060000 		.4byte	0x650
 1037 0504 00       		.byte	0
 1038 0505 00       		.byte	0
 1039 0506 06       		.uleb128 0x6
 1040 0507 47000000 		.4byte	.LASF94
 1041 050b 64       		.byte	0x64
 1042 050c 01       		.byte	0x1
 1043 050d FD       		.byte	0xfd
 1044 050e 50060000 		.4byte	0x650
 1045 0512 12       		.uleb128 0x12
 1046 0513 73313600 		.ascii	"s16\000"
 1047 0517 01       		.byte	0x1
 1048 0518 FF       		.byte	0xff
 1049 0519 D7040000 		.4byte	0x4d7
 1050 051d 00       		.byte	0
 1051 051e 08       		.uleb128 0x8
 1052 051f 73313700 		.ascii	"s17\000"
 1053 0523 01       		.byte	0x1
 1054 0524 0001     		.2byte	0x100
 1055 0526 D7040000 		.4byte	0x4d7
 1056 052a 04       		.byte	0x4
 1057 052b 08       		.uleb128 0x8
 1058 052c 73313800 		.ascii	"s18\000"
 1059 0530 01       		.byte	0x1
 1060 0531 0101     		.2byte	0x101
 1061 0533 D7040000 		.4byte	0x4d7
 1062 0537 08       		.byte	0x8
 1063 0538 08       		.uleb128 0x8
 1064 0539 73313900 		.ascii	"s19\000"
 1065 053d 01       		.byte	0x1
 1066 053e 0201     		.2byte	0x102
 1067 0540 D7040000 		.4byte	0x4d7
 1068 0544 0C       		.byte	0xc
 1069 0545 08       		.uleb128 0x8
 1070 0546 73323000 		.ascii	"s20\000"
 1071 054a 01       		.byte	0x1
 1072 054b 0301     		.2byte	0x103
 1073 054d D7040000 		.4byte	0x4d7
 1074 0551 10       		.byte	0x10
 1075 0552 08       		.uleb128 0x8
 1076 0553 73323100 		.ascii	"s21\000"
 1077 0557 01       		.byte	0x1
 1078 0558 0401     		.2byte	0x104
 1079 055a D7040000 		.4byte	0x4d7
 1080 055e 14       		.byte	0x14
 1081 055f 08       		.uleb128 0x8
 1082 0560 73323200 		.ascii	"s22\000"
 1083 0564 01       		.byte	0x1
ARM GAS  /tmp/ccR3FXEj.s 			page 20


 1084 0565 0501     		.2byte	0x105
 1085 0567 D7040000 		.4byte	0x4d7
 1086 056b 18       		.byte	0x18
 1087 056c 08       		.uleb128 0x8
 1088 056d 73323300 		.ascii	"s23\000"
 1089 0571 01       		.byte	0x1
 1090 0572 0601     		.2byte	0x106
 1091 0574 D7040000 		.4byte	0x4d7
 1092 0578 1C       		.byte	0x1c
 1093 0579 08       		.uleb128 0x8
 1094 057a 73323400 		.ascii	"s24\000"
 1095 057e 01       		.byte	0x1
 1096 057f 0701     		.2byte	0x107
 1097 0581 D7040000 		.4byte	0x4d7
 1098 0585 20       		.byte	0x20
 1099 0586 08       		.uleb128 0x8
 1100 0587 73323500 		.ascii	"s25\000"
 1101 058b 01       		.byte	0x1
 1102 058c 0801     		.2byte	0x108
 1103 058e D7040000 		.4byte	0x4d7
 1104 0592 24       		.byte	0x24
 1105 0593 08       		.uleb128 0x8
 1106 0594 73323600 		.ascii	"s26\000"
 1107 0598 01       		.byte	0x1
 1108 0599 0901     		.2byte	0x109
 1109 059b D7040000 		.4byte	0x4d7
 1110 059f 28       		.byte	0x28
 1111 05a0 08       		.uleb128 0x8
 1112 05a1 73323700 		.ascii	"s27\000"
 1113 05a5 01       		.byte	0x1
 1114 05a6 0A01     		.2byte	0x10a
 1115 05a8 D7040000 		.4byte	0x4d7
 1116 05ac 2C       		.byte	0x2c
 1117 05ad 08       		.uleb128 0x8
 1118 05ae 73323800 		.ascii	"s28\000"
 1119 05b2 01       		.byte	0x1
 1120 05b3 0B01     		.2byte	0x10b
 1121 05b5 D7040000 		.4byte	0x4d7
 1122 05b9 30       		.byte	0x30
 1123 05ba 08       		.uleb128 0x8
 1124 05bb 73323900 		.ascii	"s29\000"
 1125 05bf 01       		.byte	0x1
 1126 05c0 0C01     		.2byte	0x10c
 1127 05c2 D7040000 		.4byte	0x4d7
 1128 05c6 34       		.byte	0x34
 1129 05c7 08       		.uleb128 0x8
 1130 05c8 73333000 		.ascii	"s30\000"
 1131 05cc 01       		.byte	0x1
 1132 05cd 0D01     		.2byte	0x10d
 1133 05cf D7040000 		.4byte	0x4d7
 1134 05d3 38       		.byte	0x38
 1135 05d4 08       		.uleb128 0x8
 1136 05d5 73333100 		.ascii	"s31\000"
 1137 05d9 01       		.byte	0x1
 1138 05da 0E01     		.2byte	0x10e
 1139 05dc D7040000 		.4byte	0x4d7
 1140 05e0 3C       		.byte	0x3c
ARM GAS  /tmp/ccR3FXEj.s 			page 21


 1141 05e1 08       		.uleb128 0x8
 1142 05e2 723400   		.ascii	"r4\000"
 1143 05e5 01       		.byte	0x1
 1144 05e6 1001     		.2byte	0x110
 1145 05e8 D7040000 		.4byte	0x4d7
 1146 05ec 40       		.byte	0x40
 1147 05ed 08       		.uleb128 0x8
 1148 05ee 723500   		.ascii	"r5\000"
 1149 05f1 01       		.byte	0x1
 1150 05f2 1101     		.2byte	0x111
 1151 05f4 D7040000 		.4byte	0x4d7
 1152 05f8 44       		.byte	0x44
 1153 05f9 08       		.uleb128 0x8
 1154 05fa 723600   		.ascii	"r6\000"
 1155 05fd 01       		.byte	0x1
 1156 05fe 1201     		.2byte	0x112
 1157 0600 D7040000 		.4byte	0x4d7
 1158 0604 48       		.byte	0x48
 1159 0605 08       		.uleb128 0x8
 1160 0606 723700   		.ascii	"r7\000"
 1161 0609 01       		.byte	0x1
 1162 060a 1301     		.2byte	0x113
 1163 060c D7040000 		.4byte	0x4d7
 1164 0610 4C       		.byte	0x4c
 1165 0611 08       		.uleb128 0x8
 1166 0612 723800   		.ascii	"r8\000"
 1167 0615 01       		.byte	0x1
 1168 0616 1401     		.2byte	0x114
 1169 0618 D7040000 		.4byte	0x4d7
 1170 061c 50       		.byte	0x50
 1171 061d 08       		.uleb128 0x8
 1172 061e 723900   		.ascii	"r9\000"
 1173 0621 01       		.byte	0x1
 1174 0622 1501     		.2byte	0x115
 1175 0624 D7040000 		.4byte	0x4d7
 1176 0628 54       		.byte	0x54
 1177 0629 08       		.uleb128 0x8
 1178 062a 72313000 		.ascii	"r10\000"
 1179 062e 01       		.byte	0x1
 1180 062f 1601     		.2byte	0x116
 1181 0631 D7040000 		.4byte	0x4d7
 1182 0635 58       		.byte	0x58
 1183 0636 08       		.uleb128 0x8
 1184 0637 72313100 		.ascii	"r11\000"
 1185 063b 01       		.byte	0x1
 1186 063c 1701     		.2byte	0x117
 1187 063e D7040000 		.4byte	0x4d7
 1188 0642 5C       		.byte	0x5c
 1189 0643 08       		.uleb128 0x8
 1190 0644 6C7200   		.ascii	"lr\000"
 1191 0647 01       		.byte	0x1
 1192 0648 1801     		.2byte	0x118
 1193 064a D7040000 		.4byte	0x4d7
 1194 064e 60       		.byte	0x60
 1195 064f 00       		.byte	0
 1196 0650 0A       		.uleb128 0xa
 1197 0651 04       		.byte	0x4
ARM GAS  /tmp/ccR3FXEj.s 			page 22


 1198 0652 06050000 		.4byte	0x506
 1199 0656 13       		.uleb128 0x13
 1200 0657 04       		.byte	0x4
 1201 0658 0C       		.byte	0xc
 1202 0659 38       		.byte	0x38
 1203 065a 6B060000 		.4byte	0x66b
 1204 065e 07       		.uleb128 0x7
 1205 065f 33070000 		.4byte	.LASF95
 1206 0663 0C       		.byte	0xc
 1207 0664 3C       		.byte	0x3c
 1208 0665 E5000000 		.4byte	0xe5
 1209 0669 00       		.byte	0
 1210 066a 00       		.byte	0
 1211 066b 04       		.uleb128 0x4
 1212 066c 1E050000 		.4byte	.LASF96
 1213 0670 0C       		.byte	0xc
 1214 0671 3D       		.byte	0x3d
 1215 0672 56060000 		.4byte	0x656
 1216 0676 13       		.uleb128 0x13
 1217 0677 18       		.byte	0x18
 1218 0678 0C       		.byte	0xc
 1219 0679 48       		.byte	0x48
 1220 067a B9060000 		.4byte	0x6b9
 1221 067e 07       		.uleb128 0x7
 1222 067f DA060000 		.4byte	.LASF97
 1223 0683 0C       		.byte	0xc
 1224 0684 49       		.byte	0x49
 1225 0685 E5000000 		.4byte	0xe5
 1226 0689 00       		.byte	0
 1227 068a 07       		.uleb128 0x7
 1228 068b 7D000000 		.4byte	.LASF98
 1229 068f 0C       		.byte	0xc
 1230 0690 4A       		.byte	0x4a
 1231 0691 E5000000 		.4byte	0xe5
 1232 0695 04       		.byte	0x4
 1233 0696 07       		.uleb128 0x7
 1234 0697 0A040000 		.4byte	.LASF99
 1235 069b 0C       		.byte	0xc
 1236 069c 4B       		.byte	0x4b
 1237 069d E5000000 		.4byte	0xe5
 1238 06a1 08       		.byte	0x8
 1239 06a2 12       		.uleb128 0x12
 1240 06a3 6E00     		.ascii	"n\000"
 1241 06a5 0C       		.byte	0xc
 1242 06a6 4C       		.byte	0x4c
 1243 06a7 48010000 		.4byte	0x148
 1244 06ab 0C       		.byte	0xc
 1245 06ac 07       		.uleb128 0x7
 1246 06ad 4C050000 		.4byte	.LASF100
 1247 06b1 0C       		.byte	0xc
 1248 06b2 4D       		.byte	0x4d
 1249 06b3 F0000000 		.4byte	0xf0
 1250 06b7 10       		.byte	0x10
 1251 06b8 00       		.byte	0
 1252 06b9 04       		.uleb128 0x4
 1253 06ba 83000000 		.4byte	.LASF101
 1254 06be 0C       		.byte	0xc
ARM GAS  /tmp/ccR3FXEj.s 			page 23


 1255 06bf 4E       		.byte	0x4e
 1256 06c0 76060000 		.4byte	0x676
 1257 06c4 13       		.uleb128 0x13
 1258 06c5 38       		.byte	0x38
 1259 06c6 0D       		.byte	0xd
 1260 06c7 38       		.byte	0x38
 1261 06c8 FD060000 		.4byte	0x6fd
 1262 06cc 07       		.uleb128 0x7
 1263 06cd CC030000 		.4byte	.LASF102
 1264 06d1 0D       		.byte	0xd
 1265 06d2 39       		.byte	0x39
 1266 06d3 48010000 		.4byte	0x148
 1267 06d7 00       		.byte	0
 1268 06d8 07       		.uleb128 0x7
 1269 06d9 89050000 		.4byte	.LASF103
 1270 06dd 0D       		.byte	0xd
 1271 06de 3A       		.byte	0x3a
 1272 06df 48010000 		.4byte	0x148
 1273 06e3 04       		.byte	0x4
 1274 06e4 07       		.uleb128 0x7
 1275 06e5 28080000 		.4byte	.LASF104
 1276 06e9 0D       		.byte	0xd
 1277 06ea 3B       		.byte	0x3b
 1278 06eb B9060000 		.4byte	0x6b9
 1279 06ef 08       		.byte	0x8
 1280 06f0 07       		.uleb128 0x7
 1281 06f1 2E040000 		.4byte	.LASF105
 1282 06f5 0D       		.byte	0xd
 1283 06f6 3D       		.byte	0x3d
 1284 06f7 B9060000 		.4byte	0x6b9
 1285 06fb 20       		.byte	0x20
 1286 06fc 00       		.byte	0
 1287 06fd 04       		.uleb128 0x4
 1288 06fe EB030000 		.4byte	.LASF106
 1289 0702 0D       		.byte	0xd
 1290 0703 3F       		.byte	0x3f
 1291 0704 C4060000 		.4byte	0x6c4
 1292 0708 14       		.uleb128 0x14
 1293 0709 04       		.byte	0x4
 1294 070a 08       		.byte	0x8
 1295 070b FA       		.byte	0xfa
 1296 070c 65070000 		.4byte	0x765
 1297 0710 15       		.uleb128 0x15
 1298 0711 20000000 		.4byte	.LASF107
 1299 0715 08       		.byte	0x8
 1300 0716 0101     		.2byte	0x101
 1301 0718 27010000 		.4byte	0x127
 1302 071c 15       		.uleb128 0x15
 1303 071d BB000000 		.4byte	.LASF108
 1304 0721 08       		.byte	0x8
 1305 0722 0801     		.2byte	0x108
 1306 0724 27010000 		.4byte	0x127
 1307 0728 15       		.uleb128 0x15
 1308 0729 DB070000 		.4byte	.LASF109
 1309 072d 08       		.byte	0x8
 1310 072e 0F01     		.2byte	0x10f
 1311 0730 5C030000 		.4byte	0x35c
ARM GAS  /tmp/ccR3FXEj.s 			page 24


 1312 0734 15       		.uleb128 0x15
 1313 0735 1A000000 		.4byte	.LASF110
 1314 0739 08       		.byte	0x8
 1315 073a 1601     		.2byte	0x116
 1316 073c 65070000 		.4byte	0x765
 1317 0740 15       		.uleb128 0x15
 1318 0741 A8030000 		.4byte	.LASF111
 1319 0745 08       		.byte	0x8
 1320 0746 1E01     		.2byte	0x11e
 1321 0748 90070000 		.4byte	0x790
 1322 074c 15       		.uleb128 0x15
 1323 074d AA060000 		.4byte	.LASF112
 1324 0751 08       		.byte	0x8
 1325 0752 2701     		.2byte	0x127
 1326 0754 C7070000 		.4byte	0x7c7
 1327 0758 15       		.uleb128 0x15
 1328 0759 D1050000 		.4byte	.LASF113
 1329 075d 08       		.byte	0x8
 1330 075e 2F01     		.2byte	0x12f
 1331 0760 32010000 		.4byte	0x132
 1332 0764 00       		.byte	0
 1333 0765 0A       		.uleb128 0xa
 1334 0766 04       		.byte	0x4
 1335 0767 74020000 		.4byte	0x274
 1336 076b 06       		.uleb128 0x6
 1337 076c 34060000 		.4byte	.LASF114
 1338 0770 0C       		.byte	0xc
 1339 0771 0E       		.byte	0xe
 1340 0772 34       		.byte	0x34
 1341 0773 90070000 		.4byte	0x790
 1342 0777 07       		.uleb128 0x7
 1343 0778 CE020000 		.4byte	.LASF115
 1344 077c 0E       		.byte	0xe
 1345 077d 35       		.byte	0x35
 1346 077e A9020000 		.4byte	0x2a9
 1347 0782 00       		.byte	0
 1348 0783 07       		.uleb128 0x7
 1349 0784 D2030000 		.4byte	.LASF116
 1350 0788 0E       		.byte	0xe
 1351 0789 37       		.byte	0x37
 1352 078a 3D010000 		.4byte	0x13d
 1353 078e 08       		.byte	0x8
 1354 078f 00       		.byte	0
 1355 0790 0A       		.uleb128 0xa
 1356 0791 04       		.byte	0x4
 1357 0792 6B070000 		.4byte	0x76b
 1358 0796 06       		.uleb128 0x6
 1359 0797 94070000 		.4byte	.LASF117
 1360 079b 10       		.byte	0x10
 1361 079c 0F       		.byte	0xf
 1362 079d 39       		.byte	0x39
 1363 079e C7070000 		.4byte	0x7c7
 1364 07a2 07       		.uleb128 0x7
 1365 07a3 6C010000 		.4byte	.LASF118
 1366 07a7 0F       		.byte	0xf
 1367 07a8 3A       		.byte	0x3a
 1368 07a9 A9020000 		.4byte	0x2a9
ARM GAS  /tmp/ccR3FXEj.s 			page 25


 1369 07ad 00       		.byte	0
 1370 07ae 07       		.uleb128 0x7
 1371 07af 33080000 		.4byte	.LASF119
 1372 07b3 0F       		.byte	0xf
 1373 07b4 3C       		.byte	0x3c
 1374 07b5 7F020000 		.4byte	0x27f
 1375 07b9 08       		.byte	0x8
 1376 07ba 07       		.uleb128 0x7
 1377 07bb DF060000 		.4byte	.LASF120
 1378 07bf 0F       		.byte	0xf
 1379 07c0 3E       		.byte	0x3e
 1380 07c1 22090000 		.4byte	0x922
 1381 07c5 0C       		.byte	0xc
 1382 07c6 00       		.byte	0
 1383 07c7 0A       		.uleb128 0xa
 1384 07c8 04       		.byte	0x4
 1385 07c9 96070000 		.4byte	0x796
 1386 07cd 0A       		.uleb128 0xa
 1387 07ce 04       		.byte	0x4
 1388 07cf DF070000 		.4byte	0x7df
 1389 07d3 05       		.uleb128 0x5
 1390 07d4 CD070000 		.4byte	0x7cd
 1391 07d8 03       		.uleb128 0x3
 1392 07d9 01       		.byte	0x1
 1393 07da 08       		.byte	0x8
 1394 07db 9B060000 		.4byte	.LASF121
 1395 07df 16       		.uleb128 0x16
 1396 07e0 D8070000 		.4byte	0x7d8
 1397 07e4 0A       		.uleb128 0xa
 1398 07e5 04       		.byte	0x4
 1399 07e6 E2040000 		.4byte	0x4e2
 1400 07ea 0A       		.uleb128 0xa
 1401 07eb 04       		.byte	0x4
 1402 07ec 5E030000 		.4byte	0x35e
 1403 07f0 17       		.uleb128 0x17
 1404 07f1 E2040000 		.4byte	0x4e2
 1405 07f5 00080000 		.4byte	0x800
 1406 07f9 18       		.uleb128 0x18
 1407 07fa B9040000 		.4byte	0x4b9
 1408 07fe 2F       		.byte	0x2f
 1409 07ff 00       		.byte	0
 1410 0800 19       		.uleb128 0x19
 1411 0801 636800   		.ascii	"ch\000"
 1412 0804 08       		.byte	0x8
 1413 0805 0902     		.2byte	0x209
 1414 0807 45040000 		.4byte	0x445
 1415 080b 13       		.uleb128 0x13
 1416 080c 16       		.byte	0x16
 1417 080d 10       		.byte	0x10
 1418 080e 34       		.byte	0x34
 1419 080f EC080000 		.4byte	0x8ec
 1420 0813 07       		.uleb128 0x7
 1421 0814 3B080000 		.4byte	.LASF122
 1422 0818 10       		.byte	0x10
 1423 0819 35       		.byte	0x35
 1424 081a EC080000 		.4byte	0x8ec
 1425 081e 00       		.byte	0
ARM GAS  /tmp/ccR3FXEj.s 			page 26


 1426 081f 07       		.uleb128 0x7
 1427 0820 8B040000 		.4byte	.LASF123
 1428 0824 10       		.byte	0x10
 1429 0825 36       		.byte	0x36
 1430 0826 A9000000 		.4byte	0xa9
 1431 082a 04       		.byte	0x4
 1432 082b 07       		.uleb128 0x7
 1433 082c 81060000 		.4byte	.LASF124
 1434 0830 10       		.byte	0x10
 1435 0831 37       		.byte	0x37
 1436 0832 A9000000 		.4byte	0xa9
 1437 0836 05       		.byte	0x5
 1438 0837 07       		.uleb128 0x7
 1439 0838 F4070000 		.4byte	.LASF125
 1440 083c 10       		.byte	0x10
 1441 083d 38       		.byte	0x38
 1442 083e B4000000 		.4byte	0xb4
 1443 0842 06       		.byte	0x6
 1444 0843 07       		.uleb128 0x7
 1445 0844 5F050000 		.4byte	.LASF126
 1446 0848 10       		.byte	0x10
 1447 0849 39       		.byte	0x39
 1448 084a A9000000 		.4byte	0xa9
 1449 084e 08       		.byte	0x8
 1450 084f 07       		.uleb128 0x7
 1451 0850 F2040000 		.4byte	.LASF127
 1452 0854 10       		.byte	0x10
 1453 0855 3A       		.byte	0x3a
 1454 0856 A9000000 		.4byte	0xa9
 1455 085a 09       		.byte	0x9
 1456 085b 07       		.uleb128 0x7
 1457 085c AD000000 		.4byte	.LASF128
 1458 0860 10       		.byte	0x10
 1459 0861 3B       		.byte	0x3b
 1460 0862 A9000000 		.4byte	0xa9
 1461 0866 0A       		.byte	0xa
 1462 0867 07       		.uleb128 0x7
 1463 0868 27070000 		.4byte	.LASF129
 1464 086c 10       		.byte	0x10
 1465 086d 3C       		.byte	0x3c
 1466 086e A9000000 		.4byte	0xa9
 1467 0872 0B       		.byte	0xb
 1468 0873 07       		.uleb128 0x7
 1469 0874 89070000 		.4byte	.LASF130
 1470 0878 10       		.byte	0x10
 1471 0879 3D       		.byte	0x3d
 1472 087a A9000000 		.4byte	0xa9
 1473 087e 0C       		.byte	0xc
 1474 087f 07       		.uleb128 0x7
 1475 0880 27060000 		.4byte	.LASF131
 1476 0884 10       		.byte	0x10
 1477 0885 3E       		.byte	0x3e
 1478 0886 A9000000 		.4byte	0xa9
 1479 088a 0D       		.byte	0xd
 1480 088b 07       		.uleb128 0x7
 1481 088c 00000000 		.4byte	.LASF132
 1482 0890 10       		.byte	0x10
ARM GAS  /tmp/ccR3FXEj.s 			page 27


 1483 0891 3F       		.byte	0x3f
 1484 0892 A9000000 		.4byte	0xa9
 1485 0896 0E       		.byte	0xe
 1486 0897 07       		.uleb128 0x7
 1487 0898 FE040000 		.4byte	.LASF133
 1488 089c 10       		.byte	0x10
 1489 089d 40       		.byte	0x40
 1490 089e A9000000 		.4byte	0xa9
 1491 08a2 0F       		.byte	0xf
 1492 08a3 07       		.uleb128 0x7
 1493 08a4 47010000 		.4byte	.LASF134
 1494 08a8 10       		.byte	0x10
 1495 08a9 41       		.byte	0x41
 1496 08aa A9000000 		.4byte	0xa9
 1497 08ae 10       		.byte	0x10
 1498 08af 07       		.uleb128 0x7
 1499 08b0 20010000 		.4byte	.LASF135
 1500 08b4 10       		.byte	0x10
 1501 08b5 43       		.byte	0x43
 1502 08b6 A9000000 		.4byte	0xa9
 1503 08ba 11       		.byte	0x11
 1504 08bb 07       		.uleb128 0x7
 1505 08bc 57010000 		.4byte	.LASF136
 1506 08c0 10       		.byte	0x10
 1507 08c1 44       		.byte	0x44
 1508 08c2 A9000000 		.4byte	0xa9
 1509 08c6 12       		.byte	0x12
 1510 08c7 07       		.uleb128 0x7
 1511 08c8 93040000 		.4byte	.LASF137
 1512 08cc 10       		.byte	0x10
 1513 08cd 45       		.byte	0x45
 1514 08ce A9000000 		.4byte	0xa9
 1515 08d2 13       		.byte	0x13
 1516 08d3 07       		.uleb128 0x7
 1517 08d4 E7050000 		.4byte	.LASF138
 1518 08d8 10       		.byte	0x10
 1519 08d9 46       		.byte	0x46
 1520 08da A9000000 		.4byte	0xa9
 1521 08de 14       		.byte	0x14
 1522 08df 07       		.uleb128 0x7
 1523 08e0 22040000 		.4byte	.LASF139
 1524 08e4 10       		.byte	0x10
 1525 08e5 48       		.byte	0x48
 1526 08e6 A9000000 		.4byte	0xa9
 1527 08ea 15       		.byte	0x15
 1528 08eb 00       		.byte	0
 1529 08ec 17       		.uleb128 0x17
 1530 08ed D8070000 		.4byte	0x7d8
 1531 08f1 FC080000 		.4byte	0x8fc
 1532 08f5 18       		.uleb128 0x18
 1533 08f6 B9040000 		.4byte	0x4b9
 1534 08fa 03       		.byte	0x3
 1535 08fb 00       		.byte	0
 1536 08fc 04       		.uleb128 0x4
 1537 08fd BC020000 		.4byte	.LASF140
 1538 0901 10       		.byte	0x10
 1539 0902 49       		.byte	0x49
ARM GAS  /tmp/ccR3FXEj.s 			page 28


 1540 0903 0B080000 		.4byte	0x80b
 1541 0907 16       		.uleb128 0x16
 1542 0908 FC080000 		.4byte	0x8fc
 1543 090c 11       		.uleb128 0x11
 1544 090d C3030000 		.4byte	.LASF141
 1545 0911 10       		.byte	0x10
 1546 0912 6E       		.byte	0x6e
 1547 0913 07090000 		.4byte	0x907
 1548 0917 04       		.uleb128 0x4
 1549 0918 FF020000 		.4byte	.LASF142
 1550 091c 0F       		.byte	0xf
 1551 091d 34       		.byte	0x34
 1552 091e 96070000 		.4byte	0x796
 1553 0922 0A       		.uleb128 0xa
 1554 0923 04       		.byte	0x4
 1555 0924 17090000 		.4byte	0x917
 1556 0928 03       		.uleb128 0x3
 1557 0929 01       		.byte	0x1
 1558 092a 02       		.byte	0x2
 1559 092b 92050000 		.4byte	.LASF143
 1560 092f 1A       		.uleb128 0x1a
 1561 0930 0B080000 		.4byte	.LASF144
 1562 0934 03       		.byte	0x3
 1563 0935 77       		.byte	0x77
 1564 0936 00000000 		.4byte	.LFB237
 1565 093a 10000000 		.4byte	.LFE237-.LFB237
 1566 093e 01       		.uleb128 0x1
 1567 093f 9C       		.byte	0x9c
 1568 0940 1A       		.uleb128 0x1a
 1569 0941 53040000 		.4byte	.LASF145
 1570 0945 03       		.byte	0x3
 1571 0946 6F       		.byte	0x6f
 1572 0947 00000000 		.4byte	.LFB236
 1573 094b 10000000 		.4byte	.LFE236-.LFB236
 1574 094f 01       		.uleb128 0x1
 1575 0950 9C       		.byte	0x9c
 1576 0951 1A       		.uleb128 0x1a
 1577 0952 A9040000 		.4byte	.LASF146
 1578 0956 03       		.byte	0x3
 1579 0957 67       		.byte	0x67
 1580 0958 00000000 		.4byte	.LFB235
 1581 095c 10000000 		.4byte	.LFE235-.LFB235
 1582 0960 01       		.uleb128 0x1
 1583 0961 9C       		.byte	0x9c
 1584 0962 1A       		.uleb128 0x1a
 1585 0963 CF000000 		.4byte	.LASF147
 1586 0967 03       		.byte	0x3
 1587 0968 5F       		.byte	0x5f
 1588 0969 00000000 		.4byte	.LFB234
 1589 096d 10000000 		.4byte	.LFE234-.LFB234
 1590 0971 01       		.uleb128 0x1
 1591 0972 9C       		.byte	0x9c
 1592 0973 1B       		.uleb128 0x1b
 1593 0974 BA070000 		.4byte	.LASF157
 1594 0978 03       		.byte	0x3
 1595 0979 56       		.byte	0x56
 1596 097a 00000000 		.4byte	.LFB233
ARM GAS  /tmp/ccR3FXEj.s 			page 29


 1597 097e 34000000 		.4byte	.LFE233-.LFB233
 1598 0982 01       		.uleb128 0x1
 1599 0983 9C       		.byte	0x9c
 1600 0984 A5090000 		.4byte	0x9a5
 1601 0988 1C       		.uleb128 0x1c
 1602 0989 6E747000 		.ascii	"ntp\000"
 1603 098d 03       		.byte	0x3
 1604 098e 56       		.byte	0x56
 1605 098f 7F020000 		.4byte	0x27f
 1606 0993 02       		.uleb128 0x2
 1607 0994 91       		.byte	0x91
 1608 0995 74       		.sleb128 -12
 1609 0996 1C       		.uleb128 0x1c
 1610 0997 6F747000 		.ascii	"otp\000"
 1611 099b 03       		.byte	0x3
 1612 099c 56       		.byte	0x56
 1613 099d 7F020000 		.4byte	0x27f
 1614 09a1 02       		.uleb128 0x2
 1615 09a2 91       		.byte	0x91
 1616 09a3 70       		.sleb128 -16
 1617 09a4 00       		.byte	0
 1618 09a5 1A       		.uleb128 0x1a
 1619 09a6 55060000 		.4byte	.LASF148
 1620 09aa 03       		.byte	0x3
 1621 09ab 49       		.byte	0x49
 1622 09ac 00000000 		.4byte	.LFB232
 1623 09b0 20000000 		.4byte	.LFE232-.LFB232
 1624 09b4 01       		.uleb128 0x1
 1625 09b5 9C       		.byte	0x9c
 1626 09b6 1A       		.uleb128 0x1a
 1627 09b7 FF070000 		.4byte	.LASF149
 1628 09bb 03       		.byte	0x3
 1629 09bc 3E       		.byte	0x3e
 1630 09bd 00000000 		.4byte	.LFB231
 1631 09c1 30000000 		.4byte	.LFE231-.LFB231
 1632 09c5 01       		.uleb128 0x1
 1633 09c6 9C       		.byte	0x9c
 1634 09c7 1D       		.uleb128 0x1d
 1635 09c8 BC060000 		.4byte	.LASF150
 1636 09cc 01       		.byte	0x1
 1637 09cd FA01     		.2byte	0x1fa
 1638 09cf 00000000 		.4byte	.LFB130
 1639 09d3 0A000000 		.4byte	.LFE130-.LFB130
 1640 09d7 01       		.uleb128 0x1
 1641 09d8 9C       		.byte	0x9c
 1642 09d9 1D       		.uleb128 0x1d
 1643 09da 6F070000 		.4byte	.LASF151
 1644 09de 01       		.byte	0x1
 1645 09df EF01     		.2byte	0x1ef
 1646 09e1 00000000 		.4byte	.LFB129
 1647 09e5 0A000000 		.4byte	.LFE129-.LFB129
 1648 09e9 01       		.uleb128 0x1
 1649 09ea 9C       		.byte	0x9c
 1650 09eb 1E       		.uleb128 0x1e
 1651 09ec 7B010000 		.4byte	.LASF152
 1652 09f0 01       		.byte	0x1
 1653 09f1 E001     		.2byte	0x1e0
ARM GAS  /tmp/ccR3FXEj.s 			page 30


 1654 09f3 00000000 		.4byte	.LFB128
 1655 09f7 12000000 		.4byte	.LFE128-.LFB128
 1656 09fb 01       		.uleb128 0x1
 1657 09fc 9C       		.byte	0x9c
 1658 09fd 1B0A0000 		.4byte	0xa1b
 1659 0a01 1F       		.uleb128 0x1f
 1660 0a02 4B0A0000 		.4byte	0xa4b
 1661 0a06 06000000 		.4byte	.LBB8
 1662 0a0a 06000000 		.4byte	.LBE8-.LBB8
 1663 0a0e 01       		.byte	0x1
 1664 0a0f E301     		.2byte	0x1e3
 1665 0a11 20       		.uleb128 0x20
 1666 0a12 540A0000 		.4byte	0xa54
 1667 0a16 02       		.uleb128 0x2
 1668 0a17 91       		.byte	0x91
 1669 0a18 7C       		.sleb128 -4
 1670 0a19 00       		.byte	0
 1671 0a1a 00       		.byte	0
 1672 0a1b 1E       		.uleb128 0x1e
 1673 0a1c 73000000 		.4byte	.LASF153
 1674 0a20 01       		.byte	0x1
 1675 0a21 C801     		.2byte	0x1c8
 1676 0a23 00000000 		.4byte	.LFB127
 1677 0a27 12000000 		.4byte	.LFE127-.LFB127
 1678 0a2b 01       		.uleb128 0x1
 1679 0a2c 9C       		.byte	0x9c
 1680 0a2d 4B0A0000 		.4byte	0xa4b
 1681 0a31 1F       		.uleb128 0x1f
 1682 0a32 4B0A0000 		.4byte	0xa4b
 1683 0a36 06000000 		.4byte	.LBB6
 1684 0a3a 06000000 		.4byte	.LBE6-.LBB6
 1685 0a3e 01       		.byte	0x1
 1686 0a3f D001     		.2byte	0x1d0
 1687 0a41 20       		.uleb128 0x20
 1688 0a42 540A0000 		.4byte	0xa54
 1689 0a46 02       		.uleb128 0x2
 1690 0a47 91       		.byte	0x91
 1691 0a48 7C       		.sleb128 -4
 1692 0a49 00       		.byte	0
 1693 0a4a 00       		.byte	0
 1694 0a4b 21       		.uleb128 0x21
 1695 0a4c 0F070000 		.4byte	.LASF158
 1696 0a50 02       		.byte	0x2
 1697 0a51 2202     		.2byte	0x222
 1698 0a53 03       		.byte	0x3
 1699 0a54 22       		.uleb128 0x22
 1700 0a55 07030000 		.4byte	.LASF159
 1701 0a59 02       		.byte	0x2
 1702 0a5a 2202     		.2byte	0x222
 1703 0a5c CF000000 		.4byte	0xcf
 1704 0a60 00       		.byte	0
 1705 0a61 00       		.byte	0
 1706              		.section	.debug_abbrev,"",%progbits
 1707              	.Ldebug_abbrev0:
 1708 0000 01       		.uleb128 0x1
 1709 0001 11       		.uleb128 0x11
 1710 0002 01       		.byte	0x1
ARM GAS  /tmp/ccR3FXEj.s 			page 31


 1711 0003 25       		.uleb128 0x25
 1712 0004 0E       		.uleb128 0xe
 1713 0005 13       		.uleb128 0x13
 1714 0006 0B       		.uleb128 0xb
 1715 0007 03       		.uleb128 0x3
 1716 0008 0E       		.uleb128 0xe
 1717 0009 1B       		.uleb128 0x1b
 1718 000a 0E       		.uleb128 0xe
 1719 000b 55       		.uleb128 0x55
 1720 000c 17       		.uleb128 0x17
 1721 000d 11       		.uleb128 0x11
 1722 000e 01       		.uleb128 0x1
 1723 000f 10       		.uleb128 0x10
 1724 0010 17       		.uleb128 0x17
 1725 0011 00       		.byte	0
 1726 0012 00       		.byte	0
 1727 0013 02       		.uleb128 0x2
 1728 0014 24       		.uleb128 0x24
 1729 0015 00       		.byte	0
 1730 0016 0B       		.uleb128 0xb
 1731 0017 0B       		.uleb128 0xb
 1732 0018 3E       		.uleb128 0x3e
 1733 0019 0B       		.uleb128 0xb
 1734 001a 03       		.uleb128 0x3
 1735 001b 08       		.uleb128 0x8
 1736 001c 00       		.byte	0
 1737 001d 00       		.byte	0
 1738 001e 03       		.uleb128 0x3
 1739 001f 24       		.uleb128 0x24
 1740 0020 00       		.byte	0
 1741 0021 0B       		.uleb128 0xb
 1742 0022 0B       		.uleb128 0xb
 1743 0023 3E       		.uleb128 0x3e
 1744 0024 0B       		.uleb128 0xb
 1745 0025 03       		.uleb128 0x3
 1746 0026 0E       		.uleb128 0xe
 1747 0027 00       		.byte	0
 1748 0028 00       		.byte	0
 1749 0029 04       		.uleb128 0x4
 1750 002a 16       		.uleb128 0x16
 1751 002b 00       		.byte	0
 1752 002c 03       		.uleb128 0x3
 1753 002d 0E       		.uleb128 0xe
 1754 002e 3A       		.uleb128 0x3a
 1755 002f 0B       		.uleb128 0xb
 1756 0030 3B       		.uleb128 0x3b
 1757 0031 0B       		.uleb128 0xb
 1758 0032 49       		.uleb128 0x49
 1759 0033 13       		.uleb128 0x13
 1760 0034 00       		.byte	0
 1761 0035 00       		.byte	0
 1762 0036 05       		.uleb128 0x5
 1763 0037 35       		.uleb128 0x35
 1764 0038 00       		.byte	0
 1765 0039 49       		.uleb128 0x49
 1766 003a 13       		.uleb128 0x13
 1767 003b 00       		.byte	0
ARM GAS  /tmp/ccR3FXEj.s 			page 32


 1768 003c 00       		.byte	0
 1769 003d 06       		.uleb128 0x6
 1770 003e 13       		.uleb128 0x13
 1771 003f 01       		.byte	0x1
 1772 0040 03       		.uleb128 0x3
 1773 0041 0E       		.uleb128 0xe
 1774 0042 0B       		.uleb128 0xb
 1775 0043 0B       		.uleb128 0xb
 1776 0044 3A       		.uleb128 0x3a
 1777 0045 0B       		.uleb128 0xb
 1778 0046 3B       		.uleb128 0x3b
 1779 0047 0B       		.uleb128 0xb
 1780 0048 01       		.uleb128 0x1
 1781 0049 13       		.uleb128 0x13
 1782 004a 00       		.byte	0
 1783 004b 00       		.byte	0
 1784 004c 07       		.uleb128 0x7
 1785 004d 0D       		.uleb128 0xd
 1786 004e 00       		.byte	0
 1787 004f 03       		.uleb128 0x3
 1788 0050 0E       		.uleb128 0xe
 1789 0051 3A       		.uleb128 0x3a
 1790 0052 0B       		.uleb128 0xb
 1791 0053 3B       		.uleb128 0x3b
 1792 0054 0B       		.uleb128 0xb
 1793 0055 49       		.uleb128 0x49
 1794 0056 13       		.uleb128 0x13
 1795 0057 38       		.uleb128 0x38
 1796 0058 0B       		.uleb128 0xb
 1797 0059 00       		.byte	0
 1798 005a 00       		.byte	0
 1799 005b 08       		.uleb128 0x8
 1800 005c 0D       		.uleb128 0xd
 1801 005d 00       		.byte	0
 1802 005e 03       		.uleb128 0x3
 1803 005f 08       		.uleb128 0x8
 1804 0060 3A       		.uleb128 0x3a
 1805 0061 0B       		.uleb128 0xb
 1806 0062 3B       		.uleb128 0x3b
 1807 0063 05       		.uleb128 0x5
 1808 0064 49       		.uleb128 0x49
 1809 0065 13       		.uleb128 0x13
 1810 0066 38       		.uleb128 0x38
 1811 0067 0B       		.uleb128 0xb
 1812 0068 00       		.byte	0
 1813 0069 00       		.byte	0
 1814 006a 09       		.uleb128 0x9
 1815 006b 0D       		.uleb128 0xd
 1816 006c 00       		.byte	0
 1817 006d 03       		.uleb128 0x3
 1818 006e 0E       		.uleb128 0xe
 1819 006f 3A       		.uleb128 0x3a
 1820 0070 0B       		.uleb128 0xb
 1821 0071 3B       		.uleb128 0x3b
 1822 0072 05       		.uleb128 0x5
 1823 0073 49       		.uleb128 0x49
 1824 0074 13       		.uleb128 0x13
ARM GAS  /tmp/ccR3FXEj.s 			page 33


 1825 0075 38       		.uleb128 0x38
 1826 0076 0B       		.uleb128 0xb
 1827 0077 00       		.byte	0
 1828 0078 00       		.byte	0
 1829 0079 0A       		.uleb128 0xa
 1830 007a 0F       		.uleb128 0xf
 1831 007b 00       		.byte	0
 1832 007c 0B       		.uleb128 0xb
 1833 007d 0B       		.uleb128 0xb
 1834 007e 49       		.uleb128 0x49
 1835 007f 13       		.uleb128 0x13
 1836 0080 00       		.byte	0
 1837 0081 00       		.byte	0
 1838 0082 0B       		.uleb128 0xb
 1839 0083 13       		.uleb128 0x13
 1840 0084 01       		.byte	0x1
 1841 0085 03       		.uleb128 0x3
 1842 0086 0E       		.uleb128 0xe
 1843 0087 0B       		.uleb128 0xb
 1844 0088 0B       		.uleb128 0xb
 1845 0089 3A       		.uleb128 0x3a
 1846 008a 0B       		.uleb128 0xb
 1847 008b 3B       		.uleb128 0x3b
 1848 008c 05       		.uleb128 0x5
 1849 008d 01       		.uleb128 0x1
 1850 008e 13       		.uleb128 0x13
 1851 008f 00       		.byte	0
 1852 0090 00       		.byte	0
 1853 0091 0C       		.uleb128 0xc
 1854 0092 15       		.uleb128 0x15
 1855 0093 01       		.byte	0x1
 1856 0094 27       		.uleb128 0x27
 1857 0095 19       		.uleb128 0x19
 1858 0096 01       		.uleb128 0x1
 1859 0097 13       		.uleb128 0x13
 1860 0098 00       		.byte	0
 1861 0099 00       		.byte	0
 1862 009a 0D       		.uleb128 0xd
 1863 009b 05       		.uleb128 0x5
 1864 009c 00       		.byte	0
 1865 009d 49       		.uleb128 0x49
 1866 009e 13       		.uleb128 0x13
 1867 009f 00       		.byte	0
 1868 00a0 00       		.byte	0
 1869 00a1 0E       		.uleb128 0xe
 1870 00a2 0F       		.uleb128 0xf
 1871 00a3 00       		.byte	0
 1872 00a4 0B       		.uleb128 0xb
 1873 00a5 0B       		.uleb128 0xb
 1874 00a6 00       		.byte	0
 1875 00a7 00       		.byte	0
 1876 00a8 0F       		.uleb128 0xf
 1877 00a9 13       		.uleb128 0x13
 1878 00aa 01       		.byte	0x1
 1879 00ab 03       		.uleb128 0x3
 1880 00ac 0E       		.uleb128 0xe
 1881 00ad 0B       		.uleb128 0xb
ARM GAS  /tmp/ccR3FXEj.s 			page 34


 1882 00ae 05       		.uleb128 0x5
 1883 00af 3A       		.uleb128 0x3a
 1884 00b0 0B       		.uleb128 0xb
 1885 00b1 3B       		.uleb128 0x3b
 1886 00b2 05       		.uleb128 0x5
 1887 00b3 01       		.uleb128 0x1
 1888 00b4 13       		.uleb128 0x13
 1889 00b5 00       		.byte	0
 1890 00b6 00       		.byte	0
 1891 00b7 10       		.uleb128 0x10
 1892 00b8 34       		.uleb128 0x34
 1893 00b9 00       		.byte	0
 1894 00ba 03       		.uleb128 0x3
 1895 00bb 0E       		.uleb128 0xe
 1896 00bc 3A       		.uleb128 0x3a
 1897 00bd 0B       		.uleb128 0xb
 1898 00be 3B       		.uleb128 0x3b
 1899 00bf 05       		.uleb128 0x5
 1900 00c0 49       		.uleb128 0x49
 1901 00c1 13       		.uleb128 0x13
 1902 00c2 3F       		.uleb128 0x3f
 1903 00c3 19       		.uleb128 0x19
 1904 00c4 3C       		.uleb128 0x3c
 1905 00c5 19       		.uleb128 0x19
 1906 00c6 00       		.byte	0
 1907 00c7 00       		.byte	0
 1908 00c8 11       		.uleb128 0x11
 1909 00c9 34       		.uleb128 0x34
 1910 00ca 00       		.byte	0
 1911 00cb 03       		.uleb128 0x3
 1912 00cc 0E       		.uleb128 0xe
 1913 00cd 3A       		.uleb128 0x3a
 1914 00ce 0B       		.uleb128 0xb
 1915 00cf 3B       		.uleb128 0x3b
 1916 00d0 0B       		.uleb128 0xb
 1917 00d1 49       		.uleb128 0x49
 1918 00d2 13       		.uleb128 0x13
 1919 00d3 3F       		.uleb128 0x3f
 1920 00d4 19       		.uleb128 0x19
 1921 00d5 3C       		.uleb128 0x3c
 1922 00d6 19       		.uleb128 0x19
 1923 00d7 00       		.byte	0
 1924 00d8 00       		.byte	0
 1925 00d9 12       		.uleb128 0x12
 1926 00da 0D       		.uleb128 0xd
 1927 00db 00       		.byte	0
 1928 00dc 03       		.uleb128 0x3
 1929 00dd 08       		.uleb128 0x8
 1930 00de 3A       		.uleb128 0x3a
 1931 00df 0B       		.uleb128 0xb
 1932 00e0 3B       		.uleb128 0x3b
 1933 00e1 0B       		.uleb128 0xb
 1934 00e2 49       		.uleb128 0x49
 1935 00e3 13       		.uleb128 0x13
 1936 00e4 38       		.uleb128 0x38
 1937 00e5 0B       		.uleb128 0xb
 1938 00e6 00       		.byte	0
ARM GAS  /tmp/ccR3FXEj.s 			page 35


 1939 00e7 00       		.byte	0
 1940 00e8 13       		.uleb128 0x13
 1941 00e9 13       		.uleb128 0x13
 1942 00ea 01       		.byte	0x1
 1943 00eb 0B       		.uleb128 0xb
 1944 00ec 0B       		.uleb128 0xb
 1945 00ed 3A       		.uleb128 0x3a
 1946 00ee 0B       		.uleb128 0xb
 1947 00ef 3B       		.uleb128 0x3b
 1948 00f0 0B       		.uleb128 0xb
 1949 00f1 01       		.uleb128 0x1
 1950 00f2 13       		.uleb128 0x13
 1951 00f3 00       		.byte	0
 1952 00f4 00       		.byte	0
 1953 00f5 14       		.uleb128 0x14
 1954 00f6 17       		.uleb128 0x17
 1955 00f7 01       		.byte	0x1
 1956 00f8 0B       		.uleb128 0xb
 1957 00f9 0B       		.uleb128 0xb
 1958 00fa 3A       		.uleb128 0x3a
 1959 00fb 0B       		.uleb128 0xb
 1960 00fc 3B       		.uleb128 0x3b
 1961 00fd 0B       		.uleb128 0xb
 1962 00fe 01       		.uleb128 0x1
 1963 00ff 13       		.uleb128 0x13
 1964 0100 00       		.byte	0
 1965 0101 00       		.byte	0
 1966 0102 15       		.uleb128 0x15
 1967 0103 0D       		.uleb128 0xd
 1968 0104 00       		.byte	0
 1969 0105 03       		.uleb128 0x3
 1970 0106 0E       		.uleb128 0xe
 1971 0107 3A       		.uleb128 0x3a
 1972 0108 0B       		.uleb128 0xb
 1973 0109 3B       		.uleb128 0x3b
 1974 010a 05       		.uleb128 0x5
 1975 010b 49       		.uleb128 0x49
 1976 010c 13       		.uleb128 0x13
 1977 010d 00       		.byte	0
 1978 010e 00       		.byte	0
 1979 010f 16       		.uleb128 0x16
 1980 0110 26       		.uleb128 0x26
 1981 0111 00       		.byte	0
 1982 0112 49       		.uleb128 0x49
 1983 0113 13       		.uleb128 0x13
 1984 0114 00       		.byte	0
 1985 0115 00       		.byte	0
 1986 0116 17       		.uleb128 0x17
 1987 0117 01       		.uleb128 0x1
 1988 0118 01       		.byte	0x1
 1989 0119 49       		.uleb128 0x49
 1990 011a 13       		.uleb128 0x13
 1991 011b 01       		.uleb128 0x1
 1992 011c 13       		.uleb128 0x13
 1993 011d 00       		.byte	0
 1994 011e 00       		.byte	0
 1995 011f 18       		.uleb128 0x18
ARM GAS  /tmp/ccR3FXEj.s 			page 36


 1996 0120 21       		.uleb128 0x21
 1997 0121 00       		.byte	0
 1998 0122 49       		.uleb128 0x49
 1999 0123 13       		.uleb128 0x13
 2000 0124 2F       		.uleb128 0x2f
 2001 0125 0B       		.uleb128 0xb
 2002 0126 00       		.byte	0
 2003 0127 00       		.byte	0
 2004 0128 19       		.uleb128 0x19
 2005 0129 34       		.uleb128 0x34
 2006 012a 00       		.byte	0
 2007 012b 03       		.uleb128 0x3
 2008 012c 08       		.uleb128 0x8
 2009 012d 3A       		.uleb128 0x3a
 2010 012e 0B       		.uleb128 0xb
 2011 012f 3B       		.uleb128 0x3b
 2012 0130 05       		.uleb128 0x5
 2013 0131 49       		.uleb128 0x49
 2014 0132 13       		.uleb128 0x13
 2015 0133 3F       		.uleb128 0x3f
 2016 0134 19       		.uleb128 0x19
 2017 0135 3C       		.uleb128 0x3c
 2018 0136 19       		.uleb128 0x19
 2019 0137 00       		.byte	0
 2020 0138 00       		.byte	0
 2021 0139 1A       		.uleb128 0x1a
 2022 013a 2E       		.uleb128 0x2e
 2023 013b 00       		.byte	0
 2024 013c 3F       		.uleb128 0x3f
 2025 013d 19       		.uleb128 0x19
 2026 013e 03       		.uleb128 0x3
 2027 013f 0E       		.uleb128 0xe
 2028 0140 3A       		.uleb128 0x3a
 2029 0141 0B       		.uleb128 0xb
 2030 0142 3B       		.uleb128 0x3b
 2031 0143 0B       		.uleb128 0xb
 2032 0144 27       		.uleb128 0x27
 2033 0145 19       		.uleb128 0x19
 2034 0146 11       		.uleb128 0x11
 2035 0147 01       		.uleb128 0x1
 2036 0148 12       		.uleb128 0x12
 2037 0149 06       		.uleb128 0x6
 2038 014a 40       		.uleb128 0x40
 2039 014b 18       		.uleb128 0x18
 2040 014c 9642     		.uleb128 0x2116
 2041 014e 19       		.uleb128 0x19
 2042 014f 00       		.byte	0
 2043 0150 00       		.byte	0
 2044 0151 1B       		.uleb128 0x1b
 2045 0152 2E       		.uleb128 0x2e
 2046 0153 01       		.byte	0x1
 2047 0154 3F       		.uleb128 0x3f
 2048 0155 19       		.uleb128 0x19
 2049 0156 03       		.uleb128 0x3
 2050 0157 0E       		.uleb128 0xe
 2051 0158 3A       		.uleb128 0x3a
 2052 0159 0B       		.uleb128 0xb
ARM GAS  /tmp/ccR3FXEj.s 			page 37


 2053 015a 3B       		.uleb128 0x3b
 2054 015b 0B       		.uleb128 0xb
 2055 015c 27       		.uleb128 0x27
 2056 015d 19       		.uleb128 0x19
 2057 015e 11       		.uleb128 0x11
 2058 015f 01       		.uleb128 0x1
 2059 0160 12       		.uleb128 0x12
 2060 0161 06       		.uleb128 0x6
 2061 0162 40       		.uleb128 0x40
 2062 0163 18       		.uleb128 0x18
 2063 0164 9642     		.uleb128 0x2116
 2064 0166 19       		.uleb128 0x19
 2065 0167 01       		.uleb128 0x1
 2066 0168 13       		.uleb128 0x13
 2067 0169 00       		.byte	0
 2068 016a 00       		.byte	0
 2069 016b 1C       		.uleb128 0x1c
 2070 016c 05       		.uleb128 0x5
 2071 016d 00       		.byte	0
 2072 016e 03       		.uleb128 0x3
 2073 016f 08       		.uleb128 0x8
 2074 0170 3A       		.uleb128 0x3a
 2075 0171 0B       		.uleb128 0xb
 2076 0172 3B       		.uleb128 0x3b
 2077 0173 0B       		.uleb128 0xb
 2078 0174 49       		.uleb128 0x49
 2079 0175 13       		.uleb128 0x13
 2080 0176 02       		.uleb128 0x2
 2081 0177 18       		.uleb128 0x18
 2082 0178 00       		.byte	0
 2083 0179 00       		.byte	0
 2084 017a 1D       		.uleb128 0x1d
 2085 017b 2E       		.uleb128 0x2e
 2086 017c 00       		.byte	0
 2087 017d 03       		.uleb128 0x3
 2088 017e 0E       		.uleb128 0xe
 2089 017f 3A       		.uleb128 0x3a
 2090 0180 0B       		.uleb128 0xb
 2091 0181 3B       		.uleb128 0x3b
 2092 0182 05       		.uleb128 0x5
 2093 0183 27       		.uleb128 0x27
 2094 0184 19       		.uleb128 0x19
 2095 0185 11       		.uleb128 0x11
 2096 0186 01       		.uleb128 0x1
 2097 0187 12       		.uleb128 0x12
 2098 0188 06       		.uleb128 0x6
 2099 0189 40       		.uleb128 0x40
 2100 018a 18       		.uleb128 0x18
 2101 018b 9642     		.uleb128 0x2116
 2102 018d 19       		.uleb128 0x19
 2103 018e 00       		.byte	0
 2104 018f 00       		.byte	0
 2105 0190 1E       		.uleb128 0x1e
 2106 0191 2E       		.uleb128 0x2e
 2107 0192 01       		.byte	0x1
 2108 0193 03       		.uleb128 0x3
 2109 0194 0E       		.uleb128 0xe
ARM GAS  /tmp/ccR3FXEj.s 			page 38


 2110 0195 3A       		.uleb128 0x3a
 2111 0196 0B       		.uleb128 0xb
 2112 0197 3B       		.uleb128 0x3b
 2113 0198 05       		.uleb128 0x5
 2114 0199 27       		.uleb128 0x27
 2115 019a 19       		.uleb128 0x19
 2116 019b 11       		.uleb128 0x11
 2117 019c 01       		.uleb128 0x1
 2118 019d 12       		.uleb128 0x12
 2119 019e 06       		.uleb128 0x6
 2120 019f 40       		.uleb128 0x40
 2121 01a0 18       		.uleb128 0x18
 2122 01a1 9742     		.uleb128 0x2117
 2123 01a3 19       		.uleb128 0x19
 2124 01a4 01       		.uleb128 0x1
 2125 01a5 13       		.uleb128 0x13
 2126 01a6 00       		.byte	0
 2127 01a7 00       		.byte	0
 2128 01a8 1F       		.uleb128 0x1f
 2129 01a9 1D       		.uleb128 0x1d
 2130 01aa 01       		.byte	0x1
 2131 01ab 31       		.uleb128 0x31
 2132 01ac 13       		.uleb128 0x13
 2133 01ad 11       		.uleb128 0x11
 2134 01ae 01       		.uleb128 0x1
 2135 01af 12       		.uleb128 0x12
 2136 01b0 06       		.uleb128 0x6
 2137 01b1 58       		.uleb128 0x58
 2138 01b2 0B       		.uleb128 0xb
 2139 01b3 59       		.uleb128 0x59
 2140 01b4 05       		.uleb128 0x5
 2141 01b5 00       		.byte	0
 2142 01b6 00       		.byte	0
 2143 01b7 20       		.uleb128 0x20
 2144 01b8 05       		.uleb128 0x5
 2145 01b9 00       		.byte	0
 2146 01ba 31       		.uleb128 0x31
 2147 01bb 13       		.uleb128 0x13
 2148 01bc 02       		.uleb128 0x2
 2149 01bd 18       		.uleb128 0x18
 2150 01be 00       		.byte	0
 2151 01bf 00       		.byte	0
 2152 01c0 21       		.uleb128 0x21
 2153 01c1 2E       		.uleb128 0x2e
 2154 01c2 01       		.byte	0x1
 2155 01c3 03       		.uleb128 0x3
 2156 01c4 0E       		.uleb128 0xe
 2157 01c5 3A       		.uleb128 0x3a
 2158 01c6 0B       		.uleb128 0xb
 2159 01c7 3B       		.uleb128 0x3b
 2160 01c8 05       		.uleb128 0x5
 2161 01c9 27       		.uleb128 0x27
 2162 01ca 19       		.uleb128 0x19
 2163 01cb 20       		.uleb128 0x20
 2164 01cc 0B       		.uleb128 0xb
 2165 01cd 00       		.byte	0
 2166 01ce 00       		.byte	0
ARM GAS  /tmp/ccR3FXEj.s 			page 39


 2167 01cf 22       		.uleb128 0x22
 2168 01d0 05       		.uleb128 0x5
 2169 01d1 00       		.byte	0
 2170 01d2 03       		.uleb128 0x3
 2171 01d3 0E       		.uleb128 0xe
 2172 01d4 3A       		.uleb128 0x3a
 2173 01d5 0B       		.uleb128 0xb
 2174 01d6 3B       		.uleb128 0x3b
 2175 01d7 05       		.uleb128 0x5
 2176 01d8 49       		.uleb128 0x49
 2177 01d9 13       		.uleb128 0x13
 2178 01da 00       		.byte	0
 2179 01db 00       		.byte	0
 2180 01dc 00       		.byte	0
 2181              		.section	.debug_aranges,"",%progbits
 2182 0000 6C000000 		.4byte	0x6c
 2183 0004 0200     		.2byte	0x2
 2184 0006 00000000 		.4byte	.Ldebug_info0
 2185 000a 04       		.byte	0x4
 2186 000b 00       		.byte	0
 2187 000c 0000     		.2byte	0
 2188 000e 0000     		.2byte	0
 2189 0010 00000000 		.4byte	.LFB127
 2190 0014 12000000 		.4byte	.LFE127-.LFB127
 2191 0018 00000000 		.4byte	.LFB128
 2192 001c 12000000 		.4byte	.LFE128-.LFB128
 2193 0020 00000000 		.4byte	.LFB129
 2194 0024 0A000000 		.4byte	.LFE129-.LFB129
 2195 0028 00000000 		.4byte	.LFB130
 2196 002c 0A000000 		.4byte	.LFE130-.LFB130
 2197 0030 00000000 		.4byte	.LFB231
 2198 0034 30000000 		.4byte	.LFE231-.LFB231
 2199 0038 00000000 		.4byte	.LFB232
 2200 003c 20000000 		.4byte	.LFE232-.LFB232
 2201 0040 00000000 		.4byte	.LFB233
 2202 0044 34000000 		.4byte	.LFE233-.LFB233
 2203 0048 00000000 		.4byte	.LFB234
 2204 004c 10000000 		.4byte	.LFE234-.LFB234
 2205 0050 00000000 		.4byte	.LFB235
 2206 0054 10000000 		.4byte	.LFE235-.LFB235
 2207 0058 00000000 		.4byte	.LFB236
 2208 005c 10000000 		.4byte	.LFE236-.LFB236
 2209 0060 00000000 		.4byte	.LFB237
 2210 0064 10000000 		.4byte	.LFE237-.LFB237
 2211 0068 00000000 		.4byte	0
 2212 006c 00000000 		.4byte	0
 2213              		.section	.debug_ranges,"",%progbits
 2214              	.Ldebug_ranges0:
 2215 0000 00000000 		.4byte	.LFB127
 2216 0004 12000000 		.4byte	.LFE127
 2217 0008 00000000 		.4byte	.LFB128
 2218 000c 12000000 		.4byte	.LFE128
 2219 0010 00000000 		.4byte	.LFB129
 2220 0014 0A000000 		.4byte	.LFE129
 2221 0018 00000000 		.4byte	.LFB130
 2222 001c 0A000000 		.4byte	.LFE130
 2223 0020 00000000 		.4byte	.LFB231
ARM GAS  /tmp/ccR3FXEj.s 			page 40


 2224 0024 30000000 		.4byte	.LFE231
 2225 0028 00000000 		.4byte	.LFB232
 2226 002c 20000000 		.4byte	.LFE232
 2227 0030 00000000 		.4byte	.LFB233
 2228 0034 34000000 		.4byte	.LFE233
 2229 0038 00000000 		.4byte	.LFB234
 2230 003c 10000000 		.4byte	.LFE234
 2231 0040 00000000 		.4byte	.LFB235
 2232 0044 10000000 		.4byte	.LFE235
 2233 0048 00000000 		.4byte	.LFB236
 2234 004c 10000000 		.4byte	.LFE236
 2235 0050 00000000 		.4byte	.LFB237
 2236 0054 10000000 		.4byte	.LFE237
 2237 0058 00000000 		.4byte	0
 2238 005c 00000000 		.4byte	0
 2239              		.section	.debug_line,"",%progbits
 2240              	.Ldebug_line0:
 2241 0000 E9020000 		.section	.debug_str,"MS",%progbits,1
 2241      0200F701 
 2241      00000201 
 2241      FB0E0D00 
 2241      01010101 
 2242              	.LASF132:
 2243 0000 63665F6F 		.ascii	"cf_off_older\000"
 2243      66665F6F 
 2243      6C646572 
 2243      00
 2244              	.LASF57:
 2245 000d 72656164 		.ascii	"ready_list_t\000"
 2245      795F6C69 
 2245      73745F74 
 2245      00
 2246              	.LASF110:
 2247 001a 77747472 		.ascii	"wttrp\000"
 2247      7000
 2248              	.LASF107:
 2249 0020 7264796D 		.ascii	"rdymsg\000"
 2249      736700
 2250              	.LASF19:
 2251 0027 75696E74 		.ascii	"uint64_t\000"
 2251      36345F74 
 2251      00
 2252              	.LASF86:
 2253 0030 6B65726E 		.ascii	"kernel_stats\000"
 2253      656C5F73 
 2253      74617473 
 2253      00
 2254              	.LASF6:
 2255 003d 5F5F7569 		.ascii	"__uint8_t\000"
 2255      6E74385F 
 2255      7400
 2256              	.LASF94:
 2257 0047 706F7274 		.ascii	"port_intctx\000"
 2257      5F696E74 
 2257      63747800 
 2258              	.LASF56:
 2259 0053 63685F74 		.ascii	"ch_threads_queue\000"
ARM GAS  /tmp/ccR3FXEj.s 			page 41


 2259      68726561 
 2259      64735F71 
 2259      75657565 
 2259      00
 2260              	.LASF76:
 2261 0064 73797374 		.ascii	"system_debug_t\000"
 2261      656D5F64 
 2261      65627567 
 2261      5F7400
 2262              	.LASF153:
 2263 0073 706F7274 		.ascii	"port_lock\000"
 2263      5F6C6F63 
 2263      6B00
 2264              	.LASF98:
 2265 007d 776F7273 		.ascii	"worst\000"
 2265      7400
 2266              	.LASF101:
 2267 0083 74696D65 		.ascii	"time_measurement_t\000"
 2267      5F6D6561 
 2267      73757265 
 2267      6D656E74 
 2267      5F7400
 2268              	.LASF14:
 2269 0096 6C6F6E67 		.ascii	"long long unsigned int\000"
 2269      206C6F6E 
 2269      6720756E 
 2269      7369676E 
 2269      65642069 
 2270              	.LASF128:
 2271 00ad 63685F74 		.ascii	"ch_threadsize\000"
 2271      68726561 
 2271      6473697A 
 2271      6500
 2272              	.LASF108:
 2273 00bb 65786974 		.ascii	"exitcode\000"
 2273      636F6465 
 2273      00
 2274              	.LASF85:
 2275 00c4 6D61696E 		.ascii	"mainthread\000"
 2275      74687265 
 2275      616400
 2276              	.LASF147:
 2277 00cf 5F737461 		.ascii	"_stats_start_measure_crit_thd\000"
 2277      74735F73 
 2277      74617274 
 2277      5F6D6561 
 2277      73757265 
 2278              	.LASF73:
 2279 00ed 76697274 		.ascii	"virtual_timers_list_t\000"
 2279      75616C5F 
 2279      74696D65 
 2279      72735F6C 
 2279      6973745F 
 2280              	.LASF89:
 2281 0103 49544D5F 		.ascii	"ITM_RxBuffer\000"
 2281      52784275 
 2281      66666572 
ARM GAS  /tmp/ccR3FXEj.s 			page 42


 2281      00
 2282              	.LASF21:
 2283 0110 72747469 		.ascii	"rttime_t\000"
 2283      6D655F74 
 2283      00
 2284              	.LASF34:
 2285 0119 705F7072 		.ascii	"p_prio\000"
 2285      696F00
 2286              	.LASF135:
 2287 0120 63665F6F 		.ascii	"cf_off_state\000"
 2287      66665F73 
 2287      74617465 
 2287      00
 2288              	.LASF1:
 2289 012d 6C6F6E67 		.ascii	"long long int\000"
 2289      206C6F6E 
 2289      6720696E 
 2289      7400
 2290              	.LASF3:
 2291 013b 7369676E 		.ascii	"signed char\000"
 2291      65642063 
 2291      68617200 
 2292              	.LASF134:
 2293 0147 63665F6F 		.ascii	"cf_off_stklimit\000"
 2293      66665F73 
 2293      746B6C69 
 2293      6D697400 
 2294              	.LASF136:
 2295 0157 63665F6F 		.ascii	"cf_off_flags\000"
 2295      66665F66 
 2295      6C616773 
 2295      00
 2296              	.LASF49:
 2297 0164 705F6D70 		.ascii	"p_mpool\000"
 2297      6F6F6C00 
 2298              	.LASF118:
 2299 016c 6D5F7175 		.ascii	"m_queue\000"
 2299      65756500 
 2300              	.LASF84:
 2301 0174 76746C69 		.ascii	"vtlist\000"
 2301      737400
 2302              	.LASF152:
 2303 017b 706F7274 		.ascii	"port_unlock\000"
 2303      5F756E6C 
 2303      6F636B00 
 2304              	.LASF82:
 2305 0187 63685F73 		.ascii	"ch_system\000"
 2305      79737465 
 2305      6D00
 2306              	.LASF10:
 2307 0191 6C6F6E67 		.ascii	"long int\000"
 2307      20696E74 
 2307      00
 2308              	.LASF23:
 2309 019a 74737461 		.ascii	"tstate_t\000"
 2309      74655F74 
 2309      00
ARM GAS  /tmp/ccR3FXEj.s 			page 43


 2310              	.LASF154:
 2311 01a3 474E5520 		.ascii	"GNU C11 6.3.1 20170620 (release) [ARM/embedded-6-br"
 2311      43313120 
 2311      362E332E 
 2311      31203230 
 2311      31373036 
 2312 01d6 616E6368 		.ascii	"anch revision 249437] -mcpu=cortex-m4 -mfloat-abi=h"
 2312      20726576 
 2312      6973696F 
 2312      6E203234 
 2312      39343337 
 2313 0209 61726420 		.ascii	"ard -mfpu=fpv4-sp-d16 -mno-thumb-interwork -mthumb "
 2313      2D6D6670 
 2313      753D6670 
 2313      76342D73 
 2313      702D6431 
 2314 023c 2D676764 		.ascii	"-ggdb -O0 -fomit-frame-pointer -falign-functions=16"
 2314      62202D4F 
 2314      30202D66 
 2314      6F6D6974 
 2314      2D667261 
 2315 026f 202D6666 		.ascii	" -ffunction-sections -fdata-sections -fno-common -f"
 2315      756E6374 
 2315      696F6E2D 
 2315      73656374 
 2315      696F6E73 
 2316 02a2 73696E67 		.ascii	"single-precision-constant\000"
 2316      6C652D70 
 2316      72656369 
 2316      73696F6E 
 2316      2D636F6E 
 2317              	.LASF140:
 2318 02bc 63686465 		.ascii	"chdebug_t\000"
 2318      6275675F 
 2318      7400
 2319              	.LASF36:
 2320 02c6 705F6E65 		.ascii	"p_newer\000"
 2320      77657200 
 2321              	.LASF115:
 2322 02ce 735F7175 		.ascii	"s_queue\000"
 2322      65756500 
 2323              	.LASF62:
 2324 02d6 725F6E65 		.ascii	"r_newer\000"
 2324      77657200 
 2325              	.LASF91:
 2326 02de 72656761 		.ascii	"regarm_t\000"
 2326      726D5F74 
 2326      00
 2327              	.LASF69:
 2328 02e7 76745F70 		.ascii	"vt_prev\000"
 2328      72657600 
 2329              	.LASF77:
 2330 02ef 63685F73 		.ascii	"ch_system_debug\000"
 2330      79737465 
 2330      6D5F6465 
 2330      62756700 
 2331              	.LASF142:
ARM GAS  /tmp/ccR3FXEj.s 			page 44


 2332 02ff 6D757465 		.ascii	"mutex_t\000"
 2332      785F7400 
 2333              	.LASF159:
 2334 0307 76616C75 		.ascii	"value\000"
 2334      6500
 2335              	.LASF80:
 2336 030d 6C6F636B 		.ascii	"lock_cnt\000"
 2336      5F636E74 
 2336      00
 2337              	.LASF87:
 2338 0316 69646C65 		.ascii	"idle_thread_wa\000"
 2338      5F746872 
 2338      6561645F 
 2338      776100
 2339              	.LASF28:
 2340 0325 636E745F 		.ascii	"cnt_t\000"
 2340      7400
 2341              	.LASF39:
 2342 032b 705F7374 		.ascii	"p_stklimit\000"
 2342      6B6C696D 
 2342      697400
 2343              	.LASF0:
 2344 0336 756E7369 		.ascii	"unsigned int\000"
 2344      676E6564 
 2344      20696E74 
 2344      00
 2345              	.LASF68:
 2346 0343 76745F6E 		.ascii	"vt_next\000"
 2346      65787400 
 2347              	.LASF16:
 2348 034b 75696E74 		.ascii	"uint16_t\000"
 2348      31365F74 
 2348      00
 2349              	.LASF90:
 2350 0354 53797374 		.ascii	"SystemCoreClock\000"
 2350      656D436F 
 2350      7265436C 
 2350      6F636B00 
 2351              	.LASF156:
 2352 0364 2F686F6D 		.ascii	"/home/matt/Documents/fibre-link/header-detection/pc"
 2352      652F6D61 
 2352      74742F44 
 2352      6F63756D 
 2352      656E7473 
 2353 0397 622F7374 		.ascii	"b/stm32/firmware\000"
 2353      6D33322F 
 2353      6669726D 
 2353      77617265 
 2353      00
 2354              	.LASF111:
 2355 03a8 77747365 		.ascii	"wtsemp\000"
 2355      6D7000
 2356              	.LASF70:
 2357 03af 76745F64 		.ascii	"vt_delta\000"
 2357      656C7461 
 2357      00
 2358              	.LASF44:
ARM GAS  /tmp/ccR3FXEj.s 			page 45


 2359 03b8 705F6D73 		.ascii	"p_msgqueue\000"
 2359      67717565 
 2359      756500
 2360              	.LASF141:
 2361 03c3 63685F64 		.ascii	"ch_debug\000"
 2361      65627567 
 2361      00
 2362              	.LASF102:
 2363 03cc 6E5F6972 		.ascii	"n_irq\000"
 2363      7100
 2364              	.LASF116:
 2365 03d2 735F636E 		.ascii	"s_cnt\000"
 2365      7400
 2366              	.LASF8:
 2367 03d8 73686F72 		.ascii	"short unsigned int\000"
 2367      7420756E 
 2367      7369676E 
 2367      65642069 
 2367      6E7400
 2368              	.LASF106:
 2369 03eb 6B65726E 		.ascii	"kernel_stats_t\000"
 2369      656C5F73 
 2369      74617473 
 2369      5F7400
 2370              	.LASF53:
 2371 03fa 63685F74 		.ascii	"ch_thread\000"
 2371      68726561 
 2371      6400
 2372              	.LASF26:
 2373 0404 6D73675F 		.ascii	"msg_t\000"
 2373      7400
 2374              	.LASF99:
 2375 040a 6C617374 		.ascii	"last\000"
 2375      00
 2376              	.LASF29:
 2377 040f 75636E74 		.ascii	"ucnt_t\000"
 2377      5F7400
 2378              	.LASF81:
 2379 0416 63685F73 		.ascii	"ch_system_t\000"
 2379      79737465 
 2379      6D5F7400 
 2380              	.LASF139:
 2381 0422 63665F6F 		.ascii	"cf_off_time\000"
 2381      66665F74 
 2381      696D6500 
 2382              	.LASF105:
 2383 042e 6D5F6372 		.ascii	"m_crit_isr\000"
 2383      69745F69 
 2383      737200
 2384              	.LASF58:
 2385 0439 63685F72 		.ascii	"ch_ready_list\000"
 2385      65616479 
 2385      5F6C6973 
 2385      7400
 2386              	.LASF27:
 2387 0447 6576656E 		.ascii	"eventmask_t\000"
 2387      746D6173 
ARM GAS  /tmp/ccR3FXEj.s 			page 46


 2387      6B5F7400 
 2388              	.LASF145:
 2389 0453 5F737461 		.ascii	"_stats_start_measure_crit_isr\000"
 2389      74735F73 
 2389      74617274 
 2389      5F6D6561 
 2389      73757265 
 2390              	.LASF92:
 2391 0471 73746B61 		.ascii	"stkalign_t\000"
 2391      6C69676E 
 2391      5F7400
 2392              	.LASF52:
 2393 047c 74687265 		.ascii	"threads_list_t\000"
 2393      6164735F 
 2393      6C697374 
 2393      5F7400
 2394              	.LASF123:
 2395 048b 63685F7A 		.ascii	"ch_zero\000"
 2395      65726F00 
 2396              	.LASF137:
 2397 0493 63665F6F 		.ascii	"cf_off_refs\000"
 2397      66665F72 
 2397      65667300 
 2398              	.LASF43:
 2399 049f 705F7761 		.ascii	"p_waiting\000"
 2399      6974696E 
 2399      6700
 2400              	.LASF146:
 2401 04a9 5F737461 		.ascii	"_stats_stop_measure_crit_thd\000"
 2401      74735F73 
 2401      746F705F 
 2401      6D656173 
 2401      7572655F 
 2402              	.LASF88:
 2403 04c6 73697A65 		.ascii	"sizetype\000"
 2403      74797065 
 2403      00
 2404              	.LASF74:
 2405 04cf 63685F76 		.ascii	"ch_virtual_timers_list\000"
 2405      69727475 
 2405      616C5F74 
 2405      696D6572 
 2405      735F6C69 
 2406              	.LASF2:
 2407 04e6 6C6F6E67 		.ascii	"long double\000"
 2407      20646F75 
 2407      626C6500 
 2408              	.LASF127:
 2409 04f2 63685F74 		.ascii	"ch_timesize\000"
 2409      696D6573 
 2409      697A6500 
 2410              	.LASF133:
 2411 04fe 63665F6F 		.ascii	"cf_off_name\000"
 2411      66665F6E 
 2411      616D6500 
 2412              	.LASF37:
 2413 050a 705F6F6C 		.ascii	"p_older\000"
ARM GAS  /tmp/ccR3FXEj.s 			page 47


 2413      64657200 
 2414              	.LASF61:
 2415 0512 725F6374 		.ascii	"r_ctx\000"
 2415      7800
 2416              	.LASF35:
 2417 0518 705F6374 		.ascii	"p_ctx\000"
 2417      7800
 2418              	.LASF96:
 2419 051e 746D5F63 		.ascii	"tm_calibration_t\000"
 2419      616C6962 
 2419      72617469 
 2419      6F6E5F74 
 2419      00
 2420              	.LASF64:
 2421 052f 725F6375 		.ascii	"r_current\000"
 2421      7272656E 
 2421      7400
 2422              	.LASF63:
 2423 0539 725F6F6C 		.ascii	"r_older\000"
 2423      64657200 
 2424              	.LASF13:
 2425 0541 5F5F7569 		.ascii	"__uint64_t\000"
 2425      6E743634 
 2425      5F7400
 2426              	.LASF100:
 2427 054c 63756D75 		.ascii	"cumulative\000"
 2427      6C617469 
 2427      766500
 2428              	.LASF24:
 2429 0557 74726566 		.ascii	"trefs_t\000"
 2429      735F7400 
 2430              	.LASF126:
 2431 055f 63685F70 		.ascii	"ch_ptrsize\000"
 2431      74727369 
 2431      7A6500
 2432              	.LASF66:
 2433 056a 76697274 		.ascii	"virtual_timer_t\000"
 2433      75616C5F 
 2433      74696D65 
 2433      725F7400 
 2434              	.LASF33:
 2435 057a 705F7072 		.ascii	"p_prev\000"
 2435      657600
 2436              	.LASF25:
 2437 0581 74707269 		.ascii	"tprio_t\000"
 2437      6F5F7400 
 2438              	.LASF103:
 2439 0589 6E5F6374 		.ascii	"n_ctxswc\000"
 2439      78737763 
 2439      00
 2440              	.LASF143:
 2441 0592 5F426F6F 		.ascii	"_Bool\000"
 2441      6C00
 2442              	.LASF17:
 2443 0598 696E7433 		.ascii	"int32_t\000"
 2443      325F7400 
 2444              	.LASF4:
ARM GAS  /tmp/ccR3FXEj.s 			page 48


 2445 05a0 756E7369 		.ascii	"unsigned char\000"
 2445      676E6564 
 2445      20636861 
 2445      7200
 2446              	.LASF47:
 2447 05ae 705F6D74 		.ascii	"p_mtxlist\000"
 2447      786C6973 
 2447      7400
 2448              	.LASF5:
 2449 05b8 73686F72 		.ascii	"short int\000"
 2449      7420696E 
 2449      7400
 2450              	.LASF40:
 2451 05c2 705F7374 		.ascii	"p_state\000"
 2451      61746500 
 2452              	.LASF60:
 2453 05ca 725F7072 		.ascii	"r_prio\000"
 2453      696F00
 2454              	.LASF113:
 2455 05d1 65776D61 		.ascii	"ewmask\000"
 2455      736B00
 2456              	.LASF32:
 2457 05d8 705F6E65 		.ascii	"p_next\000"
 2457      787400
 2458              	.LASF22:
 2459 05df 746D6F64 		.ascii	"tmode_t\000"
 2459      655F7400 
 2460              	.LASF138:
 2461 05e7 63665F6F 		.ascii	"cf_off_preempt\000"
 2461      66665F70 
 2461      7265656D 
 2461      707400
 2462              	.LASF41:
 2463 05f6 705F666C 		.ascii	"p_flags\000"
 2463      61677300 
 2464              	.LASF50:
 2465 05fe 705F7374 		.ascii	"p_stats\000"
 2465      61747300 
 2466              	.LASF55:
 2467 0606 74687265 		.ascii	"threads_queue_t\000"
 2467      6164735F 
 2467      71756575 
 2467      655F7400 
 2468              	.LASF67:
 2469 0616 63685F76 		.ascii	"ch_virtual_timer\000"
 2469      69727475 
 2469      616C5F74 
 2469      696D6572 
 2469      00
 2470              	.LASF131:
 2471 0627 63665F6F 		.ascii	"cf_off_newer\000"
 2471      66665F6E 
 2471      65776572 
 2471      00
 2472              	.LASF114:
 2473 0634 63685F73 		.ascii	"ch_semaphore\000"
 2473      656D6170 
ARM GAS  /tmp/ccR3FXEj.s 			page 49


 2473      686F7265 
 2473      00
 2474              	.LASF46:
 2475 0641 705F6570 		.ascii	"p_epending\000"
 2475      656E6469 
 2475      6E6700
 2476              	.LASF18:
 2477 064c 75696E74 		.ascii	"uint32_t\000"
 2477      33325F74 
 2477      00
 2478              	.LASF148:
 2479 0655 5F737461 		.ascii	"_stats_increase_irq\000"
 2479      74735F69 
 2479      6E637265 
 2479      6173655F 
 2479      69727100 
 2480              	.LASF59:
 2481 0669 725F7175 		.ascii	"r_queue\000"
 2481      65756500 
 2482              	.LASF54:
 2483 0671 63685F74 		.ascii	"ch_threads_list\000"
 2483      68726561 
 2483      64735F6C 
 2483      69737400 
 2484              	.LASF124:
 2485 0681 63685F73 		.ascii	"ch_size\000"
 2485      697A6500 
 2486              	.LASF12:
 2487 0689 6C6F6E67 		.ascii	"long unsigned int\000"
 2487      20756E73 
 2487      69676E65 
 2487      6420696E 
 2487      7400
 2488              	.LASF121:
 2489 069b 63686172 		.ascii	"char\000"
 2489      00
 2490              	.LASF9:
 2491 06a0 5F5F696E 		.ascii	"__int32_t\000"
 2491      7433325F 
 2491      7400
 2492              	.LASF112:
 2493 06aa 77746D74 		.ascii	"wtmtxp\000"
 2493      787000
 2494              	.LASF7:
 2495 06b1 5F5F7569 		.ascii	"__uint16_t\000"
 2495      6E743136 
 2495      5F7400
 2496              	.LASF150:
 2497 06bc 706F7274 		.ascii	"port_unlock_from_isr\000"
 2497      5F756E6C 
 2497      6F636B5F 
 2497      66726F6D 
 2497      5F697372 
 2498              	.LASF31:
 2499 06d1 74687265 		.ascii	"thread_t\000"
 2499      61645F74 
 2499      00
ARM GAS  /tmp/ccR3FXEj.s 			page 50


 2500              	.LASF97:
 2501 06da 62657374 		.ascii	"best\000"
 2501      00
 2502              	.LASF120:
 2503 06df 6D5F6E65 		.ascii	"m_next\000"
 2503      787400
 2504              	.LASF30:
 2505 06e6 73797374 		.ascii	"systime_t\000"
 2505      696D655F 
 2505      7400
 2506              	.LASF48:
 2507 06f0 705F7265 		.ascii	"p_realprio\000"
 2507      616C7072 
 2507      696F00
 2508              	.LASF65:
 2509 06fb 76746675 		.ascii	"vtfunc_t\000"
 2509      6E635F74 
 2509      00
 2510              	.LASF11:
 2511 0704 5F5F7569 		.ascii	"__uint32_t\000"
 2511      6E743332 
 2511      5F7400
 2512              	.LASF158:
 2513 070f 5F5F7365 		.ascii	"__set_BASEPRI\000"
 2513      745F4241 
 2513      53455052 
 2513      4900
 2514              	.LASF78:
 2515 071d 70616E69 		.ascii	"panic_msg\000"
 2515      635F6D73 
 2515      6700
 2516              	.LASF129:
 2517 0727 63665F6F 		.ascii	"cf_off_prio\000"
 2517      66665F70 
 2517      72696F00 
 2518              	.LASF95:
 2519 0733 6F666673 		.ascii	"offset\000"
 2519      657400
 2520              	.LASF93:
 2521 073a 636F6E74 		.ascii	"context\000"
 2521      65787400 
 2522              	.LASF155:
 2523 0742 2E2E2F43 		.ascii	"../ChibiOS/os/rt/src/chstats.c\000"
 2523      68696269 
 2523      4F532F6F 
 2523      732F7274 
 2523      2F737263 
 2524              	.LASF45:
 2525 0761 705F6D73 		.ascii	"p_msg\000"
 2525      6700
 2526              	.LASF20:
 2527 0767 7274636E 		.ascii	"rtcnt_t\000"
 2527      745F7400 
 2528              	.LASF151:
 2529 076f 706F7274 		.ascii	"port_lock_from_isr\000"
 2529      5F6C6F63 
 2529      6B5F6672 
ARM GAS  /tmp/ccR3FXEj.s 			page 51


 2529      6F6D5F69 
 2529      737200
 2530              	.LASF72:
 2531 0782 76745F70 		.ascii	"vt_par\000"
 2531      617200
 2532              	.LASF130:
 2533 0789 63665F6F 		.ascii	"cf_off_ctx\000"
 2533      66665F63 
 2533      747800
 2534              	.LASF117:
 2535 0794 63685F6D 		.ascii	"ch_mutex\000"
 2535      75746578 
 2535      00
 2536              	.LASF42:
 2537 079d 705F7265 		.ascii	"p_refs\000"
 2537      667300
 2538              	.LASF79:
 2539 07a4 6973725F 		.ascii	"isr_cnt\000"
 2539      636E7400 
 2540              	.LASF83:
 2541 07ac 726C6973 		.ascii	"rlist\000"
 2541      7400
 2542              	.LASF15:
 2543 07b2 75696E74 		.ascii	"uint8_t\000"
 2543      385F7400 
 2544              	.LASF157:
 2545 07ba 5F737461 		.ascii	"_stats_ctxswc\000"
 2545      74735F63 
 2545      74787377 
 2545      6300
 2546              	.LASF51:
 2547 07c8 74687265 		.ascii	"thread_reference_t\000"
 2547      61645F72 
 2547      65666572 
 2547      656E6365 
 2547      5F7400
 2548              	.LASF109:
 2549 07db 77746F62 		.ascii	"wtobjp\000"
 2549      6A7000
 2550              	.LASF38:
 2551 07e2 705F6E61 		.ascii	"p_name\000"
 2551      6D6500
 2552              	.LASF75:
 2553 07e9 76745F73 		.ascii	"vt_systime\000"
 2553      79737469 
 2553      6D6500
 2554              	.LASF125:
 2555 07f4 63685F76 		.ascii	"ch_version\000"
 2555      65727369 
 2555      6F6E00
 2556              	.LASF149:
 2557 07ff 5F737461 		.ascii	"_stats_init\000"
 2557      74735F69 
 2557      6E697400 
 2558              	.LASF144:
 2559 080b 5F737461 		.ascii	"_stats_stop_measure_crit_isr\000"
 2559      74735F73 
ARM GAS  /tmp/ccR3FXEj.s 			page 52


 2559      746F705F 
 2559      6D656173 
 2559      7572655F 
 2560              	.LASF104:
 2561 0828 6D5F6372 		.ascii	"m_crit_thd\000"
 2561      69745F74 
 2561      686400
 2562              	.LASF119:
 2563 0833 6D5F6F77 		.ascii	"m_owner\000"
 2563      6E657200 
 2564              	.LASF122:
 2565 083b 63685F69 		.ascii	"ch_identifier\000"
 2565      64656E74 
 2565      69666965 
 2565      7200
 2566              	.LASF71:
 2567 0849 76745F66 		.ascii	"vt_func\000"
 2567      756E6300 
 2568              		.ident	"GCC: (GNU Tools for ARM Embedded Processors 6-2017-q2-update) 6.3.1 20170620 (release) [AR
ARM GAS  /tmp/ccR3FXEj.s 			page 53


DEFINED SYMBOLS
                            *ABS*:0000000000000000 chstats.c
     /tmp/ccR3FXEj.s:18     .text.port_lock:0000000000000000 $t
     /tmp/ccR3FXEj.s:25     .text.port_lock:0000000000000000 port_lock
     /tmp/ccR3FXEj.s:60     .text.port_unlock:0000000000000000 $t
     /tmp/ccR3FXEj.s:67     .text.port_unlock:0000000000000000 port_unlock
     /tmp/ccR3FXEj.s:100    .text.port_lock_from_isr:0000000000000000 $t
     /tmp/ccR3FXEj.s:107    .text.port_lock_from_isr:0000000000000000 port_lock_from_isr
     /tmp/ccR3FXEj.s:126    .text.port_unlock_from_isr:0000000000000000 $t
     /tmp/ccR3FXEj.s:133    .text.port_unlock_from_isr:0000000000000000 port_unlock_from_isr
     /tmp/ccR3FXEj.s:152    .text._stats_init:0000000000000000 $t
     /tmp/ccR3FXEj.s:160    .text._stats_init:0000000000000000 _stats_init
     /tmp/ccR3FXEj.s:191    .text._stats_init:0000000000000024 $d
     /tmp/ccR3FXEj.s:198    .text._stats_increase_irq:0000000000000000 $t
     /tmp/ccR3FXEj.s:206    .text._stats_increase_irq:0000000000000000 _stats_increase_irq
     /tmp/ccR3FXEj.s:232    .text._stats_increase_irq:000000000000001c $d
     /tmp/ccR3FXEj.s:237    .text._stats_ctxswc:0000000000000000 $t
     /tmp/ccR3FXEj.s:245    .text._stats_ctxswc:0000000000000000 _stats_ctxswc
     /tmp/ccR3FXEj.s:281    .text._stats_ctxswc:0000000000000030 $d
     /tmp/ccR3FXEj.s:286    .text._stats_start_measure_crit_thd:0000000000000000 $t
     /tmp/ccR3FXEj.s:294    .text._stats_start_measure_crit_thd:0000000000000000 _stats_start_measure_crit_thd
     /tmp/ccR3FXEj.s:313    .text._stats_start_measure_crit_thd:000000000000000c $d
     /tmp/ccR3FXEj.s:318    .text._stats_stop_measure_crit_thd:0000000000000000 $t
     /tmp/ccR3FXEj.s:326    .text._stats_stop_measure_crit_thd:0000000000000000 _stats_stop_measure_crit_thd
     /tmp/ccR3FXEj.s:345    .text._stats_stop_measure_crit_thd:000000000000000c $d
     /tmp/ccR3FXEj.s:350    .text._stats_start_measure_crit_isr:0000000000000000 $t
     /tmp/ccR3FXEj.s:358    .text._stats_start_measure_crit_isr:0000000000000000 _stats_start_measure_crit_isr
     /tmp/ccR3FXEj.s:377    .text._stats_start_measure_crit_isr:000000000000000c $d
     /tmp/ccR3FXEj.s:382    .text._stats_stop_measure_crit_isr:0000000000000000 $t
     /tmp/ccR3FXEj.s:390    .text._stats_stop_measure_crit_isr:0000000000000000 _stats_stop_measure_crit_isr
     /tmp/ccR3FXEj.s:409    .text._stats_stop_measure_crit_isr:000000000000000c $d
                     .debug_frame:0000000000000010 $d

UNDEFINED SYMBOLS
chTMObjectInit
ch
chTMChainMeasurementToX
chTMStartMeasurementX
chTMStopMeasurementX
