ARM GAS  /tmp/ccFdtjmc.s 			page 1


   1              		.cpu cortex-m4
   2              		.eabi_attribute 27, 1
   3              		.eabi_attribute 28, 1
   4              		.eabi_attribute 20, 1
   5              		.eabi_attribute 21, 1
   6              		.eabi_attribute 23, 3
   7              		.eabi_attribute 24, 1
   8              		.eabi_attribute 25, 1
   9              		.eabi_attribute 26, 1
  10              		.eabi_attribute 30, 6
  11              		.eabi_attribute 34, 1
  12              		.eabi_attribute 18, 4
  13              		.file	"chtm.c"
  14              		.text
  15              	.Ltext0:
  16              		.cfi_sections	.debug_frame
  17              		.section	.text.port_rt_get_counter_value,"ax",%progbits
  18              		.align	1
  19              		.p2align 4,,15
  20              		.syntax unified
  21              		.thumb
  22              		.thumb_func
  23              		.fpu fpv4-sp-d16
  24              		.type	port_rt_get_counter_value, %function
  25              	port_rt_get_counter_value:
  26              	.LFB135:
  27              		.file 1 "../ChibiOS/os/rt/ports/ARMCMx/chcore_v7m.h"
  28              		.loc 1 568 0
  29              		.cfi_startproc
  30              		@ args = 0, pretend = 0, frame = 0
  31              		@ frame_needed = 0, uses_anonymous_args = 0
  32              		@ link register save eliminated.
  33              		.loc 1 570 0
  34 0000 014B     		ldr	r3, .L3
  35 0002 5B68     		ldr	r3, [r3, #4]
  36              		.loc 1 571 0
  37 0004 1846     		mov	r0, r3
  38 0006 7047     		bx	lr
  39              	.L4:
  40              		.align	2
  41              	.L3:
  42 0008 001000E0 		.word	-536866816
  43              		.cfi_endproc
  44              	.LFE135:
  45              		.size	port_rt_get_counter_value, .-port_rt_get_counter_value
  46              		.section	.text.tm_stop,"ax",%progbits
  47              		.align	1
  48              		.p2align 4,,15
  49              		.syntax unified
  50              		.thumb
  51              		.thumb_func
  52              		.fpu fpv4-sp-d16
  53              		.type	tm_stop, %function
  54              	tm_stop:
  55              	.LFB231:
  56              		.file 2 "../ChibiOS/os/rt/src/chtm.c"
  57              		.loc 2 55 0
ARM GAS  /tmp/ccFdtjmc.s 			page 2


  58              		.cfi_startproc
  59              		@ args = 0, pretend = 0, frame = 16
  60              		@ frame_needed = 0, uses_anonymous_args = 0
  61              		@ link register save eliminated.
  62 0000 10B4     		push	{r4}
  63              		.cfi_def_cfa_offset 4
  64              		.cfi_offset 4, -4
  65 0002 85B0     		sub	sp, sp, #20
  66              		.cfi_def_cfa_offset 24
  67 0004 0390     		str	r0, [sp, #12]
  68 0006 0291     		str	r1, [sp, #8]
  69 0008 0192     		str	r2, [sp, #4]
  70              		.loc 2 57 0
  71 000a 039B     		ldr	r3, [sp, #12]
  72 000c DB68     		ldr	r3, [r3, #12]
  73 000e 5A1C     		adds	r2, r3, #1
  74 0010 039B     		ldr	r3, [sp, #12]
  75 0012 DA60     		str	r2, [r3, #12]
  76              		.loc 2 58 0
  77 0014 039B     		ldr	r3, [sp, #12]
  78 0016 9B68     		ldr	r3, [r3, #8]
  79 0018 029A     		ldr	r2, [sp, #8]
  80 001a D21A     		subs	r2, r2, r3
  81 001c 019B     		ldr	r3, [sp, #4]
  82 001e D21A     		subs	r2, r2, r3
  83 0020 039B     		ldr	r3, [sp, #12]
  84 0022 9A60     		str	r2, [r3, #8]
  85              		.loc 2 59 0
  86 0024 039B     		ldr	r3, [sp, #12]
  87 0026 D3E90412 		ldrd	r1, [r3, #16]
  88 002a 039B     		ldr	r3, [sp, #12]
  89 002c 9B68     		ldr	r3, [r3, #8]
  90 002e 4FF00004 		mov	r4, #0
  91 0032 5B18     		adds	r3, r3, r1
  92 0034 44EB0204 		adc	r4, r4, r2
  93 0038 039A     		ldr	r2, [sp, #12]
  94 003a C2E90434 		strd	r3, [r2, #16]
  95              		.loc 2 60 0
  96 003e 039B     		ldr	r3, [sp, #12]
  97 0040 9A68     		ldr	r2, [r3, #8]
  98 0042 039B     		ldr	r3, [sp, #12]
  99 0044 5B68     		ldr	r3, [r3, #4]
 100 0046 9A42     		cmp	r2, r3
 101 0048 03D9     		bls	.L6
 102              		.loc 2 61 0
 103 004a 039B     		ldr	r3, [sp, #12]
 104 004c 9A68     		ldr	r2, [r3, #8]
 105 004e 039B     		ldr	r3, [sp, #12]
 106 0050 5A60     		str	r2, [r3, #4]
 107              	.L6:
 108              		.loc 2 63 0
 109 0052 039B     		ldr	r3, [sp, #12]
 110 0054 9A68     		ldr	r2, [r3, #8]
 111 0056 039B     		ldr	r3, [sp, #12]
 112 0058 1B68     		ldr	r3, [r3]
 113 005a 9A42     		cmp	r2, r3
 114 005c 03D2     		bcs	.L8
ARM GAS  /tmp/ccFdtjmc.s 			page 3


 115              		.loc 2 64 0
 116 005e 039B     		ldr	r3, [sp, #12]
 117 0060 9A68     		ldr	r2, [r3, #8]
 118 0062 039B     		ldr	r3, [sp, #12]
 119 0064 1A60     		str	r2, [r3]
 120              	.L8:
 121              		.loc 2 66 0
 122 0066 00BF     		nop
 123 0068 05B0     		add	sp, sp, #20
 124              		.cfi_def_cfa_offset 4
 125              		@ sp needed
 126 006a 5DF8044B 		ldr	r4, [sp], #4
 127              		.cfi_restore 4
 128              		.cfi_def_cfa_offset 0
 129 006e 7047     		bx	lr
 130              		.cfi_endproc
 131              	.LFE231:
 132              		.size	tm_stop, .-tm_stop
 133              		.section	.text._tm_init,"ax",%progbits
 134              		.align	1
 135              		.p2align 4,,15
 136              		.global	_tm_init
 137              		.syntax unified
 138              		.thumb
 139              		.thumb_func
 140              		.fpu fpv4-sp-d16
 141              		.type	_tm_init, %function
 142              	_tm_init:
 143              	.LFB232:
 144              		.loc 2 77 0
 145              		.cfi_startproc
 146              		@ args = 0, pretend = 0, frame = 24
 147              		@ frame_needed = 0, uses_anonymous_args = 0
 148 0000 00B5     		push	{lr}
 149              		.cfi_def_cfa_offset 4
 150              		.cfi_offset 14, -4
 151 0002 87B0     		sub	sp, sp, #28
 152              		.cfi_def_cfa_offset 32
 153              		.loc 2 83 0
 154 0004 0B4B     		ldr	r3, .L10
 155 0006 0022     		movs	r2, #0
 156 0008 C3F89820 		str	r2, [r3, #152]
 157              		.loc 2 84 0
 158 000c 6B46     		mov	r3, sp
 159 000e 1846     		mov	r0, r3
 160 0010 FFF7FEFF 		bl	chTMObjectInit
 161              		.loc 2 85 0
 162 0014 6B46     		mov	r3, sp
 163 0016 1846     		mov	r0, r3
 164 0018 FFF7FEFF 		bl	chTMStartMeasurementX
 165              		.loc 2 86 0
 166 001c 6B46     		mov	r3, sp
 167 001e 1846     		mov	r0, r3
 168 0020 FFF7FEFF 		bl	chTMStopMeasurementX
 169              		.loc 2 87 0
 170 0024 029B     		ldr	r3, [sp, #8]
 171 0026 034A     		ldr	r2, .L10
ARM GAS  /tmp/ccFdtjmc.s 			page 4


 172 0028 C2F89830 		str	r3, [r2, #152]
 173              		.loc 2 88 0
 174 002c 00BF     		nop
 175 002e 07B0     		add	sp, sp, #28
 176              		.cfi_def_cfa_offset 4
 177              		@ sp needed
 178 0030 5DF804FB 		ldr	pc, [sp], #4
 179              	.L11:
 180              		.align	2
 181              	.L10:
 182 0034 00000000 		.word	ch
 183              		.cfi_endproc
 184              	.LFE232:
 185              		.size	_tm_init, .-_tm_init
 186              		.section	.text.chTMObjectInit,"ax",%progbits
 187              		.align	1
 188              		.p2align 4,,15
 189              		.global	chTMObjectInit
 190              		.syntax unified
 191              		.thumb
 192              		.thumb_func
 193              		.fpu fpv4-sp-d16
 194              		.type	chTMObjectInit, %function
 195              	chTMObjectInit:
 196              	.LFB233:
 197              		.loc 2 97 0
 198              		.cfi_startproc
 199              		@ args = 0, pretend = 0, frame = 8
 200              		@ frame_needed = 0, uses_anonymous_args = 0
 201              		@ link register save eliminated.
 202 0000 10B4     		push	{r4}
 203              		.cfi_def_cfa_offset 4
 204              		.cfi_offset 4, -4
 205 0002 83B0     		sub	sp, sp, #12
 206              		.cfi_def_cfa_offset 16
 207 0004 0190     		str	r0, [sp, #4]
 208              		.loc 2 99 0
 209 0006 019B     		ldr	r3, [sp, #4]
 210 0008 4FF0FF32 		mov	r2, #-1
 211 000c 1A60     		str	r2, [r3]
 212              		.loc 2 100 0
 213 000e 019B     		ldr	r3, [sp, #4]
 214 0010 0022     		movs	r2, #0
 215 0012 5A60     		str	r2, [r3, #4]
 216              		.loc 2 101 0
 217 0014 019B     		ldr	r3, [sp, #4]
 218 0016 0022     		movs	r2, #0
 219 0018 9A60     		str	r2, [r3, #8]
 220              		.loc 2 102 0
 221 001a 019B     		ldr	r3, [sp, #4]
 222 001c 0022     		movs	r2, #0
 223 001e DA60     		str	r2, [r3, #12]
 224              		.loc 2 103 0
 225 0020 019A     		ldr	r2, [sp, #4]
 226 0022 4FF00003 		mov	r3, #0
 227 0026 4FF00004 		mov	r4, #0
 228 002a C2E90434 		strd	r3, [r2, #16]
ARM GAS  /tmp/ccFdtjmc.s 			page 5


 229              		.loc 2 104 0
 230 002e 00BF     		nop
 231 0030 03B0     		add	sp, sp, #12
 232              		.cfi_def_cfa_offset 4
 233              		@ sp needed
 234 0032 5DF8044B 		ldr	r4, [sp], #4
 235              		.cfi_restore 4
 236              		.cfi_def_cfa_offset 0
 237 0036 7047     		bx	lr
 238              		.cfi_endproc
 239              	.LFE233:
 240              		.size	chTMObjectInit, .-chTMObjectInit
 241              		.section	.text.chTMStartMeasurementX,"ax",%progbits
 242              		.align	1
 243              		.p2align 4,,15
 244              		.global	chTMStartMeasurementX
 245              		.syntax unified
 246              		.thumb
 247              		.thumb_func
 248              		.fpu fpv4-sp-d16
 249              		.type	chTMStartMeasurementX, %function
 250              	chTMStartMeasurementX:
 251              	.LFB234:
 252              		.loc 2 114 0
 253              		.cfi_startproc
 254              		@ args = 0, pretend = 0, frame = 8
 255              		@ frame_needed = 0, uses_anonymous_args = 0
 256 0000 00B5     		push	{lr}
 257              		.cfi_def_cfa_offset 4
 258              		.cfi_offset 14, -4
 259 0002 83B0     		sub	sp, sp, #12
 260              		.cfi_def_cfa_offset 16
 261 0004 0190     		str	r0, [sp, #4]
 262              		.loc 2 116 0
 263 0006 FFF7FEFF 		bl	port_rt_get_counter_value
 264 000a 0246     		mov	r2, r0
 265 000c 019B     		ldr	r3, [sp, #4]
 266 000e 9A60     		str	r2, [r3, #8]
 267              		.loc 2 117 0
 268 0010 00BF     		nop
 269 0012 03B0     		add	sp, sp, #12
 270              		.cfi_def_cfa_offset 4
 271              		@ sp needed
 272 0014 5DF804FB 		ldr	pc, [sp], #4
 273              		.cfi_endproc
 274              	.LFE234:
 275              		.size	chTMStartMeasurementX, .-chTMStartMeasurementX
 276              		.section	.text.chTMStopMeasurementX,"ax",%progbits
 277              		.align	1
 278              		.p2align 4,,15
 279              		.global	chTMStopMeasurementX
 280              		.syntax unified
 281              		.thumb
 282              		.thumb_func
 283              		.fpu fpv4-sp-d16
 284              		.type	chTMStopMeasurementX, %function
 285              	chTMStopMeasurementX:
ARM GAS  /tmp/ccFdtjmc.s 			page 6


 286              	.LFB235:
 287              		.loc 2 127 0
 288              		.cfi_startproc
 289              		@ args = 0, pretend = 0, frame = 8
 290              		@ frame_needed = 0, uses_anonymous_args = 0
 291 0000 00B5     		push	{lr}
 292              		.cfi_def_cfa_offset 4
 293              		.cfi_offset 14, -4
 294 0002 83B0     		sub	sp, sp, #12
 295              		.cfi_def_cfa_offset 16
 296 0004 0190     		str	r0, [sp, #4]
 297              		.loc 2 129 0
 298 0006 FFF7FEFF 		bl	port_rt_get_counter_value
 299 000a 0146     		mov	r1, r0
 300 000c 054B     		ldr	r3, .L15
 301 000e D3F89830 		ldr	r3, [r3, #152]
 302 0012 1A46     		mov	r2, r3
 303 0014 0198     		ldr	r0, [sp, #4]
 304 0016 FFF7FEFF 		bl	tm_stop
 305              		.loc 2 130 0
 306 001a 00BF     		nop
 307 001c 03B0     		add	sp, sp, #12
 308              		.cfi_def_cfa_offset 4
 309              		@ sp needed
 310 001e 5DF804FB 		ldr	pc, [sp], #4
 311              	.L16:
 312 0022 00BF     		.align	2
 313              	.L15:
 314 0024 00000000 		.word	ch
 315              		.cfi_endproc
 316              	.LFE235:
 317              		.size	chTMStopMeasurementX, .-chTMStopMeasurementX
 318              		.section	.text.chTMChainMeasurementToX,"ax",%progbits
 319              		.align	1
 320              		.p2align 4,,15
 321              		.global	chTMChainMeasurementToX
 322              		.syntax unified
 323              		.thumb
 324              		.thumb_func
 325              		.fpu fpv4-sp-d16
 326              		.type	chTMChainMeasurementToX, %function
 327              	chTMChainMeasurementToX:
 328              	.LFB236:
 329              		.loc 2 145 0
 330              		.cfi_startproc
 331              		@ args = 0, pretend = 0, frame = 8
 332              		@ frame_needed = 0, uses_anonymous_args = 0
 333 0000 00B5     		push	{lr}
 334              		.cfi_def_cfa_offset 4
 335              		.cfi_offset 14, -4
 336 0002 83B0     		sub	sp, sp, #12
 337              		.cfi_def_cfa_offset 16
 338 0004 0190     		str	r0, [sp, #4]
 339 0006 0091     		str	r1, [sp]
 340              		.loc 2 148 0
 341 0008 FFF7FEFF 		bl	port_rt_get_counter_value
 342 000c 0246     		mov	r2, r0
ARM GAS  /tmp/ccFdtjmc.s 			page 7


 343 000e 009B     		ldr	r3, [sp]
 344 0010 9A60     		str	r2, [r3, #8]
 345              		.loc 2 151 0
 346 0012 009B     		ldr	r3, [sp]
 347 0014 9B68     		ldr	r3, [r3, #8]
 348 0016 0022     		movs	r2, #0
 349 0018 1946     		mov	r1, r3
 350 001a 0198     		ldr	r0, [sp, #4]
 351 001c FFF7FEFF 		bl	tm_stop
 352              		.loc 2 152 0
 353 0020 00BF     		nop
 354 0022 03B0     		add	sp, sp, #12
 355              		.cfi_def_cfa_offset 4
 356              		@ sp needed
 357 0024 5DF804FB 		ldr	pc, [sp], #4
 358              		.cfi_endproc
 359              	.LFE236:
 360              		.size	chTMChainMeasurementToX, .-chTMChainMeasurementToX
 361              		.text
 362              	.Letext0:
 363              		.file 3 "/usr/arm-none-eabi/include/machine/_default_types.h"
 364              		.file 4 "/usr/arm-none-eabi/include/sys/_stdint.h"
 365              		.file 5 "../ChibiOS/os/rt/ports/ARMCMx/compilers/GCC/chtypes.h"
 366              		.file 6 "../ChibiOS/os/rt/include/chsystypes.h"
 367              		.file 7 "../ChibiOS/os/rt/include/chschd.h"
 368              		.file 8 "../ChibiOS/os/ext/CMSIS/include/core_cm4.h"
 369              		.file 9 "../ChibiOS/os/ext/CMSIS/ST/STM32F4xx/system_stm32f4xx.h"
 370              		.file 10 "../ChibiOS/os/rt/ports/ARMCMx/chcore.h"
 371              		.file 11 "../ChibiOS/os/rt/include/chtm.h"
 372              		.file 12 "../ChibiOS/os/rt/include/chstats.h"
 373              		.file 13 "../ChibiOS/os/rt/include/chsem.h"
 374              		.file 14 "../ChibiOS/os/rt/include/chmtx.h"
 375              		.file 15 "../ChibiOS/os/rt/include/chregistry.h"