ARM GAS  /tmp/ccFdtjmc.s 			page 1


   1              		.cpu cortex-m4
   2              		.eabi_attribute 27, 1
   3              		.eabi_attribute 28, 1
   4              		.eabi_attribute 20, 1
   5              		.eabi_attribute 21, 1
   6              		.eabi_attribute 23, 3
   7              		.eabi_attribute 24, 1
   8              		.eabi_attribute 25, 1
   9              		.eabi_attribute 26, 1
  10              		.eabi_attribute 30, 6
  11              		.eabi_attribute 34, 1
  12              		.eabi_attribute 18, 4
  13              		.file	"chtm.c"
  14              		.text
  15              	.Ltext0:
  16              		.cfi_sections	.debug_frame
  17              		.section	.text.port_rt_get_counter_value,"ax",%progbits
  18              		.align	1
  19              		.p2align 4,,15
  20              		.syntax unified
  21              		.thumb
  22              		.thumb_func
  23              		.fpu fpv4-sp-d16
  24              		.type	port_rt_get_counter_value, %function
  25              	port_rt_get_counter_value:
  26              	.LFB135:
  27              		.file 1 "../ChibiOS/os/rt/ports/ARMCMx/chcore_v7m.h"
  28              		.loc 1 568 0
  29              		.cfi_startproc
  30              		@ args = 0, pretend = 0, frame = 0
  31              		@ frame_needed = 0, uses_anonymous_args = 0
  32              		@ link register save eliminated.
  33              		.loc 1 570 0
  34 0000 014B     		ldr	r3, .L3
  35 0002 5B68     		ldr	r3, [r3, #4]
  36              		.loc 1 571 0
  37 0004 1846     		mov	r0, r3
  38 0006 7047     		bx	lr
  39              	.L4:
  40              		.align	2
  41              	.L3:
  42 0008 001000E0 		.word	-536866816
  43              		.cfi_endproc
  44              	.LFE135:
  45              		.size	port_rt_get_counter_value, .-port_rt_get_counter_value
  46              		.section	.text.tm_stop,"ax",%progbits
  47              		.align	1
  48              		.p2align 4,,15
  49              		.syntax unified
  50              		.thumb
  51              		.thumb_func
  52              		.fpu fpv4-sp-d16
  53              		.type	tm_stop, %function
  54              	tm_stop:
  55              	.LFB231:
  56              		.file 2 "../ChibiOS/os/rt/src/chtm.c"
  57              		.loc 2 55 0
ARM GAS  /tmp/ccFdtjmc.s 			page 2


  58              		.cfi_startproc
  59              		@ args = 0, pretend = 0, frame = 16
  60              		@ frame_needed = 0, uses_anonymous_args = 0
  61              		@ link register save eliminated.
  62 0000 10B4     		push	{r4}
  63              		.cfi_def_cfa_offset 4
  64              		.cfi_offset 4, -4
  65 0002 85B0     		sub	sp, sp, #20
  66              		.cfi_def_cfa_offset 24
  67 0004 0390     		str	r0, [sp, #12]
  68 0006 0291     		str	r1, [sp, #8]
  69 0008 0192     		str	r2, [sp, #4]
  70              		.loc 2 57 0
  71 000a 039B     		ldr	r3, [sp, #12]
  72 000c DB68     		ldr	r3, [r3, #12]
  73 000e 5A1C     		adds	r2, r3, #1
  74 0010 039B     		ldr	r3, [sp, #12]
  75 0012 DA60     		str	r2, [r3, #12]
  76              		.loc 2 58 0
  77 0014 039B     		ldr	r3, [sp, #12]
  78 0016 9B68     		ldr	r3, [r3, #8]
  79 0018 029A     		ldr	r2, [sp, #8]
  80 001a D21A     		subs	r2, r2, r3
  81 001c 019B     		ldr	r3, [sp, #4]
  82 001e D21A     		subs	r2, r2, r3
  83 0020 039B     		ldr	r3, [sp, #12]
  84 0022 9A60     		str	r2, [r3, #8]
  85              		.loc 2 59 0
  86 0024 039B     		ldr	r3, [sp, #12]
  87 0026 D3E90412 		ldrd	r1, [r3, #16]
  88 002a 039B     		ldr	r3, [sp, #12]
  89 002c 9B68     		ldr	r3, [r3, #8]
  90 002e 4FF00004 		mov	r4, #0
  91 0032 5B18     		adds	r3, r3, r1
  92 0034 44EB0204 		adc	r4, r4, r2
  93 0038 039A     		ldr	r2, [sp, #12]
  94 003a C2E90434 		strd	r3, [r2, #16]
  95              		.loc 2 60 0
  96 003e 039B     		ldr	r3, [sp, #12]
  97 0040 9A68     		ldr	r2, [r3, #8]
  98 0042 039B     		ldr	r3, [sp, #12]
  99 0044 5B68     		ldr	r3, [r3, #4]
 100 0046 9A42     		cmp	r2, r3
 101 0048 03D9     		bls	.L6
 102              		.loc 2 61 0
 103 004a 039B     		ldr	r3, [sp, #12]
 104 004c 9A68     		ldr	r2, [r3, #8]
 105 004e 039B     		ldr	r3, [sp, #12]
 106 0050 5A60     		str	r2, [r3, #4]
 107              	.L6:
 108              		.loc 2 63 0
 109 0052 039B     		ldr	r3, [sp, #12]
 110 0054 9A68     		ldr	r2, [r3, #8]
 111 0056 039B     		ldr	r3, [sp, #12]
 112 0058 1B68     		ldr	r3, [r3]
 113 005a 9A42     		cmp	r2, r3
 114 005c 03D2     		bcs	.L8
ARM GAS  /tmp/ccFdtjmc.s 			page 3


 115              		.loc 2 64 0
 116 005e 039B     		ldr	r3, [sp, #12]
 117 0060 9A68     		ldr	r2, [r3, #8]
 118 0062 039B     		ldr	r3, [sp, #12]
 119 0064 1A60     		str	r2, [r3]
 120              	.L8:
 121              		.loc 2 66 0
 122 0066 00BF     		nop
 123 0068 05B0     		add	sp, sp, #20
 124              		.cfi_def_cfa_offset 4
 125              		@ sp needed
 126 006a 5DF8044B 		ldr	r4, [sp], #4
 127              		.cfi_restore 4
 128              		.cfi_def_cfa_offset 0
 129 006e 7047     		bx	lr
 130              		.cfi_endproc
 131              	.LFE231:
 132              		.size	tm_stop, .-tm_stop
 133              		.section	.text._tm_init,"ax",%progbits
 134              		.align	1
 135              		.p2align 4,,15
 136              		.global	_tm_init
 137              		.syntax unified
 138              		.thumb
 139              		.thumb_func
 140              		.fpu fpv4-sp-d16
 141              		.type	_tm_init, %function
 142              	_tm_init:
 143              	.LFB232:
 144              		.loc 2 77 0
 145              		.cfi_startproc
 146              		@ args = 0, pretend = 0, frame = 24
 147              		@ frame_needed = 0, uses_anonymous_args = 0
 148 0000 00B5     		push	{lr}
 149              		.cfi_def_cfa_offset 4
 150              		.cfi_offset 14, -4
 151 0002 87B0     		sub	sp, sp, #28
 152              		.cfi_def_cfa_offset 32
 153              		.loc 2 83 0
 154 0004 0B4B     		ldr	r3, .L10
 155 0006 0022     		movs	r2, #0
 156 0008 C3F89820 		str	r2, [r3, #152]
 157              		.loc 2 84 0
 158 000c 6B46     		mov	r3, sp
 159 000e 1846     		mov	r0, r3
 160 0010 FFF7FEFF 		bl	chTMObjectInit
 161              		.loc 2 85 0
 162 0014 6B46     		mov	r3, sp
 163 0016 1846     		mov	r0, r3
 164 0018 FFF7FEFF 		bl	chTMStartMeasurementX
 165              		.loc 2 86 0
 166 001c 6B46     		mov	r3, sp
 167 001e 1846     		mov	r0, r3
 168 0020 FFF7FEFF 		bl	chTMStopMeasurementX
 169              		.loc 2 87 0
 170 0024 029B     		ldr	r3, [sp, #8]
 171 0026 034A     		ldr	r2, .L10
ARM GAS  /tmp/ccFdtjmc.s 			page 4


 172 0028 C2F89830 		str	r3, [r2, #152]
 173              		.loc 2 88 0
 174 002c 00BF     		nop
 175 002e 07B0     		add	sp, sp, #28
 176              		.cfi_def_cfa_offset 4
 177              		@ sp needed
 178 0030 5DF804FB 		ldr	pc, [sp], #4
 179              	.L11:
 180              		.align	2
 181              	.L10:
 182 0034 00000000 		.word	ch
 183              		.cfi_endproc
 184              	.LFE232:
 185              		.size	_tm_init, .-_tm_init
 186              		.section	.text.chTMObjectInit,"ax",%progbits
 187              		.align	1
 188              		.p2align 4,,15
 189              		.global	chTMObjectInit
 190              		.syntax unified
 191              		.thumb
 192              		.thumb_func
 193              		.fpu fpv4-sp-d16
 194              		.type	chTMObjectInit, %function
 195              	chTMObjectInit:
 196              	.LFB233:
 197              		.loc 2 97 0
 198              		.cfi_startproc
 199              		@ args = 0, pretend = 0, frame = 8
 200              		@ frame_needed = 0, uses_anonymous_args = 0
 201              		@ link register save eliminated.
 202 0000 10B4     		push	{r4}
 203              		.cfi_def_cfa_offset 4
 204              		.cfi_offset 4, -4
 205 0002 83B0     		sub	sp, sp, #12
 206              		.cfi_def_cfa_offset 16
 207 0004 0190     		str	r0, [sp, #4]
 208              		.loc 2 99 0
 209 0006 019B     		ldr	r3, [sp, #4]
 210 0008 4FF0FF32 		mov	r2, #-1
 211 000c 1A60     		str	r2, [r3]
 212              		.loc 2 100 0
 213 000e 019B     		ldr	r3, [sp, #4]
 214 0010 0022     		movs	r2, #0
 215 0012 5A60     		str	r2, [r3, #4]
 216              		.loc 2 101 0
 217 0014 019B     		ldr	r3, [sp, #4]
 218 0016 0022     		movs	r2, #0
 219 0018 9A60     		str	r2, [r3, #8]
 220              		.loc 2 102 0
 221 001a 019B     		ldr	r3, [sp, #4]
 222 001c 0022     		movs	r2, #0
 223 001e DA60     		str	r2, [r3, #12]
 224              		.loc 2 103 0
 225 0020 019A     		ldr	r2, [sp, #4]
 226 0022 4FF00003 		mov	r3, #0
 227 0026 4FF00004 		mov	r4, #0
 228 002a C2E90434 		strd	r3, [r2, #16]
ARM GAS  /tmp/ccFdtjmc.s 			page 5


 229              		.loc 2 104 0
 230 002e 00BF     		nop
 231 0030 03B0     		add	sp, sp, #12
 232              		.cfi_def_cfa_offset 4
 233              		@ sp needed
 234 0032 5DF8044B 		ldr	r4, [sp], #4
 235              		.cfi_restore 4
 236              		.cfi_def_cfa_offset 0
 237 0036 7047     		bx	lr
 238              		.cfi_endproc
 239              	.LFE233:
 240              		.size	chTMObjectInit, .-chTMObjectInit
 241              		.section	.text.chTMStartMeasurementX,"ax",%progbits
 242              		.align	1
 243              		.p2align 4,,15
 244              		.global	chTMStartMeasurementX
 245              		.syntax unified
 246              		.thumb
 247              		.thumb_func
 248              		.fpu fpv4-sp-d16
 249              		.type	chTMStartMeasurementX, %function
 250              	chTMStartMeasurementX:
 251              	.LFB234:
 252              		.loc 2 114 0
 253              		.cfi_startproc
 254              		@ args = 0, pretend = 0, frame = 8
 255              		@ frame_needed = 0, uses_anonymous_args = 0
 256 0000 00B5     		push	{lr}
 257              		.cfi_def_cfa_offset 4
 258              		.cfi_offset 14, -4
 259 0002 83B0     		sub	sp, sp, #12
 260              		.cfi_def_cfa_offset 16
 261 0004 0190     		str	r0, [sp, #4]
 262              		.loc 2 116 0
 263 0006 FFF7FEFF 		bl	port_rt_get_counter_value
 264 000a 0246     		mov	r2, r0
 265 000c 019B     		ldr	r3, [sp, #4]
 266 000e 9A60     		str	r2, [r3, #8]
 267              		.loc 2 117 0
 268 0010 00BF     		nop
 269 0012 03B0     		add	sp, sp, #12
 270              		.cfi_def_cfa_offset 4
 271              		@ sp needed
 272 0014 5DF804FB 		ldr	pc, [sp], #4
 273              		.cfi_endproc
 274              	.LFE234:
 275              		.size	chTMStartMeasurementX, .-chTMStartMeasurementX
 276              		.section	.text.chTMStopMeasurementX,"ax",%progbits
 277              		.align	1
 278              		.p2align 4,,15
 279              		.global	chTMStopMeasurementX
 280              		.syntax unified
 281              		.thumb
 282              		.thumb_func
 283              		.fpu fpv4-sp-d16
 284              		.type	chTMStopMeasurementX, %function
 285              	chTMStopMeasurementX:
ARM GAS  /tmp/ccFdtjmc.s 			page 6


 286              	.LFB235:
 287              		.loc 2 127 0
 288              		.cfi_startproc
 289              		@ args = 0, pretend = 0, frame = 8
 290              		@ frame_needed = 0, uses_anonymous_args = 0
 291 0000 00B5     		push	{lr}
 292              		.cfi_def_cfa_offset 4
 293              		.cfi_offset 14, -4
 294 0002 83B0     		sub	sp, sp, #12
 295              		.cfi_def_cfa_offset 16
 296 0004 0190     		str	r0, [sp, #4]
 297              		.loc 2 129 0
 298 0006 FFF7FEFF 		bl	port_rt_get_counter_value
 299 000a 0146     		mov	r1, r0
 300 000c 054B     		ldr	r3, .L15
 301 000e D3F89830 		ldr	r3, [r3, #152]
 302 0012 1A46     		mov	r2, r3
 303 0014 0198     		ldr	r0, [sp, #4]
 304 0016 FFF7FEFF 		bl	tm_stop
 305              		.loc 2 130 0
 306 001a 00BF     		nop
 307 001c 03B0     		add	sp, sp, #12
 308              		.cfi_def_cfa_offset 4
 309              		@ sp needed
 310 001e 5DF804FB 		ldr	pc, [sp], #4
 311              	.L16:
 312 0022 00BF     		.align	2
 313              	.L15:
 314 0024 00000000 		.word	ch
 315              		.cfi_endproc
 316              	.LFE235:
 317              		.size	chTMStopMeasurementX, .-chTMStopMeasurementX
 318              		.section	.text.chTMChainMeasurementToX,"ax",%progbits
 319              		.align	1
 320              		.p2align 4,,15
 321              		.global	chTMChainMeasurementToX
 322              		.syntax unified
 323              		.thumb
 324              		.thumb_func
 325              		.fpu fpv4-sp-d16
 326              		.type	chTMChainMeasurementToX, %function
 327              	chTMChainMeasurementToX:
 328              	.LFB236:
 329              		.loc 2 145 0
 330              		.cfi_startproc
 331              		@ args = 0, pretend = 0, frame = 8
 332              		@ frame_needed = 0, uses_anonymous_args = 0
 333 0000 00B5     		push	{lr}
 334              		.cfi_def_cfa_offset 4
 335              		.cfi_offset 14, -4
 336 0002 83B0     		sub	sp, sp, #12
 337              		.cfi_def_cfa_offset 16
 338 0004 0190     		str	r0, [sp, #4]
 339 0006 0091     		str	r1, [sp]
 340              		.loc 2 148 0
 341 0008 FFF7FEFF 		bl	port_rt_get_counter_value
 342 000c 0246     		mov	r2, r0
ARM GAS  /tmp/ccFdtjmc.s 			page 7


 343 000e 009B     		ldr	r3, [sp]
 344 0010 9A60     		str	r2, [r3, #8]
 345              		.loc 2 151 0
 346 0012 009B     		ldr	r3, [sp]
 347 0014 9B68     		ldr	r3, [r3, #8]
 348 0016 0022     		movs	r2, #0
 349 0018 1946     		mov	r1, r3
 350 001a 0198     		ldr	r0, [sp, #4]
 351 001c FFF7FEFF 		bl	tm_stop
 352              		.loc 2 152 0
 353 0020 00BF     		nop
 354 0022 03B0     		add	sp, sp, #12
 355              		.cfi_def_cfa_offset 4
 356              		@ sp needed
 357 0024 5DF804FB 		ldr	pc, [sp], #4
 358              		.cfi_endproc
 359              	.LFE236:
 360              		.size	chTMChainMeasurementToX, .-chTMChainMeasurementToX
 361              		.text
 362              	.Letext0:
 363              		.file 3 "/usr/arm-none-eabi/include/machine/_default_types.h"
 364              		.file 4 "/usr/arm-none-eabi/include/sys/_stdint.h"
 365              		.file 5 "../ChibiOS/os/rt/ports/ARMCMx/compilers/GCC/chtypes.h"
 366              		.file 6 "../ChibiOS/os/rt/include/chsystypes.h"
 367              		.file 7 "../ChibiOS/os/rt/include/chschd.h"
 368              		.file 8 "../ChibiOS/os/ext/CMSIS/include/core_cm4.h"
 369              		.file 9 "../ChibiOS/os/ext/CMSIS/ST/STM32F4xx/system_stm32f4xx.h"
 370              		.file 10 "../ChibiOS/os/rt/ports/ARMCMx/chcore.h"
 371              		.file 11 "../ChibiOS/os/rt/include/chtm.h"
 372              		.file 12 "../ChibiOS/os/rt/include/chstats.h"
 373              		.file 13 "../ChibiOS/os/rt/include/chsem.h"
 374              		.file 14 "../ChibiOS/os/rt/include/chmtx.h"
 375              		.file 15 "../ChibiOS/os/rt/include/chregistry.h"
 376              		.section	.debug_info,"",%progbits
 377              	.Ldebug_info0:
 378 0000 A40B0000 		.4byte	0xba4
 379 0004 0400     		.2byte	0x4
 380 0006 00000000 		.4byte	.Ldebug_abbrev0
 381 000a 04       		.byte	0x4
 382 000b 01       		.uleb128 0x1
 383 000c C4010000 		.4byte	.LASF175
 384 0010 0C       		.byte	0xc
 385 0011 E9040000 		.4byte	.LASF176
 386 0015 22080000 		.4byte	.LASF177
 387 0019 00000000 		.4byte	.Ldebug_ranges0+0
 388 001d 00000000 		.4byte	0
 389 0021 00000000 		.4byte	.Ldebug_line0
 390 0025 02       		.uleb128 0x2
 391 0026 04       		.byte	0x4
 392 0027 05       		.byte	0x5
 393 0028 696E7400 		.ascii	"int\000"
 394 002c 03       		.uleb128 0x3
 395 002d 04       		.byte	0x4
 396 002e 07       		.byte	0x7
 397 002f 55030000 		.4byte	.LASF0
 398 0033 03       		.uleb128 0x3
 399 0034 08       		.byte	0x8
ARM GAS  /tmp/ccFdtjmc.s 			page 8


 400 0035 05       		.byte	0x5
 401 0036 24010000 		.4byte	.LASF1
 402 003a 03       		.uleb128 0x3
 403 003b 08       		.byte	0x8
 404 003c 04       		.byte	0x4
 405 003d DD040000 		.4byte	.LASF2
 406 0041 03       		.uleb128 0x3
 407 0042 01       		.byte	0x1
 408 0043 06       		.byte	0x6
 409 0044 32010000 		.4byte	.LASF3
 410 0048 04       		.uleb128 0x4
 411 0049 3D000000 		.4byte	.LASF6
 412 004d 03       		.byte	0x3
 413 004e 2B       		.byte	0x2b
 414 004f 53000000 		.4byte	0x53
 415 0053 03       		.uleb128 0x3
 416 0054 01       		.byte	0x1
 417 0055 08       		.byte	0x8
 418 0056 DD050000 		.4byte	.LASF4
 419 005a 03       		.uleb128 0x3
 420 005b 02       		.byte	0x2
 421 005c 05       		.byte	0x5
 422 005d 20060000 		.4byte	.LASF5
 423 0061 04       		.uleb128 0x4
 424 0062 1D070000 		.4byte	.LASF7
 425 0066 03       		.byte	0x3
 426 0067 39       		.byte	0x39
 427 0068 6C000000 		.4byte	0x6c
 428 006c 03       		.uleb128 0x3
 429 006d 02       		.byte	0x2
 430 006e 07       		.byte	0x7
 431 006f D5030000 		.4byte	.LASF8
 432 0073 04       		.uleb128 0x4
 433 0074 5C040000 		.4byte	.LASF9
 434 0078 03       		.byte	0x3
 435 0079 4D       		.byte	0x4d
 436 007a 7E000000 		.4byte	0x7e
 437 007e 03       		.uleb128 0x3
 438 007f 04       		.byte	0x4
 439 0080 05       		.byte	0x5
 440 0081 B2010000 		.4byte	.LASF10
 441 0085 04       		.uleb128 0x4
 442 0086 70070000 		.4byte	.LASF11
 443 008a 03       		.byte	0x3
 444 008b 4F       		.byte	0x4f
 445 008c 90000000 		.4byte	0x90
 446 0090 03       		.uleb128 0x3
 447 0091 04       		.byte	0x4
 448 0092 07       		.byte	0x7
 449 0093 F9060000 		.4byte	.LASF12
 450 0097 04       		.uleb128 0x4
 451 0098 65050000 		.4byte	.LASF13
 452 009c 03       		.byte	0x3
 453 009d 69       		.byte	0x69
 454 009e A2000000 		.4byte	0xa2
 455 00a2 03       		.uleb128 0x3
 456 00a3 08       		.byte	0x8
ARM GAS  /tmp/ccFdtjmc.s 			page 9


 457 00a4 07       		.byte	0x7
 458 00a5 8C000000 		.4byte	.LASF14
 459 00a9 04       		.uleb128 0x4
 460 00aa F1070000 		.4byte	.LASF15
 461 00ae 04       		.byte	0x4
 462 00af 18       		.byte	0x18
 463 00b0 48000000 		.4byte	0x48
 464 00b4 04       		.uleb128 0x4
 465 00b5 32040000 		.4byte	.LASF16
 466 00b9 04       		.byte	0x4
 467 00ba 24       		.byte	0x24
 468 00bb 61000000 		.4byte	0x61
 469 00bf 04       		.uleb128 0x4
 470 00c0 D5050000 		.4byte	.LASF17
 471 00c4 04       		.byte	0x4
 472 00c5 2C       		.byte	0x2c
 473 00c6 73000000 		.4byte	0x73
 474 00ca 05       		.uleb128 0x5
 475 00cb BF000000 		.4byte	0xbf
 476 00cf 04       		.uleb128 0x4
 477 00d0 BE060000 		.4byte	.LASF18
 478 00d4 04       		.byte	0x4
 479 00d5 30       		.byte	0x30
 480 00d6 85000000 		.4byte	0x85
 481 00da 05       		.uleb128 0x5
 482 00db CF000000 		.4byte	0xcf
 483 00df 06       		.uleb128 0x6
 484 00e0 DA000000 		.4byte	0xda
 485 00e4 04       		.uleb128 0x4
 486 00e5 27000000 		.4byte	.LASF19
 487 00e9 04       		.byte	0x4
 488 00ea 3C       		.byte	0x3c
 489 00eb 97000000 		.4byte	0x97
 490 00ef 04       		.uleb128 0x4
 491 00f0 AE070000 		.4byte	.LASF20
 492 00f4 05       		.byte	0x5
 493 00f5 39       		.byte	0x39
 494 00f6 CF000000 		.4byte	0xcf
 495 00fa 04       		.uleb128 0x4
 496 00fb F2000000 		.4byte	.LASF21
 497 00ff 05       		.byte	0x5
 498 0100 3A       		.byte	0x3a
 499 0101 E4000000 		.4byte	0xe4
 500 0105 04       		.uleb128 0x4
 501 0106 47060000 		.4byte	.LASF22
 502 010a 05       		.byte	0x5
 503 010b 3C       		.byte	0x3c
 504 010c A9000000 		.4byte	0xa9
 505 0110 04       		.uleb128 0x4
 506 0111 BB010000 		.4byte	.LASF23
 507 0115 05       		.byte	0x5
 508 0116 3D       		.byte	0x3d
 509 0117 A9000000 		.4byte	0xa9
 510 011b 04       		.uleb128 0x4
 511 011c 7B050000 		.4byte	.LASF24
 512 0120 05       		.byte	0x5
 513 0121 3E       		.byte	0x3e
ARM GAS  /tmp/ccFdtjmc.s 			page 10


 514 0122 A9000000 		.4byte	0xa9
 515 0126 04       		.uleb128 0x4
 516 0127 B9050000 		.4byte	.LASF25
 517 012b 05       		.byte	0x5
 518 012c 40       		.byte	0x40
 519 012d CF000000 		.4byte	0xcf
 520 0131 04       		.uleb128 0x4
 521 0132 08040000 		.4byte	.LASF26
 522 0136 05       		.byte	0x5
 523 0137 41       		.byte	0x41
 524 0138 BF000000 		.4byte	0xbf
 525 013c 04       		.uleb128 0x4
 526 013d 50040000 		.4byte	.LASF27
 527 0141 05       		.byte	0x5
 528 0142 43       		.byte	0x43
 529 0143 CF000000 		.4byte	0xcf
 530 0147 04       		.uleb128 0x4
 531 0148 49030000 		.4byte	.LASF28
 532 014c 05       		.byte	0x5
 533 014d 45       		.byte	0x45
 534 014e BF000000 		.4byte	0xbf
 535 0152 04       		.uleb128 0x4
 536 0153 13040000 		.4byte	.LASF29
 537 0157 05       		.byte	0x5
 538 0158 46       		.byte	0x46
 539 0159 CF000000 		.4byte	0xcf
 540 015d 04       		.uleb128 0x4
 541 015e 52070000 		.4byte	.LASF30
 542 0162 06       		.byte	0x6
 543 0163 33       		.byte	0x33
 544 0164 CF000000 		.4byte	0xcf
 545 0168 05       		.uleb128 0x5
 546 0169 5D010000 		.4byte	0x15d
 547 016d 04       		.uleb128 0x4
 548 016e 28070000 		.4byte	.LASF31
 549 0172 06       		.byte	0x6
 550 0173 3F       		.byte	0x3f
 551 0174 78010000 		.4byte	0x178
 552 0178 07       		.uleb128 0x7
 553 0179 F7030000 		.4byte	.LASF53
 554 017d 60       		.byte	0x60
 555 017e 07       		.byte	0x7
 556 017f C2       		.byte	0xc2
 557 0180 7E020000 		.4byte	0x27e
 558 0184 08       		.uleb128 0x8
 559 0185 40060000 		.4byte	.LASF32
 560 0189 07       		.byte	0x7
 561 018a C3       		.byte	0xc3
 562 018b 89020000 		.4byte	0x289
 563 018f 00       		.byte	0
 564 0190 08       		.uleb128 0x8
 565 0191 B2050000 		.4byte	.LASF33
 566 0195 07       		.byte	0x7
 567 0196 C5       		.byte	0xc5
 568 0197 89020000 		.4byte	0x289
 569 019b 04       		.byte	0x4
 570 019c 08       		.uleb128 0x8
ARM GAS  /tmp/ccFdtjmc.s 			page 11


 571 019d FB000000 		.4byte	.LASF34
 572 01a1 07       		.byte	0x7
 573 01a2 C7       		.byte	0xc7
 574 01a3 26010000 		.4byte	0x126
 575 01a7 08       		.byte	0x8
 576 01a8 08       		.uleb128 0x8
 577 01a9 30050000 		.4byte	.LASF35
 578 01ad 07       		.byte	0x7
 579 01ae C8       		.byte	0xc8
 580 01af 48060000 		.4byte	0x648
 581 01b3 0C       		.byte	0xc
 582 01b4 08       		.uleb128 0x8
 583 01b5 F0020000 		.4byte	.LASF36
 584 01b9 07       		.byte	0x7
 585 01ba CA       		.byte	0xca
 586 01bb 89020000 		.4byte	0x289
 587 01bf 10       		.byte	0x10
 588 01c0 08       		.uleb128 0x8
 589 01c1 22050000 		.4byte	.LASF37
 590 01c5 07       		.byte	0x7
 591 01c6 CB       		.byte	0xcb
 592 01c7 89020000 		.4byte	0x289
 593 01cb 14       		.byte	0x14
 594 01cc 08       		.uleb128 0x8
 595 01cd 1B080000 		.4byte	.LASF38
 596 01d1 07       		.byte	0x7
 597 01d2 D2       		.byte	0xd2
 598 01d3 28090000 		.4byte	0x928
 599 01d7 18       		.byte	0x18
 600 01d8 08       		.uleb128 0x8
 601 01d9 48050000 		.4byte	.LASF39
 602 01dd 07       		.byte	0x7
 603 01de D8       		.byte	0xd8
 604 01df 3F090000 		.4byte	0x93f
 605 01e3 1C       		.byte	0x1c
 606 01e4 08       		.uleb128 0x8
 607 01e5 2A060000 		.4byte	.LASF40
 608 01e9 07       		.byte	0x7
 609 01ea DD       		.byte	0xdd
 610 01eb 10010000 		.4byte	0x110
 611 01ef 20       		.byte	0x20
 612 01f0 08       		.uleb128 0x8
 613 01f1 5E060000 		.4byte	.LASF41
 614 01f5 07       		.byte	0x7
 615 01f6 E1       		.byte	0xe1
 616 01f7 05010000 		.4byte	0x105
 617 01fb 21       		.byte	0x21
 618 01fc 08       		.uleb128 0x8
 619 01fd DC070000 		.4byte	.LASF42
 620 0201 07       		.byte	0x7
 621 0202 E6       		.byte	0xe6
 622 0203 1B010000 		.4byte	0x11b
 623 0207 22       		.byte	0x22
 624 0208 09       		.uleb128 0x9
 625 0209 705F7500 		.ascii	"p_u\000"
 626 020d 07       		.byte	0x7
 627 020e 3101     		.2byte	0x131
ARM GAS  /tmp/ccFdtjmc.s 			page 12


 628 0210 63080000 		.4byte	0x863
 629 0214 24       		.byte	0x24
 630 0215 0A       		.uleb128 0xa
 631 0216 B3040000 		.4byte	.LASF43
 632 021a 07       		.byte	0x7
 633 021b 3601     		.2byte	0x136
 634 021d 8F020000 		.4byte	0x28f
 635 0221 28       		.byte	0x28
 636 0222 0A       		.uleb128 0xa
 637 0223 96030000 		.4byte	.LASF44
 638 0227 07       		.byte	0x7
 639 0228 3C01     		.2byte	0x13c
 640 022a B3020000 		.4byte	0x2b3
 641 022e 2C       		.byte	0x2c
 642 022f 0A       		.uleb128 0xa
 643 0230 17070000 		.4byte	.LASF45
 644 0234 07       		.byte	0x7
 645 0235 4001     		.2byte	0x140
 646 0237 31010000 		.4byte	0x131
 647 023b 34       		.byte	0x34
 648 023c 0A       		.uleb128 0xa
 649 023d AC060000 		.4byte	.LASF46
 650 0241 07       		.byte	0x7
 651 0242 4601     		.2byte	0x146
 652 0244 3C010000 		.4byte	0x13c
 653 0248 38       		.byte	0x38
 654 0249 0A       		.uleb128 0xa
 655 024a 46040000 		.4byte	.LASF47
 656 024e 07       		.byte	0x7
 657 024f 4D01     		.2byte	0x14d
 658 0251 22090000 		.4byte	0x922
 659 0255 3C       		.byte	0x3c
 660 0256 0A       		.uleb128 0xa
 661 0257 5C070000 		.4byte	.LASF48
 662 025b 07       		.byte	0x7
 663 025c 5101     		.2byte	0x151
 664 025e 26010000 		.4byte	0x126
 665 0262 40       		.byte	0x40
 666 0263 0A       		.uleb128 0xa
 667 0264 5B010000 		.4byte	.LASF49
 668 0268 07       		.byte	0x7
 669 0269 5801     		.2byte	0x158
 670 026b 66030000 		.4byte	0x366
 671 026f 44       		.byte	0x44
 672 0270 0A       		.uleb128 0xa
 673 0271 66060000 		.4byte	.LASF50
 674 0275 07       		.byte	0x7
 675 0276 5E01     		.2byte	0x15e
 676 0278 14080000 		.4byte	0x814
 677 027c 48       		.byte	0x48
 678 027d 00       		.byte	0
 679 027e 04       		.uleb128 0x4
 680 027f 01080000 		.4byte	.LASF51
 681 0283 06       		.byte	0x6
 682 0284 44       		.byte	0x44
 683 0285 89020000 		.4byte	0x289
 684 0289 0B       		.uleb128 0xb
ARM GAS  /tmp/ccFdtjmc.s 			page 13


 685 028a 04       		.byte	0x4
 686 028b 6D010000 		.4byte	0x16d
 687 028f 04       		.uleb128 0x4
 688 0290 89040000 		.4byte	.LASF52
 689 0294 06       		.byte	0x6
 690 0295 49       		.byte	0x49
 691 0296 9A020000 		.4byte	0x29a
 692 029a 07       		.uleb128 0x7
 693 029b DB060000 		.4byte	.LASF54
 694 029f 04       		.byte	0x4
 695 02a0 07       		.byte	0x7
 696 02a1 B0       		.byte	0xb0
 697 02a2 B3020000 		.4byte	0x2b3
 698 02a6 08       		.uleb128 0x8
 699 02a7 40060000 		.4byte	.LASF32
 700 02ab 07       		.byte	0x7
 701 02ac B1       		.byte	0xb1
 702 02ad 89020000 		.4byte	0x289
 703 02b1 00       		.byte	0
 704 02b2 00       		.byte	0
 705 02b3 04       		.uleb128 0x4
 706 02b4 78060000 		.4byte	.LASF55
 707 02b8 06       		.byte	0x6
 708 02b9 50       		.byte	0x50
 709 02ba BE020000 		.4byte	0x2be
 710 02be 07       		.uleb128 0x7
 711 02bf 53000000 		.4byte	.LASF56
 712 02c3 08       		.byte	0x8
 713 02c4 07       		.byte	0x7
 714 02c5 B7       		.byte	0xb7
 715 02c6 E3020000 		.4byte	0x2e3
 716 02ca 08       		.uleb128 0x8
 717 02cb 40060000 		.4byte	.LASF32
 718 02cf 07       		.byte	0x7
 719 02d0 B8       		.byte	0xb8
 720 02d1 89020000 		.4byte	0x289
 721 02d5 00       		.byte	0
 722 02d6 08       		.uleb128 0x8
 723 02d7 B2050000 		.4byte	.LASF33
 724 02db 07       		.byte	0x7
 725 02dc B9       		.byte	0xb9
 726 02dd 89020000 		.4byte	0x289
 727 02e1 04       		.byte	0x4
 728 02e2 00       		.byte	0
 729 02e3 04       		.uleb128 0x4
 730 02e4 0D000000 		.4byte	.LASF57
 731 02e8 06       		.byte	0x6
 732 02e9 57       		.byte	0x57
 733 02ea EE020000 		.4byte	0x2ee
 734 02ee 0C       		.uleb128 0xc
 735 02ef AA030000 		.4byte	.LASF58
 736 02f3 1C       		.byte	0x1c
 737 02f4 07       		.byte	0x7
 738 02f5 9001     		.2byte	0x190
 739 02f7 4A030000 		.4byte	0x34a
 740 02fb 0A       		.uleb128 0xa
 741 02fc D3060000 		.4byte	.LASF59
ARM GAS  /tmp/ccFdtjmc.s 			page 14


 742 0300 07       		.byte	0x7
 743 0301 9101     		.2byte	0x191
 744 0303 B3020000 		.4byte	0x2b3
 745 0307 00       		.byte	0
 746 0308 0A       		.uleb128 0xa
 747 0309 32060000 		.4byte	.LASF60
 748 030d 07       		.byte	0x7
 749 030e 9201     		.2byte	0x192
 750 0310 26010000 		.4byte	0x126
 751 0314 08       		.byte	0x8
 752 0315 0A       		.uleb128 0xa
 753 0316 2A050000 		.4byte	.LASF61
 754 031a 07       		.byte	0x7
 755 031b 9401     		.2byte	0x194
 756 031d 48060000 		.4byte	0x648
 757 0321 0C       		.byte	0xc
 758 0322 0A       		.uleb128 0xa
 759 0323 00030000 		.4byte	.LASF62
 760 0327 07       		.byte	0x7
 761 0328 9701     		.2byte	0x197
 762 032a 89020000 		.4byte	0x289
 763 032e 10       		.byte	0x10
 764 032f 0A       		.uleb128 0xa
 765 0330 5D050000 		.4byte	.LASF63
 766 0334 07       		.byte	0x7
 767 0335 9801     		.2byte	0x198
 768 0337 89020000 		.4byte	0x289
 769 033b 14       		.byte	0x14
 770 033c 0A       		.uleb128 0xa
 771 033d 53050000 		.4byte	.LASF64
 772 0341 07       		.byte	0x7
 773 0342 9B01     		.2byte	0x19b
 774 0344 89020000 		.4byte	0x289
 775 0348 18       		.byte	0x18
 776 0349 00       		.byte	0
 777 034a 04       		.uleb128 0x4
 778 034b 67070000 		.4byte	.LASF65
 779 034f 06       		.byte	0x6
 780 0350 5C       		.byte	0x5c
 781 0351 55030000 		.4byte	0x355
 782 0355 0B       		.uleb128 0xb
 783 0356 04       		.byte	0x4
 784 0357 5B030000 		.4byte	0x35b
 785 035b 0D       		.uleb128 0xd
 786 035c 66030000 		.4byte	0x366
 787 0360 0E       		.uleb128 0xe
 788 0361 66030000 		.4byte	0x366
 789 0365 00       		.byte	0
 790 0366 0F       		.uleb128 0xf
 791 0367 04       		.byte	0x4
 792 0368 04       		.uleb128 0x4
 793 0369 A2050000 		.4byte	.LASF66
 794 036d 06       		.byte	0x6
 795 036e 61       		.byte	0x61
 796 036f 73030000 		.4byte	0x373
 797 0373 0C       		.uleb128 0xc
 798 0374 9D070000 		.4byte	.LASF67
ARM GAS  /tmp/ccFdtjmc.s 			page 15


 799 0378 14       		.byte	0x14
 800 0379 07       		.byte	0x7
 801 037a 6B01     		.2byte	0x16b
 802 037c C2030000 		.4byte	0x3c2
 803 0380 0A       		.uleb128 0xa
 804 0381 62030000 		.4byte	.LASF68
 805 0385 07       		.byte	0x7
 806 0386 6C01     		.2byte	0x16c
 807 0388 45090000 		.4byte	0x945
 808 038c 00       		.byte	0
 809 038d 0A       		.uleb128 0xa
 810 038e 11030000 		.4byte	.LASF69
 811 0392 07       		.byte	0x7
 812 0393 6D01     		.2byte	0x16d
 813 0395 45090000 		.4byte	0x945
 814 0399 04       		.byte	0x4
 815 039a 0A       		.uleb128 0xa
 816 039b 8D030000 		.4byte	.LASF70
 817 039f 07       		.byte	0x7
 818 03a0 6E01     		.2byte	0x16e
 819 03a2 5D010000 		.4byte	0x15d
 820 03a6 08       		.byte	0x8
 821 03a7 0A       		.uleb128 0xa
 822 03a8 84080000 		.4byte	.LASF71
 823 03ac 07       		.byte	0x7
 824 03ad 6F01     		.2byte	0x16f
 825 03af 4A030000 		.4byte	0x34a
 826 03b3 0C       		.byte	0xc
 827 03b4 0A       		.uleb128 0xa
 828 03b5 BB070000 		.4byte	.LASF72
 829 03b9 07       		.byte	0x7
 830 03ba 7101     		.2byte	0x171
 831 03bc 66030000 		.4byte	0x366
 832 03c0 10       		.byte	0x10
 833 03c1 00       		.byte	0
 834 03c2 04       		.uleb128 0x4
 835 03c3 CD000000 		.4byte	.LASF73
 836 03c7 06       		.byte	0x6
 837 03c8 66       		.byte	0x66
 838 03c9 CD030000 		.4byte	0x3cd
 839 03cd 0C       		.uleb128 0xc
 840 03ce C6040000 		.4byte	.LASF74
 841 03d2 10       		.byte	0x10
 842 03d3 07       		.byte	0x7
 843 03d4 7B01     		.2byte	0x17b
 844 03d6 0F040000 		.4byte	0x40f
 845 03da 0A       		.uleb128 0xa
 846 03db 62030000 		.4byte	.LASF68
 847 03df 07       		.byte	0x7
 848 03e0 7C01     		.2byte	0x17c
 849 03e2 45090000 		.4byte	0x945
 850 03e6 00       		.byte	0
 851 03e7 0A       		.uleb128 0xa
 852 03e8 11030000 		.4byte	.LASF69
 853 03ec 07       		.byte	0x7
 854 03ed 7E01     		.2byte	0x17e
 855 03ef 45090000 		.4byte	0x945
ARM GAS  /tmp/ccFdtjmc.s 			page 16


 856 03f3 04       		.byte	0x4
 857 03f4 0A       		.uleb128 0xa
 858 03f5 8D030000 		.4byte	.LASF70
 859 03f9 07       		.byte	0x7
 860 03fa 8001     		.2byte	0x180
 861 03fc 5D010000 		.4byte	0x15d
 862 0400 08       		.byte	0x8
 863 0401 0A       		.uleb128 0xa
 864 0402 19010000 		.4byte	.LASF75
 865 0406 07       		.byte	0x7
 866 0407 8201     		.2byte	0x182
 867 0409 68010000 		.4byte	0x168
 868 040d 0C       		.byte	0xc
 869 040e 00       		.byte	0
 870 040f 04       		.uleb128 0x4
 871 0410 64000000 		.4byte	.LASF76
 872 0414 06       		.byte	0x6
 873 0415 6B       		.byte	0x6b
 874 0416 1A040000 		.4byte	0x41a
 875 041a 0C       		.uleb128 0xc
 876 041b 19030000 		.4byte	.LASF77
 877 041f 0C       		.byte	0xc
 878 0420 07       		.byte	0x7
 879 0421 A201     		.2byte	0x1a2
 880 0423 4F040000 		.4byte	0x44f
 881 0427 0A       		.uleb128 0xa
 882 0428 7B070000 		.4byte	.LASF78
 883 042c 07       		.byte	0x7
 884 042d AA01     		.2byte	0x1aa
 885 042f 2E090000 		.4byte	0x92e
 886 0433 00       		.byte	0
 887 0434 0A       		.uleb128 0xa
 888 0435 E3070000 		.4byte	.LASF79
 889 0439 07       		.byte	0x7
 890 043a AF01     		.2byte	0x1af
 891 043c 47010000 		.4byte	0x147
 892 0440 04       		.byte	0x4
 893 0441 0A       		.uleb128 0xa
 894 0442 31030000 		.4byte	.LASF80
 895 0446 07       		.byte	0x7
 896 0447 B301     		.2byte	0x1b3
 897 0449 47010000 		.4byte	0x147
 898 044d 08       		.byte	0x8
 899 044e 00       		.byte	0
 900 044f 04       		.uleb128 0x4
 901 0450 1A040000 		.4byte	.LASF81
 902 0454 06       		.byte	0x6
 903 0455 70       		.byte	0x70
 904 0456 5A040000 		.4byte	0x45a
 905 045a 10       		.uleb128 0x10
 906 045b 6E060000 		.4byte	.LASF82
 907 045f 5802     		.2byte	0x258
 908 0461 07       		.byte	0x7
 909 0462 C201     		.2byte	0x1c2
 910 0464 C3040000 		.4byte	0x4c3
 911 0468 0A       		.uleb128 0xa
 912 0469 EB070000 		.4byte	.LASF83
ARM GAS  /tmp/ccFdtjmc.s 			page 17


 913 046d 07       		.byte	0x7
 914 046e C601     		.2byte	0x1c6
 915 0470 E3020000 		.4byte	0x2e3
 916 0474 00       		.byte	0
 917 0475 0A       		.uleb128 0xa
 918 0476 72010000 		.4byte	.LASF84
 919 047a 07       		.byte	0x7
 920 047b CA01     		.2byte	0x1ca
 921 047d C2030000 		.4byte	0x3c2
 922 0481 1C       		.byte	0x1c
 923 0482 09       		.uleb128 0x9
 924 0483 64626700 		.ascii	"dbg\000"
 925 0487 07       		.byte	0x7
 926 0488 CE01     		.2byte	0x1ce
 927 048a 0F040000 		.4byte	0x40f
 928 048e 2C       		.byte	0x2c
 929 048f 0A       		.uleb128 0xa
 930 0490 BA000000 		.4byte	.LASF85
 931 0494 07       		.byte	0x7
 932 0495 D201     		.2byte	0x1d2
 933 0497 6D010000 		.4byte	0x16d
 934 049b 38       		.byte	0x38
 935 049c 09       		.uleb128 0x9
 936 049d 746D00   		.ascii	"tm\000"
 937 04a0 07       		.byte	0x7
 938 04a1 D701     		.2byte	0x1d7
 939 04a3 C6070000 		.4byte	0x7c6
 940 04a7 98       		.byte	0x98
 941 04a8 0A       		.uleb128 0xa
 942 04a9 30000000 		.4byte	.LASF86
 943 04ad 07       		.byte	0x7
 944 04ae DD01     		.2byte	0x1dd
 945 04b0 58080000 		.4byte	0x858
 946 04b4 A0       		.byte	0xa0
 947 04b5 0A       		.uleb128 0xa
 948 04b6 3A030000 		.4byte	.LASF87
 949 04ba 07       		.byte	0x7
 950 04bb E301     		.2byte	0x1e3
 951 04bd 4B090000 		.4byte	0x94b
 952 04c1 D8       		.byte	0xd8
 953 04c2 00       		.byte	0
 954 04c3 03       		.uleb128 0x3
 955 04c4 04       		.byte	0x4
 956 04c5 07       		.byte	0x7
 957 04c6 BD040000 		.4byte	.LASF88
 958 04ca 11       		.uleb128 0x11
 959 04cb CF000000 		.4byte	0xcf
 960 04cf DA040000 		.4byte	0x4da
 961 04d3 12       		.uleb128 0x12
 962 04d4 C3040000 		.4byte	0x4c3
 963 04d8 00       		.byte	0
 964 04d9 00       		.byte	0
 965 04da 13       		.uleb128 0x13
 966 04db 5C       		.byte	0x5c
 967 04dc 08       		.byte	0x8
 968 04dd 5603     		.2byte	0x356
 969 04df 0F060000 		.4byte	0x60f
ARM GAS  /tmp/ccFdtjmc.s 			page 18


 970 04e3 0A       		.uleb128 0xa
 971 04e4 B6070000 		.4byte	.LASF89
 972 04e8 08       		.byte	0x8
 973 04e9 5803     		.2byte	0x358
 974 04eb DA000000 		.4byte	0xda
 975 04ef 00       		.byte	0
 976 04f0 0A       		.uleb128 0xa
 977 04f1 AC040000 		.4byte	.LASF90
 978 04f5 08       		.byte	0x8
 979 04f6 5903     		.2byte	0x359
 980 04f8 DA000000 		.4byte	0xda
 981 04fc 04       		.byte	0x4
 982 04fd 0A       		.uleb128 0xa
 983 04fe 63010000 		.4byte	.LASF91
 984 0502 08       		.byte	0x8
 985 0503 5A03     		.2byte	0x35a
 986 0505 DA000000 		.4byte	0xda
 987 0509 08       		.byte	0x8
 988 050a 0A       		.uleb128 0xa
 989 050b 01040000 		.4byte	.LASF92
 990 050f 08       		.byte	0x8
 991 0510 5B03     		.2byte	0x35b
 992 0512 DA000000 		.4byte	0xda
 993 0516 0C       		.byte	0xc
 994 0517 0A       		.uleb128 0xa
 995 0518 E7020000 		.4byte	.LASF93
 996 051c 08       		.byte	0x8
 997 051d 5C03     		.2byte	0x35c
 998 051f DA000000 		.4byte	0xda
 999 0523 10       		.byte	0x10
 1000 0524 0A       		.uleb128 0xa
 1001 0525 B7060000 		.4byte	.LASF94
 1002 0529 08       		.byte	0x8
 1003 052a 5D03     		.2byte	0x35d
 1004 052c DA000000 		.4byte	0xda
 1005 0530 14       		.byte	0x14
 1006 0531 0A       		.uleb128 0xa
 1007 0532 F9070000 		.4byte	.LASF95
 1008 0536 08       		.byte	0x8
 1009 0537 5E03     		.2byte	0x35e
 1010 0539 DA000000 		.4byte	0xda
 1011 053d 18       		.byte	0x18
 1012 053e 0A       		.uleb128 0xa
 1013 053f C1050000 		.4byte	.LASF96
 1014 0543 08       		.byte	0x8
 1015 0544 5F03     		.2byte	0x35f
 1016 0546 DF000000 		.4byte	0xdf
 1017 054a 1C       		.byte	0x1c
 1018 054b 0A       		.uleb128 0xa
 1019 054c C2070000 		.4byte	.LASF97
 1020 0550 08       		.byte	0x8
 1021 0551 6003     		.2byte	0x360
 1022 0553 DA000000 		.4byte	0xda
 1023 0557 20       		.byte	0x20
 1024 0558 0A       		.uleb128 0xa
 1025 0559 4F030000 		.4byte	.LASF98
 1026 055d 08       		.byte	0x8
ARM GAS  /tmp/ccFdtjmc.s 			page 19


 1027 055e 6103     		.2byte	0x361
 1028 0560 DA000000 		.4byte	0xda
 1029 0564 24       		.byte	0x24
 1030 0565 0A       		.uleb128 0xa
 1031 0566 F8050000 		.4byte	.LASF99
 1032 056a 08       		.byte	0x8
 1033 056b 6203     		.2byte	0x362
 1034 056d DA000000 		.4byte	0xda
 1035 0571 28       		.byte	0x28
 1036 0572 0A       		.uleb128 0xa
 1037 0573 83050000 		.4byte	.LASF100
 1038 0577 08       		.byte	0x8
 1039 0578 6303     		.2byte	0x363
 1040 057a CA040000 		.4byte	0x4ca
 1041 057e 2C       		.byte	0x2c
 1042 057f 0A       		.uleb128 0xa
 1043 0580 36050000 		.4byte	.LASF101
 1044 0584 08       		.byte	0x8
 1045 0585 6403     		.2byte	0x364
 1046 0587 DA000000 		.4byte	0xda
 1047 058b 30       		.byte	0x30
 1048 058c 0A       		.uleb128 0xa
 1049 058d CF050000 		.4byte	.LASF102
 1050 0591 08       		.byte	0x8
 1051 0592 6503     		.2byte	0x365
 1052 0594 DA000000 		.4byte	0xda
 1053 0598 34       		.byte	0x34
 1054 0599 0A       		.uleb128 0xa
 1055 059a 02060000 		.4byte	.LASF103
 1056 059e 08       		.byte	0x8
 1057 059f 6603     		.2byte	0x366
 1058 05a1 DA000000 		.4byte	0xda
 1059 05a5 38       		.byte	0x38
 1060 05a6 0A       		.uleb128 0xa
 1061 05a7 88060000 		.4byte	.LASF104
 1062 05ab 08       		.byte	0x8
 1063 05ac 6703     		.2byte	0x367
 1064 05ae CA040000 		.4byte	0x4ca
 1065 05b2 3C       		.byte	0x3c
 1066 05b3 0A       		.uleb128 0xa
 1067 05b4 3C050000 		.4byte	.LASF105
 1068 05b8 08       		.byte	0x8
 1069 05b9 6803     		.2byte	0x368
 1070 05bb DA000000 		.4byte	0xda
 1071 05bf 40       		.byte	0x40
 1072 05c0 0A       		.uleb128 0xa
 1073 05c1 6A030000 		.4byte	.LASF106
 1074 05c5 08       		.byte	0x8
 1075 05c6 6903     		.2byte	0x369
 1076 05c8 DA000000 		.4byte	0xda
 1077 05cc 44       		.byte	0x44
 1078 05cd 0A       		.uleb128 0xa
 1079 05ce 0C060000 		.4byte	.LASF107
 1080 05d2 08       		.byte	0x8
 1081 05d3 6A03     		.2byte	0x36a
 1082 05d5 DA000000 		.4byte	0xda
 1083 05d9 48       		.byte	0x48
ARM GAS  /tmp/ccFdtjmc.s 			page 20


 1084 05da 0A       		.uleb128 0xa
 1085 05db 98050000 		.4byte	.LASF108
 1086 05df 08       		.byte	0x8
 1087 05e0 6B03     		.2byte	0x36b
 1088 05e2 CA040000 		.4byte	0x4ca
 1089 05e6 4C       		.byte	0x4c
 1090 05e7 0A       		.uleb128 0xa
 1091 05e8 42050000 		.4byte	.LASF109
 1092 05ec 08       		.byte	0x8
 1093 05ed 6C03     		.2byte	0x36c
 1094 05ef DA000000 		.4byte	0xda
 1095 05f3 50       		.byte	0x50
 1096 05f4 0A       		.uleb128 0xa
 1097 05f5 80030000 		.4byte	.LASF110
 1098 05f9 08       		.byte	0x8
 1099 05fa 6D03     		.2byte	0x36d
 1100 05fc DA000000 		.4byte	0xda
 1101 0600 54       		.byte	0x54
 1102 0601 0A       		.uleb128 0xa
 1103 0602 16060000 		.4byte	.LASF111
 1104 0606 08       		.byte	0x8
 1105 0607 6E03     		.2byte	0x36e
 1106 0609 DA000000 		.4byte	0xda
 1107 060d 58       		.byte	0x58
 1108 060e 00       		.byte	0
 1109 060f 14       		.uleb128 0x14
 1110 0610 94070000 		.4byte	.LASF112
 1111 0614 08       		.byte	0x8
 1112 0615 6F03     		.2byte	0x36f
 1113 0617 DA040000 		.4byte	0x4da
 1114 061b 15       		.uleb128 0x15
 1115 061c EB050000 		.4byte	.LASF113
 1116 0620 08       		.byte	0x8
 1117 0621 FA06     		.2byte	0x6fa
 1118 0623 CA000000 		.4byte	0xca
 1119 0627 16       		.uleb128 0x16
 1120 0628 70030000 		.4byte	.LASF114
 1121 062c 09       		.byte	0x9
 1122 062d 4C       		.byte	0x4c
 1123 062e CF000000 		.4byte	0xcf
 1124 0632 04       		.uleb128 0x4
 1125 0633 08030000 		.4byte	.LASF115
 1126 0637 0A       		.byte	0xa
 1127 0638 65       		.byte	0x65
 1128 0639 66030000 		.4byte	0x366
 1129 063d 04       		.uleb128 0x4
 1130 063e 7E040000 		.4byte	.LASF116
 1131 0642 0A       		.byte	0xa
 1132 0643 6D       		.byte	0x6d
 1133 0644 E4000000 		.4byte	0xe4
 1134 0648 07       		.uleb128 0x7
 1135 0649 8C070000 		.4byte	.LASF117
 1136 064d 04       		.byte	0x4
 1137 064e 0A       		.byte	0xa
 1138 064f 89       		.byte	0x89
 1139 0650 61060000 		.4byte	0x661
 1140 0654 17       		.uleb128 0x17
ARM GAS  /tmp/ccFdtjmc.s 			page 21


 1141 0655 72313300 		.ascii	"r13\000"
 1142 0659 0A       		.byte	0xa
 1143 065a 8A       		.byte	0x8a
 1144 065b AB070000 		.4byte	0x7ab
 1145 065f 00       		.byte	0
 1146 0660 00       		.byte	0
 1147 0661 07       		.uleb128 0x7
 1148 0662 47000000 		.4byte	.LASF118
 1149 0666 64       		.byte	0x64
 1150 0667 01       		.byte	0x1
 1151 0668 FD       		.byte	0xfd
 1152 0669 AB070000 		.4byte	0x7ab
 1153 066d 17       		.uleb128 0x17
 1154 066e 73313600 		.ascii	"s16\000"
 1155 0672 01       		.byte	0x1
 1156 0673 FF       		.byte	0xff
 1157 0674 32060000 		.4byte	0x632
 1158 0678 00       		.byte	0
 1159 0679 09       		.uleb128 0x9
 1160 067a 73313700 		.ascii	"s17\000"
 1161 067e 01       		.byte	0x1
 1162 067f 0001     		.2byte	0x100
 1163 0681 32060000 		.4byte	0x632
 1164 0685 04       		.byte	0x4
 1165 0686 09       		.uleb128 0x9
 1166 0687 73313800 		.ascii	"s18\000"
 1167 068b 01       		.byte	0x1
 1168 068c 0101     		.2byte	0x101
 1169 068e 32060000 		.4byte	0x632
 1170 0692 08       		.byte	0x8
 1171 0693 09       		.uleb128 0x9
 1172 0694 73313900 		.ascii	"s19\000"
 1173 0698 01       		.byte	0x1
 1174 0699 0201     		.2byte	0x102
 1175 069b 32060000 		.4byte	0x632
 1176 069f 0C       		.byte	0xc
 1177 06a0 09       		.uleb128 0x9
 1178 06a1 73323000 		.ascii	"s20\000"
 1179 06a5 01       		.byte	0x1
 1180 06a6 0301     		.2byte	0x103
 1181 06a8 32060000 		.4byte	0x632
 1182 06ac 10       		.byte	0x10
 1183 06ad 09       		.uleb128 0x9
 1184 06ae 73323100 		.ascii	"s21\000"
 1185 06b2 01       		.byte	0x1
 1186 06b3 0401     		.2byte	0x104
 1187 06b5 32060000 		.4byte	0x632
 1188 06b9 14       		.byte	0x14
 1189 06ba 09       		.uleb128 0x9
 1190 06bb 73323200 		.ascii	"s22\000"
 1191 06bf 01       		.byte	0x1
 1192 06c0 0501     		.2byte	0x105
 1193 06c2 32060000 		.4byte	0x632
 1194 06c6 18       		.byte	0x18
 1195 06c7 09       		.uleb128 0x9
 1196 06c8 73323300 		.ascii	"s23\000"
 1197 06cc 01       		.byte	0x1
ARM GAS  /tmp/ccFdtjmc.s 			page 22


 1198 06cd 0601     		.2byte	0x106
 1199 06cf 32060000 		.4byte	0x632
 1200 06d3 1C       		.byte	0x1c
 1201 06d4 09       		.uleb128 0x9
 1202 06d5 73323400 		.ascii	"s24\000"
 1203 06d9 01       		.byte	0x1
 1204 06da 0701     		.2byte	0x107
 1205 06dc 32060000 		.4byte	0x632
 1206 06e0 20       		.byte	0x20
 1207 06e1 09       		.uleb128 0x9
 1208 06e2 73323500 		.ascii	"s25\000"
 1209 06e6 01       		.byte	0x1
 1210 06e7 0801     		.2byte	0x108
 1211 06e9 32060000 		.4byte	0x632
 1212 06ed 24       		.byte	0x24
 1213 06ee 09       		.uleb128 0x9
 1214 06ef 73323600 		.ascii	"s26\000"
 1215 06f3 01       		.byte	0x1
 1216 06f4 0901     		.2byte	0x109
 1217 06f6 32060000 		.4byte	0x632
 1218 06fa 28       		.byte	0x28
 1219 06fb 09       		.uleb128 0x9
 1220 06fc 73323700 		.ascii	"s27\000"
 1221 0700 01       		.byte	0x1
 1222 0701 0A01     		.2byte	0x10a
 1223 0703 32060000 		.4byte	0x632
 1224 0707 2C       		.byte	0x2c
 1225 0708 09       		.uleb128 0x9
 1226 0709 73323800 		.ascii	"s28\000"
 1227 070d 01       		.byte	0x1
 1228 070e 0B01     		.2byte	0x10b
 1229 0710 32060000 		.4byte	0x632
 1230 0714 30       		.byte	0x30
 1231 0715 09       		.uleb128 0x9
 1232 0716 73323900 		.ascii	"s29\000"
 1233 071a 01       		.byte	0x1
 1234 071b 0C01     		.2byte	0x10c
 1235 071d 32060000 		.4byte	0x632
 1236 0721 34       		.byte	0x34
 1237 0722 09       		.uleb128 0x9
 1238 0723 73333000 		.ascii	"s30\000"
 1239 0727 01       		.byte	0x1
 1240 0728 0D01     		.2byte	0x10d
 1241 072a 32060000 		.4byte	0x632
 1242 072e 38       		.byte	0x38
 1243 072f 09       		.uleb128 0x9
 1244 0730 73333100 		.ascii	"s31\000"
 1245 0734 01       		.byte	0x1
 1246 0735 0E01     		.2byte	0x10e
 1247 0737 32060000 		.4byte	0x632
 1248 073b 3C       		.byte	0x3c
 1249 073c 09       		.uleb128 0x9
 1250 073d 723400   		.ascii	"r4\000"
 1251 0740 01       		.byte	0x1
 1252 0741 1001     		.2byte	0x110
 1253 0743 32060000 		.4byte	0x632
 1254 0747 40       		.byte	0x40
ARM GAS  /tmp/ccFdtjmc.s 			page 23


 1255 0748 09       		.uleb128 0x9
 1256 0749 723500   		.ascii	"r5\000"
 1257 074c 01       		.byte	0x1
 1258 074d 1101     		.2byte	0x111
 1259 074f 32060000 		.4byte	0x632
 1260 0753 44       		.byte	0x44
 1261 0754 09       		.uleb128 0x9
 1262 0755 723600   		.ascii	"r6\000"
 1263 0758 01       		.byte	0x1
 1264 0759 1201     		.2byte	0x112
 1265 075b 32060000 		.4byte	0x632
 1266 075f 48       		.byte	0x48
 1267 0760 09       		.uleb128 0x9
 1268 0761 723700   		.ascii	"r7\000"
 1269 0764 01       		.byte	0x1
 1270 0765 1301     		.2byte	0x113
 1271 0767 32060000 		.4byte	0x632
 1272 076b 4C       		.byte	0x4c
 1273 076c 09       		.uleb128 0x9
 1274 076d 723800   		.ascii	"r8\000"
 1275 0770 01       		.byte	0x1
 1276 0771 1401     		.2byte	0x114
 1277 0773 32060000 		.4byte	0x632
 1278 0777 50       		.byte	0x50
 1279 0778 09       		.uleb128 0x9
 1280 0779 723900   		.ascii	"r9\000"
 1281 077c 01       		.byte	0x1
 1282 077d 1501     		.2byte	0x115
 1283 077f 32060000 		.4byte	0x632
 1284 0783 54       		.byte	0x54
 1285 0784 09       		.uleb128 0x9
 1286 0785 72313000 		.ascii	"r10\000"
 1287 0789 01       		.byte	0x1
 1288 078a 1601     		.2byte	0x116
 1289 078c 32060000 		.4byte	0x632
 1290 0790 58       		.byte	0x58
 1291 0791 09       		.uleb128 0x9
 1292 0792 72313100 		.ascii	"r11\000"
 1293 0796 01       		.byte	0x1
 1294 0797 1701     		.2byte	0x117
 1295 0799 32060000 		.4byte	0x632
 1296 079d 5C       		.byte	0x5c
 1297 079e 09       		.uleb128 0x9
 1298 079f 6C7200   		.ascii	"lr\000"
 1299 07a2 01       		.byte	0x1
 1300 07a3 1801     		.2byte	0x118
 1301 07a5 32060000 		.4byte	0x632
 1302 07a9 60       		.byte	0x60
 1303 07aa 00       		.byte	0
 1304 07ab 0B       		.uleb128 0xb
 1305 07ac 04       		.byte	0x4
 1306 07ad 61060000 		.4byte	0x661
 1307 07b1 18       		.uleb128 0x18
 1308 07b2 04       		.byte	0x4
 1309 07b3 0B       		.byte	0xb
 1310 07b4 38       		.byte	0x38
 1311 07b5 C6070000 		.4byte	0x7c6
ARM GAS  /tmp/ccFdtjmc.s 			page 24


 1312 07b9 08       		.uleb128 0x8
 1313 07ba 85070000 		.4byte	.LASF119
 1314 07be 0B       		.byte	0xb
 1315 07bf 3C       		.byte	0x3c
 1316 07c0 EF000000 		.4byte	0xef
 1317 07c4 00       		.byte	0
 1318 07c5 00       		.byte	0
 1319 07c6 04       		.uleb128 0x4
 1320 07c7 05050000 		.4byte	.LASF120
 1321 07cb 0B       		.byte	0xb
 1322 07cc 3D       		.byte	0x3d
 1323 07cd B1070000 		.4byte	0x7b1
 1324 07d1 18       		.uleb128 0x18
 1325 07d2 18       		.byte	0x18
 1326 07d3 0B       		.byte	0xb
 1327 07d4 48       		.byte	0x48
 1328 07d5 14080000 		.4byte	0x814
 1329 07d9 08       		.uleb128 0x8
 1330 07da D0030000 		.4byte	.LASF121
 1331 07de 0B       		.byte	0xb
 1332 07df 49       		.byte	0x49
 1333 07e0 EF000000 		.4byte	0xef
 1334 07e4 00       		.byte	0
 1335 07e5 08       		.uleb128 0x8
 1336 07e6 73000000 		.4byte	.LASF122
 1337 07ea 0B       		.byte	0xb
 1338 07eb 4A       		.byte	0x4a
 1339 07ec EF000000 		.4byte	0xef
 1340 07f0 04       		.byte	0x4
 1341 07f1 08       		.uleb128 0x8
 1342 07f2 0E040000 		.4byte	.LASF123
 1343 07f6 0B       		.byte	0xb
 1344 07f7 4B       		.byte	0x4b
 1345 07f8 EF000000 		.4byte	0xef
 1346 07fc 08       		.byte	0x8
 1347 07fd 17       		.uleb128 0x17
 1348 07fe 6E00     		.ascii	"n\000"
 1349 0800 0B       		.byte	0xb
 1350 0801 4C       		.byte	0x4c
 1351 0802 52010000 		.4byte	0x152
 1352 0806 0C       		.byte	0xc
 1353 0807 08       		.uleb128 0x8
 1354 0808 70050000 		.4byte	.LASF124
 1355 080c 0B       		.byte	0xb
 1356 080d 4D       		.byte	0x4d
 1357 080e FA000000 		.4byte	0xfa
 1358 0812 10       		.byte	0x10
 1359 0813 00       		.byte	0
 1360 0814 04       		.uleb128 0x4
 1361 0815 79000000 		.4byte	.LASF125
 1362 0819 0B       		.byte	0xb
 1363 081a 4E       		.byte	0x4e
 1364 081b D1070000 		.4byte	0x7d1
 1365 081f 18       		.uleb128 0x18
 1366 0820 38       		.byte	0x38
 1367 0821 0C       		.byte	0xc
 1368 0822 38       		.byte	0x38
ARM GAS  /tmp/ccFdtjmc.s 			page 25


 1369 0823 58080000 		.4byte	0x858
 1370 0827 08       		.uleb128 0x8
 1371 0828 C4030000 		.4byte	.LASF126
 1372 082c 0C       		.byte	0xc
 1373 082d 39       		.byte	0x39
 1374 082e 52010000 		.4byte	0x152
 1375 0832 00       		.byte	0
 1376 0833 08       		.uleb128 0x8
 1377 0834 C6050000 		.4byte	.LASF127
 1378 0838 0C       		.byte	0xc
 1379 0839 3A       		.byte	0x3a
 1380 083a 52010000 		.4byte	0x152
 1381 083e 04       		.byte	0x4
 1382 083f 08       		.uleb128 0x8
 1383 0840 71080000 		.4byte	.LASF128
 1384 0844 0C       		.byte	0xc
 1385 0845 3B       		.byte	0x3b
 1386 0846 14080000 		.4byte	0x814
 1387 084a 08       		.byte	0x8
 1388 084b 08       		.uleb128 0x8
 1389 084c 3B040000 		.4byte	.LASF129
 1390 0850 0C       		.byte	0xc
 1391 0851 3D       		.byte	0x3d
 1392 0852 14080000 		.4byte	0x814
 1393 0856 20       		.byte	0x20
 1394 0857 00       		.byte	0
 1395 0858 04       		.uleb128 0x4
 1396 0859 E8030000 		.4byte	.LASF130
 1397 085d 0C       		.byte	0xc
 1398 085e 3F       		.byte	0x3f
 1399 085f 1F080000 		.4byte	0x81f
 1400 0863 19       		.uleb128 0x19
 1401 0864 04       		.byte	0x4
 1402 0865 07       		.byte	0x7
 1403 0866 FA       		.byte	0xfa
 1404 0867 C0080000 		.4byte	0x8c0
 1405 086b 1A       		.uleb128 0x1a
 1406 086c 20000000 		.4byte	.LASF131
 1407 0870 07       		.byte	0x7
 1408 0871 0101     		.2byte	0x101
 1409 0873 31010000 		.4byte	0x131
 1410 0877 1A       		.uleb128 0x1a
 1411 0878 B1000000 		.4byte	.LASF132
 1412 087c 07       		.byte	0x7
 1413 087d 0801     		.2byte	0x108
 1414 087f 31010000 		.4byte	0x131
 1415 0883 1A       		.uleb128 0x1a
 1416 0884 14080000 		.4byte	.LASF133
 1417 0888 07       		.byte	0x7
 1418 0889 0F01     		.2byte	0x10f
 1419 088b 66030000 		.4byte	0x366
 1420 088f 1A       		.uleb128 0x1a
 1421 0890 1A000000 		.4byte	.LASF134
 1422 0894 07       		.byte	0x7
 1423 0895 1601     		.2byte	0x116
 1424 0897 C0080000 		.4byte	0x8c0
 1425 089b 1A       		.uleb128 0x1a
ARM GAS  /tmp/ccFdtjmc.s 			page 26


 1426 089c 86030000 		.4byte	.LASF135
 1427 08a0 07       		.byte	0x7
 1428 08a1 1E01     		.2byte	0x11e
 1429 08a3 EB080000 		.4byte	0x8eb
 1430 08a7 1A       		.uleb128 0x1a
 1431 08a8 10070000 		.4byte	.LASF136
 1432 08ac 07       		.byte	0x7
 1433 08ad 2701     		.2byte	0x127
 1434 08af 22090000 		.4byte	0x922
 1435 08b3 1A       		.uleb128 0x1a
 1436 08b4 39060000 		.4byte	.LASF137
 1437 08b8 07       		.byte	0x7
 1438 08b9 2F01     		.2byte	0x12f
 1439 08bb 3C010000 		.4byte	0x13c
 1440 08bf 00       		.byte	0
 1441 08c0 0B       		.uleb128 0xb
 1442 08c1 04       		.byte	0x4
 1443 08c2 7E020000 		.4byte	0x27e
 1444 08c6 07       		.uleb128 0x7
 1445 08c7 9F060000 		.4byte	.LASF138
 1446 08cb 0C       		.byte	0xc
 1447 08cc 0D       		.byte	0xd
 1448 08cd 34       		.byte	0x34
 1449 08ce EB080000 		.4byte	0x8eb
 1450 08d2 08       		.uleb128 0x8
 1451 08d3 F8020000 		.4byte	.LASF139
 1452 08d7 0D       		.byte	0xd
 1453 08d8 35       		.byte	0x35
 1454 08d9 B3020000 		.4byte	0x2b3
 1455 08dd 00       		.byte	0
 1456 08de 08       		.uleb128 0x8
 1457 08df CA030000 		.4byte	.LASF140
 1458 08e3 0D       		.byte	0xd
 1459 08e4 37       		.byte	0x37
 1460 08e5 47010000 		.4byte	0x147
 1461 08e9 08       		.byte	0x8
 1462 08ea 00       		.byte	0
 1463 08eb 0B       		.uleb128 0xb
 1464 08ec 04       		.byte	0x4
 1465 08ed C6080000 		.4byte	0x8c6
 1466 08f1 07       		.uleb128 0x7
 1467 08f2 D3070000 		.4byte	.LASF141
 1468 08f6 10       		.byte	0x10
 1469 08f7 0E       		.byte	0xe
 1470 08f8 39       		.byte	0x39
 1471 08f9 22090000 		.4byte	0x922
 1472 08fd 08       		.uleb128 0x8
 1473 08fe 6A010000 		.4byte	.LASF142
 1474 0902 0E       		.byte	0xe
 1475 0903 3A       		.byte	0x3a
 1476 0904 B3020000 		.4byte	0x2b3
 1477 0908 00       		.byte	0
 1478 0909 08       		.uleb128 0x8
 1479 090a 7C080000 		.4byte	.LASF143
 1480 090e 0E       		.byte	0xe
 1481 090f 3C       		.byte	0x3c
 1482 0910 89020000 		.4byte	0x289
ARM GAS  /tmp/ccFdtjmc.s 			page 27


 1483 0914 08       		.byte	0x8
 1484 0915 08       		.uleb128 0x8
 1485 0916 4B070000 		.4byte	.LASF144
 1486 091a 0E       		.byte	0xe
 1487 091b 3E       		.byte	0x3e
 1488 091c 7D0A0000 		.4byte	0xa7d
 1489 0920 0C       		.byte	0xc
 1490 0921 00       		.byte	0
 1491 0922 0B       		.uleb128 0xb
 1492 0923 04       		.byte	0x4
 1493 0924 F1080000 		.4byte	0x8f1
 1494 0928 0B       		.uleb128 0xb
 1495 0929 04       		.byte	0x4
 1496 092a 3A090000 		.4byte	0x93a
 1497 092e 05       		.uleb128 0x5
 1498 092f 28090000 		.4byte	0x928
 1499 0933 03       		.uleb128 0x3
 1500 0934 01       		.byte	0x1
 1501 0935 08       		.byte	0x8
 1502 0936 0B070000 		.4byte	.LASF145
 1503 093a 06       		.uleb128 0x6
 1504 093b 33090000 		.4byte	0x933
 1505 093f 0B       		.uleb128 0xb
 1506 0940 04       		.byte	0x4
 1507 0941 3D060000 		.4byte	0x63d
 1508 0945 0B       		.uleb128 0xb
 1509 0946 04       		.byte	0x4
 1510 0947 68030000 		.4byte	0x368
 1511 094b 11       		.uleb128 0x11
 1512 094c 3D060000 		.4byte	0x63d
 1513 0950 5B090000 		.4byte	0x95b
 1514 0954 12       		.uleb128 0x12
 1515 0955 C3040000 		.4byte	0x4c3
 1516 0959 2F       		.byte	0x2f
 1517 095a 00       		.byte	0
 1518 095b 1B       		.uleb128 0x1b
 1519 095c 636800   		.ascii	"ch\000"
 1520 095f 07       		.byte	0x7
 1521 0960 0902     		.2byte	0x209
 1522 0962 4F040000 		.4byte	0x44f
 1523 0966 18       		.uleb128 0x18
 1524 0967 16       		.byte	0x16
 1525 0968 0F       		.byte	0xf
 1526 0969 34       		.byte	0x34
 1527 096a 470A0000 		.4byte	0xa47
 1528 096e 08       		.uleb128 0x8
 1529 096f 79010000 		.4byte	.LASF146
 1530 0973 0F       		.byte	0xf
 1531 0974 35       		.byte	0x35
 1532 0975 470A0000 		.4byte	0xa47
 1533 0979 00       		.byte	0
 1534 097a 08       		.uleb128 0x8
 1535 097b 98040000 		.4byte	.LASF147
 1536 097f 0F       		.byte	0xf
 1537 0980 36       		.byte	0x36
 1538 0981 A9000000 		.4byte	0xa9
 1539 0985 04       		.byte	0x4
ARM GAS  /tmp/ccFdtjmc.s 			page 28


 1540 0986 08       		.uleb128 0x8
 1541 0987 EB060000 		.4byte	.LASF148
 1542 098b 0F       		.byte	0xf
 1543 098c 37       		.byte	0x37
 1544 098d A9000000 		.4byte	0xa9
 1545 0991 05       		.byte	0x5
 1546 0992 08       		.uleb128 0x8
 1547 0993 66080000 		.4byte	.LASF149
 1548 0997 0F       		.byte	0xf
 1549 0998 38       		.byte	0x38
 1550 0999 B4000000 		.4byte	0xb4
 1551 099d 06       		.byte	0x6
 1552 099e 08       		.uleb128 0x8
 1553 099f 8D050000 		.4byte	.LASF150
 1554 09a3 0F       		.byte	0xf
 1555 09a4 39       		.byte	0x39
 1556 09a5 A9000000 		.4byte	0xa9
 1557 09a9 08       		.byte	0x8
 1558 09aa 08       		.uleb128 0x8
 1559 09ab B8030000 		.4byte	.LASF151
 1560 09af 0F       		.byte	0xf
 1561 09b0 3A       		.byte	0x3a
 1562 09b1 A9000000 		.4byte	0xa9
 1563 09b5 09       		.byte	0x9
 1564 09b6 08       		.uleb128 0x8
 1565 09b7 A3000000 		.4byte	.LASF152
 1566 09bb 0F       		.byte	0xf
 1567 09bc 3B       		.byte	0x3b
 1568 09bd A9000000 		.4byte	0xa9
 1569 09c1 0A       		.byte	0xa
 1570 09c2 08       		.uleb128 0x8
 1571 09c3 C7060000 		.4byte	.LASF153
 1572 09c7 0F       		.byte	0xf
 1573 09c8 3C       		.byte	0x3c
 1574 09c9 A9000000 		.4byte	0xa9
 1575 09cd 0B       		.byte	0xb
 1576 09ce 08       		.uleb128 0x8
 1577 09cf C8070000 		.4byte	.LASF154
 1578 09d3 0F       		.byte	0xf
 1579 09d4 3D       		.byte	0x3d
 1580 09d5 A9000000 		.4byte	0xa9
 1581 09d9 0C       		.byte	0xc
 1582 09da 08       		.uleb128 0x8
 1583 09db 92060000 		.4byte	.LASF155
 1584 09df 0F       		.byte	0xf
 1585 09e0 3E       		.byte	0x3e
 1586 09e1 A9000000 		.4byte	0xa9
 1587 09e5 0D       		.byte	0xd
 1588 09e6 08       		.uleb128 0x8
 1589 09e7 00000000 		.4byte	.LASF156
 1590 09eb 0F       		.byte	0xf
 1591 09ec 3F       		.byte	0x3f
 1592 09ed A9000000 		.4byte	0xa9
 1593 09f1 0E       		.byte	0xe
 1594 09f2 08       		.uleb128 0x8
 1595 09f3 16050000 		.4byte	.LASF157
 1596 09f7 0F       		.byte	0xf
ARM GAS  /tmp/ccFdtjmc.s 			page 29


 1597 09f8 40       		.byte	0x40
 1598 09f9 A9000000 		.4byte	0xa9
 1599 09fd 0F       		.byte	0xf
 1600 09fe 08       		.uleb128 0x8
 1601 09ff 3E010000 		.4byte	.LASF158
 1602 0a03 0F       		.byte	0xf
 1603 0a04 41       		.byte	0x41
 1604 0a05 A9000000 		.4byte	0xa9
 1605 0a09 10       		.byte	0x10
 1606 0a0a 08       		.uleb128 0x8
 1607 0a0b 02010000 		.4byte	.LASF159
 1608 0a0f 0F       		.byte	0xf
 1609 0a10 43       		.byte	0x43
 1610 0a11 A9000000 		.4byte	0xa9
 1611 0a15 11       		.byte	0x11
 1612 0a16 08       		.uleb128 0x8
 1613 0a17 4E010000 		.4byte	.LASF160
 1614 0a1b 0F       		.byte	0xf
 1615 0a1c 44       		.byte	0x44
 1616 0a1d A9000000 		.4byte	0xa9
 1617 0a21 12       		.byte	0x12
 1618 0a22 08       		.uleb128 0x8
 1619 0a23 A0040000 		.4byte	.LASF161
 1620 0a27 0F       		.byte	0xf
 1621 0a28 45       		.byte	0x45
 1622 0a29 A9000000 		.4byte	0xa9
 1623 0a2d 13       		.byte	0x13
 1624 0a2e 08       		.uleb128 0x8
 1625 0a2f 4F060000 		.4byte	.LASF162
 1626 0a33 0F       		.byte	0xf
 1627 0a34 46       		.byte	0x46
 1628 0a35 A9000000 		.4byte	0xa9
 1629 0a39 14       		.byte	0x14
 1630 0a3a 08       		.uleb128 0x8
 1631 0a3b 26040000 		.4byte	.LASF163
 1632 0a3f 0F       		.byte	0xf
 1633 0a40 48       		.byte	0x48
 1634 0a41 A9000000 		.4byte	0xa9
 1635 0a45 15       		.byte	0x15
 1636 0a46 00       		.byte	0
 1637 0a47 11       		.uleb128 0x11
 1638 0a48 33090000 		.4byte	0x933
 1639 0a4c 570A0000 		.4byte	0xa57
 1640 0a50 12       		.uleb128 0x12
 1641 0a51 C3040000 		.4byte	0x4c3
 1642 0a55 03       		.byte	0x3
 1643 0a56 00       		.byte	0
 1644 0a57 04       		.uleb128 0x4
 1645 0a58 DD020000 		.4byte	.LASF164
 1646 0a5c 0F       		.byte	0xf
 1647 0a5d 49       		.byte	0x49
 1648 0a5e 66090000 		.4byte	0x966
 1649 0a62 06       		.uleb128 0x6
 1650 0a63 570A0000 		.4byte	0xa57
 1651 0a67 16       		.uleb128 0x16
 1652 0a68 A1030000 		.4byte	.LASF165
 1653 0a6c 0F       		.byte	0xf
ARM GAS  /tmp/ccFdtjmc.s 			page 30


 1654 0a6d 6E       		.byte	0x6e
 1655 0a6e 620A0000 		.4byte	0xa62
 1656 0a72 04       		.uleb128 0x4
 1657 0a73 29030000 		.4byte	.LASF166
 1658 0a77 0E       		.byte	0xe
 1659 0a78 34       		.byte	0x34
 1660 0a79 F1080000 		.4byte	0x8f1
 1661 0a7d 0B       		.uleb128 0xb
 1662 0a7e 04       		.byte	0x4
 1663 0a7f 720A0000 		.4byte	0xa72
 1664 0a83 03       		.uleb128 0x3
 1665 0a84 01       		.byte	0x1
 1666 0a85 02       		.byte	0x2
 1667 0a86 F3060000 		.4byte	.LASF167
 1668 0a8a 1C       		.uleb128 0x1c
 1669 0a8b 66040000 		.4byte	.LASF170
 1670 0a8f 02       		.byte	0x2
 1671 0a90 90       		.byte	0x90
 1672 0a91 00000000 		.4byte	.LFB236
 1673 0a95 28000000 		.4byte	.LFE236-.LFB236
 1674 0a99 01       		.uleb128 0x1
 1675 0a9a 9C       		.byte	0x9c
 1676 0a9b BC0A0000 		.4byte	0xabc
 1677 0a9f 1D       		.uleb128 0x1d
 1678 0aa0 0F010000 		.4byte	.LASF168
 1679 0aa4 02       		.byte	0x2
 1680 0aa5 90       		.byte	0x90
 1681 0aa6 BC0A0000 		.4byte	0xabc
 1682 0aaa 02       		.uleb128 0x2
 1683 0aab 91       		.byte	0x91
 1684 0aac 74       		.sleb128 -12
 1685 0aad 1D       		.uleb128 0x1d
 1686 0aae 14010000 		.4byte	.LASF169
 1687 0ab2 02       		.byte	0x2
 1688 0ab3 91       		.byte	0x91
 1689 0ab4 BC0A0000 		.4byte	0xabc
 1690 0ab8 02       		.uleb128 0x2
 1691 0ab9 91       		.byte	0x91
 1692 0aba 70       		.sleb128 -16
 1693 0abb 00       		.byte	0
 1694 0abc 0B       		.uleb128 0xb
 1695 0abd 04       		.byte	0x4
 1696 0abe 14080000 		.4byte	0x814
 1697 0ac2 1C       		.uleb128 0x1c
 1698 0ac3 9D010000 		.4byte	.LASF171
 1699 0ac7 02       		.byte	0x2
 1700 0ac8 7F       		.byte	0x7f
 1701 0ac9 00000000 		.4byte	.LFB235
 1702 0acd 28000000 		.4byte	.LFE235-.LFB235
 1703 0ad1 01       		.uleb128 0x1
 1704 0ad2 9C       		.byte	0x9c
 1705 0ad3 E60A0000 		.4byte	0xae6
 1706 0ad7 1E       		.uleb128 0x1e
 1707 0ad8 746D7000 		.ascii	"tmp\000"
 1708 0adc 02       		.byte	0x2
 1709 0add 7F       		.byte	0x7f
 1710 0ade BC0A0000 		.4byte	0xabc
ARM GAS  /tmp/ccFdtjmc.s 			page 31


 1711 0ae2 02       		.uleb128 0x2
 1712 0ae3 91       		.byte	0x91
 1713 0ae4 74       		.sleb128 -12
 1714 0ae5 00       		.byte	0
 1715 0ae6 1C       		.uleb128 0x1c
 1716 0ae7 87010000 		.4byte	.LASF172
 1717 0aeb 02       		.byte	0x2
 1718 0aec 72       		.byte	0x72
 1719 0aed 00000000 		.4byte	.LFB234
 1720 0af1 18000000 		.4byte	.LFE234-.LFB234
 1721 0af5 01       		.uleb128 0x1
 1722 0af6 9C       		.byte	0x9c
 1723 0af7 0A0B0000 		.4byte	0xb0a
 1724 0afb 1E       		.uleb128 0x1e
 1725 0afc 746D7000 		.ascii	"tmp\000"
 1726 0b00 02       		.byte	0x2
 1727 0b01 72       		.byte	0x72
 1728 0b02 BC0A0000 		.4byte	0xabc
 1729 0b06 02       		.uleb128 0x2
 1730 0b07 91       		.byte	0x91
 1731 0b08 74       		.sleb128 -12
 1732 0b09 00       		.byte	0
 1733 0b0a 1F       		.uleb128 0x1f
 1734 0b0b E3000000 		.4byte	.LASF173
 1735 0b0f 02       		.byte	0x2
 1736 0b10 61       		.byte	0x61
 1737 0b11 00000000 		.4byte	.LFB233
 1738 0b15 38000000 		.4byte	.LFE233-.LFB233
 1739 0b19 01       		.uleb128 0x1
 1740 0b1a 9C       		.byte	0x9c
 1741 0b1b 2E0B0000 		.4byte	0xb2e
 1742 0b1f 1E       		.uleb128 0x1e
 1743 0b20 746D7000 		.ascii	"tmp\000"
 1744 0b24 02       		.byte	0x2
 1745 0b25 61       		.byte	0x61
 1746 0b26 BC0A0000 		.4byte	0xabc
 1747 0b2a 02       		.uleb128 0x2
 1748 0b2b 91       		.byte	0x91
 1749 0b2c 74       		.sleb128 -12
 1750 0b2d 00       		.byte	0
 1751 0b2e 1C       		.uleb128 0x1c
 1752 0b2f 8C080000 		.4byte	.LASF174
 1753 0b33 02       		.byte	0x2
 1754 0b34 4D       		.byte	0x4d
 1755 0b35 00000000 		.4byte	.LFB232
 1756 0b39 38000000 		.4byte	.LFE232-.LFB232
 1757 0b3d 01       		.uleb128 0x1
 1758 0b3e 9C       		.byte	0x9c
 1759 0b3f 510B0000 		.4byte	0xb51
 1760 0b43 20       		.uleb128 0x20
 1761 0b44 746D00   		.ascii	"tm\000"
 1762 0b47 02       		.byte	0x2
 1763 0b48 4E       		.byte	0x4e
 1764 0b49 14080000 		.4byte	0x814
 1765 0b4d 02       		.uleb128 0x2
 1766 0b4e 91       		.byte	0x91
 1767 0b4f 60       		.sleb128 -32
ARM GAS  /tmp/ccFdtjmc.s 			page 32


 1768 0b50 00       		.byte	0
 1769 0b51 21       		.uleb128 0x21
 1770 0b52 C5000000 		.4byte	.LASF178
 1771 0b56 02       		.byte	0x2
 1772 0b57 35       		.byte	0x35
 1773 0b58 00000000 		.4byte	.LFB231
 1774 0b5c 70000000 		.4byte	.LFE231-.LFB231
 1775 0b60 01       		.uleb128 0x1
 1776 0b61 9C       		.byte	0x9c
 1777 0b62 910B0000 		.4byte	0xb91
 1778 0b66 1E       		.uleb128 0x1e
 1779 0b67 746D7000 		.ascii	"tmp\000"
 1780 0b6b 02       		.byte	0x2
 1781 0b6c 35       		.byte	0x35
 1782 0b6d BC0A0000 		.4byte	0xabc
 1783 0b71 02       		.uleb128 0x2
 1784 0b72 91       		.byte	0x91
 1785 0b73 74       		.sleb128 -12
 1786 0b74 1E       		.uleb128 0x1e
 1787 0b75 6E6F7700 		.ascii	"now\000"
 1788 0b79 02       		.byte	0x2
 1789 0b7a 36       		.byte	0x36
 1790 0b7b EF000000 		.4byte	0xef
 1791 0b7f 02       		.uleb128 0x2
 1792 0b80 91       		.byte	0x91
 1793 0b81 70       		.sleb128 -16
 1794 0b82 1D       		.uleb128 0x1d
 1795 0b83 85070000 		.4byte	.LASF119
 1796 0b87 02       		.byte	0x2
 1797 0b88 37       		.byte	0x37
 1798 0b89 EF000000 		.4byte	0xef
 1799 0b8d 02       		.uleb128 0x2
 1800 0b8e 91       		.byte	0x91
 1801 0b8f 6C       		.sleb128 -20
 1802 0b90 00       		.byte	0
 1803 0b91 22       		.uleb128 0x22
 1804 0b92 31070000 		.4byte	.LASF179
 1805 0b96 01       		.byte	0x1
 1806 0b97 3802     		.2byte	0x238
 1807 0b99 EF000000 		.4byte	0xef
 1808 0b9d 00000000 		.4byte	.LFB135
 1809 0ba1 0C000000 		.4byte	.LFE135-.LFB135
 1810 0ba5 01       		.uleb128 0x1
 1811 0ba6 9C       		.byte	0x9c
 1812 0ba7 00       		.byte	0
 1813              		.section	.debug_abbrev,"",%progbits
 1814              	.Ldebug_abbrev0:
 1815 0000 01       		.uleb128 0x1
 1816 0001 11       		.uleb128 0x11
 1817 0002 01       		.byte	0x1
 1818 0003 25       		.uleb128 0x25
 1819 0004 0E       		.uleb128 0xe
 1820 0005 13       		.uleb128 0x13
 1821 0006 0B       		.uleb128 0xb
 1822 0007 03       		.uleb128 0x3
 1823 0008 0E       		.uleb128 0xe
 1824 0009 1B       		.uleb128 0x1b
ARM GAS  /tmp/ccFdtjmc.s 			page 33


 1825 000a 0E       		.uleb128 0xe
 1826 000b 55       		.uleb128 0x55
 1827 000c 17       		.uleb128 0x17
 1828 000d 11       		.uleb128 0x11
 1829 000e 01       		.uleb128 0x1
 1830 000f 10       		.uleb128 0x10
 1831 0010 17       		.uleb128 0x17
 1832 0011 00       		.byte	0
 1833 0012 00       		.byte	0
 1834 0013 02       		.uleb128 0x2
 1835 0014 24       		.uleb128 0x24
 1836 0015 00       		.byte	0
 1837 0016 0B       		.uleb128 0xb
 1838 0017 0B       		.uleb128 0xb
 1839 0018 3E       		.uleb128 0x3e
 1840 0019 0B       		.uleb128 0xb
 1841 001a 03       		.uleb128 0x3
 1842 001b 08       		.uleb128 0x8
 1843 001c 00       		.byte	0
 1844 001d 00       		.byte	0
 1845 001e 03       		.uleb128 0x3
 1846 001f 24       		.uleb128 0x24
 1847 0020 00       		.byte	0
 1848 0021 0B       		.uleb128 0xb
 1849 0022 0B       		.uleb128 0xb
 1850 0023 3E       		.uleb128 0x3e
 1851 0024 0B       		.uleb128 0xb
 1852 0025 03       		.uleb128 0x3
 1853 0026 0E       		.uleb128 0xe
 1854 0027 00       		.byte	0
 1855 0028 00       		.byte	0
 1856 0029 04       		.uleb128 0x4
 1857 002a 16       		.uleb128 0x16
 1858 002b 00       		.byte	0
 1859 002c 03       		.uleb128 0x3
 1860 002d 0E       		.uleb128 0xe
 1861 002e 3A       		.uleb128 0x3a
 1862 002f 0B       		.uleb128 0xb
 1863 0030 3B       		.uleb128 0x3b
 1864 0031 0B       		.uleb128 0xb
 1865 0032 49       		.uleb128 0x49
 1866 0033 13       		.uleb128 0x13
 1867 0034 00       		.byte	0
 1868 0035 00       		.byte	0
 1869 0036 05       		.uleb128 0x5
 1870 0037 35       		.uleb128 0x35
 1871 0038 00       		.byte	0
 1872 0039 49       		.uleb128 0x49
 1873 003a 13       		.uleb128 0x13
 1874 003b 00       		.byte	0
 1875 003c 00       		.byte	0
 1876 003d 06       		.uleb128 0x6
 1877 003e 26       		.uleb128 0x26
 1878 003f 00       		.byte	0
 1879 0040 49       		.uleb128 0x49
 1880 0041 13       		.uleb128 0x13
 1881 0042 00       		.byte	0
ARM GAS  /tmp/ccFdtjmc.s 			page 34


 1882 0043 00       		.byte	0
 1883 0044 07       		.uleb128 0x7
 1884 0045 13       		.uleb128 0x13
 1885 0046 01       		.byte	0x1
 1886 0047 03       		.uleb128 0x3
 1887 0048 0E       		.uleb128 0xe
 1888 0049 0B       		.uleb128 0xb
 1889 004a 0B       		.uleb128 0xb
 1890 004b 3A       		.uleb128 0x3a
 1891 004c 0B       		.uleb128 0xb
 1892 004d 3B       		.uleb128 0x3b
 1893 004e 0B       		.uleb128 0xb
 1894 004f 01       		.uleb128 0x1
 1895 0050 13       		.uleb128 0x13
 1896 0051 00       		.byte	0
 1897 0052 00       		.byte	0
 1898 0053 08       		.uleb128 0x8
 1899 0054 0D       		.uleb128 0xd
 1900 0055 00       		.byte	0
 1901 0056 03       		.uleb128 0x3
 1902 0057 0E       		.uleb128 0xe
 1903 0058 3A       		.uleb128 0x3a
 1904 0059 0B       		.uleb128 0xb
 1905 005a 3B       		.uleb128 0x3b
 1906 005b 0B       		.uleb128 0xb
 1907 005c 49       		.uleb128 0x49
 1908 005d 13       		.uleb128 0x13
 1909 005e 38       		.uleb128 0x38
 1910 005f 0B       		.uleb128 0xb
 1911 0060 00       		.byte	0
 1912 0061 00       		.byte	0
 1913 0062 09       		.uleb128 0x9
 1914 0063 0D       		.uleb128 0xd
 1915 0064 00       		.byte	0
 1916 0065 03       		.uleb128 0x3
 1917 0066 08       		.uleb128 0x8
 1918 0067 3A       		.uleb128 0x3a
 1919 0068 0B       		.uleb128 0xb
 1920 0069 3B       		.uleb128 0x3b
 1921 006a 05       		.uleb128 0x5
 1922 006b 49       		.uleb128 0x49
 1923 006c 13       		.uleb128 0x13
 1924 006d 38       		.uleb128 0x38
 1925 006e 0B       		.uleb128 0xb
 1926 006f 00       		.byte	0
 1927 0070 00       		.byte	0
 1928 0071 0A       		.uleb128 0xa
 1929 0072 0D       		.uleb128 0xd
 1930 0073 00       		.byte	0
 1931 0074 03       		.uleb128 0x3
 1932 0075 0E       		.uleb128 0xe
 1933 0076 3A       		.uleb128 0x3a
 1934 0077 0B       		.uleb128 0xb
 1935 0078 3B       		.uleb128 0x3b
 1936 0079 05       		.uleb128 0x5
 1937 007a 49       		.uleb128 0x49
 1938 007b 13       		.uleb128 0x13
ARM GAS  /tmp/ccFdtjmc.s 			page 35


 1939 007c 38       		.uleb128 0x38
 1940 007d 0B       		.uleb128 0xb
 1941 007e 00       		.byte	0
 1942 007f 00       		.byte	0
 1943 0080 0B       		.uleb128 0xb
 1944 0081 0F       		.uleb128 0xf
 1945 0082 00       		.byte	0
 1946 0083 0B       		.uleb128 0xb
 1947 0084 0B       		.uleb128 0xb
 1948 0085 49       		.uleb128 0x49
 1949 0086 13       		.uleb128 0x13
 1950 0087 00       		.byte	0
 1951 0088 00       		.byte	0
 1952 0089 0C       		.uleb128 0xc
 1953 008a 13       		.uleb128 0x13
 1954 008b 01       		.byte	0x1
 1955 008c 03       		.uleb128 0x3
 1956 008d 0E       		.uleb128 0xe
 1957 008e 0B       		.uleb128 0xb
 1958 008f 0B       		.uleb128 0xb
 1959 0090 3A       		.uleb128 0x3a
 1960 0091 0B       		.uleb128 0xb
 1961 0092 3B       		.uleb128 0x3b
 1962 0093 05       		.uleb128 0x5
 1963 0094 01       		.uleb128 0x1
 1964 0095 13       		.uleb128 0x13
 1965 0096 00       		.byte	0
 1966 0097 00       		.byte	0
 1967 0098 0D       		.uleb128 0xd
 1968 0099 15       		.uleb128 0x15
 1969 009a 01       		.byte	0x1
 1970 009b 27       		.uleb128 0x27
 1971 009c 19       		.uleb128 0x19
 1972 009d 01       		.uleb128 0x1
 1973 009e 13       		.uleb128 0x13
 1974 009f 00       		.byte	0
 1975 00a0 00       		.byte	0
 1976 00a1 0E       		.uleb128 0xe
 1977 00a2 05       		.uleb128 0x5
 1978 00a3 00       		.byte	0
 1979 00a4 49       		.uleb128 0x49
 1980 00a5 13       		.uleb128 0x13
 1981 00a6 00       		.byte	0
 1982 00a7 00       		.byte	0
 1983 00a8 0F       		.uleb128 0xf
 1984 00a9 0F       		.uleb128 0xf
 1985 00aa 00       		.byte	0
 1986 00ab 0B       		.uleb128 0xb
 1987 00ac 0B       		.uleb128 0xb
 1988 00ad 00       		.byte	0
 1989 00ae 00       		.byte	0
 1990 00af 10       		.uleb128 0x10
 1991 00b0 13       		.uleb128 0x13
 1992 00b1 01       		.byte	0x1
 1993 00b2 03       		.uleb128 0x3
 1994 00b3 0E       		.uleb128 0xe
 1995 00b4 0B       		.uleb128 0xb
ARM GAS  /tmp/ccFdtjmc.s 			page 36


 1996 00b5 05       		.uleb128 0x5
 1997 00b6 3A       		.uleb128 0x3a
 1998 00b7 0B       		.uleb128 0xb
 1999 00b8 3B       		.uleb128 0x3b
 2000 00b9 05       		.uleb128 0x5
 2001 00ba 01       		.uleb128 0x1
 2002 00bb 13       		.uleb128 0x13
 2003 00bc 00       		.byte	0
 2004 00bd 00       		.byte	0
 2005 00be 11       		.uleb128 0x11
 2006 00bf 01       		.uleb128 0x1
 2007 00c0 01       		.byte	0x1
 2008 00c1 49       		.uleb128 0x49
 2009 00c2 13       		.uleb128 0x13
 2010 00c3 01       		.uleb128 0x1
 2011 00c4 13       		.uleb128 0x13
 2012 00c5 00       		.byte	0
 2013 00c6 00       		.byte	0
 2014 00c7 12       		.uleb128 0x12
 2015 00c8 21       		.uleb128 0x21
 2016 00c9 00       		.byte	0
 2017 00ca 49       		.uleb128 0x49
 2018 00cb 13       		.uleb128 0x13
 2019 00cc 2F       		.uleb128 0x2f
 2020 00cd 0B       		.uleb128 0xb
 2021 00ce 00       		.byte	0
 2022 00cf 00       		.byte	0
 2023 00d0 13       		.uleb128 0x13
 2024 00d1 13       		.uleb128 0x13
 2025 00d2 01       		.byte	0x1
 2026 00d3 0B       		.uleb128 0xb
 2027 00d4 0B       		.uleb128 0xb
 2028 00d5 3A       		.uleb128 0x3a
 2029 00d6 0B       		.uleb128 0xb
 2030 00d7 3B       		.uleb128 0x3b
 2031 00d8 05       		.uleb128 0x5
 2032 00d9 01       		.uleb128 0x1
 2033 00da 13       		.uleb128 0x13
 2034 00db 00       		.byte	0
 2035 00dc 00       		.byte	0
 2036 00dd 14       		.uleb128 0x14
 2037 00de 16       		.uleb128 0x16
 2038 00df 00       		.byte	0
 2039 00e0 03       		.uleb128 0x3
 2040 00e1 0E       		.uleb128 0xe
 2041 00e2 3A       		.uleb128 0x3a
 2042 00e3 0B       		.uleb128 0xb
 2043 00e4 3B       		.uleb128 0x3b
 2044 00e5 05       		.uleb128 0x5
 2045 00e6 49       		.uleb128 0x49
 2046 00e7 13       		.uleb128 0x13
 2047 00e8 00       		.byte	0
 2048 00e9 00       		.byte	0
 2049 00ea 15       		.uleb128 0x15
 2050 00eb 34       		.uleb128 0x34
 2051 00ec 00       		.byte	0
 2052 00ed 03       		.uleb128 0x3
ARM GAS  /tmp/ccFdtjmc.s 			page 37


 2053 00ee 0E       		.uleb128 0xe
 2054 00ef 3A       		.uleb128 0x3a
 2055 00f0 0B       		.uleb128 0xb
 2056 00f1 3B       		.uleb128 0x3b
 2057 00f2 05       		.uleb128 0x5
 2058 00f3 49       		.uleb128 0x49
 2059 00f4 13       		.uleb128 0x13
 2060 00f5 3F       		.uleb128 0x3f
 2061 00f6 19       		.uleb128 0x19
 2062 00f7 3C       		.uleb128 0x3c
 2063 00f8 19       		.uleb128 0x19
 2064 00f9 00       		.byte	0
 2065 00fa 00       		.byte	0
 2066 00fb 16       		.uleb128 0x16
 2067 00fc 34       		.uleb128 0x34
 2068 00fd 00       		.byte	0
 2069 00fe 03       		.uleb128 0x3
 2070 00ff 0E       		.uleb128 0xe
 2071 0100 3A       		.uleb128 0x3a
 2072 0101 0B       		.uleb128 0xb
 2073 0102 3B       		.uleb128 0x3b
 2074 0103 0B       		.uleb128 0xb
 2075 0104 49       		.uleb128 0x49
 2076 0105 13       		.uleb128 0x13
 2077 0106 3F       		.uleb128 0x3f
 2078 0107 19       		.uleb128 0x19
 2079 0108 3C       		.uleb128 0x3c
 2080 0109 19       		.uleb128 0x19
 2081 010a 00       		.byte	0
 2082 010b 00       		.byte	0
 2083 010c 17       		.uleb128 0x17
 2084 010d 0D       		.uleb128 0xd
 2085 010e 00       		.byte	0
 2086 010f 03       		.uleb128 0x3
 2087 0110 08       		.uleb128 0x8
 2088 0111 3A       		.uleb128 0x3a
 2089 0112 0B       		.uleb128 0xb
 2090 0113 3B       		.uleb128 0x3b
 2091 0114 0B       		.uleb128 0xb
 2092 0115 49       		.uleb128 0x49
 2093 0116 13       		.uleb128 0x13
 2094 0117 38       		.uleb128 0x38
 2095 0118 0B       		.uleb128 0xb
 2096 0119 00       		.byte	0
 2097 011a 00       		.byte	0
 2098 011b 18       		.uleb128 0x18
 2099 011c 13       		.uleb128 0x13
 2100 011d 01       		.byte	0x1
 2101 011e 0B       		.uleb128 0xb
 2102 011f 0B       		.uleb128 0xb
 2103 0120 3A       		.uleb128 0x3a
 2104 0121 0B       		.uleb128 0xb
 2105 0122 3B       		.uleb128 0x3b
 2106 0123 0B       		.uleb128 0xb
 2107 0124 01       		.uleb128 0x1
 2108 0125 13       		.uleb128 0x13
 2109 0126 00       		.byte	0
ARM GAS  /tmp/ccFdtjmc.s 			page 38


 2110 0127 00       		.byte	0
 2111 0128 19       		.uleb128 0x19
 2112 0129 17       		.uleb128 0x17
 2113 012a 01       		.byte	0x1
 2114 012b 0B       		.uleb128 0xb
 2115 012c 0B       		.uleb128 0xb
 2116 012d 3A       		.uleb128 0x3a
 2117 012e 0B       		.uleb128 0xb
 2118 012f 3B       		.uleb128 0x3b
 2119 0130 0B       		.uleb128 0xb
 2120 0131 01       		.uleb128 0x1
 2121 0132 13       		.uleb128 0x13
 2122 0133 00       		.byte	0
 2123 0134 00       		.byte	0
 2124 0135 1A       		.uleb128 0x1a
 2125 0136 0D       		.uleb128 0xd
 2126 0137 00       		.byte	0
 2127 0138 03       		.uleb128 0x3
 2128 0139 0E       		.uleb128 0xe
 2129 013a 3A       		.uleb128 0x3a
 2130 013b 0B       		.uleb128 0xb
 2131 013c 3B       		.uleb128 0x3b
 2132 013d 05       		.uleb128 0x5
 2133 013e 49       		.uleb128 0x49
 2134 013f 13       		.uleb128 0x13
 2135 0140 00       		.byte	0
 2136 0141 00       		.byte	0
 2137 0142 1B       		.uleb128 0x1b
 2138 0143 34       		.uleb128 0x34
 2139 0144 00       		.byte	0
 2140 0145 03       		.uleb128 0x3
 2141 0146 08       		.uleb128 0x8
 2142 0147 3A       		.uleb128 0x3a
 2143 0148 0B       		.uleb128 0xb
 2144 0149 3B       		.uleb128 0x3b
 2145 014a 05       		.uleb128 0x5
 2146 014b 49       		.uleb128 0x49
 2147 014c 13       		.uleb128 0x13
 2148 014d 3F       		.uleb128 0x3f
 2149 014e 19       		.uleb128 0x19
 2150 014f 3C       		.uleb128 0x3c
 2151 0150 19       		.uleb128 0x19
 2152 0151 00       		.byte	0
 2153 0152 00       		.byte	0
 2154 0153 1C       		.uleb128 0x1c
 2155 0154 2E       		.uleb128 0x2e
 2156 0155 01       		.byte	0x1
 2157 0156 3F       		.uleb128 0x3f
 2158 0157 19       		.uleb128 0x19
 2159 0158 03       		.uleb128 0x3
 2160 0159 0E       		.uleb128 0xe
 2161 015a 3A       		.uleb128 0x3a
 2162 015b 0B       		.uleb128 0xb
 2163 015c 3B       		.uleb128 0x3b
 2164 015d 0B       		.uleb128 0xb
 2165 015e 27       		.uleb128 0x27
 2166 015f 19       		.uleb128 0x19
ARM GAS  /tmp/ccFdtjmc.s 			page 39


 2167 0160 11       		.uleb128 0x11
 2168 0161 01       		.uleb128 0x1
 2169 0162 12       		.uleb128 0x12
 2170 0163 06       		.uleb128 0x6
 2171 0164 40       		.uleb128 0x40
 2172 0165 18       		.uleb128 0x18
 2173 0166 9642     		.uleb128 0x2116
 2174 0168 19       		.uleb128 0x19
 2175 0169 01       		.uleb128 0x1
 2176 016a 13       		.uleb128 0x13
 2177 016b 00       		.byte	0
 2178 016c 00       		.byte	0
 2179 016d 1D       		.uleb128 0x1d
 2180 016e 05       		.uleb128 0x5
 2181 016f 00       		.byte	0
 2182 0170 03       		.uleb128 0x3
 2183 0171 0E       		.uleb128 0xe
 2184 0172 3A       		.uleb128 0x3a
 2185 0173 0B       		.uleb128 0xb
 2186 0174 3B       		.uleb128 0x3b
 2187 0175 0B       		.uleb128 0xb
 2188 0176 49       		.uleb128 0x49
 2189 0177 13       		.uleb128 0x13
 2190 0178 02       		.uleb128 0x2
 2191 0179 18       		.uleb128 0x18
 2192 017a 00       		.byte	0
 2193 017b 00       		.byte	0
 2194 017c 1E       		.uleb128 0x1e
 2195 017d 05       		.uleb128 0x5
 2196 017e 00       		.byte	0
 2197 017f 03       		.uleb128 0x3
 2198 0180 08       		.uleb128 0x8
 2199 0181 3A       		.uleb128 0x3a
 2200 0182 0B       		.uleb128 0xb
 2201 0183 3B       		.uleb128 0x3b
 2202 0184 0B       		.uleb128 0xb
 2203 0185 49       		.uleb128 0x49
 2204 0186 13       		.uleb128 0x13
 2205 0187 02       		.uleb128 0x2
 2206 0188 18       		.uleb128 0x18
 2207 0189 00       		.byte	0
 2208 018a 00       		.byte	0
 2209 018b 1F       		.uleb128 0x1f
 2210 018c 2E       		.uleb128 0x2e
 2211 018d 01       		.byte	0x1
 2212 018e 3F       		.uleb128 0x3f
 2213 018f 19       		.uleb128 0x19
 2214 0190 03       		.uleb128 0x3
 2215 0191 0E       		.uleb128 0xe
 2216 0192 3A       		.uleb128 0x3a
 2217 0193 0B       		.uleb128 0xb
 2218 0194 3B       		.uleb128 0x3b
 2219 0195 0B       		.uleb128 0xb
 2220 0196 27       		.uleb128 0x27
 2221 0197 19       		.uleb128 0x19
 2222 0198 11       		.uleb128 0x11
 2223 0199 01       		.uleb128 0x1
ARM GAS  /tmp/ccFdtjmc.s 			page 40


 2224 019a 12       		.uleb128 0x12
 2225 019b 06       		.uleb128 0x6
 2226 019c 40       		.uleb128 0x40
 2227 019d 18       		.uleb128 0x18
 2228 019e 9742     		.uleb128 0x2117
 2229 01a0 19       		.uleb128 0x19
 2230 01a1 01       		.uleb128 0x1
 2231 01a2 13       		.uleb128 0x13
 2232 01a3 00       		.byte	0
 2233 01a4 00       		.byte	0
 2234 01a5 20       		.uleb128 0x20
 2235 01a6 34       		.uleb128 0x34
 2236 01a7 00       		.byte	0
 2237 01a8 03       		.uleb128 0x3
 2238 01a9 08       		.uleb128 0x8
 2239 01aa 3A       		.uleb128 0x3a
 2240 01ab 0B       		.uleb128 0xb
 2241 01ac 3B       		.uleb128 0x3b
 2242 01ad 0B       		.uleb128 0xb
 2243 01ae 49       		.uleb128 0x49
 2244 01af 13       		.uleb128 0x13
 2245 01b0 02       		.uleb128 0x2
 2246 01b1 18       		.uleb128 0x18
 2247 01b2 00       		.byte	0
 2248 01b3 00       		.byte	0
 2249 01b4 21       		.uleb128 0x21
 2250 01b5 2E       		.uleb128 0x2e
 2251 01b6 01       		.byte	0x1
 2252 01b7 03       		.uleb128 0x3
 2253 01b8 0E       		.uleb128 0xe
 2254 01b9 3A       		.uleb128 0x3a
 2255 01ba 0B       		.uleb128 0xb
 2256 01bb 3B       		.uleb128 0x3b
 2257 01bc 0B       		.uleb128 0xb
 2258 01bd 27       		.uleb128 0x27
 2259 01be 19       		.uleb128 0x19
 2260 01bf 11       		.uleb128 0x11
 2261 01c0 01       		.uleb128 0x1
 2262 01c1 12       		.uleb128 0x12
 2263 01c2 06       		.uleb128 0x6
 2264 01c3 40       		.uleb128 0x40
 2265 01c4 18       		.uleb128 0x18
 2266 01c5 9742     		.uleb128 0x2117
 2267 01c7 19       		.uleb128 0x19
 2268 01c8 01       		.uleb128 0x1
 2269 01c9 13       		.uleb128 0x13
 2270 01ca 00       		.byte	0
 2271 01cb 00       		.byte	0
 2272 01cc 22       		.uleb128 0x22
 2273 01cd 2E       		.uleb128 0x2e
 2274 01ce 00       		.byte	0
 2275 01cf 03       		.uleb128 0x3
 2276 01d0 0E       		.uleb128 0xe
 2277 01d1 3A       		.uleb128 0x3a
 2278 01d2 0B       		.uleb128 0xb
 2279 01d3 3B       		.uleb128 0x3b
 2280 01d4 05       		.uleb128 0x5
ARM GAS  /tmp/ccFdtjmc.s 			page 41


 2281 01d5 27       		.uleb128 0x27
 2282 01d6 19       		.uleb128 0x19
 2283 01d7 49       		.uleb128 0x49
 2284 01d8 13       		.uleb128 0x13
 2285 01d9 11       		.uleb128 0x11
 2286 01da 01       		.uleb128 0x1
 2287 01db 12       		.uleb128 0x12
 2288 01dc 06       		.uleb128 0x6
 2289 01dd 40       		.uleb128 0x40
 2290 01de 18       		.uleb128 0x18
 2291 01df 9742     		.uleb128 0x2117
 2292 01e1 19       		.uleb128 0x19
 2293 01e2 00       		.byte	0
 2294 01e3 00       		.byte	0
 2295 01e4 00       		.byte	0
 2296              		.section	.debug_aranges,"",%progbits
 2297 0000 4C000000 		.4byte	0x4c
 2298 0004 0200     		.2byte	0x2
 2299 0006 00000000 		.4byte	.Ldebug_info0
 2300 000a 04       		.byte	0x4
 2301 000b 00       		.byte	0
 2302 000c 0000     		.2byte	0
 2303 000e 0000     		.2byte	0
 2304 0010 00000000 		.4byte	.LFB135
 2305 0014 0C000000 		.4byte	.LFE135-.LFB135
 2306 0018 00000000 		.4byte	.LFB231
 2307 001c 70000000 		.4byte	.LFE231-.LFB231
 2308 0020 00000000 		.4byte	.LFB232
 2309 0024 38000000 		.4byte	.LFE232-.LFB232
 2310 0028 00000000 		.4byte	.LFB233
 2311 002c 38000000 		.4byte	.LFE233-.LFB233
 2312 0030 00000000 		.4byte	.LFB234
 2313 0034 18000000 		.4byte	.LFE234-.LFB234
 2314 0038 00000000 		.4byte	.LFB235
 2315 003c 28000000 		.4byte	.LFE235-.LFB235
 2316 0040 00000000 		.4byte	.LFB236
 2317 0044 28000000 		.4byte	.LFE236-.LFB236
 2318 0048 00000000 		.4byte	0
 2319 004c 00000000 		.4byte	0
 2320              		.section	.debug_ranges,"",%progbits
 2321              	.Ldebug_ranges0:
 2322 0000 00000000 		.4byte	.LFB135
 2323 0004 0C000000 		.4byte	.LFE135
 2324 0008 00000000 		.4byte	.LFB231
 2325 000c 70000000 		.4byte	.LFE231
 2326 0010 00000000 		.4byte	.LFB232
 2327 0014 38000000 		.4byte	.LFE232
 2328 0018 00000000 		.4byte	.LFB233
 2329 001c 38000000 		.4byte	.LFE233
 2330 0020 00000000 		.4byte	.LFB234
 2331 0024 18000000 		.4byte	.LFE234
 2332 0028 00000000 		.4byte	.LFB235
 2333 002c 28000000 		.4byte	.LFE235
 2334 0030 00000000 		.4byte	.LFB236
 2335 0034 28000000 		.4byte	.LFE236
 2336 0038 00000000 		.4byte	0
 2337 003c 00000000 		.4byte	0
ARM GAS  /tmp/ccFdtjmc.s 			page 42


 2338              		.section	.debug_line,"",%progbits
 2339              	.Ldebug_line0:
 2340 0000 81020000 		.section	.debug_str,"MS",%progbits,1
 2340      0200E301 
 2340      00000201 
 2340      FB0E0D00 
 2340      01010101 
 2341              	.LASF156:
 2342 0000 63665F6F 		.ascii	"cf_off_older\000"
 2342      66665F6F 
 2342      6C646572 
 2342      00
 2343              	.LASF57:
 2344 000d 72656164 		.ascii	"ready_list_t\000"
 2344      795F6C69 
 2344      73745F74 
 2344      00
 2345              	.LASF134:
 2346 001a 77747472 		.ascii	"wttrp\000"
 2346      7000
 2347              	.LASF131:
 2348 0020 7264796D 		.ascii	"rdymsg\000"
 2348      736700
 2349              	.LASF19:
 2350 0027 75696E74 		.ascii	"uint64_t\000"
 2350      36345F74 
 2350      00
 2351              	.LASF86:
 2352 0030 6B65726E 		.ascii	"kernel_stats\000"
 2352      656C5F73 
 2352      74617473 
 2352      00
 2353              	.LASF6:
 2354 003d 5F5F7569 		.ascii	"__uint8_t\000"
 2354      6E74385F 
 2354      7400
 2355              	.LASF118:
 2356 0047 706F7274 		.ascii	"port_intctx\000"
 2356      5F696E74 
 2356      63747800 
 2357              	.LASF56:
 2358 0053 63685F74 		.ascii	"ch_threads_queue\000"
 2358      68726561 
 2358      64735F71 
 2358      75657565 
 2358      00
 2359              	.LASF76:
 2360 0064 73797374 		.ascii	"system_debug_t\000"
 2360      656D5F64 
 2360      65627567 
 2360      5F7400
 2361              	.LASF122:
 2362 0073 776F7273 		.ascii	"worst\000"
 2362      7400
 2363              	.LASF125:
 2364 0079 74696D65 		.ascii	"time_measurement_t\000"
 2364      5F6D6561 
ARM GAS  /tmp/ccFdtjmc.s 			page 43


 2364      73757265 
 2364      6D656E74 
 2364      5F7400
 2365              	.LASF14:
 2366 008c 6C6F6E67 		.ascii	"long long unsigned int\000"
 2366      206C6F6E 
 2366      6720756E 
 2366      7369676E 
 2366      65642069 
 2367              	.LASF152:
 2368 00a3 63685F74 		.ascii	"ch_threadsize\000"
 2368      68726561 
 2368      6473697A 
 2368      6500
 2369              	.LASF132:
 2370 00b1 65786974 		.ascii	"exitcode\000"
 2370      636F6465 
 2370      00
 2371              	.LASF85:
 2372 00ba 6D61696E 		.ascii	"mainthread\000"
 2372      74687265 
 2372      616400
 2373              	.LASF178:
 2374 00c5 746D5F73 		.ascii	"tm_stop\000"
 2374      746F7000 
 2375              	.LASF73:
 2376 00cd 76697274 		.ascii	"virtual_timers_list_t\000"
 2376      75616C5F 
 2376      74696D65 
 2376      72735F6C 
 2376      6973745F 
 2377              	.LASF173:
 2378 00e3 6368544D 		.ascii	"chTMObjectInit\000"
 2378      4F626A65 
 2378      6374496E 
 2378      697400
 2379              	.LASF21:
 2380 00f2 72747469 		.ascii	"rttime_t\000"
 2380      6D655F74 
 2380      00
 2381              	.LASF34:
 2382 00fb 705F7072 		.ascii	"p_prio\000"
 2382      696F00
 2383              	.LASF159:
 2384 0102 63665F6F 		.ascii	"cf_off_state\000"
 2384      66665F73 
 2384      74617465 
 2384      00
 2385              	.LASF168:
 2386 010f 746D7031 		.ascii	"tmp1\000"
 2386      00
 2387              	.LASF169:
 2388 0114 746D7032 		.ascii	"tmp2\000"
 2388      00
 2389              	.LASF75:
 2390 0119 76745F73 		.ascii	"vt_systime\000"
 2390      79737469 
ARM GAS  /tmp/ccFdtjmc.s 			page 44


 2390      6D6500
 2391              	.LASF1:
 2392 0124 6C6F6E67 		.ascii	"long long int\000"
 2392      206C6F6E 
 2392      6720696E 
 2392      7400
 2393              	.LASF3:
 2394 0132 7369676E 		.ascii	"signed char\000"
 2394      65642063 
 2394      68617200 
 2395              	.LASF158:
 2396 013e 63665F6F 		.ascii	"cf_off_stklimit\000"
 2396      66665F73 
 2396      746B6C69 
 2396      6D697400 
 2397              	.LASF160:
 2398 014e 63665F6F 		.ascii	"cf_off_flags\000"
 2398      66665F66 
 2398      6C616773 
 2398      00
 2399              	.LASF49:
 2400 015b 705F6D70 		.ascii	"p_mpool\000"
 2400      6F6F6C00 
 2401              	.LASF91:
 2402 0163 43504943 		.ascii	"CPICNT\000"
 2402      4E5400
 2403              	.LASF142:
 2404 016a 6D5F7175 		.ascii	"m_queue\000"
 2404      65756500 
 2405              	.LASF84:
 2406 0172 76746C69 		.ascii	"vtlist\000"
 2406      737400
 2407              	.LASF146:
 2408 0179 63685F69 		.ascii	"ch_identifier\000"
 2408      64656E74 
 2408      69666965 
 2408      7200
 2409              	.LASF172:
 2410 0187 6368544D 		.ascii	"chTMStartMeasurementX\000"
 2410      53746172 
 2410      744D6561 
 2410      73757265 
 2410      6D656E74 
 2411              	.LASF171:
 2412 019d 6368544D 		.ascii	"chTMStopMeasurementX\000"
 2412      53746F70 
 2412      4D656173 
 2412      7572656D 
 2412      656E7458 
 2413              	.LASF10:
 2414 01b2 6C6F6E67 		.ascii	"long int\000"
 2414      20696E74 
 2414      00
 2415              	.LASF23:
 2416 01bb 74737461 		.ascii	"tstate_t\000"
 2416      74655F74 
 2416      00
ARM GAS  /tmp/ccFdtjmc.s 			page 45


 2417              	.LASF175:
 2418 01c4 474E5520 		.ascii	"GNU C11 6.3.1 20170620 (release) [ARM/embedded-6-br"
 2418      43313120 
 2418      362E332E 
 2418      31203230 
 2418      31373036 
 2419 01f7 616E6368 		.ascii	"anch revision 249437] -mcpu=cortex-m4 -mfloat-abi=h"
 2419      20726576 
 2419      6973696F 
 2419      6E203234 
 2419      39343337 
 2420 022a 61726420 		.ascii	"ard -mfpu=fpv4-sp-d16 -mno-thumb-interwork -mthumb "
 2420      2D6D6670 
 2420      753D6670 
 2420      76342D73 
 2420      702D6431 
 2421 025d 2D676764 		.ascii	"-ggdb -O0 -fomit-frame-pointer -falign-functions=16"
 2421      62202D4F 
 2421      30202D66 
 2421      6F6D6974 
 2421      2D667261 
 2422 0290 202D6666 		.ascii	" -ffunction-sections -fdata-sections -fno-common -f"
 2422      756E6374 
 2422      696F6E2D 
 2422      73656374 
 2422      696F6E73 
 2423 02c3 73696E67 		.ascii	"single-precision-constant\000"
 2423      6C652D70 
 2423      72656369 
 2423      73696F6E 
 2423      2D636F6E 
 2424              	.LASF164:
 2425 02dd 63686465 		.ascii	"chdebug_t\000"
 2425      6275675F 
 2425      7400
 2426              	.LASF93:
 2427 02e7 534C4545 		.ascii	"SLEEPCNT\000"
 2427      50434E54 
 2427      00
 2428              	.LASF36:
 2429 02f0 705F6E65 		.ascii	"p_newer\000"
 2429      77657200 
 2430              	.LASF139:
 2431 02f8 735F7175 		.ascii	"s_queue\000"
 2431      65756500 
 2432              	.LASF62:
 2433 0300 725F6E65 		.ascii	"r_newer\000"
 2433      77657200 
 2434              	.LASF115:
 2435 0308 72656761 		.ascii	"regarm_t\000"
 2435      726D5F74 
 2435      00
 2436              	.LASF69:
 2437 0311 76745F70 		.ascii	"vt_prev\000"
 2437      72657600 
 2438              	.LASF77:
 2439 0319 63685F73 		.ascii	"ch_system_debug\000"
ARM GAS  /tmp/ccFdtjmc.s 			page 46


 2439      79737465 
 2439      6D5F6465 
 2439      62756700 
 2440              	.LASF166:
 2441 0329 6D757465 		.ascii	"mutex_t\000"
 2441      785F7400 
 2442              	.LASF80:
 2443 0331 6C6F636B 		.ascii	"lock_cnt\000"
 2443      5F636E74 
 2443      00
 2444              	.LASF87:
 2445 033a 69646C65 		.ascii	"idle_thread_wa\000"
 2445      5F746872 
 2445      6561645F 
 2445      776100
 2446              	.LASF28:
 2447 0349 636E745F 		.ascii	"cnt_t\000"
 2447      7400
 2448              	.LASF98:
 2449 034f 4D41534B 		.ascii	"MASK0\000"
 2449      3000
 2450              	.LASF0:
 2451 0355 756E7369 		.ascii	"unsigned int\000"
 2451      676E6564 
 2451      20696E74 
 2451      00
 2452              	.LASF68:
 2453 0362 76745F6E 		.ascii	"vt_next\000"
 2453      65787400 
 2454              	.LASF106:
 2455 036a 4D41534B 		.ascii	"MASK2\000"
 2455      3200
 2456              	.LASF114:
 2457 0370 53797374 		.ascii	"SystemCoreClock\000"
 2457      656D436F 
 2457      7265436C 
 2457      6F636B00 
 2458              	.LASF110:
 2459 0380 4D41534B 		.ascii	"MASK3\000"
 2459      3300
 2460              	.LASF135:
 2461 0386 77747365 		.ascii	"wtsemp\000"
 2461      6D7000
 2462              	.LASF70:
 2463 038d 76745F64 		.ascii	"vt_delta\000"
 2463      656C7461 
 2463      00
 2464              	.LASF44:
 2465 0396 705F6D73 		.ascii	"p_msgqueue\000"
 2465      67717565 
 2465      756500
 2466              	.LASF165:
 2467 03a1 63685F64 		.ascii	"ch_debug\000"
 2467      65627567 
 2467      00
 2468              	.LASF58:
 2469 03aa 63685F72 		.ascii	"ch_ready_list\000"
ARM GAS  /tmp/ccFdtjmc.s 			page 47


 2469      65616479 
 2469      5F6C6973 
 2469      7400
 2470              	.LASF151:
 2471 03b8 63685F74 		.ascii	"ch_timesize\000"
 2471      696D6573 
 2471      697A6500 
 2472              	.LASF126:
 2473 03c4 6E5F6972 		.ascii	"n_irq\000"
 2473      7100
 2474              	.LASF140:
 2475 03ca 735F636E 		.ascii	"s_cnt\000"
 2475      7400
 2476              	.LASF121:
 2477 03d0 62657374 		.ascii	"best\000"
 2477      00
 2478              	.LASF8:
 2479 03d5 73686F72 		.ascii	"short unsigned int\000"
 2479      7420756E 
 2479      7369676E 
 2479      65642069 
 2479      6E7400
 2480              	.LASF130:
 2481 03e8 6B65726E 		.ascii	"kernel_stats_t\000"
 2481      656C5F73 
 2481      74617473 
 2481      5F7400
 2482              	.LASF53:
 2483 03f7 63685F74 		.ascii	"ch_thread\000"
 2483      68726561 
 2483      6400
 2484              	.LASF92:
 2485 0401 45584343 		.ascii	"EXCCNT\000"
 2485      4E5400
 2486              	.LASF26:
 2487 0408 6D73675F 		.ascii	"msg_t\000"
 2487      7400
 2488              	.LASF123:
 2489 040e 6C617374 		.ascii	"last\000"
 2489      00
 2490              	.LASF29:
 2491 0413 75636E74 		.ascii	"ucnt_t\000"
 2491      5F7400
 2492              	.LASF81:
 2493 041a 63685F73 		.ascii	"ch_system_t\000"
 2493      79737465 
 2493      6D5F7400 
 2494              	.LASF163:
 2495 0426 63665F6F 		.ascii	"cf_off_time\000"
 2495      66665F74 
 2495      696D6500 
 2496              	.LASF16:
 2497 0432 75696E74 		.ascii	"uint16_t\000"
 2497      31365F74 
 2497      00
 2498              	.LASF129:
 2499 043b 6D5F6372 		.ascii	"m_crit_isr\000"
ARM GAS  /tmp/ccFdtjmc.s 			page 48


 2499      69745F69 
 2499      737200
 2500              	.LASF47:
 2501 0446 705F6D74 		.ascii	"p_mtxlist\000"
 2501      786C6973 
 2501      7400
 2502              	.LASF27:
 2503 0450 6576656E 		.ascii	"eventmask_t\000"
 2503      746D6173 
 2503      6B5F7400 
 2504              	.LASF9:
 2505 045c 5F5F696E 		.ascii	"__int32_t\000"
 2505      7433325F 
 2505      7400
 2506              	.LASF170:
 2507 0466 6368544D 		.ascii	"chTMChainMeasurementToX\000"
 2507      43686169 
 2507      6E4D6561 
 2507      73757265 
 2507      6D656E74 
 2508              	.LASF116:
 2509 047e 73746B61 		.ascii	"stkalign_t\000"
 2509      6C69676E 
 2509      5F7400
 2510              	.LASF52:
 2511 0489 74687265 		.ascii	"threads_list_t\000"
 2511      6164735F 
 2511      6C697374 
 2511      5F7400
 2512              	.LASF147:
 2513 0498 63685F7A 		.ascii	"ch_zero\000"
 2513      65726F00 
 2514              	.LASF161:
 2515 04a0 63665F6F 		.ascii	"cf_off_refs\000"
 2515      66665F72 
 2515      65667300 
 2516              	.LASF90:
 2517 04ac 43594343 		.ascii	"CYCCNT\000"
 2517      4E5400
 2518              	.LASF43:
 2519 04b3 705F7761 		.ascii	"p_waiting\000"
 2519      6974696E 
 2519      6700
 2520              	.LASF88:
 2521 04bd 73697A65 		.ascii	"sizetype\000"
 2521      74797065 
 2521      00
 2522              	.LASF74:
 2523 04c6 63685F76 		.ascii	"ch_virtual_timers_list\000"
 2523      69727475 
 2523      616C5F74 
 2523      696D6572 
 2523      735F6C69 
 2524              	.LASF2:
 2525 04dd 6C6F6E67 		.ascii	"long double\000"
 2525      20646F75 
 2525      626C6500 
ARM GAS  /tmp/ccFdtjmc.s 			page 49


 2526              	.LASF176:
 2527 04e9 2E2E2F43 		.ascii	"../ChibiOS/os/rt/src/chtm.c\000"
 2527      68696269 
 2527      4F532F6F 
 2527      732F7274 
 2527      2F737263 
 2528              	.LASF120:
 2529 0505 746D5F63 		.ascii	"tm_calibration_t\000"
 2529      616C6962 
 2529      72617469 
 2529      6F6E5F74 
 2529      00
 2530              	.LASF157:
 2531 0516 63665F6F 		.ascii	"cf_off_name\000"
 2531      66665F6E 
 2531      616D6500 
 2532              	.LASF37:
 2533 0522 705F6F6C 		.ascii	"p_older\000"
 2533      64657200 
 2534              	.LASF61:
 2535 052a 725F6374 		.ascii	"r_ctx\000"
 2535      7800
 2536              	.LASF35:
 2537 0530 705F6374 		.ascii	"p_ctx\000"
 2537      7800
 2538              	.LASF101:
 2539 0536 434F4D50 		.ascii	"COMP1\000"
 2539      3100
 2540              	.LASF105:
 2541 053c 434F4D50 		.ascii	"COMP2\000"
 2541      3200
 2542              	.LASF109:
 2543 0542 434F4D50 		.ascii	"COMP3\000"
 2543      3300
 2544              	.LASF39:
 2545 0548 705F7374 		.ascii	"p_stklimit\000"
 2545      6B6C696D 
 2545      697400
 2546              	.LASF64:
 2547 0553 725F6375 		.ascii	"r_current\000"
 2547      7272656E 
 2547      7400
 2548              	.LASF63:
 2549 055d 725F6F6C 		.ascii	"r_older\000"
 2549      64657200 
 2550              	.LASF13:
 2551 0565 5F5F7569 		.ascii	"__uint64_t\000"
 2551      6E743634 
 2551      5F7400
 2552              	.LASF124:
 2553 0570 63756D75 		.ascii	"cumulative\000"
 2553      6C617469 
 2553      766500
 2554              	.LASF24:
 2555 057b 74726566 		.ascii	"trefs_t\000"
 2555      735F7400 
 2556              	.LASF100:
ARM GAS  /tmp/ccFdtjmc.s 			page 50


 2557 0583 52455345 		.ascii	"RESERVED0\000"
 2557      52564544 
 2557      3000
 2558              	.LASF150:
 2559 058d 63685F70 		.ascii	"ch_ptrsize\000"
 2559      74727369 
 2559      7A6500
 2560              	.LASF108:
 2561 0598 52455345 		.ascii	"RESERVED2\000"
 2561      52564544 
 2561      3200
 2562              	.LASF66:
 2563 05a2 76697274 		.ascii	"virtual_timer_t\000"
 2563      75616C5F 
 2563      74696D65 
 2563      725F7400 
 2564              	.LASF33:
 2565 05b2 705F7072 		.ascii	"p_prev\000"
 2565      657600
 2566              	.LASF25:
 2567 05b9 74707269 		.ascii	"tprio_t\000"
 2567      6F5F7400 
 2568              	.LASF96:
 2569 05c1 50435352 		.ascii	"PCSR\000"
 2569      00
 2570              	.LASF127:
 2571 05c6 6E5F6374 		.ascii	"n_ctxswc\000"
 2571      78737763 
 2571      00
 2572              	.LASF102:
 2573 05cf 4D41534B 		.ascii	"MASK1\000"
 2573      3100
 2574              	.LASF17:
 2575 05d5 696E7433 		.ascii	"int32_t\000"
 2575      325F7400 
 2576              	.LASF4:
 2577 05dd 756E7369 		.ascii	"unsigned char\000"
 2577      676E6564 
 2577      20636861 
 2577      7200
 2578              	.LASF113:
 2579 05eb 49544D5F 		.ascii	"ITM_RxBuffer\000"
 2579      52784275 
 2579      66666572 
 2579      00
 2580              	.LASF99:
 2581 05f8 46554E43 		.ascii	"FUNCTION0\000"
 2581      54494F4E 
 2581      3000
 2582              	.LASF103:
 2583 0602 46554E43 		.ascii	"FUNCTION1\000"
 2583      54494F4E 
 2583      3100
 2584              	.LASF107:
 2585 060c 46554E43 		.ascii	"FUNCTION2\000"
 2585      54494F4E 
 2585      3200
ARM GAS  /tmp/ccFdtjmc.s 			page 51


 2586              	.LASF111:
 2587 0616 46554E43 		.ascii	"FUNCTION3\000"
 2587      54494F4E 
 2587      3300
 2588              	.LASF5:
 2589 0620 73686F72 		.ascii	"short int\000"
 2589      7420696E 
 2589      7400
 2590              	.LASF40:
 2591 062a 705F7374 		.ascii	"p_state\000"
 2591      61746500 
 2592              	.LASF60:
 2593 0632 725F7072 		.ascii	"r_prio\000"
 2593      696F00
 2594              	.LASF137:
 2595 0639 65776D61 		.ascii	"ewmask\000"
 2595      736B00
 2596              	.LASF32:
 2597 0640 705F6E65 		.ascii	"p_next\000"
 2597      787400
 2598              	.LASF22:
 2599 0647 746D6F64 		.ascii	"tmode_t\000"
 2599      655F7400 
 2600              	.LASF162:
 2601 064f 63665F6F 		.ascii	"cf_off_preempt\000"
 2601      66665F70 
 2601      7265656D 
 2601      707400
 2602              	.LASF41:
 2603 065e 705F666C 		.ascii	"p_flags\000"
 2603      61677300 
 2604              	.LASF50:
 2605 0666 705F7374 		.ascii	"p_stats\000"
 2605      61747300 
 2606              	.LASF82:
 2607 066e 63685F73 		.ascii	"ch_system\000"
 2607      79737465 
 2607      6D00
 2608              	.LASF55:
 2609 0678 74687265 		.ascii	"threads_queue_t\000"
 2609      6164735F 
 2609      71756575 
 2609      655F7400 
 2610              	.LASF104:
 2611 0688 52455345 		.ascii	"RESERVED1\000"
 2611      52564544 
 2611      3100
 2612              	.LASF155:
 2613 0692 63665F6F 		.ascii	"cf_off_newer\000"
 2613      66665F6E 
 2613      65776572 
 2613      00
 2614              	.LASF138:
 2615 069f 63685F73 		.ascii	"ch_semaphore\000"
 2615      656D6170 
 2615      686F7265 
 2615      00
ARM GAS  /tmp/ccFdtjmc.s 			page 52


 2616              	.LASF46:
 2617 06ac 705F6570 		.ascii	"p_epending\000"
 2617      656E6469 
 2617      6E6700
 2618              	.LASF94:
 2619 06b7 4C535543 		.ascii	"LSUCNT\000"
 2619      4E5400
 2620              	.LASF18:
 2621 06be 75696E74 		.ascii	"uint32_t\000"
 2621      33325F74 
 2621      00
 2622              	.LASF153:
 2623 06c7 63665F6F 		.ascii	"cf_off_prio\000"
 2623      66665F70 
 2623      72696F00 
 2624              	.LASF59:
 2625 06d3 725F7175 		.ascii	"r_queue\000"
 2625      65756500 
 2626              	.LASF54:
 2627 06db 63685F74 		.ascii	"ch_threads_list\000"
 2627      68726561 
 2627      64735F6C 
 2627      69737400 
 2628              	.LASF148:
 2629 06eb 63685F73 		.ascii	"ch_size\000"
 2629      697A6500 
 2630              	.LASF167:
 2631 06f3 5F426F6F 		.ascii	"_Bool\000"
 2631      6C00
 2632              	.LASF12:
 2633 06f9 6C6F6E67 		.ascii	"long unsigned int\000"
 2633      20756E73 
 2633      69676E65 
 2633      6420696E 
 2633      7400
 2634              	.LASF145:
 2635 070b 63686172 		.ascii	"char\000"
 2635      00
 2636              	.LASF136:
 2637 0710 77746D74 		.ascii	"wtmtxp\000"
 2637      787000
 2638              	.LASF45:
 2639 0717 705F6D73 		.ascii	"p_msg\000"
 2639      6700
 2640              	.LASF7:
 2641 071d 5F5F7569 		.ascii	"__uint16_t\000"
 2641      6E743136 
 2641      5F7400
 2642              	.LASF31:
 2643 0728 74687265 		.ascii	"thread_t\000"
 2643      61645F74 
 2643      00
 2644              	.LASF179:
 2645 0731 706F7274 		.ascii	"port_rt_get_counter_value\000"
 2645      5F72745F 
 2645      6765745F 
 2645      636F756E 
ARM GAS  /tmp/ccFdtjmc.s 			page 53


 2645      7465725F 
 2646              	.LASF144:
 2647 074b 6D5F6E65 		.ascii	"m_next\000"
 2647      787400
 2648              	.LASF30:
 2649 0752 73797374 		.ascii	"systime_t\000"
 2649      696D655F 
 2649      7400
 2650              	.LASF48:
 2651 075c 705F7265 		.ascii	"p_realprio\000"
 2651      616C7072 
 2651      696F00
 2652              	.LASF65:
 2653 0767 76746675 		.ascii	"vtfunc_t\000"
 2653      6E635F74 
 2653      00
 2654              	.LASF11:
 2655 0770 5F5F7569 		.ascii	"__uint32_t\000"
 2655      6E743332 
 2655      5F7400
 2656              	.LASF78:
 2657 077b 70616E69 		.ascii	"panic_msg\000"
 2657      635F6D73 
 2657      6700
 2658              	.LASF119:
 2659 0785 6F666673 		.ascii	"offset\000"
 2659      657400
 2660              	.LASF117:
 2661 078c 636F6E74 		.ascii	"context\000"
 2661      65787400 
 2662              	.LASF112:
 2663 0794 4457545F 		.ascii	"DWT_Type\000"
 2663      54797065 
 2663      00
 2664              	.LASF67:
 2665 079d 63685F76 		.ascii	"ch_virtual_timer\000"
 2665      69727475 
 2665      616C5F74 
 2665      696D6572 
 2665      00
 2666              	.LASF20:
 2667 07ae 7274636E 		.ascii	"rtcnt_t\000"
 2667      745F7400 
 2668              	.LASF89:
 2669 07b6 4354524C 		.ascii	"CTRL\000"
 2669      00
 2670              	.LASF72:
 2671 07bb 76745F70 		.ascii	"vt_par\000"
 2671      617200
 2672              	.LASF97:
 2673 07c2 434F4D50 		.ascii	"COMP0\000"
 2673      3000
 2674              	.LASF154:
 2675 07c8 63665F6F 		.ascii	"cf_off_ctx\000"
 2675      66665F63 
 2675      747800
 2676              	.LASF141:
ARM GAS  /tmp/ccFdtjmc.s 			page 54


 2677 07d3 63685F6D 		.ascii	"ch_mutex\000"
 2677      75746578 
 2677      00
 2678              	.LASF42:
 2679 07dc 705F7265 		.ascii	"p_refs\000"
 2679      667300
 2680              	.LASF79:
 2681 07e3 6973725F 		.ascii	"isr_cnt\000"
 2681      636E7400 
 2682              	.LASF83:
 2683 07eb 726C6973 		.ascii	"rlist\000"
 2683      7400
 2684              	.LASF15:
 2685 07f1 75696E74 		.ascii	"uint8_t\000"
 2685      385F7400 
 2686              	.LASF95:
 2687 07f9 464F4C44 		.ascii	"FOLDCNT\000"
 2687      434E5400 
 2688              	.LASF51:
 2689 0801 74687265 		.ascii	"thread_reference_t\000"
 2689      61645F72 
 2689      65666572 
 2689      656E6365 
 2689      5F7400
 2690              	.LASF133:
 2691 0814 77746F62 		.ascii	"wtobjp\000"
 2691      6A7000
 2692              	.LASF38:
 2693 081b 705F6E61 		.ascii	"p_name\000"
 2693      6D6500
 2694              	.LASF177:
 2695 0822 2F686F6D 		.ascii	"/home/matt/Documents/fibre-link/header-detection/pc"
 2695      652F6D61 
 2695      74742F44 
 2695      6F63756D 
 2695      656E7473 
 2696 0855 622F7374 		.ascii	"b/stm32/firmware\000"
 2696      6D33322F 
 2696      6669726D 
 2696      77617265 
 2696      00
 2697              	.LASF149:
 2698 0866 63685F76 		.ascii	"ch_version\000"
 2698      65727369 
 2698      6F6E00
 2699              	.LASF128:
 2700 0871 6D5F6372 		.ascii	"m_crit_thd\000"
 2700      69745F74 
 2700      686400
 2701              	.LASF143:
 2702 087c 6D5F6F77 		.ascii	"m_owner\000"
 2702      6E657200 
 2703              	.LASF71:
 2704 0884 76745F66 		.ascii	"vt_func\000"
 2704      756E6300 
 2705              	.LASF174:
 2706 088c 5F746D5F 		.ascii	"_tm_init\000"
ARM GAS  /tmp/ccFdtjmc.s 			page 55


 2706      696E6974 
 2706      00
 2707              		.ident	"GCC: (GNU Tools for ARM Embedded Processors 6-2017-q2-update) 6.3.1 20170620 (release) [AR
ARM GAS  /tmp/ccFdtjmc.s 			page 56


DEFINED SYMBOLS
                            *ABS*:0000000000000000 chtm.c
     /tmp/ccFdtjmc.s:18     .text.port_rt_get_counter_value:0000000000000000 $t
     /tmp/ccFdtjmc.s:25     .text.port_rt_get_counter_value:0000000000000000 port_rt_get_counter_value
     /tmp/ccFdtjmc.s:42     .text.port_rt_get_counter_value:0000000000000008 $d
     /tmp/ccFdtjmc.s:47     .text.tm_stop:0000000000000000 $t
     /tmp/ccFdtjmc.s:54     .text.tm_stop:0000000000000000 tm_stop
     /tmp/ccFdtjmc.s:134    .text._tm_init:0000000000000000 $t
     /tmp/ccFdtjmc.s:142    .text._tm_init:0000000000000000 _tm_init
     /tmp/ccFdtjmc.s:195    .text.chTMObjectInit:0000000000000000 chTMObjectInit
     /tmp/ccFdtjmc.s:250    .text.chTMStartMeasurementX:0000000000000000 chTMStartMeasurementX
     /tmp/ccFdtjmc.s:285    .text.chTMStopMeasurementX:0000000000000000 chTMStopMeasurementX
     /tmp/ccFdtjmc.s:182    .text._tm_init:0000000000000034 $d
     /tmp/ccFdtjmc.s:187    .text.chTMObjectInit:0000000000000000 $t
     /tmp/ccFdtjmc.s:242    .text.chTMStartMeasurementX:0000000000000000 $t
     /tmp/ccFdtjmc.s:277    .text.chTMStopMeasurementX:0000000000000000 $t
     /tmp/ccFdtjmc.s:314    .text.chTMStopMeasurementX:0000000000000024 $d
     /tmp/ccFdtjmc.s:319    .text.chTMChainMeasurementToX:0000000000000000 $t
     /tmp/ccFdtjmc.s:327    .text.chTMChainMeasurementToX:0000000000000000 chTMChainMeasurementToX
                     .debug_frame:0000000000000010 $d

UNDEFINED SYMBOLS
ch
