ARM GAS  /tmp/ccCGAvJs.s 			page 1


   1              		.cpu cortex-m4
   2              		.eabi_attribute 27, 1
   3              		.eabi_attribute 28, 1
   4              		.eabi_attribute 20, 1
   5              		.eabi_attribute 21, 1
   6              		.eabi_attribute 23, 3
   7              		.eabi_attribute 24, 1
   8              		.eabi_attribute 25, 1
   9              		.eabi_attribute 26, 1
  10              		.eabi_attribute 30, 6
  11              		.eabi_attribute 34, 1
  12              		.eabi_attribute 18, 4
  13              		.file	"crt1.c"
  14              		.text
  15              	.Ltext0:
  16              		.cfi_sections	.debug_frame
  17              		.section	.rodata.ram_areas,"a",%progbits
  18              		.align	2
  19              		.type	ram_areas, %object
  20              		.size	ram_areas, 128
  21              	ram_areas:
  22 0000 00000000 		.word	__ram0_init_text__
  23 0004 00000000 		.word	__ram0_init__
  24 0008 00000000 		.word	__ram0_clear__
  25 000c 00000000 		.word	__ram0_noinit__
  26 0010 00000000 		.word	__ram1_init_text__
  27 0014 00000000 		.word	__ram1_init__
  28 0018 00000000 		.word	__ram1_clear__
  29 001c 00000000 		.word	__ram1_noinit__
  30 0020 00000000 		.word	__ram2_init_text__
  31 0024 00000000 		.word	__ram2_init__
  32 0028 00000000 		.word	__ram2_clear__
  33 002c 00000000 		.word	__ram2_noinit__
  34 0030 00000000 		.word	__ram3_init_text__
  35 0034 00000000 		.word	__ram3_init__
  36 0038 00000000 		.word	__ram3_clear__
  37 003c 00000000 		.word	__ram3_noinit__
  38 0040 00000000 		.word	__ram4_init_text__
  39 0044 00000000 		.word	__ram4_init__
  40 0048 00000000 		.word	__ram4_clear__
  41 004c 00000000 		.word	__ram4_noinit__
  42 0050 00000000 		.word	__ram5_init_text__
  43 0054 00000000 		.word	__ram5_init__
  44 0058 00000000 		.word	__ram5_clear__
  45 005c 00000000 		.word	__ram5_noinit__
  46 0060 00000000 		.word	__ram6_init_text__
  47 0064 00000000 		.word	__ram6_init__
  48 0068 00000000 		.word	__ram6_clear__
  49 006c 00000000 		.word	__ram6_noinit__
  50 0070 00000000 		.word	__ram7_init_text__
  51 0074 00000000 		.word	__ram7_init__
  52 0078 00000000 		.word	__ram7_clear__
  53 007c 00000000 		.word	__ram7_noinit__
  54              		.section	.text.__core_init,"ax",%progbits
  55              		.align	1
  56              		.p2align 4,,15
  57              		.weak	__core_init
ARM GAS  /tmp/ccCGAvJs.s 			page 2


  58              		.syntax unified
  59              		.thumb
  60              		.thumb_func
  61              		.fpu fpv4-sp-d16
  62              		.type	__core_init, %function
  63              	__core_init:
  64              	.LFB123:
  65              		.file 1 "../ChibiOS/os/common/ports/ARMCMx/compilers/GCC/crt1.c"
  66              		.loc 1 136 0
  67              		.cfi_startproc
  68              		@ args = 0, pretend = 0, frame = 0
  69              		@ frame_needed = 0, uses_anonymous_args = 0
  70              		@ link register save eliminated.
  71              		.loc 1 142 0
  72 0000 00BF     		nop
  73 0002 7047     		bx	lr
  74              		.cfi_endproc
  75              	.LFE123:
  76              		.size	__core_init, .-__core_init
  77              		.section	.text.__early_init,"ax",%progbits
  78              		.align	1
  79              		.p2align 4,,15
  80              		.weak	__early_init
  81              		.syntax unified
  82              		.thumb
  83              		.thumb_func
  84              		.fpu fpv4-sp-d16
  85              		.type	__early_init, %function
  86              	__early_init:
  87              	.LFB124:
  88              		.loc 1 155 0
  89              		.cfi_startproc
  90              		@ args = 0, pretend = 0, frame = 0
  91              		@ frame_needed = 0, uses_anonymous_args = 0
  92              		@ link register save eliminated.
  93              		.loc 1 155 0
  94 0000 00BF     		nop
  95 0002 7047     		bx	lr
  96              		.cfi_endproc
  97              	.LFE124:
  98              		.size	__early_init, .-__early_init
  99              		.section	.text.__late_init,"ax",%progbits
 100              		.align	1
 101              		.p2align 4,,15
 102              		.weak	__late_init
 103              		.syntax unified
 104              		.thumb
 105              		.thumb_func
 106              		.fpu fpv4-sp-d16
 107              		.type	__late_init, %function
 108              	__late_init:
 109              	.LFB125:
 110              		.loc 1 169 0
 111              		.cfi_startproc
 112              		@ args = 0, pretend = 0, frame = 0
 113              		@ frame_needed = 0, uses_anonymous_args = 0
 114              		@ link register save eliminated.
ARM GAS  /tmp/ccCGAvJs.s 			page 3


 115              		.loc 1 169 0
 116 0000 00BF     		nop
 117 0002 7047     		bx	lr
 118              		.cfi_endproc
 119              	.LFE125:
 120              		.size	__late_init, .-__late_init
 121              		.section	.text.__default_exit,"ax",%progbits
 122              		.align	1
 123              		.p2align 4,,15
 124              		.weak	__default_exit
 125              		.syntax unified
 126              		.thumb
 127              		.thumb_func
 128              		.fpu fpv4-sp-d16
 129              		.type	__default_exit, %function
 130              	__default_exit:
 131              	.LFB126:
 132              		.loc 1 182 0
 133              		.cfi_startproc
 134              		@ args = 0, pretend = 0, frame = 0
 135              		@ frame_needed = 0, uses_anonymous_args = 0
 136              		@ link register save eliminated.
 137              	.L5:
 138              		.loc 1 185 0 discriminator 1
 139 0000 FEE7     		b	.L5
 140              		.cfi_endproc
 141              	.LFE126:
 142              		.size	__default_exit, .-__default_exit
 143 0002 00BF     		.section	.text.__init_ram_areas,"ax",%progbits
 144              		.align	1
 145              		.p2align 4,,15
 146              		.global	__init_ram_areas
 147              		.syntax unified
 148              		.thumb
 149              		.thumb_func
 150              		.fpu fpv4-sp-d16
 151              		.type	__init_ram_areas, %function
 152              	__init_ram_areas:
 153              	.LFB127:
 154              		.loc 1 192 0
 155              		.cfi_startproc
 156              		@ args = 0, pretend = 0, frame = 16
 157              		@ frame_needed = 0, uses_anonymous_args = 0
 158              		@ link register save eliminated.
 159 0000 84B0     		sub	sp, sp, #16
 160              		.cfi_def_cfa_offset 16
 161              		.loc 1 194 0
 162 0002 174B     		ldr	r3, .L12
 163 0004 0393     		str	r3, [sp, #12]
 164              	.L11:
 165              	.LBB2:
 166              		.loc 1 197 0
 167 0006 039B     		ldr	r3, [sp, #12]
 168 0008 1B68     		ldr	r3, [r3]
 169 000a 0293     		str	r3, [sp, #8]
 170              		.loc 1 198 0
 171 000c 039B     		ldr	r3, [sp, #12]
ARM GAS  /tmp/ccCGAvJs.s 			page 4


 172 000e 5B68     		ldr	r3, [r3, #4]
 173 0010 0193     		str	r3, [sp, #4]
 174              		.loc 1 201 0
 175 0012 09E0     		b	.L7
 176              	.L8:
 177              		.loc 1 202 0
 178 0014 029B     		ldr	r3, [sp, #8]
 179 0016 1A68     		ldr	r2, [r3]
 180 0018 019B     		ldr	r3, [sp, #4]
 181 001a 1A60     		str	r2, [r3]
 182              		.loc 1 203 0
 183 001c 019B     		ldr	r3, [sp, #4]
 184 001e 0433     		adds	r3, r3, #4
 185 0020 0193     		str	r3, [sp, #4]
 186              		.loc 1 204 0
 187 0022 029B     		ldr	r3, [sp, #8]
 188 0024 0433     		adds	r3, r3, #4
 189 0026 0293     		str	r3, [sp, #8]
 190              	.L7:
 191              		.loc 1 201 0
 192 0028 039B     		ldr	r3, [sp, #12]
 193 002a 9A68     		ldr	r2, [r3, #8]
 194 002c 019B     		ldr	r3, [sp, #4]
 195 002e 9A42     		cmp	r2, r3
 196 0030 F0D8     		bhi	.L8
 197              		.loc 1 208 0
 198 0032 05E0     		b	.L9
 199              	.L10:
 200              		.loc 1 209 0
 201 0034 019B     		ldr	r3, [sp, #4]
 202 0036 0022     		movs	r2, #0
 203 0038 1A60     		str	r2, [r3]
 204              		.loc 1 210 0
 205 003a 019B     		ldr	r3, [sp, #4]
 206 003c 0433     		adds	r3, r3, #4
 207 003e 0193     		str	r3, [sp, #4]
 208              	.L9:
 209              		.loc 1 208 0
 210 0040 039B     		ldr	r3, [sp, #12]
 211 0042 DA68     		ldr	r2, [r3, #12]
 212 0044 019B     		ldr	r3, [sp, #4]
 213 0046 9A42     		cmp	r2, r3
 214 0048 F4D8     		bhi	.L10
 215              		.loc 1 212 0
 216 004a 039B     		ldr	r3, [sp, #12]
 217 004c 1033     		adds	r3, r3, #16
 218 004e 0393     		str	r3, [sp, #12]
 219              	.LBE2:
 220              		.loc 1 214 0
 221 0050 039B     		ldr	r3, [sp, #12]
 222 0052 044A     		ldr	r2, .L12+4
 223 0054 9342     		cmp	r3, r2
 224 0056 D6D3     		bcc	.L11
 225              		.loc 1 216 0
 226 0058 00BF     		nop
 227 005a 04B0     		add	sp, sp, #16
 228              		.cfi_def_cfa_offset 0
ARM GAS  /tmp/ccCGAvJs.s 			page 5


 229              		@ sp needed
 230 005c 7047     		bx	lr
 231              	.L13:
 232 005e 00BF     		.align	2
 233              	.L12:
 234 0060 00000000 		.word	ram_areas
 235 0064 80000000 		.word	ram_areas+128
 236              		.cfi_endproc
 237              	.LFE127:
 238              		.size	__init_ram_areas, .-__init_ram_areas
 239              		.text
 240              	.Letext0:
 241              		.file 2 "/usr/arm-none-eabi/include/machine/_default_types.h"
 242              		.file 3 "/usr/arm-none-eabi/include/sys/_stdint.h"
 243              		.file 4 "../ChibiOS/os/ext/CMSIS/include/core_cm4.h"
 244              		.file 5 "../ChibiOS/os/ext/CMSIS/ST/STM32F4xx/system_stm32f4xx.h"