ARM GAS  /tmp/cctT5lLv.s 			page 1


   1              		.cpu cortex-m4
   2              		.eabi_attribute 27, 1
   3              		.eabi_attribute 28, 1
   4              		.eabi_attribute 20, 1
   5              		.eabi_attribute 21, 1
   6              		.eabi_attribute 23, 3
   7              		.eabi_attribute 24, 1
   8              		.eabi_attribute 25, 1
   9              		.eabi_attribute 26, 1
  10              		.eabi_attribute 30, 6
  11              		.eabi_attribute 34, 1
  12              		.eabi_attribute 18, 4
  13              		.file	"ext_lld.c"
  14              		.text
  15              	.Ltext0:
  16              		.cfi_sections	.debug_frame
  17              		.global	EXTD1
  18              		.section	.bss.EXTD1,"aw",%nobits
  19              		.align	2
  20              		.type	EXTD1, %object
  21              		.size	EXTD1, 8
  22              	EXTD1:
  23 0000 00000000 		.space	8
  23      00000000 
  24              		.section	.text.ext_lld_init,"ax",%progbits
  25              		.align	1
  26              		.p2align 4,,15
  27              		.global	ext_lld_init
  28              		.syntax unified
  29              		.thumb
  30              		.thumb_func
  31              		.fpu fpv4-sp-d16
  32              		.type	ext_lld_init, %function
  33              	ext_lld_init:
  34              	.LFB268:
  35              		.file 1 "../ChibiOS/os/hal/ports/STM32/LLD/EXTIv1/ext_lld.c"
  36              		.loc 1 72 0
  37              		.cfi_startproc
  38              		@ args = 0, pretend = 0, frame = 0
  39              		@ frame_needed = 0, uses_anonymous_args = 0
  40 0000 08B5     		push	{r3, lr}
  41              		.cfi_def_cfa_offset 8
  42              		.cfi_offset 3, -8
  43              		.cfi_offset 14, -4
  44              		.loc 1 75 0
  45 0002 0248     		ldr	r0, .L2
  46 0004 FFF7FEFF 		bl	extObjectInit
  47              		.loc 1 76 0
  48 0008 00BF     		nop
  49 000a 08BD     		pop	{r3, pc}
  50              	.L3:
  51              		.align	2
  52              	.L2:
  53 000c 00000000 		.word	EXTD1
  54              		.cfi_endproc
  55              	.LFE268:
  56              		.size	ext_lld_init, .-ext_lld_init
ARM GAS  /tmp/cctT5lLv.s 			page 2


  57              		.section	.text.ext_lld_start,"ax",%progbits
  58              		.align	1
  59              		.p2align 4,,15
  60              		.global	ext_lld_start
  61              		.syntax unified
  62              		.thumb
  63              		.thumb_func
  64              		.fpu fpv4-sp-d16
  65              		.type	ext_lld_start, %function
  66              	ext_lld_start:
  67              	.LFB269:
  68              		.loc 1 85 0
  69              		.cfi_startproc
  70              		@ args = 0, pretend = 0, frame = 16
  71              		@ frame_needed = 0, uses_anonymous_args = 0
  72 0000 00B5     		push	{lr}
  73              		.cfi_def_cfa_offset 4
  74              		.cfi_offset 14, -4
  75 0002 85B0     		sub	sp, sp, #20
  76              		.cfi_def_cfa_offset 24
  77 0004 0190     		str	r0, [sp, #4]
  78              		.loc 1 88 0
  79 0006 019B     		ldr	r3, [sp, #4]
  80 0008 1B78     		ldrb	r3, [r3]	@ zero_extendqisi2
  81 000a 012B     		cmp	r3, #1
  82 000c 01D1     		bne	.L5
  83              		.loc 1 89 0
  84 000e FFF7FEFF 		bl	ext_lld_exti_irq_enable
  85              	.L5:
  86              		.loc 1 92 0
  87 0012 0023     		movs	r3, #0
  88 0014 0393     		str	r3, [sp, #12]
  89 0016 14E0     		b	.L6
  90              	.L9:
  91              		.loc 1 93 0
  92 0018 019B     		ldr	r3, [sp, #4]
  93 001a 5B68     		ldr	r3, [r3, #4]
  94 001c 039A     		ldr	r2, [sp, #12]
  95 001e 53F83230 		ldr	r3, [r3, r2, lsl #3]
  96 0022 03F00403 		and	r3, r3, #4
  97 0026 002B     		cmp	r3, #0
  98 0028 04D0     		beq	.L7
  99              		.loc 1 94 0
 100 002a 0399     		ldr	r1, [sp, #12]
 101 002c 0198     		ldr	r0, [sp, #4]
 102 002e FFF7FEFF 		bl	ext_lld_channel_enable
 103 0032 03E0     		b	.L8
 104              	.L7:
 105              		.loc 1 96 0
 106 0034 0399     		ldr	r1, [sp, #12]
 107 0036 0198     		ldr	r0, [sp, #4]
 108 0038 FFF7FEFF 		bl	ext_lld_channel_disable
 109              	.L8:
 110              		.loc 1 92 0 discriminator 2
 111 003c 039B     		ldr	r3, [sp, #12]
 112 003e 0133     		adds	r3, r3, #1
 113 0040 0393     		str	r3, [sp, #12]
ARM GAS  /tmp/cctT5lLv.s 			page 3


 114              	.L6:
 115              		.loc 1 92 0 is_stmt 0 discriminator 1
 116 0042 039B     		ldr	r3, [sp, #12]
 117 0044 162B     		cmp	r3, #22
 118 0046 E7D9     		bls	.L9
 119              		.loc 1 97 0 is_stmt 1
 120 0048 00BF     		nop
 121 004a 05B0     		add	sp, sp, #20
 122              		.cfi_def_cfa_offset 4
 123              		@ sp needed
 124 004c 5DF804FB 		ldr	pc, [sp], #4
 125              		.cfi_endproc
 126              	.LFE269:
 127              		.size	ext_lld_start, .-ext_lld_start
 128              		.section	.text.ext_lld_stop,"ax",%progbits
 129              		.align	1
 130              		.p2align 4,,15
 131              		.global	ext_lld_stop
 132              		.syntax unified
 133              		.thumb
 134              		.thumb_func
 135              		.fpu fpv4-sp-d16
 136              		.type	ext_lld_stop, %function
 137              	ext_lld_stop:
 138              	.LFB270:
 139              		.loc 1 106 0
 140              		.cfi_startproc
 141              		@ args = 0, pretend = 0, frame = 8
 142              		@ frame_needed = 0, uses_anonymous_args = 0
 143 0000 00B5     		push	{lr}
 144              		.cfi_def_cfa_offset 4
 145              		.cfi_offset 14, -4
 146 0002 83B0     		sub	sp, sp, #12
 147              		.cfi_def_cfa_offset 16
 148 0004 0190     		str	r0, [sp, #4]
 149              		.loc 1 108 0
 150 0006 019B     		ldr	r3, [sp, #4]
 151 0008 1B78     		ldrb	r3, [r3]	@ zero_extendqisi2
 152 000a 022B     		cmp	r3, #2
 153 000c 01D1     		bne	.L11
 154              		.loc 1 109 0
 155 000e FFF7FEFF 		bl	ext_lld_exti_irq_disable
 156              	.L11:
 157              		.loc 1 111 0
 158 0012 074B     		ldr	r3, .L12
 159 0014 0022     		movs	r2, #0
 160 0016 5A60     		str	r2, [r3, #4]
 161              		.loc 1 112 0
 162 0018 054B     		ldr	r3, .L12
 163 001a 0022     		movs	r2, #0
 164 001c 1A60     		str	r2, [r3]
 165              		.loc 1 113 0
 166 001e 044B     		ldr	r3, .L12
 167 0020 4FF0FF32 		mov	r2, #-1
 168 0024 5A61     		str	r2, [r3, #20]
 169              		.loc 1 118 0
 170 0026 00BF     		nop
ARM GAS  /tmp/cctT5lLv.s 			page 4


 171 0028 03B0     		add	sp, sp, #12
 172              		.cfi_def_cfa_offset 4
 173              		@ sp needed
 174 002a 5DF804FB 		ldr	pc, [sp], #4
 175              	.L13:
 176 002e 00BF     		.align	2
 177              	.L12:
 178 0030 003C0140 		.word	1073822720
 179              		.cfi_endproc
 180              	.LFE270:
 181              		.size	ext_lld_stop, .-ext_lld_stop
 182              		.section	.text.ext_lld_channel_enable,"ax",%progbits
 183              		.align	1
 184              		.p2align 4,,15
 185              		.global	ext_lld_channel_enable
 186              		.syntax unified
 187              		.thumb
 188              		.thumb_func
 189              		.fpu fpv4-sp-d16
 190              		.type	ext_lld_channel_enable, %function
 191              	ext_lld_channel_enable:
 192              	.LFB271:
 193              		.loc 1 128 0
 194              		.cfi_startproc
 195              		@ args = 0, pretend = 0, frame = 24
 196              		@ frame_needed = 0, uses_anonymous_args = 0
 197              		@ link register save eliminated.
 198 0000 86B0     		sub	sp, sp, #24
 199              		.cfi_def_cfa_offset 24
 200 0002 0190     		str	r0, [sp, #4]
 201 0004 0091     		str	r1, [sp]
 202              		.loc 1 129 0
 203 0006 009B     		ldr	r3, [sp]
 204 0008 03F01F03 		and	r3, r3, #31
 205 000c 0122     		movs	r2, #1
 206 000e 02FA03F3 		lsl	r3, r2, r3
 207 0012 0593     		str	r3, [sp, #20]
 208              		.loc 1 132 0
 209 0014 009B     		ldr	r3, [sp]
 210 0016 0F2B     		cmp	r3, #15
 211 0018 28D8     		bhi	.L22
 212              	.LBB2:
 213              		.loc 1 133 0
 214 001a 009B     		ldr	r3, [sp]
 215 001c 9B08     		lsrs	r3, r3, #2
 216 001e 0493     		str	r3, [sp, #16]
 217              		.loc 1 134 0
 218 0020 009B     		ldr	r3, [sp]
 219 0022 03F00303 		and	r3, r3, #3
 220 0026 9B00     		lsls	r3, r3, #2
 221 0028 0F22     		movs	r2, #15
 222 002a 02FA03F3 		lsl	r3, r2, r3
 223 002e DB43     		mvns	r3, r3
 224 0030 0393     		str	r3, [sp, #12]
 225              		.loc 1 135 0
 226 0032 019B     		ldr	r3, [sp, #4]
 227 0034 5B68     		ldr	r3, [r3, #4]
ARM GAS  /tmp/cctT5lLv.s 			page 5


 228 0036 009A     		ldr	r2, [sp]
 229 0038 53F83230 		ldr	r3, [r3, r2, lsl #3]
 230              		.loc 1 136 0
 231 003c 1B09     		lsrs	r3, r3, #4
 232 003e 03F00F02 		and	r2, r3, #15
 233              		.loc 1 137 0
 234 0042 009B     		ldr	r3, [sp]
 235 0044 03F00303 		and	r3, r3, #3
 236 0048 9B00     		lsls	r3, r3, #2
 237              		.loc 1 135 0
 238 004a 02FA03F3 		lsl	r3, r2, r3
 239 004e 0293     		str	r3, [sp, #8]
 240              		.loc 1 142 0
 241 0050 3049     		ldr	r1, .L23
 242 0052 304A     		ldr	r2, .L23
 243 0054 049B     		ldr	r3, [sp, #16]
 244 0056 0233     		adds	r3, r3, #2
 245 0058 52F82320 		ldr	r2, [r2, r3, lsl #2]
 246 005c 039B     		ldr	r3, [sp, #12]
 247 005e 1A40     		ands	r2, r2, r3
 248 0060 029B     		ldr	r3, [sp, #8]
 249 0062 1A43     		orrs	r2, r2, r3
 250 0064 049B     		ldr	r3, [sp, #16]
 251 0066 0233     		adds	r3, r3, #2
 252 0068 41F82320 		str	r2, [r1, r3, lsl #2]
 253              	.L22:
 254              	.LBE2:
 255              		.loc 1 155 0
 256 006c 019B     		ldr	r3, [sp, #4]
 257 006e 5B68     		ldr	r3, [r3, #4]
 258 0070 009A     		ldr	r2, [sp]
 259 0072 53F83230 		ldr	r3, [r3, r2, lsl #3]
 260 0076 03F00103 		and	r3, r3, #1
 261 007a 002B     		cmp	r3, #0
 262 007c 06D0     		beq	.L16
 263              		.loc 1 156 0
 264 007e 2649     		ldr	r1, .L23+4
 265 0080 254B     		ldr	r3, .L23+4
 266 0082 9A68     		ldr	r2, [r3, #8]
 267 0084 059B     		ldr	r3, [sp, #20]
 268 0086 1343     		orrs	r3, r3, r2
 269 0088 8B60     		str	r3, [r1, #8]
 270 008a 06E0     		b	.L17
 271              	.L16:
 272              		.loc 1 158 0
 273 008c 2249     		ldr	r1, .L23+4
 274 008e 224B     		ldr	r3, .L23+4
 275 0090 9A68     		ldr	r2, [r3, #8]
 276 0092 059B     		ldr	r3, [sp, #20]
 277 0094 DB43     		mvns	r3, r3
 278 0096 1340     		ands	r3, r3, r2
 279 0098 8B60     		str	r3, [r1, #8]
 280              	.L17:
 281              		.loc 1 159 0
 282 009a 019B     		ldr	r3, [sp, #4]
 283 009c 5B68     		ldr	r3, [r3, #4]
 284 009e 009A     		ldr	r2, [sp]
ARM GAS  /tmp/cctT5lLv.s 			page 6


 285 00a0 53F83230 		ldr	r3, [r3, r2, lsl #3]
 286 00a4 03F00203 		and	r3, r3, #2
 287 00a8 002B     		cmp	r3, #0
 288 00aa 06D0     		beq	.L18
 289              		.loc 1 160 0
 290 00ac 1A49     		ldr	r1, .L23+4
 291 00ae 1A4B     		ldr	r3, .L23+4
 292 00b0 DA68     		ldr	r2, [r3, #12]
 293 00b2 059B     		ldr	r3, [sp, #20]
 294 00b4 1343     		orrs	r3, r3, r2
 295 00b6 CB60     		str	r3, [r1, #12]
 296 00b8 06E0     		b	.L19
 297              	.L18:
 298              		.loc 1 162 0
 299 00ba 1749     		ldr	r1, .L23+4
 300 00bc 164B     		ldr	r3, .L23+4
 301 00be DA68     		ldr	r2, [r3, #12]
 302 00c0 059B     		ldr	r3, [sp, #20]
 303 00c2 DB43     		mvns	r3, r3
 304 00c4 1340     		ands	r3, r3, r2
 305 00c6 CB60     		str	r3, [r1, #12]
 306              	.L19:
 307              		.loc 1 165 0
 308 00c8 019B     		ldr	r3, [sp, #4]
 309 00ca 5A68     		ldr	r2, [r3, #4]
 310 00cc 009B     		ldr	r3, [sp]
 311 00ce DB00     		lsls	r3, r3, #3
 312 00d0 1344     		add	r3, r3, r2
 313 00d2 5B68     		ldr	r3, [r3, #4]
 314 00d4 002B     		cmp	r3, #0
 315 00d6 0DD0     		beq	.L20
 316              		.loc 1 166 0
 317 00d8 0F49     		ldr	r1, .L23+4
 318 00da 0F4B     		ldr	r3, .L23+4
 319 00dc 1A68     		ldr	r2, [r3]
 320 00de 059B     		ldr	r3, [sp, #20]
 321 00e0 1343     		orrs	r3, r3, r2
 322 00e2 0B60     		str	r3, [r1]
 323              		.loc 1 167 0
 324 00e4 0C49     		ldr	r1, .L23+4
 325 00e6 0C4B     		ldr	r3, .L23+4
 326 00e8 5A68     		ldr	r2, [r3, #4]
 327 00ea 059B     		ldr	r3, [sp, #20]
 328 00ec DB43     		mvns	r3, r3
 329 00ee 1340     		ands	r3, r3, r2
 330 00f0 4B60     		str	r3, [r1, #4]
 331 00f2 0CE0     		b	.L14
 332              	.L20:
 333              		.loc 1 170 0
 334 00f4 0849     		ldr	r1, .L23+4
 335 00f6 084B     		ldr	r3, .L23+4
 336 00f8 5A68     		ldr	r2, [r3, #4]
 337 00fa 059B     		ldr	r3, [sp, #20]
 338 00fc 1343     		orrs	r3, r3, r2
 339 00fe 4B60     		str	r3, [r1, #4]
 340              		.loc 1 171 0
 341 0100 0549     		ldr	r1, .L23+4
ARM GAS  /tmp/cctT5lLv.s 			page 7


 342 0102 054B     		ldr	r3, .L23+4
 343 0104 1A68     		ldr	r2, [r3]
 344 0106 059B     		ldr	r3, [sp, #20]
 345 0108 DB43     		mvns	r3, r3
 346 010a 1340     		ands	r3, r3, r2
 347 010c 0B60     		str	r3, [r1]
 348              	.L14:
 349              		.loc 1 202 0
 350 010e 06B0     		add	sp, sp, #24
 351              		.cfi_def_cfa_offset 0
 352              		@ sp needed
 353 0110 7047     		bx	lr
 354              	.L24:
 355 0112 00BF     		.align	2
 356              	.L23:
 357 0114 00380140 		.word	1073821696
 358 0118 003C0140 		.word	1073822720
 359              		.cfi_endproc
 360              	.LFE271:
 361              		.size	ext_lld_channel_enable, .-ext_lld_channel_enable
 362              		.section	.text.ext_lld_channel_disable,"ax",%progbits
 363              		.align	1
 364              		.p2align 4,,15
 365              		.global	ext_lld_channel_disable
 366              		.syntax unified
 367              		.thumb
 368              		.thumb_func
 369              		.fpu fpv4-sp-d16
 370              		.type	ext_lld_channel_disable, %function
 371              	ext_lld_channel_disable:
 372              	.LFB272:
 373              		.loc 1 212 0
 374              		.cfi_startproc
 375              		@ args = 0, pretend = 0, frame = 16
 376              		@ frame_needed = 0, uses_anonymous_args = 0
 377              		@ link register save eliminated.
 378 0000 84B0     		sub	sp, sp, #16
 379              		.cfi_def_cfa_offset 16
 380 0002 0190     		str	r0, [sp, #4]
 381 0004 0091     		str	r1, [sp]
 382              		.loc 1 213 0
 383 0006 009B     		ldr	r3, [sp]
 384 0008 03F01F03 		and	r3, r3, #31
 385 000c 0122     		movs	r2, #1
 386 000e 02FA03F3 		lsl	r3, r2, r3
 387 0012 0393     		str	r3, [sp, #12]
 388              		.loc 1 220 0
 389 0014 1049     		ldr	r1, .L26
 390 0016 104B     		ldr	r3, .L26
 391 0018 1A68     		ldr	r2, [r3]
 392 001a 039B     		ldr	r3, [sp, #12]
 393 001c DB43     		mvns	r3, r3
 394 001e 1340     		ands	r3, r3, r2
 395 0020 0B60     		str	r3, [r1]
 396              		.loc 1 221 0
 397 0022 0D49     		ldr	r1, .L26
 398 0024 0C4B     		ldr	r3, .L26
ARM GAS  /tmp/cctT5lLv.s 			page 8


 399 0026 5A68     		ldr	r2, [r3, #4]
 400 0028 039B     		ldr	r3, [sp, #12]
 401 002a DB43     		mvns	r3, r3
 402 002c 1340     		ands	r3, r3, r2
 403 002e 4B60     		str	r3, [r1, #4]
 404              		.loc 1 222 0
 405 0030 0949     		ldr	r1, .L26
 406 0032 094B     		ldr	r3, .L26
 407 0034 9A68     		ldr	r2, [r3, #8]
 408 0036 039B     		ldr	r3, [sp, #12]
 409 0038 DB43     		mvns	r3, r3
 410 003a 1340     		ands	r3, r3, r2
 411 003c 8B60     		str	r3, [r1, #8]
 412              		.loc 1 223 0
 413 003e 0649     		ldr	r1, .L26
 414 0040 054B     		ldr	r3, .L26
 415 0042 DA68     		ldr	r2, [r3, #12]
 416 0044 039B     		ldr	r3, [sp, #12]
 417 0046 DB43     		mvns	r3, r3
 418 0048 1340     		ands	r3, r3, r2
 419 004a CB60     		str	r3, [r1, #12]
 420              		.loc 1 224 0
 421 004c 024A     		ldr	r2, .L26
 422 004e 039B     		ldr	r3, [sp, #12]
 423 0050 5361     		str	r3, [r2, #20]
 424              		.loc 1 235 0
 425 0052 00BF     		nop
 426 0054 04B0     		add	sp, sp, #16
 427              		.cfi_def_cfa_offset 0
 428              		@ sp needed
 429 0056 7047     		bx	lr
 430              	.L27:
 431              		.align	2
 432              	.L26:
 433 0058 003C0140 		.word	1073822720
 434              		.cfi_endproc
 435              	.LFE272:
 436              		.size	ext_lld_channel_disable, .-ext_lld_channel_disable
 437              		.text
 438              	.Letext0:
 439              		.file 2 "/usr/lib/gcc/arm-none-eabi/6.3.1/include/stddef.h"
 440              		.file 3 "/usr/arm-none-eabi/include/machine/_default_types.h"
 441              		.file 4 "/usr/arm-none-eabi/include/sys/_stdint.h"
 442              		.file 5 "../ChibiOS/os/rt/ports/ARMCMx/compilers/GCC/chtypes.h"
 443              		.file 6 "../ChibiOS/os/rt/include/chsystypes.h"
 444              		.file 7 "../ChibiOS/os/rt/include/chschd.h"
 445              		.file 8 "../ChibiOS/os/ext/CMSIS/include/core_cm4.h"
 446              		.file 9 "../ChibiOS/os/ext/CMSIS/ST/STM32F4xx/system_stm32f4xx.h"
 447              		.file 10 "../ChibiOS/os/ext/CMSIS/ST/STM32F4xx/stm32f437xx.h"
 448              		.file 11 "../ChibiOS/os/rt/ports/ARMCMx/chcore.h"
 449              		.file 12 "../ChibiOS/os/rt/ports/ARMCMx/chcore_v7m.h"
 450              		.file 13 "../ChibiOS/os/rt/include/chtm.h"
 451              		.file 14 "../ChibiOS/os/rt/include/chstats.h"
 452              		.file 15 "../ChibiOS/os/rt/include/chsem.h"
 453              		.file 16 "../ChibiOS/os/rt/include/chmtx.h"
 454              		.file 17 "../ChibiOS/os/rt/include/chregistry.h"
 455              		.file 18 "../ChibiOS/os/rt/include/chevents.h"
ARM GAS  /tmp/cctT5lLv.s 			page 9


 456              		.file 19 "../ChibiOS/os/rt/include/chqueues.h"
 457              		.file 20 "../ChibiOS/os/hal/ports/STM32/LLD/DMAv2/stm32_dma.h"
 458              		.file 21 "../ChibiOS/os/hal/ports/STM32/LLD/GPIOv2/pal_lld.h"
 459              		.file 22 "../ChibiOS/os/hal/include/ext.h"
 460              		.file 23 "../ChibiOS/os/hal/ports/STM32/LLD/EXTIv1/ext_lld.h"
 461              		.file 24 "../ChibiOS/os/hal/include/gpt.h"
 462              		.file 25 "../ChibiOS/os/hal/ports/STM32/LLD/TIMv1/gpt_lld.h"
 463              		.file 26 "../ChibiOS/os/hal/ports/STM32/LLD/TIMv1/stm32_tim.h"
 464              		.file 27 "../ChibiOS/os/hal/include/pwm.h"
 465              		.file 28 "../ChibiOS/os/hal/ports/STM32/LLD/TIMv1/pwm_lld.h"
 466              		.file 29 "../ChibiOS/os/hal/include/serial.h"
 467              		.file 30 "../ChibiOS/os/hal/ports/STM32/LLD/USARTv1/serial_lld.h"
 468              		.file 31 "../ChibiOS/os/hal/include/usb.h"
 469              		.file 32 "../ChibiOS/os/hal/ports/STM32/LLD/OTGv1/usb_lld.h"
 470              		.file 33 "../ChibiOS/os/hal/ports/STM32/LLD/OTGv1/stm32_otg.h"