ARM GAS  /tmp/cctSZcYg.s 			page 1


   1              		.cpu cortex-m4
   2              		.eabi_attribute 27, 1
   3              		.eabi_attribute 28, 1
   4              		.eabi_attribute 20, 1
   5              		.eabi_attribute 21, 1
   6              		.eabi_attribute 23, 3
   7              		.eabi_attribute 24, 1
   8              		.eabi_attribute 25, 1
   9              		.eabi_attribute 26, 1
  10              		.eabi_attribute 30, 6
  11              		.eabi_attribute 34, 1
  12              		.eabi_attribute 18, 4
  13              		.file	"gpt_lld.c"
  14              		.text
  15              	.Ltext0:
  16              		.cfi_sections	.debug_frame
  17              		.global	GPTD5
  18              		.section	.bss.GPTD5,"aw",%nobits
  19              		.align	2
  20              		.type	GPTD5, %object
  21              		.size	GPTD5, 16
  22              	GPTD5:
  23 0000 00000000 		.space	16
  23      00000000 
  23      00000000 
  23      00000000 
  24              		.section	.text.Vector108,"ax",%progbits
  25              		.align	1
  26              		.p2align 4,,15
  27              		.global	Vector108
  28              		.syntax unified
  29              		.thumb
  30              		.thumb_func
  31              		.fpu fpv4-sp-d16
  32              		.type	Vector108, %function
  33              	Vector108:
  34              	.LFB268:
  35              		.file 1 "../ChibiOS/os/hal/ports/STM32/LLD/TIMv1/gpt_lld.c"
  36              		.loc 1 239 0
  37              		.cfi_startproc
  38              		@ args = 0, pretend = 0, frame = 0
  39              		@ frame_needed = 0, uses_anonymous_args = 0
  40 0000 08B5     		push	{r3, lr}
  41              		.cfi_def_cfa_offset 8
  42              		.cfi_offset 3, -8
  43              		.cfi_offset 14, -4
  44              		.loc 1 241 0
  45 0002 FFF7FEFF 		bl	_stats_increase_irq
  46 0006 FFF7FEFF 		bl	_dbg_check_enter_isr
  47              		.loc 1 243 0
  48 000a 0448     		ldr	r0, .L2
  49 000c FFF7FEFF 		bl	gpt_lld_serve_interrupt
  50              		.loc 1 245 0
  51 0010 FFF7FEFF 		bl	_dbg_check_leave_isr
  52 0014 FFF7FEFF 		bl	_port_irq_epilogue
  53              		.loc 1 246 0
  54 0018 00BF     		nop
ARM GAS  /tmp/cctSZcYg.s 			page 2


  55 001a 08BD     		pop	{r3, pc}
  56              	.L3:
  57              		.align	2
  58              	.L2:
  59 001c 00000000 		.word	GPTD5
  60              		.cfi_endproc
  61              	.LFE268:
  62              		.size	Vector108, .-Vector108
  63              		.section	.text.gpt_lld_init,"ax",%progbits
  64              		.align	1
  65              		.p2align 4,,15
  66              		.global	gpt_lld_init
  67              		.syntax unified
  68              		.thumb
  69              		.thumb_func
  70              		.fpu fpv4-sp-d16
  71              		.type	gpt_lld_init, %function
  72              	gpt_lld_init:
  73              	.LFB269:
  74              		.loc 1 406 0
  75              		.cfi_startproc
  76              		@ args = 0, pretend = 0, frame = 0
  77              		@ frame_needed = 0, uses_anonymous_args = 0
  78 0000 08B5     		push	{r3, lr}
  79              		.cfi_def_cfa_offset 8
  80              		.cfi_offset 3, -8
  81              		.cfi_offset 14, -4
  82              		.loc 1 434 0
  83 0002 044B     		ldr	r3, .L5
  84 0004 044A     		ldr	r2, .L5+4
  85 0006 DA60     		str	r2, [r3, #12]
  86              		.loc 1 435 0
  87 0008 0248     		ldr	r0, .L5
  88 000a FFF7FEFF 		bl	gptObjectInit
  89              		.loc 1 479 0
  90 000e 00BF     		nop
  91 0010 08BD     		pop	{r3, pc}
  92              	.L6:
  93 0012 00BF     		.align	2
  94              	.L5:
  95 0014 00000000 		.word	GPTD5
  96 0018 000C0040 		.word	1073744896
  97              		.cfi_endproc
  98              	.LFE269:
  99              		.size	gpt_lld_init, .-gpt_lld_init
 100              		.section	.text.gpt_lld_start,"ax",%progbits
 101              		.align	1
 102              		.p2align 4,,15
 103              		.global	gpt_lld_start
 104              		.syntax unified
 105              		.thumb
 106              		.thumb_func
 107              		.fpu fpv4-sp-d16
 108              		.type	gpt_lld_start, %function
 109              	gpt_lld_start:
 110              	.LFB270:
 111              		.loc 1 488 0
ARM GAS  /tmp/cctSZcYg.s 			page 3


 112              		.cfi_startproc
 113              		@ args = 0, pretend = 0, frame = 16
 114              		@ frame_needed = 0, uses_anonymous_args = 0
 115 0000 00B5     		push	{lr}
 116              		.cfi_def_cfa_offset 4
 117              		.cfi_offset 14, -4
 118 0002 85B0     		sub	sp, sp, #20
 119              		.cfi_def_cfa_offset 24
 120 0004 0190     		str	r0, [sp, #4]
 121              		.loc 1 491 0
 122 0006 019B     		ldr	r3, [sp, #4]
 123 0008 1B78     		ldrb	r3, [r3]	@ zero_extendqisi2
 124 000a 012B     		cmp	r3, #1
 125 000c 19D1     		bne	.L8
 126              		.loc 1 554 0
 127 000e 019B     		ldr	r3, [sp, #4]
 128 0010 294A     		ldr	r2, .L10
 129 0012 9342     		cmp	r3, r2
 130 0014 15D1     		bne	.L8
 131              		.loc 1 555 0
 132 0016 294A     		ldr	r2, .L10+4
 133 0018 284B     		ldr	r3, .L10+4
 134 001a 1B6C     		ldr	r3, [r3, #64]
 135 001c 43F00803 		orr	r3, r3, #8
 136 0020 1364     		str	r3, [r2, #64]
 137              		.loc 1 556 0
 138 0022 264A     		ldr	r2, .L10+4
 139 0024 254B     		ldr	r3, .L10+4
 140 0026 1B6A     		ldr	r3, [r3, #32]
 141 0028 43F00803 		orr	r3, r3, #8
 142 002c 1362     		str	r3, [r2, #32]
 143 002e 234B     		ldr	r3, .L10+4
 144 0030 0022     		movs	r2, #0
 145 0032 1A62     		str	r2, [r3, #32]
 146              		.loc 1 558 0
 147 0034 0721     		movs	r1, #7
 148 0036 3220     		movs	r0, #50
 149 0038 FFF7FEFF 		bl	nvicEnableVector
 150              		.loc 1 563 0
 151 003c 019B     		ldr	r3, [sp, #4]
 152 003e 204A     		ldr	r2, .L10+8
 153 0040 9A60     		str	r2, [r3, #8]
 154              	.L8:
 155              		.loc 1 675 0
 156 0042 019B     		ldr	r3, [sp, #4]
 157 0044 9A68     		ldr	r2, [r3, #8]
 158 0046 019B     		ldr	r3, [sp, #4]
 159 0048 5B68     		ldr	r3, [r3, #4]
 160 004a 1B68     		ldr	r3, [r3]
 161 004c B2FBF3F3 		udiv	r3, r2, r3
 162 0050 9BB2     		uxth	r3, r3
 163 0052 013B     		subs	r3, r3, #1
 164 0054 ADF80E30 		strh	r3, [sp, #14]	@ movhi
 165              		.loc 1 676 0
 166 0058 BDF80E30 		ldrh	r3, [sp, #14]
 167 005c 0133     		adds	r3, r3, #1
 168 005e 1A46     		mov	r2, r3
ARM GAS  /tmp/cctSZcYg.s 			page 4


 169 0060 019B     		ldr	r3, [sp, #4]
 170 0062 5B68     		ldr	r3, [r3, #4]
 171 0064 1B68     		ldr	r3, [r3]
 172 0066 03FB02F2 		mul	r2, r3, r2
 173 006a 019B     		ldr	r3, [sp, #4]
 174 006c 9B68     		ldr	r3, [r3, #8]
 175 006e 9A42     		cmp	r2, r3
 176 0070 02D0     		beq	.L9
 177              		.loc 1 676 0 is_stmt 0 discriminator 2
 178 0072 1448     		ldr	r0, .L10+12
 179 0074 FFF7FEFF 		bl	chSysHalt
 180              	.L9:
 181              		.loc 1 680 0 is_stmt 1
 182 0078 019B     		ldr	r3, [sp, #4]
 183 007a DB68     		ldr	r3, [r3, #12]
 184 007c 0022     		movs	r2, #0
 185 007e 1A60     		str	r2, [r3]
 186              		.loc 1 681 0
 187 0080 019B     		ldr	r3, [sp, #4]
 188 0082 DB68     		ldr	r3, [r3, #12]
 189 0084 019A     		ldr	r2, [sp, #4]
 190 0086 5268     		ldr	r2, [r2, #4]
 191 0088 9268     		ldr	r2, [r2, #8]
 192 008a 5A60     		str	r2, [r3, #4]
 193              		.loc 1 682 0
 194 008c 019B     		ldr	r3, [sp, #4]
 195 008e DB68     		ldr	r3, [r3, #12]
 196 0090 BDF80E20 		ldrh	r2, [sp, #14]
 197 0094 9A62     		str	r2, [r3, #40]
 198              		.loc 1 683 0
 199 0096 019B     		ldr	r3, [sp, #4]
 200 0098 DB68     		ldr	r3, [r3, #12]
 201 009a 0022     		movs	r2, #0
 202 009c 1A61     		str	r2, [r3, #16]
 203              		.loc 1 684 0
 204 009e 019B     		ldr	r3, [sp, #4]
 205 00a0 DB68     		ldr	r3, [r3, #12]
 206 00a2 019A     		ldr	r2, [sp, #4]
 207 00a4 5268     		ldr	r2, [r2, #4]
 208 00a6 D268     		ldr	r2, [r2, #12]
 209 00a8 22F0FF02 		bic	r2, r2, #255
 210 00ac DA60     		str	r2, [r3, #12]
 211              		.loc 1 686 0
 212 00ae 00BF     		nop
 213 00b0 05B0     		add	sp, sp, #20
 214              		.cfi_def_cfa_offset 4
 215              		@ sp needed
 216 00b2 5DF804FB 		ldr	pc, [sp], #4
 217              	.L11:
 218 00b6 00BF     		.align	2
 219              	.L10:
 220 00b8 00000000 		.word	GPTD5
 221 00bc 00380240 		.word	1073887232
 222 00c0 00BD0105 		.word	84000000
 223 00c4 00000000 		.word	__func__.9035
 224              		.cfi_endproc
 225              	.LFE270:
ARM GAS  /tmp/cctSZcYg.s 			page 5


 226              		.size	gpt_lld_start, .-gpt_lld_start
 227              		.section	.text.gpt_lld_stop,"ax",%progbits
 228              		.align	1
 229              		.p2align 4,,15
 230              		.global	gpt_lld_stop
 231              		.syntax unified
 232              		.thumb
 233              		.thumb_func
 234              		.fpu fpv4-sp-d16
 235              		.type	gpt_lld_stop, %function
 236              	gpt_lld_stop:
 237              	.LFB271:
 238              		.loc 1 695 0
 239              		.cfi_startproc
 240              		@ args = 0, pretend = 0, frame = 8
 241              		@ frame_needed = 0, uses_anonymous_args = 0
 242 0000 00B5     		push	{lr}
 243              		.cfi_def_cfa_offset 4
 244              		.cfi_offset 14, -4
 245 0002 83B0     		sub	sp, sp, #12
 246              		.cfi_def_cfa_offset 16
 247 0004 0190     		str	r0, [sp, #4]
 248              		.loc 1 697 0
 249 0006 019B     		ldr	r3, [sp, #4]
 250 0008 1B78     		ldrb	r3, [r3]	@ zero_extendqisi2
 251 000a 022B     		cmp	r3, #2
 252 000c 18D1     		bne	.L14
 253              		.loc 1 698 0
 254 000e 019B     		ldr	r3, [sp, #4]
 255 0010 DB68     		ldr	r3, [r3, #12]
 256 0012 0022     		movs	r2, #0
 257 0014 1A60     		str	r2, [r3]
 258              		.loc 1 699 0
 259 0016 019B     		ldr	r3, [sp, #4]
 260 0018 DB68     		ldr	r3, [r3, #12]
 261 001a 0022     		movs	r2, #0
 262 001c DA60     		str	r2, [r3, #12]
 263              		.loc 1 700 0
 264 001e 019B     		ldr	r3, [sp, #4]
 265 0020 DB68     		ldr	r3, [r3, #12]
 266 0022 0022     		movs	r2, #0
 267 0024 1A61     		str	r2, [r3, #16]
 268              		.loc 1 739 0
 269 0026 019B     		ldr	r3, [sp, #4]
 270 0028 074A     		ldr	r2, .L15
 271 002a 9342     		cmp	r3, r2
 272 002c 08D1     		bne	.L14
 273              		.loc 1 741 0
 274 002e 3220     		movs	r0, #50
 275 0030 FFF7FEFF 		bl	nvicDisableVector
 276              		.loc 1 743 0
 277 0034 054A     		ldr	r2, .L15+4
 278 0036 054B     		ldr	r3, .L15+4
 279 0038 1B6C     		ldr	r3, [r3, #64]
 280 003a 23F00803 		bic	r3, r3, #8
 281 003e 1364     		str	r3, [r2, #64]
 282              	.L14:
ARM GAS  /tmp/cctSZcYg.s 			page 6


 283              		.loc 1 810 0
 284 0040 00BF     		nop
 285 0042 03B0     		add	sp, sp, #12
 286              		.cfi_def_cfa_offset 4
 287              		@ sp needed
 288 0044 5DF804FB 		ldr	pc, [sp], #4
 289              	.L16:
 290              		.align	2
 291              	.L15:
 292 0048 00000000 		.word	GPTD5
 293 004c 00380240 		.word	1073887232
 294              		.cfi_endproc
 295              	.LFE271:
 296              		.size	gpt_lld_stop, .-gpt_lld_stop
 297              		.section	.text.gpt_lld_start_timer,"ax",%progbits
 298              		.align	1
 299              		.p2align 4,,15
 300              		.global	gpt_lld_start_timer
 301              		.syntax unified
 302              		.thumb
 303              		.thumb_func
 304              		.fpu fpv4-sp-d16
 305              		.type	gpt_lld_start_timer, %function
 306              	gpt_lld_start_timer:
 307              	.LFB272:
 308              		.loc 1 820 0
 309              		.cfi_startproc
 310              		@ args = 0, pretend = 0, frame = 8
 311              		@ frame_needed = 0, uses_anonymous_args = 0
 312              		@ link register save eliminated.
 313 0000 82B0     		sub	sp, sp, #8
 314              		.cfi_def_cfa_offset 8
 315 0002 0190     		str	r0, [sp, #4]
 316 0004 0091     		str	r1, [sp]
 317              		.loc 1 822 0
 318 0006 019B     		ldr	r3, [sp, #4]
 319 0008 DB68     		ldr	r3, [r3, #12]
 320 000a 009A     		ldr	r2, [sp]
 321 000c DA62     		str	r2, [r3, #44]
 322              		.loc 1 823 0
 323 000e 019B     		ldr	r3, [sp, #4]
 324 0010 DB68     		ldr	r3, [r3, #12]
 325 0012 0122     		movs	r2, #1
 326 0014 5A61     		str	r2, [r3, #20]
 327              		.loc 1 824 0
 328 0016 019B     		ldr	r3, [sp, #4]
 329 0018 DB68     		ldr	r3, [r3, #12]
 330 001a 0022     		movs	r2, #0
 331 001c 5A62     		str	r2, [r3, #36]
 332              		.loc 1 829 0
 333 001e 019B     		ldr	r3, [sp, #4]
 334 0020 DB68     		ldr	r3, [r3, #12]
 335 0022 0022     		movs	r2, #0
 336 0024 1A61     		str	r2, [r3, #16]
 337              		.loc 1 830 0
 338 0026 019B     		ldr	r3, [sp, #4]
 339 0028 5B68     		ldr	r3, [r3, #4]
ARM GAS  /tmp/cctSZcYg.s 			page 7


 340 002a 5B68     		ldr	r3, [r3, #4]
 341 002c 002B     		cmp	r3, #0
 342 002e 07D0     		beq	.L18
 343              		.loc 1 831 0
 344 0030 019B     		ldr	r3, [sp, #4]
 345 0032 DB68     		ldr	r3, [r3, #12]
 346 0034 019A     		ldr	r2, [sp, #4]
 347 0036 D268     		ldr	r2, [r2, #12]
 348 0038 D268     		ldr	r2, [r2, #12]
 349 003a 42F00102 		orr	r2, r2, #1
 350 003e DA60     		str	r2, [r3, #12]
 351              	.L18:
 352              		.loc 1 832 0
 353 0040 019B     		ldr	r3, [sp, #4]
 354 0042 DB68     		ldr	r3, [r3, #12]
 355 0044 8522     		movs	r2, #133
 356 0046 1A60     		str	r2, [r3]
 357              		.loc 1 833 0
 358 0048 00BF     		nop
 359 004a 02B0     		add	sp, sp, #8
 360              		.cfi_def_cfa_offset 0
 361              		@ sp needed
 362 004c 7047     		bx	lr
 363              		.cfi_endproc
 364              	.LFE272:
 365              		.size	gpt_lld_start_timer, .-gpt_lld_start_timer
 366 004e 00BF     		.section	.text.gpt_lld_stop_timer,"ax",%progbits
 367              		.align	1
 368              		.p2align 4,,15
 369              		.global	gpt_lld_stop_timer
 370              		.syntax unified
 371              		.thumb
 372              		.thumb_func
 373              		.fpu fpv4-sp-d16
 374              		.type	gpt_lld_stop_timer, %function
 375              	gpt_lld_stop_timer:
 376              	.LFB273:
 377              		.loc 1 842 0
 378              		.cfi_startproc
 379              		@ args = 0, pretend = 0, frame = 8
 380              		@ frame_needed = 0, uses_anonymous_args = 0
 381              		@ link register save eliminated.
 382 0000 82B0     		sub	sp, sp, #8
 383              		.cfi_def_cfa_offset 8
 384 0002 0190     		str	r0, [sp, #4]
 385              		.loc 1 844 0
 386 0004 019B     		ldr	r3, [sp, #4]
 387 0006 DB68     		ldr	r3, [r3, #12]
 388 0008 0022     		movs	r2, #0
 389 000a 1A60     		str	r2, [r3]
 390              		.loc 1 845 0
 391 000c 019B     		ldr	r3, [sp, #4]
 392 000e DB68     		ldr	r3, [r3, #12]
 393 0010 0022     		movs	r2, #0
 394 0012 1A61     		str	r2, [r3, #16]
 395              		.loc 1 848 0
 396 0014 019B     		ldr	r3, [sp, #4]
ARM GAS  /tmp/cctSZcYg.s 			page 8


 397 0016 DB68     		ldr	r3, [r3, #12]
 398 0018 019A     		ldr	r2, [sp, #4]
 399 001a D268     		ldr	r2, [r2, #12]
 400 001c D268     		ldr	r2, [r2, #12]
 401 001e 22F0FF02 		bic	r2, r2, #255
 402 0022 DA60     		str	r2, [r3, #12]
 403              		.loc 1 849 0
 404 0024 00BF     		nop
 405 0026 02B0     		add	sp, sp, #8
 406              		.cfi_def_cfa_offset 0
 407              		@ sp needed
 408 0028 7047     		bx	lr
 409              		.cfi_endproc
 410              	.LFE273:
 411              		.size	gpt_lld_stop_timer, .-gpt_lld_stop_timer
 412 002a 00BF     		.section	.text.gpt_lld_polled_delay,"ax",%progbits
 413              		.align	1
 414              		.p2align 4,,15
 415              		.global	gpt_lld_polled_delay
 416              		.syntax unified
 417              		.thumb
 418              		.thumb_func
 419              		.fpu fpv4-sp-d16
 420              		.type	gpt_lld_polled_delay, %function
 421              	gpt_lld_polled_delay:
 422              	.LFB274:
 423              		.loc 1 862 0
 424              		.cfi_startproc
 425              		@ args = 0, pretend = 0, frame = 8
 426              		@ frame_needed = 0, uses_anonymous_args = 0
 427              		@ link register save eliminated.
 428 0000 82B0     		sub	sp, sp, #8
 429              		.cfi_def_cfa_offset 8
 430 0002 0190     		str	r0, [sp, #4]
 431 0004 0091     		str	r1, [sp]
 432              		.loc 1 864 0
 433 0006 019B     		ldr	r3, [sp, #4]
 434 0008 DB68     		ldr	r3, [r3, #12]
 435 000a 009A     		ldr	r2, [sp]
 436 000c DA62     		str	r2, [r3, #44]
 437              		.loc 1 865 0
 438 000e 019B     		ldr	r3, [sp, #4]
 439 0010 DB68     		ldr	r3, [r3, #12]
 440 0012 0122     		movs	r2, #1
 441 0014 5A61     		str	r2, [r3, #20]
 442              		.loc 1 866 0
 443 0016 019B     		ldr	r3, [sp, #4]
 444 0018 DB68     		ldr	r3, [r3, #12]
 445 001a 0022     		movs	r2, #0
 446 001c 1A61     		str	r2, [r3, #16]
 447              		.loc 1 867 0
 448 001e 019B     		ldr	r3, [sp, #4]
 449 0020 DB68     		ldr	r3, [r3, #12]
 450 0022 0D22     		movs	r2, #13
 451 0024 1A60     		str	r2, [r3]
 452              		.loc 1 868 0
 453 0026 00BF     		nop
ARM GAS  /tmp/cctSZcYg.s 			page 9


 454              	.L21:
 455              		.loc 1 868 0 is_stmt 0 discriminator 1
 456 0028 019B     		ldr	r3, [sp, #4]
 457 002a DB68     		ldr	r3, [r3, #12]
 458 002c 1B69     		ldr	r3, [r3, #16]
 459 002e 03F00103 		and	r3, r3, #1
 460 0032 002B     		cmp	r3, #0
 461 0034 F8D0     		beq	.L21
 462              		.loc 1 870 0 is_stmt 1
 463 0036 019B     		ldr	r3, [sp, #4]
 464 0038 DB68     		ldr	r3, [r3, #12]
 465 003a 0022     		movs	r2, #0
 466 003c 1A61     		str	r2, [r3, #16]
 467              		.loc 1 871 0
 468 003e 00BF     		nop
 469 0040 02B0     		add	sp, sp, #8
 470              		.cfi_def_cfa_offset 0
 471              		@ sp needed
 472 0042 7047     		bx	lr
 473              		.cfi_endproc
 474              	.LFE274:
 475              		.size	gpt_lld_polled_delay, .-gpt_lld_polled_delay
 476              		.section	.text.gpt_lld_serve_interrupt,"ax",%progbits
 477              		.align	1
 478              		.p2align 4,,15
 479              		.global	gpt_lld_serve_interrupt
 480              		.syntax unified
 481              		.thumb
 482              		.thumb_func
 483              		.fpu fpv4-sp-d16
 484              		.type	gpt_lld_serve_interrupt, %function
 485              	gpt_lld_serve_interrupt:
 486              	.LFB275:
 487              		.loc 1 880 0
 488              		.cfi_startproc
 489              		@ args = 0, pretend = 0, frame = 8
 490              		@ frame_needed = 0, uses_anonymous_args = 0
 491 0000 00B5     		push	{lr}
 492              		.cfi_def_cfa_offset 4
 493              		.cfi_offset 14, -4
 494 0002 83B0     		sub	sp, sp, #12
 495              		.cfi_def_cfa_offset 16
 496 0004 0190     		str	r0, [sp, #4]
 497              		.loc 1 882 0
 498 0006 019B     		ldr	r3, [sp, #4]
 499 0008 DB68     		ldr	r3, [r3, #12]
 500 000a 0022     		movs	r2, #0
 501 000c 1A61     		str	r2, [r3, #16]
 502              		.loc 1 883 0
 503 000e 019B     		ldr	r3, [sp, #4]
 504 0010 1B78     		ldrb	r3, [r3]	@ zero_extendqisi2
 505 0012 042B     		cmp	r3, #4
 506 0014 05D1     		bne	.L23
 507              		.loc 1 884 0
 508 0016 019B     		ldr	r3, [sp, #4]
 509 0018 0222     		movs	r2, #2
 510 001a 1A70     		strb	r2, [r3]
ARM GAS  /tmp/cctSZcYg.s 			page 10


 511              		.loc 1 885 0
 512 001c 0198     		ldr	r0, [sp, #4]
 513 001e FFF7FEFF 		bl	gpt_lld_stop_timer
 514              	.L23:
 515              		.loc 1 887 0
 516 0022 019B     		ldr	r3, [sp, #4]
 517 0024 5B68     		ldr	r3, [r3, #4]
 518 0026 5B68     		ldr	r3, [r3, #4]
 519 0028 0198     		ldr	r0, [sp, #4]
 520 002a 9847     		blx	r3
 521              	.LVL0:
 522              		.loc 1 888 0
 523 002c 00BF     		nop
 524 002e 03B0     		add	sp, sp, #12
 525              		.cfi_def_cfa_offset 4
 526              		@ sp needed
 527 0030 5DF804FB 		ldr	pc, [sp], #4
 528              		.cfi_endproc
 529              	.LFE275:
 530              		.size	gpt_lld_serve_interrupt, .-gpt_lld_serve_interrupt
 531              		.section	.rodata.__func__.9035,"a",%progbits
 532              		.align	2
 533              		.type	__func__.9035, %object
 534              		.size	__func__.9035, 14
 535              	__func__.9035:
 536 0000 6770745F 		.ascii	"gpt_lld_start\000"
 536      6C6C645F 
 536      73746172 
 536      7400
 537              		.text
 538              	.Letext0:
 539              		.file 2 "/usr/lib/gcc/arm-none-eabi/6.3.1/include/stddef.h"
 540              		.file 3 "/usr/arm-none-eabi/include/machine/_default_types.h"
 541              		.file 4 "/usr/arm-none-eabi/include/sys/_stdint.h"
 542              		.file 5 "../ChibiOS/os/rt/ports/ARMCMx/compilers/GCC/chtypes.h"
 543              		.file 6 "../ChibiOS/os/rt/include/chsystypes.h"
 544              		.file 7 "../ChibiOS/os/rt/include/chschd.h"
 545              		.file 8 "../ChibiOS/os/ext/CMSIS/include/core_cm4.h"
 546              		.file 9 "../ChibiOS/os/ext/CMSIS/ST/STM32F4xx/system_stm32f4xx.h"
 547              		.file 10 "../ChibiOS/os/ext/CMSIS/ST/STM32F4xx/stm32f437xx.h"
 548              		.file 11 "../ChibiOS/os/rt/ports/ARMCMx/chcore.h"
 549              		.file 12 "../ChibiOS/os/rt/ports/ARMCMx/chcore_v7m.h"
 550              		.file 13 "../ChibiOS/os/rt/include/chtm.h"
 551              		.file 14 "../ChibiOS/os/rt/include/chstats.h"
 552              		.file 15 "../ChibiOS/os/rt/include/chsem.h"
 553              		.file 16 "../ChibiOS/os/rt/include/chmtx.h"
 554              		.file 17 "../ChibiOS/os/rt/include/chregistry.h"
 555              		.file 18 "../ChibiOS/os/rt/include/chevents.h"
 556              		.file 19 "../ChibiOS/os/rt/include/chqueues.h"
 557              		.file 20 "../ChibiOS/os/hal/ports/STM32/LLD/DMAv2/stm32_dma.h"
 558              		.file 21 "../ChibiOS/os/hal/ports/STM32/LLD/GPIOv2/pal_lld.h"
 559              		.file 22 "../ChibiOS/os/hal/include/ext.h"
 560              		.file 23 "../ChibiOS/os/hal/ports/STM32/LLD/EXTIv1/ext_lld.h"
 561              		.file 24 "../ChibiOS/os/hal/include/gpt.h"
 562              		.file 25 "../ChibiOS/os/hal/ports/STM32/LLD/TIMv1/gpt_lld.h"
 563              		.file 26 "../ChibiOS/os/hal/ports/STM32/LLD/TIMv1/stm32_tim.h"
 564              		.file 27 "../ChibiOS/os/hal/include/pwm.h"
ARM GAS  /tmp/cctSZcYg.s 			page 11


 565              		.file 28 "../ChibiOS/os/hal/ports/STM32/LLD/TIMv1/pwm_lld.h"
 566              		.file 29 "../ChibiOS/os/hal/include/serial.h"
 567              		.file 30 "../ChibiOS/os/hal/ports/STM32/LLD/USARTv1/serial_lld.h"
 568              		.file 31 "../ChibiOS/os/hal/include/usb.h"
 569              		.file 32 "../ChibiOS/os/hal/ports/STM32/LLD/OTGv1/usb_lld.h"
 570              		.file 33 "../ChibiOS/os/hal/ports/STM32/LLD/OTGv1/stm32_otg.h"