ARM GAS  /tmp/ccSI9xVr.s 			page 1


   1              		.cpu cortex-m4
   2              		.eabi_attribute 27, 1
   3              		.eabi_attribute 28, 1
   4              		.eabi_attribute 20, 1
   5              		.eabi_attribute 21, 1
   6              		.eabi_attribute 23, 3
   7              		.eabi_attribute 24, 1
   8              		.eabi_attribute 25, 1
   9              		.eabi_attribute 26, 1
  10              		.eabi_attribute 30, 6
  11              		.eabi_attribute 34, 1
  12              		.eabi_attribute 18, 4
  13              		.file	"memstreams.c"
  14              		.text
  15              	.Ltext0:
  16              		.cfi_sections	.debug_frame
  17              		.section	.text.writes,"ax",%progbits
  18              		.align	1
  19              		.p2align 4,,15
  20              		.syntax unified
  21              		.thumb
  22              		.thumb_func
  23              		.fpu fpv4-sp-d16
  24              		.type	writes, %function
  25              	writes:
  26              	.LFB268:
  27              		.file 1 "../ChibiOS/os/hal/lib/streams/memstreams.c"
  28              		.loc 1 46 0
  29              		.cfi_startproc
  30              		@ args = 0, pretend = 0, frame = 24
  31              		@ frame_needed = 0, uses_anonymous_args = 0
  32 0000 00B5     		push	{lr}
  33              		.cfi_def_cfa_offset 4
  34              		.cfi_offset 14, -4
  35 0002 87B0     		sub	sp, sp, #28
  36              		.cfi_def_cfa_offset 32
  37 0004 0390     		str	r0, [sp, #12]
  38 0006 0291     		str	r1, [sp, #8]
  39 0008 0192     		str	r2, [sp, #4]
  40              		.loc 1 47 0
  41 000a 039B     		ldr	r3, [sp, #12]
  42 000c 0593     		str	r3, [sp, #20]
  43              		.loc 1 49 0
  44 000e 059B     		ldr	r3, [sp, #20]
  45 0010 9A68     		ldr	r2, [r3, #8]
  46 0012 059B     		ldr	r3, [sp, #20]
  47 0014 DB68     		ldr	r3, [r3, #12]
  48 0016 D21A     		subs	r2, r2, r3
  49 0018 019B     		ldr	r3, [sp, #4]
  50 001a 9A42     		cmp	r2, r3
  51 001c 05D2     		bcs	.L2
  52              		.loc 1 50 0
  53 001e 059B     		ldr	r3, [sp, #20]
  54 0020 9A68     		ldr	r2, [r3, #8]
  55 0022 059B     		ldr	r3, [sp, #20]
  56 0024 DB68     		ldr	r3, [r3, #12]
  57 0026 D31A     		subs	r3, r2, r3
ARM GAS  /tmp/ccSI9xVr.s 			page 2


  58 0028 0193     		str	r3, [sp, #4]
  59              	.L2:
  60              		.loc 1 51 0
  61 002a 059B     		ldr	r3, [sp, #20]
  62 002c 5A68     		ldr	r2, [r3, #4]
  63 002e 059B     		ldr	r3, [sp, #20]
  64 0030 DB68     		ldr	r3, [r3, #12]
  65 0032 1344     		add	r3, r3, r2
  66 0034 019A     		ldr	r2, [sp, #4]
  67 0036 0299     		ldr	r1, [sp, #8]
  68 0038 1846     		mov	r0, r3
  69 003a FFF7FEFF 		bl	memcpy
  70              		.loc 1 52 0
  71 003e 059B     		ldr	r3, [sp, #20]
  72 0040 DA68     		ldr	r2, [r3, #12]
  73 0042 019B     		ldr	r3, [sp, #4]
  74 0044 1A44     		add	r2, r2, r3
  75 0046 059B     		ldr	r3, [sp, #20]
  76 0048 DA60     		str	r2, [r3, #12]
  77              		.loc 1 53 0
  78 004a 019B     		ldr	r3, [sp, #4]
  79              		.loc 1 54 0
  80 004c 1846     		mov	r0, r3
  81 004e 07B0     		add	sp, sp, #28
  82              		.cfi_def_cfa_offset 4
  83              		@ sp needed
  84 0050 5DF804FB 		ldr	pc, [sp], #4
  85              		.cfi_endproc
  86              	.LFE268:
  87              		.size	writes, .-writes
  88              		.section	.text.reads,"ax",%progbits
  89              		.align	1
  90              		.p2align 4,,15
  91              		.syntax unified
  92              		.thumb
  93              		.thumb_func
  94              		.fpu fpv4-sp-d16
  95              		.type	reads, %function
  96              	reads:
  97              	.LFB269:
  98              		.loc 1 56 0
  99              		.cfi_startproc
 100              		@ args = 0, pretend = 0, frame = 24
 101              		@ frame_needed = 0, uses_anonymous_args = 0
 102 0000 00B5     		push	{lr}
 103              		.cfi_def_cfa_offset 4
 104              		.cfi_offset 14, -4
 105 0002 87B0     		sub	sp, sp, #28
 106              		.cfi_def_cfa_offset 32
 107 0004 0390     		str	r0, [sp, #12]
 108 0006 0291     		str	r1, [sp, #8]
 109 0008 0192     		str	r2, [sp, #4]
 110              		.loc 1 57 0
 111 000a 039B     		ldr	r3, [sp, #12]
 112 000c 0593     		str	r3, [sp, #20]
 113              		.loc 1 59 0
 114 000e 059B     		ldr	r3, [sp, #20]
ARM GAS  /tmp/ccSI9xVr.s 			page 3


 115 0010 DA68     		ldr	r2, [r3, #12]
 116 0012 059B     		ldr	r3, [sp, #20]
 117 0014 1B69     		ldr	r3, [r3, #16]
 118 0016 D21A     		subs	r2, r2, r3
 119 0018 019B     		ldr	r3, [sp, #4]
 120 001a 9A42     		cmp	r2, r3
 121 001c 05D2     		bcs	.L5
 122              		.loc 1 60 0
 123 001e 059B     		ldr	r3, [sp, #20]
 124 0020 DA68     		ldr	r2, [r3, #12]
 125 0022 059B     		ldr	r3, [sp, #20]
 126 0024 1B69     		ldr	r3, [r3, #16]
 127 0026 D31A     		subs	r3, r2, r3
 128 0028 0193     		str	r3, [sp, #4]
 129              	.L5:
 130              		.loc 1 61 0
 131 002a 059B     		ldr	r3, [sp, #20]
 132 002c 5A68     		ldr	r2, [r3, #4]
 133 002e 059B     		ldr	r3, [sp, #20]
 134 0030 1B69     		ldr	r3, [r3, #16]
 135 0032 1344     		add	r3, r3, r2
 136 0034 019A     		ldr	r2, [sp, #4]
 137 0036 1946     		mov	r1, r3
 138 0038 0298     		ldr	r0, [sp, #8]
 139 003a FFF7FEFF 		bl	memcpy
 140              		.loc 1 62 0
 141 003e 059B     		ldr	r3, [sp, #20]
 142 0040 1A69     		ldr	r2, [r3, #16]
 143 0042 019B     		ldr	r3, [sp, #4]
 144 0044 1A44     		add	r2, r2, r3
 145 0046 059B     		ldr	r3, [sp, #20]
 146 0048 1A61     		str	r2, [r3, #16]
 147              		.loc 1 63 0
 148 004a 019B     		ldr	r3, [sp, #4]
 149              		.loc 1 64 0
 150 004c 1846     		mov	r0, r3
 151 004e 07B0     		add	sp, sp, #28
 152              		.cfi_def_cfa_offset 4
 153              		@ sp needed
 154 0050 5DF804FB 		ldr	pc, [sp], #4
 155              		.cfi_endproc
 156              	.LFE269:
 157              		.size	reads, .-reads
 158              		.section	.text.put,"ax",%progbits
 159              		.align	1
 160              		.p2align 4,,15
 161              		.syntax unified
 162              		.thumb
 163              		.thumb_func
 164              		.fpu fpv4-sp-d16
 165              		.type	put, %function
 166              	put:
 167              	.LFB270:
 168              		.loc 1 66 0
 169              		.cfi_startproc
 170              		@ args = 0, pretend = 0, frame = 16
 171              		@ frame_needed = 0, uses_anonymous_args = 0
ARM GAS  /tmp/ccSI9xVr.s 			page 4


 172              		@ link register save eliminated.
 173 0000 84B0     		sub	sp, sp, #16
 174              		.cfi_def_cfa_offset 16
 175 0002 0190     		str	r0, [sp, #4]
 176 0004 0B46     		mov	r3, r1
 177 0006 8DF80330 		strb	r3, [sp, #3]
 178              		.loc 1 67 0
 179 000a 019B     		ldr	r3, [sp, #4]
 180 000c 0393     		str	r3, [sp, #12]
 181              		.loc 1 69 0
 182 000e 039B     		ldr	r3, [sp, #12]
 183 0010 9A68     		ldr	r2, [r3, #8]
 184 0012 039B     		ldr	r3, [sp, #12]
 185 0014 DB68     		ldr	r3, [r3, #12]
 186 0016 9A42     		cmp	r2, r3
 187 0018 02D1     		bne	.L8
 188              		.loc 1 70 0
 189 001a 6FF00103 		mvn	r3, #1
 190 001e 0DE0     		b	.L9
 191              	.L8:
 192              		.loc 1 71 0
 193 0020 039B     		ldr	r3, [sp, #12]
 194 0022 5A68     		ldr	r2, [r3, #4]
 195 0024 039B     		ldr	r3, [sp, #12]
 196 0026 DB68     		ldr	r3, [r3, #12]
 197 0028 1344     		add	r3, r3, r2
 198 002a 9DF80320 		ldrb	r2, [sp, #3]
 199 002e 1A70     		strb	r2, [r3]
 200              		.loc 1 72 0
 201 0030 039B     		ldr	r3, [sp, #12]
 202 0032 DB68     		ldr	r3, [r3, #12]
 203 0034 5A1C     		adds	r2, r3, #1
 204 0036 039B     		ldr	r3, [sp, #12]
 205 0038 DA60     		str	r2, [r3, #12]
 206              		.loc 1 73 0
 207 003a 0023     		movs	r3, #0
 208              	.L9:
 209              		.loc 1 74 0
 210 003c 1846     		mov	r0, r3
 211 003e 04B0     		add	sp, sp, #16
 212              		.cfi_def_cfa_offset 0
 213              		@ sp needed
 214 0040 7047     		bx	lr
 215              		.cfi_endproc
 216              	.LFE270:
 217              		.size	put, .-put
 218 0042 00BF     		.section	.text.get,"ax",%progbits
 219              		.align	1
 220              		.p2align 4,,15
 221              		.syntax unified
 222              		.thumb
 223              		.thumb_func
 224              		.fpu fpv4-sp-d16
 225              		.type	get, %function
 226              	get:
 227              	.LFB271:
 228              		.loc 1 76 0
ARM GAS  /tmp/ccSI9xVr.s 			page 5


 229              		.cfi_startproc
 230              		@ args = 0, pretend = 0, frame = 16
 231              		@ frame_needed = 0, uses_anonymous_args = 0
 232              		@ link register save eliminated.
 233 0000 84B0     		sub	sp, sp, #16
 234              		.cfi_def_cfa_offset 16
 235 0002 0190     		str	r0, [sp, #4]
 236              		.loc 1 78 0
 237 0004 019B     		ldr	r3, [sp, #4]
 238 0006 0393     		str	r3, [sp, #12]
 239              		.loc 1 80 0
 240 0008 039B     		ldr	r3, [sp, #12]
 241 000a DA68     		ldr	r2, [r3, #12]
 242 000c 039B     		ldr	r3, [sp, #12]
 243 000e 1B69     		ldr	r3, [r3, #16]
 244 0010 9A42     		cmp	r2, r3
 245 0012 02D1     		bne	.L11
 246              		.loc 1 81 0
 247 0014 6FF00103 		mvn	r3, #1
 248 0018 0EE0     		b	.L12
 249              	.L11:
 250              		.loc 1 82 0
 251 001a 039B     		ldr	r3, [sp, #12]
 252 001c 5A68     		ldr	r2, [r3, #4]
 253 001e 039B     		ldr	r3, [sp, #12]
 254 0020 1B69     		ldr	r3, [r3, #16]
 255 0022 1344     		add	r3, r3, r2
 256 0024 1B78     		ldrb	r3, [r3]
 257 0026 8DF80B30 		strb	r3, [sp, #11]
 258              		.loc 1 83 0
 259 002a 039B     		ldr	r3, [sp, #12]
 260 002c 1B69     		ldr	r3, [r3, #16]
 261 002e 5A1C     		adds	r2, r3, #1
 262 0030 039B     		ldr	r3, [sp, #12]
 263 0032 1A61     		str	r2, [r3, #16]
 264              		.loc 1 84 0
 265 0034 9DF80B30 		ldrb	r3, [sp, #11]	@ zero_extendqisi2
 266              	.L12:
 267              		.loc 1 85 0
 268 0038 1846     		mov	r0, r3
 269 003a 04B0     		add	sp, sp, #16
 270              		.cfi_def_cfa_offset 0
 271              		@ sp needed
 272 003c 7047     		bx	lr
 273              		.cfi_endproc
 274              	.LFE271:
 275              		.size	get, .-get
 276 003e 00BF     		.section	.rodata.vmt,"a",%progbits
 277              		.align	2
 278              		.type	vmt, %object
 279              		.size	vmt, 16
 280              	vmt:
 281 0000 00000000 		.word	writes
 282 0004 00000000 		.word	reads
 283 0008 00000000 		.word	put
 284 000c 00000000 		.word	get
 285              		.section	.text.msObjectInit,"ax",%progbits
ARM GAS  /tmp/ccSI9xVr.s 			page 6


 286              		.align	1
 287              		.p2align 4,,15
 288              		.global	msObjectInit
 289              		.syntax unified
 290              		.thumb
 291              		.thumb_func
 292              		.fpu fpv4-sp-d16
 293              		.type	msObjectInit, %function
 294              	msObjectInit:
 295              	.LFB272:
 296              		.loc 1 104 0
 297              		.cfi_startproc
 298              		@ args = 0, pretend = 0, frame = 16
 299              		@ frame_needed = 0, uses_anonymous_args = 0
 300              		@ link register save eliminated.
 301 0000 84B0     		sub	sp, sp, #16
 302              		.cfi_def_cfa_offset 16
 303 0002 0390     		str	r0, [sp, #12]
 304 0004 0291     		str	r1, [sp, #8]
 305 0006 0192     		str	r2, [sp, #4]
 306 0008 0093     		str	r3, [sp]
 307              		.loc 1 106 0
 308 000a 039B     		ldr	r3, [sp, #12]
 309 000c 084A     		ldr	r2, .L14
 310 000e 1A60     		str	r2, [r3]
 311              		.loc 1 107 0
 312 0010 039B     		ldr	r3, [sp, #12]
 313 0012 029A     		ldr	r2, [sp, #8]
 314 0014 5A60     		str	r2, [r3, #4]
 315              		.loc 1 108 0
 316 0016 039B     		ldr	r3, [sp, #12]
 317 0018 019A     		ldr	r2, [sp, #4]
 318 001a 9A60     		str	r2, [r3, #8]
 319              		.loc 1 109 0
 320 001c 039B     		ldr	r3, [sp, #12]
 321 001e 009A     		ldr	r2, [sp]
 322 0020 DA60     		str	r2, [r3, #12]
 323              		.loc 1 110 0
 324 0022 039B     		ldr	r3, [sp, #12]
 325 0024 0022     		movs	r2, #0
 326 0026 1A61     		str	r2, [r3, #16]
 327              		.loc 1 111 0
 328 0028 00BF     		nop
 329 002a 04B0     		add	sp, sp, #16
 330              		.cfi_def_cfa_offset 0
 331              		@ sp needed
 332 002c 7047     		bx	lr
 333              	.L15:
 334 002e 00BF     		.align	2
 335              	.L14:
 336 0030 00000000 		.word	vmt
 337              		.cfi_endproc
 338              	.LFE272:
 339              		.size	msObjectInit, .-msObjectInit
 340              		.text
 341              	.Letext0:
 342              		.file 2 "/usr/lib/gcc/arm-none-eabi/6.3.1/include/stddef.h"
ARM GAS  /tmp/ccSI9xVr.s 			page 7


 343              		.file 3 "/usr/arm-none-eabi/include/machine/_default_types.h"
 344              		.file 4 "/usr/arm-none-eabi/include/sys/lock.h"
 345              		.file 5 "/usr/arm-none-eabi/include/sys/_types.h"
 346              		.file 6 "/usr/arm-none-eabi/include/sys/reent.h"
 347              		.file 7 "/usr/arm-none-eabi/include/sys/_stdint.h"
 348              		.file 8 "../ChibiOS/os/rt/ports/ARMCMx/compilers/GCC/chtypes.h"
 349              		.file 9 "../ChibiOS/os/rt/include/chsystypes.h"
 350              		.file 10 "../ChibiOS/os/rt/include/chschd.h"
 351              		.file 11 "../ChibiOS/os/ext/CMSIS/include/core_cm4.h"
 352              		.file 12 "../ChibiOS/os/ext/CMSIS/ST/STM32F4xx/system_stm32f4xx.h"
 353              		.file 13 "../ChibiOS/os/ext/CMSIS/ST/STM32F4xx/stm32f437xx.h"
 354              		.file 14 "../ChibiOS/os/rt/ports/ARMCMx/chcore.h"
 355              		.file 15 "../ChibiOS/os/rt/ports/ARMCMx/chcore_v7m.h"
 356              		.file 16 "../ChibiOS/os/rt/include/chtm.h"
 357              		.file 17 "../ChibiOS/os/rt/include/chstats.h"
 358              		.file 18 "../ChibiOS/os/rt/include/chsem.h"
 359              		.file 19 "../ChibiOS/os/rt/include/chmtx.h"
 360              		.file 20 "../ChibiOS/os/rt/include/chregistry.h"
 361              		.file 21 "../ChibiOS/os/rt/include/chevents.h"
 362              		.file 22 "../ChibiOS/os/rt/include/chqueues.h"
 363              		.file 23 "../ChibiOS/os/hal/ports/STM32/LLD/DMAv2/stm32_dma.h"
 364              		.file 24 "../ChibiOS/os/hal/ports/STM32/LLD/GPIOv2/pal_lld.h"
 365              		.file 25 "../ChibiOS/os/hal/include/ext.h"
 366              		.file 26 "../ChibiOS/os/hal/ports/STM32/LLD/EXTIv1/ext_lld.h"
 367              		.file 27 "../ChibiOS/os/hal/include/gpt.h"
 368              		.file 28 "../ChibiOS/os/hal/ports/STM32/LLD/TIMv1/gpt_lld.h"
 369              		.file 29 "../ChibiOS/os/hal/ports/STM32/LLD/TIMv1/stm32_tim.h"
 370              		.file 30 "../ChibiOS/os/hal/include/pwm.h"
 371              		.file 31 "../ChibiOS/os/hal/ports/STM32/LLD/TIMv1/pwm_lld.h"
 372              		.file 32 "../ChibiOS/os/hal/include/serial.h"
 373              		.file 33 "../ChibiOS/os/hal/ports/STM32/LLD/USARTv1/serial_lld.h"
 374              		.file 34 "../ChibiOS/os/hal/include/usb.h"
 375              		.file 35 "../ChibiOS/os/hal/ports/STM32/LLD/OTGv1/usb_lld.h"
 376              		.file 36 "../ChibiOS/os/hal/ports/STM32/LLD/OTGv1/stm32_otg.h"
 377              		.file 37 "../ChibiOS/os/hal/lib/streams/memstreams.h"