ARM GAS  /tmp/ccgW0bu1.s 			page 1


   1              		.cpu cortex-m4
   2              		.eabi_attribute 27, 1
   3              		.eabi_attribute 28, 1
   4              		.eabi_attribute 20, 1
   5              		.eabi_attribute 21, 1
   6              		.eabi_attribute 23, 3
   7              		.eabi_attribute 24, 1
   8              		.eabi_attribute 25, 1
   9              		.eabi_attribute 26, 1
  10              		.eabi_attribute 30, 6
  11              		.eabi_attribute 34, 1
  12              		.eabi_attribute 18, 4
  13              		.file	"nvic.c"
  14              		.text
  15              	.Ltext0:
  16              		.cfi_sections	.debug_frame
  17              		.section	.text.nvicEnableVector,"ax",%progbits
  18              		.align	1
  19              		.p2align 4,,15
  20              		.global	nvicEnableVector
  21              		.syntax unified
  22              		.thumb
  23              		.thumb_func
  24              		.fpu fpv4-sp-d16
  25              		.type	nvicEnableVector, %function
  26              	nvicEnableVector:
  27              	.LFB268:
  28              		.file 1 "../ChibiOS/os/hal/ports/common/ARMCMx/nvic.c"
  29              		.loc 1 57 0
  30              		.cfi_startproc
  31              		@ args = 0, pretend = 0, frame = 8
  32              		@ frame_needed = 0, uses_anonymous_args = 0
  33              		@ link register save eliminated.
  34 0000 82B0     		sub	sp, sp, #8
  35              		.cfi_def_cfa_offset 8
  36 0002 0190     		str	r0, [sp, #4]
  37 0004 0091     		str	r1, [sp]
  38              		.loc 1 63 0
  39 0006 124A     		ldr	r2, .L2
  40 0008 009B     		ldr	r3, [sp]
  41 000a DBB2     		uxtb	r3, r3
  42 000c 1B01     		lsls	r3, r3, #4
  43 000e D9B2     		uxtb	r1, r3
  44 0010 019B     		ldr	r3, [sp, #4]
  45 0012 1344     		add	r3, r3, r2
  46 0014 03F54073 		add	r3, r3, #768
  47 0018 0A46     		mov	r2, r1
  48 001a 1A70     		strb	r2, [r3]
  49              		.loc 1 65 0
  50 001c 0C49     		ldr	r1, .L2
  51 001e 019B     		ldr	r3, [sp, #4]
  52 0020 5B09     		lsrs	r3, r3, #5
  53 0022 019A     		ldr	r2, [sp, #4]
  54 0024 02F01F02 		and	r2, r2, #31
  55 0028 0120     		movs	r0, #1
  56 002a 00FA02F2 		lsl	r2, r0, r2
  57 002e 6033     		adds	r3, r3, #96
ARM GAS  /tmp/ccgW0bu1.s 			page 2


  58 0030 41F82320 		str	r2, [r1, r3, lsl #2]
  59              		.loc 1 66 0
  60 0034 0649     		ldr	r1, .L2
  61 0036 019B     		ldr	r3, [sp, #4]
  62 0038 5B09     		lsrs	r3, r3, #5
  63 003a 019A     		ldr	r2, [sp, #4]
  64 003c 02F01F02 		and	r2, r2, #31
  65 0040 0120     		movs	r0, #1
  66 0042 00FA02F2 		lsl	r2, r0, r2
  67 0046 41F82320 		str	r2, [r1, r3, lsl #2]
  68              		.loc 1 67 0
  69 004a 00BF     		nop
  70 004c 02B0     		add	sp, sp, #8
  71              		.cfi_def_cfa_offset 0
  72              		@ sp needed
  73 004e 7047     		bx	lr
  74              	.L3:
  75              		.align	2
  76              	.L2:
  77 0050 00E100E0 		.word	-536813312
  78              		.cfi_endproc
  79              	.LFE268:
  80              		.size	nvicEnableVector, .-nvicEnableVector
  81              		.section	.text.nvicDisableVector,"ax",%progbits
  82              		.align	1
  83              		.p2align 4,,15
  84              		.global	nvicDisableVector
  85              		.syntax unified
  86              		.thumb
  87              		.thumb_func
  88              		.fpu fpv4-sp-d16
  89              		.type	nvicDisableVector, %function
  90              	nvicDisableVector:
  91              	.LFB269:
  92              		.loc 1 74 0
  93              		.cfi_startproc
  94              		@ args = 0, pretend = 0, frame = 8
  95              		@ frame_needed = 0, uses_anonymous_args = 0
  96              		@ link register save eliminated.
  97 0000 82B0     		sub	sp, sp, #8
  98              		.cfi_def_cfa_offset 8
  99 0002 0190     		str	r0, [sp, #4]
 100              		.loc 1 76 0
 101 0004 0A49     		ldr	r1, .L5
 102 0006 019B     		ldr	r3, [sp, #4]
 103 0008 5B09     		lsrs	r3, r3, #5
 104 000a 019A     		ldr	r2, [sp, #4]
 105 000c 02F01F02 		and	r2, r2, #31
 106 0010 0120     		movs	r0, #1
 107 0012 00FA02F2 		lsl	r2, r0, r2
 108 0016 2033     		adds	r3, r3, #32
 109 0018 41F82320 		str	r2, [r1, r3, lsl #2]
 110              		.loc 1 80 0
 111 001c 044A     		ldr	r2, .L5
 112 001e 019B     		ldr	r3, [sp, #4]
 113 0020 1344     		add	r3, r3, r2
 114 0022 03F54073 		add	r3, r3, #768
ARM GAS  /tmp/ccgW0bu1.s 			page 3


 115 0026 0022     		movs	r2, #0
 116 0028 1A70     		strb	r2, [r3]
 117              		.loc 1 82 0
 118 002a 00BF     		nop
 119 002c 02B0     		add	sp, sp, #8
 120              		.cfi_def_cfa_offset 0
 121              		@ sp needed
 122 002e 7047     		bx	lr
 123              	.L6:
 124              		.align	2
 125              	.L5:
 126 0030 00E100E0 		.word	-536813312
 127              		.cfi_endproc
 128              	.LFE269:
 129              		.size	nvicDisableVector, .-nvicDisableVector
 130              		.section	.text.nvicSetSystemHandlerPriority,"ax",%progbits
 131              		.align	1
 132              		.p2align 4,,15
 133              		.global	nvicSetSystemHandlerPriority
 134              		.syntax unified
 135              		.thumb
 136              		.thumb_func
 137              		.fpu fpv4-sp-d16
 138              		.type	nvicSetSystemHandlerPriority, %function
 139              	nvicSetSystemHandlerPriority:
 140              	.LFB270:
 141              		.loc 1 90 0
 142              		.cfi_startproc
 143              		@ args = 0, pretend = 0, frame = 8
 144              		@ frame_needed = 0, uses_anonymous_args = 0
 145 0000 00B5     		push	{lr}
 146              		.cfi_def_cfa_offset 4
 147              		.cfi_offset 14, -4
 148 0002 83B0     		sub	sp, sp, #12
 149              		.cfi_def_cfa_offset 16
 150 0004 0190     		str	r0, [sp, #4]
 151 0006 0091     		str	r1, [sp]
 152              		.loc 1 92 0
 153 0008 019B     		ldr	r3, [sp, #4]
 154 000a 0B2B     		cmp	r3, #11
 155 000c 02D9     		bls	.L8
 156              		.loc 1 92 0 is_stmt 0 discriminator 2
 157 000e 0848     		ldr	r0, .L9
 158 0010 FFF7FEFF 		bl	chSysHalt
 159              	.L8:
 160              		.loc 1 100 0 is_stmt 1
 161 0014 074A     		ldr	r2, .L9+4
 162 0016 009B     		ldr	r3, [sp]
 163 0018 DBB2     		uxtb	r3, r3
 164 001a 1B01     		lsls	r3, r3, #4
 165 001c D9B2     		uxtb	r1, r3
 166 001e 019B     		ldr	r3, [sp, #4]
 167 0020 1344     		add	r3, r3, r2
 168 0022 1833     		adds	r3, r3, #24
 169 0024 0A46     		mov	r2, r1
 170 0026 1A70     		strb	r2, [r3]
 171              		.loc 1 102 0
ARM GAS  /tmp/ccgW0bu1.s 			page 4


 172 0028 00BF     		nop
 173 002a 03B0     		add	sp, sp, #12
 174              		.cfi_def_cfa_offset 4
 175              		@ sp needed
 176 002c 5DF804FB 		ldr	pc, [sp], #4
 177              	.L10:
 178              		.align	2
 179              	.L9:
 180 0030 00000000 		.word	__func__.9035
 181 0034 00ED00E0 		.word	-536810240
 182              		.cfi_endproc
 183              	.LFE270:
 184              		.size	nvicSetSystemHandlerPriority, .-nvicSetSystemHandlerPriority
 185              		.section	.text.nvicClearPending,"ax",%progbits
 186              		.align	1
 187              		.p2align 4,,15
 188              		.global	nvicClearPending
 189              		.syntax unified
 190              		.thumb
 191              		.thumb_func
 192              		.fpu fpv4-sp-d16
 193              		.type	nvicClearPending, %function
 194              	nvicClearPending:
 195              	.LFB271:
 196              		.loc 1 109 0
 197              		.cfi_startproc
 198              		@ args = 0, pretend = 0, frame = 8
 199              		@ frame_needed = 0, uses_anonymous_args = 0
 200              		@ link register save eliminated.
 201 0000 82B0     		sub	sp, sp, #8
 202              		.cfi_def_cfa_offset 8
 203 0002 0190     		str	r0, [sp, #4]
 204              		.loc 1 111 0
 205 0004 0749     		ldr	r1, .L12
 206 0006 019B     		ldr	r3, [sp, #4]
 207 0008 5B09     		lsrs	r3, r3, #5
 208 000a 019A     		ldr	r2, [sp, #4]
 209 000c 02F01F02 		and	r2, r2, #31
 210 0010 0120     		movs	r0, #1
 211 0012 00FA02F2 		lsl	r2, r0, r2
 212 0016 6033     		adds	r3, r3, #96
 213 0018 41F82320 		str	r2, [r1, r3, lsl #2]
 214              		.loc 1 112 0
 215 001c 00BF     		nop
 216 001e 02B0     		add	sp, sp, #8
 217              		.cfi_def_cfa_offset 0
 218              		@ sp needed
 219 0020 7047     		bx	lr
 220              	.L13:
 221 0022 00BF     		.align	2
 222              	.L12:
 223 0024 00E100E0 		.word	-536813312
 224              		.cfi_endproc
 225              	.LFE271:
 226              		.size	nvicClearPending, .-nvicClearPending
 227              		.section	.rodata.__func__.9035,"a",%progbits
 228              		.align	2
ARM GAS  /tmp/ccgW0bu1.s 			page 5


 229              		.type	__func__.9035, %object
 230              		.size	__func__.9035, 29
 231              	__func__.9035:
 232 0000 6E766963 		.ascii	"nvicSetSystemHandlerPriority\000"
 232      53657453 
 232      79737465 
 232      6D48616E 
 232      646C6572 
 233              		.text
 234              	.Letext0:
 235              		.file 2 "/usr/lib/gcc/arm-none-eabi/6.3.1/include/stddef.h"
 236              		.file 3 "/usr/arm-none-eabi/include/machine/_default_types.h"
 237              		.file 4 "/usr/arm-none-eabi/include/sys/_stdint.h"
 238              		.file 5 "../ChibiOS/os/rt/ports/ARMCMx/compilers/GCC/chtypes.h"
 239              		.file 6 "../ChibiOS/os/rt/include/chsystypes.h"
 240              		.file 7 "../ChibiOS/os/rt/include/chschd.h"
 241              		.file 8 "../ChibiOS/os/ext/CMSIS/include/core_cm4.h"
 242              		.file 9 "../ChibiOS/os/ext/CMSIS/ST/STM32F4xx/system_stm32f4xx.h"
 243              		.file 10 "../ChibiOS/os/ext/CMSIS/ST/STM32F4xx/stm32f437xx.h"
 244              		.file 11 "../ChibiOS/os/rt/ports/ARMCMx/chcore.h"
 245              		.file 12 "../ChibiOS/os/rt/ports/ARMCMx/chcore_v7m.h"
 246              		.file 13 "../ChibiOS/os/rt/include/chtm.h"
 247              		.file 14 "../ChibiOS/os/rt/include/chstats.h"
 248              		.file 15 "../ChibiOS/os/rt/include/chsem.h"
 249              		.file 16 "../ChibiOS/os/rt/include/chmtx.h"
 250              		.file 17 "../ChibiOS/os/rt/include/chregistry.h"
 251              		.file 18 "../ChibiOS/os/rt/include/chevents.h"
 252              		.file 19 "../ChibiOS/os/rt/include/chqueues.h"
 253              		.file 20 "../ChibiOS/os/hal/ports/STM32/LLD/DMAv2/stm32_dma.h"
 254              		.file 21 "../ChibiOS/os/hal/ports/STM32/LLD/GPIOv2/pal_lld.h"
 255              		.file 22 "../ChibiOS/os/hal/include/ext.h"
 256              		.file 23 "../ChibiOS/os/hal/ports/STM32/LLD/EXTIv1/ext_lld.h"
 257              		.file 24 "../ChibiOS/os/hal/include/gpt.h"
 258              		.file 25 "../ChibiOS/os/hal/ports/STM32/LLD/TIMv1/gpt_lld.h"
 259              		.file 26 "../ChibiOS/os/hal/ports/STM32/LLD/TIMv1/stm32_tim.h"
 260              		.file 27 "../ChibiOS/os/hal/include/pwm.h"
 261              		.file 28 "../ChibiOS/os/hal/ports/STM32/LLD/TIMv1/pwm_lld.h"
 262              		.file 29 "../ChibiOS/os/hal/include/serial.h"
 263              		.file 30 "../ChibiOS/os/hal/ports/STM32/LLD/USARTv1/serial_lld.h"
 264              		.file 31 "../ChibiOS/os/hal/include/usb.h"
 265              		.file 32 "../ChibiOS/os/hal/ports/STM32/LLD/OTGv1/usb_lld.h"
 266              		.file 33 "../ChibiOS/os/hal/ports/STM32/LLD/OTGv1/stm32_otg.h"