ARM GAS  /tmp/cc3cX26Q.s 			page 1


   1              		.cpu cortex-m4
   2              		.eabi_attribute 27, 1
   3              		.eabi_attribute 28, 1
   4              		.eabi_attribute 20, 1
   5              		.eabi_attribute 21, 1
   6              		.eabi_attribute 23, 3
   7              		.eabi_attribute 24, 1
   8              		.eabi_attribute 25, 1
   9              		.eabi_attribute 26, 1
  10              		.eabi_attribute 30, 6
  11              		.eabi_attribute 34, 1
  12              		.eabi_attribute 18, 4
  13              		.file	"pal_lld.c"
  14              		.text
  15              	.Ltext0:
  16              		.cfi_sections	.debug_frame
  17              		.section	.text.initgpio,"ax",%progbits
  18              		.align	1
  19              		.p2align 4,,15
  20              		.syntax unified
  21              		.thumb
  22              		.thumb_func
  23              		.fpu fpv4-sp-d16
  24              		.type	initgpio, %function
  25              	initgpio:
  26              	.LFB268:
  27              		.file 1 "../ChibiOS/os/hal/ports/STM32/LLD/GPIOv2/pal_lld.c"
  28              		.loc 1 61 0
  29              		.cfi_startproc
  30              		@ args = 0, pretend = 0, frame = 8
  31              		@ frame_needed = 0, uses_anonymous_args = 0
  32              		@ link register save eliminated.
  33 0000 82B0     		sub	sp, sp, #8
  34              		.cfi_def_cfa_offset 8
  35 0002 0190     		str	r0, [sp, #4]
  36 0004 0091     		str	r1, [sp]
  37              		.loc 1 63 0
  38 0006 009B     		ldr	r3, [sp]
  39 0008 5A68     		ldr	r2, [r3, #4]
  40 000a 019B     		ldr	r3, [sp, #4]
  41 000c 5A60     		str	r2, [r3, #4]
  42              		.loc 1 64 0
  43 000e 009B     		ldr	r3, [sp]
  44 0010 9A68     		ldr	r2, [r3, #8]
  45 0012 019B     		ldr	r3, [sp, #4]
  46 0014 9A60     		str	r2, [r3, #8]
  47              		.loc 1 65 0
  48 0016 009B     		ldr	r3, [sp]
  49 0018 DA68     		ldr	r2, [r3, #12]
  50 001a 019B     		ldr	r3, [sp, #4]
  51 001c DA60     		str	r2, [r3, #12]
  52              		.loc 1 66 0
  53 001e 009B     		ldr	r3, [sp]
  54 0020 1A69     		ldr	r2, [r3, #16]
  55 0022 019B     		ldr	r3, [sp, #4]
  56 0024 5A61     		str	r2, [r3, #20]
  57              		.loc 1 67 0
ARM GAS  /tmp/cc3cX26Q.s 			page 2


  58 0026 009B     		ldr	r3, [sp]
  59 0028 5A69     		ldr	r2, [r3, #20]
  60 002a 019B     		ldr	r3, [sp, #4]
  61 002c 1A62     		str	r2, [r3, #32]
  62              		.loc 1 68 0
  63 002e 009B     		ldr	r3, [sp]
  64 0030 9A69     		ldr	r2, [r3, #24]
  65 0032 019B     		ldr	r3, [sp, #4]
  66 0034 5A62     		str	r2, [r3, #36]
  67              		.loc 1 69 0
  68 0036 009B     		ldr	r3, [sp]
  69 0038 1A68     		ldr	r2, [r3]
  70 003a 019B     		ldr	r3, [sp, #4]
  71 003c 1A60     		str	r2, [r3]
  72              		.loc 1 70 0
  73 003e 00BF     		nop
  74 0040 02B0     		add	sp, sp, #8
  75              		.cfi_def_cfa_offset 0
  76              		@ sp needed
  77 0042 7047     		bx	lr
  78              		.cfi_endproc
  79              	.LFE268:
  80              		.size	initgpio, .-initgpio
  81              		.section	.text._pal_lld_init,"ax",%progbits
  82              		.align	1
  83              		.p2align 4,,15
  84              		.global	_pal_lld_init
  85              		.syntax unified
  86              		.thumb
  87              		.thumb_func
  88              		.fpu fpv4-sp-d16
  89              		.type	_pal_lld_init, %function
  90              	_pal_lld_init:
  91              	.LFB269:
  92              		.loc 1 88 0
  93              		.cfi_startproc
  94              		@ args = 0, pretend = 0, frame = 8
  95              		@ frame_needed = 0, uses_anonymous_args = 0
  96 0000 00B5     		push	{lr}
  97              		.cfi_def_cfa_offset 4
  98              		.cfi_offset 14, -4
  99 0002 83B0     		sub	sp, sp, #12
 100              		.cfi_def_cfa_offset 16
 101 0004 0190     		str	r0, [sp, #4]
 102              		.loc 1 104 0
 103 0006 244A     		ldr	r2, .L3
 104 0008 234B     		ldr	r3, .L3
 105 000a 1B6B     		ldr	r3, [r3, #48]
 106 000c 6FEA5323 		mvn	r3, r3, lsr #9
 107 0010 6FEA4323 		mvn	r3, r3, lsl #9
 108 0014 1363     		str	r3, [r2, #48]
 109              		.loc 1 105 0
 110 0016 204A     		ldr	r2, .L3
 111 0018 1F4B     		ldr	r3, .L3
 112 001a 1B6D     		ldr	r3, [r3, #80]
 113 001c 6FEA5323 		mvn	r3, r3, lsr #9
 114 0020 6FEA4323 		mvn	r3, r3, lsl #9
ARM GAS  /tmp/cc3cX26Q.s 			page 3


 115 0024 1365     		str	r3, [r2, #80]
 116              		.loc 1 112 0
 117 0026 019B     		ldr	r3, [sp, #4]
 118 0028 1946     		mov	r1, r3
 119 002a 1C48     		ldr	r0, .L3+4
 120 002c FFF7FEFF 		bl	initgpio
 121              		.loc 1 115 0
 122 0030 019B     		ldr	r3, [sp, #4]
 123 0032 1C33     		adds	r3, r3, #28
 124 0034 1946     		mov	r1, r3
 125 0036 1A48     		ldr	r0, .L3+8
 126 0038 FFF7FEFF 		bl	initgpio
 127              		.loc 1 118 0
 128 003c 019B     		ldr	r3, [sp, #4]
 129 003e 3833     		adds	r3, r3, #56
 130 0040 1946     		mov	r1, r3
 131 0042 1848     		ldr	r0, .L3+12
 132 0044 FFF7FEFF 		bl	initgpio
 133              		.loc 1 121 0
 134 0048 019B     		ldr	r3, [sp, #4]
 135 004a 5433     		adds	r3, r3, #84
 136 004c 1946     		mov	r1, r3
 137 004e 1648     		ldr	r0, .L3+16
 138 0050 FFF7FEFF 		bl	initgpio
 139              		.loc 1 124 0
 140 0054 019B     		ldr	r3, [sp, #4]
 141 0056 7033     		adds	r3, r3, #112
 142 0058 1946     		mov	r1, r3
 143 005a 1448     		ldr	r0, .L3+20
 144 005c FFF7FEFF 		bl	initgpio
 145              		.loc 1 127 0
 146 0060 019B     		ldr	r3, [sp, #4]
 147 0062 8C33     		adds	r3, r3, #140
 148 0064 1946     		mov	r1, r3
 149 0066 1248     		ldr	r0, .L3+24
 150 0068 FFF7FEFF 		bl	initgpio
 151              		.loc 1 130 0
 152 006c 019B     		ldr	r3, [sp, #4]
 153 006e A833     		adds	r3, r3, #168
 154 0070 1946     		mov	r1, r3
 155 0072 1048     		ldr	r0, .L3+28
 156 0074 FFF7FEFF 		bl	initgpio
 157              		.loc 1 133 0
 158 0078 019B     		ldr	r3, [sp, #4]
 159 007a C433     		adds	r3, r3, #196
 160 007c 1946     		mov	r1, r3
 161 007e 0E48     		ldr	r0, .L3+32
 162 0080 FFF7FEFF 		bl	initgpio
 163              		.loc 1 136 0
 164 0084 019B     		ldr	r3, [sp, #4]
 165 0086 E033     		adds	r3, r3, #224
 166 0088 1946     		mov	r1, r3
 167 008a 0C48     		ldr	r0, .L3+36
 168 008c FFF7FEFF 		bl	initgpio
 169              		.loc 1 144 0
 170 0090 00BF     		nop
 171 0092 03B0     		add	sp, sp, #12
ARM GAS  /tmp/cc3cX26Q.s 			page 4


 172              		.cfi_def_cfa_offset 4
 173              		@ sp needed
 174 0094 5DF804FB 		ldr	pc, [sp], #4
 175              	.L4:
 176              		.align	2
 177              	.L3:
 178 0098 00380240 		.word	1073887232
 179 009c 00000240 		.word	1073872896
 180 00a0 00040240 		.word	1073873920
 181 00a4 00080240 		.word	1073874944
 182 00a8 000C0240 		.word	1073875968
 183 00ac 00100240 		.word	1073876992
 184 00b0 00140240 		.word	1073878016
 185 00b4 00180240 		.word	1073879040
 186 00b8 001C0240 		.word	1073880064
 187 00bc 00200240 		.word	1073881088
 188              		.cfi_endproc
 189              	.LFE269:
 190              		.size	_pal_lld_init, .-_pal_lld_init
 191              		.section	.text._pal_lld_setgroupmode,"ax",%progbits
 192              		.align	1
 193              		.p2align 4,,15
 194              		.global	_pal_lld_setgroupmode
 195              		.syntax unified
 196              		.thumb
 197              		.thumb_func
 198              		.fpu fpv4-sp-d16
 199              		.type	_pal_lld_setgroupmode, %function
 200              	_pal_lld_setgroupmode:
 201              	.LFB270:
 202              		.loc 1 161 0
 203              		.cfi_startproc
 204              		@ args = 0, pretend = 0, frame = 56
 205              		@ frame_needed = 0, uses_anonymous_args = 0
 206              		@ link register save eliminated.
 207 0000 8EB0     		sub	sp, sp, #56
 208              		.cfi_def_cfa_offset 56
 209 0002 0390     		str	r0, [sp, #12]
 210 0004 0291     		str	r1, [sp, #8]
 211 0006 0192     		str	r2, [sp, #4]
 212              		.loc 1 163 0
 213 0008 019B     		ldr	r3, [sp, #4]
 214 000a 03F00303 		and	r3, r3, #3
 215 000e 0D93     		str	r3, [sp, #52]
 216              		.loc 1 164 0
 217 0010 019B     		ldr	r3, [sp, #4]
 218 0012 9B08     		lsrs	r3, r3, #2
 219 0014 03F00103 		and	r3, r3, #1
 220 0018 0C93     		str	r3, [sp, #48]
 221              		.loc 1 165 0
 222 001a 019B     		ldr	r3, [sp, #4]
 223 001c DB08     		lsrs	r3, r3, #3
 224 001e 03F00303 		and	r3, r3, #3
 225 0022 0B93     		str	r3, [sp, #44]
 226              		.loc 1 166 0
 227 0024 019B     		ldr	r3, [sp, #4]
 228 0026 5B09     		lsrs	r3, r3, #5
ARM GAS  /tmp/cc3cX26Q.s 			page 5


 229 0028 03F00303 		and	r3, r3, #3
 230 002c 0A93     		str	r3, [sp, #40]
 231              		.loc 1 167 0
 232 002e 019B     		ldr	r3, [sp, #4]
 233 0030 DB09     		lsrs	r3, r3, #7
 234 0032 03F00F03 		and	r3, r3, #15
 235 0036 0893     		str	r3, [sp, #32]
 236              		.loc 1 168 0
 237 0038 0023     		movs	r3, #0
 238 003a 0993     		str	r3, [sp, #36]
 239              	.L13:
 240              		.loc 1 170 0
 241 003c 029B     		ldr	r3, [sp, #8]
 242 003e 03F00103 		and	r3, r3, #1
 243 0042 002B     		cmp	r3, #0
 244 0044 79D0     		beq	.L6
 245              	.LBB2:
 246              		.loc 1 173 0
 247 0046 099B     		ldr	r3, [sp, #36]
 248 0048 03F00703 		and	r3, r3, #7
 249 004c 9B00     		lsls	r3, r3, #2
 250 004e 089A     		ldr	r2, [sp, #32]
 251 0050 02FA03F3 		lsl	r3, r2, r3
 252 0054 0793     		str	r3, [sp, #28]
 253              		.loc 1 174 0
 254 0056 0122     		movs	r2, #1
 255 0058 099B     		ldr	r3, [sp, #36]
 256 005a 02FA03F3 		lsl	r3, r2, r3
 257 005e 0693     		str	r3, [sp, #24]
 258              		.loc 1 175 0
 259 0060 099B     		ldr	r3, [sp, #36]
 260 0062 5B00     		lsls	r3, r3, #1
 261 0064 0322     		movs	r2, #3
 262 0066 02FA03F3 		lsl	r3, r2, r3
 263 006a 0593     		str	r3, [sp, #20]
 264              		.loc 1 176 0
 265 006c 099B     		ldr	r3, [sp, #36]
 266 006e 03F00703 		and	r3, r3, #7
 267 0072 9B00     		lsls	r3, r3, #2
 268 0074 0F22     		movs	r2, #15
 269 0076 02FA03F3 		lsl	r3, r2, r3
 270 007a 0493     		str	r3, [sp, #16]
 271              		.loc 1 177 0
 272 007c 039B     		ldr	r3, [sp, #12]
 273 007e 5A68     		ldr	r2, [r3, #4]
 274 0080 069B     		ldr	r3, [sp, #24]
 275 0082 DB43     		mvns	r3, r3
 276 0084 1A40     		ands	r2, r2, r3
 277 0086 0C9B     		ldr	r3, [sp, #48]
 278 0088 1A43     		orrs	r2, r2, r3
 279 008a 039B     		ldr	r3, [sp, #12]
 280 008c 5A60     		str	r2, [r3, #4]
 281              		.loc 1 178 0
 282 008e 039B     		ldr	r3, [sp, #12]
 283 0090 9A68     		ldr	r2, [r3, #8]
 284 0092 059B     		ldr	r3, [sp, #20]
 285 0094 DB43     		mvns	r3, r3
ARM GAS  /tmp/cc3cX26Q.s 			page 6


 286 0096 1A40     		ands	r2, r2, r3
 287 0098 0B9B     		ldr	r3, [sp, #44]
 288 009a 1A43     		orrs	r2, r2, r3
 289 009c 039B     		ldr	r3, [sp, #12]
 290 009e 9A60     		str	r2, [r3, #8]
 291              		.loc 1 179 0
 292 00a0 039B     		ldr	r3, [sp, #12]
 293 00a2 DA68     		ldr	r2, [r3, #12]
 294 00a4 059B     		ldr	r3, [sp, #20]
 295 00a6 DB43     		mvns	r3, r3
 296 00a8 1A40     		ands	r2, r2, r3
 297 00aa 0A9B     		ldr	r3, [sp, #40]
 298 00ac 1A43     		orrs	r2, r2, r3
 299 00ae 039B     		ldr	r3, [sp, #12]
 300 00b0 DA60     		str	r2, [r3, #12]
 301              		.loc 1 180 0
 302 00b2 019B     		ldr	r3, [sp, #4]
 303 00b4 03F00303 		and	r3, r3, #3
 304 00b8 022B     		cmp	r3, #2
 305 00ba 1FD1     		bne	.L7
 306              		.loc 1 183 0
 307 00bc 099B     		ldr	r3, [sp, #36]
 308 00be 072B     		cmp	r3, #7
 309 00c0 09D8     		bhi	.L8
 310              		.loc 1 184 0
 311 00c2 039B     		ldr	r3, [sp, #12]
 312 00c4 1A6A     		ldr	r2, [r3, #32]
 313 00c6 049B     		ldr	r3, [sp, #16]
 314 00c8 DB43     		mvns	r3, r3
 315 00ca 1A40     		ands	r2, r2, r3
 316 00cc 079B     		ldr	r3, [sp, #28]
 317 00ce 1A43     		orrs	r2, r2, r3
 318 00d0 039B     		ldr	r3, [sp, #12]
 319 00d2 1A62     		str	r2, [r3, #32]
 320 00d4 08E0     		b	.L9
 321              	.L8:
 322              		.loc 1 186 0
 323 00d6 039B     		ldr	r3, [sp, #12]
 324 00d8 5A6A     		ldr	r2, [r3, #36]
 325 00da 049B     		ldr	r3, [sp, #16]
 326 00dc DB43     		mvns	r3, r3
 327 00de 1A40     		ands	r2, r2, r3
 328 00e0 079B     		ldr	r3, [sp, #28]
 329 00e2 1A43     		orrs	r2, r2, r3
 330 00e4 039B     		ldr	r3, [sp, #12]
 331 00e6 5A62     		str	r2, [r3, #36]
 332              	.L9:
 333              		.loc 1 187 0
 334 00e8 039B     		ldr	r3, [sp, #12]
 335 00ea 1A68     		ldr	r2, [r3]
 336 00ec 059B     		ldr	r3, [sp, #20]
 337 00ee DB43     		mvns	r3, r3
 338 00f0 1A40     		ands	r2, r2, r3
 339 00f2 0D9B     		ldr	r3, [sp, #52]
 340 00f4 1A43     		orrs	r2, r2, r3
 341 00f6 039B     		ldr	r3, [sp, #12]
 342 00f8 1A60     		str	r2, [r3]
ARM GAS  /tmp/cc3cX26Q.s 			page 7


 343 00fa 1EE0     		b	.L6
 344              	.L7:
 345              		.loc 1 192 0
 346 00fc 039B     		ldr	r3, [sp, #12]
 347 00fe 1A68     		ldr	r2, [r3]
 348 0100 059B     		ldr	r3, [sp, #20]
 349 0102 DB43     		mvns	r3, r3
 350 0104 1A40     		ands	r2, r2, r3
 351 0106 0D9B     		ldr	r3, [sp, #52]
 352 0108 1A43     		orrs	r2, r2, r3
 353 010a 039B     		ldr	r3, [sp, #12]
 354 010c 1A60     		str	r2, [r3]
 355              		.loc 1 193 0
 356 010e 099B     		ldr	r3, [sp, #36]
 357 0110 072B     		cmp	r3, #7
 358 0112 09D8     		bhi	.L10
 359              		.loc 1 194 0
 360 0114 039B     		ldr	r3, [sp, #12]
 361 0116 1A6A     		ldr	r2, [r3, #32]
 362 0118 049B     		ldr	r3, [sp, #16]
 363 011a DB43     		mvns	r3, r3
 364 011c 1A40     		ands	r2, r2, r3
 365 011e 079B     		ldr	r3, [sp, #28]
 366 0120 1A43     		orrs	r2, r2, r3
 367 0122 039B     		ldr	r3, [sp, #12]
 368 0124 1A62     		str	r2, [r3, #32]
 369 0126 08E0     		b	.L6
 370              	.L10:
 371              		.loc 1 196 0
 372 0128 039B     		ldr	r3, [sp, #12]
 373 012a 5A6A     		ldr	r2, [r3, #36]
 374 012c 049B     		ldr	r3, [sp, #16]
 375 012e DB43     		mvns	r3, r3
 376 0130 1A40     		ands	r2, r2, r3
 377 0132 079B     		ldr	r3, [sp, #28]
 378 0134 1A43     		orrs	r2, r2, r3
 379 0136 039B     		ldr	r3, [sp, #12]
 380 0138 5A62     		str	r2, [r3, #36]
 381              	.L6:
 382              	.LBE2:
 383              		.loc 1 199 0
 384 013a 029B     		ldr	r3, [sp, #8]
 385 013c 5B08     		lsrs	r3, r3, #1
 386 013e 0293     		str	r3, [sp, #8]
 387              		.loc 1 200 0
 388 0140 029B     		ldr	r3, [sp, #8]
 389 0142 002B     		cmp	r3, #0
 390 0144 0FD0     		beq	.L15
 391              		.loc 1 202 0
 392 0146 0C9B     		ldr	r3, [sp, #48]
 393 0148 5B00     		lsls	r3, r3, #1
 394 014a 0C93     		str	r3, [sp, #48]
 395              		.loc 1 203 0
 396 014c 0B9B     		ldr	r3, [sp, #44]
 397 014e 9B00     		lsls	r3, r3, #2
 398 0150 0B93     		str	r3, [sp, #44]
 399              		.loc 1 204 0
ARM GAS  /tmp/cc3cX26Q.s 			page 8


 400 0152 0A9B     		ldr	r3, [sp, #40]
 401 0154 9B00     		lsls	r3, r3, #2
 402 0156 0A93     		str	r3, [sp, #40]
 403              		.loc 1 205 0
 404 0158 0D9B     		ldr	r3, [sp, #52]
 405 015a 9B00     		lsls	r3, r3, #2
 406 015c 0D93     		str	r3, [sp, #52]
 407              		.loc 1 206 0
 408 015e 099B     		ldr	r3, [sp, #36]
 409 0160 0133     		adds	r3, r3, #1
 410 0162 0993     		str	r3, [sp, #36]
 411              		.loc 1 170 0
 412 0164 6AE7     		b	.L13
 413              	.L15:
 414              		.loc 1 201 0
 415 0166 00BF     		nop
 416              		.loc 1 208 0
 417 0168 0EB0     		add	sp, sp, #56
 418              		.cfi_def_cfa_offset 0
 419              		@ sp needed
 420 016a 7047     		bx	lr
 421              		.cfi_endproc
 422              	.LFE270:
 423              		.size	_pal_lld_setgroupmode, .-_pal_lld_setgroupmode
 424              		.text
 425              	.Letext0:
 426              		.file 2 "/usr/lib/gcc/arm-none-eabi/6.3.1/include/stddef.h"
 427              		.file 3 "/usr/arm-none-eabi/include/machine/_default_types.h"
 428              		.file 4 "/usr/arm-none-eabi/include/sys/_stdint.h"
 429              		.file 5 "../ChibiOS/os/rt/ports/ARMCMx/compilers/GCC/chtypes.h"
 430              		.file 6 "../ChibiOS/os/rt/include/chsystypes.h"
 431              		.file 7 "../ChibiOS/os/rt/include/chschd.h"
 432              		.file 8 "../ChibiOS/os/ext/CMSIS/include/core_cm4.h"
 433              		.file 9 "../ChibiOS/os/ext/CMSIS/ST/STM32F4xx/system_stm32f4xx.h"
 434              		.file 10 "../ChibiOS/os/ext/CMSIS/ST/STM32F4xx/stm32f437xx.h"
 435              		.file 11 "../ChibiOS/os/rt/ports/ARMCMx/chcore.h"
 436              		.file 12 "../ChibiOS/os/rt/ports/ARMCMx/chcore_v7m.h"
 437              		.file 13 "../ChibiOS/os/rt/include/chtm.h"
 438              		.file 14 "../ChibiOS/os/rt/include/chstats.h"
 439              		.file 15 "../ChibiOS/os/rt/include/chsem.h"
 440              		.file 16 "../ChibiOS/os/rt/include/chmtx.h"
 441              		.file 17 "../ChibiOS/os/rt/include/chregistry.h"
 442              		.file 18 "../ChibiOS/os/rt/include/chevents.h"
 443              		.file 19 "../ChibiOS/os/rt/include/chqueues.h"
 444              		.file 20 "../ChibiOS/os/hal/ports/STM32/LLD/DMAv2/stm32_dma.h"
 445              		.file 21 "../ChibiOS/os/hal/ports/STM32/LLD/GPIOv2/pal_lld.h"
 446              		.file 22 "../ChibiOS/os/hal/include/ext.h"
 447              		.file 23 "../ChibiOS/os/hal/ports/STM32/LLD/EXTIv1/ext_lld.h"
 448              		.file 24 "../ChibiOS/os/hal/include/gpt.h"
 449              		.file 25 "../ChibiOS/os/hal/ports/STM32/LLD/TIMv1/gpt_lld.h"
 450              		.file 26 "../ChibiOS/os/hal/ports/STM32/LLD/TIMv1/stm32_tim.h"
 451              		.file 27 "../ChibiOS/os/hal/include/pwm.h"
 452              		.file 28 "../ChibiOS/os/hal/ports/STM32/LLD/TIMv1/pwm_lld.h"
 453              		.file 29 "../ChibiOS/os/hal/include/serial.h"
 454              		.file 30 "../ChibiOS/os/hal/ports/STM32/LLD/USARTv1/serial_lld.h"
 455              		.file 31 "../ChibiOS/os/hal/include/usb.h"
 456              		.file 32 "../ChibiOS/os/hal/ports/STM32/LLD/OTGv1/usb_lld.h"
ARM GAS  /tmp/cc3cX26Q.s 			page 9


 457              		.file 33 "../ChibiOS/os/hal/ports/STM32/LLD/OTGv1/stm32_otg.h"