ARM GAS  /tmp/ccsabEEe.s 			page 1


   1              		.cpu cortex-m4
   2              		.eabi_attribute 27, 1
   3              		.eabi_attribute 28, 1
   4              		.eabi_attribute 20, 1
   5              		.eabi_attribute 21, 1
   6              		.eabi_attribute 23, 3
   7              		.eabi_attribute 24, 1
   8              		.eabi_attribute 25, 1
   9              		.eabi_attribute 26, 1
  10              		.eabi_attribute 30, 6
  11              		.eabi_attribute 34, 1
  12              		.eabi_attribute 18, 4
  13              		.file	"pwm.c"
  14              		.text
  15              	.Ltext0:
  16              		.cfi_sections	.debug_frame
  17              		.section	.text.port_lock,"ax",%progbits
  18              		.align	1
  19              		.p2align 4,,15
  20              		.syntax unified
  21              		.thumb
  22              		.thumb_func
  23              		.fpu fpv4-sp-d16
  24              		.type	port_lock, %function
  25              	port_lock:
  26              	.LFB127:
  27              		.file 1 "../ChibiOS/os/rt/ports/ARMCMx/chcore_v7m.h"
  28              		.loc 1 456 0
  29              		.cfi_startproc
  30              		@ args = 0, pretend = 0, frame = 8
  31              		@ frame_needed = 0, uses_anonymous_args = 0
  32              		@ link register save eliminated.
  33 0000 82B0     		sub	sp, sp, #8
  34              		.cfi_def_cfa_offset 8
  35 0002 2023     		movs	r3, #32
  36 0004 0193     		str	r3, [sp, #4]
  37              	.LBB6:
  38              	.LBB7:
  39              		.file 2 "../ChibiOS/os/ext/CMSIS/include/core_cmFunc.h"
  40              		.loc 2 548 0
  41 0006 019B     		ldr	r3, [sp, #4]
  42              		.syntax unified
  43              	@ 548 "../ChibiOS/os/ext/CMSIS/include/core_cmFunc.h" 1
  44 0008 83F31188 		MSR basepri, r3
  45              	@ 0 "" 2
  46              		.thumb
  47              		.syntax unified
  48              	.LBE7:
  49              	.LBE6:
  50              		.loc 1 473 0
  51 000c 00BF     		nop
  52 000e 02B0     		add	sp, sp, #8
  53              		.cfi_def_cfa_offset 0
  54              		@ sp needed
  55 0010 7047     		bx	lr
  56              		.cfi_endproc
  57              	.LFE127:
ARM GAS  /tmp/ccsabEEe.s 			page 2


  58              		.size	port_lock, .-port_lock
  59 0012 00BF     		.section	.text.port_unlock,"ax",%progbits
  60              		.align	1
  61              		.p2align 4,,15
  62              		.syntax unified
  63              		.thumb
  64              		.thumb_func
  65              		.fpu fpv4-sp-d16
  66              		.type	port_unlock, %function
  67              	port_unlock:
  68              	.LFB128:
  69              		.loc 1 480 0
  70              		.cfi_startproc
  71              		@ args = 0, pretend = 0, frame = 8
  72              		@ frame_needed = 0, uses_anonymous_args = 0
  73              		@ link register save eliminated.
  74 0000 82B0     		sub	sp, sp, #8
  75              		.cfi_def_cfa_offset 8
  76 0002 0023     		movs	r3, #0
  77 0004 0193     		str	r3, [sp, #4]
  78              	.LBB8:
  79              	.LBB9:
  80              		.loc 2 548 0
  81 0006 019B     		ldr	r3, [sp, #4]
  82              		.syntax unified
  83              	@ 548 "../ChibiOS/os/ext/CMSIS/include/core_cmFunc.h" 1
  84 0008 83F31188 		MSR basepri, r3
  85              	@ 0 "" 2
  86              		.thumb
  87              		.syntax unified
  88              	.LBE9:
  89              	.LBE8:
  90              		.loc 1 487 0
  91 000c 00BF     		nop
  92 000e 02B0     		add	sp, sp, #8
  93              		.cfi_def_cfa_offset 0
  94              		@ sp needed
  95 0010 7047     		bx	lr
  96              		.cfi_endproc
  97              	.LFE128:
  98              		.size	port_unlock, .-port_unlock
  99 0012 00BF     		.section	.text.chSysLock,"ax",%progbits
 100              		.align	1
 101              		.p2align 4,,15
 102              		.syntax unified
 103              		.thumb
 104              		.thumb_func
 105              		.fpu fpv4-sp-d16
 106              		.type	chSysLock, %function
 107              	chSysLock:
 108              	.LFB156:
 109              		.file 3 "../ChibiOS/os/rt/include/chsys.h"
 110              		.loc 3 346 0
 111              		.cfi_startproc
 112              		@ args = 0, pretend = 0, frame = 0
 113              		@ frame_needed = 0, uses_anonymous_args = 0
 114 0000 08B5     		push	{r3, lr}
ARM GAS  /tmp/ccsabEEe.s 			page 3


 115              		.cfi_def_cfa_offset 8
 116              		.cfi_offset 3, -8
 117              		.cfi_offset 14, -4
 118              		.loc 3 348 0
 119 0002 FFF7FEFF 		bl	port_lock
 120              		.loc 3 349 0
 121 0006 FFF7FEFF 		bl	_stats_start_measure_crit_thd
 122              		.loc 3 350 0
 123 000a FFF7FEFF 		bl	_dbg_check_lock
 124              		.loc 3 351 0
 125 000e 00BF     		nop
 126 0010 08BD     		pop	{r3, pc}
 127              		.cfi_endproc
 128              	.LFE156:
 129              		.size	chSysLock, .-chSysLock
 130 0012 00BF     		.section	.text.chSysUnlock,"ax",%progbits
 131              		.align	1
 132              		.p2align 4,,15
 133              		.syntax unified
 134              		.thumb
 135              		.thumb_func
 136              		.fpu fpv4-sp-d16
 137              		.type	chSysUnlock, %function
 138              	chSysUnlock:
 139              	.LFB157:
 140              		.loc 3 358 0
 141              		.cfi_startproc
 142              		@ args = 0, pretend = 0, frame = 0
 143              		@ frame_needed = 0, uses_anonymous_args = 0
 144 0000 08B5     		push	{r3, lr}
 145              		.cfi_def_cfa_offset 8
 146              		.cfi_offset 3, -8
 147              		.cfi_offset 14, -4
 148              		.loc 3 360 0
 149 0002 FFF7FEFF 		bl	_dbg_check_unlock
 150              		.loc 3 361 0
 151 0006 FFF7FEFF 		bl	_stats_stop_measure_crit_thd
 152              		.loc 3 367 0
 153 000a 0A4B     		ldr	r3, .L6
 154 000c 1B68     		ldr	r3, [r3]
 155 000e 094A     		ldr	r2, .L6
 156 0010 9342     		cmp	r3, r2
 157 0012 0AD0     		beq	.L5
 158              		.loc 3 367 0 is_stmt 0 discriminator 2
 159 0014 074B     		ldr	r3, .L6
 160 0016 9B69     		ldr	r3, [r3, #24]
 161 0018 9A68     		ldr	r2, [r3, #8]
 162 001a 064B     		ldr	r3, .L6
 163 001c 1B68     		ldr	r3, [r3]
 164 001e 9B68     		ldr	r3, [r3, #8]
 165 0020 9A42     		cmp	r2, r3
 166 0022 02D2     		bcs	.L5
 167              		.loc 3 367 0 discriminator 3
 168 0024 0448     		ldr	r0, .L6+4
 169 0026 FFF7FEFF 		bl	chSysHalt
 170              	.L5:
 171              		.loc 3 371 0 is_stmt 1
ARM GAS  /tmp/ccsabEEe.s 			page 4


 172 002a FFF7FEFF 		bl	port_unlock
 173              		.loc 3 372 0
 174 002e 00BF     		nop
 175 0030 08BD     		pop	{r3, pc}
 176              	.L7:
 177 0032 00BF     		.align	2
 178              	.L6:
 179 0034 00000000 		.word	ch
 180 0038 00000000 		.word	__func__.7157
 181              		.cfi_endproc
 182              	.LFE157:
 183              		.size	chSysUnlock, .-chSysUnlock
 184              		.section	.text.osalSysLock,"ax",%progbits
 185              		.align	1
 186              		.p2align 4,,15
 187              		.syntax unified
 188              		.thumb
 189              		.thumb_func
 190              		.fpu fpv4-sp-d16
 191              		.type	osalSysLock, %function
 192              	osalSysLock:
 193              	.LFB235:
 194              		.file 4 "../ChibiOS/os/hal/osal/rt/osal.h"
 195              		.loc 4 491 0
 196              		.cfi_startproc
 197              		@ args = 0, pretend = 0, frame = 0
 198              		@ frame_needed = 0, uses_anonymous_args = 0
 199 0000 08B5     		push	{r3, lr}
 200              		.cfi_def_cfa_offset 8
 201              		.cfi_offset 3, -8
 202              		.cfi_offset 14, -4
 203              		.loc 4 493 0
 204 0002 FFF7FEFF 		bl	chSysLock
 205              		.loc 4 494 0
 206 0006 00BF     		nop
 207 0008 08BD     		pop	{r3, pc}
 208              		.cfi_endproc
 209              	.LFE235:
 210              		.size	osalSysLock, .-osalSysLock
 211 000a 00BF     		.section	.text.osalSysUnlock,"ax",%progbits
 212              		.align	1
 213              		.p2align 4,,15
 214              		.syntax unified
 215              		.thumb
 216              		.thumb_func
 217              		.fpu fpv4-sp-d16
 218              		.type	osalSysUnlock, %function
 219              	osalSysUnlock:
 220              	.LFB236:
 221              		.loc 4 502 0
 222              		.cfi_startproc
 223              		@ args = 0, pretend = 0, frame = 0
 224              		@ frame_needed = 0, uses_anonymous_args = 0
 225 0000 08B5     		push	{r3, lr}
 226              		.cfi_def_cfa_offset 8
 227              		.cfi_offset 3, -8
 228              		.cfi_offset 14, -4
ARM GAS  /tmp/ccsabEEe.s 			page 5


 229              		.loc 4 504 0
 230 0002 FFF7FEFF 		bl	chSysUnlock
 231              		.loc 4 505 0
 232 0006 00BF     		nop
 233 0008 08BD     		pop	{r3, pc}
 234              		.cfi_endproc
 235              	.LFE236:
 236              		.size	osalSysUnlock, .-osalSysUnlock
 237              		.section	.text.pwmInit,"ax",%progbits
 238              		.align	1
 239              		.p2align 4,,15
 240              		.global	pwmInit
 241              		.syntax unified
 242              		.thumb
 243              		.thumb_func
 244              		.fpu fpv4-sp-d16
 245              		.type	pwmInit, %function
 246              	pwmInit:
 247              	.LFB268:
 248              		.file 5 "../ChibiOS/os/hal/src/pwm.c"
 249              		.loc 5 56 0
 250              		.cfi_startproc
 251              		@ args = 0, pretend = 0, frame = 0
 252              		@ frame_needed = 0, uses_anonymous_args = 0
 253 0000 08B5     		push	{r3, lr}
 254              		.cfi_def_cfa_offset 8
 255              		.cfi_offset 3, -8
 256              		.cfi_offset 14, -4
 257              		.loc 5 58 0
 258 0002 FFF7FEFF 		bl	pwm_lld_init
 259              		.loc 5 59 0
 260 0006 00BF     		nop
 261 0008 08BD     		pop	{r3, pc}
 262              		.cfi_endproc
 263              	.LFE268:
 264              		.size	pwmInit, .-pwmInit
 265 000a 00BF     		.section	.text.pwmObjectInit,"ax",%progbits
 266              		.align	1
 267              		.p2align 4,,15
 268              		.global	pwmObjectInit
 269              		.syntax unified
 270              		.thumb
 271              		.thumb_func
 272              		.fpu fpv4-sp-d16
 273              		.type	pwmObjectInit, %function
 274              	pwmObjectInit:
 275              	.LFB269:
 276              		.loc 5 68 0
 277              		.cfi_startproc
 278              		@ args = 0, pretend = 0, frame = 8
 279              		@ frame_needed = 0, uses_anonymous_args = 0
 280              		@ link register save eliminated.
 281 0000 82B0     		sub	sp, sp, #8
 282              		.cfi_def_cfa_offset 8
 283 0002 0190     		str	r0, [sp, #4]
 284              		.loc 5 70 0
 285 0004 019B     		ldr	r3, [sp, #4]
ARM GAS  /tmp/ccsabEEe.s 			page 6


 286 0006 0122     		movs	r2, #1
 287 0008 1A70     		strb	r2, [r3]
 288              		.loc 5 71 0
 289 000a 019B     		ldr	r3, [sp, #4]
 290 000c 0022     		movs	r2, #0
 291 000e 5A60     		str	r2, [r3, #4]
 292              		.loc 5 72 0
 293 0010 019B     		ldr	r3, [sp, #4]
 294 0012 0022     		movs	r2, #0
 295 0014 DA60     		str	r2, [r3, #12]
 296              		.loc 5 73 0
 297 0016 019B     		ldr	r3, [sp, #4]
 298 0018 0022     		movs	r2, #0
 299 001a 1A74     		strb	r2, [r3, #16]
 300              		.loc 5 77 0
 301 001c 00BF     		nop
 302 001e 02B0     		add	sp, sp, #8
 303              		.cfi_def_cfa_offset 0
 304              		@ sp needed
 305 0020 7047     		bx	lr
 306              		.cfi_endproc
 307              	.LFE269:
 308              		.size	pwmObjectInit, .-pwmObjectInit
 309 0022 00BF     		.section	.text.pwmStart,"ax",%progbits
 310              		.align	1
 311              		.p2align 4,,15
 312              		.global	pwmStart
 313              		.syntax unified
 314              		.thumb
 315              		.thumb_func
 316              		.fpu fpv4-sp-d16
 317              		.type	pwmStart, %function
 318              	pwmStart:
 319              	.LFB270:
 320              		.loc 5 89 0
 321              		.cfi_startproc
 322              		@ args = 0, pretend = 0, frame = 8
 323              		@ frame_needed = 0, uses_anonymous_args = 0
 324 0000 00B5     		push	{lr}
 325              		.cfi_def_cfa_offset 4
 326              		.cfi_offset 14, -4
 327 0002 83B0     		sub	sp, sp, #12
 328              		.cfi_def_cfa_offset 16
 329 0004 0190     		str	r0, [sp, #4]
 330 0006 0091     		str	r1, [sp]
 331              		.loc 5 91 0
 332 0008 019B     		ldr	r3, [sp, #4]
 333 000a 002B     		cmp	r3, #0
 334 000c 02D0     		beq	.L13
 335              		.loc 5 91 0 is_stmt 0 discriminator 3
 336 000e 009B     		ldr	r3, [sp]
 337 0010 002B     		cmp	r3, #0
 338 0012 02D1     		bne	.L14
 339              	.L13:
 340              		.loc 5 91 0 discriminator 4
 341 0014 1248     		ldr	r0, .L16
 342 0016 FFF7FEFF 		bl	chSysHalt
ARM GAS  /tmp/ccsabEEe.s 			page 7


 343              	.L14:
 344              		.loc 5 93 0 is_stmt 1
 345 001a FFF7FEFF 		bl	osalSysLock
 346              		.loc 5 94 0
 347 001e 019B     		ldr	r3, [sp, #4]
 348 0020 1B78     		ldrb	r3, [r3]	@ zero_extendqisi2
 349 0022 012B     		cmp	r3, #1
 350 0024 06D0     		beq	.L15
 351              		.loc 5 94 0 is_stmt 0 discriminator 2
 352 0026 019B     		ldr	r3, [sp, #4]
 353 0028 1B78     		ldrb	r3, [r3]	@ zero_extendqisi2
 354 002a 022B     		cmp	r3, #2
 355 002c 02D0     		beq	.L15
 356              		.loc 5 94 0 discriminator 3
 357 002e 0C48     		ldr	r0, .L16
 358 0030 FFF7FEFF 		bl	chSysHalt
 359              	.L15:
 360              		.loc 5 96 0 is_stmt 1
 361 0034 019B     		ldr	r3, [sp, #4]
 362 0036 009A     		ldr	r2, [sp]
 363 0038 5A60     		str	r2, [r3, #4]
 364              		.loc 5 97 0
 365 003a 009B     		ldr	r3, [sp]
 366 003c 5A68     		ldr	r2, [r3, #4]
 367 003e 019B     		ldr	r3, [sp, #4]
 368 0040 9A60     		str	r2, [r3, #8]
 369              		.loc 5 98 0
 370 0042 0198     		ldr	r0, [sp, #4]
 371 0044 FFF7FEFF 		bl	pwm_lld_start
 372              		.loc 5 99 0
 373 0048 019B     		ldr	r3, [sp, #4]
 374 004a 0022     		movs	r2, #0
 375 004c DA60     		str	r2, [r3, #12]
 376              		.loc 5 100 0
 377 004e 019B     		ldr	r3, [sp, #4]
 378 0050 0222     		movs	r2, #2
 379 0052 1A70     		strb	r2, [r3]
 380              		.loc 5 101 0
 381 0054 FFF7FEFF 		bl	osalSysUnlock
 382              		.loc 5 102 0
 383 0058 00BF     		nop
 384 005a 03B0     		add	sp, sp, #12
 385              		.cfi_def_cfa_offset 4
 386              		@ sp needed
 387 005c 5DF804FB 		ldr	pc, [sp], #4
 388              	.L17:
 389              		.align	2
 390              	.L16:
 391 0060 00000000 		.word	__func__.9034
 392              		.cfi_endproc
 393              	.LFE270:
 394              		.size	pwmStart, .-pwmStart
 395              		.section	.text.pwmStop,"ax",%progbits
 396              		.align	1
 397              		.p2align 4,,15
 398              		.global	pwmStop
 399              		.syntax unified
ARM GAS  /tmp/ccsabEEe.s 			page 8


 400              		.thumb
 401              		.thumb_func
 402              		.fpu fpv4-sp-d16
 403              		.type	pwmStop, %function
 404              	pwmStop:
 405              	.LFB271:
 406              		.loc 5 111 0
 407              		.cfi_startproc
 408              		@ args = 0, pretend = 0, frame = 8
 409              		@ frame_needed = 0, uses_anonymous_args = 0
 410 0000 00B5     		push	{lr}
 411              		.cfi_def_cfa_offset 4
 412              		.cfi_offset 14, -4
 413 0002 83B0     		sub	sp, sp, #12
 414              		.cfi_def_cfa_offset 16
 415 0004 0190     		str	r0, [sp, #4]
 416              		.loc 5 113 0
 417 0006 019B     		ldr	r3, [sp, #4]
 418 0008 002B     		cmp	r3, #0
 419 000a 02D1     		bne	.L19
 420              		.loc 5 113 0 is_stmt 0 discriminator 2
 421 000c 0F48     		ldr	r0, .L21
 422 000e FFF7FEFF 		bl	chSysHalt
 423              	.L19:
 424              		.loc 5 115 0 is_stmt 1
 425 0012 FFF7FEFF 		bl	osalSysLock
 426              		.loc 5 116 0
 427 0016 019B     		ldr	r3, [sp, #4]
 428 0018 1B78     		ldrb	r3, [r3]	@ zero_extendqisi2
 429 001a 012B     		cmp	r3, #1
 430 001c 06D0     		beq	.L20
 431              		.loc 5 116 0 is_stmt 0 discriminator 2
 432 001e 019B     		ldr	r3, [sp, #4]
 433 0020 1B78     		ldrb	r3, [r3]	@ zero_extendqisi2
 434 0022 022B     		cmp	r3, #2
 435 0024 02D0     		beq	.L20
 436              		.loc 5 116 0 discriminator 3
 437 0026 0948     		ldr	r0, .L21
 438 0028 FFF7FEFF 		bl	chSysHalt
 439              	.L20:
 440              		.loc 5 118 0 is_stmt 1
 441 002c 0198     		ldr	r0, [sp, #4]
 442 002e FFF7FEFF 		bl	pwm_lld_stop
 443              		.loc 5 119 0
 444 0032 019B     		ldr	r3, [sp, #4]
 445 0034 0022     		movs	r2, #0
 446 0036 DA60     		str	r2, [r3, #12]
 447              		.loc 5 120 0
 448 0038 019B     		ldr	r3, [sp, #4]
 449 003a 0122     		movs	r2, #1
 450 003c 1A70     		strb	r2, [r3]
 451              		.loc 5 121 0
 452 003e FFF7FEFF 		bl	osalSysUnlock
 453              		.loc 5 122 0
 454 0042 00BF     		nop
 455 0044 03B0     		add	sp, sp, #12
 456              		.cfi_def_cfa_offset 4
ARM GAS  /tmp/ccsabEEe.s 			page 9


 457              		@ sp needed
 458 0046 5DF804FB 		ldr	pc, [sp], #4
 459              	.L22:
 460 004a 00BF     		.align	2
 461              	.L21:
 462 004c 00000000 		.word	__func__.9038
 463              		.cfi_endproc
 464              	.LFE271:
 465              		.size	pwmStop, .-pwmStop
 466              		.section	.text.pwmChangePeriod,"ax",%progbits
 467              		.align	1
 468              		.p2align 4,,15
 469              		.global	pwmChangePeriod
 470              		.syntax unified
 471              		.thumb
 472              		.thumb_func
 473              		.fpu fpv4-sp-d16
 474              		.type	pwmChangePeriod, %function
 475              	pwmChangePeriod:
 476              	.LFB272:
 477              		.loc 5 139 0
 478              		.cfi_startproc
 479              		@ args = 0, pretend = 0, frame = 8
 480              		@ frame_needed = 0, uses_anonymous_args = 0
 481 0000 00B5     		push	{lr}
 482              		.cfi_def_cfa_offset 4
 483              		.cfi_offset 14, -4
 484 0002 83B0     		sub	sp, sp, #12
 485              		.cfi_def_cfa_offset 16
 486 0004 0190     		str	r0, [sp, #4]
 487 0006 0091     		str	r1, [sp]
 488              		.loc 5 141 0
 489 0008 019B     		ldr	r3, [sp, #4]
 490 000a 002B     		cmp	r3, #0
 491 000c 02D1     		bne	.L24
 492              		.loc 5 141 0 is_stmt 0 discriminator 2
 493 000e 0D48     		ldr	r0, .L26
 494 0010 FFF7FEFF 		bl	chSysHalt
 495              	.L24:
 496              		.loc 5 143 0 is_stmt 1
 497 0014 FFF7FEFF 		bl	osalSysLock
 498              		.loc 5 144 0
 499 0018 019B     		ldr	r3, [sp, #4]
 500 001a 1B78     		ldrb	r3, [r3]	@ zero_extendqisi2
 501 001c 022B     		cmp	r3, #2
 502 001e 02D0     		beq	.L25
 503              		.loc 5 144 0 is_stmt 0 discriminator 2
 504 0020 0848     		ldr	r0, .L26
 505 0022 FFF7FEFF 		bl	chSysHalt
 506              	.L25:
 507              		.loc 5 145 0 is_stmt 1
 508 0026 019B     		ldr	r3, [sp, #4]
 509 0028 009A     		ldr	r2, [sp]
 510 002a 9A60     		str	r2, [r3, #8]
 511 002c 019B     		ldr	r3, [sp, #4]
 512 002e 9B69     		ldr	r3, [r3, #24]
 513 0030 009A     		ldr	r2, [sp]
ARM GAS  /tmp/ccsabEEe.s 			page 10


 514 0032 013A     		subs	r2, r2, #1
 515 0034 DA62     		str	r2, [r3, #44]
 516              		.loc 5 146 0
 517 0036 FFF7FEFF 		bl	osalSysUnlock
 518              		.loc 5 147 0
 519 003a 00BF     		nop
 520 003c 03B0     		add	sp, sp, #12
 521              		.cfi_def_cfa_offset 4
 522              		@ sp needed
 523 003e 5DF804FB 		ldr	pc, [sp], #4
 524              	.L27:
 525 0042 00BF     		.align	2
 526              	.L26:
 527 0044 00000000 		.word	__func__.9043
 528              		.cfi_endproc
 529              	.LFE272:
 530              		.size	pwmChangePeriod, .-pwmChangePeriod
 531              		.section	.text.pwmEnableChannel,"ax",%progbits
 532              		.align	1
 533              		.p2align 4,,15
 534              		.global	pwmEnableChannel
 535              		.syntax unified
 536              		.thumb
 537              		.thumb_func
 538              		.fpu fpv4-sp-d16
 539              		.type	pwmEnableChannel, %function
 540              	pwmEnableChannel:
 541              	.LFB273:
 542              		.loc 5 165 0
 543              		.cfi_startproc
 544              		@ args = 0, pretend = 0, frame = 16
 545              		@ frame_needed = 0, uses_anonymous_args = 0
 546 0000 00B5     		push	{lr}
 547              		.cfi_def_cfa_offset 4
 548              		.cfi_offset 14, -4
 549 0002 85B0     		sub	sp, sp, #20
 550              		.cfi_def_cfa_offset 24
 551 0004 0390     		str	r0, [sp, #12]
 552 0006 0B46     		mov	r3, r1
 553 0008 0192     		str	r2, [sp, #4]
 554 000a 8DF80B30 		strb	r3, [sp, #11]
 555              		.loc 5 167 0
 556 000e 039B     		ldr	r3, [sp, #12]
 557 0010 002B     		cmp	r3, #0
 558 0012 05D0     		beq	.L29
 559              		.loc 5 167 0 is_stmt 0 discriminator 3
 560 0014 039B     		ldr	r3, [sp, #12]
 561 0016 1B7C     		ldrb	r3, [r3, #16]	@ zero_extendqisi2
 562 0018 9DF80B20 		ldrb	r2, [sp, #11]	@ zero_extendqisi2
 563 001c 9A42     		cmp	r2, r3
 564 001e 02D3     		bcc	.L30
 565              	.L29:
 566              		.loc 5 167 0 discriminator 4
 567 0020 1148     		ldr	r0, .L32
 568 0022 FFF7FEFF 		bl	chSysHalt
 569              	.L30:
 570              		.loc 5 169 0 is_stmt 1
ARM GAS  /tmp/ccsabEEe.s 			page 11


 571 0026 FFF7FEFF 		bl	osalSysLock
 572              		.loc 5 171 0
 573 002a 039B     		ldr	r3, [sp, #12]
 574 002c 1B78     		ldrb	r3, [r3]	@ zero_extendqisi2
 575 002e 022B     		cmp	r3, #2
 576 0030 02D0     		beq	.L31
 577              		.loc 5 171 0 is_stmt 0 discriminator 2
 578 0032 0D48     		ldr	r0, .L32
 579 0034 FFF7FEFF 		bl	chSysHalt
 580              	.L31:
 581              		.loc 5 173 0 is_stmt 1
 582 0038 039B     		ldr	r3, [sp, #12]
 583 003a DA68     		ldr	r2, [r3, #12]
 584 003c 9DF80B30 		ldrb	r3, [sp, #11]	@ zero_extendqisi2
 585 0040 0121     		movs	r1, #1
 586 0042 01FA03F3 		lsl	r3, r1, r3
 587 0046 1A43     		orrs	r2, r2, r3
 588 0048 039B     		ldr	r3, [sp, #12]
 589 004a DA60     		str	r2, [r3, #12]
 590 004c 9DF80B30 		ldrb	r3, [sp, #11]	@ zero_extendqisi2
 591 0050 019A     		ldr	r2, [sp, #4]
 592 0052 1946     		mov	r1, r3
 593 0054 0398     		ldr	r0, [sp, #12]
 594 0056 FFF7FEFF 		bl	pwm_lld_enable_channel
 595              		.loc 5 175 0
 596 005a FFF7FEFF 		bl	osalSysUnlock
 597              		.loc 5 176 0
 598 005e 00BF     		nop
 599 0060 05B0     		add	sp, sp, #20
 600              		.cfi_def_cfa_offset 4
 601              		@ sp needed
 602 0062 5DF804FB 		ldr	pc, [sp], #4
 603              	.L33:
 604 0066 00BF     		.align	2
 605              	.L32:
 606 0068 00000000 		.word	__func__.9049
 607              		.cfi_endproc
 608              	.LFE273:
 609              		.size	pwmEnableChannel, .-pwmEnableChannel
 610              		.section	.text.pwmDisableChannel,"ax",%progbits
 611              		.align	1
 612              		.p2align 4,,15
 613              		.global	pwmDisableChannel
 614              		.syntax unified
 615              		.thumb
 616              		.thumb_func
 617              		.fpu fpv4-sp-d16
 618              		.type	pwmDisableChannel, %function
 619              	pwmDisableChannel:
 620              	.LFB274:
 621              		.loc 5 192 0
 622              		.cfi_startproc
 623              		@ args = 0, pretend = 0, frame = 8
 624              		@ frame_needed = 0, uses_anonymous_args = 0
 625 0000 00B5     		push	{lr}
 626              		.cfi_def_cfa_offset 4
 627              		.cfi_offset 14, -4
ARM GAS  /tmp/ccsabEEe.s 			page 12


 628 0002 83B0     		sub	sp, sp, #12
 629              		.cfi_def_cfa_offset 16
 630 0004 0190     		str	r0, [sp, #4]
 631 0006 0B46     		mov	r3, r1
 632 0008 8DF80330 		strb	r3, [sp, #3]
 633              		.loc 5 194 0
 634 000c 019B     		ldr	r3, [sp, #4]
 635 000e 002B     		cmp	r3, #0
 636 0010 05D0     		beq	.L35
 637              		.loc 5 194 0 is_stmt 0 discriminator 3
 638 0012 019B     		ldr	r3, [sp, #4]
 639 0014 1B7C     		ldrb	r3, [r3, #16]	@ zero_extendqisi2
 640 0016 9DF80320 		ldrb	r2, [sp, #3]	@ zero_extendqisi2
 641 001a 9A42     		cmp	r2, r3
 642 001c 02D3     		bcc	.L36
 643              	.L35:
 644              		.loc 5 194 0 discriminator 4
 645 001e 1148     		ldr	r0, .L38
 646 0020 FFF7FEFF 		bl	chSysHalt
 647              	.L36:
 648              		.loc 5 196 0 is_stmt 1
 649 0024 FFF7FEFF 		bl	osalSysLock
 650              		.loc 5 198 0
 651 0028 019B     		ldr	r3, [sp, #4]
 652 002a 1B78     		ldrb	r3, [r3]	@ zero_extendqisi2
 653 002c 022B     		cmp	r3, #2
 654 002e 02D0     		beq	.L37
 655              		.loc 5 198 0 is_stmt 0 discriminator 2
 656 0030 0C48     		ldr	r0, .L38
 657 0032 FFF7FEFF 		bl	chSysHalt
 658              	.L37:
 659              		.loc 5 200 0 is_stmt 1
 660 0036 019B     		ldr	r3, [sp, #4]
 661 0038 DA68     		ldr	r2, [r3, #12]
 662 003a 9DF80330 		ldrb	r3, [sp, #3]	@ zero_extendqisi2
 663 003e 0121     		movs	r1, #1
 664 0040 01FA03F3 		lsl	r3, r1, r3
 665 0044 DB43     		mvns	r3, r3
 666 0046 1A40     		ands	r2, r2, r3
 667 0048 019B     		ldr	r3, [sp, #4]
 668 004a DA60     		str	r2, [r3, #12]
 669 004c 9DF80330 		ldrb	r3, [sp, #3]	@ zero_extendqisi2
 670 0050 1946     		mov	r1, r3
 671 0052 0198     		ldr	r0, [sp, #4]
 672 0054 FFF7FEFF 		bl	pwm_lld_disable_channel
 673              		.loc 5 202 0
 674 0058 FFF7FEFF 		bl	osalSysUnlock
 675              		.loc 5 203 0
 676 005c 00BF     		nop
 677 005e 03B0     		add	sp, sp, #12
 678              		.cfi_def_cfa_offset 4
 679              		@ sp needed
 680 0060 5DF804FB 		ldr	pc, [sp], #4
 681              	.L39:
 682              		.align	2
 683              	.L38:
 684 0064 00000000 		.word	__func__.9054
ARM GAS  /tmp/ccsabEEe.s 			page 13


 685              		.cfi_endproc
 686              	.LFE274:
 687              		.size	pwmDisableChannel, .-pwmDisableChannel
 688              		.section	.text.pwmEnablePeriodicNotification,"ax",%progbits
 689              		.align	1
 690              		.p2align 4,,15
 691              		.global	pwmEnablePeriodicNotification
 692              		.syntax unified
 693              		.thumb
 694              		.thumb_func
 695              		.fpu fpv4-sp-d16
 696              		.type	pwmEnablePeriodicNotification, %function
 697              	pwmEnablePeriodicNotification:
 698              	.LFB275:
 699              		.loc 5 214 0
 700              		.cfi_startproc
 701              		@ args = 0, pretend = 0, frame = 8
 702              		@ frame_needed = 0, uses_anonymous_args = 0
 703 0000 00B5     		push	{lr}
 704              		.cfi_def_cfa_offset 4
 705              		.cfi_offset 14, -4
 706 0002 83B0     		sub	sp, sp, #12
 707              		.cfi_def_cfa_offset 16
 708 0004 0190     		str	r0, [sp, #4]
 709              		.loc 5 216 0
 710 0006 019B     		ldr	r3, [sp, #4]
 711 0008 002B     		cmp	r3, #0
 712 000a 02D1     		bne	.L41
 713              		.loc 5 216 0 is_stmt 0 discriminator 2
 714 000c 0E48     		ldr	r0, .L45
 715 000e FFF7FEFF 		bl	chSysHalt
 716              	.L41:
 717              		.loc 5 218 0 is_stmt 1
 718 0012 FFF7FEFF 		bl	osalSysLock
 719              		.loc 5 220 0
 720 0016 019B     		ldr	r3, [sp, #4]
 721 0018 1B78     		ldrb	r3, [r3]	@ zero_extendqisi2
 722 001a 022B     		cmp	r3, #2
 723 001c 02D0     		beq	.L44
 724              		.loc 5 220 0 is_stmt 0 discriminator 2
 725 001e 0A48     		ldr	r0, .L45
 726 0020 FFF7FEFF 		bl	chSysHalt
 727              	.L44:
 728              		.loc 5 221 0 is_stmt 1 discriminator 1
 729 0024 019B     		ldr	r3, [sp, #4]
 730 0026 5B68     		ldr	r3, [r3, #4]
 731 0028 9B68     		ldr	r3, [r3, #8]
 732 002a 002B     		cmp	r3, #0
 733 002c 02D1     		bne	.L43
 734              		.loc 5 221 0 is_stmt 0 discriminator 2
 735 002e 0648     		ldr	r0, .L45
 736 0030 FFF7FEFF 		bl	chSysHalt
 737              	.L43:
 738              		.loc 5 223 0 is_stmt 1
 739 0034 0198     		ldr	r0, [sp, #4]
 740 0036 FFF7FEFF 		bl	pwm_lld_enable_periodic_notification
 741              		.loc 5 225 0
ARM GAS  /tmp/ccsabEEe.s 			page 14


 742 003a FFF7FEFF 		bl	osalSysUnlock
 743              		.loc 5 226 0
 744 003e 00BF     		nop
 745 0040 03B0     		add	sp, sp, #12
 746              		.cfi_def_cfa_offset 4
 747              		@ sp needed
 748 0042 5DF804FB 		ldr	pc, [sp], #4
 749              	.L46:
 750 0046 00BF     		.align	2
 751              	.L45:
 752 0048 00000000 		.word	__func__.9058
 753              		.cfi_endproc
 754              	.LFE275:
 755              		.size	pwmEnablePeriodicNotification, .-pwmEnablePeriodicNotification
 756              		.section	.text.pwmDisablePeriodicNotification,"ax",%progbits
 757              		.align	1
 758              		.p2align 4,,15
 759              		.global	pwmDisablePeriodicNotification
 760              		.syntax unified
 761              		.thumb
 762              		.thumb_func
 763              		.fpu fpv4-sp-d16
 764              		.type	pwmDisablePeriodicNotification, %function
 765              	pwmDisablePeriodicNotification:
 766              	.LFB276:
 767              		.loc 5 237 0
 768              		.cfi_startproc
 769              		@ args = 0, pretend = 0, frame = 8
 770              		@ frame_needed = 0, uses_anonymous_args = 0
 771 0000 00B5     		push	{lr}
 772              		.cfi_def_cfa_offset 4
 773              		.cfi_offset 14, -4
 774 0002 83B0     		sub	sp, sp, #12
 775              		.cfi_def_cfa_offset 16
 776 0004 0190     		str	r0, [sp, #4]
 777              		.loc 5 239 0
 778 0006 019B     		ldr	r3, [sp, #4]
 779 0008 002B     		cmp	r3, #0
 780 000a 02D1     		bne	.L48
 781              		.loc 5 239 0 is_stmt 0 discriminator 2
 782 000c 0E48     		ldr	r0, .L52
 783 000e FFF7FEFF 		bl	chSysHalt
 784              	.L48:
 785              		.loc 5 241 0 is_stmt 1
 786 0012 FFF7FEFF 		bl	osalSysLock
 787              		.loc 5 243 0
 788 0016 019B     		ldr	r3, [sp, #4]
 789 0018 1B78     		ldrb	r3, [r3]	@ zero_extendqisi2
 790 001a 022B     		cmp	r3, #2
 791 001c 02D0     		beq	.L51
 792              		.loc 5 243 0 is_stmt 0 discriminator 2
 793 001e 0A48     		ldr	r0, .L52
 794 0020 FFF7FEFF 		bl	chSysHalt
 795              	.L51:
 796              		.loc 5 244 0 is_stmt 1 discriminator 1
 797 0024 019B     		ldr	r3, [sp, #4]
 798 0026 5B68     		ldr	r3, [r3, #4]
ARM GAS  /tmp/ccsabEEe.s 			page 15


 799 0028 9B68     		ldr	r3, [r3, #8]
 800 002a 002B     		cmp	r3, #0
 801 002c 02D1     		bne	.L50
 802              		.loc 5 244 0 is_stmt 0 discriminator 2
 803 002e 0648     		ldr	r0, .L52
 804 0030 FFF7FEFF 		bl	chSysHalt
 805              	.L50:
 806              		.loc 5 246 0 is_stmt 1
 807 0034 0198     		ldr	r0, [sp, #4]
 808 0036 FFF7FEFF 		bl	pwm_lld_disable_periodic_notification
 809              		.loc 5 248 0
 810 003a FFF7FEFF 		bl	osalSysUnlock
 811              		.loc 5 249 0
 812 003e 00BF     		nop
 813 0040 03B0     		add	sp, sp, #12
 814              		.cfi_def_cfa_offset 4
 815              		@ sp needed
 816 0042 5DF804FB 		ldr	pc, [sp], #4
 817              	.L53:
 818 0046 00BF     		.align	2
 819              	.L52:
 820 0048 00000000 		.word	__func__.9062
 821              		.cfi_endproc
 822              	.LFE276:
 823              		.size	pwmDisablePeriodicNotification, .-pwmDisablePeriodicNotification
 824              		.section	.text.pwmEnableChannelNotification,"ax",%progbits
 825              		.align	1
 826              		.p2align 4,,15
 827              		.global	pwmEnableChannelNotification
 828              		.syntax unified
 829              		.thumb
 830              		.thumb_func
 831              		.fpu fpv4-sp-d16
 832              		.type	pwmEnableChannelNotification, %function
 833              	pwmEnableChannelNotification:
 834              	.LFB277:
 835              		.loc 5 262 0
 836              		.cfi_startproc
 837              		@ args = 0, pretend = 0, frame = 8
 838              		@ frame_needed = 0, uses_anonymous_args = 0
 839 0000 00B5     		push	{lr}
 840              		.cfi_def_cfa_offset 4
 841              		.cfi_offset 14, -4
 842 0002 83B0     		sub	sp, sp, #12
 843              		.cfi_def_cfa_offset 16
 844 0004 0190     		str	r0, [sp, #4]
 845 0006 0B46     		mov	r3, r1
 846 0008 8DF80330 		strb	r3, [sp, #3]
 847              		.loc 5 264 0
 848 000c 019B     		ldr	r3, [sp, #4]
 849 000e 002B     		cmp	r3, #0
 850 0010 05D0     		beq	.L55
 851              		.loc 5 264 0 is_stmt 0 discriminator 3
 852 0012 019B     		ldr	r3, [sp, #4]
 853 0014 1B7C     		ldrb	r3, [r3, #16]	@ zero_extendqisi2
 854 0016 9DF80320 		ldrb	r2, [sp, #3]	@ zero_extendqisi2
 855 001a 9A42     		cmp	r2, r3
ARM GAS  /tmp/ccsabEEe.s 			page 16


 856 001c 02D3     		bcc	.L56
 857              	.L55:
 858              		.loc 5 264 0 discriminator 4
 859 001e 1948     		ldr	r0, .L62
 860 0020 FFF7FEFF 		bl	chSysHalt
 861              	.L56:
 862              		.loc 5 266 0 is_stmt 1
 863 0024 FFF7FEFF 		bl	osalSysLock
 864              		.loc 5 268 0
 865 0028 019B     		ldr	r3, [sp, #4]
 866 002a 1B78     		ldrb	r3, [r3]	@ zero_extendqisi2
 867 002c 022B     		cmp	r3, #2
 868 002e 02D0     		beq	.L60
 869              		.loc 5 268 0 is_stmt 0 discriminator 2
 870 0030 1448     		ldr	r0, .L62
 871 0032 FFF7FEFF 		bl	chSysHalt
 872              	.L60:
 873              		.loc 5 269 0 is_stmt 1 discriminator 1
 874 0036 019B     		ldr	r3, [sp, #4]
 875 0038 DA68     		ldr	r2, [r3, #12]
 876 003a 9DF80330 		ldrb	r3, [sp, #3]	@ zero_extendqisi2
 877 003e 22FA03F3 		lsr	r3, r2, r3
 878 0042 03F00103 		and	r3, r3, #1
 879 0046 002B     		cmp	r3, #0
 880 0048 02D1     		bne	.L61
 881              		.loc 5 269 0 is_stmt 0 discriminator 2
 882 004a 0E48     		ldr	r0, .L62
 883 004c FFF7FEFF 		bl	chSysHalt
 884              	.L61:
 885              		.loc 5 271 0 is_stmt 1 discriminator 1
 886 0050 019B     		ldr	r3, [sp, #4]
 887 0052 5A68     		ldr	r2, [r3, #4]
 888 0054 9DF80330 		ldrb	r3, [sp, #3]	@ zero_extendqisi2
 889 0058 0133     		adds	r3, r3, #1
 890 005a DB00     		lsls	r3, r3, #3
 891 005c 1344     		add	r3, r3, r2
 892 005e 9B68     		ldr	r3, [r3, #8]
 893 0060 002B     		cmp	r3, #0
 894 0062 02D1     		bne	.L59
 895              		.loc 5 271 0 is_stmt 0 discriminator 2
 896 0064 0748     		ldr	r0, .L62
 897 0066 FFF7FEFF 		bl	chSysHalt
 898              	.L59:
 899              		.loc 5 274 0 is_stmt 1
 900 006a 9DF80330 		ldrb	r3, [sp, #3]	@ zero_extendqisi2
 901 006e 1946     		mov	r1, r3
 902 0070 0198     		ldr	r0, [sp, #4]
 903 0072 FFF7FEFF 		bl	pwm_lld_enable_channel_notification
 904              		.loc 5 276 0
 905 0076 FFF7FEFF 		bl	osalSysUnlock
 906              		.loc 5 277 0
 907 007a 00BF     		nop
 908 007c 03B0     		add	sp, sp, #12
 909              		.cfi_def_cfa_offset 4
 910              		@ sp needed
 911 007e 5DF804FB 		ldr	pc, [sp], #4
 912              	.L63:
ARM GAS  /tmp/ccsabEEe.s 			page 17


 913 0082 00BF     		.align	2
 914              	.L62:
 915 0084 00000000 		.word	__func__.9067
 916              		.cfi_endproc
 917              	.LFE277:
 918              		.size	pwmEnableChannelNotification, .-pwmEnableChannelNotification
 919              		.section	.text.pwmDisableChannelNotification,"ax",%progbits
 920              		.align	1
 921              		.p2align 4,,15
 922              		.global	pwmDisableChannelNotification
 923              		.syntax unified
 924              		.thumb
 925              		.thumb_func
 926              		.fpu fpv4-sp-d16
 927              		.type	pwmDisableChannelNotification, %function
 928              	pwmDisableChannelNotification:
 929              	.LFB278:
 930              		.loc 5 290 0
 931              		.cfi_startproc
 932              		@ args = 0, pretend = 0, frame = 8
 933              		@ frame_needed = 0, uses_anonymous_args = 0
 934 0000 00B5     		push	{lr}
 935              		.cfi_def_cfa_offset 4
 936              		.cfi_offset 14, -4
 937 0002 83B0     		sub	sp, sp, #12
 938              		.cfi_def_cfa_offset 16
 939 0004 0190     		str	r0, [sp, #4]
 940 0006 0B46     		mov	r3, r1
 941 0008 8DF80330 		strb	r3, [sp, #3]
 942              		.loc 5 292 0
 943 000c 019B     		ldr	r3, [sp, #4]
 944 000e 002B     		cmp	r3, #0
 945 0010 05D0     		beq	.L65
 946              		.loc 5 292 0 is_stmt 0 discriminator 3
 947 0012 019B     		ldr	r3, [sp, #4]
 948 0014 1B7C     		ldrb	r3, [r3, #16]	@ zero_extendqisi2
 949 0016 9DF80320 		ldrb	r2, [sp, #3]	@ zero_extendqisi2
 950 001a 9A42     		cmp	r2, r3
 951 001c 02D3     		bcc	.L66
 952              	.L65:
 953              		.loc 5 292 0 discriminator 4
 954 001e 1948     		ldr	r0, .L72
 955 0020 FFF7FEFF 		bl	chSysHalt
 956              	.L66:
 957              		.loc 5 294 0 is_stmt 1
 958 0024 FFF7FEFF 		bl	osalSysLock
 959              		.loc 5 296 0
 960 0028 019B     		ldr	r3, [sp, #4]
 961 002a 1B78     		ldrb	r3, [r3]	@ zero_extendqisi2
 962 002c 022B     		cmp	r3, #2
 963 002e 02D0     		beq	.L70
 964              		.loc 5 296 0 is_stmt 0 discriminator 2
 965 0030 1448     		ldr	r0, .L72
 966 0032 FFF7FEFF 		bl	chSysHalt
 967              	.L70:
 968              		.loc 5 297 0 is_stmt 1 discriminator 1
 969 0036 019B     		ldr	r3, [sp, #4]
ARM GAS  /tmp/ccsabEEe.s 			page 18


 970 0038 DA68     		ldr	r2, [r3, #12]
 971 003a 9DF80330 		ldrb	r3, [sp, #3]	@ zero_extendqisi2
 972 003e 22FA03F3 		lsr	r3, r2, r3
 973 0042 03F00103 		and	r3, r3, #1
 974 0046 002B     		cmp	r3, #0
 975 0048 02D1     		bne	.L71
 976              		.loc 5 297 0 is_stmt 0 discriminator 2
 977 004a 0E48     		ldr	r0, .L72
 978 004c FFF7FEFF 		bl	chSysHalt
 979              	.L71:
 980              		.loc 5 299 0 is_stmt 1 discriminator 1
 981 0050 019B     		ldr	r3, [sp, #4]
 982 0052 5A68     		ldr	r2, [r3, #4]
 983 0054 9DF80330 		ldrb	r3, [sp, #3]	@ zero_extendqisi2
 984 0058 0133     		adds	r3, r3, #1
 985 005a DB00     		lsls	r3, r3, #3
 986 005c 1344     		add	r3, r3, r2
 987 005e 9B68     		ldr	r3, [r3, #8]
 988 0060 002B     		cmp	r3, #0
 989 0062 02D1     		bne	.L69
 990              		.loc 5 299 0 is_stmt 0 discriminator 2
 991 0064 0748     		ldr	r0, .L72
 992 0066 FFF7FEFF 		bl	chSysHalt
 993              	.L69:
 994              		.loc 5 302 0 is_stmt 1
 995 006a 9DF80330 		ldrb	r3, [sp, #3]	@ zero_extendqisi2
 996 006e 1946     		mov	r1, r3
 997 0070 0198     		ldr	r0, [sp, #4]
 998 0072 FFF7FEFF 		bl	pwm_lld_disable_channel_notification
 999              		.loc 5 304 0
 1000 0076 FFF7FEFF 		bl	osalSysUnlock
 1001              		.loc 5 305 0
 1002 007a 00BF     		nop
 1003 007c 03B0     		add	sp, sp, #12
 1004              		.cfi_def_cfa_offset 4
 1005              		@ sp needed
 1006 007e 5DF804FB 		ldr	pc, [sp], #4
 1007              	.L73:
 1008 0082 00BF     		.align	2
 1009              	.L72:
 1010 0084 00000000 		.word	__func__.9072
 1011              		.cfi_endproc
 1012              	.LFE278:
 1013              		.size	pwmDisableChannelNotification, .-pwmDisableChannelNotification
 1014              		.section	.rodata.__func__.9034,"a",%progbits
 1015              		.align	2
 1016              		.type	__func__.9034, %object
 1017              		.size	__func__.9034, 9
 1018              	__func__.9034:
 1019 0000 70776D53 		.ascii	"pwmStart\000"
 1019      74617274 
 1019      00
 1020              		.section	.rodata.__func__.7157,"a",%progbits
 1021              		.align	2
 1022              		.type	__func__.7157, %object
 1023              		.size	__func__.7157, 12
 1024              	__func__.7157:
ARM GAS  /tmp/ccsabEEe.s 			page 19


 1025 0000 63685379 		.ascii	"chSysUnlock\000"
 1025      73556E6C 
 1025      6F636B00 
 1026              		.section	.rodata.__func__.9038,"a",%progbits
 1027              		.align	2
 1028              		.type	__func__.9038, %object
 1029              		.size	__func__.9038, 8
 1030              	__func__.9038:
 1031 0000 70776D53 		.ascii	"pwmStop\000"
 1031      746F7000 
 1032              		.section	.rodata.__func__.9043,"a",%progbits
 1033              		.align	2
 1034              		.type	__func__.9043, %object
 1035              		.size	__func__.9043, 16
 1036              	__func__.9043:
 1037 0000 70776D43 		.ascii	"pwmChangePeriod\000"
 1037      68616E67 
 1037      65506572 
 1037      696F6400 
 1038              		.section	.rodata.__func__.9049,"a",%progbits
 1039              		.align	2
 1040              		.type	__func__.9049, %object
 1041              		.size	__func__.9049, 17
 1042              	__func__.9049:
 1043 0000 70776D45 		.ascii	"pwmEnableChannel\000"
 1043      6E61626C 
 1043      65436861 
 1043      6E6E656C 
 1043      00
 1044              		.section	.rodata.__func__.9054,"a",%progbits
 1045              		.align	2
 1046              		.type	__func__.9054, %object
 1047              		.size	__func__.9054, 18
 1048              	__func__.9054:
 1049 0000 70776D44 		.ascii	"pwmDisableChannel\000"
 1049      69736162 
 1049      6C654368 
 1049      616E6E65 
 1049      6C00
 1050              		.section	.rodata.__func__.9058,"a",%progbits
 1051              		.align	2
 1052              		.type	__func__.9058, %object
 1053              		.size	__func__.9058, 30
 1054              	__func__.9058:
 1055 0000 70776D45 		.ascii	"pwmEnablePeriodicNotification\000"
 1055      6E61626C 
 1055      65506572 
 1055      696F6469 
 1055      634E6F74 
 1056              		.section	.rodata.__func__.9062,"a",%progbits
 1057              		.align	2
 1058              		.type	__func__.9062, %object
 1059              		.size	__func__.9062, 31
 1060              	__func__.9062:
 1061 0000 70776D44 		.ascii	"pwmDisablePeriodicNotification\000"
 1061      69736162 
 1061      6C655065 
ARM GAS  /tmp/ccsabEEe.s 			page 20


 1061      72696F64 
 1061      69634E6F 
 1062              		.section	.rodata.__func__.9067,"a",%progbits
 1063              		.align	2
 1064              		.type	__func__.9067, %object
 1065              		.size	__func__.9067, 29
 1066              	__func__.9067:
 1067 0000 70776D45 		.ascii	"pwmEnableChannelNotification\000"
 1067      6E61626C 
 1067      65436861 
 1067      6E6E656C 
 1067      4E6F7469 
 1068              		.section	.rodata.__func__.9072,"a",%progbits
 1069              		.align	2
 1070              		.type	__func__.9072, %object
 1071              		.size	__func__.9072, 30
 1072              	__func__.9072:
 1073 0000 70776D44 		.ascii	"pwmDisableChannelNotification\000"
 1073      69736162 
 1073      6C654368 
 1073      616E6E65 
 1073      6C4E6F74 
 1074              		.text
 1075              	.Letext0:
 1076              		.file 6 "/usr/lib/gcc/arm-none-eabi/6.3.1/include/stddef.h"
 1077              		.file 7 "/usr/arm-none-eabi/include/machine/_default_types.h"
 1078              		.file 8 "/usr/arm-none-eabi/include/sys/_stdint.h"
 1079              		.file 9 "../ChibiOS/os/rt/ports/ARMCMx/compilers/GCC/chtypes.h"
 1080              		.file 10 "../ChibiOS/os/rt/include/chsystypes.h"
 1081              		.file 11 "../ChibiOS/os/rt/include/chschd.h"
 1082              		.file 12 "../ChibiOS/os/ext/CMSIS/include/core_cm4.h"
 1083              		.file 13 "../ChibiOS/os/ext/CMSIS/ST/STM32F4xx/system_stm32f4xx.h"
 1084              		.file 14 "../ChibiOS/os/ext/CMSIS/ST/STM32F4xx/stm32f437xx.h"
 1085              		.file 15 "../ChibiOS/os/rt/ports/ARMCMx/chcore.h"
 1086              		.file 16 "../ChibiOS/os/rt/include/chtm.h"
 1087              		.file 17 "../ChibiOS/os/rt/include/chstats.h"
 1088              		.file 18 "../ChibiOS/os/rt/include/chsem.h"
 1089              		.file 19 "../ChibiOS/os/rt/include/chmtx.h"
 1090              		.file 20 "../ChibiOS/os/rt/include/chregistry.h"
 1091              		.file 21 "../ChibiOS/os/rt/include/chevents.h"
 1092              		.file 22 "../ChibiOS/os/rt/include/chqueues.h"
 1093              		.file 23 "../ChibiOS/os/hal/ports/STM32/LLD/DMAv2/stm32_dma.h"
 1094              		.file 24 "../ChibiOS/os/hal/ports/STM32/LLD/GPIOv2/pal_lld.h"
 1095              		.file 25 "../ChibiOS/os/hal/include/ext.h"
 1096              		.file 26 "../ChibiOS/os/hal/ports/STM32/LLD/EXTIv1/ext_lld.h"
 1097              		.file 27 "../ChibiOS/os/hal/include/gpt.h"
 1098              		.file 28 "../ChibiOS/os/hal/ports/STM32/LLD/TIMv1/gpt_lld.h"
 1099              		.file 29 "../ChibiOS/os/hal/ports/STM32/LLD/TIMv1/stm32_tim.h"
 1100              		.file 30 "../ChibiOS/os/hal/include/pwm.h"
 1101              		.file 31 "../ChibiOS/os/hal/ports/STM32/LLD/TIMv1/pwm_lld.h"
 1102              		.file 32 "../ChibiOS/os/hal/include/serial.h"
 1103              		.file 33 "../ChibiOS/os/hal/ports/STM32/LLD/USARTv1/serial_lld.h"
 1104              		.file 34 "../ChibiOS/os/hal/include/usb.h"
 1105              		.file 35 "../ChibiOS/os/hal/ports/STM32/LLD/OTGv1/usb_lld.h"
 1106              		.file 36 "../ChibiOS/os/hal/ports/STM32/LLD/OTGv1/stm32_otg.h"