ARM GAS  /tmp/ccs3EuNa.s 			page 1


   1              		.cpu cortex-m4
   2              		.eabi_attribute 27, 1
   3              		.eabi_attribute 28, 1
   4              		.eabi_attribute 20, 1
   5              		.eabi_attribute 21, 1
   6              		.eabi_attribute 23, 3
   7              		.eabi_attribute 24, 1
   8              		.eabi_attribute 25, 1
   9              		.eabi_attribute 26, 1
  10              		.eabi_attribute 30, 6
  11              		.eabi_attribute 34, 1
  12              		.eabi_attribute 18, 4
  13              		.file	"st.c"
  14              		.text
  15              	.Ltext0:
  16              		.cfi_sections	.debug_frame
  17              		.section	.text.st_lld_start_alarm,"ax",%progbits
  18              		.align	1
  19              		.p2align 4,,15
  20              		.syntax unified
  21              		.thumb
  22              		.thumb_func
  23              		.fpu fpv4-sp-d16
  24              		.type	st_lld_start_alarm, %function
  25              	st_lld_start_alarm:
  26              	.LFB263:
  27              		.file 1 "../ChibiOS/os/hal/ports/STM32/LLD/TIMv1/st_lld.h"
  28              		.loc 1 153 0
  29              		.cfi_startproc
  30              		@ args = 0, pretend = 0, frame = 8
  31              		@ frame_needed = 0, uses_anonymous_args = 0
  32              		@ link register save eliminated.
  33 0000 82B0     		sub	sp, sp, #8
  34              		.cfi_def_cfa_offset 8
  35 0002 0190     		str	r0, [sp, #4]
  36              		.loc 1 155 0
  37 0004 4FF08042 		mov	r2, #1073741824
  38 0008 019B     		ldr	r3, [sp, #4]
  39 000a 5363     		str	r3, [r2, #52]
  40              		.loc 1 156 0
  41 000c 4FF08043 		mov	r3, #1073741824
  42 0010 0022     		movs	r2, #0
  43 0012 1A61     		str	r2, [r3, #16]
  44              		.loc 1 157 0
  45 0014 4FF08043 		mov	r3, #1073741824
  46 0018 0222     		movs	r2, #2
  47 001a DA60     		str	r2, [r3, #12]
  48              		.loc 1 158 0
  49 001c 00BF     		nop
  50 001e 02B0     		add	sp, sp, #8
  51              		.cfi_def_cfa_offset 0
  52              		@ sp needed
  53 0020 7047     		bx	lr
  54              		.cfi_endproc
  55              	.LFE263:
  56              		.size	st_lld_start_alarm, .-st_lld_start_alarm
  57 0022 00BF     		.section	.text.st_lld_stop_alarm,"ax",%progbits
ARM GAS  /tmp/ccs3EuNa.s 			page 2


  58              		.align	1
  59              		.p2align 4,,15
  60              		.syntax unified
  61              		.thumb
  62              		.thumb_func
  63              		.fpu fpv4-sp-d16
  64              		.type	st_lld_stop_alarm, %function
  65              	st_lld_stop_alarm:
  66              	.LFB264:
  67              		.loc 1 165 0
  68              		.cfi_startproc
  69              		@ args = 0, pretend = 0, frame = 0
  70              		@ frame_needed = 0, uses_anonymous_args = 0
  71              		@ link register save eliminated.
  72              		.loc 1 167 0
  73 0000 4FF08043 		mov	r3, #1073741824
  74 0004 0022     		movs	r2, #0
  75 0006 DA60     		str	r2, [r3, #12]
  76              		.loc 1 168 0
  77 0008 00BF     		nop
  78 000a 7047     		bx	lr
  79              		.cfi_endproc
  80              	.LFE264:
  81              		.size	st_lld_stop_alarm, .-st_lld_stop_alarm
  82              		.section	.text.st_lld_set_alarm,"ax",%progbits
  83              		.align	1
  84              		.p2align 4,,15
  85              		.syntax unified
  86              		.thumb
  87              		.thumb_func
  88              		.fpu fpv4-sp-d16
  89              		.type	st_lld_set_alarm, %function
  90              	st_lld_set_alarm:
  91              	.LFB265:
  92              		.loc 1 177 0
  93              		.cfi_startproc
  94              		@ args = 0, pretend = 0, frame = 8
  95              		@ frame_needed = 0, uses_anonymous_args = 0
  96              		@ link register save eliminated.
  97 0000 82B0     		sub	sp, sp, #8
  98              		.cfi_def_cfa_offset 8
  99 0002 0190     		str	r0, [sp, #4]
 100              		.loc 1 179 0
 101 0004 4FF08042 		mov	r2, #1073741824
 102 0008 019B     		ldr	r3, [sp, #4]
 103 000a 5363     		str	r3, [r2, #52]
 104              		.loc 1 180 0
 105 000c 00BF     		nop
 106 000e 02B0     		add	sp, sp, #8
 107              		.cfi_def_cfa_offset 0
 108              		@ sp needed
 109 0010 7047     		bx	lr
 110              		.cfi_endproc
 111              	.LFE265:
 112              		.size	st_lld_set_alarm, .-st_lld_set_alarm
 113 0012 00BF     		.section	.text.st_lld_get_alarm,"ax",%progbits
 114              		.align	1
ARM GAS  /tmp/ccs3EuNa.s 			page 3


 115              		.p2align 4,,15
 116              		.syntax unified
 117              		.thumb
 118              		.thumb_func
 119              		.fpu fpv4-sp-d16
 120              		.type	st_lld_get_alarm, %function
 121              	st_lld_get_alarm:
 122              	.LFB266:
 123              		.loc 1 189 0
 124              		.cfi_startproc
 125              		@ args = 0, pretend = 0, frame = 0
 126              		@ frame_needed = 0, uses_anonymous_args = 0
 127              		@ link register save eliminated.
 128              		.loc 1 191 0
 129 0000 4FF08043 		mov	r3, #1073741824
 130 0004 5B6B     		ldr	r3, [r3, #52]
 131              		.loc 1 192 0
 132 0006 1846     		mov	r0, r3
 133 0008 7047     		bx	lr
 134              		.cfi_endproc
 135              	.LFE266:
 136              		.size	st_lld_get_alarm, .-st_lld_get_alarm
 137 000a 00BF     		.section	.text.st_lld_is_alarm_active,"ax",%progbits
 138              		.align	1
 139              		.p2align 4,,15
 140              		.syntax unified
 141              		.thumb
 142              		.thumb_func
 143              		.fpu fpv4-sp-d16
 144              		.type	st_lld_is_alarm_active, %function
 145              	st_lld_is_alarm_active:
 146              	.LFB267:
 147              		.loc 1 203 0
 148              		.cfi_startproc
 149              		@ args = 0, pretend = 0, frame = 0
 150              		@ frame_needed = 0, uses_anonymous_args = 0
 151              		@ link register save eliminated.
 152              		.loc 1 205 0
 153 0000 4FF08043 		mov	r3, #1073741824
 154 0004 DB68     		ldr	r3, [r3, #12]
 155 0006 03F00203 		and	r3, r3, #2
 156 000a 002B     		cmp	r3, #0
 157 000c 14BF     		ite	ne
 158 000e 0123     		movne	r3, #1
 159 0010 0023     		moveq	r3, #0
 160 0012 DBB2     		uxtb	r3, r3
 161              		.loc 1 206 0
 162 0014 1846     		mov	r0, r3
 163 0016 7047     		bx	lr
 164              		.cfi_endproc
 165              	.LFE267:
 166              		.size	st_lld_is_alarm_active, .-st_lld_is_alarm_active
 167              		.section	.text.stInit,"ax",%progbits
 168              		.align	1
 169              		.p2align 4,,15
 170              		.global	stInit
 171              		.syntax unified
ARM GAS  /tmp/ccs3EuNa.s 			page 4


 172              		.thumb
 173              		.thumb_func
 174              		.fpu fpv4-sp-d16
 175              		.type	stInit, %function
 176              	stInit:
 177              	.LFB268:
 178              		.file 2 "../ChibiOS/os/hal/src/st.c"
 179              		.loc 2 60 0
 180              		.cfi_startproc
 181              		@ args = 0, pretend = 0, frame = 0
 182              		@ frame_needed = 0, uses_anonymous_args = 0
 183 0000 08B5     		push	{r3, lr}
 184              		.cfi_def_cfa_offset 8
 185              		.cfi_offset 3, -8
 186              		.cfi_offset 14, -4
 187              		.loc 2 62 0
 188 0002 FFF7FEFF 		bl	st_lld_init
 189              		.loc 2 63 0
 190 0006 00BF     		nop
 191 0008 08BD     		pop	{r3, pc}
 192              		.cfi_endproc
 193              	.LFE268:
 194              		.size	stInit, .-stInit
 195 000a 00BF     		.section	.text.stStartAlarm,"ax",%progbits
 196              		.align	1
 197              		.p2align 4,,15
 198              		.global	stStartAlarm
 199              		.syntax unified
 200              		.thumb
 201              		.thumb_func
 202              		.fpu fpv4-sp-d16
 203              		.type	stStartAlarm, %function
 204              	stStartAlarm:
 205              	.LFB269:
 206              		.loc 2 77 0
 207              		.cfi_startproc
 208              		@ args = 0, pretend = 0, frame = 8
 209              		@ frame_needed = 0, uses_anonymous_args = 0
 210 0000 00B5     		push	{lr}
 211              		.cfi_def_cfa_offset 4
 212              		.cfi_offset 14, -4
 213 0002 83B0     		sub	sp, sp, #12
 214              		.cfi_def_cfa_offset 16
 215 0004 0190     		str	r0, [sp, #4]
 216              		.loc 2 79 0
 217 0006 FFF7FEFF 		bl	st_lld_is_alarm_active
 218 000a 0346     		mov	r3, r0
 219 000c 002B     		cmp	r3, #0
 220 000e 02D0     		beq	.L10
 221              		.loc 2 79 0 is_stmt 0 discriminator 2
 222 0010 0448     		ldr	r0, .L11
 223 0012 FFF7FEFF 		bl	chSysHalt
 224              	.L10:
 225              		.loc 2 81 0 is_stmt 1
 226 0016 0198     		ldr	r0, [sp, #4]
 227 0018 FFF7FEFF 		bl	st_lld_start_alarm
 228              		.loc 2 82 0
ARM GAS  /tmp/ccs3EuNa.s 			page 5


 229 001c 00BF     		nop
 230 001e 03B0     		add	sp, sp, #12
 231              		.cfi_def_cfa_offset 4
 232              		@ sp needed
 233 0020 5DF804FB 		ldr	pc, [sp], #4
 234              	.L12:
 235              		.align	2
 236              	.L11:
 237 0024 00000000 		.word	__func__.9030
 238              		.cfi_endproc
 239              	.LFE269:
 240              		.size	stStartAlarm, .-stStartAlarm
 241              		.section	.text.stStopAlarm,"ax",%progbits
 242              		.align	1
 243              		.p2align 4,,15
 244              		.global	stStopAlarm
 245              		.syntax unified
 246              		.thumb
 247              		.thumb_func
 248              		.fpu fpv4-sp-d16
 249              		.type	stStopAlarm, %function
 250              	stStopAlarm:
 251              	.LFB270:
 252              		.loc 2 91 0
 253              		.cfi_startproc
 254              		@ args = 0, pretend = 0, frame = 0
 255              		@ frame_needed = 0, uses_anonymous_args = 0
 256 0000 08B5     		push	{r3, lr}
 257              		.cfi_def_cfa_offset 8
 258              		.cfi_offset 3, -8
 259              		.cfi_offset 14, -4
 260              		.loc 2 93 0
 261 0002 FFF7FEFF 		bl	st_lld_stop_alarm
 262              		.loc 2 94 0
 263 0006 00BF     		nop
 264 0008 08BD     		pop	{r3, pc}
 265              		.cfi_endproc
 266              	.LFE270:
 267              		.size	stStopAlarm, .-stStopAlarm
 268 000a 00BF     		.section	.text.stSetAlarm,"ax",%progbits
 269              		.align	1
 270              		.p2align 4,,15
 271              		.global	stSetAlarm
 272              		.syntax unified
 273              		.thumb
 274              		.thumb_func
 275              		.fpu fpv4-sp-d16
 276              		.type	stSetAlarm, %function
 277              	stSetAlarm:
 278              	.LFB271:
 279              		.loc 2 105 0
 280              		.cfi_startproc
 281              		@ args = 0, pretend = 0, frame = 8
 282              		@ frame_needed = 0, uses_anonymous_args = 0
 283 0000 00B5     		push	{lr}
 284              		.cfi_def_cfa_offset 4
 285              		.cfi_offset 14, -4
ARM GAS  /tmp/ccs3EuNa.s 			page 6


 286 0002 83B0     		sub	sp, sp, #12
 287              		.cfi_def_cfa_offset 16
 288 0004 0190     		str	r0, [sp, #4]
 289              		.loc 2 107 0
 290 0006 FFF7FEFF 		bl	st_lld_is_alarm_active
 291 000a 0346     		mov	r3, r0
 292 000c 83F00103 		eor	r3, r3, #1
 293 0010 DBB2     		uxtb	r3, r3
 294 0012 002B     		cmp	r3, #0
 295 0014 02D0     		beq	.L15
 296              		.loc 2 107 0 is_stmt 0 discriminator 2
 297 0016 0548     		ldr	r0, .L16
 298 0018 FFF7FEFF 		bl	chSysHalt
 299              	.L15:
 300              		.loc 2 109 0 is_stmt 1
 301 001c 0198     		ldr	r0, [sp, #4]
 302 001e FFF7FEFF 		bl	st_lld_set_alarm
 303              		.loc 2 110 0
 304 0022 00BF     		nop
 305 0024 03B0     		add	sp, sp, #12
 306              		.cfi_def_cfa_offset 4
 307              		@ sp needed
 308 0026 5DF804FB 		ldr	pc, [sp], #4
 309              	.L17:
 310 002a 00BF     		.align	2
 311              	.L16:
 312 002c 00000000 		.word	__func__.9037
 313              		.cfi_endproc
 314              	.LFE271:
 315              		.size	stSetAlarm, .-stSetAlarm
 316              		.section	.text.stGetAlarm,"ax",%progbits
 317              		.align	1
 318              		.p2align 4,,15
 319              		.global	stGetAlarm
 320              		.syntax unified
 321              		.thumb
 322              		.thumb_func
 323              		.fpu fpv4-sp-d16
 324              		.type	stGetAlarm, %function
 325              	stGetAlarm:
 326              	.LFB272:
 327              		.loc 2 121 0
 328              		.cfi_startproc
 329              		@ args = 0, pretend = 0, frame = 0
 330              		@ frame_needed = 0, uses_anonymous_args = 0
 331 0000 08B5     		push	{r3, lr}
 332              		.cfi_def_cfa_offset 8
 333              		.cfi_offset 3, -8
 334              		.cfi_offset 14, -4
 335              		.loc 2 123 0
 336 0002 FFF7FEFF 		bl	st_lld_is_alarm_active
 337 0006 0346     		mov	r3, r0
 338 0008 83F00103 		eor	r3, r3, #1
 339 000c DBB2     		uxtb	r3, r3
 340 000e 002B     		cmp	r3, #0
 341 0010 02D0     		beq	.L19
 342              		.loc 2 123 0 is_stmt 0 discriminator 2
ARM GAS  /tmp/ccs3EuNa.s 			page 7


 343 0012 0448     		ldr	r0, .L21
 344 0014 FFF7FEFF 		bl	chSysHalt
 345              	.L19:
 346              		.loc 2 125 0 is_stmt 1
 347 0018 FFF7FEFF 		bl	st_lld_get_alarm
 348 001c 0346     		mov	r3, r0
 349              		.loc 2 126 0
 350 001e 1846     		mov	r0, r3
 351 0020 08BD     		pop	{r3, pc}
 352              	.L22:
 353 0022 00BF     		.align	2
 354              	.L21:
 355 0024 00000000 		.word	__func__.9041
 356              		.cfi_endproc
 357              	.LFE272:
 358              		.size	stGetAlarm, .-stGetAlarm
 359              		.section	.rodata.__func__.9030,"a",%progbits
 360              		.align	2
 361              		.type	__func__.9030, %object
 362              		.size	__func__.9030, 13
 363              	__func__.9030:
 364 0000 73745374 		.ascii	"stStartAlarm\000"
 364      61727441 
 364      6C61726D 
 364      00
 365              		.section	.rodata.__func__.9037,"a",%progbits
 366              		.align	2
 367              		.type	__func__.9037, %object
 368              		.size	__func__.9037, 11
 369              	__func__.9037:
 370 0000 73745365 		.ascii	"stSetAlarm\000"
 370      74416C61 
 370      726D00
 371              		.section	.rodata.__func__.9041,"a",%progbits
 372              		.align	2
 373              		.type	__func__.9041, %object
 374              		.size	__func__.9041, 11
 375              	__func__.9041:
 376 0000 73744765 		.ascii	"stGetAlarm\000"
 376      74416C61 
 376      726D00
 377              		.text
 378              	.Letext0:
 379              		.file 3 "/usr/lib/gcc/arm-none-eabi/6.3.1/include/stddef.h"
 380              		.file 4 "/usr/arm-none-eabi/include/machine/_default_types.h"
 381              		.file 5 "/usr/arm-none-eabi/include/sys/_stdint.h"
 382              		.file 6 "../ChibiOS/os/rt/ports/ARMCMx/compilers/GCC/chtypes.h"
 383              		.file 7 "../ChibiOS/os/rt/include/chsystypes.h"
 384              		.file 8 "../ChibiOS/os/rt/include/chschd.h"
 385              		.file 9 "../ChibiOS/os/ext/CMSIS/include/core_cm4.h"
 386              		.file 10 "../ChibiOS/os/ext/CMSIS/ST/STM32F4xx/system_stm32f4xx.h"
 387              		.file 11 "../ChibiOS/os/ext/CMSIS/ST/STM32F4xx/stm32f437xx.h"
 388              		.file 12 "../ChibiOS/os/rt/ports/ARMCMx/chcore.h"
 389              		.file 13 "../ChibiOS/os/rt/ports/ARMCMx/chcore_v7m.h"
 390              		.file 14 "../ChibiOS/os/rt/include/chtm.h"
 391              		.file 15 "../ChibiOS/os/rt/include/chstats.h"
 392              		.file 16 "../ChibiOS/os/rt/include/chsem.h"
ARM GAS  /tmp/ccs3EuNa.s 			page 8


 393              		.file 17 "../ChibiOS/os/rt/include/chmtx.h"
 394              		.file 18 "../ChibiOS/os/rt/include/chregistry.h"
 395              		.file 19 "../ChibiOS/os/rt/include/chevents.h"
 396              		.file 20 "../ChibiOS/os/rt/include/chqueues.h"
 397              		.file 21 "../ChibiOS/os/hal/ports/STM32/LLD/DMAv2/stm32_dma.h"
 398              		.file 22 "../ChibiOS/os/hal/ports/STM32/LLD/GPIOv2/pal_lld.h"
 399              		.file 23 "../ChibiOS/os/hal/include/ext.h"
 400              		.file 24 "../ChibiOS/os/hal/ports/STM32/LLD/EXTIv1/ext_lld.h"
 401              		.file 25 "../ChibiOS/os/hal/include/gpt.h"
 402              		.file 26 "../ChibiOS/os/hal/ports/STM32/LLD/TIMv1/gpt_lld.h"
 403              		.file 27 "../ChibiOS/os/hal/ports/STM32/LLD/TIMv1/stm32_tim.h"
 404              		.file 28 "../ChibiOS/os/hal/include/pwm.h"
 405              		.file 29 "../ChibiOS/os/hal/ports/STM32/LLD/TIMv1/pwm_lld.h"
 406              		.file 30 "../ChibiOS/os/hal/include/serial.h"
 407              		.file 31 "../ChibiOS/os/hal/ports/STM32/LLD/USARTv1/serial_lld.h"
 408              		.file 32 "../ChibiOS/os/hal/include/usb.h"
 409              		.file 33 "../ChibiOS/os/hal/ports/STM32/LLD/OTGv1/usb_lld.h"
 410              		.file 34 "../ChibiOS/os/hal/ports/STM32/LLD/OTGv1/stm32_otg.h"