ARM GAS  /tmp/ccTy4mHl.s 			page 1


   1              		.cpu cortex-m4
   2              		.eabi_attribute 27, 1
   3              		.eabi_attribute 28, 1
   4              		.eabi_attribute 20, 1
   5              		.eabi_attribute 21, 1
   6              		.eabi_attribute 23, 3
   7              		.eabi_attribute 24, 1
   8              		.eabi_attribute 25, 1
   9              		.eabi_attribute 26, 1
  10              		.eabi_attribute 30, 6
  11              		.eabi_attribute 34, 1
  12              		.eabi_attribute 18, 4
  13              		.file	"st_lld.c"
  14              		.text
  15              	.Ltext0:
  16              		.cfi_sections	.debug_frame
  17              		.section	.text.port_lock,"ax",%progbits
  18              		.align	1
  19              		.p2align 4,,15
  20              		.syntax unified
  21              		.thumb
  22              		.thumb_func
  23              		.fpu fpv4-sp-d16
  24              		.type	port_lock, %function
  25              	port_lock:
  26              	.LFB127:
  27              		.file 1 "../ChibiOS/os/rt/ports/ARMCMx/chcore_v7m.h"
  28              		.loc 1 456 0
  29              		.cfi_startproc
  30              		@ args = 0, pretend = 0, frame = 8
  31              		@ frame_needed = 0, uses_anonymous_args = 0
  32              		@ link register save eliminated.
  33 0000 82B0     		sub	sp, sp, #8
  34              		.cfi_def_cfa_offset 8
  35 0002 2023     		movs	r3, #32
  36 0004 0193     		str	r3, [sp, #4]
  37              	.LBB6:
  38              	.LBB7:
  39              		.file 2 "../ChibiOS/os/ext/CMSIS/include/core_cmFunc.h"
  40              		.loc 2 548 0
  41 0006 019B     		ldr	r3, [sp, #4]
  42              		.syntax unified
  43              	@ 548 "../ChibiOS/os/ext/CMSIS/include/core_cmFunc.h" 1
  44 0008 83F31188 		MSR basepri, r3
  45              	@ 0 "" 2
  46              		.thumb
  47              		.syntax unified
  48              	.LBE7:
  49              	.LBE6:
  50              		.loc 1 473 0
  51 000c 00BF     		nop
  52 000e 02B0     		add	sp, sp, #8
  53              		.cfi_def_cfa_offset 0
  54              		@ sp needed
  55 0010 7047     		bx	lr
  56              		.cfi_endproc
  57              	.LFE127:
ARM GAS  /tmp/ccTy4mHl.s 			page 2


  58              		.size	port_lock, .-port_lock
  59 0012 00BF     		.section	.text.port_unlock,"ax",%progbits
  60              		.align	1
  61              		.p2align 4,,15
  62              		.syntax unified
  63              		.thumb
  64              		.thumb_func
  65              		.fpu fpv4-sp-d16
  66              		.type	port_unlock, %function
  67              	port_unlock:
  68              	.LFB128:
  69              		.loc 1 480 0
  70              		.cfi_startproc
  71              		@ args = 0, pretend = 0, frame = 8
  72              		@ frame_needed = 0, uses_anonymous_args = 0
  73              		@ link register save eliminated.
  74 0000 82B0     		sub	sp, sp, #8
  75              		.cfi_def_cfa_offset 8
  76 0002 0023     		movs	r3, #0
  77 0004 0193     		str	r3, [sp, #4]
  78              	.LBB8:
  79              	.LBB9:
  80              		.loc 2 548 0
  81 0006 019B     		ldr	r3, [sp, #4]
  82              		.syntax unified
  83              	@ 548 "../ChibiOS/os/ext/CMSIS/include/core_cmFunc.h" 1
  84 0008 83F31188 		MSR basepri, r3
  85              	@ 0 "" 2
  86              		.thumb
  87              		.syntax unified
  88              	.LBE9:
  89              	.LBE8:
  90              		.loc 1 487 0
  91 000c 00BF     		nop
  92 000e 02B0     		add	sp, sp, #8
  93              		.cfi_def_cfa_offset 0
  94              		@ sp needed
  95 0010 7047     		bx	lr
  96              		.cfi_endproc
  97              	.LFE128:
  98              		.size	port_unlock, .-port_unlock
  99 0012 00BF     		.section	.text.port_lock_from_isr,"ax",%progbits
 100              		.align	1
 101              		.p2align 4,,15
 102              		.syntax unified
 103              		.thumb
 104              		.thumb_func
 105              		.fpu fpv4-sp-d16
 106              		.type	port_lock_from_isr, %function
 107              	port_lock_from_isr:
 108              	.LFB129:
 109              		.loc 1 495 0
 110              		.cfi_startproc
 111              		@ args = 0, pretend = 0, frame = 0
 112              		@ frame_needed = 0, uses_anonymous_args = 0
 113 0000 08B5     		push	{r3, lr}
 114              		.cfi_def_cfa_offset 8
ARM GAS  /tmp/ccTy4mHl.s 			page 3


 115              		.cfi_offset 3, -8
 116              		.cfi_offset 14, -4
 117              		.loc 1 497 0
 118 0002 FFF7FEFF 		bl	port_lock
 119              		.loc 1 498 0
 120 0006 00BF     		nop
 121 0008 08BD     		pop	{r3, pc}
 122              		.cfi_endproc
 123              	.LFE129:
 124              		.size	port_lock_from_isr, .-port_lock_from_isr
 125              		.section	.text.port_unlock_from_isr,"ax",%progbits
 126              		.align	1
 127              		.p2align 4,,15
 128              		.syntax unified
 129              		.thumb
 130              		.thumb_func
 131              		.fpu fpv4-sp-d16
 132              		.type	port_unlock_from_isr, %function
 133              	port_unlock_from_isr:
 134              	.LFB130:
 135              		.loc 1 506 0
 136              		.cfi_startproc
 137              		@ args = 0, pretend = 0, frame = 0
 138              		@ frame_needed = 0, uses_anonymous_args = 0
 139 0000 08B5     		push	{r3, lr}
 140              		.cfi_def_cfa_offset 8
 141              		.cfi_offset 3, -8
 142              		.cfi_offset 14, -4
 143              		.loc 1 508 0
 144 0002 FFF7FEFF 		bl	port_unlock
 145              		.loc 1 509 0
 146 0006 00BF     		nop
 147 0008 08BD     		pop	{r3, pc}
 148              		.cfi_endproc
 149              	.LFE130:
 150              		.size	port_unlock_from_isr, .-port_unlock_from_isr
 151              		.section	.text.chSysLockFromISR,"ax",%progbits
 152              		.align	1
 153              		.p2align 4,,15
 154              		.syntax unified
 155              		.thumb
 156              		.thumb_func
 157              		.fpu fpv4-sp-d16
 158              		.type	chSysLockFromISR, %function
 159              	chSysLockFromISR:
 160              	.LFB158:
 161              		.file 3 "../ChibiOS/os/rt/include/chsys.h"
 162              		.loc 3 386 0
 163              		.cfi_startproc
 164              		@ args = 0, pretend = 0, frame = 0
 165              		@ frame_needed = 0, uses_anonymous_args = 0
 166 0000 08B5     		push	{r3, lr}
 167              		.cfi_def_cfa_offset 8
 168              		.cfi_offset 3, -8
 169              		.cfi_offset 14, -4
 170              		.loc 3 388 0
 171 0002 FFF7FEFF 		bl	port_lock_from_isr
ARM GAS  /tmp/ccTy4mHl.s 			page 4


 172              		.loc 3 389 0
 173 0006 FFF7FEFF 		bl	_stats_start_measure_crit_isr
 174              		.loc 3 390 0
 175 000a FFF7FEFF 		bl	_dbg_check_lock_from_isr
 176              		.loc 3 391 0
 177 000e 00BF     		nop
 178 0010 08BD     		pop	{r3, pc}
 179              		.cfi_endproc
 180              	.LFE158:
 181              		.size	chSysLockFromISR, .-chSysLockFromISR
 182 0012 00BF     		.section	.text.chSysUnlockFromISR,"ax",%progbits
 183              		.align	1
 184              		.p2align 4,,15
 185              		.syntax unified
 186              		.thumb
 187              		.thumb_func
 188              		.fpu fpv4-sp-d16
 189              		.type	chSysUnlockFromISR, %function
 190              	chSysUnlockFromISR:
 191              	.LFB159:
 192              		.loc 3 406 0
 193              		.cfi_startproc
 194              		@ args = 0, pretend = 0, frame = 0
 195              		@ frame_needed = 0, uses_anonymous_args = 0
 196 0000 08B5     		push	{r3, lr}
 197              		.cfi_def_cfa_offset 8
 198              		.cfi_offset 3, -8
 199              		.cfi_offset 14, -4
 200              		.loc 3 408 0
 201 0002 FFF7FEFF 		bl	_dbg_check_unlock_from_isr
 202              		.loc 3 409 0
 203 0006 FFF7FEFF 		bl	_stats_stop_measure_crit_isr
 204              		.loc 3 410 0
 205 000a FFF7FEFF 		bl	port_unlock_from_isr
 206              		.loc 3 411 0
 207 000e 00BF     		nop
 208 0010 08BD     		pop	{r3, pc}
 209              		.cfi_endproc
 210              	.LFE159:
 211              		.size	chSysUnlockFromISR, .-chSysUnlockFromISR
 212 0012 00BF     		.section	.text.osalSysLockFromISR,"ax",%progbits
 213              		.align	1
 214              		.p2align 4,,15
 215              		.syntax unified
 216              		.thumb
 217              		.thumb_func
 218              		.fpu fpv4-sp-d16
 219              		.type	osalSysLockFromISR, %function
 220              	osalSysLockFromISR:
 221              	.LFB237:
 222              		.file 4 "../ChibiOS/os/hal/osal/rt/osal.h"
 223              		.loc 4 513 0
 224              		.cfi_startproc
 225              		@ args = 0, pretend = 0, frame = 0
 226              		@ frame_needed = 0, uses_anonymous_args = 0
 227 0000 08B5     		push	{r3, lr}
 228              		.cfi_def_cfa_offset 8
ARM GAS  /tmp/ccTy4mHl.s 			page 5


 229              		.cfi_offset 3, -8
 230              		.cfi_offset 14, -4
 231              		.loc 4 515 0
 232 0002 FFF7FEFF 		bl	chSysLockFromISR
 233              		.loc 4 516 0
 234 0006 00BF     		nop
 235 0008 08BD     		pop	{r3, pc}
 236              		.cfi_endproc
 237              	.LFE237:
 238              		.size	osalSysLockFromISR, .-osalSysLockFromISR
 239 000a 00BF     		.section	.text.osalSysUnlockFromISR,"ax",%progbits
 240              		.align	1
 241              		.p2align 4,,15
 242              		.syntax unified
 243              		.thumb
 244              		.thumb_func
 245              		.fpu fpv4-sp-d16
 246              		.type	osalSysUnlockFromISR, %function
 247              	osalSysUnlockFromISR:
 248              	.LFB238:
 249              		.loc 4 524 0
 250              		.cfi_startproc
 251              		@ args = 0, pretend = 0, frame = 0
 252              		@ frame_needed = 0, uses_anonymous_args = 0
 253 0000 08B5     		push	{r3, lr}
 254              		.cfi_def_cfa_offset 8
 255              		.cfi_offset 3, -8
 256              		.cfi_offset 14, -4
 257              		.loc 4 526 0
 258 0002 FFF7FEFF 		bl	chSysUnlockFromISR
 259              		.loc 4 527 0
 260 0006 00BF     		nop
 261 0008 08BD     		pop	{r3, pc}
 262              		.cfi_endproc
 263              	.LFE238:
 264              		.size	osalSysUnlockFromISR, .-osalSysUnlockFromISR
 265              		.section	.text.osalOsTimerHandlerI,"ax",%progbits
 266              		.align	1
 267              		.p2align 4,,15
 268              		.syntax unified
 269              		.thumb
 270              		.thumb_func
 271              		.fpu fpv4-sp-d16
 272              		.type	osalOsTimerHandlerI, %function
 273              	osalOsTimerHandlerI:
 274              	.LFB242:
 275              		.loc 4 583 0
 276              		.cfi_startproc
 277              		@ args = 0, pretend = 0, frame = 0
 278              		@ frame_needed = 0, uses_anonymous_args = 0
 279 0000 08B5     		push	{r3, lr}
 280              		.cfi_def_cfa_offset 8
 281              		.cfi_offset 3, -8
 282              		.cfi_offset 14, -4
 283              		.loc 4 585 0
 284 0002 FFF7FEFF 		bl	chSysTimerHandlerI
 285              		.loc 4 586 0
ARM GAS  /tmp/ccTy4mHl.s 			page 6


 286 0006 00BF     		nop
 287 0008 08BD     		pop	{r3, pc}
 288              		.cfi_endproc
 289              	.LFE242:
 290              		.size	osalOsTimerHandlerI, .-osalOsTimerHandlerI
 291              		.section	.text.SysTick_Handler,"ax",%progbits
 292              		.align	1
 293              		.p2align 4,,15
 294              		.global	SysTick_Handler
 295              		.syntax unified
 296              		.thumb
 297              		.thumb_func
 298              		.fpu fpv4-sp-d16
 299              		.type	SysTick_Handler, %function
 300              	SysTick_Handler:
 301              	.LFB268:
 302              		.file 5 "../ChibiOS/os/hal/ports/STM32/LLD/TIMv1/st_lld.c"
 303              		.loc 5 220 0
 304              		.cfi_startproc
 305              		@ args = 0, pretend = 0, frame = 0
 306              		@ frame_needed = 0, uses_anonymous_args = 0
 307 0000 08B5     		push	{r3, lr}
 308              		.cfi_def_cfa_offset 8
 309              		.cfi_offset 3, -8
 310              		.cfi_offset 14, -4
 311              		.loc 5 222 0
 312 0002 FFF7FEFF 		bl	_stats_increase_irq
 313 0006 FFF7FEFF 		bl	_dbg_check_enter_isr
 314              		.loc 5 224 0
 315 000a FFF7FEFF 		bl	osalSysLockFromISR
 316              		.loc 5 225 0
 317 000e FFF7FEFF 		bl	osalOsTimerHandlerI
 318              		.loc 5 226 0
 319 0012 FFF7FEFF 		bl	osalSysUnlockFromISR
 320              		.loc 5 228 0
 321 0016 FFF7FEFF 		bl	_dbg_check_leave_isr
 322 001a FFF7FEFF 		bl	_port_irq_epilogue
 323              		.loc 5 229 0
 324 001e 00BF     		nop
 325 0020 08BD     		pop	{r3, pc}
 326              		.cfi_endproc
 327              	.LFE268:
 328              		.size	SysTick_Handler, .-SysTick_Handler
 329 0022 00BF     		.section	.text.st_lld_init,"ax",%progbits
 330              		.align	1
 331              		.p2align 4,,15
 332              		.global	st_lld_init
 333              		.syntax unified
 334              		.thumb
 335              		.thumb_func
 336              		.fpu fpv4-sp-d16
 337              		.type	st_lld_init, %function
 338              	st_lld_init:
 339              	.LFB269:
 340              		.loc 5 267 0
 341              		.cfi_startproc
 342              		@ args = 0, pretend = 0, frame = 0
ARM GAS  /tmp/ccTy4mHl.s 			page 7


 343              		@ frame_needed = 0, uses_anonymous_args = 0
 344 0000 08B5     		push	{r3, lr}
 345              		.cfi_def_cfa_offset 8
 346              		.cfi_offset 3, -8
 347              		.cfi_offset 14, -4
 348              		.loc 5 295 0
 349 0002 084B     		ldr	r3, .L12
 350 0004 44F29F12 		movw	r2, #16799
 351 0008 5A60     		str	r2, [r3, #4]
 352              		.loc 5 296 0
 353 000a 064B     		ldr	r3, .L12
 354 000c 0022     		movs	r2, #0
 355 000e 9A60     		str	r2, [r3, #8]
 356              		.loc 5 297 0
 357 0010 044B     		ldr	r3, .L12
 358 0012 0722     		movs	r2, #7
 359 0014 1A60     		str	r2, [r3]
 360              		.loc 5 302 0
 361 0016 0821     		movs	r1, #8
 362 0018 0B20     		movs	r0, #11
 363 001a FFF7FEFF 		bl	nvicSetSystemHandlerPriority
 364              		.loc 5 304 0
 365 001e 00BF     		nop
 366 0020 08BD     		pop	{r3, pc}
 367              	.L13:
 368 0022 00BF     		.align	2
 369              	.L12:
 370 0024 10E000E0 		.word	-536813552
 371              		.cfi_endproc
 372              	.LFE269:
 373              		.size	st_lld_init, .-st_lld_init
 374              		.text
 375              	.Letext0:
 376              		.file 6 "/usr/lib/gcc/arm-none-eabi/6.3.1/include/stddef.h"
 377              		.file 7 "/usr/arm-none-eabi/include/machine/_default_types.h"
 378              		.file 8 "/usr/arm-none-eabi/include/sys/_stdint.h"
 379              		.file 9 "../ChibiOS/os/rt/ports/ARMCMx/compilers/GCC/chtypes.h"
 380              		.file 10 "../ChibiOS/os/rt/include/chsystypes.h"
 381              		.file 11 "../ChibiOS/os/rt/include/chschd.h"
 382              		.file 12 "../ChibiOS/os/ext/CMSIS/include/core_cm4.h"
 383              		.file 13 "../ChibiOS/os/ext/CMSIS/ST/STM32F4xx/system_stm32f4xx.h"
 384              		.file 14 "../ChibiOS/os/ext/CMSIS/ST/STM32F4xx/stm32f437xx.h"
 385              		.file 15 "../ChibiOS/os/rt/ports/ARMCMx/chcore.h"
 386              		.file 16 "../ChibiOS/os/rt/include/chtm.h"
 387              		.file 17 "../ChibiOS/os/rt/include/chstats.h"
 388              		.file 18 "../ChibiOS/os/rt/include/chsem.h"
 389              		.file 19 "../ChibiOS/os/rt/include/chmtx.h"
 390              		.file 20 "../ChibiOS/os/rt/include/chregistry.h"
 391              		.file 21 "../ChibiOS/os/rt/include/chevents.h"
 392              		.file 22 "../ChibiOS/os/rt/include/chqueues.h"
 393              		.file 23 "../ChibiOS/os/hal/ports/STM32/LLD/DMAv2/stm32_dma.h"
 394              		.file 24 "../ChibiOS/os/hal/ports/STM32/LLD/GPIOv2/pal_lld.h"
 395              		.file 25 "../ChibiOS/os/hal/include/ext.h"
 396              		.file 26 "../ChibiOS/os/hal/ports/STM32/LLD/EXTIv1/ext_lld.h"
 397              		.file 27 "../ChibiOS/os/hal/include/gpt.h"
 398              		.file 28 "../ChibiOS/os/hal/ports/STM32/LLD/TIMv1/gpt_lld.h"
 399              		.file 29 "../ChibiOS/os/hal/ports/STM32/LLD/TIMv1/stm32_tim.h"
ARM GAS  /tmp/ccTy4mHl.s 			page 8


 400              		.file 30 "../ChibiOS/os/hal/include/pwm.h"
 401              		.file 31 "../ChibiOS/os/hal/ports/STM32/LLD/TIMv1/pwm_lld.h"
 402              		.file 32 "../ChibiOS/os/hal/include/serial.h"
 403              		.file 33 "../ChibiOS/os/hal/ports/STM32/LLD/USARTv1/serial_lld.h"
 404              		.file 34 "../ChibiOS/os/hal/include/usb.h"
 405              		.file 35 "../ChibiOS/os/hal/ports/STM32/LLD/OTGv1/usb_lld.h"
 406              		.file 36 "../ChibiOS/os/hal/ports/STM32/LLD/OTGv1/stm32_otg.h"