ARM GAS  /tmp/cczwr5km.s 			page 1


   1              		.cpu cortex-m4
   2              		.eabi_attribute 27, 1
   3              		.eabi_attribute 28, 1
   4              		.eabi_attribute 20, 1
   5              		.eabi_attribute 21, 1
   6              		.eabi_attribute 23, 3
   7              		.eabi_attribute 24, 1
   8              		.eabi_attribute 25, 1
   9              		.eabi_attribute 26, 1
  10              		.eabi_attribute 30, 6
  11              		.eabi_attribute 34, 1
  12              		.eabi_attribute 18, 4
  13              		.file	"testmsg.c"
  14              		.text
  15              	.Ltext0:
  16              		.cfi_sections	.debug_frame
  17              		.section	.text.chThdGetSelfX,"ax",%progbits
  18              		.align	1
  19              		.p2align 4,,15
  20              		.syntax unified
  21              		.thumb
  22              		.thumb_func
  23              		.fpu fpv4-sp-d16
  24              		.type	chThdGetSelfX, %function
  25              	chThdGetSelfX:
  26              	.LFB178:
  27              		.file 1 "../ChibiOS/os/rt/include/chthreads.h"
  28              		.loc 1 174 0
  29              		.cfi_startproc
  30              		@ args = 0, pretend = 0, frame = 0
  31              		@ frame_needed = 0, uses_anonymous_args = 0
  32              		@ link register save eliminated.
  33              		.loc 1 176 0
  34 0000 014B     		ldr	r3, .L3
  35 0002 9B69     		ldr	r3, [r3, #24]
  36              		.loc 1 177 0
  37 0004 1846     		mov	r0, r3
  38 0006 7047     		bx	lr
  39              	.L4:
  40              		.align	2
  41              	.L3:
  42 0008 00000000 		.word	ch
  43              		.cfi_endproc
  44              	.LFE178:
  45              		.size	chThdGetSelfX, .-chThdGetSelfX
  46              		.section	.text.chThdGetPriorityX,"ax",%progbits
  47              		.align	1
  48              		.p2align 4,,15
  49              		.syntax unified
  50              		.thumb
  51              		.thumb_func
  52              		.fpu fpv4-sp-d16
  53              		.type	chThdGetPriorityX, %function
  54              	chThdGetPriorityX:
  55              	.LFB179:
  56              		.loc 1 187 0
  57              		.cfi_startproc
ARM GAS  /tmp/cczwr5km.s 			page 2


  58              		@ args = 0, pretend = 0, frame = 0
  59              		@ frame_needed = 0, uses_anonymous_args = 0
  60 0000 08B5     		push	{r3, lr}
  61              		.cfi_def_cfa_offset 8
  62              		.cfi_offset 3, -8
  63              		.cfi_offset 14, -4
  64              		.loc 1 189 0
  65 0002 FFF7FEFF 		bl	chThdGetSelfX
  66 0006 0346     		mov	r3, r0
  67 0008 9B68     		ldr	r3, [r3, #8]
  68              		.loc 1 190 0
  69 000a 1846     		mov	r0, r3
  70 000c 08BD     		pop	{r3, pc}
  71              		.cfi_endproc
  72              	.LFE179:
  73              		.size	chThdGetPriorityX, .-chThdGetPriorityX
  74 000e 00BF     		.section	.text.chMsgGet,"ax",%progbits
  75              		.align	1
  76              		.p2align 4,,15
  77              		.syntax unified
  78              		.thumb
  79              		.thumb_func
  80              		.fpu fpv4-sp-d16
  81              		.type	chMsgGet, %function
  82              	chMsgGet:
  83              	.LFB212:
  84              		.file 2 "../ChibiOS/os/rt/include/chmsg.h"
  85              		.loc 2 96 0
  86              		.cfi_startproc
  87              		@ args = 0, pretend = 0, frame = 8
  88              		@ frame_needed = 0, uses_anonymous_args = 0
  89              		@ link register save eliminated.
  90 0000 82B0     		sub	sp, sp, #8
  91              		.cfi_def_cfa_offset 8
  92 0002 0190     		str	r0, [sp, #4]
  93              		.loc 2 98 0
  94 0004 019B     		ldr	r3, [sp, #4]
  95 0006 5B6B     		ldr	r3, [r3, #52]
  96              		.loc 2 99 0
  97 0008 1846     		mov	r0, r3
  98 000a 02B0     		add	sp, sp, #8
  99              		.cfi_def_cfa_offset 0
 100              		@ sp needed
 101 000c 7047     		bx	lr
 102              		.cfi_endproc
 103              	.LFE212:
 104              		.size	chMsgGet, .-chMsgGet
 105 000e 00BF     		.section	.text.thread,"ax",%progbits
 106              		.align	1
 107              		.p2align 4,,15
 108              		.syntax unified
 109              		.thumb
 110              		.thumb_func
 111              		.fpu fpv4-sp-d16
 112              		.type	thread, %function
 113              	thread:
 114              	.LFB231:
ARM GAS  /tmp/cczwr5km.s 			page 3


 115              		.file 3 "../ChibiOS/test/rt/testmsg.c"
 116              		.loc 3 59 0
 117              		.cfi_startproc
 118              		@ args = 0, pretend = 0, frame = 8
 119              		@ frame_needed = 0, uses_anonymous_args = 0
 120 0000 00B5     		push	{lr}
 121              		.cfi_def_cfa_offset 4
 122              		.cfi_offset 14, -4
 123 0002 83B0     		sub	sp, sp, #12
 124              		.cfi_def_cfa_offset 16
 125 0004 0190     		str	r0, [sp, #4]
 126              		.loc 3 61 0
 127 0006 4121     		movs	r1, #65
 128 0008 0198     		ldr	r0, [sp, #4]
 129 000a FFF7FEFF 		bl	chMsgSend
 130              		.loc 3 62 0
 131 000e 4221     		movs	r1, #66
 132 0010 0198     		ldr	r0, [sp, #4]
 133 0012 FFF7FEFF 		bl	chMsgSend
 134              		.loc 3 63 0
 135 0016 4321     		movs	r1, #67
 136 0018 0198     		ldr	r0, [sp, #4]
 137 001a FFF7FEFF 		bl	chMsgSend
 138              		.loc 3 64 0
 139 001e 00BF     		nop
 140 0020 03B0     		add	sp, sp, #12
 141              		.cfi_def_cfa_offset 4
 142              		@ sp needed
 143 0022 5DF804FB 		ldr	pc, [sp], #4
 144              		.cfi_endproc
 145              	.LFE231:
 146              		.size	thread, .-thread
 147 0026 00BF     		.section	.rodata
 148              		.align	2
 149              	.LC0:
 150 0000 41424300 		.ascii	"ABC\000"
 151              		.section	.text.msg1_execute,"ax",%progbits
 152              		.align	1
 153              		.p2align 4,,15
 154              		.syntax unified
 155              		.thumb
 156              		.thumb_func
 157              		.fpu fpv4-sp-d16
 158              		.type	msg1_execute, %function
 159              	msg1_execute:
 160              	.LFB232:
 161              		.loc 3 66 0
 162              		.cfi_startproc
 163              		@ args = 0, pretend = 0, frame = 8
 164              		@ frame_needed = 0, uses_anonymous_args = 0
 165 0000 30B5     		push	{r4, r5, lr}
 166              		.cfi_def_cfa_offset 12
 167              		.cfi_offset 4, -12
 168              		.cfi_offset 5, -8
 169              		.cfi_offset 14, -4
 170 0002 85B0     		sub	sp, sp, #20
 171              		.cfi_def_cfa_offset 32
ARM GAS  /tmp/cczwr5km.s 			page 4


 172              		.loc 3 73 0
 173 0004 254B     		ldr	r3, .L12
 174 0006 1C68     		ldr	r4, [r3]
 175 0008 FFF7FEFF 		bl	chThdGetPriorityX
 176 000c 0346     		mov	r3, r0
 177 000e 5D1C     		adds	r5, r3, #1
 178              		.loc 3 74 0
 179 0010 FFF7FEFF 		bl	chThdGetSelfX
 180 0014 0346     		mov	r3, r0
 181              		.loc 3 73 0
 182 0016 0093     		str	r3, [sp]
 183 0018 214B     		ldr	r3, .L12+4
 184 001a 2A46     		mov	r2, r5
 185 001c 4FF4F871 		mov	r1, #496
 186 0020 2046     		mov	r0, r4
 187 0022 FFF7FEFF 		bl	chThdCreateStatic
 188 0026 0246     		mov	r2, r0
 189 0028 1E4B     		ldr	r3, .L12+8
 190 002a 1A60     		str	r2, [r3]
 191              		.loc 3 75 0
 192 002c FFF7FEFF 		bl	chMsgWait
 193 0030 0390     		str	r0, [sp, #12]
 194              		.loc 3 76 0
 195 0032 0398     		ldr	r0, [sp, #12]
 196 0034 FFF7FEFF 		bl	chMsgGet
 197 0038 0290     		str	r0, [sp, #8]
 198              		.loc 3 77 0
 199 003a 0299     		ldr	r1, [sp, #8]
 200 003c 0398     		ldr	r0, [sp, #12]
 201 003e FFF7FEFF 		bl	chMsgRelease
 202              		.loc 3 78 0
 203 0042 029B     		ldr	r3, [sp, #8]
 204 0044 DBB2     		uxtb	r3, r3
 205 0046 1846     		mov	r0, r3
 206 0048 FFF7FEFF 		bl	test_emit_token
 207              		.loc 3 79 0
 208 004c FFF7FEFF 		bl	chMsgWait
 209 0050 0390     		str	r0, [sp, #12]
 210              		.loc 3 80 0
 211 0052 0398     		ldr	r0, [sp, #12]
 212 0054 FFF7FEFF 		bl	chMsgGet
 213 0058 0290     		str	r0, [sp, #8]
 214              		.loc 3 81 0
 215 005a 0299     		ldr	r1, [sp, #8]
 216 005c 0398     		ldr	r0, [sp, #12]
 217 005e FFF7FEFF 		bl	chMsgRelease
 218              		.loc 3 82 0
 219 0062 029B     		ldr	r3, [sp, #8]
 220 0064 DBB2     		uxtb	r3, r3
 221 0066 1846     		mov	r0, r3
 222 0068 FFF7FEFF 		bl	test_emit_token
 223              		.loc 3 83 0
 224 006c FFF7FEFF 		bl	chMsgWait
 225 0070 0390     		str	r0, [sp, #12]
 226              		.loc 3 84 0
 227 0072 0398     		ldr	r0, [sp, #12]
 228 0074 FFF7FEFF 		bl	chMsgGet
ARM GAS  /tmp/cczwr5km.s 			page 5


 229 0078 0290     		str	r0, [sp, #8]
 230              		.loc 3 85 0
 231 007a 0299     		ldr	r1, [sp, #8]
 232 007c 0398     		ldr	r0, [sp, #12]
 233 007e FFF7FEFF 		bl	chMsgRelease
 234              		.loc 3 86 0
 235 0082 029B     		ldr	r3, [sp, #8]
 236 0084 DBB2     		uxtb	r3, r3
 237 0086 1846     		mov	r0, r3
 238 0088 FFF7FEFF 		bl	test_emit_token
 239              		.loc 3 87 0
 240 008c 0649     		ldr	r1, .L12+12
 241 008e 0120     		movs	r0, #1
 242 0090 FFF7FEFF 		bl	_test_assert_sequence
 243 0094 0346     		mov	r3, r0
 244 0096 002B     		cmp	r3, #0
 245              		.loc 3 88 0
 246 0098 05B0     		add	sp, sp, #20
 247              		.cfi_def_cfa_offset 12
 248              		@ sp needed
 249 009a 30BD     		pop	{r4, r5, pc}
 250              	.L13:
 251              		.align	2
 252              	.L12:
 253 009c 00000000 		.word	wa
 254 00a0 00000000 		.word	thread
 255 00a4 00000000 		.word	threads
 256 00a8 00000000 		.word	.LC0
 257              		.cfi_endproc
 258              	.LFE232:
 259              		.size	msg1_execute, .-msg1_execute
 260              		.global	testmsg1
 261              		.section	.rodata
 262              		.align	2
 263              	.LC1:
 264 0004 4D657373 		.ascii	"Messages, loop\000"
 264      61676573 
 264      2C206C6F 
 264      6F7000
 265              		.section	.rodata.testmsg1,"a",%progbits
 266              		.align	2
 267              		.type	testmsg1, %object
 268              		.size	testmsg1, 16
 269              	testmsg1:
 270 0000 04000000 		.word	.LC1
 271 0004 00000000 		.word	0
 272 0008 00000000 		.word	0
 273 000c 00000000 		.word	msg1_execute
 274              		.global	patternmsg
 275              		.section	.rodata.patternmsg,"a",%progbits
 276              		.align	2
 277              		.type	patternmsg, %object
 278              		.size	patternmsg, 8
 279              	patternmsg:
 280 0000 00000000 		.word	testmsg1
 281 0004 00000000 		.word	0
 282              		.text
ARM GAS  /tmp/cczwr5km.s 			page 6


 283              	.Letext0:
 284              		.file 4 "/usr/lib/gcc/arm-none-eabi/6.3.1/include/stddef.h"
 285              		.file 5 "/usr/arm-none-eabi/include/machine/_default_types.h"
 286              		.file 6 "/usr/arm-none-eabi/include/sys/_stdint.h"
 287              		.file 7 "../ChibiOS/os/rt/ports/ARMCMx/compilers/GCC/chtypes.h"
 288              		.file 8 "../ChibiOS/os/rt/include/chsystypes.h"
 289              		.file 9 "../ChibiOS/os/rt/include/chschd.h"
 290              		.file 10 "../ChibiOS/os/ext/CMSIS/include/core_cm4.h"
 291              		.file 11 "../ChibiOS/os/ext/CMSIS/ST/STM32F4xx/system_stm32f4xx.h"
 292              		.file 12 "../ChibiOS/os/rt/ports/ARMCMx/chcore.h"
 293              		.file 13 "../ChibiOS/os/rt/ports/ARMCMx/chcore_v7m.h"
 294              		.file 14 "../ChibiOS/os/rt/include/chtm.h"
 295              		.file 15 "../ChibiOS/os/rt/include/chstats.h"
 296              		.file 16 "../ChibiOS/os/rt/include/chsem.h"
 297              		.file 17 "../ChibiOS/os/rt/include/chmtx.h"
 298              		.file 18 "../ChibiOS/os/rt/include/chregistry.h"
 299              		.file 19 "../ChibiOS/test/rt/test.h"