ARM GAS  /tmp/ccbmFvQZ.s 			page 1


   1              		.cpu cortex-m4
   2              		.eabi_attribute 27, 1
   3              		.eabi_attribute 28, 1
   4              		.eabi_attribute 20, 1
   5              		.eabi_attribute 21, 1
   6              		.eabi_attribute 23, 3
   7              		.eabi_attribute 24, 1
   8              		.eabi_attribute 25, 1
   9              		.eabi_attribute 26, 1
  10              		.eabi_attribute 30, 6
  11              		.eabi_attribute 34, 1
  12              		.eabi_attribute 18, 4
  13              		.file	"testdyn.c"
  14              		.text
  15              	.Ltext0:
  16              		.cfi_sections	.debug_frame
  17              		.section	.text.chThdGetSelfX,"ax",%progbits
  18              		.align	1
  19              		.p2align 4,,15
  20              		.syntax unified
  21              		.thumb
  22              		.thumb_func
  23              		.fpu fpv4-sp-d16
  24              		.type	chThdGetSelfX, %function
  25              	chThdGetSelfX:
  26              	.LFB178:
  27              		.file 1 "../ChibiOS/os/rt/include/chthreads.h"
  28              		.loc 1 174 0
  29              		.cfi_startproc
  30              		@ args = 0, pretend = 0, frame = 0
  31              		@ frame_needed = 0, uses_anonymous_args = 0
  32              		@ link register save eliminated.
  33              		.loc 1 176 0
  34 0000 014B     		ldr	r3, .L3
  35 0002 9B69     		ldr	r3, [r3, #24]
  36              		.loc 1 177 0
  37 0004 1846     		mov	r0, r3
  38 0006 7047     		bx	lr
  39              	.L4:
  40              		.align	2
  41              	.L3:
  42 0008 00000000 		.word	ch
  43              		.cfi_endproc
  44              	.LFE178:
  45              		.size	chThdGetSelfX, .-chThdGetSelfX
  46              		.section	.text.chThdGetPriorityX,"ax",%progbits
  47              		.align	1
  48              		.p2align 4,,15
  49              		.syntax unified
  50              		.thumb
  51              		.thumb_func
  52              		.fpu fpv4-sp-d16
  53              		.type	chThdGetPriorityX, %function
  54              	chThdGetPriorityX:
  55              	.LFB179:
  56              		.loc 1 187 0
  57              		.cfi_startproc
ARM GAS  /tmp/ccbmFvQZ.s 			page 2


  58              		@ args = 0, pretend = 0, frame = 0
  59              		@ frame_needed = 0, uses_anonymous_args = 0
  60 0000 08B5     		push	{r3, lr}
  61              		.cfi_def_cfa_offset 8
  62              		.cfi_offset 3, -8
  63              		.cfi_offset 14, -4
  64              		.loc 1 189 0
  65 0002 FFF7FEFF 		bl	chThdGetSelfX
  66 0006 0346     		mov	r3, r0
  67 0008 9B68     		ldr	r3, [r3, #8]
  68              		.loc 1 190 0
  69 000a 1846     		mov	r0, r3
  70 000c 08BD     		pop	{r3, pc}
  71              		.cfi_endproc
  72              	.LFE179:
  73              		.size	chThdGetPriorityX, .-chThdGetPriorityX
  74 000e 00BF     		.section	.bss.heap1,"aw",%nobits
  75              		.align	3
  76              		.type	heap1, %object
  77              		.size	heap1, 32
  78              	heap1:
  79 0000 00000000 		.space	32
  79      00000000 
  79      00000000 
  79      00000000 
  79      00000000 
  80              		.section	.bss.mp1,"aw",%nobits
  81              		.align	2
  82              		.type	mp1, %object
  83              		.size	mp1, 12
  84              	mp1:
  85 0000 00000000 		.space	12
  85      00000000 
  85      00000000 
  86              		.section	.text.thread,"ax",%progbits
  87              		.align	1
  88              		.p2align 4,,15
  89              		.syntax unified
  90              		.thumb
  91              		.thumb_func
  92              		.fpu fpv4-sp-d16
  93              		.type	thread, %function
  94              	thread:
  95              	.LFB231:
  96              		.file 2 "../ChibiOS/test/rt/testdyn.c"
  97              		.loc 2 71 0
  98              		.cfi_startproc
  99              		@ args = 0, pretend = 0, frame = 8
 100              		@ frame_needed = 0, uses_anonymous_args = 0
 101 0000 00B5     		push	{lr}
 102              		.cfi_def_cfa_offset 4
 103              		.cfi_offset 14, -4
 104 0002 83B0     		sub	sp, sp, #12
 105              		.cfi_def_cfa_offset 16
 106 0004 0190     		str	r0, [sp, #4]
 107              		.loc 2 73 0
 108 0006 019B     		ldr	r3, [sp, #4]
ARM GAS  /tmp/ccbmFvQZ.s 			page 3


 109 0008 1B78     		ldrb	r3, [r3]	@ zero_extendqisi2
 110 000a 1846     		mov	r0, r3
 111 000c FFF7FEFF 		bl	test_emit_token
 112              		.loc 2 74 0
 113 0010 00BF     		nop
 114 0012 03B0     		add	sp, sp, #12
 115              		.cfi_def_cfa_offset 4
 116              		@ sp needed
 117 0014 5DF804FB 		ldr	pc, [sp], #4
 118              		.cfi_endproc
 119              	.LFE231:
 120              		.size	thread, .-thread
 121              		.section	.text.dyn1_setup,"ax",%progbits
 122              		.align	1
 123              		.p2align 4,,15
 124              		.syntax unified
 125              		.thumb
 126              		.thumb_func
 127              		.fpu fpv4-sp-d16
 128              		.type	dyn1_setup, %function
 129              	dyn1_setup:
 130              	.LFB232:
 131              		.loc 2 77 0
 132              		.cfi_startproc
 133              		@ args = 0, pretend = 0, frame = 0
 134              		@ frame_needed = 0, uses_anonymous_args = 0
 135 0000 08B5     		push	{r3, lr}
 136              		.cfi_def_cfa_offset 8
 137              		.cfi_offset 3, -8
 138              		.cfi_offset 14, -4
 139              		.loc 2 79 0
 140 0002 4FF41B62 		mov	r2, #2480
 141 0006 0349     		ldr	r1, .L9
 142 0008 0348     		ldr	r0, .L9+4
 143 000a FFF7FEFF 		bl	chHeapObjectInit
 144              		.loc 2 80 0
 145 000e 00BF     		nop
 146 0010 08BD     		pop	{r3, pc}
 147              	.L10:
 148 0012 00BF     		.align	2
 149              	.L9:
 150 0014 00000000 		.word	test
 151 0018 00000000 		.word	heap1
 152              		.cfi_endproc
 153              	.LFE232:
 154              		.size	dyn1_setup, .-dyn1_setup
 155              		.section	.rodata
 156              		.align	2
 157              	.LC0:
 158 0000 4100     		.ascii	"A\000"
 159 0002 0000     		.align	2
 160              	.LC1:
 161 0004 4200     		.ascii	"B\000"
 162 0006 0000     		.align	2
 163              	.LC2:
 164 0008 4300     		.ascii	"C\000"
 165 000a 0000     		.align	2
ARM GAS  /tmp/ccbmFvQZ.s 			page 4


 166              	.LC3:
 167 000c 414200   		.ascii	"AB\000"
 168              		.section	.text.dyn1_execute,"ax",%progbits
 169              		.align	1
 170              		.p2align 4,,15
 171              		.syntax unified
 172              		.thumb
 173              		.thumb_func
 174              		.fpu fpv4-sp-d16
 175              		.type	dyn1_execute, %function
 176              	dyn1_execute:
 177              	.LFB233:
 178              		.loc 2 82 0
 179              		.cfi_startproc
 180              		@ args = 0, pretend = 0, frame = 16
 181              		@ frame_needed = 0, uses_anonymous_args = 0
 182 0000 00B5     		push	{lr}
 183              		.cfi_def_cfa_offset 4
 184              		.cfi_offset 14, -4
 185 0002 87B0     		sub	sp, sp, #28
 186              		.cfi_def_cfa_offset 32
 187              		.loc 2 85 0
 188 0004 FFF7FEFF 		bl	chThdGetPriorityX
 189 0008 0590     		str	r0, [sp, #20]
 190              		.loc 2 87 0
 191 000a 02AB     		add	r3, sp, #8
 192 000c 1946     		mov	r1, r3
 193 000e 4548     		ldr	r0, .L23
 194 0010 FFF7FEFF 		bl	chHeapStatus
 195              		.loc 2 89 0
 196 0014 059B     		ldr	r3, [sp, #20]
 197 0016 5A1E     		subs	r2, r3, #1
 198 0018 434B     		ldr	r3, .L23+4
 199 001a 0093     		str	r3, [sp]
 200 001c 434B     		ldr	r3, .L23+8
 201 001e 4FF4F871 		mov	r1, #496
 202 0022 4048     		ldr	r0, .L23
 203 0024 FFF7FEFF 		bl	chThdCreateFromHeap
 204 0028 0246     		mov	r2, r0
 205 002a 414B     		ldr	r3, .L23+12
 206 002c 1A60     		str	r2, [r3]
 207              		.loc 2 92 0
 208 002e 059B     		ldr	r3, [sp, #20]
 209 0030 9A1E     		subs	r2, r3, #2
 210 0032 404B     		ldr	r3, .L23+16
 211 0034 0093     		str	r3, [sp]
 212 0036 3D4B     		ldr	r3, .L23+8
 213 0038 4FF4F871 		mov	r1, #496
 214 003c 3948     		ldr	r0, .L23
 215 003e FFF7FEFF 		bl	chThdCreateFromHeap
 216 0042 0246     		mov	r2, r0
 217 0044 3A4B     		ldr	r3, .L23+12
 218 0046 5A60     		str	r2, [r3, #4]
 219              		.loc 2 96 0
 220 0048 03AB     		add	r3, sp, #12
 221 004a 1946     		mov	r1, r3
 222 004c 3548     		ldr	r0, .L23
ARM GAS  /tmp/ccbmFvQZ.s 			page 5


 223 004e FFF7FEFF 		bl	chHeapStatus
 224              		.loc 2 97 0
 225 0052 039B     		ldr	r3, [sp, #12]
 226 0054 1946     		mov	r1, r3
 227 0056 3348     		ldr	r0, .L23
 228 0058 FFF7FEFF 		bl	chHeapAlloc
 229 005c 0490     		str	r0, [sp, #16]
 230              		.loc 2 98 0
 231 005e 059B     		ldr	r3, [sp, #20]
 232 0060 DA1E     		subs	r2, r3, #3
 233 0062 354B     		ldr	r3, .L23+20
 234 0064 0093     		str	r3, [sp]
 235 0066 314B     		ldr	r3, .L23+8
 236 0068 4FF4F871 		mov	r1, #496
 237 006c 2D48     		ldr	r0, .L23
 238 006e FFF7FEFF 		bl	chThdCreateFromHeap
 239 0072 0246     		mov	r2, r0
 240 0074 2E4B     		ldr	r3, .L23+12
 241 0076 9A60     		str	r2, [r3, #8]
 242              		.loc 2 101 0
 243 0078 0498     		ldr	r0, [sp, #16]
 244 007a FFF7FEFF 		bl	chHeapFree
 245              		.loc 2 103 0
 246 007e 2C4B     		ldr	r3, .L23+12
 247 0080 1B68     		ldr	r3, [r3]
 248 0082 002B     		cmp	r3, #0
 249 0084 11D0     		beq	.L12
 250              		.loc 2 103 0 is_stmt 0 discriminator 1
 251 0086 2A4B     		ldr	r3, .L23+12
 252 0088 5B68     		ldr	r3, [r3, #4]
 253 008a 002B     		cmp	r3, #0
 254 008c 0DD0     		beq	.L12
 255              		.loc 2 103 0 discriminator 3
 256 008e 284B     		ldr	r3, .L23+12
 257 0090 9B68     		ldr	r3, [r3, #8]
 258 0092 002B     		cmp	r3, #0
 259 0094 09D1     		bne	.L12
 260              		.loc 2 103 0 discriminator 5
 261 0096 264B     		ldr	r3, .L23+12
 262 0098 DB68     		ldr	r3, [r3, #12]
 263 009a 002B     		cmp	r3, #0
 264 009c 05D1     		bne	.L12
 265              		.loc 2 103 0 discriminator 7
 266 009e 244B     		ldr	r3, .L23+12
 267 00a0 1B69     		ldr	r3, [r3, #16]
 268 00a2 002B     		cmp	r3, #0
 269 00a4 01D1     		bne	.L12
 270              		.loc 2 103 0 discriminator 9
 271 00a6 0123     		movs	r3, #1
 272 00a8 00E0     		b	.L13
 273              	.L12:
 274              		.loc 2 103 0 discriminator 10
 275 00aa 0023     		movs	r3, #0
 276              	.L13:
 277              		.loc 2 103 0 discriminator 12
 278 00ac 03F00103 		and	r3, r3, #1
 279 00b0 DBB2     		uxtb	r3, r3
ARM GAS  /tmp/ccbmFvQZ.s 			page 6


 280 00b2 1946     		mov	r1, r3
 281 00b4 0120     		movs	r0, #1
 282 00b6 FFF7FEFF 		bl	_test_assert
 283 00ba 0346     		mov	r3, r0
 284 00bc 002B     		cmp	r3, #0
 285 00be 28D1     		bne	.L20
 286              		.loc 2 111 0 is_stmt 1
 287 00c0 FFF7FEFF 		bl	test_wait_threads
 288              		.loc 2 112 0
 289 00c4 1D49     		ldr	r1, .L23+24
 290 00c6 0220     		movs	r0, #2
 291 00c8 FFF7FEFF 		bl	_test_assert_sequence
 292 00cc 0346     		mov	r3, r0
 293 00ce 002B     		cmp	r3, #0
 294 00d0 21D1     		bne	.L21
 295              		.loc 2 115 0
 296 00d2 03AB     		add	r3, sp, #12
 297 00d4 1946     		mov	r1, r3
 298 00d6 1348     		ldr	r0, .L23
 299 00d8 FFF7FEFF 		bl	chHeapStatus
 300 00dc 0346     		mov	r3, r0
 301 00de 012B     		cmp	r3, #1
 302 00e0 0CBF     		ite	eq
 303 00e2 0123     		moveq	r3, #1
 304 00e4 0023     		movne	r3, #0
 305 00e6 DBB2     		uxtb	r3, r3
 306 00e8 1946     		mov	r1, r3
 307 00ea 0320     		movs	r0, #3
 308 00ec FFF7FEFF 		bl	_test_assert
 309 00f0 0346     		mov	r3, r0
 310 00f2 002B     		cmp	r3, #0
 311 00f4 11D1     		bne	.L22
 312              		.loc 2 116 0
 313 00f6 039A     		ldr	r2, [sp, #12]
 314 00f8 029B     		ldr	r3, [sp, #8]
 315 00fa 9A42     		cmp	r2, r3
 316 00fc 0CBF     		ite	eq
 317 00fe 0123     		moveq	r3, #1
 318 0100 0023     		movne	r3, #0
 319 0102 DBB2     		uxtb	r3, r3
 320 0104 1946     		mov	r1, r3
 321 0106 0420     		movs	r0, #4
 322 0108 FFF7FEFF 		bl	_test_assert
 323 010c 0346     		mov	r3, r0
 324 010e 002B     		cmp	r3, #0
 325 0110 04E0     		b	.L11
 326              	.L20:
 327              		.loc 2 103 0
 328 0112 00BF     		nop
 329 0114 02E0     		b	.L11
 330              	.L21:
 331              		.loc 2 112 0
 332 0116 00BF     		nop
 333 0118 00E0     		b	.L11
 334              	.L22:
 335              		.loc 2 115 0
 336 011a 00BF     		nop
ARM GAS  /tmp/ccbmFvQZ.s 			page 7


 337              	.L11:
 338              		.loc 2 117 0
 339 011c 07B0     		add	sp, sp, #28
 340              		.cfi_def_cfa_offset 4
 341              		@ sp needed
 342 011e 5DF804FB 		ldr	pc, [sp], #4
 343              	.L24:
 344 0122 00BF     		.align	2
 345              	.L23:
 346 0124 00000000 		.word	heap1
 347 0128 00000000 		.word	.LC0
 348 012c 00000000 		.word	thread
 349 0130 00000000 		.word	threads
 350 0134 04000000 		.word	.LC1
 351 0138 08000000 		.word	.LC2
 352 013c 0C000000 		.word	.LC3
 353              		.cfi_endproc
 354              	.LFE233:
 355              		.size	dyn1_execute, .-dyn1_execute
 356              		.global	testdyn1
 357              		.section	.rodata
 358 000f 00       		.align	2
 359              	.LC4:
 360 0010 44796E61 		.ascii	"Dynamic APIs, threads creation from heap\000"
 360      6D696320 
 360      41504973 
 360      2C207468 
 360      72656164 
 361              		.section	.rodata.testdyn1,"a",%progbits
 362              		.align	2
 363              		.type	testdyn1, %object
 364              		.size	testdyn1, 16
 365              	testdyn1:
 366 0000 10000000 		.word	.LC4
 367 0004 00000000 		.word	dyn1_setup
 368 0008 00000000 		.word	0
 369 000c 00000000 		.word	dyn1_execute
 370              		.section	.text.dyn2_setup,"ax",%progbits
 371              		.align	1
 372              		.p2align 4,,15
 373              		.syntax unified
 374              		.thumb
 375              		.thumb_func
 376              		.fpu fpv4-sp-d16
 377              		.type	dyn2_setup, %function
 378              	dyn2_setup:
 379              	.LFB234:
 380              		.loc 2 138 0
 381              		.cfi_startproc
 382              		@ args = 0, pretend = 0, frame = 0
 383              		@ frame_needed = 0, uses_anonymous_args = 0
 384 0000 08B5     		push	{r3, lr}
 385              		.cfi_def_cfa_offset 8
 386              		.cfi_offset 3, -8
 387              		.cfi_offset 14, -4
 388              		.loc 2 140 0
 389 0002 0022     		movs	r2, #0
ARM GAS  /tmp/ccbmFvQZ.s 			page 8


 390 0004 4FF4F871 		mov	r1, #496
 391 0008 0248     		ldr	r0, .L26
 392 000a FFF7FEFF 		bl	chPoolObjectInit
 393              		.loc 2 141 0
 394 000e 00BF     		nop
 395 0010 08BD     		pop	{r3, pc}
 396              	.L27:
 397 0012 00BF     		.align	2
 398              	.L26:
 399 0014 00000000 		.word	mp1
 400              		.cfi_endproc
 401              	.LFE234:
 402              		.size	dyn2_setup, .-dyn2_setup
 403              		.section	.rodata
 404 0039 000000   		.align	2
 405              	.LC5:
 406 003c 4400     		.ascii	"D\000"
 407 003e 0000     		.align	2
 408              	.LC6:
 409 0040 4500     		.ascii	"E\000"
 410 0042 0000     		.align	2
 411              	.LC7:
 412 0044 41424344 		.ascii	"ABCD\000"
 412      00
 413              		.section	.text.dyn2_execute,"ax",%progbits
 414              		.align	1
 415              		.p2align 4,,15
 416              		.syntax unified
 417              		.thumb
 418              		.thumb_func
 419              		.fpu fpv4-sp-d16
 420              		.type	dyn2_execute, %function
 421              	dyn2_execute:
 422              	.LFB235:
 423              		.loc 2 143 0
 424              		.cfi_startproc
 425              		@ args = 0, pretend = 0, frame = 8
 426              		@ frame_needed = 0, uses_anonymous_args = 0
 427 0000 00B5     		push	{lr}
 428              		.cfi_def_cfa_offset 4
 429              		.cfi_offset 14, -4
 430 0002 83B0     		sub	sp, sp, #12
 431              		.cfi_def_cfa_offset 16
 432              		.loc 2 145 0
 433 0004 FFF7FEFF 		bl	chThdGetPriorityX
 434 0008 0090     		str	r0, [sp]
 435              		.loc 2 148 0
 436 000a 0023     		movs	r3, #0
 437 000c 0193     		str	r3, [sp, #4]
 438 000e 0AE0     		b	.L29
 439              	.L30:
 440              		.loc 2 149 0 discriminator 3
 441 0010 4D4A     		ldr	r2, .L42
 442 0012 019B     		ldr	r3, [sp, #4]
 443 0014 52F82330 		ldr	r3, [r2, r3, lsl #2]
 444 0018 1946     		mov	r1, r3
 445 001a 4C48     		ldr	r0, .L42+4
ARM GAS  /tmp/ccbmFvQZ.s 			page 9


 446 001c FFF7FEFF 		bl	chPoolFree
 447              		.loc 2 148 0 discriminator 3
 448 0020 019B     		ldr	r3, [sp, #4]
 449 0022 0133     		adds	r3, r3, #1
 450 0024 0193     		str	r3, [sp, #4]
 451              	.L29:
 452              		.loc 2 148 0 is_stmt 0 discriminator 1
 453 0026 019B     		ldr	r3, [sp, #4]
 454 0028 032B     		cmp	r3, #3
 455 002a F1DD     		ble	.L30
 456              		.loc 2 152 0 is_stmt 1
 457 002c 009B     		ldr	r3, [sp]
 458 002e 591E     		subs	r1, r3, #1
 459 0030 474B     		ldr	r3, .L42+8
 460 0032 484A     		ldr	r2, .L42+12
 461 0034 4548     		ldr	r0, .L42+4
 462 0036 FFF7FEFF 		bl	chThdCreateFromMemoryPool
 463 003a 0246     		mov	r2, r0
 464 003c 464B     		ldr	r3, .L42+16
 465 003e 1A60     		str	r2, [r3]
 466              		.loc 2 153 0
 467 0040 009B     		ldr	r3, [sp]
 468 0042 991E     		subs	r1, r3, #2
 469 0044 454B     		ldr	r3, .L42+20
 470 0046 434A     		ldr	r2, .L42+12
 471 0048 4048     		ldr	r0, .L42+4
 472 004a FFF7FEFF 		bl	chThdCreateFromMemoryPool
 473 004e 0246     		mov	r2, r0
 474 0050 414B     		ldr	r3, .L42+16
 475 0052 5A60     		str	r2, [r3, #4]
 476              		.loc 2 154 0
 477 0054 009B     		ldr	r3, [sp]
 478 0056 D91E     		subs	r1, r3, #3
 479 0058 414B     		ldr	r3, .L42+24
 480 005a 3E4A     		ldr	r2, .L42+12
 481 005c 3B48     		ldr	r0, .L42+4
 482 005e FFF7FEFF 		bl	chThdCreateFromMemoryPool
 483 0062 0246     		mov	r2, r0
 484 0064 3C4B     		ldr	r3, .L42+16
 485 0066 9A60     		str	r2, [r3, #8]
 486              		.loc 2 155 0
 487 0068 009B     		ldr	r3, [sp]
 488 006a 191F     		subs	r1, r3, #4
 489 006c 3D4B     		ldr	r3, .L42+28
 490 006e 394A     		ldr	r2, .L42+12
 491 0070 3648     		ldr	r0, .L42+4
 492 0072 FFF7FEFF 		bl	chThdCreateFromMemoryPool
 493 0076 0246     		mov	r2, r0
 494 0078 374B     		ldr	r3, .L42+16
 495 007a DA60     		str	r2, [r3, #12]
 496              		.loc 2 156 0
 497 007c 009B     		ldr	r3, [sp]
 498 007e 591F     		subs	r1, r3, #5
 499 0080 394B     		ldr	r3, .L42+32
 500 0082 344A     		ldr	r2, .L42+12
 501 0084 3148     		ldr	r0, .L42+4
 502 0086 FFF7FEFF 		bl	chThdCreateFromMemoryPool
ARM GAS  /tmp/ccbmFvQZ.s 			page 10


 503 008a 0246     		mov	r2, r0
 504 008c 324B     		ldr	r3, .L42+16
 505 008e 1A61     		str	r2, [r3, #16]
 506              		.loc 2 158 0
 507 0090 314B     		ldr	r3, .L42+16
 508 0092 1B68     		ldr	r3, [r3]
 509 0094 002B     		cmp	r3, #0
 510 0096 11D0     		beq	.L31
 511              		.loc 2 158 0 is_stmt 0 discriminator 1
 512 0098 2F4B     		ldr	r3, .L42+16
 513 009a 5B68     		ldr	r3, [r3, #4]
 514 009c 002B     		cmp	r3, #0
 515 009e 0DD0     		beq	.L31
 516              		.loc 2 158 0 discriminator 3
 517 00a0 2D4B     		ldr	r3, .L42+16
 518 00a2 9B68     		ldr	r3, [r3, #8]
 519 00a4 002B     		cmp	r3, #0
 520 00a6 09D0     		beq	.L31
 521              		.loc 2 158 0 discriminator 5
 522 00a8 2B4B     		ldr	r3, .L42+16
 523 00aa DB68     		ldr	r3, [r3, #12]
 524 00ac 002B     		cmp	r3, #0
 525 00ae 05D0     		beq	.L31
 526              		.loc 2 158 0 discriminator 7
 527 00b0 294B     		ldr	r3, .L42+16
 528 00b2 1B69     		ldr	r3, [r3, #16]
 529 00b4 002B     		cmp	r3, #0
 530 00b6 01D1     		bne	.L31
 531              		.loc 2 158 0 discriminator 9
 532 00b8 0123     		movs	r3, #1
 533 00ba 00E0     		b	.L32
 534              	.L31:
 535              		.loc 2 158 0 discriminator 10
 536 00bc 0023     		movs	r3, #0
 537              	.L32:
 538              		.loc 2 158 0 discriminator 12
 539 00be 03F00103 		and	r3, r3, #1
 540 00c2 DBB2     		uxtb	r3, r3
 541 00c4 1946     		mov	r1, r3
 542 00c6 0120     		movs	r0, #1
 543 00c8 FFF7FEFF 		bl	_test_assert
 544 00cc 0346     		mov	r3, r0
 545 00ce 002B     		cmp	r3, #0
 546 00d0 31D1     		bne	.L39
 547              		.loc 2 166 0 is_stmt 1
 548 00d2 FFF7FEFF 		bl	test_wait_threads
 549              		.loc 2 167 0
 550 00d6 2549     		ldr	r1, .L42+36
 551 00d8 0220     		movs	r0, #2
 552 00da FFF7FEFF 		bl	_test_assert_sequence
 553 00de 0346     		mov	r3, r0
 554 00e0 002B     		cmp	r3, #0
 555 00e2 2AD1     		bne	.L40
 556              		.loc 2 170 0
 557 00e4 0023     		movs	r3, #0
 558 00e6 0193     		str	r3, [sp, #4]
 559 00e8 12E0     		b	.L36
ARM GAS  /tmp/ccbmFvQZ.s 			page 11


 560              	.L38:
 561              		.loc 2 171 0
 562 00ea 1848     		ldr	r0, .L42+4
 563 00ec FFF7FEFF 		bl	chPoolAlloc
 564 00f0 0346     		mov	r3, r0
 565 00f2 002B     		cmp	r3, #0
 566 00f4 14BF     		ite	ne
 567 00f6 0123     		movne	r3, #1
 568 00f8 0023     		moveq	r3, #0
 569 00fa DBB2     		uxtb	r3, r3
 570 00fc 1946     		mov	r1, r3
 571 00fe 0320     		movs	r0, #3
 572 0100 FFF7FEFF 		bl	_test_assert
 573 0104 0346     		mov	r3, r0
 574 0106 002B     		cmp	r3, #0
 575 0108 19D1     		bne	.L41
 576              		.loc 2 170 0 discriminator 2
 577 010a 019B     		ldr	r3, [sp, #4]
 578 010c 0133     		adds	r3, r3, #1
 579 010e 0193     		str	r3, [sp, #4]
 580              	.L36:
 581              		.loc 2 170 0 is_stmt 0 discriminator 1
 582 0110 019B     		ldr	r3, [sp, #4]
 583 0112 032B     		cmp	r3, #3
 584 0114 E9DD     		ble	.L38
 585              		.loc 2 172 0 is_stmt 1
 586 0116 0D48     		ldr	r0, .L42+4
 587 0118 FFF7FEFF 		bl	chPoolAlloc
 588 011c 0346     		mov	r3, r0
 589 011e 002B     		cmp	r3, #0
 590 0120 0CBF     		ite	eq
 591 0122 0123     		moveq	r3, #1
 592 0124 0023     		movne	r3, #0
 593 0126 DBB2     		uxtb	r3, r3
 594 0128 1946     		mov	r1, r3
 595 012a 0420     		movs	r0, #4
 596 012c FFF7FEFF 		bl	_test_assert
 597 0130 0346     		mov	r3, r0
 598 0132 002B     		cmp	r3, #0
 599 0134 04E0     		b	.L28
 600              	.L39:
 601              		.loc 2 158 0
 602 0136 00BF     		nop
 603 0138 02E0     		b	.L28
 604              	.L40:
 605              		.loc 2 167 0
 606 013a 00BF     		nop
 607 013c 00E0     		b	.L28
 608              	.L41:
 609              		.loc 2 171 0
 610 013e 00BF     		nop
 611              	.L28:
 612              		.loc 2 173 0
 613 0140 03B0     		add	sp, sp, #12
 614              		.cfi_def_cfa_offset 4
 615              		@ sp needed
 616 0142 5DF804FB 		ldr	pc, [sp], #4
ARM GAS  /tmp/ccbmFvQZ.s 			page 12


 617              	.L43:
 618 0146 00BF     		.align	2
 619              	.L42:
 620 0148 00000000 		.word	wa
 621 014c 00000000 		.word	mp1
 622 0150 00000000 		.word	.LC0
 623 0154 00000000 		.word	thread
 624 0158 00000000 		.word	threads
 625 015c 04000000 		.word	.LC1
 626 0160 08000000 		.word	.LC2
 627 0164 3C000000 		.word	.LC5
 628 0168 40000000 		.word	.LC6
 629 016c 44000000 		.word	.LC7
 630              		.cfi_endproc
 631              	.LFE235:
 632              		.size	dyn2_execute, .-dyn2_execute
 633              		.global	testdyn2
 634              		.section	.rodata
 635 0049 000000   		.align	2
 636              	.LC8:
 637 004c 44796E61 		.ascii	"Dynamic APIs, threads creation from memory pool\000"
 637      6D696320 
 637      41504973 
 637      2C207468 
 637      72656164 
 638              		.section	.rodata.testdyn2,"a",%progbits
 639              		.align	2
 640              		.type	testdyn2, %object
 641              		.size	testdyn2, 16
 642              	testdyn2:
 643 0000 4C000000 		.word	.LC8
 644 0004 00000000 		.word	dyn2_setup
 645 0008 00000000 		.word	0
 646 000c 00000000 		.word	dyn2_execute
 647              		.section	.text.regfind,"ax",%progbits
 648              		.align	1
 649              		.p2align 4,,15
 650              		.syntax unified
 651              		.thumb
 652              		.thumb_func
 653              		.fpu fpv4-sp-d16
 654              		.type	regfind, %function
 655              	regfind:
 656              	.LFB236:
 657              		.loc 2 192 0
 658              		.cfi_startproc
 659              		@ args = 0, pretend = 0, frame = 16
 660              		@ frame_needed = 0, uses_anonymous_args = 0
 661 0000 00B5     		push	{lr}
 662              		.cfi_def_cfa_offset 4
 663              		.cfi_offset 14, -4
 664 0002 85B0     		sub	sp, sp, #20
 665              		.cfi_def_cfa_offset 24
 666 0004 0190     		str	r0, [sp, #4]
 667              		.loc 2 194 0
 668 0006 0023     		movs	r3, #0
 669 0008 8DF80B30 		strb	r3, [sp, #11]
ARM GAS  /tmp/ccbmFvQZ.s 			page 13


 670              		.loc 2 196 0
 671 000c FFF7FEFF 		bl	chRegFirstThread
 672 0010 0390     		str	r0, [sp, #12]
 673              	.L45:
 674              		.loc 2 198 0 discriminator 1
 675 0012 9DF80B30 		ldrb	r3, [sp, #11]	@ zero_extendqisi2
 676 0016 0399     		ldr	r1, [sp, #12]
 677 0018 019A     		ldr	r2, [sp, #4]
 678 001a 9142     		cmp	r1, r2
 679 001c 0CBF     		ite	eq
 680 001e 0122     		moveq	r2, #1
 681 0020 0022     		movne	r2, #0
 682 0022 D2B2     		uxtb	r2, r2
 683 0024 1343     		orrs	r3, r3, r2
 684 0026 002B     		cmp	r3, #0
 685 0028 14BF     		ite	ne
 686 002a 0123     		movne	r3, #1
 687 002c 0023     		moveq	r3, #0
 688 002e 8DF80B30 		strb	r3, [sp, #11]
 689              		.loc 2 199 0 discriminator 1
 690 0032 0398     		ldr	r0, [sp, #12]
 691 0034 FFF7FEFF 		bl	chRegNextThread
 692 0038 0390     		str	r0, [sp, #12]
 693              		.loc 2 200 0 discriminator 1
 694 003a 039B     		ldr	r3, [sp, #12]
 695 003c 002B     		cmp	r3, #0
 696 003e E8D1     		bne	.L45
 697              		.loc 2 201 0
 698 0040 9DF80B30 		ldrb	r3, [sp, #11]	@ zero_extendqisi2
 699              		.loc 2 202 0
 700 0044 1846     		mov	r0, r3
 701 0046 05B0     		add	sp, sp, #20
 702              		.cfi_def_cfa_offset 4
 703              		@ sp needed
 704 0048 5DF804FB 		ldr	pc, [sp], #4
 705              		.cfi_endproc
 706              	.LFE236:
 707              		.size	regfind, .-regfind
 708              		.section	.text.dyn3_setup,"ax",%progbits
 709              		.align	1
 710              		.p2align 4,,15
 711              		.syntax unified
 712              		.thumb
 713              		.thumb_func
 714              		.fpu fpv4-sp-d16
 715              		.type	dyn3_setup, %function
 716              	dyn3_setup:
 717              	.LFB237:
 718              		.loc 2 204 0
 719              		.cfi_startproc
 720              		@ args = 0, pretend = 0, frame = 0
 721              		@ frame_needed = 0, uses_anonymous_args = 0
 722 0000 08B5     		push	{r3, lr}
 723              		.cfi_def_cfa_offset 8
 724              		.cfi_offset 3, -8
 725              		.cfi_offset 14, -4
 726              		.loc 2 206 0
ARM GAS  /tmp/ccbmFvQZ.s 			page 14


 727 0002 4FF41B62 		mov	r2, #2480
 728 0006 0349     		ldr	r1, .L48
 729 0008 0348     		ldr	r0, .L48+4
 730 000a FFF7FEFF 		bl	chHeapObjectInit
 731              		.loc 2 207 0
 732 000e 00BF     		nop
 733 0010 08BD     		pop	{r3, pc}
 734              	.L49:
 735 0012 00BF     		.align	2
 736              	.L48:
 737 0014 00000000 		.word	test
 738 0018 00000000 		.word	heap1
 739              		.cfi_endproc
 740              	.LFE237:
 741              		.size	dyn3_setup, .-dyn3_setup
 742              		.section	.text.dyn3_execute,"ax",%progbits
 743              		.align	1
 744              		.p2align 4,,15
 745              		.syntax unified
 746              		.thumb
 747              		.thumb_func
 748              		.fpu fpv4-sp-d16
 749              		.type	dyn3_execute, %function
 750              	dyn3_execute:
 751              	.LFB238:
 752              		.loc 2 209 0
 753              		.cfi_startproc
 754              		@ args = 0, pretend = 0, frame = 8
 755              		@ frame_needed = 0, uses_anonymous_args = 0
 756 0000 00B5     		push	{lr}
 757              		.cfi_def_cfa_offset 4
 758              		.cfi_offset 14, -4
 759 0002 85B0     		sub	sp, sp, #20
 760              		.cfi_def_cfa_offset 24
 761              		.loc 2 211 0
 762 0004 FFF7FEFF 		bl	chThdGetPriorityX
 763 0008 0390     		str	r0, [sp, #12]
 764              		.loc 2 214 0
 765 000a 039B     		ldr	r3, [sp, #12]
 766 000c 5A1E     		subs	r2, r3, #1
 767 000e 6C4B     		ldr	r3, .L74
 768 0010 0093     		str	r3, [sp]
 769 0012 6C4B     		ldr	r3, .L74+4
 770 0014 4FF4F871 		mov	r1, #496
 771 0018 6B48     		ldr	r0, .L74+8
 772 001a FFF7FEFF 		bl	chThdCreateFromHeap
 773 001e 0290     		str	r0, [sp, #8]
 774              		.loc 2 215 0
 775 0020 029B     		ldr	r3, [sp, #8]
 776 0022 93F82230 		ldrb	r3, [r3, #34]	@ zero_extendqisi2
 777 0026 012B     		cmp	r3, #1
 778 0028 0CBF     		ite	eq
 779 002a 0123     		moveq	r3, #1
 780 002c 0023     		movne	r3, #0
 781 002e DBB2     		uxtb	r3, r3
 782 0030 1946     		mov	r1, r3
 783 0032 0120     		movs	r0, #1
ARM GAS  /tmp/ccbmFvQZ.s 			page 15


 784 0034 FFF7FEFF 		bl	_test_assert
 785 0038 0346     		mov	r3, r0
 786 003a 002B     		cmp	r3, #0
 787 003c 40F0A780 		bne	.L63
 788              		.loc 2 216 0
 789 0040 0298     		ldr	r0, [sp, #8]
 790 0042 FFF7FEFF 		bl	chThdAddRef
 791              		.loc 2 217 0
 792 0046 029B     		ldr	r3, [sp, #8]
 793 0048 93F82230 		ldrb	r3, [r3, #34]	@ zero_extendqisi2
 794 004c 022B     		cmp	r3, #2
 795 004e 0CBF     		ite	eq
 796 0050 0123     		moveq	r3, #1
 797 0052 0023     		movne	r3, #0
 798 0054 DBB2     		uxtb	r3, r3
 799 0056 1946     		mov	r1, r3
 800 0058 0220     		movs	r0, #2
 801 005a FFF7FEFF 		bl	_test_assert
 802 005e 0346     		mov	r3, r0
 803 0060 002B     		cmp	r3, #0
 804 0062 40F09680 		bne	.L64
 805              		.loc 2 218 0
 806 0066 0298     		ldr	r0, [sp, #8]
 807 0068 FFF7FEFF 		bl	chThdRelease
 808              		.loc 2 219 0
 809 006c 029B     		ldr	r3, [sp, #8]
 810 006e 93F82230 		ldrb	r3, [r3, #34]	@ zero_extendqisi2
 811 0072 012B     		cmp	r3, #1
 812 0074 0CBF     		ite	eq
 813 0076 0123     		moveq	r3, #1
 814 0078 0023     		movne	r3, #0
 815 007a DBB2     		uxtb	r3, r3
 816 007c 1946     		mov	r1, r3
 817 007e 0320     		movs	r0, #3
 818 0080 FFF7FEFF 		bl	_test_assert
 819 0084 0346     		mov	r3, r0
 820 0086 002B     		cmp	r3, #0
 821 0088 40F08580 		bne	.L65
 822              		.loc 2 222 0
 823 008c 0298     		ldr	r0, [sp, #8]
 824 008e FFF7FEFF 		bl	regfind
 825 0092 0346     		mov	r3, r0
 826 0094 1946     		mov	r1, r3
 827 0096 0420     		movs	r0, #4
 828 0098 FFF7FEFF 		bl	_test_assert
 829 009c 0346     		mov	r3, r0
 830 009e 002B     		cmp	r3, #0
 831 00a0 7BD1     		bne	.L66
 832              		.loc 2 223 0
 833 00a2 0298     		ldr	r0, [sp, #8]
 834 00a4 FFF7FEFF 		bl	regfind
 835 00a8 0346     		mov	r3, r0
 836 00aa 1946     		mov	r1, r3
 837 00ac 0520     		movs	r0, #5
 838 00ae FFF7FEFF 		bl	_test_assert
 839 00b2 0346     		mov	r3, r0
 840 00b4 002B     		cmp	r3, #0
ARM GAS  /tmp/ccbmFvQZ.s 			page 16


 841 00b6 72D1     		bne	.L67
 842              		.loc 2 226 0
 843 00b8 0298     		ldr	r0, [sp, #8]
 844 00ba FFF7FEFF 		bl	chThdRelease
 845              		.loc 2 227 0
 846 00be 029B     		ldr	r3, [sp, #8]
 847 00c0 93F82230 		ldrb	r3, [r3, #34]	@ zero_extendqisi2
 848 00c4 002B     		cmp	r3, #0
 849 00c6 0CBF     		ite	eq
 850 00c8 0123     		moveq	r3, #1
 851 00ca 0023     		movne	r3, #0
 852 00cc DBB2     		uxtb	r3, r3
 853 00ce 1946     		mov	r1, r3
 854 00d0 0620     		movs	r0, #6
 855 00d2 FFF7FEFF 		bl	_test_assert
 856 00d6 0346     		mov	r3, r0
 857 00d8 002B     		cmp	r3, #0
 858 00da 62D1     		bne	.L68
 859              		.loc 2 228 0
 860 00dc 029B     		ldr	r3, [sp, #8]
 861 00de 93F82030 		ldrb	r3, [r3, #32]	@ zero_extendqisi2
 862 00e2 002B     		cmp	r3, #0
 863 00e4 0CBF     		ite	eq
 864 00e6 0123     		moveq	r3, #1
 865 00e8 0023     		movne	r3, #0
 866 00ea DBB2     		uxtb	r3, r3
 867 00ec 1946     		mov	r1, r3
 868 00ee 0720     		movs	r0, #7
 869 00f0 FFF7FEFF 		bl	_test_assert
 870 00f4 0346     		mov	r3, r0
 871 00f6 002B     		cmp	r3, #0
 872 00f8 55D1     		bne	.L69
 873              		.loc 2 229 0
 874 00fa 0298     		ldr	r0, [sp, #8]
 875 00fc FFF7FEFF 		bl	regfind
 876 0100 0346     		mov	r3, r0
 877 0102 1946     		mov	r1, r3
 878 0104 0820     		movs	r0, #8
 879 0106 FFF7FEFF 		bl	_test_assert
 880 010a 0346     		mov	r3, r0
 881 010c 002B     		cmp	r3, #0
 882 010e 4CD1     		bne	.L70
 883              		.loc 2 230 0
 884 0110 0298     		ldr	r0, [sp, #8]
 885 0112 FFF7FEFF 		bl	regfind
 886 0116 0346     		mov	r3, r0
 887 0118 1946     		mov	r1, r3
 888 011a 0920     		movs	r0, #9
 889 011c FFF7FEFF 		bl	_test_assert
 890 0120 0346     		mov	r3, r0
 891 0122 002B     		cmp	r3, #0
 892 0124 43D1     		bne	.L71
 893              		.loc 2 231 0
 894 0126 4FF4FA70 		mov	r0, #500
 895 012a FFF7FEFF 		bl	chThdSleep
 896              		.loc 2 232 0
 897 012e 029B     		ldr	r3, [sp, #8]
ARM GAS  /tmp/ccbmFvQZ.s 			page 17


 898 0130 93F82030 		ldrb	r3, [r3, #32]	@ zero_extendqisi2
 899 0134 0F2B     		cmp	r3, #15
 900 0136 0CBF     		ite	eq
 901 0138 0123     		moveq	r3, #1
 902 013a 0023     		movne	r3, #0
 903 013c DBB2     		uxtb	r3, r3
 904 013e 1946     		mov	r1, r3
 905 0140 0A20     		movs	r0, #10
 906 0142 FFF7FEFF 		bl	_test_assert
 907 0146 0346     		mov	r3, r0
 908 0148 002B     		cmp	r3, #0
 909 014a 32D1     		bne	.L72
 910              		.loc 2 235 0
 911 014c 0298     		ldr	r0, [sp, #8]
 912 014e FFF7FEFF 		bl	regfind
 913 0152 0346     		mov	r3, r0
 914 0154 1946     		mov	r1, r3
 915 0156 0B20     		movs	r0, #11
 916 0158 FFF7FEFF 		bl	_test_assert
 917 015c 0346     		mov	r3, r0
 918 015e 002B     		cmp	r3, #0
 919 0160 29D1     		bne	.L73
 920              		.loc 2 236 0
 921 0162 0298     		ldr	r0, [sp, #8]
 922 0164 FFF7FEFF 		bl	regfind
 923 0168 0346     		mov	r3, r0
 924 016a 002B     		cmp	r3, #0
 925 016c 14BF     		ite	ne
 926 016e 0123     		movne	r3, #1
 927 0170 0023     		moveq	r3, #0
 928 0172 DBB2     		uxtb	r3, r3
 929 0174 83F00103 		eor	r3, r3, #1
 930 0178 DBB2     		uxtb	r3, r3
 931 017a 03F00103 		and	r3, r3, #1
 932 017e DBB2     		uxtb	r3, r3
 933 0180 1946     		mov	r1, r3
 934 0182 0C20     		movs	r0, #12
 935 0184 FFF7FEFF 		bl	_test_assert
 936 0188 0346     		mov	r3, r0
 937 018a 002B     		cmp	r3, #0
 938 018c 14E0     		b	.L50
 939              	.L63:
 940              		.loc 2 215 0
 941 018e 00BF     		nop
 942 0190 12E0     		b	.L50
 943              	.L64:
 944              		.loc 2 217 0
 945 0192 00BF     		nop
 946 0194 10E0     		b	.L50
 947              	.L65:
 948              		.loc 2 219 0
 949 0196 00BF     		nop
 950 0198 0EE0     		b	.L50
 951              	.L66:
 952              		.loc 2 222 0
 953 019a 00BF     		nop
 954 019c 0CE0     		b	.L50
ARM GAS  /tmp/ccbmFvQZ.s 			page 18


 955              	.L67:
 956              		.loc 2 223 0
 957 019e 00BF     		nop
 958 01a0 0AE0     		b	.L50
 959              	.L68:
 960              		.loc 2 227 0
 961 01a2 00BF     		nop
 962 01a4 08E0     		b	.L50
 963              	.L69:
 964              		.loc 2 228 0
 965 01a6 00BF     		nop
 966 01a8 06E0     		b	.L50
 967              	.L70:
 968              		.loc 2 229 0
 969 01aa 00BF     		nop
 970 01ac 04E0     		b	.L50
 971              	.L71:
 972              		.loc 2 230 0
 973 01ae 00BF     		nop
 974 01b0 02E0     		b	.L50
 975              	.L72:
 976              		.loc 2 232 0
 977 01b2 00BF     		nop
 978 01b4 00E0     		b	.L50
 979              	.L73:
 980              		.loc 2 235 0
 981 01b6 00BF     		nop
 982              	.L50:
 983              		.loc 2 237 0
 984 01b8 05B0     		add	sp, sp, #20
 985              		.cfi_def_cfa_offset 4
 986              		@ sp needed
 987 01ba 5DF804FB 		ldr	pc, [sp], #4
 988              	.L75:
 989 01be 00BF     		.align	2
 990              	.L74:
 991 01c0 00000000 		.word	.LC0
 992 01c4 00000000 		.word	thread
 993 01c8 00000000 		.word	heap1
 994              		.cfi_endproc
 995              	.LFE238:
 996              		.size	dyn3_execute, .-dyn3_execute
 997              		.global	testdyn3
 998              		.section	.rodata
 999              		.align	2
 1000              	.LC9:
 1001 007c 44796E61 		.ascii	"Dynamic APIs, registry and references\000"
 1001      6D696320 
 1001      41504973 
 1001      2C207265 
 1001      67697374 
 1002              		.section	.rodata.testdyn3,"a",%progbits
 1003              		.align	2
 1004              		.type	testdyn3, %object
 1005              		.size	testdyn3, 16
 1006              	testdyn3:
 1007 0000 7C000000 		.word	.LC9
ARM GAS  /tmp/ccbmFvQZ.s 			page 19


 1008 0004 00000000 		.word	dyn3_setup
 1009 0008 00000000 		.word	0
 1010 000c 00000000 		.word	dyn3_execute
 1011              		.global	patterndyn
 1012              		.section	.rodata.patterndyn,"a",%progbits
 1013              		.align	2
 1014              		.type	patterndyn, %object
 1015              		.size	patterndyn, 16
 1016              	patterndyn:
 1017 0000 00000000 		.word	testdyn1
 1018 0004 00000000 		.word	testdyn2
 1019 0008 00000000 		.word	testdyn3
 1020 000c 00000000 		.word	0
 1021              		.text
 1022              	.Letext0:
 1023              		.file 3 "/usr/lib/gcc/arm-none-eabi/6.3.1/include/stddef.h"
 1024              		.file 4 "/usr/arm-none-eabi/include/machine/_default_types.h"
 1025              		.file 5 "/usr/arm-none-eabi/include/sys/_stdint.h"
 1026              		.file 6 "../ChibiOS/os/rt/ports/ARMCMx/compilers/GCC/chtypes.h"
 1027              		.file 7 "../ChibiOS/os/rt/include/chsystypes.h"
 1028              		.file 8 "../ChibiOS/os/rt/include/chschd.h"
 1029              		.file 9 "../ChibiOS/os/ext/CMSIS/include/core_cm4.h"
 1030              		.file 10 "../ChibiOS/os/ext/CMSIS/ST/STM32F4xx/system_stm32f4xx.h"
 1031              		.file 11 "../ChibiOS/os/rt/ports/ARMCMx/chcore.h"
 1032              		.file 12 "../ChibiOS/os/rt/ports/ARMCMx/chcore_v7m.h"
 1033              		.file 13 "../ChibiOS/os/rt/include/chtm.h"
 1034              		.file 14 "../ChibiOS/os/rt/include/chstats.h"
 1035              		.file 15 "../ChibiOS/os/rt/include/chsem.h"
 1036              		.file 16 "../ChibiOS/os/rt/include/chmtx.h"
 1037              		.file 17 "../ChibiOS/os/rt/include/chregistry.h"
 1038              		.file 18 "../ChibiOS/os/rt/include/chmemcore.h"
 1039              		.file 19 "../ChibiOS/os/rt/include/chheap.h"
 1040              		.file 20 "../ChibiOS/os/rt/include/chmempools.h"
 1041              		.file 21 "../ChibiOS/test/rt/test.h"
 1042              		.section	.debug_info,"",%progbits
 1043              	.Ldebug_info0:
 1044 0000 750D0000 		.4byte	0xd75
 1045 0004 0400     		.2byte	0x4
 1046 0006 00000000 		.4byte	.Ldebug_abbrev0
 1047 000a 04       		.byte	0x4
 1048 000b 01       		.uleb128 0x1
 1049 000c A9010000 		.4byte	.LASF189
 1050 0010 0C       		.byte	0xc
 1051 0011 60030000 		.4byte	.LASF190
 1052 0015 8D030000 		.4byte	.LASF191
 1053 0019 00000000 		.4byte	.Ldebug_ranges0+0
 1054 001d 00000000 		.4byte	0
 1055 0021 00000000 		.4byte	.Ldebug_line0
 1056 0025 02       		.uleb128 0x2
 1057 0026 04       		.byte	0x4
 1058 0027 05       		.byte	0x5
 1059 0028 696E7400 		.ascii	"int\000"
 1060 002c 03       		.uleb128 0x3
 1061 002d 28000000 		.4byte	.LASF4
 1062 0031 03       		.byte	0x3
 1063 0032 D8       		.byte	0xd8
 1064 0033 37000000 		.4byte	0x37
ARM GAS  /tmp/ccbmFvQZ.s 			page 20


 1065 0037 04       		.uleb128 0x4
 1066 0038 04       		.byte	0x4
 1067 0039 07       		.byte	0x7
 1068 003a 4B030000 		.4byte	.LASF0
 1069 003e 04       		.uleb128 0x4
 1070 003f 08       		.byte	0x8
 1071 0040 05       		.byte	0x5
 1072 0041 33010000 		.4byte	.LASF1
 1073 0045 04       		.uleb128 0x4
 1074 0046 08       		.byte	0x8
 1075 0047 04       		.byte	0x4
 1076 0048 29050000 		.4byte	.LASF2
 1077 004c 04       		.uleb128 0x4
 1078 004d 01       		.byte	0x1
 1079 004e 06       		.byte	0x6
 1080 004f 41010000 		.4byte	.LASF3
 1081 0053 03       		.uleb128 0x3
 1082 0054 51000000 		.4byte	.LASF5
 1083 0058 04       		.byte	0x4
 1084 0059 2B       		.byte	0x2b
 1085 005a 5E000000 		.4byte	0x5e
 1086 005e 04       		.uleb128 0x4
 1087 005f 01       		.byte	0x1
 1088 0060 08       		.byte	0x8
 1089 0061 32060000 		.4byte	.LASF6
 1090 0065 04       		.uleb128 0x4
 1091 0066 02       		.byte	0x2
 1092 0067 05       		.byte	0x5
 1093 0068 56060000 		.4byte	.LASF7
 1094 006c 03       		.uleb128 0x3
 1095 006d 74070000 		.4byte	.LASF8
 1096 0071 04       		.byte	0x4
 1097 0072 39       		.byte	0x39
 1098 0073 77000000 		.4byte	0x77
 1099 0077 04       		.uleb128 0x4
 1100 0078 02       		.byte	0x2
 1101 0079 07       		.byte	0x7
 1102 007a 21040000 		.4byte	.LASF9
 1103 007e 03       		.uleb128 0x3
 1104 007f BB040000 		.4byte	.LASF10
 1105 0083 04       		.byte	0x4
 1106 0084 4D       		.byte	0x4d
 1107 0085 89000000 		.4byte	0x89
 1108 0089 04       		.uleb128 0x4
 1109 008a 04       		.byte	0x4
 1110 008b 05       		.byte	0x5
 1111 008c 97010000 		.4byte	.LASF11
 1112 0090 03       		.uleb128 0x3
 1113 0091 BD070000 		.4byte	.LASF12
 1114 0095 04       		.byte	0x4
 1115 0096 4F       		.byte	0x4f
 1116 0097 9B000000 		.4byte	0x9b
 1117 009b 04       		.uleb128 0x4
 1118 009c 04       		.byte	0x4
 1119 009d 07       		.byte	0x7
 1120 009e 56070000 		.4byte	.LASF13
 1121 00a2 03       		.uleb128 0x3
ARM GAS  /tmp/ccbmFvQZ.s 			page 21


 1122 00a3 C5050000 		.4byte	.LASF14
 1123 00a7 04       		.byte	0x4
 1124 00a8 69       		.byte	0x69
 1125 00a9 AD000000 		.4byte	0xad
 1126 00ad 04       		.uleb128 0x4
 1127 00ae 08       		.byte	0x8
 1128 00af 07       		.byte	0x7
 1129 00b0 A0000000 		.4byte	.LASF15
 1130 00b4 03       		.uleb128 0x3
 1131 00b5 6F080000 		.4byte	.LASF16
 1132 00b9 05       		.byte	0x5
 1133 00ba 18       		.byte	0x18
 1134 00bb 53000000 		.4byte	0x53
 1135 00bf 03       		.uleb128 0x3
 1136 00c0 8D040000 		.4byte	.LASF17
 1137 00c4 05       		.byte	0x5
 1138 00c5 24       		.byte	0x24
 1139 00c6 6C000000 		.4byte	0x6c
 1140 00ca 03       		.uleb128 0x3
 1141 00cb 2A060000 		.4byte	.LASF18
 1142 00cf 05       		.byte	0x5
 1143 00d0 2C       		.byte	0x2c
 1144 00d1 7E000000 		.4byte	0x7e
 1145 00d5 05       		.uleb128 0x5
 1146 00d6 CA000000 		.4byte	0xca
 1147 00da 03       		.uleb128 0x3
 1148 00db 11070000 		.4byte	.LASF19
 1149 00df 05       		.byte	0x5
 1150 00e0 30       		.byte	0x30
 1151 00e1 90000000 		.4byte	0x90
 1152 00e5 03       		.uleb128 0x3
 1153 00e6 3B000000 		.4byte	.LASF20
 1154 00ea 05       		.byte	0x5
 1155 00eb 3C       		.byte	0x3c
 1156 00ec A2000000 		.4byte	0xa2
 1157 00f0 03       		.uleb128 0x3
 1158 00f1 09080000 		.4byte	.LASF21
 1159 00f5 06       		.byte	0x6
 1160 00f6 39       		.byte	0x39
 1161 00f7 DA000000 		.4byte	0xda
 1162 00fb 03       		.uleb128 0x3
 1163 00fc 03010000 		.4byte	.LASF22
 1164 0100 06       		.byte	0x6
 1165 0101 3A       		.byte	0x3a
 1166 0102 E5000000 		.4byte	0xe5
 1167 0106 03       		.uleb128 0x3
 1168 0107 9B060000 		.4byte	.LASF23
 1169 010b 06       		.byte	0x6
 1170 010c 3C       		.byte	0x3c
 1171 010d B4000000 		.4byte	0xb4
 1172 0111 03       		.uleb128 0x3
 1173 0112 A0010000 		.4byte	.LASF24
 1174 0116 06       		.byte	0x6
 1175 0117 3D       		.byte	0x3d
 1176 0118 B4000000 		.4byte	0xb4
 1177 011c 03       		.uleb128 0x3
 1178 011d 2B010000 		.4byte	.LASF25
ARM GAS  /tmp/ccbmFvQZ.s 			page 22


 1179 0121 06       		.byte	0x6
 1180 0122 3E       		.byte	0x3e
 1181 0123 B4000000 		.4byte	0xb4
 1182 0127 03       		.uleb128 0x3
 1183 0128 05060000 		.4byte	.LASF26
 1184 012c 06       		.byte	0x6
 1185 012d 40       		.byte	0x40
 1186 012e DA000000 		.4byte	0xda
 1187 0132 03       		.uleb128 0x3
 1188 0133 58040000 		.4byte	.LASF27
 1189 0137 06       		.byte	0x6
 1190 0138 41       		.byte	0x41
 1191 0139 CA000000 		.4byte	0xca
 1192 013d 03       		.uleb128 0x3
 1193 013e AF040000 		.4byte	.LASF28
 1194 0142 06       		.byte	0x6
 1195 0143 43       		.byte	0x43
 1196 0144 DA000000 		.4byte	0xda
 1197 0148 03       		.uleb128 0x3
 1198 0149 3A030000 		.4byte	.LASF29
 1199 014d 06       		.byte	0x6
 1200 014e 45       		.byte	0x45
 1201 014f CA000000 		.4byte	0xca
 1202 0153 03       		.uleb128 0x3
 1203 0154 63040000 		.4byte	.LASF30
 1204 0158 06       		.byte	0x6
 1205 0159 46       		.byte	0x46
 1206 015a DA000000 		.4byte	0xda
 1207 015e 03       		.uleb128 0x3
 1208 015f 9F070000 		.4byte	.LASF31
 1209 0163 07       		.byte	0x7
 1210 0164 33       		.byte	0x33
 1211 0165 DA000000 		.4byte	0xda
 1212 0169 05       		.uleb128 0x5
 1213 016a 5E010000 		.4byte	0x15e
 1214 016e 03       		.uleb128 0x3
 1215 016f 8A070000 		.4byte	.LASF32
 1216 0173 07       		.byte	0x7
 1217 0174 3F       		.byte	0x3f
 1218 0175 79010000 		.4byte	0x179
 1219 0179 06       		.uleb128 0x6
 1220 017a 43040000 		.4byte	.LASF54
 1221 017e 60       		.byte	0x60
 1222 017f 08       		.byte	0x8
 1223 0180 C2       		.byte	0xc2
 1224 0181 7F020000 		.4byte	0x27f
 1225 0185 07       		.uleb128 0x7
 1226 0186 94060000 		.4byte	.LASF33
 1227 018a 08       		.byte	0x8
 1228 018b C3       		.byte	0xc3
 1229 018c 8A020000 		.4byte	0x28a
 1230 0190 00       		.byte	0
 1231 0191 07       		.uleb128 0x7
 1232 0192 F6050000 		.4byte	.LASF34
 1233 0196 08       		.byte	0x8
 1234 0197 C5       		.byte	0xc5
 1235 0198 8A020000 		.4byte	0x28a
ARM GAS  /tmp/ccbmFvQZ.s 			page 23


 1236 019c 04       		.byte	0x4
 1237 019d 07       		.uleb128 0x7
 1238 019e 0C010000 		.4byte	.LASF35
 1239 01a2 08       		.byte	0x8
 1240 01a3 C7       		.byte	0xc7
 1241 01a4 27010000 		.4byte	0x127
 1242 01a8 08       		.byte	0x8
 1243 01a9 07       		.uleb128 0x7
 1244 01aa 8B050000 		.4byte	.LASF36
 1245 01ae 08       		.byte	0x8
 1246 01af C8       		.byte	0xc8
 1247 01b0 FD040000 		.4byte	0x4fd
 1248 01b4 0C       		.byte	0xc
 1249 01b5 07       		.uleb128 0x7
 1250 01b6 E1020000 		.4byte	.LASF37
 1251 01ba 08       		.byte	0x8
 1252 01bb CA       		.byte	0xca
 1253 01bc 8A020000 		.4byte	0x28a
 1254 01c0 10       		.byte	0x10
 1255 01c1 07       		.uleb128 0x7
 1256 01c2 74050000 		.4byte	.LASF38
 1257 01c6 08       		.byte	0x8
 1258 01c7 CB       		.byte	0xcb
 1259 01c8 8A020000 		.4byte	0x28a
 1260 01cc 14       		.byte	0x14
 1261 01cd 07       		.uleb128 0x7
 1262 01ce 14060000 		.4byte	.LASF39
 1263 01d2 08       		.byte	0x8
 1264 01d3 D2       		.byte	0xd2
 1265 01d4 DD070000 		.4byte	0x7dd
 1266 01d8 18       		.byte	0x18
 1267 01d9 07       		.uleb128 0x7
 1268 01da 40030000 		.4byte	.LASF40
 1269 01de 08       		.byte	0x8
 1270 01df D8       		.byte	0xd8
 1271 01e0 F4070000 		.4byte	0x7f4
 1272 01e4 1C       		.byte	0x1c
 1273 01e5 07       		.uleb128 0x7
 1274 01e6 60060000 		.4byte	.LASF41
 1275 01ea 08       		.byte	0x8
 1276 01eb DD       		.byte	0xdd
 1277 01ec 11010000 		.4byte	0x111
 1278 01f0 20       		.byte	0x20
 1279 01f1 07       		.uleb128 0x7
 1280 01f2 B2060000 		.4byte	.LASF42
 1281 01f6 08       		.byte	0x8
 1282 01f7 E1       		.byte	0xe1
 1283 01f8 06010000 		.4byte	0x106
 1284 01fc 21       		.byte	0x21
 1285 01fd 07       		.uleb128 0x7
 1286 01fe 44080000 		.4byte	.LASF43
 1287 0202 08       		.byte	0x8
 1288 0203 E6       		.byte	0xe6
 1289 0204 1C010000 		.4byte	0x11c
 1290 0208 22       		.byte	0x22
 1291 0209 08       		.uleb128 0x8
 1292 020a 705F7500 		.ascii	"p_u\000"
ARM GAS  /tmp/ccbmFvQZ.s 			page 24


 1293 020e 08       		.byte	0x8
 1294 020f 3101     		.2byte	0x131
 1295 0211 18070000 		.4byte	0x718
 1296 0215 24       		.byte	0x24
 1297 0216 09       		.uleb128 0x9
 1298 0217 F6040000 		.4byte	.LASF44
 1299 021b 08       		.byte	0x8
 1300 021c 3601     		.2byte	0x136
 1301 021e 90020000 		.4byte	0x290
 1302 0222 28       		.byte	0x28
 1303 0223 09       		.uleb128 0x9
 1304 0224 EE030000 		.4byte	.LASF45
 1305 0228 08       		.byte	0x8
 1306 0229 3C01     		.2byte	0x13c
 1307 022b B4020000 		.4byte	0x2b4
 1308 022f 2C       		.byte	0x2c
 1309 0230 09       		.uleb128 0x9
 1310 0231 03080000 		.4byte	.LASF46
 1311 0235 08       		.byte	0x8
 1312 0236 4001     		.2byte	0x140
 1313 0238 32010000 		.4byte	0x132
 1314 023c 34       		.byte	0x34
 1315 023d 09       		.uleb128 0x9
 1316 023e 06070000 		.4byte	.LASF47
 1317 0242 08       		.byte	0x8
 1318 0243 4601     		.2byte	0x146
 1319 0245 3D010000 		.4byte	0x13d
 1320 0249 38       		.byte	0x38
 1321 024a 09       		.uleb128 0x9
 1322 024b 4C060000 		.4byte	.LASF48
 1323 024f 08       		.byte	0x8
 1324 0250 4D01     		.2byte	0x14d
 1325 0252 D7070000 		.4byte	0x7d7
 1326 0256 3C       		.byte	0x3c
 1327 0257 09       		.uleb128 0x9
 1328 0258 A9070000 		.4byte	.LASF49
 1329 025c 08       		.byte	0x8
 1330 025d 5101     		.2byte	0x151
 1331 025f 27010000 		.4byte	0x127
 1332 0263 40       		.byte	0x40
 1333 0264 09       		.uleb128 0x9
 1334 0265 70010000 		.4byte	.LASF50
 1335 0269 08       		.byte	0x8
 1336 026a 5801     		.2byte	0x158
 1337 026c 67030000 		.4byte	0x367
 1338 0270 44       		.byte	0x44
 1339 0271 09       		.uleb128 0x9
 1340 0272 BA060000 		.4byte	.LASF51
 1341 0276 08       		.byte	0x8
 1342 0277 5E01     		.2byte	0x15e
 1343 0279 C9060000 		.4byte	0x6c9
 1344 027d 48       		.byte	0x48
 1345 027e 00       		.byte	0
 1346 027f 03       		.uleb128 0x3
 1347 0280 8B080000 		.4byte	.LASF52
 1348 0284 07       		.byte	0x7
 1349 0285 44       		.byte	0x44
ARM GAS  /tmp/ccbmFvQZ.s 			page 25


 1350 0286 8A020000 		.4byte	0x28a
 1351 028a 0A       		.uleb128 0xa
 1352 028b 04       		.byte	0x4
 1353 028c 6E010000 		.4byte	0x16e
 1354 0290 03       		.uleb128 0x3
 1355 0291 00000000 		.4byte	.LASF53
 1356 0295 07       		.byte	0x7
 1357 0296 49       		.byte	0x49
 1358 0297 9B020000 		.4byte	0x29b
 1359 029b 06       		.uleb128 0x6
 1360 029c 2E070000 		.4byte	.LASF55
 1361 02a0 04       		.byte	0x4
 1362 02a1 08       		.byte	0x8
 1363 02a2 B0       		.byte	0xb0
 1364 02a3 B4020000 		.4byte	0x2b4
 1365 02a7 07       		.uleb128 0x7
 1366 02a8 94060000 		.4byte	.LASF33
 1367 02ac 08       		.byte	0x8
 1368 02ad B1       		.byte	0xb1
 1369 02ae 8A020000 		.4byte	0x28a
 1370 02b2 00       		.byte	0
 1371 02b3 00       		.byte	0
 1372 02b4 03       		.uleb128 0x3
 1373 02b5 C2060000 		.4byte	.LASF56
 1374 02b9 07       		.byte	0x7
 1375 02ba 50       		.byte	0x50
 1376 02bb BF020000 		.4byte	0x2bf
 1377 02bf 06       		.uleb128 0x6
 1378 02c0 67000000 		.4byte	.LASF57
 1379 02c4 08       		.byte	0x8
 1380 02c5 08       		.byte	0x8
 1381 02c6 B7       		.byte	0xb7
 1382 02c7 E4020000 		.4byte	0x2e4
 1383 02cb 07       		.uleb128 0x7
 1384 02cc 94060000 		.4byte	.LASF33
 1385 02d0 08       		.byte	0x8
 1386 02d1 B8       		.byte	0xb8
 1387 02d2 8A020000 		.4byte	0x28a
 1388 02d6 00       		.byte	0
 1389 02d7 07       		.uleb128 0x7
 1390 02d8 F6050000 		.4byte	.LASF34
 1391 02dc 08       		.byte	0x8
 1392 02dd B9       		.byte	0xb9
 1393 02de 8A020000 		.4byte	0x28a
 1394 02e2 04       		.byte	0x4
 1395 02e3 00       		.byte	0
 1396 02e4 03       		.uleb128 0x3
 1397 02e5 0F000000 		.4byte	.LASF58
 1398 02e9 07       		.byte	0x7
 1399 02ea 57       		.byte	0x57
 1400 02eb EF020000 		.4byte	0x2ef
 1401 02ef 0B       		.uleb128 0xb
 1402 02f0 A1040000 		.4byte	.LASF59
 1403 02f4 1C       		.byte	0x1c
 1404 02f5 08       		.byte	0x8
 1405 02f6 9001     		.2byte	0x190
 1406 02f8 4B030000 		.4byte	0x34b
ARM GAS  /tmp/ccbmFvQZ.s 			page 26


 1407 02fc 09       		.uleb128 0x9
 1408 02fd 26070000 		.4byte	.LASF60
 1409 0301 08       		.byte	0x8
 1410 0302 9101     		.2byte	0x191
 1411 0304 B4020000 		.4byte	0x2b4
 1412 0308 00       		.byte	0
 1413 0309 09       		.uleb128 0x9
 1414 030a EF040000 		.4byte	.LASF61
 1415 030e 08       		.byte	0x8
 1416 030f 9201     		.2byte	0x192
 1417 0311 27010000 		.4byte	0x127
 1418 0315 08       		.byte	0x8
 1419 0316 09       		.uleb128 0x9
 1420 0317 85050000 		.4byte	.LASF62
 1421 031b 08       		.byte	0x8
 1422 031c 9401     		.2byte	0x194
 1423 031e FD040000 		.4byte	0x4fd
 1424 0322 0C       		.byte	0xc
 1425 0323 09       		.uleb128 0x9
 1426 0324 F1020000 		.4byte	.LASF63
 1427 0328 08       		.byte	0x8
 1428 0329 9701     		.2byte	0x197
 1429 032b 8A020000 		.4byte	0x28a
 1430 032f 10       		.byte	0x10
 1431 0330 09       		.uleb128 0x9
 1432 0331 BD050000 		.4byte	.LASF64
 1433 0335 08       		.byte	0x8
 1434 0336 9801     		.2byte	0x198
 1435 0338 8A020000 		.4byte	0x28a
 1436 033c 14       		.byte	0x14
 1437 033d 09       		.uleb128 0x9
 1438 033e CA080000 		.4byte	.LASF65
 1439 0342 08       		.byte	0x8
 1440 0343 9B01     		.2byte	0x19b
 1441 0345 8A020000 		.4byte	0x28a
 1442 0349 18       		.byte	0x18
 1443 034a 00       		.byte	0
 1444 034b 03       		.uleb128 0x3
 1445 034c B4070000 		.4byte	.LASF66
 1446 0350 07       		.byte	0x7
 1447 0351 5C       		.byte	0x5c
 1448 0352 56030000 		.4byte	0x356
 1449 0356 0A       		.uleb128 0xa
 1450 0357 04       		.byte	0x4
 1451 0358 5C030000 		.4byte	0x35c
 1452 035c 0C       		.uleb128 0xc
 1453 035d 67030000 		.4byte	0x367
 1454 0361 0D       		.uleb128 0xd
 1455 0362 67030000 		.4byte	0x367
 1456 0366 00       		.byte	0
 1457 0367 0E       		.uleb128 0xe
 1458 0368 04       		.byte	0x4
 1459 0369 0F       		.uleb128 0xf
 1460 036a 67030000 		.4byte	0x367
 1461 036e 03       		.uleb128 0x3
 1462 036f E6050000 		.4byte	.LASF67
 1463 0373 07       		.byte	0x7
ARM GAS  /tmp/ccbmFvQZ.s 			page 27


 1464 0374 61       		.byte	0x61
 1465 0375 79030000 		.4byte	0x379
 1466 0379 0B       		.uleb128 0xb
 1467 037a D2060000 		.4byte	.LASF68
 1468 037e 14       		.byte	0x14
 1469 037f 08       		.byte	0x8
 1470 0380 6B01     		.2byte	0x16b
 1471 0382 C8030000 		.4byte	0x3c8
 1472 0386 09       		.uleb128 0x9
 1473 0387 58030000 		.4byte	.LASF69
 1474 038b 08       		.byte	0x8
 1475 038c 6C01     		.2byte	0x16c
 1476 038e FA070000 		.4byte	0x7fa
 1477 0392 00       		.byte	0
 1478 0393 09       		.uleb128 0x9
 1479 0394 02030000 		.4byte	.LASF70
 1480 0398 08       		.byte	0x8
 1481 0399 6D01     		.2byte	0x16d
 1482 039b FA070000 		.4byte	0x7fa
 1483 039f 04       		.byte	0x4
 1484 03a0 09       		.uleb128 0x9
 1485 03a1 E5030000 		.4byte	.LASF71
 1486 03a5 08       		.byte	0x8
 1487 03a6 6E01     		.2byte	0x16e
 1488 03a8 5E010000 		.4byte	0x15e
 1489 03ac 08       		.byte	0x8
 1490 03ad 09       		.uleb128 0x9
 1491 03ae 00090000 		.4byte	.LASF72
 1492 03b2 08       		.byte	0x8
 1493 03b3 6F01     		.2byte	0x16f
 1494 03b5 4B030000 		.4byte	0x34b
 1495 03b9 0C       		.byte	0xc
 1496 03ba 09       		.uleb128 0x9
 1497 03bb 1E080000 		.4byte	.LASF73
 1498 03bf 08       		.byte	0x8
 1499 03c0 7101     		.2byte	0x171
 1500 03c2 67030000 		.4byte	0x367
 1501 03c6 10       		.byte	0x10
 1502 03c7 00       		.byte	0
 1503 03c8 03       		.uleb128 0x3
 1504 03c9 DA000000 		.4byte	.LASF74
 1505 03cd 07       		.byte	0x7
 1506 03ce 66       		.byte	0x66
 1507 03cf D3030000 		.4byte	0x3d3
 1508 03d3 0B       		.uleb128 0xb
 1509 03d4 09050000 		.4byte	.LASF75
 1510 03d8 10       		.byte	0x10
 1511 03d9 08       		.byte	0x8
 1512 03da 7B01     		.2byte	0x17b
 1513 03dc 15040000 		.4byte	0x415
 1514 03e0 09       		.uleb128 0x9
 1515 03e1 58030000 		.4byte	.LASF69
 1516 03e5 08       		.byte	0x8
 1517 03e6 7C01     		.2byte	0x17c
 1518 03e8 FA070000 		.4byte	0x7fa
 1519 03ec 00       		.byte	0
 1520 03ed 09       		.uleb128 0x9
ARM GAS  /tmp/ccbmFvQZ.s 			page 28


 1521 03ee 02030000 		.4byte	.LASF70
 1522 03f2 08       		.byte	0x8
 1523 03f3 7E01     		.2byte	0x17e
 1524 03f5 FA070000 		.4byte	0x7fa
 1525 03f9 04       		.byte	0x4
 1526 03fa 09       		.uleb128 0x9
 1527 03fb E5030000 		.4byte	.LASF71
 1528 03ff 08       		.byte	0x8
 1529 0400 8001     		.2byte	0x180
 1530 0402 5E010000 		.4byte	0x15e
 1531 0406 08       		.byte	0x8
 1532 0407 09       		.uleb128 0x9
 1533 0408 BF080000 		.4byte	.LASF76
 1534 040c 08       		.byte	0x8
 1535 040d 8201     		.2byte	0x182
 1536 040f 69010000 		.4byte	0x169
 1537 0413 0C       		.byte	0xc
 1538 0414 00       		.byte	0
 1539 0415 03       		.uleb128 0x3
 1540 0416 78000000 		.4byte	.LASF77
 1541 041a 07       		.byte	0x7
 1542 041b 6B       		.byte	0x6b
 1543 041c 20040000 		.4byte	0x420
 1544 0420 0B       		.uleb128 0xb
 1545 0421 0A030000 		.4byte	.LASF78
 1546 0425 0C       		.byte	0xc
 1547 0426 08       		.byte	0x8
 1548 0427 A201     		.2byte	0x1a2
 1549 0429 55040000 		.4byte	0x455
 1550 042d 09       		.uleb128 0x9
 1551 042e C8070000 		.4byte	.LASF79
 1552 0432 08       		.byte	0x8
 1553 0433 AA01     		.2byte	0x1aa
 1554 0435 E3070000 		.4byte	0x7e3
 1555 0439 00       		.byte	0
 1556 043a 09       		.uleb128 0x9
 1557 043b 4B080000 		.4byte	.LASF80
 1558 043f 08       		.byte	0x8
 1559 0440 AF01     		.2byte	0x1af
 1560 0442 48010000 		.4byte	0x148
 1561 0446 04       		.byte	0x4
 1562 0447 09       		.uleb128 0x9
 1563 0448 22030000 		.4byte	.LASF81
 1564 044c 08       		.byte	0x8
 1565 044d B301     		.2byte	0x1b3
 1566 044f 48010000 		.4byte	0x148
 1567 0453 08       		.byte	0x8
 1568 0454 00       		.byte	0
 1569 0455 03       		.uleb128 0x3
 1570 0456 6A040000 		.4byte	.LASF82
 1571 045a 07       		.byte	0x7
 1572 045b 70       		.byte	0x70
 1573 045c 60040000 		.4byte	0x460
 1574 0460 10       		.uleb128 0x10
 1575 0461 8D010000 		.4byte	.LASF83
 1576 0465 5802     		.2byte	0x258
 1577 0467 08       		.byte	0x8
ARM GAS  /tmp/ccbmFvQZ.s 			page 29


 1578 0468 C201     		.2byte	0x1c2
 1579 046a C9040000 		.4byte	0x4c9
 1580 046e 09       		.uleb128 0x9
 1581 046f 5B080000 		.4byte	.LASF84
 1582 0473 08       		.byte	0x8
 1583 0474 C601     		.2byte	0x1c6
 1584 0476 E4020000 		.4byte	0x2e4
 1585 047a 00       		.byte	0
 1586 047b 09       		.uleb128 0x9
 1587 047c 80010000 		.4byte	.LASF85
 1588 0480 08       		.byte	0x8
 1589 0481 CA01     		.2byte	0x1ca
 1590 0483 C8030000 		.4byte	0x3c8
 1591 0487 1C       		.byte	0x1c
 1592 0488 08       		.uleb128 0x8
 1593 0489 64626700 		.ascii	"dbg\000"
 1594 048d 08       		.byte	0x8
 1595 048e CE01     		.2byte	0x1ce
 1596 0490 15040000 		.4byte	0x415
 1597 0494 2C       		.byte	0x2c
 1598 0495 09       		.uleb128 0x9
 1599 0496 4D040000 		.4byte	.LASF86
 1600 049a 08       		.byte	0x8
 1601 049b D201     		.2byte	0x1d2
 1602 049d 6E010000 		.4byte	0x16e
 1603 04a1 38       		.byte	0x38
 1604 04a2 08       		.uleb128 0x8
 1605 04a3 746D00   		.ascii	"tm\000"
 1606 04a6 08       		.byte	0x8
 1607 04a7 D701     		.2byte	0x1d7
 1608 04a9 7B060000 		.4byte	0x67b
 1609 04ad 98       		.byte	0x98
 1610 04ae 09       		.uleb128 0x9
 1611 04af 44000000 		.4byte	.LASF87
 1612 04b3 08       		.byte	0x8
 1613 04b4 DD01     		.2byte	0x1dd
 1614 04b6 0D070000 		.4byte	0x70d
 1615 04ba A0       		.byte	0xa0
 1616 04bb 09       		.uleb128 0x9
 1617 04bc 2B030000 		.4byte	.LASF88
 1618 04c0 08       		.byte	0x8
 1619 04c1 E301     		.2byte	0x1e3
 1620 04c3 00080000 		.4byte	0x800
 1621 04c7 D8       		.byte	0xd8
 1622 04c8 00       		.byte	0
 1623 04c9 04       		.uleb128 0x4
 1624 04ca 04       		.byte	0x4
 1625 04cb 07       		.byte	0x7
 1626 04cc 00050000 		.4byte	.LASF89
 1627 04d0 11       		.uleb128 0x11
 1628 04d1 F0000000 		.4byte	.LASF90
 1629 04d5 09       		.byte	0x9
 1630 04d6 FA06     		.2byte	0x6fa
 1631 04d8 D5000000 		.4byte	0xd5
 1632 04dc 12       		.uleb128 0x12
 1633 04dd 7D030000 		.4byte	.LASF91
 1634 04e1 0A       		.byte	0xa
ARM GAS  /tmp/ccbmFvQZ.s 			page 30


 1635 04e2 4C       		.byte	0x4c
 1636 04e3 DA000000 		.4byte	0xda
 1637 04e7 03       		.uleb128 0x3
 1638 04e8 F9020000 		.4byte	.LASF92
 1639 04ec 0B       		.byte	0xb
 1640 04ed 65       		.byte	0x65
 1641 04ee 67030000 		.4byte	0x367
 1642 04f2 03       		.uleb128 0x3
 1643 04f3 D0040000 		.4byte	.LASF93
 1644 04f7 0B       		.byte	0xb
 1645 04f8 6D       		.byte	0x6d
 1646 04f9 E5000000 		.4byte	0xe5
 1647 04fd 06       		.uleb128 0x6
 1648 04fe FB070000 		.4byte	.LASF94
 1649 0502 04       		.byte	0x4
 1650 0503 0B       		.byte	0xb
 1651 0504 89       		.byte	0x89
 1652 0505 16050000 		.4byte	0x516
 1653 0509 13       		.uleb128 0x13
 1654 050a 72313300 		.ascii	"r13\000"
 1655 050e 0B       		.byte	0xb
 1656 050f 8A       		.byte	0x8a
 1657 0510 60060000 		.4byte	0x660
 1658 0514 00       		.byte	0
 1659 0515 00       		.byte	0
 1660 0516 06       		.uleb128 0x6
 1661 0517 5B000000 		.4byte	.LASF95
 1662 051b 64       		.byte	0x64
 1663 051c 0C       		.byte	0xc
 1664 051d FD       		.byte	0xfd
 1665 051e 60060000 		.4byte	0x660
 1666 0522 13       		.uleb128 0x13
 1667 0523 73313600 		.ascii	"s16\000"
 1668 0527 0C       		.byte	0xc
 1669 0528 FF       		.byte	0xff
 1670 0529 E7040000 		.4byte	0x4e7
 1671 052d 00       		.byte	0
 1672 052e 08       		.uleb128 0x8
 1673 052f 73313700 		.ascii	"s17\000"
 1674 0533 0C       		.byte	0xc
 1675 0534 0001     		.2byte	0x100
 1676 0536 E7040000 		.4byte	0x4e7
 1677 053a 04       		.byte	0x4
 1678 053b 08       		.uleb128 0x8
 1679 053c 73313800 		.ascii	"s18\000"
 1680 0540 0C       		.byte	0xc
 1681 0541 0101     		.2byte	0x101
 1682 0543 E7040000 		.4byte	0x4e7
 1683 0547 08       		.byte	0x8
 1684 0548 08       		.uleb128 0x8
 1685 0549 73313900 		.ascii	"s19\000"
 1686 054d 0C       		.byte	0xc
 1687 054e 0201     		.2byte	0x102
 1688 0550 E7040000 		.4byte	0x4e7
 1689 0554 0C       		.byte	0xc
 1690 0555 08       		.uleb128 0x8
 1691 0556 73323000 		.ascii	"s20\000"
ARM GAS  /tmp/ccbmFvQZ.s 			page 31


 1692 055a 0C       		.byte	0xc
 1693 055b 0301     		.2byte	0x103
 1694 055d E7040000 		.4byte	0x4e7
 1695 0561 10       		.byte	0x10
 1696 0562 08       		.uleb128 0x8
 1697 0563 73323100 		.ascii	"s21\000"
 1698 0567 0C       		.byte	0xc
 1699 0568 0401     		.2byte	0x104
 1700 056a E7040000 		.4byte	0x4e7
 1701 056e 14       		.byte	0x14
 1702 056f 08       		.uleb128 0x8
 1703 0570 73323200 		.ascii	"s22\000"
 1704 0574 0C       		.byte	0xc
 1705 0575 0501     		.2byte	0x105
 1706 0577 E7040000 		.4byte	0x4e7
 1707 057b 18       		.byte	0x18
 1708 057c 08       		.uleb128 0x8
 1709 057d 73323300 		.ascii	"s23\000"
 1710 0581 0C       		.byte	0xc
 1711 0582 0601     		.2byte	0x106
 1712 0584 E7040000 		.4byte	0x4e7
 1713 0588 1C       		.byte	0x1c
 1714 0589 08       		.uleb128 0x8
 1715 058a 73323400 		.ascii	"s24\000"
 1716 058e 0C       		.byte	0xc
 1717 058f 0701     		.2byte	0x107
 1718 0591 E7040000 		.4byte	0x4e7
 1719 0595 20       		.byte	0x20
 1720 0596 08       		.uleb128 0x8
 1721 0597 73323500 		.ascii	"s25\000"
 1722 059b 0C       		.byte	0xc
 1723 059c 0801     		.2byte	0x108
 1724 059e E7040000 		.4byte	0x4e7
 1725 05a2 24       		.byte	0x24
 1726 05a3 08       		.uleb128 0x8
 1727 05a4 73323600 		.ascii	"s26\000"
 1728 05a8 0C       		.byte	0xc
 1729 05a9 0901     		.2byte	0x109
 1730 05ab E7040000 		.4byte	0x4e7
 1731 05af 28       		.byte	0x28
 1732 05b0 08       		.uleb128 0x8
 1733 05b1 73323700 		.ascii	"s27\000"
 1734 05b5 0C       		.byte	0xc
 1735 05b6 0A01     		.2byte	0x10a
 1736 05b8 E7040000 		.4byte	0x4e7
 1737 05bc 2C       		.byte	0x2c
 1738 05bd 08       		.uleb128 0x8
 1739 05be 73323800 		.ascii	"s28\000"
 1740 05c2 0C       		.byte	0xc
 1741 05c3 0B01     		.2byte	0x10b
 1742 05c5 E7040000 		.4byte	0x4e7
 1743 05c9 30       		.byte	0x30
 1744 05ca 08       		.uleb128 0x8
 1745 05cb 73323900 		.ascii	"s29\000"
 1746 05cf 0C       		.byte	0xc
 1747 05d0 0C01     		.2byte	0x10c
 1748 05d2 E7040000 		.4byte	0x4e7
ARM GAS  /tmp/ccbmFvQZ.s 			page 32


 1749 05d6 34       		.byte	0x34
 1750 05d7 08       		.uleb128 0x8
 1751 05d8 73333000 		.ascii	"s30\000"
 1752 05dc 0C       		.byte	0xc
 1753 05dd 0D01     		.2byte	0x10d
 1754 05df E7040000 		.4byte	0x4e7
 1755 05e3 38       		.byte	0x38
 1756 05e4 08       		.uleb128 0x8
 1757 05e5 73333100 		.ascii	"s31\000"
 1758 05e9 0C       		.byte	0xc
 1759 05ea 0E01     		.2byte	0x10e
 1760 05ec E7040000 		.4byte	0x4e7
 1761 05f0 3C       		.byte	0x3c
 1762 05f1 08       		.uleb128 0x8
 1763 05f2 723400   		.ascii	"r4\000"
 1764 05f5 0C       		.byte	0xc
 1765 05f6 1001     		.2byte	0x110
 1766 05f8 E7040000 		.4byte	0x4e7
 1767 05fc 40       		.byte	0x40
 1768 05fd 08       		.uleb128 0x8
 1769 05fe 723500   		.ascii	"r5\000"
 1770 0601 0C       		.byte	0xc
 1771 0602 1101     		.2byte	0x111
 1772 0604 E7040000 		.4byte	0x4e7
 1773 0608 44       		.byte	0x44
 1774 0609 08       		.uleb128 0x8
 1775 060a 723600   		.ascii	"r6\000"
 1776 060d 0C       		.byte	0xc
 1777 060e 1201     		.2byte	0x112
 1778 0610 E7040000 		.4byte	0x4e7
 1779 0614 48       		.byte	0x48
 1780 0615 08       		.uleb128 0x8
 1781 0616 723700   		.ascii	"r7\000"
 1782 0619 0C       		.byte	0xc
 1783 061a 1301     		.2byte	0x113
 1784 061c E7040000 		.4byte	0x4e7
 1785 0620 4C       		.byte	0x4c
 1786 0621 08       		.uleb128 0x8
 1787 0622 723800   		.ascii	"r8\000"
 1788 0625 0C       		.byte	0xc
 1789 0626 1401     		.2byte	0x114
 1790 0628 E7040000 		.4byte	0x4e7
 1791 062c 50       		.byte	0x50
 1792 062d 08       		.uleb128 0x8
 1793 062e 723900   		.ascii	"r9\000"
 1794 0631 0C       		.byte	0xc
 1795 0632 1501     		.2byte	0x115
 1796 0634 E7040000 		.4byte	0x4e7
 1797 0638 54       		.byte	0x54
 1798 0639 08       		.uleb128 0x8
 1799 063a 72313000 		.ascii	"r10\000"
 1800 063e 0C       		.byte	0xc
 1801 063f 1601     		.2byte	0x116
 1802 0641 E7040000 		.4byte	0x4e7
 1803 0645 58       		.byte	0x58
 1804 0646 08       		.uleb128 0x8
 1805 0647 72313100 		.ascii	"r11\000"
ARM GAS  /tmp/ccbmFvQZ.s 			page 33


 1806 064b 0C       		.byte	0xc
 1807 064c 1701     		.2byte	0x117
 1808 064e E7040000 		.4byte	0x4e7
 1809 0652 5C       		.byte	0x5c
 1810 0653 08       		.uleb128 0x8
 1811 0654 6C7200   		.ascii	"lr\000"
 1812 0657 0C       		.byte	0xc
 1813 0658 1801     		.2byte	0x118
 1814 065a E7040000 		.4byte	0x4e7
 1815 065e 60       		.byte	0x60
 1816 065f 00       		.byte	0
 1817 0660 0A       		.uleb128 0xa
 1818 0661 04       		.byte	0x4
 1819 0662 16050000 		.4byte	0x516
 1820 0666 14       		.uleb128 0x14
 1821 0667 04       		.byte	0x4
 1822 0668 0D       		.byte	0xd
 1823 0669 38       		.byte	0x38
 1824 066a 7B060000 		.4byte	0x67b
 1825 066e 07       		.uleb128 0x7
 1826 066f E3070000 		.4byte	.LASF96
 1827 0673 0D       		.byte	0xd
 1828 0674 3C       		.byte	0x3c
 1829 0675 F0000000 		.4byte	0xf0
 1830 0679 00       		.byte	0
 1831 067a 00       		.byte	0
 1832 067b 03       		.uleb128 0x3
 1833 067c 41050000 		.4byte	.LASF97
 1834 0680 0D       		.byte	0xd
 1835 0681 3D       		.byte	0x3d
 1836 0682 66060000 		.4byte	0x666
 1837 0686 14       		.uleb128 0x14
 1838 0687 18       		.byte	0x18
 1839 0688 0D       		.byte	0xd
 1840 0689 48       		.byte	0x48
 1841 068a C9060000 		.4byte	0x6c9
 1842 068e 07       		.uleb128 0x7
 1843 068f 93070000 		.4byte	.LASF98
 1844 0693 0D       		.byte	0xd
 1845 0694 49       		.byte	0x49
 1846 0695 F0000000 		.4byte	0xf0
 1847 0699 00       		.byte	0
 1848 069a 07       		.uleb128 0x7
 1849 069b 87000000 		.4byte	.LASF99
 1850 069f 0D       		.byte	0xd
 1851 06a0 4A       		.byte	0x4a
 1852 06a1 F0000000 		.4byte	0xf0
 1853 06a5 04       		.byte	0x4
 1854 06a6 07       		.uleb128 0x7
 1855 06a7 5E040000 		.4byte	.LASF100
 1856 06ab 0D       		.byte	0xd
 1857 06ac 4B       		.byte	0x4b
 1858 06ad F0000000 		.4byte	0xf0
 1859 06b1 08       		.byte	0x8
 1860 06b2 13       		.uleb128 0x13
 1861 06b3 6E00     		.ascii	"n\000"
 1862 06b5 0D       		.byte	0xd
ARM GAS  /tmp/ccbmFvQZ.s 			page 34


 1863 06b6 4C       		.byte	0x4c
 1864 06b7 53010000 		.4byte	0x153
 1865 06bb 0C       		.byte	0xc
 1866 06bc 07       		.uleb128 0x7
 1867 06bd D0050000 		.4byte	.LASF101
 1868 06c1 0D       		.byte	0xd
 1869 06c2 4D       		.byte	0x4d
 1870 06c3 FB000000 		.4byte	0xfb
 1871 06c7 10       		.byte	0x10
 1872 06c8 00       		.byte	0
 1873 06c9 03       		.uleb128 0x3
 1874 06ca 8D000000 		.4byte	.LASF102
 1875 06ce 0D       		.byte	0xd
 1876 06cf 4E       		.byte	0x4e
 1877 06d0 86060000 		.4byte	0x686
 1878 06d4 14       		.uleb128 0x14
 1879 06d5 38       		.byte	0x38
 1880 06d6 0E       		.byte	0xe
 1881 06d7 38       		.byte	0x38
 1882 06d8 0D070000 		.4byte	0x70d
 1883 06dc 07       		.uleb128 0x7
 1884 06dd 10040000 		.4byte	.LASF103
 1885 06e1 0E       		.byte	0xe
 1886 06e2 39       		.byte	0x39
 1887 06e3 53010000 		.4byte	0x153
 1888 06e7 00       		.byte	0
 1889 06e8 07       		.uleb128 0x7
 1890 06e9 1B060000 		.4byte	.LASF104
 1891 06ed 0E       		.byte	0xe
 1892 06ee 3A       		.byte	0x3a
 1893 06ef 53010000 		.4byte	0x153
 1894 06f3 04       		.byte	0x4
 1895 06f4 07       		.uleb128 0x7
 1896 06f5 DF080000 		.4byte	.LASF105
 1897 06f9 0E       		.byte	0xe
 1898 06fa 3B       		.byte	0x3b
 1899 06fb C9060000 		.4byte	0x6c9
 1900 06ff 08       		.byte	0x8
 1901 0700 07       		.uleb128 0x7
 1902 0701 96040000 		.4byte	.LASF106
 1903 0705 0E       		.byte	0xe
 1904 0706 3D       		.byte	0x3d
 1905 0707 C9060000 		.4byte	0x6c9
 1906 070b 20       		.byte	0x20
 1907 070c 00       		.byte	0
 1908 070d 03       		.uleb128 0x3
 1909 070e 34040000 		.4byte	.LASF107
 1910 0712 0E       		.byte	0xe
 1911 0713 3F       		.byte	0x3f
 1912 0714 D4060000 		.4byte	0x6d4
 1913 0718 15       		.uleb128 0x15
 1914 0719 04       		.byte	0x4
 1915 071a 08       		.byte	0x8
 1916 071b FA       		.byte	0xfa
 1917 071c 75070000 		.4byte	0x775
 1918 0720 16       		.uleb128 0x16
 1919 0721 34000000 		.4byte	.LASF108
ARM GAS  /tmp/ccbmFvQZ.s 			page 35


 1920 0725 08       		.byte	0x8
 1921 0726 0101     		.2byte	0x101
 1922 0728 32010000 		.4byte	0x132
 1923 072c 16       		.uleb128 0x16
 1924 072d C5000000 		.4byte	.LASF109
 1925 0731 08       		.byte	0x8
 1926 0732 0801     		.2byte	0x108
 1927 0734 32010000 		.4byte	0x132
 1928 0738 16       		.uleb128 0x16
 1929 0739 9E080000 		.4byte	.LASF110
 1930 073d 08       		.byte	0x8
 1931 073e 0F01     		.2byte	0x10f
 1932 0740 67030000 		.4byte	0x367
 1933 0744 16       		.uleb128 0x16
 1934 0745 87010000 		.4byte	.LASF111
 1935 0749 08       		.byte	0x8
 1936 074a 1601     		.2byte	0x116
 1937 074c 75070000 		.4byte	0x775
 1938 0750 16       		.uleb128 0x16
 1939 0751 D1030000 		.4byte	.LASF112
 1940 0755 08       		.byte	0x8
 1941 0756 1E01     		.2byte	0x11e
 1942 0758 A0070000 		.4byte	0x7a0
 1943 075c 16       		.uleb128 0x16
 1944 075d 6D070000 		.4byte	.LASF113
 1945 0761 08       		.byte	0x8
 1946 0762 2701     		.2byte	0x127
 1947 0764 D7070000 		.4byte	0x7d7
 1948 0768 16       		.uleb128 0x16
 1949 0769 8D060000 		.4byte	.LASF114
 1950 076d 08       		.byte	0x8
 1951 076e 2F01     		.2byte	0x12f
 1952 0770 3D010000 		.4byte	0x13d
 1953 0774 00       		.byte	0
 1954 0775 0A       		.uleb128 0xa
 1955 0776 04       		.byte	0x4
 1956 0777 7F020000 		.4byte	0x27f
 1957 077b 06       		.uleb128 0x6
 1958 077c F9060000 		.4byte	.LASF115
 1959 0780 0C       		.byte	0xc
 1960 0781 0F       		.byte	0xf
 1961 0782 34       		.byte	0x34
 1962 0783 A0070000 		.4byte	0x7a0
 1963 0787 07       		.uleb128 0x7
 1964 0788 E9020000 		.4byte	.LASF116
 1965 078c 0F       		.byte	0xf
 1966 078d 35       		.byte	0x35
 1967 078e B4020000 		.4byte	0x2b4
 1968 0792 00       		.byte	0
 1969 0793 07       		.uleb128 0x7
 1970 0794 16040000 		.4byte	.LASF117
 1971 0798 0F       		.byte	0xf
 1972 0799 37       		.byte	0x37
 1973 079a 48010000 		.4byte	0x148
 1974 079e 08       		.byte	0x8
 1975 079f 00       		.byte	0
 1976 07a0 0A       		.uleb128 0xa
ARM GAS  /tmp/ccbmFvQZ.s 			page 36


 1977 07a1 04       		.byte	0x4
 1978 07a2 7B070000 		.4byte	0x77b
 1979 07a6 06       		.uleb128 0x6
 1980 07a7 EA070000 		.4byte	.LASF118
 1981 07ab 10       		.byte	0x10
 1982 07ac 10       		.byte	0x10
 1983 07ad 39       		.byte	0x39
 1984 07ae D7070000 		.4byte	0x7d7
 1985 07b2 07       		.uleb128 0x7
 1986 07b3 78010000 		.4byte	.LASF119
 1987 07b7 10       		.byte	0x10
 1988 07b8 3A       		.byte	0x3a
 1989 07b9 B4020000 		.4byte	0x2b4
 1990 07bd 00       		.byte	0
 1991 07be 07       		.uleb128 0x7
 1992 07bf EA080000 		.4byte	.LASF120
 1993 07c3 10       		.byte	0x10
 1994 07c4 3C       		.byte	0x3c
 1995 07c5 8A020000 		.4byte	0x28a
 1996 07c9 08       		.byte	0x8
 1997 07ca 07       		.uleb128 0x7
 1998 07cb 98070000 		.4byte	.LASF121
 1999 07cf 10       		.byte	0x10
 2000 07d0 3E       		.byte	0x3e
 2001 07d1 32090000 		.4byte	0x932
 2002 07d5 0C       		.byte	0xc
 2003 07d6 00       		.byte	0
 2004 07d7 0A       		.uleb128 0xa
 2005 07d8 04       		.byte	0x4
 2006 07d9 A6070000 		.4byte	0x7a6
 2007 07dd 0A       		.uleb128 0xa
 2008 07de 04       		.byte	0x4
 2009 07df EF070000 		.4byte	0x7ef
 2010 07e3 05       		.uleb128 0x5
 2011 07e4 DD070000 		.4byte	0x7dd
 2012 07e8 04       		.uleb128 0x4
 2013 07e9 01       		.byte	0x1
 2014 07ea 08       		.byte	0x8
 2015 07eb 68070000 		.4byte	.LASF122
 2016 07ef 0F       		.uleb128 0xf
 2017 07f0 E8070000 		.4byte	0x7e8
 2018 07f4 0A       		.uleb128 0xa
 2019 07f5 04       		.byte	0x4
 2020 07f6 F2040000 		.4byte	0x4f2
 2021 07fa 0A       		.uleb128 0xa
 2022 07fb 04       		.byte	0x4
 2023 07fc 6E030000 		.4byte	0x36e
 2024 0800 17       		.uleb128 0x17
 2025 0801 F2040000 		.4byte	0x4f2
 2026 0805 10080000 		.4byte	0x810
 2027 0809 18       		.uleb128 0x18
 2028 080a C9040000 		.4byte	0x4c9
 2029 080e 2F       		.byte	0x2f
 2030 080f 00       		.byte	0
 2031 0810 19       		.uleb128 0x19
 2032 0811 636800   		.ascii	"ch\000"
 2033 0814 08       		.byte	0x8
ARM GAS  /tmp/ccbmFvQZ.s 			page 37


 2034 0815 0902     		.2byte	0x209
 2035 0817 55040000 		.4byte	0x455
 2036 081b 14       		.uleb128 0x14
 2037 081c 16       		.byte	0x16
 2038 081d 11       		.byte	0x11
 2039 081e 34       		.byte	0x34
 2040 081f FC080000 		.4byte	0x8fc
 2041 0823 07       		.uleb128 0x7
 2042 0824 F2080000 		.4byte	.LASF123
 2043 0828 11       		.byte	0x11
 2044 0829 35       		.byte	0x35
 2045 082a FC080000 		.4byte	0x8fc
 2046 082e 00       		.byte	0
 2047 082f 07       		.uleb128 0x7
 2048 0830 DB040000 		.4byte	.LASF124
 2049 0834 11       		.byte	0x11
 2050 0835 36       		.byte	0x36
 2051 0836 B4000000 		.4byte	0xb4
 2052 083a 04       		.byte	0x4
 2053 083b 07       		.uleb128 0x7
 2054 083c 3E070000 		.4byte	.LASF125
 2055 0840 11       		.byte	0x11
 2056 0841 37       		.byte	0x37
 2057 0842 B4000000 		.4byte	0xb4
 2058 0846 05       		.byte	0x5
 2059 0847 07       		.uleb128 0x7
 2060 0848 D4080000 		.4byte	.LASF126
 2061 084c 11       		.byte	0x11
 2062 084d 38       		.byte	0x38
 2063 084e BF000000 		.4byte	0xbf
 2064 0852 06       		.byte	0x6
 2065 0853 07       		.uleb128 0x7
 2066 0854 DB050000 		.4byte	.LASF127
 2067 0858 11       		.byte	0x11
 2068 0859 39       		.byte	0x39
 2069 085a B4000000 		.4byte	0xb4
 2070 085e 08       		.byte	0x8
 2071 085f 07       		.uleb128 0x7
 2072 0860 35050000 		.4byte	.LASF128
 2073 0864 11       		.byte	0x11
 2074 0865 3A       		.byte	0x3a
 2075 0866 B4000000 		.4byte	0xb4
 2076 086a 09       		.byte	0x9
 2077 086b 07       		.uleb128 0x7
 2078 086c B7000000 		.4byte	.LASF129
 2079 0870 11       		.byte	0x11
 2080 0871 3B       		.byte	0x3b
 2081 0872 B4000000 		.4byte	0xb4
 2082 0876 0A       		.byte	0xa
 2083 0877 07       		.uleb128 0x7
 2084 0878 1A070000 		.4byte	.LASF130
 2085 087c 11       		.byte	0x11
 2086 087d 3C       		.byte	0x3c
 2087 087e B4000000 		.4byte	0xb4
 2088 0882 0B       		.byte	0xb
 2089 0883 07       		.uleb128 0x7
 2090 0884 76040000 		.4byte	.LASF131
ARM GAS  /tmp/ccbmFvQZ.s 			page 38


 2091 0888 11       		.byte	0x11
 2092 0889 3D       		.byte	0x3d
 2093 088a B4000000 		.4byte	0xb4
 2094 088e 0C       		.byte	0xc
 2095 088f 07       		.uleb128 0x7
 2096 0890 E3060000 		.4byte	.LASF132
 2097 0894 11       		.byte	0x11
 2098 0895 3E       		.byte	0x3e
 2099 0896 B4000000 		.4byte	0xb4
 2100 089a 0D       		.byte	0xd
 2101 089b 07       		.uleb128 0x7
 2102 089c 70060000 		.4byte	.LASF133
 2103 08a0 11       		.byte	0x11
 2104 08a1 3F       		.byte	0x3f
 2105 08a2 B4000000 		.4byte	0xb4
 2106 08a6 0E       		.byte	0xe
 2107 08a7 07       		.uleb128 0x7
 2108 08a8 52050000 		.4byte	.LASF134
 2109 08ac 11       		.byte	0x11
 2110 08ad 40       		.byte	0x40
 2111 08ae B4000000 		.4byte	0xb4
 2112 08b2 0F       		.byte	0xf
 2113 08b3 07       		.uleb128 0x7
 2114 08b4 53010000 		.4byte	.LASF135
 2115 08b8 11       		.byte	0x11
 2116 08b9 41       		.byte	0x41
 2117 08ba B4000000 		.4byte	0xb4
 2118 08be 10       		.byte	0x10
 2119 08bf 07       		.uleb128 0x7
 2120 08c0 13010000 		.4byte	.LASF136
 2121 08c4 11       		.byte	0x11
 2122 08c5 43       		.byte	0x43
 2123 08c6 B4000000 		.4byte	0xb4
 2124 08ca 11       		.byte	0x11
 2125 08cb 07       		.uleb128 0x7
 2126 08cc 63010000 		.4byte	.LASF137
 2127 08d0 11       		.byte	0x11
 2128 08d1 44       		.byte	0x44
 2129 08d2 B4000000 		.4byte	0xb4
 2130 08d6 12       		.byte	0x12
 2131 08d7 07       		.uleb128 0x7
 2132 08d8 E3040000 		.4byte	.LASF138
 2133 08dc 11       		.byte	0x11
 2134 08dd 45       		.byte	0x45
 2135 08de B4000000 		.4byte	0xb4
 2136 08e2 13       		.byte	0x13
 2137 08e3 07       		.uleb128 0x7
 2138 08e4 A3060000 		.4byte	.LASF139
 2139 08e8 11       		.byte	0x11
 2140 08e9 46       		.byte	0x46
 2141 08ea B4000000 		.4byte	0xb4
 2142 08ee 14       		.byte	0x14
 2143 08ef 07       		.uleb128 0x7
 2144 08f0 81040000 		.4byte	.LASF140
 2145 08f4 11       		.byte	0x11
 2146 08f5 48       		.byte	0x48
 2147 08f6 B4000000 		.4byte	0xb4
ARM GAS  /tmp/ccbmFvQZ.s 			page 39


 2148 08fa 15       		.byte	0x15
 2149 08fb 00       		.byte	0
 2150 08fc 17       		.uleb128 0x17
 2151 08fd E8070000 		.4byte	0x7e8
 2152 0901 0C090000 		.4byte	0x90c
 2153 0905 18       		.uleb128 0x18
 2154 0906 C9040000 		.4byte	0x4c9
 2155 090a 03       		.byte	0x3
 2156 090b 00       		.byte	0
 2157 090c 03       		.uleb128 0x3
 2158 090d D0020000 		.4byte	.LASF141
 2159 0911 11       		.byte	0x11
 2160 0912 49       		.byte	0x49
 2161 0913 1B080000 		.4byte	0x81b
 2162 0917 0F       		.uleb128 0xf
 2163 0918 0C090000 		.4byte	0x90c
 2164 091c 12       		.uleb128 0x12
 2165 091d F9030000 		.4byte	.LASF142
 2166 0921 11       		.byte	0x11
 2167 0922 6E       		.byte	0x6e
 2168 0923 17090000 		.4byte	0x917
 2169 0927 03       		.uleb128 0x3
 2170 0928 1A030000 		.4byte	.LASF143
 2171 092c 10       		.byte	0x10
 2172 092d 34       		.byte	0x34
 2173 092e A6070000 		.4byte	0x7a6
 2174 0932 0A       		.uleb128 0xa
 2175 0933 04       		.byte	0x4
 2176 0934 27090000 		.4byte	0x927
 2177 0938 04       		.uleb128 0x4
 2178 0939 01       		.byte	0x1
 2179 093a 02       		.byte	0x2
 2180 093b 24060000 		.4byte	.LASF144
 2181 093f 03       		.uleb128 0x3
 2182 0940 11080000 		.4byte	.LASF145
 2183 0944 12       		.byte	0x12
 2184 0945 34       		.byte	0x34
 2185 0946 4A090000 		.4byte	0x94a
 2186 094a 0A       		.uleb128 0xa
 2187 094b 04       		.byte	0x4
 2188 094c 50090000 		.4byte	0x950
 2189 0950 1A       		.uleb128 0x1a
 2190 0951 67030000 		.4byte	0x367
 2191 0955 5F090000 		.4byte	0x95f
 2192 0959 0D       		.uleb128 0xd
 2193 095a 2C000000 		.4byte	0x2c
 2194 095e 00       		.byte	0
 2195 095f 03       		.uleb128 0x3
 2196 0960 C2020000 		.4byte	.LASF146
 2197 0964 13       		.byte	0x13
 2198 0965 3C       		.byte	0x3c
 2199 0966 6A090000 		.4byte	0x96a
 2200 096a 06       		.uleb128 0x6
 2201 096b 0E090000 		.4byte	.LASF147
 2202 096f 20       		.byte	0x20
 2203 0970 13       		.byte	0x13
 2204 0971 4F       		.byte	0x4f
ARM GAS  /tmp/ccbmFvQZ.s 			page 40


 2205 0972 9B090000 		.4byte	0x99b
 2206 0976 07       		.uleb128 0x7
 2207 0977 77080000 		.4byte	.LASF148
 2208 097b 13       		.byte	0x13
 2209 097c 50       		.byte	0x50
 2210 097d 3F090000 		.4byte	0x93f
 2211 0981 00       		.byte	0
 2212 0982 07       		.uleb128 0x7
 2213 0983 CE000000 		.4byte	.LASF149
 2214 0987 13       		.byte	0x13
 2215 0988 52       		.byte	0x52
 2216 0989 BA090000 		.4byte	0x9ba
 2217 098d 08       		.byte	0x8
 2218 098e 07       		.uleb128 0x7
 2219 098f 4D010000 		.4byte	.LASF150
 2220 0993 13       		.byte	0x13
 2221 0994 54       		.byte	0x54
 2222 0995 27090000 		.4byte	0x927
 2223 0999 10       		.byte	0x10
 2224 099a 00       		.byte	0
 2225 099b 15       		.uleb128 0x15
 2226 099c 04       		.byte	0x4
 2227 099d 13       		.byte	0x13
 2228 099e 44       		.byte	0x44
 2229 099f BA090000 		.4byte	0x9ba
 2230 09a3 1B       		.uleb128 0x1b
 2231 09a4 2F000000 		.4byte	.LASF151
 2232 09a8 13       		.byte	0x13
 2233 09a9 45       		.byte	0x45
 2234 09aa DB090000 		.4byte	0x9db
 2235 09ae 1B       		.uleb128 0x1b
 2236 09af 46070000 		.4byte	.LASF152
 2237 09b3 13       		.byte	0x13
 2238 09b4 46       		.byte	0x46
 2239 09b5 E1090000 		.4byte	0x9e1
 2240 09b9 00       		.byte	0
 2241 09ba 1C       		.uleb128 0x1c
 2242 09bb 40060000 		.4byte	.LASF166
 2243 09bf 08       		.byte	0x8
 2244 09c0 13       		.byte	0x13
 2245 09c1 41       		.byte	0x41
 2246 09c2 DB090000 		.4byte	0x9db
 2247 09c6 1B       		.uleb128 0x1b
 2248 09c7 FD000000 		.4byte	.LASF153
 2249 09cb 13       		.byte	0x13
 2250 09cc 42       		.byte	0x42
 2251 09cd F2040000 		.4byte	0x4f2
 2252 09d1 1D       		.uleb128 0x1d
 2253 09d2 6800     		.ascii	"h\000"
 2254 09d4 13       		.byte	0x13
 2255 09d5 49       		.byte	0x49
 2256 09d6 E7090000 		.4byte	0x9e7
 2257 09da 00       		.byte	0
 2258 09db 0A       		.uleb128 0xa
 2259 09dc 04       		.byte	0x4
 2260 09dd BA090000 		.4byte	0x9ba
 2261 09e1 0A       		.uleb128 0xa
ARM GAS  /tmp/ccbmFvQZ.s 			page 41


 2262 09e2 04       		.byte	0x4
 2263 09e3 5F090000 		.4byte	0x95f
 2264 09e7 14       		.uleb128 0x14
 2265 09e8 08       		.byte	0x8
 2266 09e9 13       		.byte	0x13
 2267 09ea 43       		.byte	0x43
 2268 09eb 060A0000 		.4byte	0xa06
 2269 09ef 13       		.uleb128 0x13
 2270 09f0 7500     		.ascii	"u\000"
 2271 09f2 13       		.byte	0x13
 2272 09f3 47       		.byte	0x47
 2273 09f4 9B090000 		.4byte	0x99b
 2274 09f8 00       		.byte	0
 2275 09f9 07       		.uleb128 0x7
 2276 09fa BA080000 		.4byte	.LASF154
 2277 09fe 13       		.byte	0x13
 2278 09ff 48       		.byte	0x48
 2279 0a00 2C000000 		.4byte	0x2c
 2280 0a04 04       		.byte	0x4
 2281 0a05 00       		.byte	0
 2282 0a06 06       		.uleb128 0x6
 2283 0a07 38080000 		.4byte	.LASF155
 2284 0a0b 04       		.byte	0x4
 2285 0a0c 14       		.byte	0x14
 2286 0a0d 38       		.byte	0x38
 2287 0a0e 1F0A0000 		.4byte	0xa1f
 2288 0a12 07       		.uleb128 0x7
 2289 0a13 A5080000 		.4byte	.LASF156
 2290 0a17 14       		.byte	0x14
 2291 0a18 39       		.byte	0x39
 2292 0a19 1F0A0000 		.4byte	0xa1f
 2293 0a1d 00       		.byte	0
 2294 0a1e 00       		.byte	0
 2295 0a1f 0A       		.uleb128 0xa
 2296 0a20 04       		.byte	0x4
 2297 0a21 060A0000 		.4byte	0xa06
 2298 0a25 14       		.uleb128 0x14
 2299 0a26 0C       		.byte	0xc
 2300 0a27 14       		.byte	0x14
 2301 0a28 40       		.byte	0x40
 2302 0a29 520A0000 		.4byte	0xa52
 2303 0a2d 07       		.uleb128 0x7
 2304 0a2e F3070000 		.4byte	.LASF157
 2305 0a32 14       		.byte	0x14
 2306 0a33 41       		.byte	0x41
 2307 0a34 1F0A0000 		.4byte	0xa1f
 2308 0a38 00       		.byte	0
 2309 0a39 07       		.uleb128 0x7
 2310 0a3a 91050000 		.4byte	.LASF158
 2311 0a3e 14       		.byte	0x14
 2312 0a3f 42       		.byte	0x42
 2313 0a40 2C000000 		.4byte	0x2c
 2314 0a44 04       		.byte	0x4
 2315 0a45 07       		.uleb128 0x7
 2316 0a46 1C000000 		.4byte	.LASF159
 2317 0a4a 14       		.byte	0x14
 2318 0a4b 44       		.byte	0x44
ARM GAS  /tmp/ccbmFvQZ.s 			page 42


 2319 0a4c 3F090000 		.4byte	0x93f
 2320 0a50 08       		.byte	0x8
 2321 0a51 00       		.byte	0
 2322 0a52 03       		.uleb128 0x3
 2323 0a53 02040000 		.4byte	.LASF160
 2324 0a57 14       		.byte	0x14
 2325 0a58 46       		.byte	0x46
 2326 0a59 250A0000 		.4byte	0xa25
 2327 0a5d 06       		.uleb128 0x6
 2328 0a5e F0060000 		.4byte	.LASF161
 2329 0a62 10       		.byte	0x10
 2330 0a63 15       		.byte	0x15
 2331 0a64 3B       		.byte	0x3b
 2332 0a65 9A0A0000 		.4byte	0xa9a
 2333 0a69 07       		.uleb128 0x7
 2334 0a6a 1C040000 		.4byte	.LASF162
 2335 0a6e 15       		.byte	0x15
 2336 0a6f 3C       		.byte	0x3c
 2337 0a70 DD070000 		.4byte	0x7dd
 2338 0a74 00       		.byte	0
 2339 0a75 07       		.uleb128 0x7
 2340 0a76 B2050000 		.4byte	.LASF163
 2341 0a7a 15       		.byte	0x15
 2342 0a7b 3D       		.byte	0x3d
 2343 0a7c A00A0000 		.4byte	0xaa0
 2344 0a80 04       		.byte	0x4
 2345 0a81 07       		.uleb128 0x7
 2346 0a82 82080000 		.4byte	.LASF164
 2347 0a86 15       		.byte	0x15
 2348 0a87 3E       		.byte	0x3e
 2349 0a88 A00A0000 		.4byte	0xaa0
 2350 0a8c 08       		.byte	0x8
 2351 0a8d 07       		.uleb128 0x7
 2352 0a8e FD050000 		.4byte	.LASF165
 2353 0a92 15       		.byte	0x15
 2354 0a93 3F       		.byte	0x3f
 2355 0a94 A00A0000 		.4byte	0xaa0
 2356 0a98 0C       		.byte	0xc
 2357 0a99 00       		.byte	0
 2358 0a9a 0F       		.uleb128 0xf
 2359 0a9b 5D0A0000 		.4byte	0xa5d
 2360 0a9f 1E       		.uleb128 0x1e
 2361 0aa0 0A       		.uleb128 0xa
 2362 0aa1 04       		.byte	0x4
 2363 0aa2 9F0A0000 		.4byte	0xa9f
 2364 0aa6 1F       		.uleb128 0x1f
 2365 0aa7 B009     		.2byte	0x9b0
 2366 0aa9 15       		.byte	0x15
 2367 0aaa 44       		.byte	0x44
 2368 0aab EB0A0000 		.4byte	0xaeb
 2369 0aaf 13       		.uleb128 0x13
 2370 0ab0 543000   		.ascii	"T0\000"
 2371 0ab3 15       		.byte	0x15
 2372 0ab4 45       		.byte	0x45
 2373 0ab5 EB0A0000 		.4byte	0xaeb
 2374 0ab9 00       		.byte	0
 2375 0aba 20       		.uleb128 0x20
ARM GAS  /tmp/ccbmFvQZ.s 			page 43


 2376 0abb 543100   		.ascii	"T1\000"
 2377 0abe 15       		.byte	0x15
 2378 0abf 46       		.byte	0x46
 2379 0ac0 EB0A0000 		.4byte	0xaeb
 2380 0ac4 F001     		.2byte	0x1f0
 2381 0ac6 20       		.uleb128 0x20
 2382 0ac7 543200   		.ascii	"T2\000"
 2383 0aca 15       		.byte	0x15
 2384 0acb 47       		.byte	0x47
 2385 0acc EB0A0000 		.4byte	0xaeb
 2386 0ad0 E003     		.2byte	0x3e0
 2387 0ad2 20       		.uleb128 0x20
 2388 0ad3 543300   		.ascii	"T3\000"
 2389 0ad6 15       		.byte	0x15
 2390 0ad7 48       		.byte	0x48
 2391 0ad8 EB0A0000 		.4byte	0xaeb
 2392 0adc D005     		.2byte	0x5d0
 2393 0ade 20       		.uleb128 0x20
 2394 0adf 543400   		.ascii	"T4\000"
 2395 0ae2 15       		.byte	0x15
 2396 0ae3 49       		.byte	0x49
 2397 0ae4 EB0A0000 		.4byte	0xaeb
 2398 0ae8 C007     		.2byte	0x7c0
 2399 0aea 00       		.byte	0
 2400 0aeb 17       		.uleb128 0x17
 2401 0aec F2040000 		.4byte	0x4f2
 2402 0af0 FB0A0000 		.4byte	0xafb
 2403 0af4 18       		.uleb128 0x18
 2404 0af5 C9040000 		.4byte	0x4c9
 2405 0af9 3D       		.byte	0x3d
 2406 0afa 00       		.byte	0
 2407 0afb 21       		.uleb128 0x21
 2408 0afc 2B080000 		.4byte	.LASF167
 2409 0b00 B009     		.2byte	0x9b0
 2410 0b02 15       		.byte	0x15
 2411 0b03 43       		.byte	0x43
 2412 0b04 1E0B0000 		.4byte	0xb1e
 2413 0b08 1D       		.uleb128 0x1d
 2414 0b09 776100   		.ascii	"wa\000"
 2415 0b0c 15       		.byte	0x15
 2416 0b0d 4A       		.byte	0x4a
 2417 0b0e A60A0000 		.4byte	0xaa6
 2418 0b12 1B       		.uleb128 0x1b
 2419 0b13 DA020000 		.4byte	.LASF168
 2420 0b17 15       		.byte	0x15
 2421 0b18 4B       		.byte	0x4b
 2422 0b19 1E0B0000 		.4byte	0xb1e
 2423 0b1d 00       		.byte	0
 2424 0b1e 17       		.uleb128 0x17
 2425 0b1f B4000000 		.4byte	0xb4
 2426 0b23 2F0B0000 		.4byte	0xb2f
 2427 0b27 22       		.uleb128 0x22
 2428 0b28 C9040000 		.4byte	0x4c9
 2429 0b2c AF09     		.2byte	0x9af
 2430 0b2e 00       		.byte	0
 2431 0b2f 12       		.uleb128 0x12
 2432 0b30 D2070000 		.4byte	.LASF169
ARM GAS  /tmp/ccbmFvQZ.s 			page 44


 2433 0b34 15       		.byte	0x15
 2434 0b35 4F       		.byte	0x4f
 2435 0b36 38090000 		.4byte	0x938
 2436 0b3a 17       		.uleb128 0x17
 2437 0b3b 8A020000 		.4byte	0x28a
 2438 0b3f 4A0B0000 		.4byte	0xb4a
 2439 0b43 18       		.uleb128 0x18
 2440 0b44 C9040000 		.4byte	0x4c9
 2441 0b48 04       		.byte	0x4
 2442 0b49 00       		.byte	0
 2443 0b4a 12       		.uleb128 0x12
 2444 0b4b 68060000 		.4byte	.LASF170
 2445 0b4f 15       		.byte	0x15
 2446 0b50 A7       		.byte	0xa7
 2447 0b51 3A0B0000 		.4byte	0xb3a
 2448 0b55 12       		.uleb128 0x12
 2449 0b56 D5000000 		.4byte	.LASF171
 2450 0b5a 15       		.byte	0x15
 2451 0b5b A8       		.byte	0xa8
 2452 0b5c FB0A0000 		.4byte	0xafb
 2453 0b60 17       		.uleb128 0x17
 2454 0b61 69030000 		.4byte	0x369
 2455 0b65 6B0B0000 		.4byte	0xb6b
 2456 0b69 23       		.uleb128 0x23
 2457 0b6a 00       		.byte	0
 2458 0b6b 0F       		.uleb128 0xf
 2459 0b6c 600B0000 		.4byte	0xb60
 2460 0b70 24       		.uleb128 0x24
 2461 0b71 776100   		.ascii	"wa\000"
 2462 0b74 15       		.byte	0x15
 2463 0b75 A9       		.byte	0xa9
 2464 0b76 6B0B0000 		.4byte	0xb6b
 2465 0b7a 12       		.uleb128 0x12
 2466 0b7b 7D060000 		.4byte	.LASF172
 2467 0b7f 15       		.byte	0x15
 2468 0b80 AA       		.byte	0xaa
 2469 0b81 38090000 		.4byte	0x938
 2470 0b85 25       		.uleb128 0x25
 2471 0b86 08090000 		.4byte	.LASF173
 2472 0b8a 02       		.byte	0x2
 2473 0b8b 36       		.byte	0x36
 2474 0b8c 5F090000 		.4byte	0x95f
 2475 0b90 05       		.uleb128 0x5
 2476 0b91 03       		.byte	0x3
 2477 0b92 00000000 		.4byte	heap1
 2478 0b96 26       		.uleb128 0x26
 2479 0b97 6D703100 		.ascii	"mp1\000"
 2480 0b9b 02       		.byte	0x2
 2481 0b9c 39       		.byte	0x39
 2482 0b9d 520A0000 		.4byte	0xa52
 2483 0ba1 05       		.uleb128 0x5
 2484 0ba2 03       		.byte	0x3
 2485 0ba3 00000000 		.4byte	mp1
 2486 0ba7 27       		.uleb128 0x27
 2487 0ba8 5E050000 		.4byte	.LASF174
 2488 0bac 02       		.byte	0x2
 2489 0bad 77       		.byte	0x77
ARM GAS  /tmp/ccbmFvQZ.s 			page 45


 2490 0bae 9A0A0000 		.4byte	0xa9a
 2491 0bb2 05       		.uleb128 0x5
 2492 0bb3 03       		.byte	0x3
 2493 0bb4 00000000 		.4byte	testdyn1
 2494 0bb8 27       		.uleb128 0x27
 2495 0bb9 20050000 		.4byte	.LASF175
 2496 0bbd 02       		.byte	0x2
 2497 0bbe AF       		.byte	0xaf
 2498 0bbf 9A0A0000 		.4byte	0xa9a
 2499 0bc3 05       		.uleb128 0x5
 2500 0bc4 03       		.byte	0x3
 2501 0bc5 00000000 		.4byte	testdyn2
 2502 0bc9 27       		.uleb128 0x27
 2503 0bca 7C050000 		.4byte	.LASF176
 2504 0bce 02       		.byte	0x2
 2505 0bcf EF       		.byte	0xef
 2506 0bd0 9A0A0000 		.4byte	0xa9a
 2507 0bd4 05       		.uleb128 0x5
 2508 0bd5 03       		.byte	0x3
 2509 0bd6 00000000 		.4byte	testdyn3
 2510 0bda 17       		.uleb128 0x17
 2511 0bdb F50B0000 		.4byte	0xbf5
 2512 0bdf EA0B0000 		.4byte	0xbea
 2513 0be3 18       		.uleb128 0x18
 2514 0be4 C9040000 		.4byte	0x4c9
 2515 0be8 03       		.byte	0x3
 2516 0be9 00       		.byte	0
 2517 0bea 0F       		.uleb128 0xf
 2518 0beb DA0B0000 		.4byte	0xbda
 2519 0bef 0A       		.uleb128 0xa
 2520 0bf0 04       		.byte	0x4
 2521 0bf1 9A0A0000 		.4byte	0xa9a
 2522 0bf5 0F       		.uleb128 0xf
 2523 0bf6 EF0B0000 		.4byte	0xbef
 2524 0bfa 27       		.uleb128 0x27
 2525 0bfb C5040000 		.4byte	.LASF177
 2526 0bff 02       		.byte	0x2
 2527 0c00 FB       		.byte	0xfb
 2528 0c01 EA0B0000 		.4byte	0xbea
 2529 0c05 05       		.uleb128 0x5
 2530 0c06 03       		.byte	0x3
 2531 0c07 00000000 		.4byte	patterndyn
 2532 0c0b 28       		.uleb128 0x28
 2533 0c0c 67050000 		.4byte	.LASF180
 2534 0c10 02       		.byte	0x2
 2535 0c11 D1       		.byte	0xd1
 2536 0c12 00000000 		.4byte	.LFB238
 2537 0c16 CC010000 		.4byte	.LFE238-.LFB238
 2538 0c1a 01       		.uleb128 0x1
 2539 0c1b 9C       		.byte	0x9c
 2540 0c1c 3C0C0000 		.4byte	0xc3c
 2541 0c20 26       		.uleb128 0x26
 2542 0c21 747000   		.ascii	"tp\000"
 2543 0c24 02       		.byte	0x2
 2544 0c25 D2       		.byte	0xd2
 2545 0c26 8A020000 		.4byte	0x28a
 2546 0c2a 02       		.uleb128 0x2
ARM GAS  /tmp/ccbmFvQZ.s 			page 46


 2547 0c2b 91       		.byte	0x91
 2548 0c2c 70       		.sleb128 -16
 2549 0c2d 25       		.uleb128 0x25
 2550 0c2e B8050000 		.4byte	.LASF178
 2551 0c32 02       		.byte	0x2
 2552 0c33 D3       		.byte	0xd3
 2553 0c34 27010000 		.4byte	0x127
 2554 0c38 02       		.uleb128 0x2
 2555 0c39 91       		.byte	0x91
 2556 0c3a 74       		.sleb128 -12
 2557 0c3b 00       		.byte	0
 2558 0c3c 29       		.uleb128 0x29
 2559 0c3d 7F070000 		.4byte	.LASF182
 2560 0c41 02       		.byte	0x2
 2561 0c42 CC       		.byte	0xcc
 2562 0c43 00000000 		.4byte	.LFB237
 2563 0c47 1C000000 		.4byte	.LFE237-.LFB237
 2564 0c4b 01       		.uleb128 0x1
 2565 0c4c 9C       		.byte	0x9c
 2566 0c4d 2A       		.uleb128 0x2a
 2567 0c4e 53080000 		.4byte	.LASF192
 2568 0c52 02       		.byte	0x2
 2569 0c53 C0       		.byte	0xc0
 2570 0c54 38090000 		.4byte	0x938
 2571 0c58 00000000 		.4byte	.LFB236
 2572 0c5c 4C000000 		.4byte	.LFE236-.LFB236
 2573 0c60 01       		.uleb128 0x1
 2574 0c61 9C       		.byte	0x9c
 2575 0c62 900C0000 		.4byte	0xc90
 2576 0c66 2B       		.uleb128 0x2b
 2577 0c67 747000   		.ascii	"tp\000"
 2578 0c6a 02       		.byte	0x2
 2579 0c6b C0       		.byte	0xc0
 2580 0c6c 8A020000 		.4byte	0x28a
 2581 0c70 02       		.uleb128 0x2
 2582 0c71 91       		.byte	0x91
 2583 0c72 6C       		.sleb128 -20
 2584 0c73 26       		.uleb128 0x26
 2585 0c74 66747000 		.ascii	"ftp\000"
 2586 0c78 02       		.byte	0x2
 2587 0c79 C1       		.byte	0xc1
 2588 0c7a 8A020000 		.4byte	0x28a
 2589 0c7e 02       		.uleb128 0x2
 2590 0c7f 91       		.byte	0x91
 2591 0c80 74       		.sleb128 -12
 2592 0c81 25       		.uleb128 0x25
 2593 0c82 25080000 		.4byte	.LASF179
 2594 0c86 02       		.byte	0x2
 2595 0c87 C2       		.byte	0xc2
 2596 0c88 38090000 		.4byte	0x938
 2597 0c8c 02       		.uleb128 0x2
 2598 0c8d 91       		.byte	0x91
 2599 0c8e 73       		.sleb128 -13
 2600 0c8f 00       		.byte	0
 2601 0c90 28       		.uleb128 0x28
 2602 0c91 D8030000 		.4byte	.LASF181
 2603 0c95 02       		.byte	0x2
ARM GAS  /tmp/ccbmFvQZ.s 			page 47


 2604 0c96 8F       		.byte	0x8f
 2605 0c97 00000000 		.4byte	.LFB235
 2606 0c9b 70010000 		.4byte	.LFE235-.LFB235
 2607 0c9f 01       		.uleb128 0x1
 2608 0ca0 9C       		.byte	0x9c
 2609 0ca1 C00C0000 		.4byte	0xcc0
 2610 0ca5 26       		.uleb128 0x26
 2611 0ca6 6900     		.ascii	"i\000"
 2612 0ca8 02       		.byte	0x2
 2613 0ca9 90       		.byte	0x90
 2614 0caa 25000000 		.4byte	0x25
 2615 0cae 02       		.uleb128 0x2
 2616 0caf 91       		.byte	0x91
 2617 0cb0 74       		.sleb128 -12
 2618 0cb1 25       		.uleb128 0x25
 2619 0cb2 B8050000 		.4byte	.LASF178
 2620 0cb6 02       		.byte	0x2
 2621 0cb7 91       		.byte	0x91
 2622 0cb8 27010000 		.4byte	0x127
 2623 0cbc 02       		.uleb128 0x2
 2624 0cbd 91       		.byte	0x91
 2625 0cbe 70       		.sleb128 -16
 2626 0cbf 00       		.byte	0
 2627 0cc0 29       		.uleb128 0x29
 2628 0cc1 20010000 		.4byte	.LASF183
 2629 0cc5 02       		.byte	0x2
 2630 0cc6 8A       		.byte	0x8a
 2631 0cc7 00000000 		.4byte	.LFB234
 2632 0ccb 18000000 		.4byte	.LFE234-.LFB234
 2633 0ccf 01       		.uleb128 0x1
 2634 0cd0 9C       		.byte	0x9c
 2635 0cd1 28       		.uleb128 0x28
 2636 0cd2 AD080000 		.4byte	.LASF184
 2637 0cd6 02       		.byte	0x2
 2638 0cd7 52       		.byte	0x52
 2639 0cd8 00000000 		.4byte	.LFB233
 2640 0cdc 40010000 		.4byte	.LFE233-.LFB233
 2641 0ce0 01       		.uleb128 0x1
 2642 0ce1 9C       		.byte	0x9c
 2643 0ce2 1B0D0000 		.4byte	0xd1b
 2644 0ce6 26       		.uleb128 0x26
 2645 0ce7 6E00     		.ascii	"n\000"
 2646 0ce9 02       		.byte	0x2
 2647 0cea 53       		.byte	0x53
 2648 0ceb 2C000000 		.4byte	0x2c
 2649 0cef 02       		.uleb128 0x2
 2650 0cf0 91       		.byte	0x91
 2651 0cf1 6C       		.sleb128 -20
 2652 0cf2 26       		.uleb128 0x26
 2653 0cf3 737A00   		.ascii	"sz\000"
 2654 0cf6 02       		.byte	0x2
 2655 0cf7 53       		.byte	0x53
 2656 0cf8 2C000000 		.4byte	0x2c
 2657 0cfc 02       		.uleb128 0x2
 2658 0cfd 91       		.byte	0x91
 2659 0cfe 68       		.sleb128 -24
 2660 0cff 26       		.uleb128 0x26
ARM GAS  /tmp/ccbmFvQZ.s 			page 48


 2661 0d00 703100   		.ascii	"p1\000"
 2662 0d03 02       		.byte	0x2
 2663 0d04 54       		.byte	0x54
 2664 0d05 67030000 		.4byte	0x367
 2665 0d09 02       		.uleb128 0x2
 2666 0d0a 91       		.byte	0x91
 2667 0d0b 70       		.sleb128 -16
 2668 0d0c 25       		.uleb128 0x25
 2669 0d0d B8050000 		.4byte	.LASF178
 2670 0d11 02       		.byte	0x2
 2671 0d12 55       		.byte	0x55
 2672 0d13 27010000 		.4byte	0x127
 2673 0d17 02       		.uleb128 0x2
 2674 0d18 91       		.byte	0x91
 2675 0d19 74       		.sleb128 -12
 2676 0d1a 00       		.byte	0
 2677 0d1b 29       		.uleb128 0x29
 2678 0d1c 4B070000 		.4byte	.LASF185
 2679 0d20 02       		.byte	0x2
 2680 0d21 4D       		.byte	0x4d
 2681 0d22 00000000 		.4byte	.LFB232
 2682 0d26 1C000000 		.4byte	.LFE232-.LFB232
 2683 0d2a 01       		.uleb128 0x1
 2684 0d2b 9C       		.byte	0x9c
 2685 0d2c 28       		.uleb128 0x28
 2686 0d2d 0D060000 		.4byte	.LASF186
 2687 0d31 02       		.byte	0x2
 2688 0d32 47       		.byte	0x47
 2689 0d33 00000000 		.4byte	.LFB231
 2690 0d37 18000000 		.4byte	.LFE231-.LFB231
 2691 0d3b 01       		.uleb128 0x1
 2692 0d3c 9C       		.byte	0x9c
 2693 0d3d 4E0D0000 		.4byte	0xd4e
 2694 0d41 2B       		.uleb128 0x2b
 2695 0d42 7000     		.ascii	"p\000"
 2696 0d44 02       		.byte	0x2
 2697 0d45 47       		.byte	0x47
 2698 0d46 67030000 		.4byte	0x367
 2699 0d4a 02       		.uleb128 0x2
 2700 0d4b 91       		.byte	0x91
 2701 0d4c 74       		.sleb128 -12
 2702 0d4d 00       		.byte	0
 2703 0d4e 2C       		.uleb128 0x2c
 2704 0d4f A0050000 		.4byte	.LASF187
 2705 0d53 01       		.byte	0x1
 2706 0d54 BB       		.byte	0xbb
 2707 0d55 27010000 		.4byte	0x127
 2708 0d59 00000000 		.4byte	.LFB179
 2709 0d5d 0E000000 		.4byte	.LFE179-.LFB179
 2710 0d61 01       		.uleb128 0x1
 2711 0d62 9C       		.byte	0x9c
 2712 0d63 2D       		.uleb128 0x2d
 2713 0d64 61080000 		.4byte	.LASF188
 2714 0d68 01       		.byte	0x1
 2715 0d69 AE       		.byte	0xae
 2716 0d6a 8A020000 		.4byte	0x28a
 2717 0d6e 00000000 		.4byte	.LFB178
ARM GAS  /tmp/ccbmFvQZ.s 			page 49


 2718 0d72 0C000000 		.4byte	.LFE178-.LFB178
 2719 0d76 01       		.uleb128 0x1
 2720 0d77 9C       		.byte	0x9c
 2721 0d78 00       		.byte	0
 2722              		.section	.debug_abbrev,"",%progbits
 2723              	.Ldebug_abbrev0:
 2724 0000 01       		.uleb128 0x1
 2725 0001 11       		.uleb128 0x11
 2726 0002 01       		.byte	0x1
 2727 0003 25       		.uleb128 0x25
 2728 0004 0E       		.uleb128 0xe
 2729 0005 13       		.uleb128 0x13
 2730 0006 0B       		.uleb128 0xb
 2731 0007 03       		.uleb128 0x3
 2732 0008 0E       		.uleb128 0xe
 2733 0009 1B       		.uleb128 0x1b
 2734 000a 0E       		.uleb128 0xe
 2735 000b 55       		.uleb128 0x55
 2736 000c 17       		.uleb128 0x17
 2737 000d 11       		.uleb128 0x11
 2738 000e 01       		.uleb128 0x1
 2739 000f 10       		.uleb128 0x10
 2740 0010 17       		.uleb128 0x17
 2741 0011 00       		.byte	0
 2742 0012 00       		.byte	0
 2743 0013 02       		.uleb128 0x2
 2744 0014 24       		.uleb128 0x24
 2745 0015 00       		.byte	0
 2746 0016 0B       		.uleb128 0xb
 2747 0017 0B       		.uleb128 0xb
 2748 0018 3E       		.uleb128 0x3e
 2749 0019 0B       		.uleb128 0xb
 2750 001a 03       		.uleb128 0x3
 2751 001b 08       		.uleb128 0x8
 2752 001c 00       		.byte	0
 2753 001d 00       		.byte	0
 2754 001e 03       		.uleb128 0x3
 2755 001f 16       		.uleb128 0x16
 2756 0020 00       		.byte	0
 2757 0021 03       		.uleb128 0x3
 2758 0022 0E       		.uleb128 0xe
 2759 0023 3A       		.uleb128 0x3a
 2760 0024 0B       		.uleb128 0xb
 2761 0025 3B       		.uleb128 0x3b
 2762 0026 0B       		.uleb128 0xb
 2763 0027 49       		.uleb128 0x49
 2764 0028 13       		.uleb128 0x13
 2765 0029 00       		.byte	0
 2766 002a 00       		.byte	0
 2767 002b 04       		.uleb128 0x4
 2768 002c 24       		.uleb128 0x24
 2769 002d 00       		.byte	0
 2770 002e 0B       		.uleb128 0xb
 2771 002f 0B       		.uleb128 0xb
 2772 0030 3E       		.uleb128 0x3e
 2773 0031 0B       		.uleb128 0xb
 2774 0032 03       		.uleb128 0x3
ARM GAS  /tmp/ccbmFvQZ.s 			page 50


 2775 0033 0E       		.uleb128 0xe
 2776 0034 00       		.byte	0
 2777 0035 00       		.byte	0
 2778 0036 05       		.uleb128 0x5
 2779 0037 35       		.uleb128 0x35
 2780 0038 00       		.byte	0
 2781 0039 49       		.uleb128 0x49
 2782 003a 13       		.uleb128 0x13
 2783 003b 00       		.byte	0
 2784 003c 00       		.byte	0
 2785 003d 06       		.uleb128 0x6
 2786 003e 13       		.uleb128 0x13
 2787 003f 01       		.byte	0x1
 2788 0040 03       		.uleb128 0x3
 2789 0041 0E       		.uleb128 0xe
 2790 0042 0B       		.uleb128 0xb
 2791 0043 0B       		.uleb128 0xb
 2792 0044 3A       		.uleb128 0x3a
 2793 0045 0B       		.uleb128 0xb
 2794 0046 3B       		.uleb128 0x3b
 2795 0047 0B       		.uleb128 0xb
 2796 0048 01       		.uleb128 0x1
 2797 0049 13       		.uleb128 0x13
 2798 004a 00       		.byte	0
 2799 004b 00       		.byte	0
 2800 004c 07       		.uleb128 0x7
 2801 004d 0D       		.uleb128 0xd
 2802 004e 00       		.byte	0
 2803 004f 03       		.uleb128 0x3
 2804 0050 0E       		.uleb128 0xe
 2805 0051 3A       		.uleb128 0x3a
 2806 0052 0B       		.uleb128 0xb
 2807 0053 3B       		.uleb128 0x3b
 2808 0054 0B       		.uleb128 0xb
 2809 0055 49       		.uleb128 0x49
 2810 0056 13       		.uleb128 0x13
 2811 0057 38       		.uleb128 0x38
 2812 0058 0B       		.uleb128 0xb
 2813 0059 00       		.byte	0
 2814 005a 00       		.byte	0
 2815 005b 08       		.uleb128 0x8
 2816 005c 0D       		.uleb128 0xd
 2817 005d 00       		.byte	0
 2818 005e 03       		.uleb128 0x3
 2819 005f 08       		.uleb128 0x8
 2820 0060 3A       		.uleb128 0x3a
 2821 0061 0B       		.uleb128 0xb
 2822 0062 3B       		.uleb128 0x3b
 2823 0063 05       		.uleb128 0x5
 2824 0064 49       		.uleb128 0x49
 2825 0065 13       		.uleb128 0x13
 2826 0066 38       		.uleb128 0x38
 2827 0067 0B       		.uleb128 0xb
 2828 0068 00       		.byte	0
 2829 0069 00       		.byte	0
 2830 006a 09       		.uleb128 0x9
 2831 006b 0D       		.uleb128 0xd
ARM GAS  /tmp/ccbmFvQZ.s 			page 51


 2832 006c 00       		.byte	0
 2833 006d 03       		.uleb128 0x3
 2834 006e 0E       		.uleb128 0xe
 2835 006f 3A       		.uleb128 0x3a
 2836 0070 0B       		.uleb128 0xb
 2837 0071 3B       		.uleb128 0x3b
 2838 0072 05       		.uleb128 0x5
 2839 0073 49       		.uleb128 0x49
 2840 0074 13       		.uleb128 0x13
 2841 0075 38       		.uleb128 0x38
 2842 0076 0B       		.uleb128 0xb
 2843 0077 00       		.byte	0
 2844 0078 00       		.byte	0
 2845 0079 0A       		.uleb128 0xa
 2846 007a 0F       		.uleb128 0xf
 2847 007b 00       		.byte	0
 2848 007c 0B       		.uleb128 0xb
 2849 007d 0B       		.uleb128 0xb
 2850 007e 49       		.uleb128 0x49
 2851 007f 13       		.uleb128 0x13
 2852 0080 00       		.byte	0
 2853 0081 00       		.byte	0
 2854 0082 0B       		.uleb128 0xb
 2855 0083 13       		.uleb128 0x13
 2856 0084 01       		.byte	0x1
 2857 0085 03       		.uleb128 0x3
 2858 0086 0E       		.uleb128 0xe
 2859 0087 0B       		.uleb128 0xb
 2860 0088 0B       		.uleb128 0xb
 2861 0089 3A       		.uleb128 0x3a
 2862 008a 0B       		.uleb128 0xb
 2863 008b 3B       		.uleb128 0x3b
 2864 008c 05       		.uleb128 0x5
 2865 008d 01       		.uleb128 0x1
 2866 008e 13       		.uleb128 0x13
 2867 008f 00       		.byte	0
 2868 0090 00       		.byte	0
 2869 0091 0C       		.uleb128 0xc
 2870 0092 15       		.uleb128 0x15
 2871 0093 01       		.byte	0x1
 2872 0094 27       		.uleb128 0x27
 2873 0095 19       		.uleb128 0x19
 2874 0096 01       		.uleb128 0x1
 2875 0097 13       		.uleb128 0x13
 2876 0098 00       		.byte	0
 2877 0099 00       		.byte	0
 2878 009a 0D       		.uleb128 0xd
 2879 009b 05       		.uleb128 0x5
 2880 009c 00       		.byte	0
 2881 009d 49       		.uleb128 0x49
 2882 009e 13       		.uleb128 0x13
 2883 009f 00       		.byte	0
 2884 00a0 00       		.byte	0
 2885 00a1 0E       		.uleb128 0xe
 2886 00a2 0F       		.uleb128 0xf
 2887 00a3 00       		.byte	0
 2888 00a4 0B       		.uleb128 0xb
ARM GAS  /tmp/ccbmFvQZ.s 			page 52


 2889 00a5 0B       		.uleb128 0xb
 2890 00a6 00       		.byte	0
 2891 00a7 00       		.byte	0
 2892 00a8 0F       		.uleb128 0xf
 2893 00a9 26       		.uleb128 0x26
 2894 00aa 00       		.byte	0
 2895 00ab 49       		.uleb128 0x49
 2896 00ac 13       		.uleb128 0x13
 2897 00ad 00       		.byte	0
 2898 00ae 00       		.byte	0
 2899 00af 10       		.uleb128 0x10
 2900 00b0 13       		.uleb128 0x13
 2901 00b1 01       		.byte	0x1
 2902 00b2 03       		.uleb128 0x3
 2903 00b3 0E       		.uleb128 0xe
 2904 00b4 0B       		.uleb128 0xb
 2905 00b5 05       		.uleb128 0x5
 2906 00b6 3A       		.uleb128 0x3a
 2907 00b7 0B       		.uleb128 0xb
 2908 00b8 3B       		.uleb128 0x3b
 2909 00b9 05       		.uleb128 0x5
 2910 00ba 01       		.uleb128 0x1
 2911 00bb 13       		.uleb128 0x13
 2912 00bc 00       		.byte	0
 2913 00bd 00       		.byte	0
 2914 00be 11       		.uleb128 0x11
 2915 00bf 34       		.uleb128 0x34
 2916 00c0 00       		.byte	0
 2917 00c1 03       		.uleb128 0x3
 2918 00c2 0E       		.uleb128 0xe
 2919 00c3 3A       		.uleb128 0x3a
 2920 00c4 0B       		.uleb128 0xb
 2921 00c5 3B       		.uleb128 0x3b
 2922 00c6 05       		.uleb128 0x5
 2923 00c7 49       		.uleb128 0x49
 2924 00c8 13       		.uleb128 0x13
 2925 00c9 3F       		.uleb128 0x3f
 2926 00ca 19       		.uleb128 0x19
 2927 00cb 3C       		.uleb128 0x3c
 2928 00cc 19       		.uleb128 0x19
 2929 00cd 00       		.byte	0
 2930 00ce 00       		.byte	0
 2931 00cf 12       		.uleb128 0x12
 2932 00d0 34       		.uleb128 0x34
 2933 00d1 00       		.byte	0
 2934 00d2 03       		.uleb128 0x3
 2935 00d3 0E       		.uleb128 0xe
 2936 00d4 3A       		.uleb128 0x3a
 2937 00d5 0B       		.uleb128 0xb
 2938 00d6 3B       		.uleb128 0x3b
 2939 00d7 0B       		.uleb128 0xb
 2940 00d8 49       		.uleb128 0x49
 2941 00d9 13       		.uleb128 0x13
 2942 00da 3F       		.uleb128 0x3f
 2943 00db 19       		.uleb128 0x19
 2944 00dc 3C       		.uleb128 0x3c
 2945 00dd 19       		.uleb128 0x19
ARM GAS  /tmp/ccbmFvQZ.s 			page 53


 2946 00de 00       		.byte	0
 2947 00df 00       		.byte	0
 2948 00e0 13       		.uleb128 0x13
 2949 00e1 0D       		.uleb128 0xd
 2950 00e2 00       		.byte	0
 2951 00e3 03       		.uleb128 0x3
 2952 00e4 08       		.uleb128 0x8
 2953 00e5 3A       		.uleb128 0x3a
 2954 00e6 0B       		.uleb128 0xb
 2955 00e7 3B       		.uleb128 0x3b
 2956 00e8 0B       		.uleb128 0xb
 2957 00e9 49       		.uleb128 0x49
 2958 00ea 13       		.uleb128 0x13
 2959 00eb 38       		.uleb128 0x38
 2960 00ec 0B       		.uleb128 0xb
 2961 00ed 00       		.byte	0
 2962 00ee 00       		.byte	0
 2963 00ef 14       		.uleb128 0x14
 2964 00f0 13       		.uleb128 0x13
 2965 00f1 01       		.byte	0x1
 2966 00f2 0B       		.uleb128 0xb
 2967 00f3 0B       		.uleb128 0xb
 2968 00f4 3A       		.uleb128 0x3a
 2969 00f5 0B       		.uleb128 0xb
 2970 00f6 3B       		.uleb128 0x3b
 2971 00f7 0B       		.uleb128 0xb
 2972 00f8 01       		.uleb128 0x1
 2973 00f9 13       		.uleb128 0x13
 2974 00fa 00       		.byte	0
 2975 00fb 00       		.byte	0
 2976 00fc 15       		.uleb128 0x15
 2977 00fd 17       		.uleb128 0x17
 2978 00fe 01       		.byte	0x1
 2979 00ff 0B       		.uleb128 0xb
 2980 0100 0B       		.uleb128 0xb
 2981 0101 3A       		.uleb128 0x3a
 2982 0102 0B       		.uleb128 0xb
 2983 0103 3B       		.uleb128 0x3b
 2984 0104 0B       		.uleb128 0xb
 2985 0105 01       		.uleb128 0x1
 2986 0106 13       		.uleb128 0x13
 2987 0107 00       		.byte	0
 2988 0108 00       		.byte	0
 2989 0109 16       		.uleb128 0x16
 2990 010a 0D       		.uleb128 0xd
 2991 010b 00       		.byte	0
 2992 010c 03       		.uleb128 0x3
 2993 010d 0E       		.uleb128 0xe
 2994 010e 3A       		.uleb128 0x3a
 2995 010f 0B       		.uleb128 0xb
 2996 0110 3B       		.uleb128 0x3b
 2997 0111 05       		.uleb128 0x5
 2998 0112 49       		.uleb128 0x49
 2999 0113 13       		.uleb128 0x13
 3000 0114 00       		.byte	0
 3001 0115 00       		.byte	0
 3002 0116 17       		.uleb128 0x17
ARM GAS  /tmp/ccbmFvQZ.s 			page 54


 3003 0117 01       		.uleb128 0x1
 3004 0118 01       		.byte	0x1
 3005 0119 49       		.uleb128 0x49
 3006 011a 13       		.uleb128 0x13
 3007 011b 01       		.uleb128 0x1
 3008 011c 13       		.uleb128 0x13
 3009 011d 00       		.byte	0
 3010 011e 00       		.byte	0
 3011 011f 18       		.uleb128 0x18
 3012 0120 21       		.uleb128 0x21
 3013 0121 00       		.byte	0
 3014 0122 49       		.uleb128 0x49
 3015 0123 13       		.uleb128 0x13
 3016 0124 2F       		.uleb128 0x2f
 3017 0125 0B       		.uleb128 0xb
 3018 0126 00       		.byte	0
 3019 0127 00       		.byte	0
 3020 0128 19       		.uleb128 0x19
 3021 0129 34       		.uleb128 0x34
 3022 012a 00       		.byte	0
 3023 012b 03       		.uleb128 0x3
 3024 012c 08       		.uleb128 0x8
 3025 012d 3A       		.uleb128 0x3a
 3026 012e 0B       		.uleb128 0xb
 3027 012f 3B       		.uleb128 0x3b
 3028 0130 05       		.uleb128 0x5
 3029 0131 49       		.uleb128 0x49
 3030 0132 13       		.uleb128 0x13
 3031 0133 3F       		.uleb128 0x3f
 3032 0134 19       		.uleb128 0x19
 3033 0135 3C       		.uleb128 0x3c
 3034 0136 19       		.uleb128 0x19
 3035 0137 00       		.byte	0
 3036 0138 00       		.byte	0
 3037 0139 1A       		.uleb128 0x1a
 3038 013a 15       		.uleb128 0x15
 3039 013b 01       		.byte	0x1
 3040 013c 27       		.uleb128 0x27
 3041 013d 19       		.uleb128 0x19
 3042 013e 49       		.uleb128 0x49
 3043 013f 13       		.uleb128 0x13
 3044 0140 01       		.uleb128 0x1
 3045 0141 13       		.uleb128 0x13
 3046 0142 00       		.byte	0
 3047 0143 00       		.byte	0
 3048 0144 1B       		.uleb128 0x1b
 3049 0145 0D       		.uleb128 0xd
 3050 0146 00       		.byte	0
 3051 0147 03       		.uleb128 0x3
 3052 0148 0E       		.uleb128 0xe
 3053 0149 3A       		.uleb128 0x3a
 3054 014a 0B       		.uleb128 0xb
 3055 014b 3B       		.uleb128 0x3b
 3056 014c 0B       		.uleb128 0xb
 3057 014d 49       		.uleb128 0x49
 3058 014e 13       		.uleb128 0x13
 3059 014f 00       		.byte	0
ARM GAS  /tmp/ccbmFvQZ.s 			page 55


 3060 0150 00       		.byte	0
 3061 0151 1C       		.uleb128 0x1c
 3062 0152 17       		.uleb128 0x17
 3063 0153 01       		.byte	0x1
 3064 0154 03       		.uleb128 0x3
 3065 0155 0E       		.uleb128 0xe
 3066 0156 0B       		.uleb128 0xb
 3067 0157 0B       		.uleb128 0xb
 3068 0158 3A       		.uleb128 0x3a
 3069 0159 0B       		.uleb128 0xb
 3070 015a 3B       		.uleb128 0x3b
 3071 015b 0B       		.uleb128 0xb
 3072 015c 01       		.uleb128 0x1
 3073 015d 13       		.uleb128 0x13
 3074 015e 00       		.byte	0
 3075 015f 00       		.byte	0
 3076 0160 1D       		.uleb128 0x1d
 3077 0161 0D       		.uleb128 0xd
 3078 0162 00       		.byte	0
 3079 0163 03       		.uleb128 0x3
 3080 0164 08       		.uleb128 0x8
 3081 0165 3A       		.uleb128 0x3a
 3082 0166 0B       		.uleb128 0xb
 3083 0167 3B       		.uleb128 0x3b
 3084 0168 0B       		.uleb128 0xb
 3085 0169 49       		.uleb128 0x49
 3086 016a 13       		.uleb128 0x13
 3087 016b 00       		.byte	0
 3088 016c 00       		.byte	0
 3089 016d 1E       		.uleb128 0x1e
 3090 016e 15       		.uleb128 0x15
 3091 016f 00       		.byte	0
 3092 0170 27       		.uleb128 0x27
 3093 0171 19       		.uleb128 0x19
 3094 0172 00       		.byte	0
 3095 0173 00       		.byte	0
 3096 0174 1F       		.uleb128 0x1f
 3097 0175 13       		.uleb128 0x13
 3098 0176 01       		.byte	0x1
 3099 0177 0B       		.uleb128 0xb
 3100 0178 05       		.uleb128 0x5
 3101 0179 3A       		.uleb128 0x3a
 3102 017a 0B       		.uleb128 0xb
 3103 017b 3B       		.uleb128 0x3b
 3104 017c 0B       		.uleb128 0xb
 3105 017d 01       		.uleb128 0x1
 3106 017e 13       		.uleb128 0x13
 3107 017f 00       		.byte	0
 3108 0180 00       		.byte	0
 3109 0181 20       		.uleb128 0x20
 3110 0182 0D       		.uleb128 0xd
 3111 0183 00       		.byte	0
 3112 0184 03       		.uleb128 0x3
 3113 0185 08       		.uleb128 0x8
 3114 0186 3A       		.uleb128 0x3a
 3115 0187 0B       		.uleb128 0xb
 3116 0188 3B       		.uleb128 0x3b
ARM GAS  /tmp/ccbmFvQZ.s 			page 56


 3117 0189 0B       		.uleb128 0xb
 3118 018a 49       		.uleb128 0x49
 3119 018b 13       		.uleb128 0x13
 3120 018c 38       		.uleb128 0x38
 3121 018d 05       		.uleb128 0x5
 3122 018e 00       		.byte	0
 3123 018f 00       		.byte	0
 3124 0190 21       		.uleb128 0x21
 3125 0191 17       		.uleb128 0x17
 3126 0192 01       		.byte	0x1
 3127 0193 03       		.uleb128 0x3
 3128 0194 0E       		.uleb128 0xe
 3129 0195 0B       		.uleb128 0xb
 3130 0196 05       		.uleb128 0x5
 3131 0197 3A       		.uleb128 0x3a
 3132 0198 0B       		.uleb128 0xb
 3133 0199 3B       		.uleb128 0x3b
 3134 019a 0B       		.uleb128 0xb
 3135 019b 01       		.uleb128 0x1
 3136 019c 13       		.uleb128 0x13
 3137 019d 00       		.byte	0
 3138 019e 00       		.byte	0
 3139 019f 22       		.uleb128 0x22
 3140 01a0 21       		.uleb128 0x21
 3141 01a1 00       		.byte	0
 3142 01a2 49       		.uleb128 0x49
 3143 01a3 13       		.uleb128 0x13
 3144 01a4 2F       		.uleb128 0x2f
 3145 01a5 05       		.uleb128 0x5
 3146 01a6 00       		.byte	0
 3147 01a7 00       		.byte	0
 3148 01a8 23       		.uleb128 0x23
 3149 01a9 21       		.uleb128 0x21
 3150 01aa 00       		.byte	0
 3151 01ab 00       		.byte	0
 3152 01ac 00       		.byte	0
 3153 01ad 24       		.uleb128 0x24
 3154 01ae 34       		.uleb128 0x34
 3155 01af 00       		.byte	0
 3156 01b0 03       		.uleb128 0x3
 3157 01b1 08       		.uleb128 0x8
 3158 01b2 3A       		.uleb128 0x3a
 3159 01b3 0B       		.uleb128 0xb
 3160 01b4 3B       		.uleb128 0x3b
 3161 01b5 0B       		.uleb128 0xb
 3162 01b6 49       		.uleb128 0x49
 3163 01b7 13       		.uleb128 0x13
 3164 01b8 3F       		.uleb128 0x3f
 3165 01b9 19       		.uleb128 0x19
 3166 01ba 3C       		.uleb128 0x3c
 3167 01bb 19       		.uleb128 0x19
 3168 01bc 00       		.byte	0
 3169 01bd 00       		.byte	0
 3170 01be 25       		.uleb128 0x25
 3171 01bf 34       		.uleb128 0x34
 3172 01c0 00       		.byte	0
 3173 01c1 03       		.uleb128 0x3
ARM GAS  /tmp/ccbmFvQZ.s 			page 57


 3174 01c2 0E       		.uleb128 0xe
 3175 01c3 3A       		.uleb128 0x3a
 3176 01c4 0B       		.uleb128 0xb
 3177 01c5 3B       		.uleb128 0x3b
 3178 01c6 0B       		.uleb128 0xb
 3179 01c7 49       		.uleb128 0x49
 3180 01c8 13       		.uleb128 0x13
 3181 01c9 02       		.uleb128 0x2
 3182 01ca 18       		.uleb128 0x18
 3183 01cb 00       		.byte	0
 3184 01cc 00       		.byte	0
 3185 01cd 26       		.uleb128 0x26
 3186 01ce 34       		.uleb128 0x34
 3187 01cf 00       		.byte	0
 3188 01d0 03       		.uleb128 0x3
 3189 01d1 08       		.uleb128 0x8
 3190 01d2 3A       		.uleb128 0x3a
 3191 01d3 0B       		.uleb128 0xb
 3192 01d4 3B       		.uleb128 0x3b
 3193 01d5 0B       		.uleb128 0xb
 3194 01d6 49       		.uleb128 0x49
 3195 01d7 13       		.uleb128 0x13
 3196 01d8 02       		.uleb128 0x2
 3197 01d9 18       		.uleb128 0x18
 3198 01da 00       		.byte	0
 3199 01db 00       		.byte	0
 3200 01dc 27       		.uleb128 0x27
 3201 01dd 34       		.uleb128 0x34
 3202 01de 00       		.byte	0
 3203 01df 03       		.uleb128 0x3
 3204 01e0 0E       		.uleb128 0xe
 3205 01e1 3A       		.uleb128 0x3a
 3206 01e2 0B       		.uleb128 0xb
 3207 01e3 3B       		.uleb128 0x3b
 3208 01e4 0B       		.uleb128 0xb
 3209 01e5 49       		.uleb128 0x49
 3210 01e6 13       		.uleb128 0x13
 3211 01e7 3F       		.uleb128 0x3f
 3212 01e8 19       		.uleb128 0x19
 3213 01e9 02       		.uleb128 0x2
 3214 01ea 18       		.uleb128 0x18
 3215 01eb 00       		.byte	0
 3216 01ec 00       		.byte	0
 3217 01ed 28       		.uleb128 0x28
 3218 01ee 2E       		.uleb128 0x2e
 3219 01ef 01       		.byte	0x1
 3220 01f0 03       		.uleb128 0x3
 3221 01f1 0E       		.uleb128 0xe
 3222 01f2 3A       		.uleb128 0x3a
 3223 01f3 0B       		.uleb128 0xb
 3224 01f4 3B       		.uleb128 0x3b
 3225 01f5 0B       		.uleb128 0xb
 3226 01f6 27       		.uleb128 0x27
 3227 01f7 19       		.uleb128 0x19
 3228 01f8 11       		.uleb128 0x11
 3229 01f9 01       		.uleb128 0x1
 3230 01fa 12       		.uleb128 0x12
ARM GAS  /tmp/ccbmFvQZ.s 			page 58


 3231 01fb 06       		.uleb128 0x6
 3232 01fc 40       		.uleb128 0x40
 3233 01fd 18       		.uleb128 0x18
 3234 01fe 9642     		.uleb128 0x2116
 3235 0200 19       		.uleb128 0x19
 3236 0201 01       		.uleb128 0x1
 3237 0202 13       		.uleb128 0x13
 3238 0203 00       		.byte	0
 3239 0204 00       		.byte	0
 3240 0205 29       		.uleb128 0x29
 3241 0206 2E       		.uleb128 0x2e
 3242 0207 00       		.byte	0
 3243 0208 03       		.uleb128 0x3
 3244 0209 0E       		.uleb128 0xe
 3245 020a 3A       		.uleb128 0x3a
 3246 020b 0B       		.uleb128 0xb
 3247 020c 3B       		.uleb128 0x3b
 3248 020d 0B       		.uleb128 0xb
 3249 020e 27       		.uleb128 0x27
 3250 020f 19       		.uleb128 0x19
 3251 0210 11       		.uleb128 0x11
 3252 0211 01       		.uleb128 0x1
 3253 0212 12       		.uleb128 0x12
 3254 0213 06       		.uleb128 0x6
 3255 0214 40       		.uleb128 0x40
 3256 0215 18       		.uleb128 0x18
 3257 0216 9642     		.uleb128 0x2116
 3258 0218 19       		.uleb128 0x19
 3259 0219 00       		.byte	0
 3260 021a 00       		.byte	0
 3261 021b 2A       		.uleb128 0x2a
 3262 021c 2E       		.uleb128 0x2e
 3263 021d 01       		.byte	0x1
 3264 021e 03       		.uleb128 0x3
 3265 021f 0E       		.uleb128 0xe
 3266 0220 3A       		.uleb128 0x3a
 3267 0221 0B       		.uleb128 0xb
 3268 0222 3B       		.uleb128 0x3b
 3269 0223 0B       		.uleb128 0xb
 3270 0224 27       		.uleb128 0x27
 3271 0225 19       		.uleb128 0x19
 3272 0226 49       		.uleb128 0x49
 3273 0227 13       		.uleb128 0x13
 3274 0228 11       		.uleb128 0x11
 3275 0229 01       		.uleb128 0x1
 3276 022a 12       		.uleb128 0x12
 3277 022b 06       		.uleb128 0x6
 3278 022c 40       		.uleb128 0x40
 3279 022d 18       		.uleb128 0x18
 3280 022e 9642     		.uleb128 0x2116
 3281 0230 19       		.uleb128 0x19
 3282 0231 01       		.uleb128 0x1
 3283 0232 13       		.uleb128 0x13
 3284 0233 00       		.byte	0
 3285 0234 00       		.byte	0
 3286 0235 2B       		.uleb128 0x2b
 3287 0236 05       		.uleb128 0x5
ARM GAS  /tmp/ccbmFvQZ.s 			page 59


 3288 0237 00       		.byte	0
 3289 0238 03       		.uleb128 0x3
 3290 0239 08       		.uleb128 0x8
 3291 023a 3A       		.uleb128 0x3a
 3292 023b 0B       		.uleb128 0xb
 3293 023c 3B       		.uleb128 0x3b
 3294 023d 0B       		.uleb128 0xb
 3295 023e 49       		.uleb128 0x49
 3296 023f 13       		.uleb128 0x13
 3297 0240 02       		.uleb128 0x2
 3298 0241 18       		.uleb128 0x18
 3299 0242 00       		.byte	0
 3300 0243 00       		.byte	0
 3301 0244 2C       		.uleb128 0x2c
 3302 0245 2E       		.uleb128 0x2e
 3303 0246 00       		.byte	0
 3304 0247 03       		.uleb128 0x3
 3305 0248 0E       		.uleb128 0xe
 3306 0249 3A       		.uleb128 0x3a
 3307 024a 0B       		.uleb128 0xb
 3308 024b 3B       		.uleb128 0x3b
 3309 024c 0B       		.uleb128 0xb
 3310 024d 27       		.uleb128 0x27
 3311 024e 19       		.uleb128 0x19
 3312 024f 49       		.uleb128 0x49
 3313 0250 13       		.uleb128 0x13
 3314 0251 11       		.uleb128 0x11
 3315 0252 01       		.uleb128 0x1
 3316 0253 12       		.uleb128 0x12
 3317 0254 06       		.uleb128 0x6
 3318 0255 40       		.uleb128 0x40
 3319 0256 18       		.uleb128 0x18
 3320 0257 9642     		.uleb128 0x2116
 3321 0259 19       		.uleb128 0x19
 3322 025a 00       		.byte	0
 3323 025b 00       		.byte	0
 3324 025c 2D       		.uleb128 0x2d
 3325 025d 2E       		.uleb128 0x2e
 3326 025e 00       		.byte	0
 3327 025f 03       		.uleb128 0x3
 3328 0260 0E       		.uleb128 0xe
 3329 0261 3A       		.uleb128 0x3a
 3330 0262 0B       		.uleb128 0xb
 3331 0263 3B       		.uleb128 0x3b
 3332 0264 0B       		.uleb128 0xb
 3333 0265 27       		.uleb128 0x27
 3334 0266 19       		.uleb128 0x19
 3335 0267 49       		.uleb128 0x49
 3336 0268 13       		.uleb128 0x13
 3337 0269 11       		.uleb128 0x11
 3338 026a 01       		.uleb128 0x1
 3339 026b 12       		.uleb128 0x12
 3340 026c 06       		.uleb128 0x6
 3341 026d 40       		.uleb128 0x40
 3342 026e 18       		.uleb128 0x18
 3343 026f 9742     		.uleb128 0x2117
 3344 0271 19       		.uleb128 0x19
ARM GAS  /tmp/ccbmFvQZ.s 			page 60


 3345 0272 00       		.byte	0
 3346 0273 00       		.byte	0
 3347 0274 00       		.byte	0
 3348              		.section	.debug_aranges,"",%progbits
 3349 0000 64000000 		.4byte	0x64
 3350 0004 0200     		.2byte	0x2
 3351 0006 00000000 		.4byte	.Ldebug_info0
 3352 000a 04       		.byte	0x4
 3353 000b 00       		.byte	0
 3354 000c 0000     		.2byte	0
 3355 000e 0000     		.2byte	0
 3356 0010 00000000 		.4byte	.LFB178
 3357 0014 0C000000 		.4byte	.LFE178-.LFB178
 3358 0018 00000000 		.4byte	.LFB179
 3359 001c 0E000000 		.4byte	.LFE179-.LFB179
 3360 0020 00000000 		.4byte	.LFB231
 3361 0024 18000000 		.4byte	.LFE231-.LFB231
 3362 0028 00000000 		.4byte	.LFB232
 3363 002c 1C000000 		.4byte	.LFE232-.LFB232
 3364 0030 00000000 		.4byte	.LFB233
 3365 0034 40010000 		.4byte	.LFE233-.LFB233
 3366 0038 00000000 		.4byte	.LFB234
 3367 003c 18000000 		.4byte	.LFE234-.LFB234
 3368 0040 00000000 		.4byte	.LFB235
 3369 0044 70010000 		.4byte	.LFE235-.LFB235
 3370 0048 00000000 		.4byte	.LFB236
 3371 004c 4C000000 		.4byte	.LFE236-.LFB236
 3372 0050 00000000 		.4byte	.LFB237
 3373 0054 1C000000 		.4byte	.LFE237-.LFB237
 3374 0058 00000000 		.4byte	.LFB238
 3375 005c CC010000 		.4byte	.LFE238-.LFB238
 3376 0060 00000000 		.4byte	0
 3377 0064 00000000 		.4byte	0
 3378              		.section	.debug_ranges,"",%progbits
 3379              	.Ldebug_ranges0:
 3380 0000 00000000 		.4byte	.LFB178
 3381 0004 0C000000 		.4byte	.LFE178
 3382 0008 00000000 		.4byte	.LFB179
 3383 000c 0E000000 		.4byte	.LFE179
 3384 0010 00000000 		.4byte	.LFB231
 3385 0014 18000000 		.4byte	.LFE231
 3386 0018 00000000 		.4byte	.LFB232
 3387 001c 1C000000 		.4byte	.LFE232
 3388 0020 00000000 		.4byte	.LFB233
 3389 0024 40010000 		.4byte	.LFE233
 3390 0028 00000000 		.4byte	.LFB234
 3391 002c 18000000 		.4byte	.LFE234
 3392 0030 00000000 		.4byte	.LFB235
 3393 0034 70010000 		.4byte	.LFE235
 3394 0038 00000000 		.4byte	.LFB236
 3395 003c 4C000000 		.4byte	.LFE236
 3396 0040 00000000 		.4byte	.LFB237
 3397 0044 1C000000 		.4byte	.LFE237
 3398 0048 00000000 		.4byte	.LFB238
 3399 004c CC010000 		.4byte	.LFE238
 3400 0050 00000000 		.4byte	0
 3401 0054 00000000 		.4byte	0
ARM GAS  /tmp/ccbmFvQZ.s 			page 61


 3402              		.section	.debug_line,"",%progbits
 3403              	.Ldebug_line0:
 3404 0000 E5030000 		.section	.debug_str,"MS",%progbits,1
 3404      02005D02 
 3404      00000201 
 3404      FB0E0D00 
 3404      01010101 
 3405              	.LASF53:
 3406 0000 74687265 		.ascii	"threads_list_t\000"
 3406      6164735F 
 3406      6C697374 
 3406      5F7400
 3407              	.LASF58:
 3408 000f 72656164 		.ascii	"ready_list_t\000"
 3408      795F6C69 
 3408      73745F74 
 3408      00
 3409              	.LASF159:
 3410 001c 6D705F70 		.ascii	"mp_provider\000"
 3410      726F7669 
 3410      64657200 
 3411              	.LASF4:
 3412 0028 73697A65 		.ascii	"size_t\000"
 3412      5F7400
 3413              	.LASF151:
 3414 002f 6E657874 		.ascii	"next\000"
 3414      00
 3415              	.LASF108:
 3416 0034 7264796D 		.ascii	"rdymsg\000"
 3416      736700
 3417              	.LASF20:
 3418 003b 75696E74 		.ascii	"uint64_t\000"
 3418      36345F74 
 3418      00
 3419              	.LASF87:
 3420 0044 6B65726E 		.ascii	"kernel_stats\000"
 3420      656C5F73 
 3420      74617473 
 3420      00
 3421              	.LASF5:
 3422 0051 5F5F7569 		.ascii	"__uint8_t\000"
 3422      6E74385F 
 3422      7400
 3423              	.LASF95:
 3424 005b 706F7274 		.ascii	"port_intctx\000"
 3424      5F696E74 
 3424      63747800 
 3425              	.LASF57:
 3426 0067 63685F74 		.ascii	"ch_threads_queue\000"
 3426      68726561 
 3426      64735F71 
 3426      75657565 
 3426      00
 3427              	.LASF77:
 3428 0078 73797374 		.ascii	"system_debug_t\000"
 3428      656D5F64 
 3428      65627567 
ARM GAS  /tmp/ccbmFvQZ.s 			page 62


 3428      5F7400
 3429              	.LASF99:
 3430 0087 776F7273 		.ascii	"worst\000"
 3430      7400
 3431              	.LASF102:
 3432 008d 74696D65 		.ascii	"time_measurement_t\000"
 3432      5F6D6561 
 3432      73757265 
 3432      6D656E74 
 3432      5F7400
 3433              	.LASF15:
 3434 00a0 6C6F6E67 		.ascii	"long long unsigned int\000"
 3434      206C6F6E 
 3434      6720756E 
 3434      7369676E 
 3434      65642069 
 3435              	.LASF129:
 3436 00b7 63685F74 		.ascii	"ch_threadsize\000"
 3436      68726561 
 3436      6473697A 
 3436      6500
 3437              	.LASF109:
 3438 00c5 65786974 		.ascii	"exitcode\000"
 3438      636F6465 
 3438      00
 3439              	.LASF149:
 3440 00ce 685F6672 		.ascii	"h_free\000"
 3440      656500
 3441              	.LASF171:
 3442 00d5 74657374 		.ascii	"test\000"
 3442      00
 3443              	.LASF74:
 3444 00da 76697274 		.ascii	"virtual_timers_list_t\000"
 3444      75616C5F 
 3444      74696D65 
 3444      72735F6C 
 3444      6973745F 
 3445              	.LASF90:
 3446 00f0 49544D5F 		.ascii	"ITM_RxBuffer\000"
 3446      52784275 
 3446      66666572 
 3446      00
 3447              	.LASF153:
 3448 00fd 616C6967 		.ascii	"align\000"
 3448      6E00
 3449              	.LASF22:
 3450 0103 72747469 		.ascii	"rttime_t\000"
 3450      6D655F74 
 3450      00
 3451              	.LASF35:
 3452 010c 705F7072 		.ascii	"p_prio\000"
 3452      696F00
 3453              	.LASF136:
 3454 0113 63665F6F 		.ascii	"cf_off_state\000"
 3454      66665F73 
 3454      74617465 
 3454      00
ARM GAS  /tmp/ccbmFvQZ.s 			page 63


 3455              	.LASF183:
 3456 0120 64796E32 		.ascii	"dyn2_setup\000"
 3456      5F736574 
 3456      757000
 3457              	.LASF25:
 3458 012b 74726566 		.ascii	"trefs_t\000"
 3458      735F7400 
 3459              	.LASF1:
 3460 0133 6C6F6E67 		.ascii	"long long int\000"
 3460      206C6F6E 
 3460      6720696E 
 3460      7400
 3461              	.LASF3:
 3462 0141 7369676E 		.ascii	"signed char\000"
 3462      65642063 
 3462      68617200 
 3463              	.LASF150:
 3464 014d 685F6D74 		.ascii	"h_mtx\000"
 3464      7800
 3465              	.LASF135:
 3466 0153 63665F6F 		.ascii	"cf_off_stklimit\000"
 3466      66665F73 
 3466      746B6C69 
 3466      6D697400 
 3467              	.LASF137:
 3468 0163 63665F6F 		.ascii	"cf_off_flags\000"
 3468      66665F66 
 3468      6C616773 
 3468      00
 3469              	.LASF50:
 3470 0170 705F6D70 		.ascii	"p_mpool\000"
 3470      6F6F6C00 
 3471              	.LASF119:
 3472 0178 6D5F7175 		.ascii	"m_queue\000"
 3472      65756500 
 3473              	.LASF85:
 3474 0180 76746C69 		.ascii	"vtlist\000"
 3474      737400
 3475              	.LASF111:
 3476 0187 77747472 		.ascii	"wttrp\000"
 3476      7000
 3477              	.LASF83:
 3478 018d 63685F73 		.ascii	"ch_system\000"
 3478      79737465 
 3478      6D00
 3479              	.LASF11:
 3480 0197 6C6F6E67 		.ascii	"long int\000"
 3480      20696E74 
 3480      00
 3481              	.LASF24:
 3482 01a0 74737461 		.ascii	"tstate_t\000"
 3482      74655F74 
 3482      00
 3483              	.LASF189:
 3484 01a9 474E5520 		.ascii	"GNU C11 6.3.1 20170620 (release) [ARM/embedded-6-br"
 3484      43313120 
 3484      362E332E 
ARM GAS  /tmp/ccbmFvQZ.s 			page 64


 3484      31203230 
 3484      31373036 
 3485 01dc 616E6368 		.ascii	"anch revision 249437] -mcpu=cortex-m4 -mfloat-abi=h"
 3485      20726576 
 3485      6973696F 
 3485      6E203234 
 3485      39343337 
 3486 020f 61726420 		.ascii	"ard -mfpu=fpv4-sp-d16 -mno-thumb-interwork -mthumb "
 3486      2D6D6670 
 3486      753D6670 
 3486      76342D73 
 3486      702D6431 
 3487 0242 2D676764 		.ascii	"-ggdb -O0 -fomit-frame-pointer -falign-functions=16"
 3487      62202D4F 
 3487      30202D66 
 3487      6F6D6974 
 3487      2D667261 
 3488 0275 202D6666 		.ascii	" -ffunction-sections -fdata-sections -fno-common -f"
 3488      756E6374 
 3488      696F6E2D 
 3488      73656374 
 3488      696F6E73 
 3489 02a8 73696E67 		.ascii	"single-precision-constant\000"
 3489      6C652D70 
 3489      72656369 
 3489      73696F6E 
 3489      2D636F6E 
 3490              	.LASF146:
 3491 02c2 6D656D6F 		.ascii	"memory_heap_t\000"
 3491      72795F68 
 3491      6561705F 
 3491      7400
 3492              	.LASF141:
 3493 02d0 63686465 		.ascii	"chdebug_t\000"
 3493      6275675F 
 3493      7400
 3494              	.LASF168:
 3495 02da 62756666 		.ascii	"buffer\000"
 3495      657200
 3496              	.LASF37:
 3497 02e1 705F6E65 		.ascii	"p_newer\000"
 3497      77657200 
 3498              	.LASF116:
 3499 02e9 735F7175 		.ascii	"s_queue\000"
 3499      65756500 
 3500              	.LASF63:
 3501 02f1 725F6E65 		.ascii	"r_newer\000"
 3501      77657200 
 3502              	.LASF92:
 3503 02f9 72656761 		.ascii	"regarm_t\000"
 3503      726D5F74 
 3503      00
 3504              	.LASF70:
 3505 0302 76745F70 		.ascii	"vt_prev\000"
 3505      72657600 
 3506              	.LASF78:
 3507 030a 63685F73 		.ascii	"ch_system_debug\000"
ARM GAS  /tmp/ccbmFvQZ.s 			page 65


 3507      79737465 
 3507      6D5F6465 
 3507      62756700 
 3508              	.LASF143:
 3509 031a 6D757465 		.ascii	"mutex_t\000"
 3509      785F7400 
 3510              	.LASF81:
 3511 0322 6C6F636B 		.ascii	"lock_cnt\000"
 3511      5F636E74 
 3511      00
 3512              	.LASF88:
 3513 032b 69646C65 		.ascii	"idle_thread_wa\000"
 3513      5F746872 
 3513      6561645F 
 3513      776100
 3514              	.LASF29:
 3515 033a 636E745F 		.ascii	"cnt_t\000"
 3515      7400
 3516              	.LASF40:
 3517 0340 705F7374 		.ascii	"p_stklimit\000"
 3517      6B6C696D 
 3517      697400
 3518              	.LASF0:
 3519 034b 756E7369 		.ascii	"unsigned int\000"
 3519      676E6564 
 3519      20696E74 
 3519      00
 3520              	.LASF69:
 3521 0358 76745F6E 		.ascii	"vt_next\000"
 3521      65787400 
 3522              	.LASF190:
 3523 0360 2E2E2F43 		.ascii	"../ChibiOS/test/rt/testdyn.c\000"
 3523      68696269 
 3523      4F532F74 
 3523      6573742F 
 3523      72742F74 
 3524              	.LASF91:
 3525 037d 53797374 		.ascii	"SystemCoreClock\000"
 3525      656D436F 
 3525      7265436C 
 3525      6F636B00 
 3526              	.LASF191:
 3527 038d 2F686F6D 		.ascii	"/home/matt/Documents/fibre-link/header-detection/pc"
 3527      652F6D61 
 3527      74742F44 
 3527      6F63756D 
 3527      656E7473 
 3528 03c0 622F7374 		.ascii	"b/stm32/firmware\000"
 3528      6D33322F 
 3528      6669726D 
 3528      77617265 
 3528      00
 3529              	.LASF112:
 3530 03d1 77747365 		.ascii	"wtsemp\000"
 3530      6D7000
 3531              	.LASF181:
 3532 03d8 64796E32 		.ascii	"dyn2_execute\000"
ARM GAS  /tmp/ccbmFvQZ.s 			page 66


 3532      5F657865 
 3532      63757465 
 3532      00
 3533              	.LASF71:
 3534 03e5 76745F64 		.ascii	"vt_delta\000"
 3534      656C7461 
 3534      00
 3535              	.LASF45:
 3536 03ee 705F6D73 		.ascii	"p_msgqueue\000"
 3536      67717565 
 3536      756500
 3537              	.LASF142:
 3538 03f9 63685F64 		.ascii	"ch_debug\000"
 3538      65627567 
 3538      00
 3539              	.LASF160:
 3540 0402 6D656D6F 		.ascii	"memory_pool_t\000"
 3540      72795F70 
 3540      6F6F6C5F 
 3540      7400
 3541              	.LASF103:
 3542 0410 6E5F6972 		.ascii	"n_irq\000"
 3542      7100
 3543              	.LASF117:
 3544 0416 735F636E 		.ascii	"s_cnt\000"
 3544      7400
 3545              	.LASF162:
 3546 041c 6E616D65 		.ascii	"name\000"
 3546      00
 3547              	.LASF9:
 3548 0421 73686F72 		.ascii	"short unsigned int\000"
 3548      7420756E 
 3548      7369676E 
 3548      65642069 
 3548      6E7400
 3549              	.LASF107:
 3550 0434 6B65726E 		.ascii	"kernel_stats_t\000"
 3550      656C5F73 
 3550      74617473 
 3550      5F7400
 3551              	.LASF54:
 3552 0443 63685F74 		.ascii	"ch_thread\000"
 3552      68726561 
 3552      6400
 3553              	.LASF86:
 3554 044d 6D61696E 		.ascii	"mainthread\000"
 3554      74687265 
 3554      616400
 3555              	.LASF27:
 3556 0458 6D73675F 		.ascii	"msg_t\000"
 3556      7400
 3557              	.LASF100:
 3558 045e 6C617374 		.ascii	"last\000"
 3558      00
 3559              	.LASF30:
 3560 0463 75636E74 		.ascii	"ucnt_t\000"
 3560      5F7400
ARM GAS  /tmp/ccbmFvQZ.s 			page 67


 3561              	.LASF82:
 3562 046a 63685F73 		.ascii	"ch_system_t\000"
 3562      79737465 
 3562      6D5F7400 
 3563              	.LASF131:
 3564 0476 63665F6F 		.ascii	"cf_off_ctx\000"
 3564      66665F63 
 3564      747800
 3565              	.LASF140:
 3566 0481 63665F6F 		.ascii	"cf_off_time\000"
 3566      66665F74 
 3566      696D6500 
 3567              	.LASF17:
 3568 048d 75696E74 		.ascii	"uint16_t\000"
 3568      31365F74 
 3568      00
 3569              	.LASF106:
 3570 0496 6D5F6372 		.ascii	"m_crit_isr\000"
 3570      69745F69 
 3570      737200
 3571              	.LASF59:
 3572 04a1 63685F72 		.ascii	"ch_ready_list\000"
 3572      65616479 
 3572      5F6C6973 
 3572      7400
 3573              	.LASF28:
 3574 04af 6576656E 		.ascii	"eventmask_t\000"
 3574      746D6173 
 3574      6B5F7400 
 3575              	.LASF10:
 3576 04bb 5F5F696E 		.ascii	"__int32_t\000"
 3576      7433325F 
 3576      7400
 3577              	.LASF177:
 3578 04c5 70617474 		.ascii	"patterndyn\000"
 3578      65726E64 
 3578      796E00
 3579              	.LASF93:
 3580 04d0 73746B61 		.ascii	"stkalign_t\000"
 3580      6C69676E 
 3580      5F7400
 3581              	.LASF124:
 3582 04db 63685F7A 		.ascii	"ch_zero\000"
 3582      65726F00 
 3583              	.LASF138:
 3584 04e3 63665F6F 		.ascii	"cf_off_refs\000"
 3584      66665F72 
 3584      65667300 
 3585              	.LASF61:
 3586 04ef 725F7072 		.ascii	"r_prio\000"
 3586      696F00
 3587              	.LASF44:
 3588 04f6 705F7761 		.ascii	"p_waiting\000"
 3588      6974696E 
 3588      6700
 3589              	.LASF89:
 3590 0500 73697A65 		.ascii	"sizetype\000"
ARM GAS  /tmp/ccbmFvQZ.s 			page 68


 3590      74797065 
 3590      00
 3591              	.LASF75:
 3592 0509 63685F76 		.ascii	"ch_virtual_timers_list\000"
 3592      69727475 
 3592      616C5F74 
 3592      696D6572 
 3592      735F6C69 
 3593              	.LASF175:
 3594 0520 74657374 		.ascii	"testdyn2\000"
 3594      64796E32 
 3594      00
 3595              	.LASF2:
 3596 0529 6C6F6E67 		.ascii	"long double\000"
 3596      20646F75 
 3596      626C6500 
 3597              	.LASF128:
 3598 0535 63685F74 		.ascii	"ch_timesize\000"
 3598      696D6573 
 3598      697A6500 
 3599              	.LASF97:
 3600 0541 746D5F63 		.ascii	"tm_calibration_t\000"
 3600      616C6962 
 3600      72617469 
 3600      6F6E5F74 
 3600      00
 3601              	.LASF134:
 3602 0552 63665F6F 		.ascii	"cf_off_name\000"
 3602      66665F6E 
 3602      616D6500 
 3603              	.LASF174:
 3604 055e 74657374 		.ascii	"testdyn1\000"
 3604      64796E31 
 3604      00
 3605              	.LASF180:
 3606 0567 64796E33 		.ascii	"dyn3_execute\000"
 3606      5F657865 
 3606      63757465 
 3606      00
 3607              	.LASF38:
 3608 0574 705F6F6C 		.ascii	"p_older\000"
 3608      64657200 
 3609              	.LASF176:
 3610 057c 74657374 		.ascii	"testdyn3\000"
 3610      64796E33 
 3610      00
 3611              	.LASF62:
 3612 0585 725F6374 		.ascii	"r_ctx\000"
 3612      7800
 3613              	.LASF36:
 3614 058b 705F6374 		.ascii	"p_ctx\000"
 3614      7800
 3615              	.LASF158:
 3616 0591 6D705F6F 		.ascii	"mp_object_size\000"
 3616      626A6563 
 3616      745F7369 
 3616      7A6500
ARM GAS  /tmp/ccbmFvQZ.s 			page 69


 3617              	.LASF187:
 3618 05a0 63685468 		.ascii	"chThdGetPriorityX\000"
 3618      64476574 
 3618      5072696F 
 3618      72697479 
 3618      5800
 3619              	.LASF163:
 3620 05b2 73657475 		.ascii	"setup\000"
 3620      7000
 3621              	.LASF178:
 3622 05b8 7072696F 		.ascii	"prio\000"
 3622      00
 3623              	.LASF64:
 3624 05bd 725F6F6C 		.ascii	"r_older\000"
 3624      64657200 
 3625              	.LASF14:
 3626 05c5 5F5F7569 		.ascii	"__uint64_t\000"
 3626      6E743634 
 3626      5F7400
 3627              	.LASF101:
 3628 05d0 63756D75 		.ascii	"cumulative\000"
 3628      6C617469 
 3628      766500
 3629              	.LASF127:
 3630 05db 63685F70 		.ascii	"ch_ptrsize\000"
 3630      74727369 
 3630      7A6500
 3631              	.LASF67:
 3632 05e6 76697274 		.ascii	"virtual_timer_t\000"
 3632      75616C5F 
 3632      74696D65 
 3632      725F7400 
 3633              	.LASF34:
 3634 05f6 705F7072 		.ascii	"p_prev\000"
 3634      657600
 3635              	.LASF165:
 3636 05fd 65786563 		.ascii	"execute\000"
 3636      75746500 
 3637              	.LASF26:
 3638 0605 74707269 		.ascii	"tprio_t\000"
 3638      6F5F7400 
 3639              	.LASF186:
 3640 060d 74687265 		.ascii	"thread\000"
 3640      616400
 3641              	.LASF39:
 3642 0614 705F6E61 		.ascii	"p_name\000"
 3642      6D6500
 3643              	.LASF104:
 3644 061b 6E5F6374 		.ascii	"n_ctxswc\000"
 3644      78737763 
 3644      00
 3645              	.LASF144:
 3646 0624 5F426F6F 		.ascii	"_Bool\000"
 3646      6C00
 3647              	.LASF18:
 3648 062a 696E7433 		.ascii	"int32_t\000"
 3648      325F7400 
ARM GAS  /tmp/ccbmFvQZ.s 			page 70


 3649              	.LASF6:
 3650 0632 756E7369 		.ascii	"unsigned char\000"
 3650      676E6564 
 3650      20636861 
 3650      7200
 3651              	.LASF166:
 3652 0640 68656170 		.ascii	"heap_header\000"
 3652      5F686561 
 3652      64657200 
 3653              	.LASF48:
 3654 064c 705F6D74 		.ascii	"p_mtxlist\000"
 3654      786C6973 
 3654      7400
 3655              	.LASF7:
 3656 0656 73686F72 		.ascii	"short int\000"
 3656      7420696E 
 3656      7400
 3657              	.LASF41:
 3658 0660 705F7374 		.ascii	"p_state\000"
 3658      61746500 
 3659              	.LASF170:
 3660 0668 74687265 		.ascii	"threads\000"
 3660      61647300 
 3661              	.LASF133:
 3662 0670 63665F6F 		.ascii	"cf_off_older\000"
 3662      66665F6F 
 3662      6C646572 
 3662      00
 3663              	.LASF172:
 3664 067d 74657374 		.ascii	"test_timer_done\000"
 3664      5F74696D 
 3664      65725F64 
 3664      6F6E6500 
 3665              	.LASF114:
 3666 068d 65776D61 		.ascii	"ewmask\000"
 3666      736B00
 3667              	.LASF33:
 3668 0694 705F6E65 		.ascii	"p_next\000"
 3668      787400
 3669              	.LASF23:
 3670 069b 746D6F64 		.ascii	"tmode_t\000"
 3670      655F7400 
 3671              	.LASF139:
 3672 06a3 63665F6F 		.ascii	"cf_off_preempt\000"
 3672      66665F70 
 3672      7265656D 
 3672      707400
 3673              	.LASF42:
 3674 06b2 705F666C 		.ascii	"p_flags\000"
 3674      61677300 
 3675              	.LASF51:
 3676 06ba 705F7374 		.ascii	"p_stats\000"
 3676      61747300 
 3677              	.LASF56:
 3678 06c2 74687265 		.ascii	"threads_queue_t\000"
 3678      6164735F 
 3678      71756575 
ARM GAS  /tmp/ccbmFvQZ.s 			page 71


 3678      655F7400 
 3679              	.LASF68:
 3680 06d2 63685F76 		.ascii	"ch_virtual_timer\000"
 3680      69727475 
 3680      616C5F74 
 3680      696D6572 
 3680      00
 3681              	.LASF132:
 3682 06e3 63665F6F 		.ascii	"cf_off_newer\000"
 3682      66665F6E 
 3682      65776572 
 3682      00
 3683              	.LASF161:
 3684 06f0 74657374 		.ascii	"testcase\000"
 3684      63617365 
 3684      00
 3685              	.LASF115:
 3686 06f9 63685F73 		.ascii	"ch_semaphore\000"
 3686      656D6170 
 3686      686F7265 
 3686      00
 3687              	.LASF47:
 3688 0706 705F6570 		.ascii	"p_epending\000"
 3688      656E6469 
 3688      6E6700
 3689              	.LASF19:
 3690 0711 75696E74 		.ascii	"uint32_t\000"
 3690      33325F74 
 3690      00
 3691              	.LASF130:
 3692 071a 63665F6F 		.ascii	"cf_off_prio\000"
 3692      66665F70 
 3692      72696F00 
 3693              	.LASF60:
 3694 0726 725F7175 		.ascii	"r_queue\000"
 3694      65756500 
 3695              	.LASF55:
 3696 072e 63685F74 		.ascii	"ch_threads_list\000"
 3696      68726561 
 3696      64735F6C 
 3696      69737400 
 3697              	.LASF125:
 3698 073e 63685F73 		.ascii	"ch_size\000"
 3698      697A6500 
 3699              	.LASF152:
 3700 0746 68656170 		.ascii	"heap\000"
 3700      00
 3701              	.LASF185:
 3702 074b 64796E31 		.ascii	"dyn1_setup\000"
 3702      5F736574 
 3702      757000
 3703              	.LASF13:
 3704 0756 6C6F6E67 		.ascii	"long unsigned int\000"
 3704      20756E73 
 3704      69676E65 
 3704      6420696E 
 3704      7400
ARM GAS  /tmp/ccbmFvQZ.s 			page 72


 3705              	.LASF122:
 3706 0768 63686172 		.ascii	"char\000"
 3706      00
 3707              	.LASF113:
 3708 076d 77746D74 		.ascii	"wtmtxp\000"
 3708      787000
 3709              	.LASF8:
 3710 0774 5F5F7569 		.ascii	"__uint16_t\000"
 3710      6E743136 
 3710      5F7400
 3711              	.LASF182:
 3712 077f 64796E33 		.ascii	"dyn3_setup\000"
 3712      5F736574 
 3712      757000
 3713              	.LASF32:
 3714 078a 74687265 		.ascii	"thread_t\000"
 3714      61645F74 
 3714      00
 3715              	.LASF98:
 3716 0793 62657374 		.ascii	"best\000"
 3716      00
 3717              	.LASF121:
 3718 0798 6D5F6E65 		.ascii	"m_next\000"
 3718      787400
 3719              	.LASF31:
 3720 079f 73797374 		.ascii	"systime_t\000"
 3720      696D655F 
 3720      7400
 3721              	.LASF49:
 3722 07a9 705F7265 		.ascii	"p_realprio\000"
 3722      616C7072 
 3722      696F00
 3723              	.LASF66:
 3724 07b4 76746675 		.ascii	"vtfunc_t\000"
 3724      6E635F74 
 3724      00
 3725              	.LASF12:
 3726 07bd 5F5F7569 		.ascii	"__uint32_t\000"
 3726      6E743332 
 3726      5F7400
 3727              	.LASF79:
 3728 07c8 70616E69 		.ascii	"panic_msg\000"
 3728      635F6D73 
 3728      6700
 3729              	.LASF169:
 3730 07d2 74657374 		.ascii	"test_global_fail\000"
 3730      5F676C6F 
 3730      62616C5F 
 3730      6661696C 
 3730      00
 3731              	.LASF96:
 3732 07e3 6F666673 		.ascii	"offset\000"
 3732      657400
 3733              	.LASF118:
 3734 07ea 63685F6D 		.ascii	"ch_mutex\000"
 3734      75746578 
 3734      00
ARM GAS  /tmp/ccbmFvQZ.s 			page 73


 3735              	.LASF157:
 3736 07f3 6D705F6E 		.ascii	"mp_next\000"
 3736      65787400 
 3737              	.LASF94:
 3738 07fb 636F6E74 		.ascii	"context\000"
 3738      65787400 
 3739              	.LASF46:
 3740 0803 705F6D73 		.ascii	"p_msg\000"
 3740      6700
 3741              	.LASF21:
 3742 0809 7274636E 		.ascii	"rtcnt_t\000"
 3742      745F7400 
 3743              	.LASF145:
 3744 0811 6D656D67 		.ascii	"memgetfunc_t\000"
 3744      65746675 
 3744      6E635F74 
 3744      00
 3745              	.LASF73:
 3746 081e 76745F70 		.ascii	"vt_par\000"
 3746      617200
 3747              	.LASF179:
 3748 0825 666F756E 		.ascii	"found\000"
 3748      6400
 3749              	.LASF167:
 3750 082b 74657374 		.ascii	"test_buffers\000"
 3750      5F627566 
 3750      66657273 
 3750      00
 3751              	.LASF155:
 3752 0838 706F6F6C 		.ascii	"pool_header\000"
 3752      5F686561 
 3752      64657200 
 3753              	.LASF43:
 3754 0844 705F7265 		.ascii	"p_refs\000"
 3754      667300
 3755              	.LASF80:
 3756 084b 6973725F 		.ascii	"isr_cnt\000"
 3756      636E7400 
 3757              	.LASF192:
 3758 0853 72656766 		.ascii	"regfind\000"
 3758      696E6400 
 3759              	.LASF84:
 3760 085b 726C6973 		.ascii	"rlist\000"
 3760      7400
 3761              	.LASF188:
 3762 0861 63685468 		.ascii	"chThdGetSelfX\000"
 3762      64476574 
 3762      53656C66 
 3762      5800
 3763              	.LASF16:
 3764 086f 75696E74 		.ascii	"uint8_t\000"
 3764      385F7400 
 3765              	.LASF148:
 3766 0877 685F7072 		.ascii	"h_provider\000"
 3766      6F766964 
 3766      657200
 3767              	.LASF164:
ARM GAS  /tmp/ccbmFvQZ.s 			page 74


 3768 0882 74656172 		.ascii	"teardown\000"
 3768      646F776E 
 3768      00
 3769              	.LASF52:
 3770 088b 74687265 		.ascii	"thread_reference_t\000"
 3770      61645F72 
 3770      65666572 
 3770      656E6365 
 3770      5F7400
 3771              	.LASF110:
 3772 089e 77746F62 		.ascii	"wtobjp\000"
 3772      6A7000
 3773              	.LASF156:
 3774 08a5 70685F6E 		.ascii	"ph_next\000"
 3774      65787400 
 3775              	.LASF184:
 3776 08ad 64796E31 		.ascii	"dyn1_execute\000"
 3776      5F657865 
 3776      63757465 
 3776      00
 3777              	.LASF154:
 3778 08ba 73697A65 		.ascii	"size\000"
 3778      00
 3779              	.LASF76:
 3780 08bf 76745F73 		.ascii	"vt_systime\000"
 3780      79737469 
 3780      6D6500
 3781              	.LASF65:
 3782 08ca 725F6375 		.ascii	"r_current\000"
 3782      7272656E 
 3782      7400
 3783              	.LASF126:
 3784 08d4 63685F76 		.ascii	"ch_version\000"
 3784      65727369 
 3784      6F6E00
 3785              	.LASF105:
 3786 08df 6D5F6372 		.ascii	"m_crit_thd\000"
 3786      69745F74 
 3786      686400
 3787              	.LASF120:
 3788 08ea 6D5F6F77 		.ascii	"m_owner\000"
 3788      6E657200 
 3789              	.LASF123:
 3790 08f2 63685F69 		.ascii	"ch_identifier\000"
 3790      64656E74 
 3790      69666965 
 3790      7200
 3791              	.LASF72:
 3792 0900 76745F66 		.ascii	"vt_func\000"
 3792      756E6300 
 3793              	.LASF173:
 3794 0908 68656170 		.ascii	"heap1\000"
 3794      3100
 3795              	.LASF147:
 3796 090e 6D656D6F 		.ascii	"memory_heap\000"
 3796      72795F68 
 3796      65617000 
ARM GAS  /tmp/ccbmFvQZ.s 			page 75


 3797              		.ident	"GCC: (GNU Tools for ARM Embedded Processors 6-2017-q2-update) 6.3.1 20170620 (release) [AR
ARM GAS  /tmp/ccbmFvQZ.s 			page 76


DEFINED SYMBOLS
                            *ABS*:0000000000000000 testdyn.c
     /tmp/ccbmFvQZ.s:18     .text.chThdGetSelfX:0000000000000000 $t
     /tmp/ccbmFvQZ.s:25     .text.chThdGetSelfX:0000000000000000 chThdGetSelfX
     /tmp/ccbmFvQZ.s:42     .text.chThdGetSelfX:0000000000000008 $d
     /tmp/ccbmFvQZ.s:47     .text.chThdGetPriorityX:0000000000000000 $t
     /tmp/ccbmFvQZ.s:54     .text.chThdGetPriorityX:0000000000000000 chThdGetPriorityX
     /tmp/ccbmFvQZ.s:75     .bss.heap1:0000000000000000 $d
     /tmp/ccbmFvQZ.s:78     .bss.heap1:0000000000000000 heap1
     /tmp/ccbmFvQZ.s:81     .bss.mp1:0000000000000000 $d
     /tmp/ccbmFvQZ.s:84     .bss.mp1:0000000000000000 mp1
     /tmp/ccbmFvQZ.s:87     .text.thread:0000000000000000 $t
     /tmp/ccbmFvQZ.s:94     .text.thread:0000000000000000 thread
     /tmp/ccbmFvQZ.s:122    .text.dyn1_setup:0000000000000000 $t
     /tmp/ccbmFvQZ.s:129    .text.dyn1_setup:0000000000000000 dyn1_setup
     /tmp/ccbmFvQZ.s:150    .text.dyn1_setup:0000000000000014 $d
     /tmp/ccbmFvQZ.s:156    .rodata:0000000000000000 $d
     /tmp/ccbmFvQZ.s:169    .text.dyn1_execute:0000000000000000 $t
     /tmp/ccbmFvQZ.s:176    .text.dyn1_execute:0000000000000000 dyn1_execute
     /tmp/ccbmFvQZ.s:346    .text.dyn1_execute:0000000000000124 $d
     /tmp/ccbmFvQZ.s:365    .rodata.testdyn1:0000000000000000 testdyn1
     /tmp/ccbmFvQZ.s:362    .rodata.testdyn1:0000000000000000 $d
     /tmp/ccbmFvQZ.s:371    .text.dyn2_setup:0000000000000000 $t
     /tmp/ccbmFvQZ.s:378    .text.dyn2_setup:0000000000000000 dyn2_setup
     /tmp/ccbmFvQZ.s:399    .text.dyn2_setup:0000000000000014 $d
     /tmp/ccbmFvQZ.s:414    .text.dyn2_execute:0000000000000000 $t
     /tmp/ccbmFvQZ.s:421    .text.dyn2_execute:0000000000000000 dyn2_execute
     /tmp/ccbmFvQZ.s:620    .text.dyn2_execute:0000000000000148 $d
     /tmp/ccbmFvQZ.s:642    .rodata.testdyn2:0000000000000000 testdyn2
     /tmp/ccbmFvQZ.s:639    .rodata.testdyn2:0000000000000000 $d
     /tmp/ccbmFvQZ.s:648    .text.regfind:0000000000000000 $t
     /tmp/ccbmFvQZ.s:655    .text.regfind:0000000000000000 regfind
     /tmp/ccbmFvQZ.s:709    .text.dyn3_setup:0000000000000000 $t
     /tmp/ccbmFvQZ.s:716    .text.dyn3_setup:0000000000000000 dyn3_setup
     /tmp/ccbmFvQZ.s:737    .text.dyn3_setup:0000000000000014 $d
     /tmp/ccbmFvQZ.s:743    .text.dyn3_execute:0000000000000000 $t
     /tmp/ccbmFvQZ.s:750    .text.dyn3_execute:0000000000000000 dyn3_execute
     /tmp/ccbmFvQZ.s:991    .text.dyn3_execute:00000000000001c0 $d
     /tmp/ccbmFvQZ.s:1006   .rodata.testdyn3:0000000000000000 testdyn3
     /tmp/ccbmFvQZ.s:1003   .rodata.testdyn3:0000000000000000 $d
     /tmp/ccbmFvQZ.s:1016   .rodata.patterndyn:0000000000000000 patterndyn
     /tmp/ccbmFvQZ.s:1013   .rodata.patterndyn:0000000000000000 $d
                     .debug_frame:0000000000000010 $d

UNDEFINED SYMBOLS
ch
test_emit_token
chHeapObjectInit
test
chHeapStatus
chThdCreateFromHeap
chHeapAlloc
chHeapFree
_test_assert
test_wait_threads
_test_assert_sequence
threads
ARM GAS  /tmp/ccbmFvQZ.s 			page 77


chPoolObjectInit
chPoolFree
chThdCreateFromMemoryPool
chPoolAlloc
wa
chRegFirstThread
chRegNextThread
chThdAddRef
chThdRelease
chThdSleep
