ARM GAS  /tmp/ccUSzzA9.s 			page 1


   1              		.cpu cortex-m4
   2              		.eabi_attribute 27, 1
   3              		.eabi_attribute 28, 1
   4              		.eabi_attribute 20, 1
   5              		.eabi_attribute 21, 1
   6              		.eabi_attribute 23, 3
   7              		.eabi_attribute 24, 1
   8              		.eabi_attribute 25, 1
   9              		.eabi_attribute 26, 1
  10              		.eabi_attribute 30, 6
  11              		.eabi_attribute 34, 1
  12              		.eabi_attribute 18, 4
  13              		.file	"testsem.c"
  14              		.text
  15              	.Ltext0:
  16              		.cfi_sections	.debug_frame
  17              		.section	.text.port_lock,"ax",%progbits
  18              		.align	1
  19              		.p2align 4,,15
  20              		.syntax unified
  21              		.thumb
  22              		.thumb_func
  23              		.fpu fpv4-sp-d16
  24              		.type	port_lock, %function
  25              	port_lock:
  26              	.LFB127:
  27              		.file 1 "../ChibiOS/os/rt/ports/ARMCMx/chcore_v7m.h"
  28              		.loc 1 456 0
  29              		.cfi_startproc
  30              		@ args = 0, pretend = 0, frame = 8
  31              		@ frame_needed = 0, uses_anonymous_args = 0
  32              		@ link register save eliminated.
  33 0000 82B0     		sub	sp, sp, #8
  34              		.cfi_def_cfa_offset 8
  35 0002 2023     		movs	r3, #32
  36 0004 0193     		str	r3, [sp, #4]
  37              	.LBB6:
  38              	.LBB7:
  39              		.file 2 "../ChibiOS/os/ext/CMSIS/include/core_cmFunc.h"
  40              		.loc 2 548 0
  41 0006 019B     		ldr	r3, [sp, #4]
  42              		.syntax unified
  43              	@ 548 "../ChibiOS/os/ext/CMSIS/include/core_cmFunc.h" 1
  44 0008 83F31188 		MSR basepri, r3
  45              	@ 0 "" 2
  46              		.thumb
  47              		.syntax unified
  48              	.LBE7:
  49              	.LBE6:
  50              		.loc 1 473 0
  51 000c 00BF     		nop
  52 000e 02B0     		add	sp, sp, #8
  53              		.cfi_def_cfa_offset 0
  54              		@ sp needed
  55 0010 7047     		bx	lr
  56              		.cfi_endproc
  57              	.LFE127:
ARM GAS  /tmp/ccUSzzA9.s 			page 2


  58              		.size	port_lock, .-port_lock
  59 0012 00BF     		.section	.text.port_unlock,"ax",%progbits
  60              		.align	1
  61              		.p2align 4,,15
  62              		.syntax unified
  63              		.thumb
  64              		.thumb_func
  65              		.fpu fpv4-sp-d16
  66              		.type	port_unlock, %function
  67              	port_unlock:
  68              	.LFB128:
  69              		.loc 1 480 0
  70              		.cfi_startproc
  71              		@ args = 0, pretend = 0, frame = 8
  72              		@ frame_needed = 0, uses_anonymous_args = 0
  73              		@ link register save eliminated.
  74 0000 82B0     		sub	sp, sp, #8
  75              		.cfi_def_cfa_offset 8
  76 0002 0023     		movs	r3, #0
  77 0004 0193     		str	r3, [sp, #4]
  78              	.LBB8:
  79              	.LBB9:
  80              		.loc 2 548 0
  81 0006 019B     		ldr	r3, [sp, #4]
  82              		.syntax unified
  83              	@ 548 "../ChibiOS/os/ext/CMSIS/include/core_cmFunc.h" 1
  84 0008 83F31188 		MSR basepri, r3
  85              	@ 0 "" 2
  86              		.thumb
  87              		.syntax unified
  88              	.LBE9:
  89              	.LBE8:
  90              		.loc 1 487 0
  91 000c 00BF     		nop
  92 000e 02B0     		add	sp, sp, #8
  93              		.cfi_def_cfa_offset 0
  94              		@ sp needed
  95 0010 7047     		bx	lr
  96              		.cfi_endproc
  97              	.LFE128:
  98              		.size	port_unlock, .-port_unlock
  99 0012 00BF     		.section	.text.queue_isempty,"ax",%progbits
 100              		.align	1
 101              		.p2align 4,,15
 102              		.syntax unified
 103              		.thumb
 104              		.thumb_func
 105              		.fpu fpv4-sp-d16
 106              		.type	queue_isempty, %function
 107              	queue_isempty:
 108              	.LFB140:
 109              		.file 3 "../ChibiOS/os/rt/include/chschd.h"
 110              		.loc 3 616 0
 111              		.cfi_startproc
 112              		@ args = 0, pretend = 0, frame = 8
 113              		@ frame_needed = 0, uses_anonymous_args = 0
 114              		@ link register save eliminated.
ARM GAS  /tmp/ccUSzzA9.s 			page 3


 115 0000 82B0     		sub	sp, sp, #8
 116              		.cfi_def_cfa_offset 8
 117 0002 0190     		str	r0, [sp, #4]
 118              		.loc 3 618 0
 119 0004 019B     		ldr	r3, [sp, #4]
 120 0006 1A68     		ldr	r2, [r3]
 121 0008 019B     		ldr	r3, [sp, #4]
 122 000a 9A42     		cmp	r2, r3
 123 000c 0CBF     		ite	eq
 124 000e 0123     		moveq	r3, #1
 125 0010 0023     		movne	r3, #0
 126 0012 DBB2     		uxtb	r3, r3
 127              		.loc 3 619 0
 128 0014 1846     		mov	r0, r3
 129 0016 02B0     		add	sp, sp, #8
 130              		.cfi_def_cfa_offset 0
 131              		@ sp needed
 132 0018 7047     		bx	lr
 133              		.cfi_endproc
 134              	.LFE140:
 135              		.size	queue_isempty, .-queue_isempty
 136 001a 00BF     		.section	.text.chSysLock,"ax",%progbits
 137              		.align	1
 138              		.p2align 4,,15
 139              		.syntax unified
 140              		.thumb
 141              		.thumb_func
 142              		.fpu fpv4-sp-d16
 143              		.type	chSysLock, %function
 144              	chSysLock:
 145              	.LFB156:
 146              		.file 4 "../ChibiOS/os/rt/include/chsys.h"
 147              		.loc 4 346 0
 148              		.cfi_startproc
 149              		@ args = 0, pretend = 0, frame = 0
 150              		@ frame_needed = 0, uses_anonymous_args = 0
 151 0000 08B5     		push	{r3, lr}
 152              		.cfi_def_cfa_offset 8
 153              		.cfi_offset 3, -8
 154              		.cfi_offset 14, -4
 155              		.loc 4 348 0
 156 0002 FFF7FEFF 		bl	port_lock
 157              		.loc 4 349 0
 158 0006 FFF7FEFF 		bl	_stats_start_measure_crit_thd
 159              		.loc 4 350 0
 160 000a FFF7FEFF 		bl	_dbg_check_lock
 161              		.loc 4 351 0
 162 000e 00BF     		nop
 163 0010 08BD     		pop	{r3, pc}
 164              		.cfi_endproc
 165              	.LFE156:
 166              		.size	chSysLock, .-chSysLock
 167 0012 00BF     		.section	.text.chSysUnlock,"ax",%progbits
 168              		.align	1
 169              		.p2align 4,,15
 170              		.syntax unified
 171              		.thumb
ARM GAS  /tmp/ccUSzzA9.s 			page 4


 172              		.thumb_func
 173              		.fpu fpv4-sp-d16
 174              		.type	chSysUnlock, %function
 175              	chSysUnlock:
 176              	.LFB157:
 177              		.loc 4 358 0
 178              		.cfi_startproc
 179              		@ args = 0, pretend = 0, frame = 0
 180              		@ frame_needed = 0, uses_anonymous_args = 0
 181 0000 08B5     		push	{r3, lr}
 182              		.cfi_def_cfa_offset 8
 183              		.cfi_offset 3, -8
 184              		.cfi_offset 14, -4
 185              		.loc 4 360 0
 186 0002 FFF7FEFF 		bl	_dbg_check_unlock
 187              		.loc 4 361 0
 188 0006 FFF7FEFF 		bl	_stats_stop_measure_crit_thd
 189              		.loc 4 367 0
 190 000a 0A4B     		ldr	r3, .L8
 191 000c 1B68     		ldr	r3, [r3]
 192 000e 094A     		ldr	r2, .L8
 193 0010 9342     		cmp	r3, r2
 194 0012 0AD0     		beq	.L7
 195              		.loc 4 367 0 is_stmt 0 discriminator 2
 196 0014 074B     		ldr	r3, .L8
 197 0016 9B69     		ldr	r3, [r3, #24]
 198 0018 9A68     		ldr	r2, [r3, #8]
 199 001a 064B     		ldr	r3, .L8
 200 001c 1B68     		ldr	r3, [r3]
 201 001e 9B68     		ldr	r3, [r3, #8]
 202 0020 9A42     		cmp	r2, r3
 203 0022 02D2     		bcs	.L7
 204              		.loc 4 367 0 discriminator 3
 205 0024 0448     		ldr	r0, .L8+4
 206 0026 FFF7FEFF 		bl	chSysHalt
 207              	.L7:
 208              		.loc 4 371 0 is_stmt 1
 209 002a FFF7FEFF 		bl	port_unlock
 210              		.loc 4 372 0
 211 002e 00BF     		nop
 212 0030 08BD     		pop	{r3, pc}
 213              	.L9:
 214 0032 00BF     		.align	2
 215              	.L8:
 216 0034 00000000 		.word	ch
 217 0038 00000000 		.word	__func__.7157
 218              		.cfi_endproc
 219              	.LFE157:
 220              		.size	chSysUnlock, .-chSysUnlock
 221              		.section	.text.chVTGetSystemTimeX,"ax",%progbits
 222              		.align	1
 223              		.p2align 4,,15
 224              		.syntax unified
 225              		.thumb
 226              		.thumb_func
 227              		.fpu fpv4-sp-d16
 228              		.type	chVTGetSystemTimeX, %function
ARM GAS  /tmp/ccUSzzA9.s 			page 5


 229              	chVTGetSystemTimeX:
 230              	.LFB164:
 231              		.file 5 "../ChibiOS/os/rt/include/chvt.h"
 232              		.loc 5 228 0
 233              		.cfi_startproc
 234              		@ args = 0, pretend = 0, frame = 0
 235              		@ frame_needed = 0, uses_anonymous_args = 0
 236              		@ link register save eliminated.
 237              		.loc 5 231 0
 238 0000 014B     		ldr	r3, .L12
 239 0002 9B6A     		ldr	r3, [r3, #40]
 240              		.loc 5 235 0
 241 0004 1846     		mov	r0, r3
 242 0006 7047     		bx	lr
 243              	.L13:
 244              		.align	2
 245              	.L12:
 246 0008 00000000 		.word	ch
 247              		.cfi_endproc
 248              	.LFE164:
 249              		.size	chVTGetSystemTimeX, .-chVTGetSystemTimeX
 250              		.section	.text.chVTGetSystemTime,"ax",%progbits
 251              		.align	1
 252              		.p2align 4,,15
 253              		.syntax unified
 254              		.thumb
 255              		.thumb_func
 256              		.fpu fpv4-sp-d16
 257              		.type	chVTGetSystemTime, %function
 258              	chVTGetSystemTime:
 259              	.LFB165:
 260              		.loc 5 247 0
 261              		.cfi_startproc
 262              		@ args = 0, pretend = 0, frame = 8
 263              		@ frame_needed = 0, uses_anonymous_args = 0
 264 0000 00B5     		push	{lr}
 265              		.cfi_def_cfa_offset 4
 266              		.cfi_offset 14, -4
 267 0002 83B0     		sub	sp, sp, #12
 268              		.cfi_def_cfa_offset 16
 269              		.loc 5 250 0
 270 0004 FFF7FEFF 		bl	chSysLock
 271              		.loc 5 251 0
 272 0008 FFF7FEFF 		bl	chVTGetSystemTimeX
 273 000c 0190     		str	r0, [sp, #4]
 274              		.loc 5 252 0
 275 000e FFF7FEFF 		bl	chSysUnlock
 276              		.loc 5 254 0
 277 0012 019B     		ldr	r3, [sp, #4]
 278              		.loc 5 255 0
 279 0014 1846     		mov	r0, r3
 280 0016 03B0     		add	sp, sp, #12
 281              		.cfi_def_cfa_offset 4
 282              		@ sp needed
 283 0018 5DF804FB 		ldr	pc, [sp], #4
 284              		.cfi_endproc
 285              	.LFE165:
ARM GAS  /tmp/ccUSzzA9.s 			page 6


 286              		.size	chVTGetSystemTime, .-chVTGetSystemTime
 287              		.section	.text.chThdGetSelfX,"ax",%progbits
 288              		.align	1
 289              		.p2align 4,,15
 290              		.syntax unified
 291              		.thumb
 292              		.thumb_func
 293              		.fpu fpv4-sp-d16
 294              		.type	chThdGetSelfX, %function
 295              	chThdGetSelfX:
 296              	.LFB178:
 297              		.file 6 "../ChibiOS/os/rt/include/chthreads.h"
 298              		.loc 6 174 0
 299              		.cfi_startproc
 300              		@ args = 0, pretend = 0, frame = 0
 301              		@ frame_needed = 0, uses_anonymous_args = 0
 302              		@ link register save eliminated.
 303              		.loc 6 176 0
 304 0000 014B     		ldr	r3, .L18
 305 0002 9B69     		ldr	r3, [r3, #24]
 306              		.loc 6 177 0
 307 0004 1846     		mov	r0, r3
 308 0006 7047     		bx	lr
 309              	.L19:
 310              		.align	2
 311              	.L18:
 312 0008 00000000 		.word	ch
 313              		.cfi_endproc
 314              	.LFE178:
 315              		.size	chThdGetSelfX, .-chThdGetSelfX
 316              		.section	.text.chThdGetPriorityX,"ax",%progbits
 317              		.align	1
 318              		.p2align 4,,15
 319              		.syntax unified
 320              		.thumb
 321              		.thumb_func
 322              		.fpu fpv4-sp-d16
 323              		.type	chThdGetPriorityX, %function
 324              	chThdGetPriorityX:
 325              	.LFB179:
 326              		.loc 6 187 0
 327              		.cfi_startproc
 328              		@ args = 0, pretend = 0, frame = 0
 329              		@ frame_needed = 0, uses_anonymous_args = 0
 330 0000 08B5     		push	{r3, lr}
 331              		.cfi_def_cfa_offset 8
 332              		.cfi_offset 3, -8
 333              		.cfi_offset 14, -4
 334              		.loc 6 189 0
 335 0002 FFF7FEFF 		bl	chThdGetSelfX
 336 0006 0346     		mov	r3, r0
 337 0008 9B68     		ldr	r3, [r3, #8]
 338              		.loc 6 190 0
 339 000a 1846     		mov	r0, r3
 340 000c 08BD     		pop	{r3, pc}
 341              		.cfi_endproc
 342              	.LFE179:
ARM GAS  /tmp/ccUSzzA9.s 			page 7


 343              		.size	chThdGetPriorityX, .-chThdGetPriorityX
 344 000e 00BF     		.section	.text.chSemGetCounterI,"ax",%progbits
 345              		.align	1
 346              		.p2align 4,,15
 347              		.syntax unified
 348              		.thumb
 349              		.thumb_func
 350              		.fpu fpv4-sp-d16
 351              		.type	chSemGetCounterI, %function
 352              	chSemGetCounterI:
 353              	.LFB192:
 354              		.file 7 "../ChibiOS/os/rt/include/chsem.h"
 355              		.loc 7 149 0
 356              		.cfi_startproc
 357              		@ args = 0, pretend = 0, frame = 8
 358              		@ frame_needed = 0, uses_anonymous_args = 0
 359 0000 00B5     		push	{lr}
 360              		.cfi_def_cfa_offset 4
 361              		.cfi_offset 14, -4
 362 0002 83B0     		sub	sp, sp, #12
 363              		.cfi_def_cfa_offset 16
 364 0004 0190     		str	r0, [sp, #4]
 365              		.loc 7 151 0
 366 0006 FFF7FEFF 		bl	chDbgCheckClassI
 367              		.loc 7 153 0
 368 000a 019B     		ldr	r3, [sp, #4]
 369 000c 9B68     		ldr	r3, [r3, #8]
 370              		.loc 7 154 0
 371 000e 1846     		mov	r0, r3
 372 0010 03B0     		add	sp, sp, #12
 373              		.cfi_def_cfa_offset 4
 374              		@ sp needed
 375 0012 5DF804FB 		ldr	pc, [sp], #4
 376              		.cfi_endproc
 377              	.LFE192:
 378              		.size	chSemGetCounterI, .-chSemGetCounterI
 379 0016 00BF     		.section	.text.chBSemObjectInit,"ax",%progbits
 380              		.align	1
 381              		.p2align 4,,15
 382              		.syntax unified
 383              		.thumb
 384              		.thumb_func
 385              		.fpu fpv4-sp-d16
 386              		.type	chBSemObjectInit, %function
 387              	chBSemObjectInit:
 388              	.LFB193:
 389              		.file 8 "../ChibiOS/os/rt/include/chbsem.h"
 390              		.loc 8 124 0
 391              		.cfi_startproc
 392              		@ args = 0, pretend = 0, frame = 8
 393              		@ frame_needed = 0, uses_anonymous_args = 0
 394 0000 00B5     		push	{lr}
 395              		.cfi_def_cfa_offset 4
 396              		.cfi_offset 14, -4
 397 0002 83B0     		sub	sp, sp, #12
 398              		.cfi_def_cfa_offset 16
 399 0004 0190     		str	r0, [sp, #4]
ARM GAS  /tmp/ccUSzzA9.s 			page 8


 400 0006 0B46     		mov	r3, r1
 401 0008 8DF80330 		strb	r3, [sp, #3]
 402              		.loc 8 126 0
 403 000c 019A     		ldr	r2, [sp, #4]
 404 000e 9DF80330 		ldrb	r3, [sp, #3]
 405 0012 83F00103 		eor	r3, r3, #1
 406 0016 DBB2     		uxtb	r3, r3
 407 0018 1946     		mov	r1, r3
 408 001a 1046     		mov	r0, r2
 409 001c FFF7FEFF 		bl	chSemObjectInit
 410              		.loc 8 127 0
 411 0020 00BF     		nop
 412 0022 03B0     		add	sp, sp, #12
 413              		.cfi_def_cfa_offset 4
 414              		@ sp needed
 415 0024 5DF804FB 		ldr	pc, [sp], #4
 416              		.cfi_endproc
 417              	.LFE193:
 418              		.size	chBSemObjectInit, .-chBSemObjectInit
 419              		.section	.text.chBSemWait,"ax",%progbits
 420              		.align	1
 421              		.p2align 4,,15
 422              		.syntax unified
 423              		.thumb
 424              		.thumb_func
 425              		.fpu fpv4-sp-d16
 426              		.type	chBSemWait, %function
 427              	chBSemWait:
 428              	.LFB194:
 429              		.loc 8 141 0
 430              		.cfi_startproc
 431              		@ args = 0, pretend = 0, frame = 8
 432              		@ frame_needed = 0, uses_anonymous_args = 0
 433 0000 00B5     		push	{lr}
 434              		.cfi_def_cfa_offset 4
 435              		.cfi_offset 14, -4
 436 0002 83B0     		sub	sp, sp, #12
 437              		.cfi_def_cfa_offset 16
 438 0004 0190     		str	r0, [sp, #4]
 439              		.loc 8 143 0
 440 0006 019B     		ldr	r3, [sp, #4]
 441 0008 1846     		mov	r0, r3
 442 000a FFF7FEFF 		bl	chSemWait
 443 000e 0346     		mov	r3, r0
 444              		.loc 8 144 0
 445 0010 1846     		mov	r0, r3
 446 0012 03B0     		add	sp, sp, #12
 447              		.cfi_def_cfa_offset 4
 448              		@ sp needed
 449 0014 5DF804FB 		ldr	pc, [sp], #4
 450              		.cfi_endproc
 451              	.LFE194:
 452              		.size	chBSemWait, .-chBSemWait
 453              		.section	.text.chBSemReset,"ax",%progbits
 454              		.align	1
 455              		.p2align 4,,15
 456              		.syntax unified
ARM GAS  /tmp/ccUSzzA9.s 			page 9


 457              		.thumb
 458              		.thumb_func
 459              		.fpu fpv4-sp-d16
 460              		.type	chBSemReset, %function
 461              	chBSemReset:
 462              	.LFB199:
 463              		.loc 8 253 0
 464              		.cfi_startproc
 465              		@ args = 0, pretend = 0, frame = 8
 466              		@ frame_needed = 0, uses_anonymous_args = 0
 467 0000 00B5     		push	{lr}
 468              		.cfi_def_cfa_offset 4
 469              		.cfi_offset 14, -4
 470 0002 83B0     		sub	sp, sp, #12
 471              		.cfi_def_cfa_offset 16
 472 0004 0190     		str	r0, [sp, #4]
 473 0006 0B46     		mov	r3, r1
 474 0008 8DF80330 		strb	r3, [sp, #3]
 475              		.loc 8 255 0
 476 000c 019A     		ldr	r2, [sp, #4]
 477 000e 9DF80330 		ldrb	r3, [sp, #3]
 478 0012 83F00103 		eor	r3, r3, #1
 479 0016 DBB2     		uxtb	r3, r3
 480 0018 1946     		mov	r1, r3
 481 001a 1046     		mov	r0, r2
 482 001c FFF7FEFF 		bl	chSemReset
 483              		.loc 8 256 0
 484 0020 00BF     		nop
 485 0022 03B0     		add	sp, sp, #12
 486              		.cfi_def_cfa_offset 4
 487              		@ sp needed
 488 0024 5DF804FB 		ldr	pc, [sp], #4
 489              		.cfi_endproc
 490              	.LFE199:
 491              		.size	chBSemReset, .-chBSemReset
 492              		.section	.text.chBSemSignalI,"ax",%progbits
 493              		.align	1
 494              		.p2align 4,,15
 495              		.syntax unified
 496              		.thumb
 497              		.thumb_func
 498              		.fpu fpv4-sp-d16
 499              		.type	chBSemSignalI, %function
 500              	chBSemSignalI:
 501              	.LFB200:
 502              		.loc 8 266 0
 503              		.cfi_startproc
 504              		@ args = 0, pretend = 0, frame = 8
 505              		@ frame_needed = 0, uses_anonymous_args = 0
 506 0000 00B5     		push	{lr}
 507              		.cfi_def_cfa_offset 4
 508              		.cfi_offset 14, -4
 509 0002 83B0     		sub	sp, sp, #12
 510              		.cfi_def_cfa_offset 16
 511 0004 0190     		str	r0, [sp, #4]
 512              		.loc 8 268 0
 513 0006 FFF7FEFF 		bl	chDbgCheckClassI
ARM GAS  /tmp/ccUSzzA9.s 			page 10


 514              		.loc 8 270 0
 515 000a 019B     		ldr	r3, [sp, #4]
 516 000c 9B68     		ldr	r3, [r3, #8]
 517 000e 002B     		cmp	r3, #0
 518 0010 03DC     		bgt	.L30
 519              		.loc 8 271 0
 520 0012 019B     		ldr	r3, [sp, #4]
 521 0014 1846     		mov	r0, r3
 522 0016 FFF7FEFF 		bl	chSemSignalI
 523              	.L30:
 524              		.loc 8 273 0
 525 001a 00BF     		nop
 526 001c 03B0     		add	sp, sp, #12
 527              		.cfi_def_cfa_offset 4
 528              		@ sp needed
 529 001e 5DF804FB 		ldr	pc, [sp], #4
 530              		.cfi_endproc
 531              	.LFE200:
 532              		.size	chBSemSignalI, .-chBSemSignalI
 533 0022 00BF     		.section	.text.chBSemSignal,"ax",%progbits
 534              		.align	1
 535              		.p2align 4,,15
 536              		.syntax unified
 537              		.thumb
 538              		.thumb_func
 539              		.fpu fpv4-sp-d16
 540              		.type	chBSemSignal, %function
 541              	chBSemSignal:
 542              	.LFB201:
 543              		.loc 8 282 0
 544              		.cfi_startproc
 545              		@ args = 0, pretend = 0, frame = 8
 546              		@ frame_needed = 0, uses_anonymous_args = 0
 547 0000 00B5     		push	{lr}
 548              		.cfi_def_cfa_offset 4
 549              		.cfi_offset 14, -4
 550 0002 83B0     		sub	sp, sp, #12
 551              		.cfi_def_cfa_offset 16
 552 0004 0190     		str	r0, [sp, #4]
 553              		.loc 8 284 0
 554 0006 FFF7FEFF 		bl	chSysLock
 555              		.loc 8 285 0
 556 000a 0198     		ldr	r0, [sp, #4]
 557 000c FFF7FEFF 		bl	chBSemSignalI
 558              		.loc 8 286 0
 559 0010 FFF7FEFF 		bl	chSchRescheduleS
 560              		.loc 8 287 0
 561 0014 FFF7FEFF 		bl	chSysUnlock
 562              		.loc 8 288 0
 563 0018 00BF     		nop
 564 001a 03B0     		add	sp, sp, #12
 565              		.cfi_def_cfa_offset 4
 566              		@ sp needed
 567 001c 5DF804FB 		ldr	pc, [sp], #4
 568              		.cfi_endproc
 569              	.LFE201:
 570              		.size	chBSemSignal, .-chBSemSignal
ARM GAS  /tmp/ccUSzzA9.s 			page 11


 571              		.section	.text.chBSemGetStateI,"ax",%progbits
 572              		.align	1
 573              		.p2align 4,,15
 574              		.syntax unified
 575              		.thumb
 576              		.thumb_func
 577              		.fpu fpv4-sp-d16
 578              		.type	chBSemGetStateI, %function
 579              	chBSemGetStateI:
 580              	.LFB202:
 581              		.loc 8 300 0
 582              		.cfi_startproc
 583              		@ args = 0, pretend = 0, frame = 8
 584              		@ frame_needed = 0, uses_anonymous_args = 0
 585 0000 00B5     		push	{lr}
 586              		.cfi_def_cfa_offset 4
 587              		.cfi_offset 14, -4
 588 0002 83B0     		sub	sp, sp, #12
 589              		.cfi_def_cfa_offset 16
 590 0004 0190     		str	r0, [sp, #4]
 591              		.loc 8 302 0
 592 0006 FFF7FEFF 		bl	chDbgCheckClassI
 593              		.loc 8 304 0
 594 000a 019B     		ldr	r3, [sp, #4]
 595 000c 9B68     		ldr	r3, [r3, #8]
 596 000e 002B     		cmp	r3, #0
 597 0010 D4BF     		ite	le
 598 0012 0123     		movle	r3, #1
 599 0014 0023     		movgt	r3, #0
 600 0016 DBB2     		uxtb	r3, r3
 601              		.loc 8 305 0
 602 0018 1846     		mov	r0, r3
 603 001a 03B0     		add	sp, sp, #12
 604              		.cfi_def_cfa_offset 4
 605              		@ sp needed
 606 001c 5DF804FB 		ldr	pc, [sp], #4
 607              		.cfi_endproc
 608              	.LFE202:
 609              		.size	chBSemGetStateI, .-chBSemGetStateI
 610              		.section	.data.sem1,"aw",%progbits
 611              		.align	2
 612              		.type	sem1, %object
 613              		.size	sem1, 12
 614              	sem1:
 615 0000 00000000 		.word	sem1
 616 0004 00000000 		.word	sem1
 617 0008 00000000 		.word	0
 618              		.section	.text.sem1_setup,"ax",%progbits
 619              		.align	1
 620              		.p2align 4,,15
 621              		.syntax unified
 622              		.thumb
 623              		.thumb_func
 624              		.fpu fpv4-sp-d16
 625              		.type	sem1_setup, %function
 626              	sem1_setup:
 627              	.LFB231:
ARM GAS  /tmp/ccUSzzA9.s 			page 12


 628              		.file 9 "../ChibiOS/test/rt/testsem.c"
 629              		.loc 9 72 0
 630              		.cfi_startproc
 631              		@ args = 0, pretend = 0, frame = 0
 632              		@ frame_needed = 0, uses_anonymous_args = 0
 633 0000 08B5     		push	{r3, lr}
 634              		.cfi_def_cfa_offset 8
 635              		.cfi_offset 3, -8
 636              		.cfi_offset 14, -4
 637              		.loc 9 74 0
 638 0002 0021     		movs	r1, #0
 639 0004 0248     		ldr	r0, .L35
 640 0006 FFF7FEFF 		bl	chSemObjectInit
 641              		.loc 9 75 0
 642 000a 00BF     		nop
 643 000c 08BD     		pop	{r3, pc}
 644              	.L36:
 645 000e 00BF     		.align	2
 646              	.L35:
 647 0010 00000000 		.word	sem1
 648              		.cfi_endproc
 649              	.LFE231:
 650              		.size	sem1_setup, .-sem1_setup
 651              		.section	.text.thread1,"ax",%progbits
 652              		.align	1
 653              		.p2align 4,,15
 654              		.syntax unified
 655              		.thumb
 656              		.thumb_func
 657              		.fpu fpv4-sp-d16
 658              		.type	thread1, %function
 659              	thread1:
 660              	.LFB232:
 661              		.loc 9 77 0
 662              		.cfi_startproc
 663              		@ args = 0, pretend = 0, frame = 8
 664              		@ frame_needed = 0, uses_anonymous_args = 0
 665 0000 00B5     		push	{lr}
 666              		.cfi_def_cfa_offset 4
 667              		.cfi_offset 14, -4
 668 0002 83B0     		sub	sp, sp, #12
 669              		.cfi_def_cfa_offset 16
 670 0004 0190     		str	r0, [sp, #4]
 671              		.loc 9 79 0
 672 0006 0648     		ldr	r0, .L38
 673 0008 FFF7FEFF 		bl	chSemWait
 674              		.loc 9 80 0
 675 000c 019B     		ldr	r3, [sp, #4]
 676 000e 1B78     		ldrb	r3, [r3]	@ zero_extendqisi2
 677 0010 1846     		mov	r0, r3
 678 0012 FFF7FEFF 		bl	test_emit_token
 679              		.loc 9 81 0
 680 0016 00BF     		nop
 681 0018 03B0     		add	sp, sp, #12
 682              		.cfi_def_cfa_offset 4
 683              		@ sp needed
 684 001a 5DF804FB 		ldr	pc, [sp], #4
ARM GAS  /tmp/ccUSzzA9.s 			page 13


 685              	.L39:
 686 001e 00BF     		.align	2
 687              	.L38:
 688 0020 00000000 		.word	sem1
 689              		.cfi_endproc
 690              	.LFE232:
 691              		.size	thread1, .-thread1
 692              		.section	.rodata
 693              		.align	2
 694              	.LC0:
 695 0000 4100     		.ascii	"A\000"
 696 0002 0000     		.align	2
 697              	.LC1:
 698 0004 4200     		.ascii	"B\000"
 699 0006 0000     		.align	2
 700              	.LC2:
 701 0008 4300     		.ascii	"C\000"
 702 000a 0000     		.align	2
 703              	.LC3:
 704 000c 4400     		.ascii	"D\000"
 705 000e 0000     		.align	2
 706              	.LC4:
 707 0010 4500     		.ascii	"E\000"
 708 0012 0000     		.align	2
 709              	.LC5:
 710 0014 41424344 		.ascii	"ABCDE\000"
 710      4500
 711              		.section	.text.sem1_execute,"ax",%progbits
 712              		.align	1
 713              		.p2align 4,,15
 714              		.syntax unified
 715              		.thumb
 716              		.thumb_func
 717              		.fpu fpv4-sp-d16
 718              		.type	sem1_execute, %function
 719              	sem1_execute:
 720              	.LFB233:
 721              		.loc 9 83 0
 722              		.cfi_startproc
 723              		@ args = 0, pretend = 0, frame = 0
 724              		@ frame_needed = 0, uses_anonymous_args = 0
 725 0000 10B5     		push	{r4, lr}
 726              		.cfi_def_cfa_offset 8
 727              		.cfi_offset 4, -8
 728              		.cfi_offset 14, -4
 729 0002 82B0     		sub	sp, sp, #8
 730              		.cfi_def_cfa_offset 16
 731              		.loc 9 85 0
 732 0004 524B     		ldr	r3, .L45
 733 0006 1C68     		ldr	r4, [r3]
 734 0008 FFF7FEFF 		bl	chThdGetPriorityX
 735 000c 0346     		mov	r3, r0
 736 000e 5A1D     		adds	r2, r3, #5
 737 0010 504B     		ldr	r3, .L45+4
 738 0012 0093     		str	r3, [sp]
 739 0014 504B     		ldr	r3, .L45+8
 740 0016 4FF4F871 		mov	r1, #496
ARM GAS  /tmp/ccUSzzA9.s 			page 14


 741 001a 2046     		mov	r0, r4
 742 001c FFF7FEFF 		bl	chThdCreateStatic
 743 0020 0246     		mov	r2, r0
 744 0022 4E4B     		ldr	r3, .L45+12
 745 0024 1A60     		str	r2, [r3]
 746              		.loc 9 86 0
 747 0026 4A4B     		ldr	r3, .L45
 748 0028 5C68     		ldr	r4, [r3, #4]
 749 002a FFF7FEFF 		bl	chThdGetPriorityX
 750 002e 0346     		mov	r3, r0
 751 0030 5A1C     		adds	r2, r3, #1
 752 0032 4B4B     		ldr	r3, .L45+16
 753 0034 0093     		str	r3, [sp]
 754 0036 484B     		ldr	r3, .L45+8
 755 0038 4FF4F871 		mov	r1, #496
 756 003c 2046     		mov	r0, r4
 757 003e FFF7FEFF 		bl	chThdCreateStatic
 758 0042 0246     		mov	r2, r0
 759 0044 454B     		ldr	r3, .L45+12
 760 0046 5A60     		str	r2, [r3, #4]
 761              		.loc 9 87 0
 762 0048 414B     		ldr	r3, .L45
 763 004a 9C68     		ldr	r4, [r3, #8]
 764 004c FFF7FEFF 		bl	chThdGetPriorityX
 765 0050 0346     		mov	r3, r0
 766 0052 DA1C     		adds	r2, r3, #3
 767 0054 434B     		ldr	r3, .L45+20
 768 0056 0093     		str	r3, [sp]
 769 0058 3F4B     		ldr	r3, .L45+8
 770 005a 4FF4F871 		mov	r1, #496
 771 005e 2046     		mov	r0, r4
 772 0060 FFF7FEFF 		bl	chThdCreateStatic
 773 0064 0246     		mov	r2, r0
 774 0066 3D4B     		ldr	r3, .L45+12
 775 0068 9A60     		str	r2, [r3, #8]
 776              		.loc 9 88 0
 777 006a 394B     		ldr	r3, .L45
 778 006c DC68     		ldr	r4, [r3, #12]
 779 006e FFF7FEFF 		bl	chThdGetPriorityX
 780 0072 0346     		mov	r3, r0
 781 0074 1A1D     		adds	r2, r3, #4
 782 0076 3C4B     		ldr	r3, .L45+24
 783 0078 0093     		str	r3, [sp]
 784 007a 374B     		ldr	r3, .L45+8
 785 007c 4FF4F871 		mov	r1, #496
 786 0080 2046     		mov	r0, r4
 787 0082 FFF7FEFF 		bl	chThdCreateStatic
 788 0086 0246     		mov	r2, r0
 789 0088 344B     		ldr	r3, .L45+12
 790 008a DA60     		str	r2, [r3, #12]
 791              		.loc 9 89 0
 792 008c 304B     		ldr	r3, .L45
 793 008e 1C69     		ldr	r4, [r3, #16]
 794 0090 FFF7FEFF 		bl	chThdGetPriorityX
 795 0094 0346     		mov	r3, r0
 796 0096 9A1C     		adds	r2, r3, #2
 797 0098 344B     		ldr	r3, .L45+28
ARM GAS  /tmp/ccUSzzA9.s 			page 15


 798 009a 0093     		str	r3, [sp]
 799 009c 2E4B     		ldr	r3, .L45+8
 800 009e 4FF4F871 		mov	r1, #496
 801 00a2 2046     		mov	r0, r4
 802 00a4 FFF7FEFF 		bl	chThdCreateStatic
 803 00a8 0246     		mov	r2, r0
 804 00aa 2C4B     		ldr	r3, .L45+12
 805 00ac 1A61     		str	r2, [r3, #16]
 806              		.loc 9 90 0
 807 00ae 3048     		ldr	r0, .L45+32
 808 00b0 FFF7FEFF 		bl	chSemSignal
 809              		.loc 9 91 0
 810 00b4 2E48     		ldr	r0, .L45+32
 811 00b6 FFF7FEFF 		bl	chSemSignal
 812              		.loc 9 92 0
 813 00ba 2D48     		ldr	r0, .L45+32
 814 00bc FFF7FEFF 		bl	chSemSignal
 815              		.loc 9 93 0
 816 00c0 2B48     		ldr	r0, .L45+32
 817 00c2 FFF7FEFF 		bl	chSemSignal
 818              		.loc 9 94 0
 819 00c6 2A48     		ldr	r0, .L45+32
 820 00c8 FFF7FEFF 		bl	chSemSignal
 821              		.loc 9 95 0
 822 00cc FFF7FEFF 		bl	test_wait_threads
 823              		.loc 9 99 0
 824 00d0 2849     		ldr	r1, .L45+36
 825 00d2 0120     		movs	r0, #1
 826 00d4 FFF7FEFF 		bl	_test_assert_sequence
 827 00d8 0346     		mov	r3, r0
 828 00da 002B     		cmp	r3, #0
 829 00dc 34D1     		bne	.L44
 830              		.loc 9 101 0
 831 00de 1C4B     		ldr	r3, .L45
 832 00e0 1C68     		ldr	r4, [r3]
 833 00e2 FFF7FEFF 		bl	chThdGetPriorityX
 834 00e6 0346     		mov	r3, r0
 835 00e8 5A1D     		adds	r2, r3, #5
 836 00ea 1A4B     		ldr	r3, .L45+4
 837 00ec 0093     		str	r3, [sp]
 838 00ee 1A4B     		ldr	r3, .L45+8
 839 00f0 4FF4F871 		mov	r1, #496
 840 00f4 2046     		mov	r0, r4
 841 00f6 FFF7FEFF 		bl	chThdCreateStatic
 842 00fa 0246     		mov	r2, r0
 843 00fc 174B     		ldr	r3, .L45+12
 844 00fe 1A60     		str	r2, [r3]
 845              		.loc 9 102 0
 846 0100 FFF7FEFF 		bl	chSysLock
 847              		.loc 9 103 0
 848 0104 0221     		movs	r1, #2
 849 0106 1A48     		ldr	r0, .L45+32
 850 0108 FFF7FEFF 		bl	chSemAddCounterI
 851              		.loc 9 104 0
 852 010c FFF7FEFF 		bl	chSchRescheduleS
 853              		.loc 9 105 0
 854 0110 FFF7FEFF 		bl	chSysUnlock
ARM GAS  /tmp/ccUSzzA9.s 			page 16


 855              		.loc 9 106 0
 856 0114 FFF7FEFF 		bl	test_wait_threads
 857              		.loc 9 107 0
 858 0118 FFF7FEFF 		bl	chSysLock
 859 011c 1448     		ldr	r0, .L45+32
 860 011e FFF7FEFF 		bl	chSemGetCounterI
 861 0122 0346     		mov	r3, r0
 862 0124 012B     		cmp	r3, #1
 863 0126 0CBF     		ite	eq
 864 0128 0123     		moveq	r3, #1
 865 012a 0023     		movne	r3, #0
 866 012c DBB2     		uxtb	r3, r3
 867 012e 1946     		mov	r1, r3
 868 0130 0220     		movs	r0, #2
 869 0132 FFF7FEFF 		bl	_test_assert
 870 0136 0346     		mov	r3, r0
 871 0138 002B     		cmp	r3, #0
 872 013a 02D0     		beq	.L43
 873              		.loc 9 107 0 is_stmt 0 discriminator 1
 874 013c FFF7FEFF 		bl	chSysUnlock
 875 0140 03E0     		b	.L40
 876              	.L43:
 877              		.loc 9 107 0 discriminator 2
 878 0142 FFF7FEFF 		bl	chSysUnlock
 879 0146 00E0     		b	.L40
 880              	.L44:
 881              		.loc 9 99 0 is_stmt 1
 882 0148 00BF     		nop
 883              	.L40:
 884              		.loc 9 108 0
 885 014a 02B0     		add	sp, sp, #8
 886              		.cfi_def_cfa_offset 8
 887              		@ sp needed
 888 014c 10BD     		pop	{r4, pc}
 889              	.L46:
 890 014e 00BF     		.align	2
 891              	.L45:
 892 0150 00000000 		.word	wa
 893 0154 00000000 		.word	.LC0
 894 0158 00000000 		.word	thread1
 895 015c 00000000 		.word	threads
 896 0160 04000000 		.word	.LC1
 897 0164 08000000 		.word	.LC2
 898 0168 0C000000 		.word	.LC3
 899 016c 10000000 		.word	.LC4
 900 0170 00000000 		.word	sem1
 901 0174 14000000 		.word	.LC5
 902              		.cfi_endproc
 903              	.LFE233:
 904              		.size	sem1_execute, .-sem1_execute
 905              		.global	testsem1
 906              		.section	.rodata
 907 001a 0000     		.align	2
 908              	.LC6:
 909 001c 53656D61 		.ascii	"Semaphores, enqueuing\000"
 909      70686F72 
 909      65732C20 
ARM GAS  /tmp/ccUSzzA9.s 			page 17


 909      656E7175 
 909      6575696E 
 910              		.section	.rodata.testsem1,"a",%progbits
 911              		.align	2
 912              		.type	testsem1, %object
 913              		.size	testsem1, 16
 914              	testsem1:
 915 0000 1C000000 		.word	.LC6
 916 0004 00000000 		.word	sem1_setup
 917 0008 00000000 		.word	0
 918 000c 00000000 		.word	sem1_execute
 919              		.section	.text.sem2_setup,"ax",%progbits
 920              		.align	1
 921              		.p2align 4,,15
 922              		.syntax unified
 923              		.thumb
 924              		.thumb_func
 925              		.fpu fpv4-sp-d16
 926              		.type	sem2_setup, %function
 927              	sem2_setup:
 928              	.LFB234:
 929              		.loc 9 128 0
 930              		.cfi_startproc
 931              		@ args = 0, pretend = 0, frame = 0
 932              		@ frame_needed = 0, uses_anonymous_args = 0
 933 0000 08B5     		push	{r3, lr}
 934              		.cfi_def_cfa_offset 8
 935              		.cfi_offset 3, -8
 936              		.cfi_offset 14, -4
 937              		.loc 9 130 0
 938 0002 0021     		movs	r1, #0
 939 0004 0248     		ldr	r0, .L48
 940 0006 FFF7FEFF 		bl	chSemObjectInit
 941              		.loc 9 131 0
 942 000a 00BF     		nop
 943 000c 08BD     		pop	{r3, pc}
 944              	.L49:
 945 000e 00BF     		.align	2
 946              	.L48:
 947 0010 00000000 		.word	sem1
 948              		.cfi_endproc
 949              	.LFE234:
 950              		.size	sem2_setup, .-sem2_setup
 951              		.section	.text.thread2,"ax",%progbits
 952              		.align	1
 953              		.p2align 4,,15
 954              		.syntax unified
 955              		.thumb
 956              		.thumb_func
 957              		.fpu fpv4-sp-d16
 958              		.type	thread2, %function
 959              	thread2:
 960              	.LFB235:
 961              		.loc 9 133 0
 962              		.cfi_startproc
 963              		@ args = 0, pretend = 0, frame = 8
 964              		@ frame_needed = 0, uses_anonymous_args = 0
ARM GAS  /tmp/ccUSzzA9.s 			page 18


 965 0000 00B5     		push	{lr}
 966              		.cfi_def_cfa_offset 4
 967              		.cfi_offset 14, -4
 968 0002 83B0     		sub	sp, sp, #12
 969              		.cfi_def_cfa_offset 16
 970 0004 0190     		str	r0, [sp, #4]
 971              		.loc 9 136 0
 972 0006 4FF4FA70 		mov	r0, #500
 973 000a FFF7FEFF 		bl	chThdSleep
 974              		.loc 9 137 0
 975 000e FFF7FEFF 		bl	chSysLock
 976              		.loc 9 138 0
 977 0012 0548     		ldr	r0, .L51
 978 0014 FFF7FEFF 		bl	chSemSignalI
 979              		.loc 9 139 0
 980 0018 FFF7FEFF 		bl	chSchRescheduleS
 981              		.loc 9 140 0
 982 001c FFF7FEFF 		bl	chSysUnlock
 983              		.loc 9 141 0
 984 0020 00BF     		nop
 985 0022 03B0     		add	sp, sp, #12
 986              		.cfi_def_cfa_offset 4
 987              		@ sp needed
 988 0024 5DF804FB 		ldr	pc, [sp], #4
 989              	.L52:
 990              		.align	2
 991              	.L51:
 992 0028 00000000 		.word	sem1
 993              		.cfi_endproc
 994              	.LFE235:
 995              		.size	thread2, .-thread2
 996              		.section	.text.sem2_execute,"ax",%progbits
 997              		.align	1
 998              		.p2align 4,,15
 999              		.syntax unified
 1000              		.thumb
 1001              		.thumb_func
 1002              		.fpu fpv4-sp-d16
 1003              		.type	sem2_execute, %function
 1004              	sem2_execute:
 1005              	.LFB236:
 1006              		.loc 9 143 0
 1007              		.cfi_startproc
 1008              		@ args = 0, pretend = 0, frame = 16
 1009              		@ frame_needed = 0, uses_anonymous_args = 0
 1010 0000 10B5     		push	{r4, lr}
 1011              		.cfi_def_cfa_offset 8
 1012              		.cfi_offset 4, -8
 1013              		.cfi_offset 14, -4
 1014 0002 86B0     		sub	sp, sp, #24
 1015              		.cfi_def_cfa_offset 32
 1016              		.loc 9 151 0
 1017 0004 0021     		movs	r1, #0
 1018 0006 6C48     		ldr	r0, .L77
 1019 0008 FFF7FEFF 		bl	chSemWaitTimeout
 1020 000c 0490     		str	r0, [sp, #16]
 1021              		.loc 9 152 0
ARM GAS  /tmp/ccUSzzA9.s 			page 19


 1022 000e 049B     		ldr	r3, [sp, #16]
 1023 0010 B3F1FF3F 		cmp	r3, #-1
 1024 0014 0CBF     		ite	eq
 1025 0016 0123     		moveq	r3, #1
 1026 0018 0023     		movne	r3, #0
 1027 001a DBB2     		uxtb	r3, r3
 1028 001c 1946     		mov	r1, r3
 1029 001e 0120     		movs	r0, #1
 1030 0020 FFF7FEFF 		bl	_test_assert
 1031 0024 0346     		mov	r3, r0
 1032 0026 002B     		cmp	r3, #0
 1033 0028 40F0B080 		bne	.L67
 1034              		.loc 9 153 0
 1035 002c 6248     		ldr	r0, .L77
 1036 002e FFF7FEFF 		bl	queue_isempty
 1037 0032 0346     		mov	r3, r0
 1038 0034 1946     		mov	r1, r3
 1039 0036 0220     		movs	r0, #2
 1040 0038 FFF7FEFF 		bl	_test_assert
 1041 003c 0346     		mov	r3, r0
 1042 003e 002B     		cmp	r3, #0
 1043 0040 40F0A680 		bne	.L68
 1044              		.loc 9 154 0
 1045 0044 5C4B     		ldr	r3, .L77
 1046 0046 9B68     		ldr	r3, [r3, #8]
 1047 0048 002B     		cmp	r3, #0
 1048 004a 0CBF     		ite	eq
 1049 004c 0123     		moveq	r3, #1
 1050 004e 0023     		movne	r3, #0
 1051 0050 DBB2     		uxtb	r3, r3
 1052 0052 1946     		mov	r1, r3
 1053 0054 0320     		movs	r0, #3
 1054 0056 FFF7FEFF 		bl	_test_assert
 1055 005a 0346     		mov	r3, r0
 1056 005c 002B     		cmp	r3, #0
 1057 005e 40F09980 		bne	.L69
 1058              		.loc 9 159 0
 1059 0062 564B     		ldr	r3, .L77+4
 1060 0064 1C68     		ldr	r4, [r3]
 1061 0066 FFF7FEFF 		bl	chThdGetPriorityX
 1062 006a 0346     		mov	r3, r0
 1063 006c 5A1E     		subs	r2, r3, #1
 1064 006e 0023     		movs	r3, #0
 1065 0070 0093     		str	r3, [sp]
 1066 0072 534B     		ldr	r3, .L77+8
 1067 0074 4FF4F871 		mov	r1, #496
 1068 0078 2046     		mov	r0, r4
 1069 007a FFF7FEFF 		bl	chThdCreateStatic
 1070 007e 0246     		mov	r2, r0
 1071 0080 504B     		ldr	r3, .L77+12
 1072 0082 1A60     		str	r2, [r3]
 1073              		.loc 9 161 0
 1074 0084 41F28831 		movw	r1, #5000
 1075 0088 4B48     		ldr	r0, .L77
 1076 008a FFF7FEFF 		bl	chSemWaitTimeout
 1077 008e 0490     		str	r0, [sp, #16]
 1078              		.loc 9 162 0
ARM GAS  /tmp/ccUSzzA9.s 			page 20


 1079 0090 FFF7FEFF 		bl	test_wait_threads
 1080              		.loc 9 163 0
 1081 0094 049B     		ldr	r3, [sp, #16]
 1082 0096 002B     		cmp	r3, #0
 1083 0098 0CBF     		ite	eq
 1084 009a 0123     		moveq	r3, #1
 1085 009c 0023     		movne	r3, #0
 1086 009e DBB2     		uxtb	r3, r3
 1087 00a0 1946     		mov	r1, r3
 1088 00a2 0420     		movs	r0, #4
 1089 00a4 FFF7FEFF 		bl	_test_assert
 1090 00a8 0346     		mov	r3, r0
 1091 00aa 002B     		cmp	r3, #0
 1092 00ac 74D1     		bne	.L70
 1093              		.loc 9 164 0
 1094 00ae 4248     		ldr	r0, .L77
 1095 00b0 FFF7FEFF 		bl	queue_isempty
 1096 00b4 0346     		mov	r3, r0
 1097 00b6 1946     		mov	r1, r3
 1098 00b8 0520     		movs	r0, #5
 1099 00ba FFF7FEFF 		bl	_test_assert
 1100 00be 0346     		mov	r3, r0
 1101 00c0 002B     		cmp	r3, #0
 1102 00c2 6BD1     		bne	.L71
 1103              		.loc 9 165 0
 1104 00c4 3C4B     		ldr	r3, .L77
 1105 00c6 9B68     		ldr	r3, [r3, #8]
 1106 00c8 002B     		cmp	r3, #0
 1107 00ca 0CBF     		ite	eq
 1108 00cc 0123     		moveq	r3, #1
 1109 00ce 0023     		movne	r3, #0
 1110 00d0 DBB2     		uxtb	r3, r3
 1111 00d2 1946     		mov	r1, r3
 1112 00d4 0620     		movs	r0, #6
 1113 00d6 FFF7FEFF 		bl	_test_assert
 1114 00da 0346     		mov	r3, r0
 1115 00dc 002B     		cmp	r3, #0
 1116 00de 5FD1     		bne	.L72
 1117              		.loc 9 170 0
 1118 00e0 FFF7FEFF 		bl	test_wait_tick
 1119              		.loc 9 171 0
 1120 00e4 FFF7FEFF 		bl	chVTGetSystemTime
 1121 00e8 0346     		mov	r3, r0
 1122 00ea 03F6C413 		addw	r3, r3, #2500
 1123 00ee 0393     		str	r3, [sp, #12]
 1124              		.loc 9 172 0
 1125 00f0 0023     		movs	r3, #0
 1126 00f2 0593     		str	r3, [sp, #20]
 1127 00f4 36E0     		b	.L61
 1128              	.L65:
 1129              		.loc 9 173 0
 1130 00f6 059B     		ldr	r3, [sp, #20]
 1131 00f8 DBB2     		uxtb	r3, r3
 1132 00fa 4133     		adds	r3, r3, #65
 1133 00fc DBB2     		uxtb	r3, r3
 1134 00fe 1846     		mov	r0, r3
 1135 0100 FFF7FEFF 		bl	test_emit_token
ARM GAS  /tmp/ccUSzzA9.s 			page 21


 1136              		.loc 9 174 0
 1137 0104 4FF4FA71 		mov	r1, #500
 1138 0108 2B48     		ldr	r0, .L77
 1139 010a FFF7FEFF 		bl	chSemWaitTimeout
 1140 010e 0490     		str	r0, [sp, #16]
 1141              		.loc 9 175 0
 1142 0110 049B     		ldr	r3, [sp, #16]
 1143 0112 B3F1FF3F 		cmp	r3, #-1
 1144 0116 0CBF     		ite	eq
 1145 0118 0123     		moveq	r3, #1
 1146 011a 0023     		movne	r3, #0
 1147 011c DBB2     		uxtb	r3, r3
 1148 011e 1946     		mov	r1, r3
 1149 0120 0720     		movs	r0, #7
 1150 0122 FFF7FEFF 		bl	_test_assert
 1151 0126 0346     		mov	r3, r0
 1152 0128 002B     		cmp	r3, #0
 1153 012a 3BD1     		bne	.L73
 1154              		.loc 9 176 0
 1155 012c 2248     		ldr	r0, .L77
 1156 012e FFF7FEFF 		bl	queue_isempty
 1157 0132 0346     		mov	r3, r0
 1158 0134 1946     		mov	r1, r3
 1159 0136 0820     		movs	r0, #8
 1160 0138 FFF7FEFF 		bl	_test_assert
 1161 013c 0346     		mov	r3, r0
 1162 013e 002B     		cmp	r3, #0
 1163 0140 32D1     		bne	.L74
 1164              		.loc 9 177 0
 1165 0142 1D4B     		ldr	r3, .L77
 1166 0144 9B68     		ldr	r3, [r3, #8]
 1167 0146 002B     		cmp	r3, #0
 1168 0148 0CBF     		ite	eq
 1169 014a 0123     		moveq	r3, #1
 1170 014c 0023     		movne	r3, #0
 1171 014e DBB2     		uxtb	r3, r3
 1172 0150 1946     		mov	r1, r3
 1173 0152 0920     		movs	r0, #9
 1174 0154 FFF7FEFF 		bl	_test_assert
 1175 0158 0346     		mov	r3, r0
 1176 015a 002B     		cmp	r3, #0
 1177 015c 26D1     		bne	.L75
 1178              		.loc 9 172 0 discriminator 2
 1179 015e 059B     		ldr	r3, [sp, #20]
 1180 0160 0133     		adds	r3, r3, #1
 1181 0162 0593     		str	r3, [sp, #20]
 1182              	.L61:
 1183              		.loc 9 172 0 is_stmt 0 discriminator 1
 1184 0164 059B     		ldr	r3, [sp, #20]
 1185 0166 042B     		cmp	r3, #4
 1186 0168 C5DD     		ble	.L65
 1187              		.loc 9 179 0 is_stmt 1
 1188 016a 1749     		ldr	r1, .L77+16
 1189 016c 0A20     		movs	r0, #10
 1190 016e FFF7FEFF 		bl	_test_assert_sequence
 1191 0172 0346     		mov	r3, r0
 1192 0174 002B     		cmp	r3, #0
ARM GAS  /tmp/ccUSzzA9.s 			page 22


 1193 0176 1BD1     		bne	.L76
 1194              		.loc 9 180 0
 1195 0178 039B     		ldr	r3, [sp, #12]
 1196 017a 1433     		adds	r3, r3, #20
 1197 017c 1A46     		mov	r2, r3
 1198 017e 0399     		ldr	r1, [sp, #12]
 1199 0180 0B20     		movs	r0, #11
 1200 0182 FFF7FEFF 		bl	_test_assert_time_window
 1201 0186 0346     		mov	r3, r0
 1202 0188 002B     		cmp	r3, #0
 1203 018a 12E0     		b	.L53
 1204              	.L67:
 1205              		.loc 9 152 0
 1206 018c 00BF     		nop
 1207 018e 10E0     		b	.L53
 1208              	.L68:
 1209              		.loc 9 153 0
 1210 0190 00BF     		nop
 1211 0192 0EE0     		b	.L53
 1212              	.L69:
 1213              		.loc 9 154 0
 1214 0194 00BF     		nop
 1215 0196 0CE0     		b	.L53
 1216              	.L70:
 1217              		.loc 9 163 0
 1218 0198 00BF     		nop
 1219 019a 0AE0     		b	.L53
 1220              	.L71:
 1221              		.loc 9 164 0
 1222 019c 00BF     		nop
 1223 019e 08E0     		b	.L53
 1224              	.L72:
 1225              		.loc 9 165 0
 1226 01a0 00BF     		nop
 1227 01a2 06E0     		b	.L53
 1228              	.L73:
 1229              		.loc 9 175 0
 1230 01a4 00BF     		nop
 1231 01a6 04E0     		b	.L53
 1232              	.L74:
 1233              		.loc 9 176 0
 1234 01a8 00BF     		nop
 1235 01aa 02E0     		b	.L53
 1236              	.L75:
 1237              		.loc 9 177 0
 1238 01ac 00BF     		nop
 1239 01ae 00E0     		b	.L53
 1240              	.L76:
 1241              		.loc 9 179 0
 1242 01b0 00BF     		nop
 1243              	.L53:
 1244              		.loc 9 181 0
 1245 01b2 06B0     		add	sp, sp, #24
 1246              		.cfi_def_cfa_offset 8
 1247              		@ sp needed
 1248 01b4 10BD     		pop	{r4, pc}
 1249              	.L78:
ARM GAS  /tmp/ccUSzzA9.s 			page 23


 1250 01b6 00BF     		.align	2
 1251              	.L77:
 1252 01b8 00000000 		.word	sem1
 1253 01bc 00000000 		.word	wa
 1254 01c0 00000000 		.word	thread2
 1255 01c4 00000000 		.word	threads
 1256 01c8 14000000 		.word	.LC5
 1257              		.cfi_endproc
 1258              	.LFE236:
 1259              		.size	sem2_execute, .-sem2_execute
 1260              		.global	testsem2
 1261              		.section	.rodata
 1262 0032 0000     		.align	2
 1263              	.LC7:
 1264 0034 53656D61 		.ascii	"Semaphores, timeout\000"
 1264      70686F72 
 1264      65732C20 
 1264      74696D65 
 1264      6F757400 
 1265              		.section	.rodata.testsem2,"a",%progbits
 1266              		.align	2
 1267              		.type	testsem2, %object
 1268              		.size	testsem2, 16
 1269              	testsem2:
 1270 0000 34000000 		.word	.LC7
 1271 0004 00000000 		.word	sem2_setup
 1272 0008 00000000 		.word	0
 1273 000c 00000000 		.word	sem2_execute
 1274              		.section	.text.sem3_setup,"ax",%progbits
 1275              		.align	1
 1276              		.p2align 4,,15
 1277              		.syntax unified
 1278              		.thumb
 1279              		.thumb_func
 1280              		.fpu fpv4-sp-d16
 1281              		.type	sem3_setup, %function
 1282              	sem3_setup:
 1283              	.LFB237:
 1284              		.loc 9 202 0
 1285              		.cfi_startproc
 1286              		@ args = 0, pretend = 0, frame = 0
 1287              		@ frame_needed = 0, uses_anonymous_args = 0
 1288 0000 08B5     		push	{r3, lr}
 1289              		.cfi_def_cfa_offset 8
 1290              		.cfi_offset 3, -8
 1291              		.cfi_offset 14, -4
 1292              		.loc 9 204 0
 1293 0002 0021     		movs	r1, #0
 1294 0004 0248     		ldr	r0, .L80
 1295 0006 FFF7FEFF 		bl	chSemObjectInit
 1296              		.loc 9 205 0
 1297 000a 00BF     		nop
 1298 000c 08BD     		pop	{r3, pc}
 1299              	.L81:
 1300 000e 00BF     		.align	2
 1301              	.L80:
 1302 0010 00000000 		.word	sem1
ARM GAS  /tmp/ccUSzzA9.s 			page 24


 1303              		.cfi_endproc
 1304              	.LFE237:
 1305              		.size	sem3_setup, .-sem3_setup
 1306              		.section	.text.thread3,"ax",%progbits
 1307              		.align	1
 1308              		.p2align 4,,15
 1309              		.syntax unified
 1310              		.thumb
 1311              		.thumb_func
 1312              		.fpu fpv4-sp-d16
 1313              		.type	thread3, %function
 1314              	thread3:
 1315              	.LFB238:
 1316              		.loc 9 207 0
 1317              		.cfi_startproc
 1318              		@ args = 0, pretend = 0, frame = 8
 1319              		@ frame_needed = 0, uses_anonymous_args = 0
 1320 0000 00B5     		push	{lr}
 1321              		.cfi_def_cfa_offset 4
 1322              		.cfi_offset 14, -4
 1323 0002 83B0     		sub	sp, sp, #12
 1324              		.cfi_def_cfa_offset 16
 1325 0004 0190     		str	r0, [sp, #4]
 1326              		.loc 9 210 0
 1327 0006 0548     		ldr	r0, .L83
 1328 0008 FFF7FEFF 		bl	chSemWait
 1329              		.loc 9 211 0
 1330 000c 0348     		ldr	r0, .L83
 1331 000e FFF7FEFF 		bl	chSemSignal
 1332              		.loc 9 212 0
 1333 0012 00BF     		nop
 1334 0014 03B0     		add	sp, sp, #12
 1335              		.cfi_def_cfa_offset 4
 1336              		@ sp needed
 1337 0016 5DF804FB 		ldr	pc, [sp], #4
 1338              	.L84:
 1339 001a 00BF     		.align	2
 1340              	.L83:
 1341 001c 00000000 		.word	sem1
 1342              		.cfi_endproc
 1343              	.LFE238:
 1344              		.size	thread3, .-thread3
 1345              		.section	.text.sem3_execute,"ax",%progbits
 1346              		.align	1
 1347              		.p2align 4,,15
 1348              		.syntax unified
 1349              		.thumb
 1350              		.thumb_func
 1351              		.fpu fpv4-sp-d16
 1352              		.type	sem3_execute, %function
 1353              	sem3_execute:
 1354              	.LFB239:
 1355              		.loc 9 214 0
 1356              		.cfi_startproc
 1357              		@ args = 0, pretend = 0, frame = 0
 1358              		@ frame_needed = 0, uses_anonymous_args = 0
 1359 0000 10B5     		push	{r4, lr}
ARM GAS  /tmp/ccUSzzA9.s 			page 25


 1360              		.cfi_def_cfa_offset 8
 1361              		.cfi_offset 4, -8
 1362              		.cfi_offset 14, -4
 1363 0002 82B0     		sub	sp, sp, #8
 1364              		.cfi_def_cfa_offset 16
 1365              		.loc 9 216 0
 1366 0004 284B     		ldr	r3, .L93
 1367 0006 1C68     		ldr	r4, [r3]
 1368 0008 FFF7FEFF 		bl	chThdGetPriorityX
 1369 000c 0346     		mov	r3, r0
 1370 000e 5A1C     		adds	r2, r3, #1
 1371 0010 0023     		movs	r3, #0
 1372 0012 0093     		str	r3, [sp]
 1373 0014 254B     		ldr	r3, .L93+4
 1374 0016 4FF4F871 		mov	r1, #496
 1375 001a 2046     		mov	r0, r4
 1376 001c FFF7FEFF 		bl	chThdCreateStatic
 1377 0020 0246     		mov	r2, r0
 1378 0022 234B     		ldr	r3, .L93+8
 1379 0024 1A60     		str	r2, [r3]
 1380              		.loc 9 217 0
 1381 0026 2349     		ldr	r1, .L93+12
 1382 0028 2248     		ldr	r0, .L93+12
 1383 002a FFF7FEFF 		bl	chSemSignalWait
 1384              		.loc 9 218 0
 1385 002e 2148     		ldr	r0, .L93+12
 1386 0030 FFF7FEFF 		bl	queue_isempty
 1387 0034 0346     		mov	r3, r0
 1388 0036 1946     		mov	r1, r3
 1389 0038 0120     		movs	r0, #1
 1390 003a FFF7FEFF 		bl	_test_assert
 1391 003e 0346     		mov	r3, r0
 1392 0040 002B     		cmp	r3, #0
 1393 0042 2AD1     		bne	.L90
 1394              		.loc 9 219 0
 1395 0044 1B4B     		ldr	r3, .L93+12
 1396 0046 9B68     		ldr	r3, [r3, #8]
 1397 0048 002B     		cmp	r3, #0
 1398 004a 0CBF     		ite	eq
 1399 004c 0123     		moveq	r3, #1
 1400 004e 0023     		movne	r3, #0
 1401 0050 DBB2     		uxtb	r3, r3
 1402 0052 1946     		mov	r1, r3
 1403 0054 0220     		movs	r0, #2
 1404 0056 FFF7FEFF 		bl	_test_assert
 1405 005a 0346     		mov	r3, r0
 1406 005c 002B     		cmp	r3, #0
 1407 005e 1ED1     		bne	.L91
 1408              		.loc 9 221 0
 1409 0060 1449     		ldr	r1, .L93+12
 1410 0062 1448     		ldr	r0, .L93+12
 1411 0064 FFF7FEFF 		bl	chSemSignalWait
 1412              		.loc 9 222 0
 1413 0068 1248     		ldr	r0, .L93+12
 1414 006a FFF7FEFF 		bl	queue_isempty
 1415 006e 0346     		mov	r3, r0
 1416 0070 1946     		mov	r1, r3
ARM GAS  /tmp/ccUSzzA9.s 			page 26


 1417 0072 0320     		movs	r0, #3
 1418 0074 FFF7FEFF 		bl	_test_assert
 1419 0078 0346     		mov	r3, r0
 1420 007a 002B     		cmp	r3, #0
 1421 007c 11D1     		bne	.L92
 1422              		.loc 9 223 0
 1423 007e 0D4B     		ldr	r3, .L93+12
 1424 0080 9B68     		ldr	r3, [r3, #8]
 1425 0082 002B     		cmp	r3, #0
 1426 0084 0CBF     		ite	eq
 1427 0086 0123     		moveq	r3, #1
 1428 0088 0023     		movne	r3, #0
 1429 008a DBB2     		uxtb	r3, r3
 1430 008c 1946     		mov	r1, r3
 1431 008e 0420     		movs	r0, #4
 1432 0090 FFF7FEFF 		bl	_test_assert
 1433 0094 0346     		mov	r3, r0
 1434 0096 002B     		cmp	r3, #0
 1435 0098 04E0     		b	.L85
 1436              	.L90:
 1437              		.loc 9 218 0
 1438 009a 00BF     		nop
 1439 009c 02E0     		b	.L85
 1440              	.L91:
 1441              		.loc 9 219 0
 1442 009e 00BF     		nop
 1443 00a0 00E0     		b	.L85
 1444              	.L92:
 1445              		.loc 9 222 0
 1446 00a2 00BF     		nop
 1447              	.L85:
 1448              		.loc 9 224 0
 1449 00a4 02B0     		add	sp, sp, #8
 1450              		.cfi_def_cfa_offset 8
 1451              		@ sp needed
 1452 00a6 10BD     		pop	{r4, pc}
 1453              	.L94:
 1454              		.align	2
 1455              	.L93:
 1456 00a8 00000000 		.word	wa
 1457 00ac 00000000 		.word	thread3
 1458 00b0 00000000 		.word	threads
 1459 00b4 00000000 		.word	sem1
 1460              		.cfi_endproc
 1461              	.LFE239:
 1462              		.size	sem3_execute, .-sem3_execute
 1463              		.global	testsem3
 1464              		.section	.rodata
 1465              		.align	2
 1466              	.LC8:
 1467 0048 53656D61 		.ascii	"Semaphores, atomic signal-wait\000"
 1467      70686F72 
 1467      65732C20 
 1467      61746F6D 
 1467      69632073 
 1468              		.section	.rodata.testsem3,"a",%progbits
 1469              		.align	2
ARM GAS  /tmp/ccUSzzA9.s 			page 27


 1470              		.type	testsem3, %object
 1471              		.size	testsem3, 16
 1472              	testsem3:
 1473 0000 48000000 		.word	.LC8
 1474 0004 00000000 		.word	sem3_setup
 1475 0008 00000000 		.word	0
 1476 000c 00000000 		.word	sem3_execute
 1477              		.section	.text.thread4,"ax",%progbits
 1478              		.align	1
 1479              		.p2align 4,,15
 1480              		.syntax unified
 1481              		.thumb
 1482              		.thumb_func
 1483              		.fpu fpv4-sp-d16
 1484              		.type	thread4, %function
 1485              	thread4:
 1486              	.LFB240:
 1487              		.loc 9 241 0
 1488              		.cfi_startproc
 1489              		@ args = 0, pretend = 0, frame = 8
 1490              		@ frame_needed = 0, uses_anonymous_args = 0
 1491 0000 00B5     		push	{lr}
 1492              		.cfi_def_cfa_offset 4
 1493              		.cfi_offset 14, -4
 1494 0002 83B0     		sub	sp, sp, #12
 1495              		.cfi_def_cfa_offset 16
 1496 0004 0190     		str	r0, [sp, #4]
 1497              		.loc 9 243 0
 1498 0006 0198     		ldr	r0, [sp, #4]
 1499 0008 FFF7FEFF 		bl	chBSemSignal
 1500              		.loc 9 244 0
 1501 000c 00BF     		nop
 1502 000e 03B0     		add	sp, sp, #12
 1503              		.cfi_def_cfa_offset 4
 1504              		@ sp needed
 1505 0010 5DF804FB 		ldr	pc, [sp], #4
 1506              		.cfi_endproc
 1507              	.LFE240:
 1508              		.size	thread4, .-thread4
 1509              		.section	.text.sem4_execute,"ax",%progbits
 1510              		.align	1
 1511              		.p2align 4,,15
 1512              		.syntax unified
 1513              		.thumb
 1514              		.thumb_func
 1515              		.fpu fpv4-sp-d16
 1516              		.type	sem4_execute, %function
 1517              	sem4_execute:
 1518              	.LFB241:
 1519              		.loc 9 246 0
 1520              		.cfi_startproc
 1521              		@ args = 0, pretend = 0, frame = 16
 1522              		@ frame_needed = 0, uses_anonymous_args = 0
 1523 0000 10B5     		push	{r4, lr}
 1524              		.cfi_def_cfa_offset 8
 1525              		.cfi_offset 4, -8
 1526              		.cfi_offset 14, -4
ARM GAS  /tmp/ccUSzzA9.s 			page 28


 1527 0002 86B0     		sub	sp, sp, #24
 1528              		.cfi_def_cfa_offset 32
 1529              		.loc 9 250 0
 1530 0004 03AB     		add	r3, sp, #12
 1531 0006 0121     		movs	r1, #1
 1532 0008 1846     		mov	r0, r3
 1533 000a FFF7FEFF 		bl	chBSemObjectInit
 1534              		.loc 9 251 0
 1535 000e 03AB     		add	r3, sp, #12
 1536 0010 0121     		movs	r1, #1
 1537 0012 1846     		mov	r0, r3
 1538 0014 FFF7FEFF 		bl	chBSemReset
 1539              		.loc 9 252 0
 1540 0018 FFF7FEFF 		bl	chSysLock
 1541 001c 03AB     		add	r3, sp, #12
 1542 001e 1846     		mov	r0, r3
 1543 0020 FFF7FEFF 		bl	chBSemGetStateI
 1544 0024 0346     		mov	r3, r0
 1545 0026 1946     		mov	r1, r3
 1546 0028 0120     		movs	r0, #1
 1547 002a FFF7FEFF 		bl	_test_assert
 1548 002e 0346     		mov	r3, r0
 1549 0030 002B     		cmp	r3, #0
 1550 0032 02D0     		beq	.L97
 1551              		.loc 9 252 0 is_stmt 0 discriminator 1
 1552 0034 FFF7FEFF 		bl	chSysUnlock
 1553 0038 9DE0     		b	.L96
 1554              	.L97:
 1555              		.loc 9 252 0 discriminator 2
 1556 003a FFF7FEFF 		bl	chSysUnlock
 1557              		.loc 9 255 0 is_stmt 1 discriminator 2
 1558 003e 4F4B     		ldr	r3, .L105
 1559 0040 1C68     		ldr	r4, [r3]
 1560              		.loc 9 256 0 discriminator 2
 1561 0042 FFF7FEFF 		bl	chThdGetPriorityX
 1562 0046 0346     		mov	r3, r0
 1563              		.loc 9 255 0 discriminator 2
 1564 0048 5A1E     		subs	r2, r3, #1
 1565 004a 03AB     		add	r3, sp, #12
 1566 004c 0093     		str	r3, [sp]
 1567 004e 4C4B     		ldr	r3, .L105+4
 1568 0050 4FF4F871 		mov	r1, #496
 1569 0054 2046     		mov	r0, r4
 1570 0056 FFF7FEFF 		bl	chThdCreateStatic
 1571 005a 0246     		mov	r2, r0
 1572 005c 494B     		ldr	r3, .L105+8
 1573 005e 1A60     		str	r2, [r3]
 1574              		.loc 9 259 0 discriminator 2
 1575 0060 03AB     		add	r3, sp, #12
 1576 0062 1846     		mov	r0, r3
 1577 0064 FFF7FEFF 		bl	chBSemWait
 1578              		.loc 9 262 0 discriminator 2
 1579 0068 FFF7FEFF 		bl	chSysLock
 1580 006c 03AB     		add	r3, sp, #12
 1581 006e 1846     		mov	r0, r3
 1582 0070 FFF7FEFF 		bl	chBSemGetStateI
 1583 0074 0346     		mov	r3, r0
ARM GAS  /tmp/ccUSzzA9.s 			page 29


 1584 0076 1946     		mov	r1, r3
 1585 0078 0220     		movs	r0, #2
 1586 007a FFF7FEFF 		bl	_test_assert
 1587 007e 0346     		mov	r3, r0
 1588 0080 002B     		cmp	r3, #0
 1589 0082 02D0     		beq	.L99
 1590              		.loc 9 262 0 is_stmt 0 discriminator 1
 1591 0084 FFF7FEFF 		bl	chSysUnlock
 1592 0088 75E0     		b	.L96
 1593              	.L99:
 1594              		.loc 9 262 0 discriminator 2
 1595 008a FFF7FEFF 		bl	chSysUnlock
 1596              		.loc 9 266 0 is_stmt 1 discriminator 2
 1597 008e 03AB     		add	r3, sp, #12
 1598 0090 1846     		mov	r0, r3
 1599 0092 FFF7FEFF 		bl	chBSemSignal
 1600              		.loc 9 267 0 discriminator 2
 1601 0096 FFF7FEFF 		bl	chSysLock
 1602 009a 03AB     		add	r3, sp, #12
 1603 009c 1846     		mov	r0, r3
 1604 009e FFF7FEFF 		bl	chBSemGetStateI
 1605 00a2 0346     		mov	r3, r0
 1606 00a4 002B     		cmp	r3, #0
 1607 00a6 14BF     		ite	ne
 1608 00a8 0123     		movne	r3, #1
 1609 00aa 0023     		moveq	r3, #0
 1610 00ac DBB2     		uxtb	r3, r3
 1611 00ae 83F00103 		eor	r3, r3, #1
 1612 00b2 DBB2     		uxtb	r3, r3
 1613 00b4 03F00103 		and	r3, r3, #1
 1614 00b8 DBB2     		uxtb	r3, r3
 1615 00ba 1946     		mov	r1, r3
 1616 00bc 0320     		movs	r0, #3
 1617 00be FFF7FEFF 		bl	_test_assert
 1618 00c2 0346     		mov	r3, r0
 1619 00c4 002B     		cmp	r3, #0
 1620 00c6 02D0     		beq	.L100
 1621              		.loc 9 267 0 is_stmt 0 discriminator 1
 1622 00c8 FFF7FEFF 		bl	chSysUnlock
 1623 00cc 53E0     		b	.L96
 1624              	.L100:
 1625              		.loc 9 267 0 discriminator 2
 1626 00ce FFF7FEFF 		bl	chSysUnlock
 1627              		.loc 9 268 0 is_stmt 1 discriminator 2
 1628 00d2 FFF7FEFF 		bl	chSysLock
 1629 00d6 03AB     		add	r3, sp, #12
 1630 00d8 1846     		mov	r0, r3
 1631 00da FFF7FEFF 		bl	chSemGetCounterI
 1632 00de 0346     		mov	r3, r0
 1633 00e0 012B     		cmp	r3, #1
 1634 00e2 0CBF     		ite	eq
 1635 00e4 0123     		moveq	r3, #1
 1636 00e6 0023     		movne	r3, #0
 1637 00e8 DBB2     		uxtb	r3, r3
 1638 00ea 1946     		mov	r1, r3
 1639 00ec 0420     		movs	r0, #4
 1640 00ee FFF7FEFF 		bl	_test_assert
ARM GAS  /tmp/ccUSzzA9.s 			page 30


 1641 00f2 0346     		mov	r3, r0
 1642 00f4 002B     		cmp	r3, #0
 1643 00f6 02D0     		beq	.L101
 1644              		.loc 9 268 0 is_stmt 0 discriminator 1
 1645 00f8 FFF7FEFF 		bl	chSysUnlock
 1646 00fc 3BE0     		b	.L96
 1647              	.L101:
 1648              		.loc 9 268 0 discriminator 2
 1649 00fe FFF7FEFF 		bl	chSysUnlock
 1650              		.loc 9 271 0 is_stmt 1 discriminator 2
 1651 0102 03AB     		add	r3, sp, #12
 1652 0104 1846     		mov	r0, r3
 1653 0106 FFF7FEFF 		bl	chBSemSignal
 1654              		.loc 9 272 0 discriminator 2
 1655 010a FFF7FEFF 		bl	chSysLock
 1656 010e 03AB     		add	r3, sp, #12
 1657 0110 1846     		mov	r0, r3
 1658 0112 FFF7FEFF 		bl	chBSemGetStateI
 1659 0116 0346     		mov	r3, r0
 1660 0118 002B     		cmp	r3, #0
 1661 011a 14BF     		ite	ne
 1662 011c 0123     		movne	r3, #1
 1663 011e 0023     		moveq	r3, #0
 1664 0120 DBB2     		uxtb	r3, r3
 1665 0122 83F00103 		eor	r3, r3, #1
 1666 0126 DBB2     		uxtb	r3, r3
 1667 0128 03F00103 		and	r3, r3, #1
 1668 012c DBB2     		uxtb	r3, r3
 1669 012e 1946     		mov	r1, r3
 1670 0130 0320     		movs	r0, #3
 1671 0132 FFF7FEFF 		bl	_test_assert
 1672 0136 0346     		mov	r3, r0
 1673 0138 002B     		cmp	r3, #0
 1674 013a 02D0     		beq	.L102
 1675              		.loc 9 272 0 is_stmt 0 discriminator 1
 1676 013c FFF7FEFF 		bl	chSysUnlock
 1677 0140 19E0     		b	.L96
 1678              	.L102:
 1679              		.loc 9 272 0 discriminator 2
 1680 0142 FFF7FEFF 		bl	chSysUnlock
 1681              		.loc 9 273 0 is_stmt 1 discriminator 2
 1682 0146 FFF7FEFF 		bl	chSysLock
 1683 014a 03AB     		add	r3, sp, #12
 1684 014c 1846     		mov	r0, r3
 1685 014e FFF7FEFF 		bl	chSemGetCounterI
 1686 0152 0346     		mov	r3, r0
 1687 0154 012B     		cmp	r3, #1
 1688 0156 0CBF     		ite	eq
 1689 0158 0123     		moveq	r3, #1
 1690 015a 0023     		movne	r3, #0
 1691 015c DBB2     		uxtb	r3, r3
 1692 015e 1946     		mov	r1, r3
 1693 0160 0520     		movs	r0, #5
 1694 0162 FFF7FEFF 		bl	_test_assert
 1695 0166 0346     		mov	r3, r0
 1696 0168 002B     		cmp	r3, #0
 1697 016a 02D0     		beq	.L103
ARM GAS  /tmp/ccUSzzA9.s 			page 31


 1698              		.loc 9 273 0 is_stmt 0 discriminator 1
 1699 016c FFF7FEFF 		bl	chSysUnlock
 1700 0170 01E0     		b	.L96
 1701              	.L103:
 1702              		.loc 9 273 0 discriminator 2
 1703 0172 FFF7FEFF 		bl	chSysUnlock
 1704              	.L96:
 1705              		.loc 9 274 0 is_stmt 1
 1706 0176 06B0     		add	sp, sp, #24
 1707              		.cfi_def_cfa_offset 8
 1708              		@ sp needed
 1709 0178 10BD     		pop	{r4, pc}
 1710              	.L106:
 1711 017a 00BF     		.align	2
 1712              	.L105:
 1713 017c 00000000 		.word	wa
 1714 0180 00000000 		.word	thread4
 1715 0184 00000000 		.word	threads
 1716              		.cfi_endproc
 1717              	.LFE241:
 1718              		.size	sem4_execute, .-sem4_execute
 1719              		.global	testsem4
 1720              		.section	.rodata
 1721 0067 00       		.align	2
 1722              	.LC9:
 1723 0068 42696E61 		.ascii	"Binary Semaphores, functionality\000"
 1723      72792053 
 1723      656D6170 
 1723      686F7265 
 1723      732C2066 
 1724              		.section	.rodata.testsem4,"a",%progbits
 1725              		.align	2
 1726              		.type	testsem4, %object
 1727              		.size	testsem4, 16
 1728              	testsem4:
 1729 0000 68000000 		.word	.LC9
 1730 0004 00000000 		.word	0
 1731 0008 00000000 		.word	0
 1732 000c 00000000 		.word	sem4_execute
 1733              		.global	patternsem
 1734              		.section	.rodata.patternsem,"a",%progbits
 1735              		.align	2
 1736              		.type	patternsem, %object
 1737              		.size	patternsem, 20
 1738              	patternsem:
 1739 0000 00000000 		.word	testsem1
 1740 0004 00000000 		.word	testsem2
 1741 0008 00000000 		.word	testsem3
 1742 000c 00000000 		.word	testsem4
 1743 0010 00000000 		.word	0
 1744              		.section	.rodata.__func__.7157,"a",%progbits
 1745              		.align	2
 1746              		.type	__func__.7157, %object
 1747              		.size	__func__.7157, 12
 1748              	__func__.7157:
 1749 0000 63685379 		.ascii	"chSysUnlock\000"
 1749      73556E6C 
ARM GAS  /tmp/ccUSzzA9.s 			page 32


 1749      6F636B00 
 1750              		.text
 1751              	.Letext0:
 1752              		.file 10 "/usr/lib/gcc/arm-none-eabi/6.3.1/include/stddef.h"
 1753              		.file 11 "/usr/arm-none-eabi/include/machine/_default_types.h"
 1754              		.file 12 "/usr/arm-none-eabi/include/sys/_stdint.h"
 1755              		.file 13 "../ChibiOS/os/rt/ports/ARMCMx/compilers/GCC/chtypes.h"
 1756              		.file 14 "../ChibiOS/os/rt/include/chsystypes.h"
 1757              		.file 15 "../ChibiOS/os/ext/CMSIS/include/core_cm4.h"
 1758              		.file 16 "../ChibiOS/os/ext/CMSIS/ST/STM32F4xx/system_stm32f4xx.h"
 1759              		.file 17 "../ChibiOS/os/rt/ports/ARMCMx/chcore.h"
 1760              		.file 18 "../ChibiOS/os/rt/include/chtm.h"
 1761              		.file 19 "../ChibiOS/os/rt/include/chstats.h"
 1762              		.file 20 "../ChibiOS/os/rt/include/chmtx.h"
 1763              		.file 21 "../ChibiOS/os/rt/include/chregistry.h"
 1764              		.file 22 "../ChibiOS/test/rt/test.h"