ARM GAS  /tmp/ccfHZjGa.s 			page 1


   1              		.cpu cortex-m4
   2              		.eabi_attribute 27, 1
   3              		.eabi_attribute 28, 1
   4              		.eabi_attribute 20, 1
   5              		.eabi_attribute 21, 1
   6              		.eabi_attribute 23, 3
   7              		.eabi_attribute 24, 1
   8              		.eabi_attribute 25, 1
   9              		.eabi_attribute 26, 1
  10              		.eabi_attribute 30, 6
  11              		.eabi_attribute 34, 1
  12              		.eabi_attribute 18, 4
  13              		.file	"testqueues.c"
  14              		.text
  15              	.Ltext0:
  16              		.cfi_sections	.debug_frame
  17              		.section	.text.port_lock,"ax",%progbits
  18              		.align	1
  19              		.p2align 4,,15
  20              		.syntax unified
  21              		.thumb
  22              		.thumb_func
  23              		.fpu fpv4-sp-d16
  24              		.type	port_lock, %function
  25              	port_lock:
  26              	.LFB127:
  27              		.file 1 "../ChibiOS/os/rt/ports/ARMCMx/chcore_v7m.h"
  28              		.loc 1 456 0
  29              		.cfi_startproc
  30              		@ args = 0, pretend = 0, frame = 8
  31              		@ frame_needed = 0, uses_anonymous_args = 0
  32              		@ link register save eliminated.
  33 0000 82B0     		sub	sp, sp, #8
  34              		.cfi_def_cfa_offset 8
  35 0002 2023     		movs	r3, #32
  36 0004 0193     		str	r3, [sp, #4]
  37              	.LBB6:
  38              	.LBB7:
  39              		.file 2 "../ChibiOS/os/ext/CMSIS/include/core_cmFunc.h"
  40              		.loc 2 548 0
  41 0006 019B     		ldr	r3, [sp, #4]
  42              		.syntax unified
  43              	@ 548 "../ChibiOS/os/ext/CMSIS/include/core_cmFunc.h" 1
  44 0008 83F31188 		MSR basepri, r3
  45              	@ 0 "" 2
  46              		.thumb
  47              		.syntax unified
  48              	.LBE7:
  49              	.LBE6:
  50              		.loc 1 473 0
  51 000c 00BF     		nop
  52 000e 02B0     		add	sp, sp, #8
  53              		.cfi_def_cfa_offset 0
  54              		@ sp needed
  55 0010 7047     		bx	lr
  56              		.cfi_endproc
  57              	.LFE127:
ARM GAS  /tmp/ccfHZjGa.s 			page 2


  58              		.size	port_lock, .-port_lock
  59 0012 00BF     		.section	.text.port_unlock,"ax",%progbits
  60              		.align	1
  61              		.p2align 4,,15
  62              		.syntax unified
  63              		.thumb
  64              		.thumb_func
  65              		.fpu fpv4-sp-d16
  66              		.type	port_unlock, %function
  67              	port_unlock:
  68              	.LFB128:
  69              		.loc 1 480 0
  70              		.cfi_startproc
  71              		@ args = 0, pretend = 0, frame = 8
  72              		@ frame_needed = 0, uses_anonymous_args = 0
  73              		@ link register save eliminated.
  74 0000 82B0     		sub	sp, sp, #8
  75              		.cfi_def_cfa_offset 8
  76 0002 0023     		movs	r3, #0
  77 0004 0193     		str	r3, [sp, #4]
  78              	.LBB8:
  79              	.LBB9:
  80              		.loc 2 548 0
  81 0006 019B     		ldr	r3, [sp, #4]
  82              		.syntax unified
  83              	@ 548 "../ChibiOS/os/ext/CMSIS/include/core_cmFunc.h" 1
  84 0008 83F31188 		MSR basepri, r3
  85              	@ 0 "" 2
  86              		.thumb
  87              		.syntax unified
  88              	.LBE9:
  89              	.LBE8:
  90              		.loc 1 487 0
  91 000c 00BF     		nop
  92 000e 02B0     		add	sp, sp, #8
  93              		.cfi_def_cfa_offset 0
  94              		@ sp needed
  95 0010 7047     		bx	lr
  96              		.cfi_endproc
  97              	.LFE128:
  98              		.size	port_unlock, .-port_unlock
  99 0012 00BF     		.section	.text.chSysLock,"ax",%progbits
 100              		.align	1
 101              		.p2align 4,,15
 102              		.syntax unified
 103              		.thumb
 104              		.thumb_func
 105              		.fpu fpv4-sp-d16
 106              		.type	chSysLock, %function
 107              	chSysLock:
 108              	.LFB156:
 109              		.file 3 "../ChibiOS/os/rt/include/chsys.h"
 110              		.loc 3 346 0
 111              		.cfi_startproc
 112              		@ args = 0, pretend = 0, frame = 0
 113              		@ frame_needed = 0, uses_anonymous_args = 0
 114 0000 08B5     		push	{r3, lr}
ARM GAS  /tmp/ccfHZjGa.s 			page 3


 115              		.cfi_def_cfa_offset 8
 116              		.cfi_offset 3, -8
 117              		.cfi_offset 14, -4
 118              		.loc 3 348 0
 119 0002 FFF7FEFF 		bl	port_lock
 120              		.loc 3 349 0
 121 0006 FFF7FEFF 		bl	_stats_start_measure_crit_thd
 122              		.loc 3 350 0
 123 000a FFF7FEFF 		bl	_dbg_check_lock
 124              		.loc 3 351 0
 125 000e 00BF     		nop
 126 0010 08BD     		pop	{r3, pc}
 127              		.cfi_endproc
 128              	.LFE156:
 129              		.size	chSysLock, .-chSysLock
 130 0012 00BF     		.section	.text.chSysUnlock,"ax",%progbits
 131              		.align	1
 132              		.p2align 4,,15
 133              		.syntax unified
 134              		.thumb
 135              		.thumb_func
 136              		.fpu fpv4-sp-d16
 137              		.type	chSysUnlock, %function
 138              	chSysUnlock:
 139              	.LFB157:
 140              		.loc 3 358 0
 141              		.cfi_startproc
 142              		@ args = 0, pretend = 0, frame = 0
 143              		@ frame_needed = 0, uses_anonymous_args = 0
 144 0000 08B5     		push	{r3, lr}
 145              		.cfi_def_cfa_offset 8
 146              		.cfi_offset 3, -8
 147              		.cfi_offset 14, -4
 148              		.loc 3 360 0
 149 0002 FFF7FEFF 		bl	_dbg_check_unlock
 150              		.loc 3 361 0
 151 0006 FFF7FEFF 		bl	_stats_stop_measure_crit_thd
 152              		.loc 3 367 0
 153 000a 0A4B     		ldr	r3, .L6
 154 000c 1B68     		ldr	r3, [r3]
 155 000e 094A     		ldr	r2, .L6
 156 0010 9342     		cmp	r3, r2
 157 0012 0AD0     		beq	.L5
 158              		.loc 3 367 0 is_stmt 0 discriminator 2
 159 0014 074B     		ldr	r3, .L6
 160 0016 9B69     		ldr	r3, [r3, #24]
 161 0018 9A68     		ldr	r2, [r3, #8]
 162 001a 064B     		ldr	r3, .L6
 163 001c 1B68     		ldr	r3, [r3]
 164 001e 9B68     		ldr	r3, [r3, #8]
 165 0020 9A42     		cmp	r2, r3
 166 0022 02D2     		bcs	.L5
 167              		.loc 3 367 0 discriminator 3
 168 0024 0448     		ldr	r0, .L6+4
 169 0026 FFF7FEFF 		bl	chSysHalt
 170              	.L5:
 171              		.loc 3 371 0 is_stmt 1
ARM GAS  /tmp/ccfHZjGa.s 			page 4


 172 002a FFF7FEFF 		bl	port_unlock
 173              		.loc 3 372 0
 174 002e 00BF     		nop
 175 0030 08BD     		pop	{r3, pc}
 176              	.L7:
 177 0032 00BF     		.align	2
 178              	.L6:
 179 0034 00000000 		.word	ch
 180 0038 00000000 		.word	__func__.7157
 181              		.cfi_endproc
 182              	.LFE157:
 183              		.size	chSysUnlock, .-chSysUnlock
 184              		.section	.text.chThdGetSelfX,"ax",%progbits
 185              		.align	1
 186              		.p2align 4,,15
 187              		.syntax unified
 188              		.thumb
 189              		.thumb_func
 190              		.fpu fpv4-sp-d16
 191              		.type	chThdGetSelfX, %function
 192              	chThdGetSelfX:
 193              	.LFB178:
 194              		.file 4 "../ChibiOS/os/rt/include/chthreads.h"
 195              		.loc 4 174 0
 196              		.cfi_startproc
 197              		@ args = 0, pretend = 0, frame = 0
 198              		@ frame_needed = 0, uses_anonymous_args = 0
 199              		@ link register save eliminated.
 200              		.loc 4 176 0
 201 0000 014B     		ldr	r3, .L10
 202 0002 9B69     		ldr	r3, [r3, #24]
 203              		.loc 4 177 0
 204 0004 1846     		mov	r0, r3
 205 0006 7047     		bx	lr
 206              	.L11:
 207              		.align	2
 208              	.L10:
 209 0008 00000000 		.word	ch
 210              		.cfi_endproc
 211              	.LFE178:
 212              		.size	chThdGetSelfX, .-chThdGetSelfX
 213              		.section	.text.chThdGetPriorityX,"ax",%progbits
 214              		.align	1
 215              		.p2align 4,,15
 216              		.syntax unified
 217              		.thumb
 218              		.thumb_func
 219              		.fpu fpv4-sp-d16
 220              		.type	chThdGetPriorityX, %function
 221              	chThdGetPriorityX:
 222              	.LFB179:
 223              		.loc 4 187 0
 224              		.cfi_startproc
 225              		@ args = 0, pretend = 0, frame = 0
 226              		@ frame_needed = 0, uses_anonymous_args = 0
 227 0000 08B5     		push	{r3, lr}
 228              		.cfi_def_cfa_offset 8
ARM GAS  /tmp/ccfHZjGa.s 			page 5


 229              		.cfi_offset 3, -8
 230              		.cfi_offset 14, -4
 231              		.loc 4 189 0
 232 0002 FFF7FEFF 		bl	chThdGetSelfX
 233 0006 0346     		mov	r3, r0
 234 0008 9B68     		ldr	r3, [r3, #8]
 235              		.loc 4 190 0
 236 000a 1846     		mov	r0, r3
 237 000c 08BD     		pop	{r3, pc}
 238              		.cfi_endproc
 239              	.LFE179:
 240              		.size	chThdGetPriorityX, .-chThdGetPriorityX
 241 000e 00BF     		.section	.text.chIQGetFullI,"ax",%progbits
 242              		.align	1
 243              		.p2align 4,,15
 244              		.syntax unified
 245              		.thumb
 246              		.thumb_func
 247              		.fpu fpv4-sp-d16
 248              		.type	chIQGetFullI, %function
 249              	chIQGetFullI:
 250              	.LFB221:
 251              		.file 5 "../ChibiOS/os/rt/include/chqueues.h"
 252              		.loc 5 270 0
 253              		.cfi_startproc
 254              		@ args = 0, pretend = 0, frame = 8
 255              		@ frame_needed = 0, uses_anonymous_args = 0
 256 0000 00B5     		push	{lr}
 257              		.cfi_def_cfa_offset 4
 258              		.cfi_offset 14, -4
 259 0002 83B0     		sub	sp, sp, #12
 260              		.cfi_def_cfa_offset 16
 261 0004 0190     		str	r0, [sp, #4]
 262              		.loc 5 272 0
 263 0006 FFF7FEFF 		bl	chDbgCheckClassI
 264              		.loc 5 274 0
 265 000a 019B     		ldr	r3, [sp, #4]
 266 000c 9B68     		ldr	r3, [r3, #8]
 267              		.loc 5 275 0
 268 000e 1846     		mov	r0, r3
 269 0010 03B0     		add	sp, sp, #12
 270              		.cfi_def_cfa_offset 4
 271              		@ sp needed
 272 0012 5DF804FB 		ldr	pc, [sp], #4
 273              		.cfi_endproc
 274              	.LFE221:
 275              		.size	chIQGetFullI, .-chIQGetFullI
 276 0016 00BF     		.section	.text.chIQIsEmptyI,"ax",%progbits
 277              		.align	1
 278              		.p2align 4,,15
 279              		.syntax unified
 280              		.thumb
 281              		.thumb_func
 282              		.fpu fpv4-sp-d16
 283              		.type	chIQIsEmptyI, %function
 284              	chIQIsEmptyI:
 285              	.LFB223:
ARM GAS  /tmp/ccfHZjGa.s 			page 6


 286              		.loc 5 303 0
 287              		.cfi_startproc
 288              		@ args = 0, pretend = 0, frame = 8
 289              		@ frame_needed = 0, uses_anonymous_args = 0
 290 0000 00B5     		push	{lr}
 291              		.cfi_def_cfa_offset 4
 292              		.cfi_offset 14, -4
 293 0002 83B0     		sub	sp, sp, #12
 294              		.cfi_def_cfa_offset 16
 295 0004 0190     		str	r0, [sp, #4]
 296              		.loc 5 305 0
 297 0006 FFF7FEFF 		bl	chDbgCheckClassI
 298              		.loc 5 307 0
 299 000a 019B     		ldr	r3, [sp, #4]
 300 000c 9B68     		ldr	r3, [r3, #8]
 301 000e 002B     		cmp	r3, #0
 302 0010 0CBF     		ite	eq
 303 0012 0123     		moveq	r3, #1
 304 0014 0023     		movne	r3, #0
 305 0016 DBB2     		uxtb	r3, r3
 306              		.loc 5 308 0
 307 0018 1846     		mov	r0, r3
 308 001a 03B0     		add	sp, sp, #12
 309              		.cfi_def_cfa_offset 4
 310              		@ sp needed
 311 001c 5DF804FB 		ldr	pc, [sp], #4
 312              		.cfi_endproc
 313              	.LFE223:
 314              		.size	chIQIsEmptyI, .-chIQIsEmptyI
 315              		.section	.text.chIQIsFullI,"ax",%progbits
 316              		.align	1
 317              		.p2align 4,,15
 318              		.syntax unified
 319              		.thumb
 320              		.thumb_func
 321              		.fpu fpv4-sp-d16
 322              		.type	chIQIsFullI, %function
 323              	chIQIsFullI:
 324              	.LFB224:
 325              		.loc 5 320 0
 326              		.cfi_startproc
 327              		@ args = 0, pretend = 0, frame = 8
 328              		@ frame_needed = 0, uses_anonymous_args = 0
 329 0000 00B5     		push	{lr}
 330              		.cfi_def_cfa_offset 4
 331              		.cfi_offset 14, -4
 332 0002 83B0     		sub	sp, sp, #12
 333              		.cfi_def_cfa_offset 16
 334 0004 0190     		str	r0, [sp, #4]
 335              		.loc 5 322 0
 336 0006 FFF7FEFF 		bl	chDbgCheckClassI
 337              		.loc 5 325 0
 338 000a 019B     		ldr	r3, [sp, #4]
 339 000c 5A69     		ldr	r2, [r3, #20]
 340 000e 019B     		ldr	r3, [sp, #4]
 341 0010 9B69     		ldr	r3, [r3, #24]
 342 0012 9A42     		cmp	r2, r3
ARM GAS  /tmp/ccfHZjGa.s 			page 7


 343 0014 05D1     		bne	.L19
 344              		.loc 5 325 0 is_stmt 0 discriminator 1
 345 0016 019B     		ldr	r3, [sp, #4]
 346 0018 9B68     		ldr	r3, [r3, #8]
 347 001a 002B     		cmp	r3, #0
 348 001c 01D0     		beq	.L19
 349              		.loc 5 325 0 discriminator 3
 350 001e 0123     		movs	r3, #1
 351 0020 00E0     		b	.L20
 352              	.L19:
 353              		.loc 5 325 0 discriminator 4
 354 0022 0023     		movs	r3, #0
 355              	.L20:
 356              		.loc 5 325 0 discriminator 6
 357 0024 03F00103 		and	r3, r3, #1
 358 0028 DBB2     		uxtb	r3, r3
 359              		.loc 5 327 0 is_stmt 1 discriminator 6
 360 002a 1846     		mov	r0, r3
 361 002c 03B0     		add	sp, sp, #12
 362              		.cfi_def_cfa_offset 4
 363              		@ sp needed
 364 002e 5DF804FB 		ldr	pc, [sp], #4
 365              		.cfi_endproc
 366              	.LFE224:
 367              		.size	chIQIsFullI, .-chIQIsFullI
 368 0032 00BF     		.section	.text.chIQGet,"ax",%progbits
 369              		.align	1
 370              		.p2align 4,,15
 371              		.syntax unified
 372              		.thumb
 373              		.thumb_func
 374              		.fpu fpv4-sp-d16
 375              		.type	chIQGet, %function
 376              	chIQGet:
 377              	.LFB225:
 378              		.loc 5 341 0
 379              		.cfi_startproc
 380              		@ args = 0, pretend = 0, frame = 8
 381              		@ frame_needed = 0, uses_anonymous_args = 0
 382 0000 00B5     		push	{lr}
 383              		.cfi_def_cfa_offset 4
 384              		.cfi_offset 14, -4
 385 0002 83B0     		sub	sp, sp, #12
 386              		.cfi_def_cfa_offset 16
 387 0004 0190     		str	r0, [sp, #4]
 388              		.loc 5 343 0
 389 0006 4FF0FF31 		mov	r1, #-1
 390 000a 0198     		ldr	r0, [sp, #4]
 391 000c FFF7FEFF 		bl	chIQGetTimeout
 392 0010 0346     		mov	r3, r0
 393              		.loc 5 344 0
 394 0012 1846     		mov	r0, r3
 395 0014 03B0     		add	sp, sp, #12
 396              		.cfi_def_cfa_offset 4
 397              		@ sp needed
 398 0016 5DF804FB 		ldr	pc, [sp], #4
 399              		.cfi_endproc
ARM GAS  /tmp/ccfHZjGa.s 			page 8


 400              	.LFE225:
 401              		.size	chIQGet, .-chIQGet
 402 001a 00BF     		.section	.text.chOQGetFullI,"ax",%progbits
 403              		.align	1
 404              		.p2align 4,,15
 405              		.syntax unified
 406              		.thumb
 407              		.thumb_func
 408              		.fpu fpv4-sp-d16
 409              		.type	chOQGetFullI, %function
 410              	chOQGetFullI:
 411              	.LFB226:
 412              		.loc 5 355 0
 413              		.cfi_startproc
 414              		@ args = 0, pretend = 0, frame = 8
 415              		@ frame_needed = 0, uses_anonymous_args = 0
 416 0000 00B5     		push	{lr}
 417              		.cfi_def_cfa_offset 4
 418              		.cfi_offset 14, -4
 419 0002 83B0     		sub	sp, sp, #12
 420              		.cfi_def_cfa_offset 16
 421 0004 0190     		str	r0, [sp, #4]
 422              		.loc 5 357 0
 423 0006 FFF7FEFF 		bl	chDbgCheckClassI
 424              		.loc 5 359 0
 425 000a 019B     		ldr	r3, [sp, #4]
 426 000c 1B69     		ldr	r3, [r3, #16]
 427 000e 1A46     		mov	r2, r3
 428 0010 019B     		ldr	r3, [sp, #4]
 429 0012 DB68     		ldr	r3, [r3, #12]
 430 0014 D31A     		subs	r3, r2, r3
 431 0016 1A46     		mov	r2, r3
 432 0018 019B     		ldr	r3, [sp, #4]
 433 001a 9B68     		ldr	r3, [r3, #8]
 434 001c D31A     		subs	r3, r2, r3
 435              		.loc 5 360 0
 436 001e 1846     		mov	r0, r3
 437 0020 03B0     		add	sp, sp, #12
 438              		.cfi_def_cfa_offset 4
 439              		@ sp needed
 440 0022 5DF804FB 		ldr	pc, [sp], #4
 441              		.cfi_endproc
 442              	.LFE226:
 443              		.size	chOQGetFullI, .-chOQGetFullI
 444 0026 00BF     		.section	.text.chOQIsEmptyI,"ax",%progbits
 445              		.align	1
 446              		.p2align 4,,15
 447              		.syntax unified
 448              		.thumb
 449              		.thumb_func
 450              		.fpu fpv4-sp-d16
 451              		.type	chOQIsEmptyI, %function
 452              	chOQIsEmptyI:
 453              	.LFB228:
 454              		.loc 5 388 0
 455              		.cfi_startproc
 456              		@ args = 0, pretend = 0, frame = 8
ARM GAS  /tmp/ccfHZjGa.s 			page 9


 457              		@ frame_needed = 0, uses_anonymous_args = 0
 458 0000 00B5     		push	{lr}
 459              		.cfi_def_cfa_offset 4
 460              		.cfi_offset 14, -4
 461 0002 83B0     		sub	sp, sp, #12
 462              		.cfi_def_cfa_offset 16
 463 0004 0190     		str	r0, [sp, #4]
 464              		.loc 5 390 0
 465 0006 FFF7FEFF 		bl	chDbgCheckClassI
 466              		.loc 5 393 0
 467 000a 019B     		ldr	r3, [sp, #4]
 468 000c 5A69     		ldr	r2, [r3, #20]
 469 000e 019B     		ldr	r3, [sp, #4]
 470 0010 9B69     		ldr	r3, [r3, #24]
 471 0012 9A42     		cmp	r2, r3
 472 0014 05D1     		bne	.L27
 473              		.loc 5 393 0 is_stmt 0 discriminator 1
 474 0016 019B     		ldr	r3, [sp, #4]
 475 0018 9B68     		ldr	r3, [r3, #8]
 476 001a 002B     		cmp	r3, #0
 477 001c 01D0     		beq	.L27
 478              		.loc 5 393 0 discriminator 3
 479 001e 0123     		movs	r3, #1
 480 0020 00E0     		b	.L28
 481              	.L27:
 482              		.loc 5 393 0 discriminator 4
 483 0022 0023     		movs	r3, #0
 484              	.L28:
 485              		.loc 5 393 0 discriminator 6
 486 0024 03F00103 		and	r3, r3, #1
 487 0028 DBB2     		uxtb	r3, r3
 488              		.loc 5 395 0 is_stmt 1 discriminator 6
 489 002a 1846     		mov	r0, r3
 490 002c 03B0     		add	sp, sp, #12
 491              		.cfi_def_cfa_offset 4
 492              		@ sp needed
 493 002e 5DF804FB 		ldr	pc, [sp], #4
 494              		.cfi_endproc
 495              	.LFE228:
 496              		.size	chOQIsEmptyI, .-chOQIsEmptyI
 497 0032 00BF     		.section	.text.chOQIsFullI,"ax",%progbits
 498              		.align	1
 499              		.p2align 4,,15
 500              		.syntax unified
 501              		.thumb
 502              		.thumb_func
 503              		.fpu fpv4-sp-d16
 504              		.type	chOQIsFullI, %function
 505              	chOQIsFullI:
 506              	.LFB229:
 507              		.loc 5 407 0
 508              		.cfi_startproc
 509              		@ args = 0, pretend = 0, frame = 8
 510              		@ frame_needed = 0, uses_anonymous_args = 0
 511 0000 00B5     		push	{lr}
 512              		.cfi_def_cfa_offset 4
 513              		.cfi_offset 14, -4
ARM GAS  /tmp/ccfHZjGa.s 			page 10


 514 0002 83B0     		sub	sp, sp, #12
 515              		.cfi_def_cfa_offset 16
 516 0004 0190     		str	r0, [sp, #4]
 517              		.loc 5 409 0
 518 0006 FFF7FEFF 		bl	chDbgCheckClassI
 519              		.loc 5 411 0
 520 000a 019B     		ldr	r3, [sp, #4]
 521 000c 9B68     		ldr	r3, [r3, #8]
 522 000e 002B     		cmp	r3, #0
 523 0010 0CBF     		ite	eq
 524 0012 0123     		moveq	r3, #1
 525 0014 0023     		movne	r3, #0
 526 0016 DBB2     		uxtb	r3, r3
 527              		.loc 5 412 0
 528 0018 1846     		mov	r0, r3
 529 001a 03B0     		add	sp, sp, #12
 530              		.cfi_def_cfa_offset 4
 531              		@ sp needed
 532 001c 5DF804FB 		ldr	pc, [sp], #4
 533              		.cfi_endproc
 534              	.LFE229:
 535              		.size	chOQIsFullI, .-chOQIsFullI
 536              		.section	.text.chOQPut,"ax",%progbits
 537              		.align	1
 538              		.p2align 4,,15
 539              		.syntax unified
 540              		.thumb
 541              		.thumb_func
 542              		.fpu fpv4-sp-d16
 543              		.type	chOQPut, %function
 544              	chOQPut:
 545              	.LFB230:
 546              		.loc 5 428 0
 547              		.cfi_startproc
 548              		@ args = 0, pretend = 0, frame = 8
 549              		@ frame_needed = 0, uses_anonymous_args = 0
 550 0000 00B5     		push	{lr}
 551              		.cfi_def_cfa_offset 4
 552              		.cfi_offset 14, -4
 553 0002 83B0     		sub	sp, sp, #12
 554              		.cfi_def_cfa_offset 16
 555 0004 0190     		str	r0, [sp, #4]
 556 0006 0B46     		mov	r3, r1
 557 0008 8DF80330 		strb	r3, [sp, #3]
 558              		.loc 5 430 0
 559 000c 9DF80330 		ldrb	r3, [sp, #3]	@ zero_extendqisi2
 560 0010 4FF0FF32 		mov	r2, #-1
 561 0014 1946     		mov	r1, r3
 562 0016 0198     		ldr	r0, [sp, #4]
 563 0018 FFF7FEFF 		bl	chOQPutTimeout
 564 001c 0346     		mov	r3, r0
 565              		.loc 5 431 0
 566 001e 1846     		mov	r0, r3
 567 0020 03B0     		add	sp, sp, #12
 568              		.cfi_def_cfa_offset 4
 569              		@ sp needed
 570 0022 5DF804FB 		ldr	pc, [sp], #4
ARM GAS  /tmp/ccfHZjGa.s 			page 11


 571              		.cfi_endproc
 572              	.LFE230:
 573              		.size	chOQPut, .-chOQPut
 574 0026 00BF     		.section	.text.notify,"ax",%progbits
 575              		.align	1
 576              		.p2align 4,,15
 577              		.syntax unified
 578              		.thumb
 579              		.thumb_func
 580              		.fpu fpv4-sp-d16
 581              		.type	notify, %function
 582              	notify:
 583              	.LFB231:
 584              		.file 6 "../ChibiOS/test/rt/testqueues.c"
 585              		.loc 6 57 0
 586              		.cfi_startproc
 587              		@ args = 0, pretend = 0, frame = 8
 588              		@ frame_needed = 0, uses_anonymous_args = 0
 589              		@ link register save eliminated.
 590 0000 82B0     		sub	sp, sp, #8
 591              		.cfi_def_cfa_offset 8
 592 0002 0190     		str	r0, [sp, #4]
 593              		.loc 6 59 0
 594 0004 00BF     		nop
 595 0006 02B0     		add	sp, sp, #8
 596              		.cfi_def_cfa_offset 0
 597              		@ sp needed
 598 0008 7047     		bx	lr
 599              		.cfi_endproc
 600              	.LFE231:
 601              		.size	notify, .-notify
 602 000a 00BF     		.section	.data.iq,"aw",%progbits
 603              		.align	2
 604              		.type	iq, %object
 605              		.size	iq, 36
 606              	iq:
 607 0000 00000000 		.word	iq
 608 0004 00000000 		.word	iq
 609 0008 00000000 		.word	0
 610 000c 00000000 		.word	test
 611 0010 04000000 		.word	test+4
 612 0014 00000000 		.word	test
 613 0018 00000000 		.word	test
 614 001c 00000000 		.word	notify
 615 0020 00000000 		.word	0
 616              		.section	.data.oq,"aw",%progbits
 617              		.align	2
 618              		.type	oq, %object
 619              		.size	oq, 36
 620              	oq:
 621 0000 00000000 		.word	oq
 622 0004 00000000 		.word	oq
 623 0008 04000000 		.word	4
 624 000c F0010000 		.word	test+496
 625 0010 F4010000 		.word	test+500
 626 0014 F0010000 		.word	test+496
 627 0018 F0010000 		.word	test+496
ARM GAS  /tmp/ccfHZjGa.s 			page 12


 628 001c 00000000 		.word	notify
 629 0020 00000000 		.word	0
 630              		.section	.text.queues1_setup,"ax",%progbits
 631              		.align	1
 632              		.p2align 4,,15
 633              		.syntax unified
 634              		.thumb
 635              		.thumb_func
 636              		.fpu fpv4-sp-d16
 637              		.type	queues1_setup, %function
 638              	queues1_setup:
 639              	.LFB232:
 640              		.loc 6 78 0
 641              		.cfi_startproc
 642              		@ args = 0, pretend = 0, frame = 0
 643              		@ frame_needed = 0, uses_anonymous_args = 0
 644 0000 00B5     		push	{lr}
 645              		.cfi_def_cfa_offset 4
 646              		.cfi_offset 14, -4
 647 0002 83B0     		sub	sp, sp, #12
 648              		.cfi_def_cfa_offset 16
 649              		.loc 6 80 0
 650 0004 064B     		ldr	r3, .L36
 651 0006 1968     		ldr	r1, [r3]
 652 0008 0023     		movs	r3, #0
 653 000a 0093     		str	r3, [sp]
 654 000c 054B     		ldr	r3, .L36+4
 655 000e 0422     		movs	r2, #4
 656 0010 0548     		ldr	r0, .L36+8
 657 0012 FFF7FEFF 		bl	chIQObjectInit
 658              		.loc 6 81 0
 659 0016 00BF     		nop
 660 0018 03B0     		add	sp, sp, #12
 661              		.cfi_def_cfa_offset 4
 662              		@ sp needed
 663 001a 5DF804FB 		ldr	pc, [sp], #4
 664              	.L37:
 665 001e 00BF     		.align	2
 666              	.L36:
 667 0020 00000000 		.word	wa
 668 0024 00000000 		.word	notify
 669 0028 00000000 		.word	iq
 670              		.cfi_endproc
 671              	.LFE232:
 672              		.size	queues1_setup, .-queues1_setup
 673              		.section	.text.thread1,"ax",%progbits
 674              		.align	1
 675              		.p2align 4,,15
 676              		.syntax unified
 677              		.thumb
 678              		.thumb_func
 679              		.fpu fpv4-sp-d16
 680              		.type	thread1, %function
 681              	thread1:
 682              	.LFB233:
 683              		.loc 6 83 0
 684              		.cfi_startproc
ARM GAS  /tmp/ccfHZjGa.s 			page 13


 685              		@ args = 0, pretend = 0, frame = 8
 686              		@ frame_needed = 0, uses_anonymous_args = 0
 687 0000 00B5     		push	{lr}
 688              		.cfi_def_cfa_offset 4
 689              		.cfi_offset 14, -4
 690 0002 83B0     		sub	sp, sp, #12
 691              		.cfi_def_cfa_offset 16
 692 0004 0190     		str	r0, [sp, #4]
 693              		.loc 6 86 0
 694 0006 4FF4FA61 		mov	r1, #2000
 695 000a 0348     		ldr	r0, .L39
 696 000c FFF7FEFF 		bl	chIQGetTimeout
 697              		.loc 6 87 0
 698 0010 00BF     		nop
 699 0012 03B0     		add	sp, sp, #12
 700              		.cfi_def_cfa_offset 4
 701              		@ sp needed
 702 0014 5DF804FB 		ldr	pc, [sp], #4
 703              	.L40:
 704              		.align	2
 705              	.L39:
 706 0018 00000000 		.word	iq
 707              		.cfi_endproc
 708              	.LFE233:
 709              		.size	thread1, .-thread1
 710              		.section	.rodata
 711              		.align	2
 712              	.LC0:
 713 0000 41424344 		.ascii	"ABCD\000"
 713      00
 714              		.section	.text.queues1_execute,"ax",%progbits
 715              		.align	1
 716              		.p2align 4,,15
 717              		.syntax unified
 718              		.thumb
 719              		.thumb_func
 720              		.fpu fpv4-sp-d16
 721              		.type	queues1_execute, %function
 722              	queues1_execute:
 723              	.LFB234:
 724              		.loc 6 89 0
 725              		.cfi_startproc
 726              		@ args = 0, pretend = 0, frame = 8
 727              		@ frame_needed = 0, uses_anonymous_args = 0
 728 0000 10B5     		push	{r4, lr}
 729              		.cfi_def_cfa_offset 8
 730              		.cfi_offset 4, -8
 731              		.cfi_offset 14, -4
 732 0002 84B0     		sub	sp, sp, #16
 733              		.cfi_def_cfa_offset 24
 734              		.loc 6 94 0
 735 0004 FFF7FEFF 		bl	chSysLock
 736 0008 B848     		ldr	r0, .L67
 737 000a FFF7FEFF 		bl	chIQIsEmptyI
 738 000e 0346     		mov	r3, r0
 739 0010 1946     		mov	r1, r3
 740 0012 0120     		movs	r0, #1
ARM GAS  /tmp/ccfHZjGa.s 			page 14


 741 0014 FFF7FEFF 		bl	_test_assert
 742 0018 0346     		mov	r3, r0
 743 001a 002B     		cmp	r3, #0
 744 001c 02D0     		beq	.L42
 745              		.loc 6 94 0 is_stmt 0 discriminator 1
 746 001e FFF7FEFF 		bl	chSysUnlock
 747 0022 60E1     		b	.L41
 748              	.L42:
 749              		.loc 6 94 0 discriminator 2
 750 0024 FFF7FEFF 		bl	chSysUnlock
 751              		.loc 6 97 0 is_stmt 1 discriminator 2
 752 0028 FFF7FEFF 		bl	chSysLock
 753              		.loc 6 98 0 discriminator 2
 754 002c 0023     		movs	r3, #0
 755 002e 0393     		str	r3, [sp, #12]
 756 0030 0AE0     		b	.L44
 757              	.L45:
 758              		.loc 6 99 0 discriminator 3
 759 0032 039B     		ldr	r3, [sp, #12]
 760 0034 DBB2     		uxtb	r3, r3
 761 0036 4133     		adds	r3, r3, #65
 762 0038 DBB2     		uxtb	r3, r3
 763 003a 1946     		mov	r1, r3
 764 003c AB48     		ldr	r0, .L67
 765 003e FFF7FEFF 		bl	chIQPutI
 766              		.loc 6 98 0 discriminator 3
 767 0042 039B     		ldr	r3, [sp, #12]
 768 0044 0133     		adds	r3, r3, #1
 769 0046 0393     		str	r3, [sp, #12]
 770              	.L44:
 771              		.loc 6 98 0 is_stmt 0 discriminator 1
 772 0048 039B     		ldr	r3, [sp, #12]
 773 004a 032B     		cmp	r3, #3
 774 004c F1D9     		bls	.L45
 775              		.loc 6 100 0 is_stmt 1
 776 004e FFF7FEFF 		bl	chSysUnlock
 777              		.loc 6 101 0
 778 0052 FFF7FEFF 		bl	chSysLock
 779 0056 A548     		ldr	r0, .L67
 780 0058 FFF7FEFF 		bl	chIQIsFullI
 781 005c 0346     		mov	r3, r0
 782 005e 1946     		mov	r1, r3
 783 0060 0220     		movs	r0, #2
 784 0062 FFF7FEFF 		bl	_test_assert
 785 0066 0346     		mov	r3, r0
 786 0068 002B     		cmp	r3, #0
 787 006a 02D0     		beq	.L46
 788              		.loc 6 101 0 is_stmt 0 discriminator 1
 789 006c FFF7FEFF 		bl	chSysUnlock
 790 0070 39E1     		b	.L41
 791              	.L46:
 792              		.loc 6 101 0 discriminator 2
 793 0072 FFF7FEFF 		bl	chSysUnlock
 794              		.loc 6 102 0 is_stmt 1 discriminator 2
 795 0076 FFF7FEFF 		bl	chSysLock
 796 007a 0021     		movs	r1, #0
 797 007c 9B48     		ldr	r0, .L67
ARM GAS  /tmp/ccfHZjGa.s 			page 15


 798 007e FFF7FEFF 		bl	chIQPutI
 799 0082 0346     		mov	r3, r0
 800 0084 13F1040F 		cmn	r3, #4
 801 0088 0CBF     		ite	eq
 802 008a 0123     		moveq	r3, #1
 803 008c 0023     		movne	r3, #0
 804 008e DBB2     		uxtb	r3, r3
 805 0090 1946     		mov	r1, r3
 806 0092 0320     		movs	r0, #3
 807 0094 FFF7FEFF 		bl	_test_assert
 808 0098 0346     		mov	r3, r0
 809 009a 002B     		cmp	r3, #0
 810 009c 02D0     		beq	.L47
 811              		.loc 6 102 0 is_stmt 0 discriminator 1
 812 009e FFF7FEFF 		bl	chSysUnlock
 813 00a2 20E1     		b	.L41
 814              	.L47:
 815              		.loc 6 102 0 discriminator 2
 816 00a4 FFF7FEFF 		bl	chSysUnlock
 817              		.loc 6 105 0 is_stmt 1 discriminator 2
 818 00a8 0023     		movs	r3, #0
 819 00aa 0393     		str	r3, [sp, #12]
 820 00ac 0AE0     		b	.L48
 821              	.L49:
 822              		.loc 6 106 0 discriminator 3
 823 00ae 8F48     		ldr	r0, .L67
 824 00b0 FFF7FEFF 		bl	chIQGet
 825 00b4 0346     		mov	r3, r0
 826 00b6 DBB2     		uxtb	r3, r3
 827 00b8 1846     		mov	r0, r3
 828 00ba FFF7FEFF 		bl	test_emit_token
 829              		.loc 6 105 0 discriminator 3
 830 00be 039B     		ldr	r3, [sp, #12]
 831 00c0 0133     		adds	r3, r3, #1
 832 00c2 0393     		str	r3, [sp, #12]
 833              	.L48:
 834              		.loc 6 105 0 is_stmt 0 discriminator 1
 835 00c4 039B     		ldr	r3, [sp, #12]
 836 00c6 032B     		cmp	r3, #3
 837 00c8 F1D9     		bls	.L49
 838              		.loc 6 107 0 is_stmt 1
 839 00ca FFF7FEFF 		bl	chSysLock
 840 00ce 8748     		ldr	r0, .L67
 841 00d0 FFF7FEFF 		bl	chIQIsEmptyI
 842 00d4 0346     		mov	r3, r0
 843 00d6 1946     		mov	r1, r3
 844 00d8 0420     		movs	r0, #4
 845 00da FFF7FEFF 		bl	_test_assert
 846 00de 0346     		mov	r3, r0
 847 00e0 002B     		cmp	r3, #0
 848 00e2 02D0     		beq	.L50
 849              		.loc 6 107 0 is_stmt 0 discriminator 1
 850 00e4 FFF7FEFF 		bl	chSysUnlock
 851 00e8 FDE0     		b	.L41
 852              	.L50:
 853              		.loc 6 107 0 discriminator 2
 854 00ea FFF7FEFF 		bl	chSysUnlock
ARM GAS  /tmp/ccfHZjGa.s 			page 16


 855              		.loc 6 108 0 is_stmt 1 discriminator 2
 856 00ee 8049     		ldr	r1, .L67+4
 857 00f0 0520     		movs	r0, #5
 858 00f2 FFF7FEFF 		bl	_test_assert_sequence
 859 00f6 0346     		mov	r3, r0
 860 00f8 002B     		cmp	r3, #0
 861 00fa 40F0ED80 		bne	.L63
 862              		.loc 6 111 0
 863 00fe FFF7FEFF 		bl	chSysLock
 864              		.loc 6 112 0
 865 0102 0023     		movs	r3, #0
 866 0104 0393     		str	r3, [sp, #12]
 867 0106 0AE0     		b	.L52
 868              	.L53:
 869              		.loc 6 113 0 discriminator 3
 870 0108 039B     		ldr	r3, [sp, #12]
 871 010a DBB2     		uxtb	r3, r3
 872 010c 4133     		adds	r3, r3, #65
 873 010e DBB2     		uxtb	r3, r3
 874 0110 1946     		mov	r1, r3
 875 0112 7648     		ldr	r0, .L67
 876 0114 FFF7FEFF 		bl	chIQPutI
 877              		.loc 6 112 0 discriminator 3
 878 0118 039B     		ldr	r3, [sp, #12]
 879 011a 0133     		adds	r3, r3, #1
 880 011c 0393     		str	r3, [sp, #12]
 881              	.L52:
 882              		.loc 6 112 0 is_stmt 0 discriminator 1
 883 011e 039B     		ldr	r3, [sp, #12]
 884 0120 032B     		cmp	r3, #3
 885 0122 F1D9     		bls	.L53
 886              		.loc 6 114 0 is_stmt 1
 887 0124 FFF7FEFF 		bl	chSysUnlock
 888              		.loc 6 117 0
 889 0128 724B     		ldr	r3, .L67+8
 890 012a 5968     		ldr	r1, [r3, #4]
 891 012c 0023     		movs	r3, #0
 892 012e 0822     		movs	r2, #8
 893 0130 6E48     		ldr	r0, .L67
 894 0132 FFF7FEFF 		bl	chIQReadTimeout
 895 0136 0290     		str	r0, [sp, #8]
 896              		.loc 6 118 0
 897 0138 029B     		ldr	r3, [sp, #8]
 898 013a 042B     		cmp	r3, #4
 899 013c 0CBF     		ite	eq
 900 013e 0123     		moveq	r3, #1
 901 0140 0023     		movne	r3, #0
 902 0142 DBB2     		uxtb	r3, r3
 903 0144 1946     		mov	r1, r3
 904 0146 0620     		movs	r0, #6
 905 0148 FFF7FEFF 		bl	_test_assert
 906 014c 0346     		mov	r3, r0
 907 014e 002B     		cmp	r3, #0
 908 0150 40F0C480 		bne	.L64
 909              		.loc 6 119 0
 910 0154 FFF7FEFF 		bl	chSysLock
 911 0158 6448     		ldr	r0, .L67
ARM GAS  /tmp/ccfHZjGa.s 			page 17


 912 015a FFF7FEFF 		bl	chIQIsEmptyI
 913 015e 0346     		mov	r3, r0
 914 0160 1946     		mov	r1, r3
 915 0162 0720     		movs	r0, #7
 916 0164 FFF7FEFF 		bl	_test_assert
 917 0168 0346     		mov	r3, r0
 918 016a 002B     		cmp	r3, #0
 919 016c 02D0     		beq	.L55
 920              		.loc 6 119 0 is_stmt 0 discriminator 1
 921 016e FFF7FEFF 		bl	chSysUnlock
 922 0172 B8E0     		b	.L41
 923              	.L55:
 924              		.loc 6 119 0 discriminator 2
 925 0174 FFF7FEFF 		bl	chSysUnlock
 926              		.loc 6 122 0 is_stmt 1 discriminator 2
 927 0178 FFF7FEFF 		bl	chSysLock
 928              		.loc 6 123 0 discriminator 2
 929 017c 0023     		movs	r3, #0
 930 017e 0393     		str	r3, [sp, #12]
 931 0180 0AE0     		b	.L56
 932              	.L57:
 933              		.loc 6 124 0 discriminator 3
 934 0182 039B     		ldr	r3, [sp, #12]
 935 0184 DBB2     		uxtb	r3, r3
 936 0186 4133     		adds	r3, r3, #65
 937 0188 DBB2     		uxtb	r3, r3
 938 018a 1946     		mov	r1, r3
 939 018c 5748     		ldr	r0, .L67
 940 018e FFF7FEFF 		bl	chIQPutI
 941              		.loc 6 123 0 discriminator 3
 942 0192 039B     		ldr	r3, [sp, #12]
 943 0194 0133     		adds	r3, r3, #1
 944 0196 0393     		str	r3, [sp, #12]
 945              	.L56:
 946              		.loc 6 123 0 is_stmt 0 discriminator 1
 947 0198 039B     		ldr	r3, [sp, #12]
 948 019a 032B     		cmp	r3, #3
 949 019c F1D9     		bls	.L57
 950              		.loc 6 125 0 is_stmt 1
 951 019e FFF7FEFF 		bl	chSysUnlock
 952              		.loc 6 128 0
 953 01a2 544B     		ldr	r3, .L67+8
 954 01a4 5968     		ldr	r1, [r3, #4]
 955 01a6 0023     		movs	r3, #0
 956 01a8 0222     		movs	r2, #2
 957 01aa 5048     		ldr	r0, .L67
 958 01ac FFF7FEFF 		bl	chIQReadTimeout
 959 01b0 0290     		str	r0, [sp, #8]
 960              		.loc 6 129 0
 961 01b2 029B     		ldr	r3, [sp, #8]
 962 01b4 022B     		cmp	r3, #2
 963 01b6 0CBF     		ite	eq
 964 01b8 0123     		moveq	r3, #1
 965 01ba 0023     		movne	r3, #0
 966 01bc DBB2     		uxtb	r3, r3
 967 01be 1946     		mov	r1, r3
 968 01c0 0820     		movs	r0, #8
ARM GAS  /tmp/ccfHZjGa.s 			page 18


 969 01c2 FFF7FEFF 		bl	_test_assert
 970 01c6 0346     		mov	r3, r0
 971 01c8 002B     		cmp	r3, #0
 972 01ca 40F08980 		bne	.L65
 973              		.loc 6 130 0
 974 01ce 494B     		ldr	r3, .L67+8
 975 01d0 5968     		ldr	r1, [r3, #4]
 976 01d2 0023     		movs	r3, #0
 977 01d4 0222     		movs	r2, #2
 978 01d6 4548     		ldr	r0, .L67
 979 01d8 FFF7FEFF 		bl	chIQReadTimeout
 980 01dc 0290     		str	r0, [sp, #8]
 981              		.loc 6 131 0
 982 01de 029B     		ldr	r3, [sp, #8]
 983 01e0 022B     		cmp	r3, #2
 984 01e2 0CBF     		ite	eq
 985 01e4 0123     		moveq	r3, #1
 986 01e6 0023     		movne	r3, #0
 987 01e8 DBB2     		uxtb	r3, r3
 988 01ea 1946     		mov	r1, r3
 989 01ec 0920     		movs	r0, #9
 990 01ee FFF7FEFF 		bl	_test_assert
 991 01f2 0346     		mov	r3, r0
 992 01f4 002B     		cmp	r3, #0
 993 01f6 75D1     		bne	.L66
 994              		.loc 6 132 0
 995 01f8 FFF7FEFF 		bl	chSysLock
 996 01fc 3B48     		ldr	r0, .L67
 997 01fe FFF7FEFF 		bl	chIQIsEmptyI
 998 0202 0346     		mov	r3, r0
 999 0204 1946     		mov	r1, r3
 1000 0206 0A20     		movs	r0, #10
 1001 0208 FFF7FEFF 		bl	_test_assert
 1002 020c 0346     		mov	r3, r0
 1003 020e 002B     		cmp	r3, #0
 1004 0210 02D0     		beq	.L60
 1005              		.loc 6 132 0 is_stmt 0 discriminator 1
 1006 0212 FFF7FEFF 		bl	chSysUnlock
 1007 0216 66E0     		b	.L41
 1008              	.L60:
 1009              		.loc 6 132 0 discriminator 2
 1010 0218 FFF7FEFF 		bl	chSysUnlock
 1011              		.loc 6 135 0 is_stmt 1 discriminator 2
 1012 021c FFF7FEFF 		bl	chSysLock
 1013              		.loc 6 136 0 discriminator 2
 1014 0220 0021     		movs	r1, #0
 1015 0222 3248     		ldr	r0, .L67
 1016 0224 FFF7FEFF 		bl	chIQPutI
 1017              		.loc 6 137 0 discriminator 2
 1018 0228 3048     		ldr	r0, .L67
 1019 022a FFF7FEFF 		bl	chIQResetI
 1020              		.loc 6 138 0 discriminator 2
 1021 022e FFF7FEFF 		bl	chSysUnlock
 1022              		.loc 6 139 0 discriminator 2
 1023 0232 FFF7FEFF 		bl	chSysLock
 1024 0236 2D48     		ldr	r0, .L67
 1025 0238 FFF7FEFF 		bl	chIQGetFullI
ARM GAS  /tmp/ccfHZjGa.s 			page 19


 1026 023c 0346     		mov	r3, r0
 1027 023e 002B     		cmp	r3, #0
 1028 0240 0CBF     		ite	eq
 1029 0242 0123     		moveq	r3, #1
 1030 0244 0023     		movne	r3, #0
 1031 0246 DBB2     		uxtb	r3, r3
 1032 0248 1946     		mov	r1, r3
 1033 024a 0B20     		movs	r0, #11
 1034 024c FFF7FEFF 		bl	_test_assert
 1035 0250 0346     		mov	r3, r0
 1036 0252 002B     		cmp	r3, #0
 1037 0254 02D0     		beq	.L61
 1038              		.loc 6 139 0 is_stmt 0 discriminator 1
 1039 0256 FFF7FEFF 		bl	chSysUnlock
 1040 025a 44E0     		b	.L41
 1041              	.L61:
 1042              		.loc 6 139 0 discriminator 2
 1043 025c FFF7FEFF 		bl	chSysUnlock
 1044              		.loc 6 140 0 is_stmt 1 discriminator 2
 1045 0260 244B     		ldr	r3, .L67+8
 1046 0262 1C68     		ldr	r4, [r3]
 1047 0264 FFF7FEFF 		bl	chThdGetPriorityX
 1048 0268 0346     		mov	r3, r0
 1049 026a 5A1C     		adds	r2, r3, #1
 1050 026c 0023     		movs	r3, #0
 1051 026e 0093     		str	r3, [sp]
 1052 0270 214B     		ldr	r3, .L67+12
 1053 0272 4FF4F871 		mov	r1, #496
 1054 0276 2046     		mov	r0, r4
 1055 0278 FFF7FEFF 		bl	chThdCreateStatic
 1056 027c 0246     		mov	r2, r0
 1057 027e 1F4B     		ldr	r3, .L67+16
 1058 0280 1A60     		str	r2, [r3]
 1059              		.loc 6 141 0 discriminator 2
 1060 0282 FFF7FEFF 		bl	chSysLock
 1061 0286 1948     		ldr	r0, .L67
 1062 0288 FFF7FEFF 		bl	chIQGetFullI
 1063 028c 0346     		mov	r3, r0
 1064 028e 002B     		cmp	r3, #0
 1065 0290 0CBF     		ite	eq
 1066 0292 0123     		moveq	r3, #1
 1067 0294 0023     		movne	r3, #0
 1068 0296 DBB2     		uxtb	r3, r3
 1069 0298 1946     		mov	r1, r3
 1070 029a 0C20     		movs	r0, #12
 1071 029c FFF7FEFF 		bl	_test_assert
 1072 02a0 0346     		mov	r3, r0
 1073 02a2 002B     		cmp	r3, #0
 1074 02a4 02D0     		beq	.L62
 1075              		.loc 6 141 0 is_stmt 0 discriminator 1
 1076 02a6 FFF7FEFF 		bl	chSysUnlock
 1077 02aa 1CE0     		b	.L41
 1078              	.L62:
 1079              		.loc 6 141 0 discriminator 2
 1080 02ac FFF7FEFF 		bl	chSysUnlock
 1081              		.loc 6 142 0 is_stmt 1 discriminator 2
 1082 02b0 FFF7FEFF 		bl	test_wait_threads
ARM GAS  /tmp/ccfHZjGa.s 			page 20


 1083              		.loc 6 145 0 discriminator 2
 1084 02b4 0A21     		movs	r1, #10
 1085 02b6 0D48     		ldr	r0, .L67
 1086 02b8 FFF7FEFF 		bl	chIQGetTimeout
 1087 02bc 0346     		mov	r3, r0
 1088 02be B3F1FF3F 		cmp	r3, #-1
 1089 02c2 0CBF     		ite	eq
 1090 02c4 0123     		moveq	r3, #1
 1091 02c6 0023     		movne	r3, #0
 1092 02c8 DBB2     		uxtb	r3, r3
 1093 02ca 1946     		mov	r1, r3
 1094 02cc 0D20     		movs	r0, #13
 1095 02ce FFF7FEFF 		bl	_test_assert
 1096 02d2 0346     		mov	r3, r0
 1097 02d4 002B     		cmp	r3, #0
 1098 02d6 06E0     		b	.L41
 1099              	.L63:
 1100              		.loc 6 108 0
 1101 02d8 00BF     		nop
 1102 02da 04E0     		b	.L41
 1103              	.L64:
 1104              		.loc 6 118 0
 1105 02dc 00BF     		nop
 1106 02de 02E0     		b	.L41
 1107              	.L65:
 1108              		.loc 6 129 0
 1109 02e0 00BF     		nop
 1110 02e2 00E0     		b	.L41
 1111              	.L66:
 1112              		.loc 6 131 0
 1113 02e4 00BF     		nop
 1114              	.L41:
 1115              		.loc 6 146 0
 1116 02e6 04B0     		add	sp, sp, #16
 1117              		.cfi_def_cfa_offset 8
 1118              		@ sp needed
 1119 02e8 10BD     		pop	{r4, pc}
 1120              	.L68:
 1121 02ea 00BF     		.align	2
 1122              	.L67:
 1123 02ec 00000000 		.word	iq
 1124 02f0 00000000 		.word	.LC0
 1125 02f4 00000000 		.word	wa
 1126 02f8 00000000 		.word	thread1
 1127 02fc 00000000 		.word	threads
 1128              		.cfi_endproc
 1129              	.LFE234:
 1130              		.size	queues1_execute, .-queues1_execute
 1131              		.global	testqueues1
 1132              		.section	.rodata
 1133 0005 000000   		.align	2
 1134              	.LC1:
 1135 0008 51756575 		.ascii	"Queues, input queues\000"
 1135      65732C20 
 1135      696E7075 
 1135      74207175 
 1135      65756573 
ARM GAS  /tmp/ccfHZjGa.s 			page 21


 1136              		.section	.rodata.testqueues1,"a",%progbits
 1137              		.align	2
 1138              		.type	testqueues1, %object
 1139              		.size	testqueues1, 16
 1140              	testqueues1:
 1141 0000 08000000 		.word	.LC1
 1142 0004 00000000 		.word	queues1_setup
 1143 0008 00000000 		.word	0
 1144 000c 00000000 		.word	queues1_execute
 1145              		.section	.text.queues2_setup,"ax",%progbits
 1146              		.align	1
 1147              		.p2align 4,,15
 1148              		.syntax unified
 1149              		.thumb
 1150              		.thumb_func
 1151              		.fpu fpv4-sp-d16
 1152              		.type	queues2_setup, %function
 1153              	queues2_setup:
 1154              	.LFB235:
 1155              		.loc 6 164 0
 1156              		.cfi_startproc
 1157              		@ args = 0, pretend = 0, frame = 0
 1158              		@ frame_needed = 0, uses_anonymous_args = 0
 1159 0000 00B5     		push	{lr}
 1160              		.cfi_def_cfa_offset 4
 1161              		.cfi_offset 14, -4
 1162 0002 83B0     		sub	sp, sp, #12
 1163              		.cfi_def_cfa_offset 16
 1164              		.loc 6 166 0
 1165 0004 064B     		ldr	r3, .L70
 1166 0006 1968     		ldr	r1, [r3]
 1167 0008 0023     		movs	r3, #0
 1168 000a 0093     		str	r3, [sp]
 1169 000c 054B     		ldr	r3, .L70+4
 1170 000e 0422     		movs	r2, #4
 1171 0010 0548     		ldr	r0, .L70+8
 1172 0012 FFF7FEFF 		bl	chOQObjectInit
 1173              		.loc 6 167 0
 1174 0016 00BF     		nop
 1175 0018 03B0     		add	sp, sp, #12
 1176              		.cfi_def_cfa_offset 4
 1177              		@ sp needed
 1178 001a 5DF804FB 		ldr	pc, [sp], #4
 1179              	.L71:
 1180 001e 00BF     		.align	2
 1181              	.L70:
 1182 0020 00000000 		.word	wa
 1183 0024 00000000 		.word	notify
 1184 0028 00000000 		.word	oq
 1185              		.cfi_endproc
 1186              	.LFE235:
 1187              		.size	queues2_setup, .-queues2_setup
 1188              		.section	.text.thread2,"ax",%progbits
 1189              		.align	1
 1190              		.p2align 4,,15
 1191              		.syntax unified
 1192              		.thumb
ARM GAS  /tmp/ccfHZjGa.s 			page 22


 1193              		.thumb_func
 1194              		.fpu fpv4-sp-d16
 1195              		.type	thread2, %function
 1196              	thread2:
 1197              	.LFB236:
 1198              		.loc 6 169 0
 1199              		.cfi_startproc
 1200              		@ args = 0, pretend = 0, frame = 8
 1201              		@ frame_needed = 0, uses_anonymous_args = 0
 1202 0000 00B5     		push	{lr}
 1203              		.cfi_def_cfa_offset 4
 1204              		.cfi_offset 14, -4
 1205 0002 83B0     		sub	sp, sp, #12
 1206              		.cfi_def_cfa_offset 16
 1207 0004 0190     		str	r0, [sp, #4]
 1208              		.loc 6 172 0
 1209 0006 4FF4FA62 		mov	r2, #2000
 1210 000a 0021     		movs	r1, #0
 1211 000c 0348     		ldr	r0, .L73
 1212 000e FFF7FEFF 		bl	chOQPutTimeout
 1213              		.loc 6 173 0
 1214 0012 00BF     		nop
 1215 0014 03B0     		add	sp, sp, #12
 1216              		.cfi_def_cfa_offset 4
 1217              		@ sp needed
 1218 0016 5DF804FB 		ldr	pc, [sp], #4
 1219              	.L74:
 1220 001a 00BF     		.align	2
 1221              	.L73:
 1222 001c 00000000 		.word	oq
 1223              		.cfi_endproc
 1224              	.LFE236:
 1225              		.size	thread2, .-thread2
 1226              		.section	.text.queues2_execute,"ax",%progbits
 1227              		.align	1
 1228              		.p2align 4,,15
 1229              		.syntax unified
 1230              		.thumb
 1231              		.thumb_func
 1232              		.fpu fpv4-sp-d16
 1233              		.type	queues2_execute, %function
 1234              	queues2_execute:
 1235              	.LFB237:
 1236              		.loc 6 175 0
 1237              		.cfi_startproc
 1238              		@ args = 0, pretend = 0, frame = 16
 1239              		@ frame_needed = 0, uses_anonymous_args = 0
 1240 0000 10B5     		push	{r4, lr}
 1241              		.cfi_def_cfa_offset 8
 1242              		.cfi_offset 4, -8
 1243              		.cfi_offset 14, -4
 1244 0002 86B0     		sub	sp, sp, #24
 1245              		.cfi_def_cfa_offset 32
 1246              		.loc 6 180 0
 1247 0004 FFF7FEFF 		bl	chSysLock
 1248 0008 A248     		ldr	r0, .L97
 1249 000a FFF7FEFF 		bl	chOQIsEmptyI
ARM GAS  /tmp/ccfHZjGa.s 			page 23


 1250 000e 0346     		mov	r3, r0
 1251 0010 1946     		mov	r1, r3
 1252 0012 0120     		movs	r0, #1
 1253 0014 FFF7FEFF 		bl	_test_assert
 1254 0018 0346     		mov	r3, r0
 1255 001a 002B     		cmp	r3, #0
 1256 001c 02D0     		beq	.L76
 1257              		.loc 6 180 0 is_stmt 0 discriminator 1
 1258 001e FFF7FEFF 		bl	chSysUnlock
 1259 0022 34E1     		b	.L75
 1260              	.L76:
 1261              		.loc 6 180 0 discriminator 2
 1262 0024 FFF7FEFF 		bl	chSysUnlock
 1263              		.loc 6 183 0 is_stmt 1 discriminator 2
 1264 0028 0023     		movs	r3, #0
 1265 002a 0593     		str	r3, [sp, #20]
 1266 002c 0AE0     		b	.L78
 1267              	.L79:
 1268              		.loc 6 184 0 discriminator 3
 1269 002e 059B     		ldr	r3, [sp, #20]
 1270 0030 DBB2     		uxtb	r3, r3
 1271 0032 4133     		adds	r3, r3, #65
 1272 0034 DBB2     		uxtb	r3, r3
 1273 0036 1946     		mov	r1, r3
 1274 0038 9648     		ldr	r0, .L97
 1275 003a FFF7FEFF 		bl	chOQPut
 1276              		.loc 6 183 0 discriminator 3
 1277 003e 059B     		ldr	r3, [sp, #20]
 1278 0040 0133     		adds	r3, r3, #1
 1279 0042 0593     		str	r3, [sp, #20]
 1280              	.L78:
 1281              		.loc 6 183 0 is_stmt 0 discriminator 1
 1282 0044 059B     		ldr	r3, [sp, #20]
 1283 0046 032B     		cmp	r3, #3
 1284 0048 F1D9     		bls	.L79
 1285              		.loc 6 185 0 is_stmt 1
 1286 004a FFF7FEFF 		bl	chSysLock
 1287 004e 9148     		ldr	r0, .L97
 1288 0050 FFF7FEFF 		bl	chOQIsFullI
 1289 0054 0346     		mov	r3, r0
 1290 0056 1946     		mov	r1, r3
 1291 0058 0220     		movs	r0, #2
 1292 005a FFF7FEFF 		bl	_test_assert
 1293 005e 0346     		mov	r3, r0
 1294 0060 002B     		cmp	r3, #0
 1295 0062 02D0     		beq	.L80
 1296              		.loc 6 185 0 is_stmt 0 discriminator 1
 1297 0064 FFF7FEFF 		bl	chSysUnlock
 1298 0068 11E1     		b	.L75
 1299              	.L80:
 1300              		.loc 6 185 0 discriminator 2
 1301 006a FFF7FEFF 		bl	chSysUnlock
 1302              		.loc 6 188 0 is_stmt 1 discriminator 2
 1303 006e 0023     		movs	r3, #0
 1304 0070 0593     		str	r3, [sp, #20]
 1305 0072 11E0     		b	.L81
 1306              	.L82:
ARM GAS  /tmp/ccfHZjGa.s 			page 24


 1307              	.LBB10:
 1308              		.loc 6 191 0 discriminator 3
 1309 0074 FFF7FEFF 		bl	chSysLock
 1310              		.loc 6 192 0 discriminator 3
 1311 0078 8648     		ldr	r0, .L97
 1312 007a FFF7FEFF 		bl	chOQGetI
 1313 007e 0346     		mov	r3, r0
 1314 0080 8DF81330 		strb	r3, [sp, #19]
 1315              		.loc 6 193 0 discriminator 3
 1316 0084 FFF7FEFF 		bl	chSysUnlock
 1317              		.loc 6 194 0 discriminator 3
 1318 0088 9DF81330 		ldrb	r3, [sp, #19]	@ zero_extendqisi2
 1319 008c 1846     		mov	r0, r3
 1320 008e FFF7FEFF 		bl	test_emit_token
 1321              	.LBE10:
 1322              		.loc 6 188 0 discriminator 3
 1323 0092 059B     		ldr	r3, [sp, #20]
 1324 0094 0133     		adds	r3, r3, #1
 1325 0096 0593     		str	r3, [sp, #20]
 1326              	.L81:
 1327              		.loc 6 188 0 is_stmt 0 discriminator 1
 1328 0098 059B     		ldr	r3, [sp, #20]
 1329 009a 032B     		cmp	r3, #3
 1330 009c EAD9     		bls	.L82
 1331              		.loc 6 196 0 is_stmt 1
 1332 009e FFF7FEFF 		bl	chSysLock
 1333 00a2 7C48     		ldr	r0, .L97
 1334 00a4 FFF7FEFF 		bl	chOQIsEmptyI
 1335 00a8 0346     		mov	r3, r0
 1336 00aa 1946     		mov	r1, r3
 1337 00ac 0320     		movs	r0, #3
 1338 00ae FFF7FEFF 		bl	_test_assert
 1339 00b2 0346     		mov	r3, r0
 1340 00b4 002B     		cmp	r3, #0
 1341 00b6 02D0     		beq	.L83
 1342              		.loc 6 196 0 is_stmt 0 discriminator 1
 1343 00b8 FFF7FEFF 		bl	chSysUnlock
 1344 00bc E7E0     		b	.L75
 1345              	.L83:
 1346              		.loc 6 196 0 discriminator 2
 1347 00be FFF7FEFF 		bl	chSysUnlock
 1348              		.loc 6 197 0 is_stmt 1 discriminator 2
 1349 00c2 7549     		ldr	r1, .L97+4
 1350 00c4 0420     		movs	r0, #4
 1351 00c6 FFF7FEFF 		bl	_test_assert_sequence
 1352 00ca 0346     		mov	r3, r0
 1353 00cc 002B     		cmp	r3, #0
 1354 00ce 40F0D780 		bne	.L93
 1355              		.loc 6 198 0
 1356 00d2 FFF7FEFF 		bl	chSysLock
 1357 00d6 6F48     		ldr	r0, .L97
 1358 00d8 FFF7FEFF 		bl	chOQGetI
 1359 00dc 0346     		mov	r3, r0
 1360 00de 13F1030F 		cmn	r3, #3
 1361 00e2 0CBF     		ite	eq
 1362 00e4 0123     		moveq	r3, #1
 1363 00e6 0023     		movne	r3, #0
ARM GAS  /tmp/ccfHZjGa.s 			page 25


 1364 00e8 DBB2     		uxtb	r3, r3
 1365 00ea 1946     		mov	r1, r3
 1366 00ec 0520     		movs	r0, #5
 1367 00ee FFF7FEFF 		bl	_test_assert
 1368 00f2 0346     		mov	r3, r0
 1369 00f4 002B     		cmp	r3, #0
 1370 00f6 02D0     		beq	.L85
 1371              		.loc 6 198 0 is_stmt 0 discriminator 1
 1372 00f8 FFF7FEFF 		bl	chSysUnlock
 1373 00fc C7E0     		b	.L75
 1374              	.L85:
 1375              		.loc 6 198 0 discriminator 2
 1376 00fe FFF7FEFF 		bl	chSysUnlock
 1377              		.loc 6 201 0 is_stmt 1 discriminator 2
 1378 0102 664B     		ldr	r3, .L97+8
 1379 0104 5968     		ldr	r1, [r3, #4]
 1380 0106 0023     		movs	r3, #0
 1381 0108 0822     		movs	r2, #8
 1382 010a 6248     		ldr	r0, .L97
 1383 010c FFF7FEFF 		bl	chOQWriteTimeout
 1384 0110 0390     		str	r0, [sp, #12]
 1385              		.loc 6 202 0 discriminator 2
 1386 0112 039B     		ldr	r3, [sp, #12]
 1387 0114 042B     		cmp	r3, #4
 1388 0116 0CBF     		ite	eq
 1389 0118 0123     		moveq	r3, #1
 1390 011a 0023     		movne	r3, #0
 1391 011c DBB2     		uxtb	r3, r3
 1392 011e 1946     		mov	r1, r3
 1393 0120 0620     		movs	r0, #6
 1394 0122 FFF7FEFF 		bl	_test_assert
 1395 0126 0346     		mov	r3, r0
 1396 0128 002B     		cmp	r3, #0
 1397 012a 40F0AB80 		bne	.L94
 1398              		.loc 6 203 0
 1399 012e FFF7FEFF 		bl	chSysLock
 1400 0132 5848     		ldr	r0, .L97
 1401 0134 FFF7FEFF 		bl	chOQIsFullI
 1402 0138 0346     		mov	r3, r0
 1403 013a 1946     		mov	r1, r3
 1404 013c 0720     		movs	r0, #7
 1405 013e FFF7FEFF 		bl	_test_assert
 1406 0142 0346     		mov	r3, r0
 1407 0144 002B     		cmp	r3, #0
 1408 0146 02D0     		beq	.L87
 1409              		.loc 6 203 0 is_stmt 0 discriminator 1
 1410 0148 FFF7FEFF 		bl	chSysUnlock
 1411 014c 9FE0     		b	.L75
 1412              	.L87:
 1413              		.loc 6 203 0 discriminator 2
 1414 014e FFF7FEFF 		bl	chSysUnlock
 1415              		.loc 6 204 0 is_stmt 1 discriminator 2
 1416 0152 524B     		ldr	r3, .L97+8
 1417 0154 1C68     		ldr	r4, [r3]
 1418 0156 FFF7FEFF 		bl	chThdGetPriorityX
 1419 015a 0346     		mov	r3, r0
 1420 015c 5A1C     		adds	r2, r3, #1
ARM GAS  /tmp/ccfHZjGa.s 			page 26


 1421 015e 0023     		movs	r3, #0
 1422 0160 0093     		str	r3, [sp]
 1423 0162 4F4B     		ldr	r3, .L97+12
 1424 0164 4FF4F871 		mov	r1, #496
 1425 0168 2046     		mov	r0, r4
 1426 016a FFF7FEFF 		bl	chThdCreateStatic
 1427 016e 0246     		mov	r2, r0
 1428 0170 4C4B     		ldr	r3, .L97+16
 1429 0172 1A60     		str	r2, [r3]
 1430              		.loc 6 205 0 discriminator 2
 1431 0174 FFF7FEFF 		bl	chSysLock
 1432 0178 4648     		ldr	r0, .L97
 1433 017a FFF7FEFF 		bl	chOQGetFullI
 1434 017e 0346     		mov	r3, r0
 1435 0180 042B     		cmp	r3, #4
 1436 0182 0CBF     		ite	eq
 1437 0184 0123     		moveq	r3, #1
 1438 0186 0023     		movne	r3, #0
 1439 0188 DBB2     		uxtb	r3, r3
 1440 018a 1946     		mov	r1, r3
 1441 018c 0820     		movs	r0, #8
 1442 018e FFF7FEFF 		bl	_test_assert
 1443 0192 0346     		mov	r3, r0
 1444 0194 002B     		cmp	r3, #0
 1445 0196 02D0     		beq	.L88
 1446              		.loc 6 205 0 is_stmt 0 discriminator 1
 1447 0198 FFF7FEFF 		bl	chSysUnlock
 1448 019c 77E0     		b	.L75
 1449              	.L88:
 1450              		.loc 6 205 0 discriminator 2
 1451 019e FFF7FEFF 		bl	chSysUnlock
 1452              		.loc 6 206 0 is_stmt 1 discriminator 2
 1453 01a2 FFF7FEFF 		bl	test_wait_threads
 1454              		.loc 6 209 0 discriminator 2
 1455 01a6 FFF7FEFF 		bl	chSysLock
 1456              		.loc 6 210 0 discriminator 2
 1457 01aa 3A48     		ldr	r0, .L97
 1458 01ac FFF7FEFF 		bl	chOQResetI
 1459              		.loc 6 211 0 discriminator 2
 1460 01b0 FFF7FEFF 		bl	chSysUnlock
 1461              		.loc 6 212 0 discriminator 2
 1462 01b4 FFF7FEFF 		bl	chSysLock
 1463 01b8 3648     		ldr	r0, .L97
 1464 01ba FFF7FEFF 		bl	chOQGetFullI
 1465 01be 0346     		mov	r3, r0
 1466 01c0 002B     		cmp	r3, #0
 1467 01c2 0CBF     		ite	eq
 1468 01c4 0123     		moveq	r3, #1
 1469 01c6 0023     		movne	r3, #0
 1470 01c8 DBB2     		uxtb	r3, r3
 1471 01ca 1946     		mov	r1, r3
 1472 01cc 0920     		movs	r0, #9
 1473 01ce FFF7FEFF 		bl	_test_assert
 1474 01d2 0346     		mov	r3, r0
 1475 01d4 002B     		cmp	r3, #0
 1476 01d6 02D0     		beq	.L89
 1477              		.loc 6 212 0 is_stmt 0 discriminator 1
ARM GAS  /tmp/ccfHZjGa.s 			page 27


 1478 01d8 FFF7FEFF 		bl	chSysUnlock
 1479 01dc 57E0     		b	.L75
 1480              	.L89:
 1481              		.loc 6 212 0 discriminator 2
 1482 01de FFF7FEFF 		bl	chSysUnlock
 1483              		.loc 6 215 0 is_stmt 1 discriminator 2
 1484 01e2 2E4B     		ldr	r3, .L97+8
 1485 01e4 5968     		ldr	r1, [r3, #4]
 1486 01e6 0023     		movs	r3, #0
 1487 01e8 0222     		movs	r2, #2
 1488 01ea 2A48     		ldr	r0, .L97
 1489 01ec FFF7FEFF 		bl	chOQWriteTimeout
 1490 01f0 0390     		str	r0, [sp, #12]
 1491              		.loc 6 216 0 discriminator 2
 1492 01f2 039B     		ldr	r3, [sp, #12]
 1493 01f4 022B     		cmp	r3, #2
 1494 01f6 0CBF     		ite	eq
 1495 01f8 0123     		moveq	r3, #1
 1496 01fa 0023     		movne	r3, #0
 1497 01fc DBB2     		uxtb	r3, r3
 1498 01fe 1946     		mov	r1, r3
 1499 0200 0A20     		movs	r0, #10
 1500 0202 FFF7FEFF 		bl	_test_assert
 1501 0206 0346     		mov	r3, r0
 1502 0208 002B     		cmp	r3, #0
 1503 020a 3DD1     		bne	.L95
 1504              		.loc 6 217 0
 1505 020c 234B     		ldr	r3, .L97+8
 1506 020e 5968     		ldr	r1, [r3, #4]
 1507 0210 0023     		movs	r3, #0
 1508 0212 0222     		movs	r2, #2
 1509 0214 1F48     		ldr	r0, .L97
 1510 0216 FFF7FEFF 		bl	chOQWriteTimeout
 1511 021a 0390     		str	r0, [sp, #12]
 1512              		.loc 6 218 0
 1513 021c 039B     		ldr	r3, [sp, #12]
 1514 021e 022B     		cmp	r3, #2
 1515 0220 0CBF     		ite	eq
 1516 0222 0123     		moveq	r3, #1
 1517 0224 0023     		movne	r3, #0
 1518 0226 DBB2     		uxtb	r3, r3
 1519 0228 1946     		mov	r1, r3
 1520 022a 0B20     		movs	r0, #11
 1521 022c FFF7FEFF 		bl	_test_assert
 1522 0230 0346     		mov	r3, r0
 1523 0232 002B     		cmp	r3, #0
 1524 0234 2AD1     		bne	.L96
 1525              		.loc 6 219 0
 1526 0236 FFF7FEFF 		bl	chSysLock
 1527 023a 1648     		ldr	r0, .L97
 1528 023c FFF7FEFF 		bl	chOQIsFullI
 1529 0240 0346     		mov	r3, r0
 1530 0242 1946     		mov	r1, r3
 1531 0244 0C20     		movs	r0, #12
 1532 0246 FFF7FEFF 		bl	_test_assert
 1533 024a 0346     		mov	r3, r0
 1534 024c 002B     		cmp	r3, #0
ARM GAS  /tmp/ccfHZjGa.s 			page 28


 1535 024e 02D0     		beq	.L92
 1536              		.loc 6 219 0 is_stmt 0 discriminator 1
 1537 0250 FFF7FEFF 		bl	chSysUnlock
 1538 0254 1BE0     		b	.L75
 1539              	.L92:
 1540              		.loc 6 219 0 discriminator 2
 1541 0256 FFF7FEFF 		bl	chSysUnlock
 1542              		.loc 6 222 0 is_stmt 1 discriminator 2
 1543 025a 0A22     		movs	r2, #10
 1544 025c 0021     		movs	r1, #0
 1545 025e 0D48     		ldr	r0, .L97
 1546 0260 FFF7FEFF 		bl	chOQPutTimeout
 1547 0264 0346     		mov	r3, r0
 1548 0266 B3F1FF3F 		cmp	r3, #-1
 1549 026a 0CBF     		ite	eq
 1550 026c 0123     		moveq	r3, #1
 1551 026e 0023     		movne	r3, #0
 1552 0270 DBB2     		uxtb	r3, r3
 1553 0272 1946     		mov	r1, r3
 1554 0274 0D20     		movs	r0, #13
 1555 0276 FFF7FEFF 		bl	_test_assert
 1556 027a 0346     		mov	r3, r0
 1557 027c 002B     		cmp	r3, #0
 1558 027e 06E0     		b	.L75
 1559              	.L93:
 1560              		.loc 6 197 0
 1561 0280 00BF     		nop
 1562 0282 04E0     		b	.L75
 1563              	.L94:
 1564              		.loc 6 202 0
 1565 0284 00BF     		nop
 1566 0286 02E0     		b	.L75
 1567              	.L95:
 1568              		.loc 6 216 0
 1569 0288 00BF     		nop
 1570 028a 00E0     		b	.L75
 1571              	.L96:
 1572              		.loc 6 218 0
 1573 028c 00BF     		nop
 1574              	.L75:
 1575              		.loc 6 223 0
 1576 028e 06B0     		add	sp, sp, #24
 1577              		.cfi_def_cfa_offset 8
 1578              		@ sp needed
 1579 0290 10BD     		pop	{r4, pc}
 1580              	.L98:
 1581 0292 00BF     		.align	2
 1582              	.L97:
 1583 0294 00000000 		.word	oq
 1584 0298 00000000 		.word	.LC0
 1585 029c 00000000 		.word	wa
 1586 02a0 00000000 		.word	thread2
 1587 02a4 00000000 		.word	threads
 1588              		.cfi_endproc
 1589              	.LFE237:
 1590              		.size	queues2_execute, .-queues2_execute
 1591              		.global	testqueues2
ARM GAS  /tmp/ccfHZjGa.s 			page 29


 1592              		.section	.rodata
 1593 001d 000000   		.align	2
 1594              	.LC2:
 1595 0020 51756575 		.ascii	"Queues, output queues\000"
 1595      65732C20 
 1595      6F757470 
 1595      75742071 
 1595      75657565 
 1596              		.section	.rodata.testqueues2,"a",%progbits
 1597              		.align	2
 1598              		.type	testqueues2, %object
 1599              		.size	testqueues2, 16
 1600              	testqueues2:
 1601 0000 20000000 		.word	.LC2
 1602 0004 00000000 		.word	queues2_setup
 1603 0008 00000000 		.word	0
 1604 000c 00000000 		.word	queues2_execute
 1605              		.global	patternqueues
 1606              		.section	.rodata.patternqueues,"a",%progbits
 1607              		.align	2
 1608              		.type	patternqueues, %object
 1609              		.size	patternqueues, 12
 1610              	patternqueues:
 1611 0000 00000000 		.word	testqueues1
 1612 0004 00000000 		.word	testqueues2
 1613 0008 00000000 		.word	0
 1614              		.section	.rodata.__func__.7157,"a",%progbits
 1615              		.align	2
 1616              		.type	__func__.7157, %object
 1617              		.size	__func__.7157, 12
 1618              	__func__.7157:
 1619 0000 63685379 		.ascii	"chSysUnlock\000"
 1619      73556E6C 
 1619      6F636B00 
 1620              		.text
 1621              	.Letext0:
 1622              		.file 7 "/usr/lib/gcc/arm-none-eabi/6.3.1/include/stddef.h"
 1623              		.file 8 "/usr/arm-none-eabi/include/machine/_default_types.h"
 1624              		.file 9 "/usr/arm-none-eabi/include/sys/_stdint.h"
 1625              		.file 10 "../ChibiOS/os/rt/ports/ARMCMx/compilers/GCC/chtypes.h"
 1626              		.file 11 "../ChibiOS/os/rt/include/chsystypes.h"
 1627              		.file 12 "../ChibiOS/os/rt/include/chschd.h"
 1628              		.file 13 "../ChibiOS/os/ext/CMSIS/include/core_cm4.h"
 1629              		.file 14 "../ChibiOS/os/ext/CMSIS/ST/STM32F4xx/system_stm32f4xx.h"
 1630              		.file 15 "../ChibiOS/os/rt/ports/ARMCMx/chcore.h"
 1631              		.file 16 "../ChibiOS/os/rt/include/chtm.h"
 1632              		.file 17 "../ChibiOS/os/rt/include/chstats.h"
 1633              		.file 18 "../ChibiOS/os/rt/include/chsem.h"
 1634              		.file 19 "../ChibiOS/os/rt/include/chmtx.h"
 1635              		.file 20 "../ChibiOS/os/rt/include/chregistry.h"
 1636              		.file 21 "../ChibiOS/test/rt/test.h"