ARM GAS  /tmp/ccbmFvQZ.s 			page 1


   1              		.cpu cortex-m4
   2              		.eabi_attribute 27, 1
   3              		.eabi_attribute 28, 1
   4              		.eabi_attribute 20, 1
   5              		.eabi_attribute 21, 1
   6              		.eabi_attribute 23, 3
   7              		.eabi_attribute 24, 1
   8              		.eabi_attribute 25, 1
   9              		.eabi_attribute 26, 1
  10              		.eabi_attribute 30, 6
  11              		.eabi_attribute 34, 1
  12              		.eabi_attribute 18, 4
  13              		.file	"testdyn.c"
  14              		.text
  15              	.Ltext0:
  16              		.cfi_sections	.debug_frame
  17              		.section	.text.chThdGetSelfX,"ax",%progbits
  18              		.align	1
  19              		.p2align 4,,15
  20              		.syntax unified
  21              		.thumb
  22              		.thumb_func
  23              		.fpu fpv4-sp-d16
  24              		.type	chThdGetSelfX, %function
  25              	chThdGetSelfX:
  26              	.LFB178:
  27              		.file 1 "../ChibiOS/os/rt/include/chthreads.h"
  28              		.loc 1 174 0
  29              		.cfi_startproc
  30              		@ args = 0, pretend = 0, frame = 0
  31              		@ frame_needed = 0, uses_anonymous_args = 0
  32              		@ link register save eliminated.
  33              		.loc 1 176 0
  34 0000 014B     		ldr	r3, .L3
  35 0002 9B69     		ldr	r3, [r3, #24]
  36              		.loc 1 177 0
  37 0004 1846     		mov	r0, r3
  38 0006 7047     		bx	lr
  39              	.L4:
  40              		.align	2
  41              	.L3:
  42 0008 00000000 		.word	ch
  43              		.cfi_endproc
  44              	.LFE178:
  45              		.size	chThdGetSelfX, .-chThdGetSelfX
  46              		.section	.text.chThdGetPriorityX,"ax",%progbits
  47              		.align	1
  48              		.p2align 4,,15
  49              		.syntax unified
  50              		.thumb
  51              		.thumb_func
  52              		.fpu fpv4-sp-d16
  53              		.type	chThdGetPriorityX, %function
  54              	chThdGetPriorityX:
  55              	.LFB179:
  56              		.loc 1 187 0
  57              		.cfi_startproc
ARM GAS  /tmp/ccbmFvQZ.s 			page 2


  58              		@ args = 0, pretend = 0, frame = 0
  59              		@ frame_needed = 0, uses_anonymous_args = 0
  60 0000 08B5     		push	{r3, lr}
  61              		.cfi_def_cfa_offset 8
  62              		.cfi_offset 3, -8
  63              		.cfi_offset 14, -4
  64              		.loc 1 189 0
  65 0002 FFF7FEFF 		bl	chThdGetSelfX
  66 0006 0346     		mov	r3, r0
  67 0008 9B68     		ldr	r3, [r3, #8]
  68              		.loc 1 190 0
  69 000a 1846     		mov	r0, r3
  70 000c 08BD     		pop	{r3, pc}
  71              		.cfi_endproc
  72              	.LFE179:
  73              		.size	chThdGetPriorityX, .-chThdGetPriorityX
  74 000e 00BF     		.section	.bss.heap1,"aw",%nobits
  75              		.align	3
  76              		.type	heap1, %object
  77              		.size	heap1, 32
  78              	heap1:
  79 0000 00000000 		.space	32
  79      00000000 
  79      00000000 
  79      00000000 
  79      00000000 
  80              		.section	.bss.mp1,"aw",%nobits
  81              		.align	2
  82              		.type	mp1, %object
  83              		.size	mp1, 12
  84              	mp1:
  85 0000 00000000 		.space	12
  85      00000000 
  85      00000000 
  86              		.section	.text.thread,"ax",%progbits
  87              		.align	1
  88              		.p2align 4,,15
  89              		.syntax unified
  90              		.thumb
  91              		.thumb_func
  92              		.fpu fpv4-sp-d16
  93              		.type	thread, %function
  94              	thread:
  95              	.LFB231:
  96              		.file 2 "../ChibiOS/test/rt/testdyn.c"
  97              		.loc 2 71 0
  98              		.cfi_startproc
  99              		@ args = 0, pretend = 0, frame = 8
 100              		@ frame_needed = 0, uses_anonymous_args = 0
 101 0000 00B5     		push	{lr}
 102              		.cfi_def_cfa_offset 4
 103              		.cfi_offset 14, -4
 104 0002 83B0     		sub	sp, sp, #12
 105              		.cfi_def_cfa_offset 16
 106 0004 0190     		str	r0, [sp, #4]
 107              		.loc 2 73 0
 108 0006 019B     		ldr	r3, [sp, #4]
ARM GAS  /tmp/ccbmFvQZ.s 			page 3


 109 0008 1B78     		ldrb	r3, [r3]	@ zero_extendqisi2
 110 000a 1846     		mov	r0, r3
 111 000c FFF7FEFF 		bl	test_emit_token
 112              		.loc 2 74 0
 113 0010 00BF     		nop
 114 0012 03B0     		add	sp, sp, #12
 115              		.cfi_def_cfa_offset 4
 116              		@ sp needed
 117 0014 5DF804FB 		ldr	pc, [sp], #4
 118              		.cfi_endproc
 119              	.LFE231:
 120              		.size	thread, .-thread
 121              		.section	.text.dyn1_setup,"ax",%progbits
 122              		.align	1
 123              		.p2align 4,,15
 124              		.syntax unified
 125              		.thumb
 126              		.thumb_func
 127              		.fpu fpv4-sp-d16
 128              		.type	dyn1_setup, %function
 129              	dyn1_setup:
 130              	.LFB232:
 131              		.loc 2 77 0
 132              		.cfi_startproc
 133              		@ args = 0, pretend = 0, frame = 0
 134              		@ frame_needed = 0, uses_anonymous_args = 0
 135 0000 08B5     		push	{r3, lr}
 136              		.cfi_def_cfa_offset 8
 137              		.cfi_offset 3, -8
 138              		.cfi_offset 14, -4
 139              		.loc 2 79 0
 140 0002 4FF41B62 		mov	r2, #2480
 141 0006 0349     		ldr	r1, .L9
 142 0008 0348     		ldr	r0, .L9+4
 143 000a FFF7FEFF 		bl	chHeapObjectInit
 144              		.loc 2 80 0
 145 000e 00BF     		nop
 146 0010 08BD     		pop	{r3, pc}
 147              	.L10:
 148 0012 00BF     		.align	2
 149              	.L9:
 150 0014 00000000 		.word	test
 151 0018 00000000 		.word	heap1
 152              		.cfi_endproc
 153              	.LFE232:
 154              		.size	dyn1_setup, .-dyn1_setup
 155              		.section	.rodata
 156              		.align	2
 157              	.LC0:
 158 0000 4100     		.ascii	"A\000"
 159 0002 0000     		.align	2
 160              	.LC1:
 161 0004 4200     		.ascii	"B\000"
 162 0006 0000     		.align	2
 163              	.LC2:
 164 0008 4300     		.ascii	"C\000"
 165 000a 0000     		.align	2
ARM GAS  /tmp/ccbmFvQZ.s 			page 4


 166              	.LC3:
 167 000c 414200   		.ascii	"AB\000"
 168              		.section	.text.dyn1_execute,"ax",%progbits
 169              		.align	1
 170              		.p2align 4,,15
 171              		.syntax unified
 172              		.thumb
 173              		.thumb_func
 174              		.fpu fpv4-sp-d16
 175              		.type	dyn1_execute, %function
 176              	dyn1_execute:
 177              	.LFB233:
 178              		.loc 2 82 0
 179              		.cfi_startproc
 180              		@ args = 0, pretend = 0, frame = 16
 181              		@ frame_needed = 0, uses_anonymous_args = 0
 182 0000 00B5     		push	{lr}
 183              		.cfi_def_cfa_offset 4
 184              		.cfi_offset 14, -4
 185 0002 87B0     		sub	sp, sp, #28
 186              		.cfi_def_cfa_offset 32
 187              		.loc 2 85 0
 188 0004 FFF7FEFF 		bl	chThdGetPriorityX
 189 0008 0590     		str	r0, [sp, #20]
 190              		.loc 2 87 0
 191 000a 02AB     		add	r3, sp, #8
 192 000c 1946     		mov	r1, r3
 193 000e 4548     		ldr	r0, .L23
 194 0010 FFF7FEFF 		bl	chHeapStatus
 195              		.loc 2 89 0
 196 0014 059B     		ldr	r3, [sp, #20]
 197 0016 5A1E     		subs	r2, r3, #1
 198 0018 434B     		ldr	r3, .L23+4
 199 001a 0093     		str	r3, [sp]
 200 001c 434B     		ldr	r3, .L23+8
 201 001e 4FF4F871 		mov	r1, #496
 202 0022 4048     		ldr	r0, .L23
 203 0024 FFF7FEFF 		bl	chThdCreateFromHeap
 204 0028 0246     		mov	r2, r0
 205 002a 414B     		ldr	r3, .L23+12
 206 002c 1A60     		str	r2, [r3]
 207              		.loc 2 92 0
 208 002e 059B     		ldr	r3, [sp, #20]
 209 0030 9A1E     		subs	r2, r3, #2
 210 0032 404B     		ldr	r3, .L23+16
 211 0034 0093     		str	r3, [sp]
 212 0036 3D4B     		ldr	r3, .L23+8
 213 0038 4FF4F871 		mov	r1, #496
 214 003c 3948     		ldr	r0, .L23
 215 003e FFF7FEFF 		bl	chThdCreateFromHeap
 216 0042 0246     		mov	r2, r0
 217 0044 3A4B     		ldr	r3, .L23+12
 218 0046 5A60     		str	r2, [r3, #4]
 219              		.loc 2 96 0
 220 0048 03AB     		add	r3, sp, #12
 221 004a 1946     		mov	r1, r3
 222 004c 3548     		ldr	r0, .L23
ARM GAS  /tmp/ccbmFvQZ.s 			page 5


 223 004e FFF7FEFF 		bl	chHeapStatus
 224              		.loc 2 97 0
 225 0052 039B     		ldr	r3, [sp, #12]
 226 0054 1946     		mov	r1, r3
 227 0056 3348     		ldr	r0, .L23
 228 0058 FFF7FEFF 		bl	chHeapAlloc
 229 005c 0490     		str	r0, [sp, #16]
 230              		.loc 2 98 0
 231 005e 059B     		ldr	r3, [sp, #20]
 232 0060 DA1E     		subs	r2, r3, #3
 233 0062 354B     		ldr	r3, .L23+20
 234 0064 0093     		str	r3, [sp]
 235 0066 314B     		ldr	r3, .L23+8
 236 0068 4FF4F871 		mov	r1, #496
 237 006c 2D48     		ldr	r0, .L23
 238 006e FFF7FEFF 		bl	chThdCreateFromHeap
 239 0072 0246     		mov	r2, r0
 240 0074 2E4B     		ldr	r3, .L23+12
 241 0076 9A60     		str	r2, [r3, #8]
 242              		.loc 2 101 0
 243 0078 0498     		ldr	r0, [sp, #16]
 244 007a FFF7FEFF 		bl	chHeapFree
 245              		.loc 2 103 0
 246 007e 2C4B     		ldr	r3, .L23+12
 247 0080 1B68     		ldr	r3, [r3]
 248 0082 002B     		cmp	r3, #0
 249 0084 11D0     		beq	.L12
 250              		.loc 2 103 0 is_stmt 0 discriminator 1
 251 0086 2A4B     		ldr	r3, .L23+12
 252 0088 5B68     		ldr	r3, [r3, #4]
 253 008a 002B     		cmp	r3, #0
 254 008c 0DD0     		beq	.L12
 255              		.loc 2 103 0 discriminator 3
 256 008e 284B     		ldr	r3, .L23+12
 257 0090 9B68     		ldr	r3, [r3, #8]
 258 0092 002B     		cmp	r3, #0
 259 0094 09D1     		bne	.L12
 260              		.loc 2 103 0 discriminator 5
 261 0096 264B     		ldr	r3, .L23+12
 262 0098 DB68     		ldr	r3, [r3, #12]
 263 009a 002B     		cmp	r3, #0
 264 009c 05D1     		bne	.L12
 265              		.loc 2 103 0 discriminator 7
 266 009e 244B     		ldr	r3, .L23+12
 267 00a0 1B69     		ldr	r3, [r3, #16]
 268 00a2 002B     		cmp	r3, #0
 269 00a4 01D1     		bne	.L12
 270              		.loc 2 103 0 discriminator 9
 271 00a6 0123     		movs	r3, #1
 272 00a8 00E0     		b	.L13
 273              	.L12:
 274              		.loc 2 103 0 discriminator 10
 275 00aa 0023     		movs	r3, #0
 276              	.L13:
 277              		.loc 2 103 0 discriminator 12
 278 00ac 03F00103 		and	r3, r3, #1
 279 00b0 DBB2     		uxtb	r3, r3
ARM GAS  /tmp/ccbmFvQZ.s 			page 6


 280 00b2 1946     		mov	r1, r3
 281 00b4 0120     		movs	r0, #1
 282 00b6 FFF7FEFF 		bl	_test_assert
 283 00ba 0346     		mov	r3, r0
 284 00bc 002B     		cmp	r3, #0
 285 00be 28D1     		bne	.L20
 286              		.loc 2 111 0 is_stmt 1
 287 00c0 FFF7FEFF 		bl	test_wait_threads
 288              		.loc 2 112 0
 289 00c4 1D49     		ldr	r1, .L23+24
 290 00c6 0220     		movs	r0, #2
 291 00c8 FFF7FEFF 		bl	_test_assert_sequence
 292 00cc 0346     		mov	r3, r0
 293 00ce 002B     		cmp	r3, #0
 294 00d0 21D1     		bne	.L21
 295              		.loc 2 115 0
 296 00d2 03AB     		add	r3, sp, #12
 297 00d4 1946     		mov	r1, r3
 298 00d6 1348     		ldr	r0, .L23
 299 00d8 FFF7FEFF 		bl	chHeapStatus
 300 00dc 0346     		mov	r3, r0
 301 00de 012B     		cmp	r3, #1
 302 00e0 0CBF     		ite	eq
 303 00e2 0123     		moveq	r3, #1
 304 00e4 0023     		movne	r3, #0
 305 00e6 DBB2     		uxtb	r3, r3
 306 00e8 1946     		mov	r1, r3
 307 00ea 0320     		movs	r0, #3
 308 00ec FFF7FEFF 		bl	_test_assert
 309 00f0 0346     		mov	r3, r0
 310 00f2 002B     		cmp	r3, #0
 311 00f4 11D1     		bne	.L22
 312              		.loc 2 116 0
 313 00f6 039A     		ldr	r2, [sp, #12]
 314 00f8 029B     		ldr	r3, [sp, #8]
 315 00fa 9A42     		cmp	r2, r3
 316 00fc 0CBF     		ite	eq
 317 00fe 0123     		moveq	r3, #1
 318 0100 0023     		movne	r3, #0
 319 0102 DBB2     		uxtb	r3, r3
 320 0104 1946     		mov	r1, r3
 321 0106 0420     		movs	r0, #4
 322 0108 FFF7FEFF 		bl	_test_assert
 323 010c 0346     		mov	r3, r0
 324 010e 002B     		cmp	r3, #0
 325 0110 04E0     		b	.L11
 326              	.L20:
 327              		.loc 2 103 0
 328 0112 00BF     		nop
 329 0114 02E0     		b	.L11
 330              	.L21:
 331              		.loc 2 112 0
 332 0116 00BF     		nop
 333 0118 00E0     		b	.L11
 334              	.L22:
 335              		.loc 2 115 0
 336 011a 00BF     		nop
ARM GAS  /tmp/ccbmFvQZ.s 			page 7


 337              	.L11:
 338              		.loc 2 117 0
 339 011c 07B0     		add	sp, sp, #28
 340              		.cfi_def_cfa_offset 4
 341              		@ sp needed
 342 011e 5DF804FB 		ldr	pc, [sp], #4
 343              	.L24:
 344 0122 00BF     		.align	2
 345              	.L23:
 346 0124 00000000 		.word	heap1
 347 0128 00000000 		.word	.LC0
 348 012c 00000000 		.word	thread
 349 0130 00000000 		.word	threads
 350 0134 04000000 		.word	.LC1
 351 0138 08000000 		.word	.LC2
 352 013c 0C000000 		.word	.LC3
 353              		.cfi_endproc
 354              	.LFE233:
 355              		.size	dyn1_execute, .-dyn1_execute
 356              		.global	testdyn1
 357              		.section	.rodata
 358 000f 00       		.align	2
 359              	.LC4:
 360 0010 44796E61 		.ascii	"Dynamic APIs, threads creation from heap\000"
 360      6D696320 
 360      41504973 
 360      2C207468 
 360      72656164 
 361              		.section	.rodata.testdyn1,"a",%progbits
 362              		.align	2
 363              		.type	testdyn1, %object
 364              		.size	testdyn1, 16
 365              	testdyn1:
 366 0000 10000000 		.word	.LC4
 367 0004 00000000 		.word	dyn1_setup
 368 0008 00000000 		.word	0
 369 000c 00000000 		.word	dyn1_execute
 370              		.section	.text.dyn2_setup,"ax",%progbits
 371              		.align	1
 372              		.p2align 4,,15
 373              		.syntax unified
 374              		.thumb
 375              		.thumb_func
 376              		.fpu fpv4-sp-d16
 377              		.type	dyn2_setup, %function
 378              	dyn2_setup:
 379              	.LFB234:
 380              		.loc 2 138 0
 381              		.cfi_startproc
 382              		@ args = 0, pretend = 0, frame = 0
 383              		@ frame_needed = 0, uses_anonymous_args = 0
 384 0000 08B5     		push	{r3, lr}
 385              		.cfi_def_cfa_offset 8
 386              		.cfi_offset 3, -8
 387              		.cfi_offset 14, -4
 388              		.loc 2 140 0
 389 0002 0022     		movs	r2, #0
ARM GAS  /tmp/ccbmFvQZ.s 			page 8


 390 0004 4FF4F871 		mov	r1, #496
 391 0008 0248     		ldr	r0, .L26
 392 000a FFF7FEFF 		bl	chPoolObjectInit
 393              		.loc 2 141 0
 394 000e 00BF     		nop
 395 0010 08BD     		pop	{r3, pc}
 396              	.L27:
 397 0012 00BF     		.align	2
 398              	.L26:
 399 0014 00000000 		.word	mp1
 400              		.cfi_endproc
 401              	.LFE234:
 402              		.size	dyn2_setup, .-dyn2_setup
 403              		.section	.rodata
 404 0039 000000   		.align	2
 405              	.LC5:
 406 003c 4400     		.ascii	"D\000"
 407 003e 0000     		.align	2
 408              	.LC6:
 409 0040 4500     		.ascii	"E\000"
 410 0042 0000     		.align	2
 411              	.LC7:
 412 0044 41424344 		.ascii	"ABCD\000"
 412      00
 413              		.section	.text.dyn2_execute,"ax",%progbits
 414              		.align	1
 415              		.p2align 4,,15
 416              		.syntax unified
 417              		.thumb
 418              		.thumb_func
 419              		.fpu fpv4-sp-d16
 420              		.type	dyn2_execute, %function
 421              	dyn2_execute:
 422              	.LFB235:
 423              		.loc 2 143 0
 424              		.cfi_startproc
 425              		@ args = 0, pretend = 0, frame = 8
 426              		@ frame_needed = 0, uses_anonymous_args = 0
 427 0000 00B5     		push	{lr}
 428              		.cfi_def_cfa_offset 4
 429              		.cfi_offset 14, -4
 430 0002 83B0     		sub	sp, sp, #12
 431              		.cfi_def_cfa_offset 16
 432              		.loc 2 145 0
 433 0004 FFF7FEFF 		bl	chThdGetPriorityX
 434 0008 0090     		str	r0, [sp]
 435              		.loc 2 148 0
 436 000a 0023     		movs	r3, #0
 437 000c 0193     		str	r3, [sp, #4]
 438 000e 0AE0     		b	.L29
 439              	.L30:
 440              		.loc 2 149 0 discriminator 3
 441 0010 4D4A     		ldr	r2, .L42
 442 0012 019B     		ldr	r3, [sp, #4]
 443 0014 52F82330 		ldr	r3, [r2, r3, lsl #2]
 444 0018 1946     		mov	r1, r3
 445 001a 4C48     		ldr	r0, .L42+4
ARM GAS  /tmp/ccbmFvQZ.s 			page 9


 446 001c FFF7FEFF 		bl	chPoolFree
 447              		.loc 2 148 0 discriminator 3
 448 0020 019B     		ldr	r3, [sp, #4]
 449 0022 0133     		adds	r3, r3, #1
 450 0024 0193     		str	r3, [sp, #4]
 451              	.L29:
 452              		.loc 2 148 0 is_stmt 0 discriminator 1
 453 0026 019B     		ldr	r3, [sp, #4]
 454 0028 032B     		cmp	r3, #3
 455 002a F1DD     		ble	.L30
 456              		.loc 2 152 0 is_stmt 1
 457 002c 009B     		ldr	r3, [sp]
 458 002e 591E     		subs	r1, r3, #1
 459 0030 474B     		ldr	r3, .L42+8
 460 0032 484A     		ldr	r2, .L42+12
 461 0034 4548     		ldr	r0, .L42+4
 462 0036 FFF7FEFF 		bl	chThdCreateFromMemoryPool
 463 003a 0246     		mov	r2, r0
 464 003c 464B     		ldr	r3, .L42+16
 465 003e 1A60     		str	r2, [r3]
 466              		.loc 2 153 0
 467 0040 009B     		ldr	r3, [sp]
 468 0042 991E     		subs	r1, r3, #2
 469 0044 454B     		ldr	r3, .L42+20
 470 0046 434A     		ldr	r2, .L42+12
 471 0048 4048     		ldr	r0, .L42+4
 472 004a FFF7FEFF 		bl	chThdCreateFromMemoryPool
 473 004e 0246     		mov	r2, r0
 474 0050 414B     		ldr	r3, .L42+16
 475 0052 5A60     		str	r2, [r3, #4]
 476              		.loc 2 154 0
 477 0054 009B     		ldr	r3, [sp]
 478 0056 D91E     		subs	r1, r3, #3
 479 0058 414B     		ldr	r3, .L42+24
 480 005a 3E4A     		ldr	r2, .L42+12
 481 005c 3B48     		ldr	r0, .L42+4
 482 005e FFF7FEFF 		bl	chThdCreateFromMemoryPool
 483 0062 0246     		mov	r2, r0
 484 0064 3C4B     		ldr	r3, .L42+16
 485 0066 9A60     		str	r2, [r3, #8]
 486              		.loc 2 155 0
 487 0068 009B     		ldr	r3, [sp]
 488 006a 191F     		subs	r1, r3, #4
 489 006c 3D4B     		ldr	r3, .L42+28
 490 006e 394A     		ldr	r2, .L42+12
 491 0070 3648     		ldr	r0, .L42+4
 492 0072 FFF7FEFF 		bl	chThdCreateFromMemoryPool
 493 0076 0246     		mov	r2, r0
 494 0078 374B     		ldr	r3, .L42+16
 495 007a DA60     		str	r2, [r3, #12]
 496              		.loc 2 156 0
 497 007c 009B     		ldr	r3, [sp]
 498 007e 591F     		subs	r1, r3, #5
 499 0080 394B     		ldr	r3, .L42+32
 500 0082 344A     		ldr	r2, .L42+12
 501 0084 3148     		ldr	r0, .L42+4
 502 0086 FFF7FEFF 		bl	chThdCreateFromMemoryPool
ARM GAS  /tmp/ccbmFvQZ.s 			page 10


 503 008a 0246     		mov	r2, r0
 504 008c 324B     		ldr	r3, .L42+16
 505 008e 1A61     		str	r2, [r3, #16]
 506              		.loc 2 158 0
 507 0090 314B     		ldr	r3, .L42+16
 508 0092 1B68     		ldr	r3, [r3]
 509 0094 002B     		cmp	r3, #0
 510 0096 11D0     		beq	.L31
 511              		.loc 2 158 0 is_stmt 0 discriminator 1
 512 0098 2F4B     		ldr	r3, .L42+16
 513 009a 5B68     		ldr	r3, [r3, #4]
 514 009c 002B     		cmp	r3, #0
 515 009e 0DD0     		beq	.L31
 516              		.loc 2 158 0 discriminator 3
 517 00a0 2D4B     		ldr	r3, .L42+16
 518 00a2 9B68     		ldr	r3, [r3, #8]
 519 00a4 002B     		cmp	r3, #0
 520 00a6 09D0     		beq	.L31
 521              		.loc 2 158 0 discriminator 5
 522 00a8 2B4B     		ldr	r3, .L42+16
 523 00aa DB68     		ldr	r3, [r3, #12]
 524 00ac 002B     		cmp	r3, #0
 525 00ae 05D0     		beq	.L31
 526              		.loc 2 158 0 discriminator 7
 527 00b0 294B     		ldr	r3, .L42+16
 528 00b2 1B69     		ldr	r3, [r3, #16]
 529 00b4 002B     		cmp	r3, #0
 530 00b6 01D1     		bne	.L31
 531              		.loc 2 158 0 discriminator 9
 532 00b8 0123     		movs	r3, #1
 533 00ba 00E0     		b	.L32
 534              	.L31:
 535              		.loc 2 158 0 discriminator 10
 536 00bc 0023     		movs	r3, #0
 537              	.L32:
 538              		.loc 2 158 0 discriminator 12
 539 00be 03F00103 		and	r3, r3, #1
 540 00c2 DBB2     		uxtb	r3, r3
 541 00c4 1946     		mov	r1, r3
 542 00c6 0120     		movs	r0, #1
 543 00c8 FFF7FEFF 		bl	_test_assert
 544 00cc 0346     		mov	r3, r0
 545 00ce 002B     		cmp	r3, #0
 546 00d0 31D1     		bne	.L39
 547              		.loc 2 166 0 is_stmt 1
 548 00d2 FFF7FEFF 		bl	test_wait_threads
 549              		.loc 2 167 0
 550 00d6 2549     		ldr	r1, .L42+36
 551 00d8 0220     		movs	r0, #2
 552 00da FFF7FEFF 		bl	_test_assert_sequence
 553 00de 0346     		mov	r3, r0
 554 00e0 002B     		cmp	r3, #0
 555 00e2 2AD1     		bne	.L40
 556              		.loc 2 170 0
 557 00e4 0023     		movs	r3, #0
 558 00e6 0193     		str	r3, [sp, #4]
 559 00e8 12E0     		b	.L36
ARM GAS  /tmp/ccbmFvQZ.s 			page 11


 560              	.L38:
 561              		.loc 2 171 0
 562 00ea 1848     		ldr	r0, .L42+4
 563 00ec FFF7FEFF 		bl	chPoolAlloc
 564 00f0 0346     		mov	r3, r0
 565 00f2 002B     		cmp	r3, #0
 566 00f4 14BF     		ite	ne
 567 00f6 0123     		movne	r3, #1
 568 00f8 0023     		moveq	r3, #0
 569 00fa DBB2     		uxtb	r3, r3
 570 00fc 1946     		mov	r1, r3
 571 00fe 0320     		movs	r0, #3
 572 0100 FFF7FEFF 		bl	_test_assert
 573 0104 0346     		mov	r3, r0
 574 0106 002B     		cmp	r3, #0
 575 0108 19D1     		bne	.L41
 576              		.loc 2 170 0 discriminator 2
 577 010a 019B     		ldr	r3, [sp, #4]
 578 010c 0133     		adds	r3, r3, #1
 579 010e 0193     		str	r3, [sp, #4]
 580              	.L36:
 581              		.loc 2 170 0 is_stmt 0 discriminator 1
 582 0110 019B     		ldr	r3, [sp, #4]
 583 0112 032B     		cmp	r3, #3
 584 0114 E9DD     		ble	.L38
 585              		.loc 2 172 0 is_stmt 1
 586 0116 0D48     		ldr	r0, .L42+4
 587 0118 FFF7FEFF 		bl	chPoolAlloc
 588 011c 0346     		mov	r3, r0
 589 011e 002B     		cmp	r3, #0
 590 0120 0CBF     		ite	eq
 591 0122 0123     		moveq	r3, #1
 592 0124 0023     		movne	r3, #0
 593 0126 DBB2     		uxtb	r3, r3
 594 0128 1946     		mov	r1, r3
 595 012a 0420     		movs	r0, #4
 596 012c FFF7FEFF 		bl	_test_assert
 597 0130 0346     		mov	r3, r0
 598 0132 002B     		cmp	r3, #0
 599 0134 04E0     		b	.L28
 600              	.L39:
 601              		.loc 2 158 0
 602 0136 00BF     		nop
 603 0138 02E0     		b	.L28
 604              	.L40:
 605              		.loc 2 167 0
 606 013a 00BF     		nop
 607 013c 00E0     		b	.L28
 608              	.L41:
 609              		.loc 2 171 0
 610 013e 00BF     		nop
 611              	.L28:
 612              		.loc 2 173 0
 613 0140 03B0     		add	sp, sp, #12
 614              		.cfi_def_cfa_offset 4
 615              		@ sp needed
 616 0142 5DF804FB 		ldr	pc, [sp], #4
ARM GAS  /tmp/ccbmFvQZ.s 			page 12


 617              	.L43:
 618 0146 00BF     		.align	2
 619              	.L42:
 620 0148 00000000 		.word	wa
 621 014c 00000000 		.word	mp1
 622 0150 00000000 		.word	.LC0
 623 0154 00000000 		.word	thread
 624 0158 00000000 		.word	threads
 625 015c 04000000 		.word	.LC1
 626 0160 08000000 		.word	.LC2
 627 0164 3C000000 		.word	.LC5
 628 0168 40000000 		.word	.LC6
 629 016c 44000000 		.word	.LC7
 630              		.cfi_endproc
 631              	.LFE235:
 632              		.size	dyn2_execute, .-dyn2_execute
 633              		.global	testdyn2
 634              		.section	.rodata
 635 0049 000000   		.align	2
 636              	.LC8:
 637 004c 44796E61 		.ascii	"Dynamic APIs, threads creation from memory pool\000"
 637      6D696320 
 637      41504973 
 637      2C207468 
 637      72656164 
 638              		.section	.rodata.testdyn2,"a",%progbits
 639              		.align	2
 640              		.type	testdyn2, %object
 641              		.size	testdyn2, 16
 642              	testdyn2:
 643 0000 4C000000 		.word	.LC8
 644 0004 00000000 		.word	dyn2_setup
 645 0008 00000000 		.word	0
 646 000c 00000000 		.word	dyn2_execute
 647              		.section	.text.regfind,"ax",%progbits
 648              		.align	1
 649              		.p2align 4,,15
 650              		.syntax unified
 651              		.thumb
 652              		.thumb_func
 653              		.fpu fpv4-sp-d16
 654              		.type	regfind, %function
 655              	regfind:
 656              	.LFB236:
 657              		.loc 2 192 0
 658              		.cfi_startproc
 659              		@ args = 0, pretend = 0, frame = 16
 660              		@ frame_needed = 0, uses_anonymous_args = 0
 661 0000 00B5     		push	{lr}
 662              		.cfi_def_cfa_offset 4
 663              		.cfi_offset 14, -4
 664 0002 85B0     		sub	sp, sp, #20
 665              		.cfi_def_cfa_offset 24
 666 0004 0190     		str	r0, [sp, #4]
 667              		.loc 2 194 0
 668 0006 0023     		movs	r3, #0
 669 0008 8DF80B30 		strb	r3, [sp, #11]
ARM GAS  /tmp/ccbmFvQZ.s 			page 13


 670              		.loc 2 196 0
 671 000c FFF7FEFF 		bl	chRegFirstThread
 672 0010 0390     		str	r0, [sp, #12]
 673              	.L45:
 674              		.loc 2 198 0 discriminator 1
 675 0012 9DF80B30 		ldrb	r3, [sp, #11]	@ zero_extendqisi2
 676 0016 0399     		ldr	r1, [sp, #12]
 677 0018 019A     		ldr	r2, [sp, #4]
 678 001a 9142     		cmp	r1, r2
 679 001c 0CBF     		ite	eq
 680 001e 0122     		moveq	r2, #1
 681 0020 0022     		movne	r2, #0
 682 0022 D2B2     		uxtb	r2, r2
 683 0024 1343     		orrs	r3, r3, r2
 684 0026 002B     		cmp	r3, #0
 685 0028 14BF     		ite	ne
 686 002a 0123     		movne	r3, #1
 687 002c 0023     		moveq	r3, #0
 688 002e 8DF80B30 		strb	r3, [sp, #11]
 689              		.loc 2 199 0 discriminator 1
 690 0032 0398     		ldr	r0, [sp, #12]
 691 0034 FFF7FEFF 		bl	chRegNextThread
 692 0038 0390     		str	r0, [sp, #12]
 693              		.loc 2 200 0 discriminator 1
 694 003a 039B     		ldr	r3, [sp, #12]
 695 003c 002B     		cmp	r3, #0
 696 003e E8D1     		bne	.L45
 697              		.loc 2 201 0
 698 0040 9DF80B30 		ldrb	r3, [sp, #11]	@ zero_extendqisi2
 699              		.loc 2 202 0
 700 0044 1846     		mov	r0, r3
 701 0046 05B0     		add	sp, sp, #20
 702              		.cfi_def_cfa_offset 4
 703              		@ sp needed
 704 0048 5DF804FB 		ldr	pc, [sp], #4
 705              		.cfi_endproc
 706              	.LFE236:
 707              		.size	regfind, .-regfind
 708              		.section	.text.dyn3_setup,"ax",%progbits
 709              		.align	1
 710              		.p2align 4,,15
 711              		.syntax unified
 712              		.thumb
 713              		.thumb_func
 714              		.fpu fpv4-sp-d16
 715              		.type	dyn3_setup, %function
 716              	dyn3_setup:
 717              	.LFB237:
 718              		.loc 2 204 0
 719              		.cfi_startproc
 720              		@ args = 0, pretend = 0, frame = 0
 721              		@ frame_needed = 0, uses_anonymous_args = 0
 722 0000 08B5     		push	{r3, lr}
 723              		.cfi_def_cfa_offset 8
 724              		.cfi_offset 3, -8
 725              		.cfi_offset 14, -4
 726              		.loc 2 206 0
ARM GAS  /tmp/ccbmFvQZ.s 			page 14


 727 0002 4FF41B62 		mov	r2, #2480
 728 0006 0349     		ldr	r1, .L48
 729 0008 0348     		ldr	r0, .L48+4
 730 000a FFF7FEFF 		bl	chHeapObjectInit
 731              		.loc 2 207 0
 732 000e 00BF     		nop
 733 0010 08BD     		pop	{r3, pc}
 734              	.L49:
 735 0012 00BF     		.align	2
 736              	.L48:
 737 0014 00000000 		.word	test
 738 0018 00000000 		.word	heap1
 739              		.cfi_endproc
 740              	.LFE237:
 741              		.size	dyn3_setup, .-dyn3_setup
 742              		.section	.text.dyn3_execute,"ax",%progbits
 743              		.align	1
 744              		.p2align 4,,15
 745              		.syntax unified
 746              		.thumb
 747              		.thumb_func
 748              		.fpu fpv4-sp-d16
 749              		.type	dyn3_execute, %function
 750              	dyn3_execute:
 751              	.LFB238:
 752              		.loc 2 209 0
 753              		.cfi_startproc
 754              		@ args = 0, pretend = 0, frame = 8
 755              		@ frame_needed = 0, uses_anonymous_args = 0
 756 0000 00B5     		push	{lr}
 757              		.cfi_def_cfa_offset 4
 758              		.cfi_offset 14, -4
 759 0002 85B0     		sub	sp, sp, #20
 760              		.cfi_def_cfa_offset 24
 761              		.loc 2 211 0
 762 0004 FFF7FEFF 		bl	chThdGetPriorityX
 763 0008 0390     		str	r0, [sp, #12]
 764              		.loc 2 214 0
 765 000a 039B     		ldr	r3, [sp, #12]
 766 000c 5A1E     		subs	r2, r3, #1
 767 000e 6C4B     		ldr	r3, .L74
 768 0010 0093     		str	r3, [sp]
 769 0012 6C4B     		ldr	r3, .L74+4
 770 0014 4FF4F871 		mov	r1, #496
 771 0018 6B48     		ldr	r0, .L74+8
 772 001a FFF7FEFF 		bl	chThdCreateFromHeap
 773 001e 0290     		str	r0, [sp, #8]
 774              		.loc 2 215 0
 775 0020 029B     		ldr	r3, [sp, #8]
 776 0022 93F82230 		ldrb	r3, [r3, #34]	@ zero_extendqisi2
 777 0026 012B     		cmp	r3, #1
 778 0028 0CBF     		ite	eq
 779 002a 0123     		moveq	r3, #1
 780 002c 0023     		movne	r3, #0
 781 002e DBB2     		uxtb	r3, r3
 782 0030 1946     		mov	r1, r3
 783 0032 0120     		movs	r0, #1
ARM GAS  /tmp/ccbmFvQZ.s 			page 15


 784 0034 FFF7FEFF 		bl	_test_assert
 785 0038 0346     		mov	r3, r0
 786 003a 002B     		cmp	r3, #0
 787 003c 40F0A780 		bne	.L63
 788              		.loc 2 216 0
 789 0040 0298     		ldr	r0, [sp, #8]
 790 0042 FFF7FEFF 		bl	chThdAddRef
 791              		.loc 2 217 0
 792 0046 029B     		ldr	r3, [sp, #8]
 793 0048 93F82230 		ldrb	r3, [r3, #34]	@ zero_extendqisi2
 794 004c 022B     		cmp	r3, #2
 795 004e 0CBF     		ite	eq
 796 0050 0123     		moveq	r3, #1
 797 0052 0023     		movne	r3, #0
 798 0054 DBB2     		uxtb	r3, r3
 799 0056 1946     		mov	r1, r3
 800 0058 0220     		movs	r0, #2
 801 005a FFF7FEFF 		bl	_test_assert
 802 005e 0346     		mov	r3, r0
 803 0060 002B     		cmp	r3, #0
 804 0062 40F09680 		bne	.L64
 805              		.loc 2 218 0
 806 0066 0298     		ldr	r0, [sp, #8]
 807 0068 FFF7FEFF 		bl	chThdRelease
 808              		.loc 2 219 0
 809 006c 029B     		ldr	r3, [sp, #8]
 810 006e 93F82230 		ldrb	r3, [r3, #34]	@ zero_extendqisi2
 811 0072 012B     		cmp	r3, #1
 812 0074 0CBF     		ite	eq
 813 0076 0123     		moveq	r3, #1
 814 0078 0023     		movne	r3, #0
 815 007a DBB2     		uxtb	r3, r3
 816 007c 1946     		mov	r1, r3
 817 007e 0320     		movs	r0, #3
 818 0080 FFF7FEFF 		bl	_test_assert
 819 0084 0346     		mov	r3, r0
 820 0086 002B     		cmp	r3, #0
 821 0088 40F08580 		bne	.L65
 822              		.loc 2 222 0
 823 008c 0298     		ldr	r0, [sp, #8]
 824 008e FFF7FEFF 		bl	regfind
 825 0092 0346     		mov	r3, r0
 826 0094 1946     		mov	r1, r3
 827 0096 0420     		movs	r0, #4
 828 0098 FFF7FEFF 		bl	_test_assert
 829 009c 0346     		mov	r3, r0
 830 009e 002B     		cmp	r3, #0
 831 00a0 7BD1     		bne	.L66
 832              		.loc 2 223 0
 833 00a2 0298     		ldr	r0, [sp, #8]
 834 00a4 FFF7FEFF 		bl	regfind
 835 00a8 0346     		mov	r3, r0
 836 00aa 1946     		mov	r1, r3
 837 00ac 0520     		movs	r0, #5
 838 00ae FFF7FEFF 		bl	_test_assert
 839 00b2 0346     		mov	r3, r0
 840 00b4 002B     		cmp	r3, #0
ARM GAS  /tmp/ccbmFvQZ.s 			page 16


 841 00b6 72D1     		bne	.L67
 842              		.loc 2 226 0
 843 00b8 0298     		ldr	r0, [sp, #8]
 844 00ba FFF7FEFF 		bl	chThdRelease
 845              		.loc 2 227 0
 846 00be 029B     		ldr	r3, [sp, #8]
 847 00c0 93F82230 		ldrb	r3, [r3, #34]	@ zero_extendqisi2
 848 00c4 002B     		cmp	r3, #0
 849 00c6 0CBF     		ite	eq
 850 00c8 0123     		moveq	r3, #1
 851 00ca 0023     		movne	r3, #0
 852 00cc DBB2     		uxtb	r3, r3
 853 00ce 1946     		mov	r1, r3
 854 00d0 0620     		movs	r0, #6
 855 00d2 FFF7FEFF 		bl	_test_assert
 856 00d6 0346     		mov	r3, r0
 857 00d8 002B     		cmp	r3, #0
 858 00da 62D1     		bne	.L68
 859              		.loc 2 228 0
 860 00dc 029B     		ldr	r3, [sp, #8]
 861 00de 93F82030 		ldrb	r3, [r3, #32]	@ zero_extendqisi2
 862 00e2 002B     		cmp	r3, #0
 863 00e4 0CBF     		ite	eq
 864 00e6 0123     		moveq	r3, #1
 865 00e8 0023     		movne	r3, #0
 866 00ea DBB2     		uxtb	r3, r3
 867 00ec 1946     		mov	r1, r3
 868 00ee 0720     		movs	r0, #7
 869 00f0 FFF7FEFF 		bl	_test_assert
 870 00f4 0346     		mov	r3, r0
 871 00f6 002B     		cmp	r3, #0
 872 00f8 55D1     		bne	.L69
 873              		.loc 2 229 0
 874 00fa 0298     		ldr	r0, [sp, #8]
 875 00fc FFF7FEFF 		bl	regfind
 876 0100 0346     		mov	r3, r0
 877 0102 1946     		mov	r1, r3
 878 0104 0820     		movs	r0, #8
 879 0106 FFF7FEFF 		bl	_test_assert
 880 010a 0346     		mov	r3, r0
 881 010c 002B     		cmp	r3, #0
 882 010e 4CD1     		bne	.L70
 883              		.loc 2 230 0
 884 0110 0298     		ldr	r0, [sp, #8]
 885 0112 FFF7FEFF 		bl	regfind
 886 0116 0346     		mov	r3, r0
 887 0118 1946     		mov	r1, r3
 888 011a 0920     		movs	r0, #9
 889 011c FFF7FEFF 		bl	_test_assert
 890 0120 0346     		mov	r3, r0
 891 0122 002B     		cmp	r3, #0
 892 0124 43D1     		bne	.L71
 893              		.loc 2 231 0
 894 0126 4FF4FA70 		mov	r0, #500
 895 012a FFF7FEFF 		bl	chThdSleep
 896              		.loc 2 232 0
 897 012e 029B     		ldr	r3, [sp, #8]
ARM GAS  /tmp/ccbmFvQZ.s 			page 17


 898 0130 93F82030 		ldrb	r3, [r3, #32]	@ zero_extendqisi2
 899 0134 0F2B     		cmp	r3, #15
 900 0136 0CBF     		ite	eq
 901 0138 0123     		moveq	r3, #1
 902 013a 0023     		movne	r3, #0
 903 013c DBB2     		uxtb	r3, r3
 904 013e 1946     		mov	r1, r3
 905 0140 0A20     		movs	r0, #10
 906 0142 FFF7FEFF 		bl	_test_assert
 907 0146 0346     		mov	r3, r0
 908 0148 002B     		cmp	r3, #0
 909 014a 32D1     		bne	.L72
 910              		.loc 2 235 0
 911 014c 0298     		ldr	r0, [sp, #8]
 912 014e FFF7FEFF 		bl	regfind
 913 0152 0346     		mov	r3, r0
 914 0154 1946     		mov	r1, r3
 915 0156 0B20     		movs	r0, #11
 916 0158 FFF7FEFF 		bl	_test_assert
 917 015c 0346     		mov	r3, r0
 918 015e 002B     		cmp	r3, #0
 919 0160 29D1     		bne	.L73
 920              		.loc 2 236 0
 921 0162 0298     		ldr	r0, [sp, #8]
 922 0164 FFF7FEFF 		bl	regfind
 923 0168 0346     		mov	r3, r0
 924 016a 002B     		cmp	r3, #0
 925 016c 14BF     		ite	ne
 926 016e 0123     		movne	r3, #1
 927 0170 0023     		moveq	r3, #0
 928 0172 DBB2     		uxtb	r3, r3
 929 0174 83F00103 		eor	r3, r3, #1
 930 0178 DBB2     		uxtb	r3, r3
 931 017a 03F00103 		and	r3, r3, #1
 932 017e DBB2     		uxtb	r3, r3
 933 0180 1946     		mov	r1, r3
 934 0182 0C20     		movs	r0, #12
 935 0184 FFF7FEFF 		bl	_test_assert
 936 0188 0346     		mov	r3, r0
 937 018a 002B     		cmp	r3, #0
 938 018c 14E0     		b	.L50
 939              	.L63:
 940              		.loc 2 215 0
 941 018e 00BF     		nop
 942 0190 12E0     		b	.L50
 943              	.L64:
 944              		.loc 2 217 0
 945 0192 00BF     		nop
 946 0194 10E0     		b	.L50
 947              	.L65:
 948              		.loc 2 219 0
 949 0196 00BF     		nop
 950 0198 0EE0     		b	.L50
 951              	.L66:
 952              		.loc 2 222 0
 953 019a 00BF     		nop
 954 019c 0CE0     		b	.L50
ARM GAS  /tmp/ccbmFvQZ.s 			page 18


 955              	.L67:
 956              		.loc 2 223 0
 957 019e 00BF     		nop
 958 01a0 0AE0     		b	.L50
 959              	.L68:
 960              		.loc 2 227 0
 961 01a2 00BF     		nop
 962 01a4 08E0     		b	.L50
 963              	.L69:
 964              		.loc 2 228 0
 965 01a6 00BF     		nop
 966 01a8 06E0     		b	.L50
 967              	.L70:
 968              		.loc 2 229 0
 969 01aa 00BF     		nop
 970 01ac 04E0     		b	.L50
 971              	.L71:
 972              		.loc 2 230 0
 973 01ae 00BF     		nop
 974 01b0 02E0     		b	.L50
 975              	.L72:
 976              		.loc 2 232 0
 977 01b2 00BF     		nop
 978 01b4 00E0     		b	.L50
 979              	.L73:
 980              		.loc 2 235 0
 981 01b6 00BF     		nop
 982              	.L50:
 983              		.loc 2 237 0
 984 01b8 05B0     		add	sp, sp, #20
 985              		.cfi_def_cfa_offset 4
 986              		@ sp needed
 987 01ba 5DF804FB 		ldr	pc, [sp], #4
 988              	.L75:
 989 01be 00BF     		.align	2
 990              	.L74:
 991 01c0 00000000 		.word	.LC0
 992 01c4 00000000 		.word	thread
 993 01c8 00000000 		.word	heap1
 994              		.cfi_endproc
 995              	.LFE238:
 996              		.size	dyn3_execute, .-dyn3_execute
 997              		.global	testdyn3
 998              		.section	.rodata
 999              		.align	2
 1000              	.LC9:
 1001 007c 44796E61 		.ascii	"Dynamic APIs, registry and references\000"
 1001      6D696320 
 1001      41504973 
 1001      2C207265 
 1001      67697374 
 1002              		.section	.rodata.testdyn3,"a",%progbits
 1003              		.align	2
 1004              		.type	testdyn3, %object
 1005              		.size	testdyn3, 16
 1006              	testdyn3:
 1007 0000 7C000000 		.word	.LC9
ARM GAS  /tmp/ccbmFvQZ.s 			page 19


 1008 0004 00000000 		.word	dyn3_setup
 1009 0008 00000000 		.word	0
 1010 000c 00000000 		.word	dyn3_execute
 1011              		.global	patterndyn
 1012              		.section	.rodata.patterndyn,"a",%progbits
 1013              		.align	2
 1014              		.type	patterndyn, %object
 1015              		.size	patterndyn, 16
 1016              	patterndyn:
 1017 0000 00000000 		.word	testdyn1
 1018 0004 00000000 		.word	testdyn2
 1019 0008 00000000 		.word	testdyn3
 1020 000c 00000000 		.word	0
 1021              		.text
 1022              	.Letext0:
 1023              		.file 3 "/usr/lib/gcc/arm-none-eabi/6.3.1/include/stddef.h"
 1024              		.file 4 "/usr/arm-none-eabi/include/machine/_default_types.h"
 1025              		.file 5 "/usr/arm-none-eabi/include/sys/_stdint.h"
 1026              		.file 6 "../ChibiOS/os/rt/ports/ARMCMx/compilers/GCC/chtypes.h"
 1027              		.file 7 "../ChibiOS/os/rt/include/chsystypes.h"
 1028              		.file 8 "../ChibiOS/os/rt/include/chschd.h"
 1029              		.file 9 "../ChibiOS/os/ext/CMSIS/include/core_cm4.h"
 1030              		.file 10 "../ChibiOS/os/ext/CMSIS/ST/STM32F4xx/system_stm32f4xx.h"
 1031              		.file 11 "../ChibiOS/os/rt/ports/ARMCMx/chcore.h"
 1032              		.file 12 "../ChibiOS/os/rt/ports/ARMCMx/chcore_v7m.h"
 1033              		.file 13 "../ChibiOS/os/rt/include/chtm.h"
 1034              		.file 14 "../ChibiOS/os/rt/include/chstats.h"
 1035              		.file 15 "../ChibiOS/os/rt/include/chsem.h"
 1036              		.file 16 "../ChibiOS/os/rt/include/chmtx.h"
 1037              		.file 17 "../ChibiOS/os/rt/include/chregistry.h"
 1038              		.file 18 "../ChibiOS/os/rt/include/chmemcore.h"
 1039              		.file 19 "../ChibiOS/os/rt/include/chheap.h"
 1040              		.file 20 "../ChibiOS/os/rt/include/chmempools.h"
 1041              		.file 21 "../ChibiOS/test/rt/test.h"