ARM GAS  /tmp/ccaMab5i.s 			page 1


   1              		.cpu cortex-m4
   2              		.eabi_attribute 27, 1
   3              		.eabi_attribute 28, 1
   4              		.eabi_attribute 20, 1
   5              		.eabi_attribute 21, 1
   6              		.eabi_attribute 23, 3
   7              		.eabi_attribute 24, 1
   8              		.eabi_attribute 25, 1
   9              		.eabi_attribute 26, 1
  10              		.eabi_attribute 30, 6
  11              		.eabi_attribute 34, 1
  12              		.eabi_attribute 18, 4
  13              		.file	"testmtx.c"
  14              		.text
  15              	.Ltext0:
  16              		.cfi_sections	.debug_frame
  17              		.section	.text.port_lock,"ax",%progbits
  18              		.align	1
  19              		.p2align 4,,15
  20              		.syntax unified
  21              		.thumb
  22              		.thumb_func
  23              		.fpu fpv4-sp-d16
  24              		.type	port_lock, %function
  25              	port_lock:
  26              	.LFB127:
  27              		.file 1 "../ChibiOS/os/rt/ports/ARMCMx/chcore_v7m.h"
  28              		.loc 1 456 0
  29              		.cfi_startproc
  30              		@ args = 0, pretend = 0, frame = 8
  31              		@ frame_needed = 0, uses_anonymous_args = 0
  32              		@ link register save eliminated.
  33 0000 82B0     		sub	sp, sp, #8
  34              		.cfi_def_cfa_offset 8
  35 0002 2023     		movs	r3, #32
  36 0004 0193     		str	r3, [sp, #4]
  37              	.LBB6:
  38              	.LBB7:
  39              		.file 2 "../ChibiOS/os/ext/CMSIS/include/core_cmFunc.h"
  40              		.loc 2 548 0
  41 0006 019B     		ldr	r3, [sp, #4]
  42              		.syntax unified
  43              	@ 548 "../ChibiOS/os/ext/CMSIS/include/core_cmFunc.h" 1
  44 0008 83F31188 		MSR basepri, r3
  45              	@ 0 "" 2
  46              		.thumb
  47              		.syntax unified
  48              	.LBE7:
  49              	.LBE6:
  50              		.loc 1 473 0
  51 000c 00BF     		nop
  52 000e 02B0     		add	sp, sp, #8
  53              		.cfi_def_cfa_offset 0
  54              		@ sp needed
  55 0010 7047     		bx	lr
  56              		.cfi_endproc
  57              	.LFE127:
ARM GAS  /tmp/ccaMab5i.s 			page 2


  58              		.size	port_lock, .-port_lock
  59 0012 00BF     		.section	.text.port_unlock,"ax",%progbits
  60              		.align	1
  61              		.p2align 4,,15
  62              		.syntax unified
  63              		.thumb
  64              		.thumb_func
  65              		.fpu fpv4-sp-d16
  66              		.type	port_unlock, %function
  67              	port_unlock:
  68              	.LFB128:
  69              		.loc 1 480 0
  70              		.cfi_startproc
  71              		@ args = 0, pretend = 0, frame = 8
  72              		@ frame_needed = 0, uses_anonymous_args = 0
  73              		@ link register save eliminated.
  74 0000 82B0     		sub	sp, sp, #8
  75              		.cfi_def_cfa_offset 8
  76 0002 0023     		movs	r3, #0
  77 0004 0193     		str	r3, [sp, #4]
  78              	.LBB8:
  79              	.LBB9:
  80              		.loc 2 548 0
  81 0006 019B     		ldr	r3, [sp, #4]
  82              		.syntax unified
  83              	@ 548 "../ChibiOS/os/ext/CMSIS/include/core_cmFunc.h" 1
  84 0008 83F31188 		MSR basepri, r3
  85              	@ 0 "" 2
  86              		.thumb
  87              		.syntax unified
  88              	.LBE9:
  89              	.LBE8:
  90              		.loc 1 487 0
  91 000c 00BF     		nop
  92 000e 02B0     		add	sp, sp, #8
  93              		.cfi_def_cfa_offset 0
  94              		@ sp needed
  95 0010 7047     		bx	lr
  96              		.cfi_endproc
  97              	.LFE128:
  98              		.size	port_unlock, .-port_unlock
  99 0012 00BF     		.section	.text.queue_isempty,"ax",%progbits
 100              		.align	1
 101              		.p2align 4,,15
 102              		.syntax unified
 103              		.thumb
 104              		.thumb_func
 105              		.fpu fpv4-sp-d16
 106              		.type	queue_isempty, %function
 107              	queue_isempty:
 108              	.LFB140:
 109              		.file 3 "../ChibiOS/os/rt/include/chschd.h"
 110              		.loc 3 616 0
 111              		.cfi_startproc
 112              		@ args = 0, pretend = 0, frame = 8
 113              		@ frame_needed = 0, uses_anonymous_args = 0
 114              		@ link register save eliminated.
ARM GAS  /tmp/ccaMab5i.s 			page 3


 115 0000 82B0     		sub	sp, sp, #8
 116              		.cfi_def_cfa_offset 8
 117 0002 0190     		str	r0, [sp, #4]
 118              		.loc 3 618 0
 119 0004 019B     		ldr	r3, [sp, #4]
 120 0006 1A68     		ldr	r2, [r3]
 121 0008 019B     		ldr	r3, [sp, #4]
 122 000a 9A42     		cmp	r2, r3
 123 000c 0CBF     		ite	eq
 124 000e 0123     		moveq	r3, #1
 125 0010 0023     		movne	r3, #0
 126 0012 DBB2     		uxtb	r3, r3
 127              		.loc 3 619 0
 128 0014 1846     		mov	r0, r3
 129 0016 02B0     		add	sp, sp, #8
 130              		.cfi_def_cfa_offset 0
 131              		@ sp needed
 132 0018 7047     		bx	lr
 133              		.cfi_endproc
 134              	.LFE140:
 135              		.size	queue_isempty, .-queue_isempty
 136 001a 00BF     		.section	.text.chSysLock,"ax",%progbits
 137              		.align	1
 138              		.p2align 4,,15
 139              		.syntax unified
 140              		.thumb
 141              		.thumb_func
 142              		.fpu fpv4-sp-d16
 143              		.type	chSysLock, %function
 144              	chSysLock:
 145              	.LFB156:
 146              		.file 4 "../ChibiOS/os/rt/include/chsys.h"
 147              		.loc 4 346 0
 148              		.cfi_startproc
 149              		@ args = 0, pretend = 0, frame = 0
 150              		@ frame_needed = 0, uses_anonymous_args = 0
 151 0000 08B5     		push	{r3, lr}
 152              		.cfi_def_cfa_offset 8
 153              		.cfi_offset 3, -8
 154              		.cfi_offset 14, -4
 155              		.loc 4 348 0
 156 0002 FFF7FEFF 		bl	port_lock
 157              		.loc 4 349 0
 158 0006 FFF7FEFF 		bl	_stats_start_measure_crit_thd
 159              		.loc 4 350 0
 160 000a FFF7FEFF 		bl	_dbg_check_lock
 161              		.loc 4 351 0
 162 000e 00BF     		nop
 163 0010 08BD     		pop	{r3, pc}
 164              		.cfi_endproc
 165              	.LFE156:
 166              		.size	chSysLock, .-chSysLock
 167 0012 00BF     		.section	.text.chSysUnlock,"ax",%progbits
 168              		.align	1
 169              		.p2align 4,,15
 170              		.syntax unified
 171              		.thumb
ARM GAS  /tmp/ccaMab5i.s 			page 4


 172              		.thumb_func
 173              		.fpu fpv4-sp-d16
 174              		.type	chSysUnlock, %function
 175              	chSysUnlock:
 176              	.LFB157:
 177              		.loc 4 358 0
 178              		.cfi_startproc
 179              		@ args = 0, pretend = 0, frame = 0
 180              		@ frame_needed = 0, uses_anonymous_args = 0
 181 0000 08B5     		push	{r3, lr}
 182              		.cfi_def_cfa_offset 8
 183              		.cfi_offset 3, -8
 184              		.cfi_offset 14, -4
 185              		.loc 4 360 0
 186 0002 FFF7FEFF 		bl	_dbg_check_unlock
 187              		.loc 4 361 0
 188 0006 FFF7FEFF 		bl	_stats_stop_measure_crit_thd
 189              		.loc 4 367 0
 190 000a 0A4B     		ldr	r3, .L8
 191 000c 1B68     		ldr	r3, [r3]
 192 000e 094A     		ldr	r2, .L8
 193 0010 9342     		cmp	r3, r2
 194 0012 0AD0     		beq	.L7
 195              		.loc 4 367 0 is_stmt 0 discriminator 2
 196 0014 074B     		ldr	r3, .L8
 197 0016 9B69     		ldr	r3, [r3, #24]
 198 0018 9A68     		ldr	r2, [r3, #8]
 199 001a 064B     		ldr	r3, .L8
 200 001c 1B68     		ldr	r3, [r3]
 201 001e 9B68     		ldr	r3, [r3, #8]
 202 0020 9A42     		cmp	r2, r3
 203 0022 02D2     		bcs	.L7
 204              		.loc 4 367 0 discriminator 3
 205 0024 0448     		ldr	r0, .L8+4
 206 0026 FFF7FEFF 		bl	chSysHalt
 207              	.L7:
 208              		.loc 4 371 0 is_stmt 1
 209 002a FFF7FEFF 		bl	port_unlock
 210              		.loc 4 372 0
 211 002e 00BF     		nop
 212 0030 08BD     		pop	{r3, pc}
 213              	.L9:
 214 0032 00BF     		.align	2
 215              	.L8:
 216 0034 00000000 		.word	ch
 217 0038 00000000 		.word	__func__.7157
 218              		.cfi_endproc
 219              	.LFE157:
 220              		.size	chSysUnlock, .-chSysUnlock
 221              		.section	.text.chThdGetSelfX,"ax",%progbits
 222              		.align	1
 223              		.p2align 4,,15
 224              		.syntax unified
 225              		.thumb
 226              		.thumb_func
 227              		.fpu fpv4-sp-d16
 228              		.type	chThdGetSelfX, %function
ARM GAS  /tmp/ccaMab5i.s 			page 5


 229              	chThdGetSelfX:
 230              	.LFB178:
 231              		.file 5 "../ChibiOS/os/rt/include/chthreads.h"
 232              		.loc 5 174 0
 233              		.cfi_startproc
 234              		@ args = 0, pretend = 0, frame = 0
 235              		@ frame_needed = 0, uses_anonymous_args = 0
 236              		@ link register save eliminated.
 237              		.loc 5 176 0
 238 0000 014B     		ldr	r3, .L12
 239 0002 9B69     		ldr	r3, [r3, #24]
 240              		.loc 5 177 0
 241 0004 1846     		mov	r0, r3
 242 0006 7047     		bx	lr
 243              	.L13:
 244              		.align	2
 245              	.L12:
 246 0008 00000000 		.word	ch
 247              		.cfi_endproc
 248              	.LFE178:
 249              		.size	chThdGetSelfX, .-chThdGetSelfX
 250              		.section	.text.chThdGetPriorityX,"ax",%progbits
 251              		.align	1
 252              		.p2align 4,,15
 253              		.syntax unified
 254              		.thumb
 255              		.thumb_func
 256              		.fpu fpv4-sp-d16
 257              		.type	chThdGetPriorityX, %function
 258              	chThdGetPriorityX:
 259              	.LFB179:
 260              		.loc 5 187 0
 261              		.cfi_startproc
 262              		@ args = 0, pretend = 0, frame = 0
 263              		@ frame_needed = 0, uses_anonymous_args = 0
 264 0000 08B5     		push	{r3, lr}
 265              		.cfi_def_cfa_offset 8
 266              		.cfi_offset 3, -8
 267              		.cfi_offset 14, -4
 268              		.loc 5 189 0
 269 0002 FFF7FEFF 		bl	chThdGetSelfX
 270 0006 0346     		mov	r3, r0
 271 0008 9B68     		ldr	r3, [r3, #8]
 272              		.loc 5 190 0
 273 000a 1846     		mov	r0, r3
 274 000c 08BD     		pop	{r3, pc}
 275              		.cfi_endproc
 276              	.LFE179:
 277              		.size	chThdGetPriorityX, .-chThdGetPriorityX
 278 000e 00BF     		.section	.data.m1,"aw",%progbits
 279              		.align	2
 280              		.type	m1, %object
 281              		.size	m1, 16
 282              	m1:
 283 0000 00000000 		.word	m1
 284 0004 00000000 		.word	m1
 285 0008 00000000 		.word	0
ARM GAS  /tmp/ccaMab5i.s 			page 6


 286 000c 00000000 		.word	0
 287              		.section	.data.m2,"aw",%progbits
 288              		.align	2
 289              		.type	m2, %object
 290              		.size	m2, 16
 291              	m2:
 292 0000 00000000 		.word	m2
 293 0004 00000000 		.word	m2
 294 0008 00000000 		.word	0
 295 000c 00000000 		.word	0
 296              		.section	.data.c1,"aw",%progbits
 297              		.align	2
 298              		.type	c1, %object
 299              		.size	c1, 8
 300              	c1:
 301 0000 00000000 		.word	c1
 302 0004 00000000 		.word	c1
 303              		.section	.text.mtx1_setup,"ax",%progbits
 304              		.align	1
 305              		.p2align 4,,15
 306              		.syntax unified
 307              		.thumb
 308              		.thumb_func
 309              		.fpu fpv4-sp-d16
 310              		.type	mtx1_setup, %function
 311              	mtx1_setup:
 312              	.LFB231:
 313              		.file 6 "../ChibiOS/test/rt/testmtx.c"
 314              		.loc 6 84 0
 315              		.cfi_startproc
 316              		@ args = 0, pretend = 0, frame = 0
 317              		@ frame_needed = 0, uses_anonymous_args = 0
 318 0000 08B5     		push	{r3, lr}
 319              		.cfi_def_cfa_offset 8
 320              		.cfi_offset 3, -8
 321              		.cfi_offset 14, -4
 322              		.loc 6 86 0
 323 0002 0248     		ldr	r0, .L17
 324 0004 FFF7FEFF 		bl	chMtxObjectInit
 325              		.loc 6 87 0
 326 0008 00BF     		nop
 327 000a 08BD     		pop	{r3, pc}
 328              	.L18:
 329              		.align	2
 330              	.L17:
 331 000c 00000000 		.word	m1
 332              		.cfi_endproc
 333              	.LFE231:
 334              		.size	mtx1_setup, .-mtx1_setup
 335              		.section	.text.thread1,"ax",%progbits
 336              		.align	1
 337              		.p2align 4,,15
 338              		.syntax unified
 339              		.thumb
 340              		.thumb_func
 341              		.fpu fpv4-sp-d16
 342              		.type	thread1, %function
ARM GAS  /tmp/ccaMab5i.s 			page 7


 343              	thread1:
 344              	.LFB232:
 345              		.loc 6 89 0
 346              		.cfi_startproc
 347              		@ args = 0, pretend = 0, frame = 8
 348              		@ frame_needed = 0, uses_anonymous_args = 0
 349 0000 00B5     		push	{lr}
 350              		.cfi_def_cfa_offset 4
 351              		.cfi_offset 14, -4
 352 0002 83B0     		sub	sp, sp, #12
 353              		.cfi_def_cfa_offset 16
 354 0004 0190     		str	r0, [sp, #4]
 355              		.loc 6 91 0
 356 0006 0748     		ldr	r0, .L20
 357 0008 FFF7FEFF 		bl	chMtxLock
 358              		.loc 6 92 0
 359 000c 019B     		ldr	r3, [sp, #4]
 360 000e 1B78     		ldrb	r3, [r3]	@ zero_extendqisi2
 361 0010 1846     		mov	r0, r3
 362 0012 FFF7FEFF 		bl	test_emit_token
 363              		.loc 6 93 0
 364 0016 0348     		ldr	r0, .L20
 365 0018 FFF7FEFF 		bl	chMtxUnlock
 366              		.loc 6 94 0
 367 001c 00BF     		nop
 368 001e 03B0     		add	sp, sp, #12
 369              		.cfi_def_cfa_offset 4
 370              		@ sp needed
 371 0020 5DF804FB 		ldr	pc, [sp], #4
 372              	.L21:
 373              		.align	2
 374              	.L20:
 375 0024 00000000 		.word	m1
 376              		.cfi_endproc
 377              	.LFE232:
 378              		.size	thread1, .-thread1
 379              		.section	.rodata
 380              		.align	2
 381              	.LC0:
 382 0000 4500     		.ascii	"E\000"
 383 0002 0000     		.align	2
 384              	.LC1:
 385 0004 4400     		.ascii	"D\000"
 386 0006 0000     		.align	2
 387              	.LC2:
 388 0008 4300     		.ascii	"C\000"
 389 000a 0000     		.align	2
 390              	.LC3:
 391 000c 4200     		.ascii	"B\000"
 392 000e 0000     		.align	2
 393              	.LC4:
 394 0010 4100     		.ascii	"A\000"
 395 0012 0000     		.align	2
 396              	.LC5:
 397 0014 41424344 		.ascii	"ABCDE\000"
 397      4500
 398              		.section	.text.mtx1_execute,"ax",%progbits
ARM GAS  /tmp/ccaMab5i.s 			page 8


 399              		.align	1
 400              		.p2align 4,,15
 401              		.syntax unified
 402              		.thumb
 403              		.thumb_func
 404              		.fpu fpv4-sp-d16
 405              		.type	mtx1_execute, %function
 406              	mtx1_execute:
 407              	.LFB233:
 408              		.loc 6 96 0
 409              		.cfi_startproc
 410              		@ args = 0, pretend = 0, frame = 8
 411              		@ frame_needed = 0, uses_anonymous_args = 0
 412 0000 00B5     		push	{lr}
 413              		.cfi_def_cfa_offset 4
 414              		.cfi_offset 14, -4
 415 0002 85B0     		sub	sp, sp, #20
 416              		.cfi_def_cfa_offset 24
 417              		.loc 6 98 0
 418 0004 FFF7FEFF 		bl	chThdGetPriorityX
 419 0008 0390     		str	r0, [sp, #12]
 420              		.loc 6 99 0
 421 000a 3448     		ldr	r0, .L26
 422 000c FFF7FEFF 		bl	chMtxLock
 423              		.loc 6 100 0
 424 0010 334B     		ldr	r3, .L26+4
 425 0012 1868     		ldr	r0, [r3]
 426 0014 039B     		ldr	r3, [sp, #12]
 427 0016 5A1C     		adds	r2, r3, #1
 428 0018 324B     		ldr	r3, .L26+8
 429 001a 0093     		str	r3, [sp]
 430 001c 324B     		ldr	r3, .L26+12
 431 001e 4FF4F871 		mov	r1, #496
 432 0022 FFF7FEFF 		bl	chThdCreateStatic
 433 0026 0246     		mov	r2, r0
 434 0028 304B     		ldr	r3, .L26+16
 435 002a 1A60     		str	r2, [r3]
 436              		.loc 6 101 0
 437 002c 2C4B     		ldr	r3, .L26+4
 438 002e 5868     		ldr	r0, [r3, #4]
 439 0030 039B     		ldr	r3, [sp, #12]
 440 0032 9A1C     		adds	r2, r3, #2
 441 0034 2E4B     		ldr	r3, .L26+20
 442 0036 0093     		str	r3, [sp]
 443 0038 2B4B     		ldr	r3, .L26+12
 444 003a 4FF4F871 		mov	r1, #496
 445 003e FFF7FEFF 		bl	chThdCreateStatic
 446 0042 0246     		mov	r2, r0
 447 0044 294B     		ldr	r3, .L26+16
 448 0046 5A60     		str	r2, [r3, #4]
 449              		.loc 6 102 0
 450 0048 254B     		ldr	r3, .L26+4
 451 004a 9868     		ldr	r0, [r3, #8]
 452 004c 039B     		ldr	r3, [sp, #12]
 453 004e DA1C     		adds	r2, r3, #3
 454 0050 284B     		ldr	r3, .L26+24
 455 0052 0093     		str	r3, [sp]
ARM GAS  /tmp/ccaMab5i.s 			page 9


 456 0054 244B     		ldr	r3, .L26+12
 457 0056 4FF4F871 		mov	r1, #496
 458 005a FFF7FEFF 		bl	chThdCreateStatic
 459 005e 0246     		mov	r2, r0
 460 0060 224B     		ldr	r3, .L26+16
 461 0062 9A60     		str	r2, [r3, #8]
 462              		.loc 6 103 0
 463 0064 1E4B     		ldr	r3, .L26+4
 464 0066 D868     		ldr	r0, [r3, #12]
 465 0068 039B     		ldr	r3, [sp, #12]
 466 006a 1A1D     		adds	r2, r3, #4
 467 006c 224B     		ldr	r3, .L26+28
 468 006e 0093     		str	r3, [sp]
 469 0070 1D4B     		ldr	r3, .L26+12
 470 0072 4FF4F871 		mov	r1, #496
 471 0076 FFF7FEFF 		bl	chThdCreateStatic
 472 007a 0246     		mov	r2, r0
 473 007c 1B4B     		ldr	r3, .L26+16
 474 007e DA60     		str	r2, [r3, #12]
 475              		.loc 6 104 0
 476 0080 174B     		ldr	r3, .L26+4
 477 0082 1869     		ldr	r0, [r3, #16]
 478 0084 039B     		ldr	r3, [sp, #12]
 479 0086 5A1D     		adds	r2, r3, #5
 480 0088 1C4B     		ldr	r3, .L26+32
 481 008a 0093     		str	r3, [sp]
 482 008c 164B     		ldr	r3, .L26+12
 483 008e 4FF4F871 		mov	r1, #496
 484 0092 FFF7FEFF 		bl	chThdCreateStatic
 485 0096 0246     		mov	r2, r0
 486 0098 144B     		ldr	r3, .L26+16
 487 009a 1A61     		str	r2, [r3, #16]
 488              		.loc 6 105 0
 489 009c 0F48     		ldr	r0, .L26
 490 009e FFF7FEFF 		bl	chMtxUnlock
 491              		.loc 6 106 0
 492 00a2 FFF7FEFF 		bl	test_wait_threads
 493              		.loc 6 107 0
 494 00a6 FFF7FEFF 		bl	chThdGetPriorityX
 495 00aa 0246     		mov	r2, r0
 496 00ac 039B     		ldr	r3, [sp, #12]
 497 00ae 9A42     		cmp	r2, r3
 498 00b0 0CBF     		ite	eq
 499 00b2 0123     		moveq	r3, #1
 500 00b4 0023     		movne	r3, #0
 501 00b6 DBB2     		uxtb	r3, r3
 502 00b8 1946     		mov	r1, r3
 503 00ba 0120     		movs	r0, #1
 504 00bc FFF7FEFF 		bl	_test_assert
 505 00c0 0346     		mov	r3, r0
 506 00c2 002B     		cmp	r3, #0
 507 00c4 06D1     		bne	.L25
 508              		.loc 6 108 0
 509 00c6 0E49     		ldr	r1, .L26+36
 510 00c8 0220     		movs	r0, #2
 511 00ca FFF7FEFF 		bl	_test_assert_sequence
 512 00ce 0346     		mov	r3, r0
ARM GAS  /tmp/ccaMab5i.s 			page 10


 513 00d0 002B     		cmp	r3, #0
 514 00d2 00E0     		b	.L22
 515              	.L25:
 516              		.loc 6 107 0
 517 00d4 00BF     		nop
 518              	.L22:
 519              		.loc 6 109 0
 520 00d6 05B0     		add	sp, sp, #20
 521              		.cfi_def_cfa_offset 4
 522              		@ sp needed
 523 00d8 5DF804FB 		ldr	pc, [sp], #4
 524              	.L27:
 525              		.align	2
 526              	.L26:
 527 00dc 00000000 		.word	m1
 528 00e0 00000000 		.word	wa
 529 00e4 00000000 		.word	.LC0
 530 00e8 00000000 		.word	thread1
 531 00ec 00000000 		.word	threads
 532 00f0 04000000 		.word	.LC1
 533 00f4 08000000 		.word	.LC2
 534 00f8 0C000000 		.word	.LC3
 535 00fc 10000000 		.word	.LC4
 536 0100 14000000 		.word	.LC5
 537              		.cfi_endproc
 538              	.LFE233:
 539              		.size	mtx1_execute, .-mtx1_execute
 540              		.global	testmtx1
 541              		.section	.rodata
 542 001a 0000     		.align	2
 543              	.LC6:
 544 001c 4D757465 		.ascii	"Mutexes, priority enqueuing test\000"
 544      7865732C 
 544      20707269 
 544      6F726974 
 544      7920656E 
 545              		.section	.rodata.testmtx1,"a",%progbits
 546              		.align	2
 547              		.type	testmtx1, %object
 548              		.size	testmtx1, 16
 549              	testmtx1:
 550 0000 1C000000 		.word	.LC6
 551 0004 00000000 		.word	mtx1_setup
 552 0008 00000000 		.word	0
 553 000c 00000000 		.word	mtx1_execute
 554              		.section	.text.mtx4_setup,"ax",%progbits
 555              		.align	1
 556              		.p2align 4,,15
 557              		.syntax unified
 558              		.thumb
 559              		.thumb_func
 560              		.fpu fpv4-sp-d16
 561              		.type	mtx4_setup, %function
 562              	mtx4_setup:
 563              	.LFB234:
 564              		.loc 6 332 0
 565              		.cfi_startproc
ARM GAS  /tmp/ccaMab5i.s 			page 11


 566              		@ args = 0, pretend = 0, frame = 0
 567              		@ frame_needed = 0, uses_anonymous_args = 0
 568 0000 08B5     		push	{r3, lr}
 569              		.cfi_def_cfa_offset 8
 570              		.cfi_offset 3, -8
 571              		.cfi_offset 14, -4
 572              		.loc 6 334 0
 573 0002 0448     		ldr	r0, .L29
 574 0004 FFF7FEFF 		bl	chMtxObjectInit
 575              		.loc 6 335 0
 576 0008 0348     		ldr	r0, .L29+4
 577 000a FFF7FEFF 		bl	chMtxObjectInit
 578              		.loc 6 336 0
 579 000e 00BF     		nop
 580 0010 08BD     		pop	{r3, pc}
 581              	.L30:
 582 0012 00BF     		.align	2
 583              	.L29:
 584 0014 00000000 		.word	m1
 585 0018 00000000 		.word	m2
 586              		.cfi_endproc
 587              	.LFE234:
 588              		.size	mtx4_setup, .-mtx4_setup
 589              		.section	.text.thread4a,"ax",%progbits
 590              		.align	1
 591              		.p2align 4,,15
 592              		.syntax unified
 593              		.thumb
 594              		.thumb_func
 595              		.fpu fpv4-sp-d16
 596              		.type	thread4a, %function
 597              	thread4a:
 598              	.LFB235:
 599              		.loc 6 338 0
 600              		.cfi_startproc
 601              		@ args = 0, pretend = 0, frame = 8
 602              		@ frame_needed = 0, uses_anonymous_args = 0
 603 0000 00B5     		push	{lr}
 604              		.cfi_def_cfa_offset 4
 605              		.cfi_offset 14, -4
 606 0002 83B0     		sub	sp, sp, #12
 607              		.cfi_def_cfa_offset 16
 608 0004 0190     		str	r0, [sp, #4]
 609              		.loc 6 341 0
 610 0006 4FF4FA70 		mov	r0, #500
 611 000a FFF7FEFF 		bl	chThdSleep
 612              		.loc 6 342 0
 613 000e 0548     		ldr	r0, .L32
 614 0010 FFF7FEFF 		bl	chMtxLock
 615              		.loc 6 343 0
 616 0014 0348     		ldr	r0, .L32
 617 0016 FFF7FEFF 		bl	chMtxUnlock
 618              		.loc 6 344 0
 619 001a 00BF     		nop
 620 001c 03B0     		add	sp, sp, #12
 621              		.cfi_def_cfa_offset 4
 622              		@ sp needed
ARM GAS  /tmp/ccaMab5i.s 			page 12


 623 001e 5DF804FB 		ldr	pc, [sp], #4
 624              	.L33:
 625 0022 00BF     		.align	2
 626              	.L32:
 627 0024 00000000 		.word	m2
 628              		.cfi_endproc
 629              	.LFE235:
 630              		.size	thread4a, .-thread4a
 631              		.section	.text.thread4b,"ax",%progbits
 632              		.align	1
 633              		.p2align 4,,15
 634              		.syntax unified
 635              		.thumb
 636              		.thumb_func
 637              		.fpu fpv4-sp-d16
 638              		.type	thread4b, %function
 639              	thread4b:
 640              	.LFB236:
 641              		.loc 6 346 0
 642              		.cfi_startproc
 643              		@ args = 0, pretend = 0, frame = 8
 644              		@ frame_needed = 0, uses_anonymous_args = 0
 645 0000 00B5     		push	{lr}
 646              		.cfi_def_cfa_offset 4
 647              		.cfi_offset 14, -4
 648 0002 83B0     		sub	sp, sp, #12
 649              		.cfi_def_cfa_offset 16
 650 0004 0190     		str	r0, [sp, #4]
 651              		.loc 6 349 0
 652 0006 40F2DC50 		movw	r0, #1500
 653 000a FFF7FEFF 		bl	chThdSleep
 654              		.loc 6 350 0
 655 000e 0548     		ldr	r0, .L35
 656 0010 FFF7FEFF 		bl	chMtxLock
 657              		.loc 6 351 0
 658 0014 0348     		ldr	r0, .L35
 659 0016 FFF7FEFF 		bl	chMtxUnlock
 660              		.loc 6 352 0
 661 001a 00BF     		nop
 662 001c 03B0     		add	sp, sp, #12
 663              		.cfi_def_cfa_offset 4
 664              		@ sp needed
 665 001e 5DF804FB 		ldr	pc, [sp], #4
 666              	.L36:
 667 0022 00BF     		.align	2
 668              	.L35:
 669 0024 00000000 		.word	m1
 670              		.cfi_endproc
 671              	.LFE236:
 672              		.size	thread4b, .-thread4b
 673              		.section	.text.mtx4_execute,"ax",%progbits
 674              		.align	1
 675              		.p2align 4,,15
 676              		.syntax unified
 677              		.thumb
 678              		.thumb_func
 679              		.fpu fpv4-sp-d16
ARM GAS  /tmp/ccaMab5i.s 			page 13


 680              		.type	mtx4_execute, %function
 681              	mtx4_execute:
 682              	.LFB237:
 683              		.loc 6 354 0
 684              		.cfi_startproc
 685              		@ args = 0, pretend = 0, frame = 16
 686              		@ frame_needed = 0, uses_anonymous_args = 0
 687 0000 00B5     		push	{lr}
 688              		.cfi_def_cfa_offset 4
 689              		.cfi_offset 14, -4
 690 0002 87B0     		sub	sp, sp, #28
 691              		.cfi_def_cfa_offset 32
 692              		.loc 6 357 0
 693 0004 FFF7FEFF 		bl	chThdGetPriorityX
 694 0008 0590     		str	r0, [sp, #20]
 695              		.loc 6 358 0
 696 000a 059B     		ldr	r3, [sp, #20]
 697 000c 0133     		adds	r3, r3, #1
 698 000e 0493     		str	r3, [sp, #16]
 699              		.loc 6 359 0
 700 0010 059B     		ldr	r3, [sp, #20]
 701 0012 0233     		adds	r3, r3, #2
 702 0014 0393     		str	r3, [sp, #12]
 703              		.loc 6 360 0
 704 0016 B94B     		ldr	r3, .L67
 705 0018 1868     		ldr	r0, [r3]
 706 001a B94B     		ldr	r3, .L67+4
 707 001c 0093     		str	r3, [sp]
 708 001e B94B     		ldr	r3, .L67+8
 709 0020 049A     		ldr	r2, [sp, #16]
 710 0022 4FF4F871 		mov	r1, #496
 711 0026 FFF7FEFF 		bl	chThdCreateStatic
 712 002a 0246     		mov	r2, r0
 713 002c B64B     		ldr	r3, .L67+12
 714 002e 1A60     		str	r2, [r3]
 715              		.loc 6 361 0
 716 0030 B24B     		ldr	r3, .L67
 717 0032 5868     		ldr	r0, [r3, #4]
 718 0034 B54B     		ldr	r3, .L67+16
 719 0036 0093     		str	r3, [sp]
 720 0038 B54B     		ldr	r3, .L67+20
 721 003a 039A     		ldr	r2, [sp, #12]
 722 003c 4FF4F871 		mov	r1, #496
 723 0040 FFF7FEFF 		bl	chThdCreateStatic
 724 0044 0246     		mov	r2, r0
 725 0046 B04B     		ldr	r3, .L67+12
 726 0048 5A60     		str	r2, [r3, #4]
 727              		.loc 6 362 0
 728 004a B248     		ldr	r0, .L67+24
 729 004c FFF7FEFF 		bl	chMtxLock
 730              		.loc 6 363 0
 731 0050 FFF7FEFF 		bl	chThdGetPriorityX
 732 0054 0246     		mov	r2, r0
 733 0056 059B     		ldr	r3, [sp, #20]
 734 0058 9A42     		cmp	r2, r3
 735 005a 0CBF     		ite	eq
 736 005c 0123     		moveq	r3, #1
ARM GAS  /tmp/ccaMab5i.s 			page 14


 737 005e 0023     		movne	r3, #0
 738 0060 DBB2     		uxtb	r3, r3
 739 0062 1946     		mov	r1, r3
 740 0064 0120     		movs	r0, #1
 741 0066 FFF7FEFF 		bl	_test_assert
 742 006a 0346     		mov	r3, r0
 743 006c 002B     		cmp	r3, #0
 744 006e 40F02781 		bne	.L53
 745              		.loc 6 364 0
 746 0072 4FF47A70 		mov	r0, #1000
 747 0076 FFF7FEFF 		bl	chThdSleep
 748              		.loc 6 365 0
 749 007a FFF7FEFF 		bl	chThdGetPriorityX
 750 007e 0246     		mov	r2, r0
 751 0080 049B     		ldr	r3, [sp, #16]
 752 0082 9A42     		cmp	r2, r3
 753 0084 0CBF     		ite	eq
 754 0086 0123     		moveq	r3, #1
 755 0088 0023     		movne	r3, #0
 756 008a DBB2     		uxtb	r3, r3
 757 008c 1946     		mov	r1, r3
 758 008e 0220     		movs	r0, #2
 759 0090 FFF7FEFF 		bl	_test_assert
 760 0094 0346     		mov	r3, r0
 761 0096 002B     		cmp	r3, #0
 762 0098 40F01481 		bne	.L54
 763              		.loc 6 366 0
 764 009c 9E48     		ldr	r0, .L67+28
 765 009e FFF7FEFF 		bl	chMtxLock
 766              		.loc 6 367 0
 767 00a2 FFF7FEFF 		bl	chThdGetPriorityX
 768 00a6 0246     		mov	r2, r0
 769 00a8 049B     		ldr	r3, [sp, #16]
 770 00aa 9A42     		cmp	r2, r3
 771 00ac 0CBF     		ite	eq
 772 00ae 0123     		moveq	r3, #1
 773 00b0 0023     		movne	r3, #0
 774 00b2 DBB2     		uxtb	r3, r3
 775 00b4 1946     		mov	r1, r3
 776 00b6 0320     		movs	r0, #3
 777 00b8 FFF7FEFF 		bl	_test_assert
 778 00bc 0346     		mov	r3, r0
 779 00be 002B     		cmp	r3, #0
 780 00c0 40F00281 		bne	.L55
 781              		.loc 6 368 0
 782 00c4 4FF47A70 		mov	r0, #1000
 783 00c8 FFF7FEFF 		bl	chThdSleep
 784              		.loc 6 369 0
 785 00cc FFF7FEFF 		bl	chThdGetPriorityX
 786 00d0 0246     		mov	r2, r0
 787 00d2 039B     		ldr	r3, [sp, #12]
 788 00d4 9A42     		cmp	r2, r3
 789 00d6 0CBF     		ite	eq
 790 00d8 0123     		moveq	r3, #1
 791 00da 0023     		movne	r3, #0
 792 00dc DBB2     		uxtb	r3, r3
 793 00de 1946     		mov	r1, r3
ARM GAS  /tmp/ccaMab5i.s 			page 15


 794 00e0 0420     		movs	r0, #4
 795 00e2 FFF7FEFF 		bl	_test_assert
 796 00e6 0346     		mov	r3, r0
 797 00e8 002B     		cmp	r3, #0
 798 00ea 40F0EF80 		bne	.L56
 799              		.loc 6 370 0
 800 00ee 8A48     		ldr	r0, .L67+28
 801 00f0 FFF7FEFF 		bl	chMtxUnlock
 802              		.loc 6 371 0
 803 00f4 FFF7FEFF 		bl	chThdGetPriorityX
 804 00f8 0246     		mov	r2, r0
 805 00fa 049B     		ldr	r3, [sp, #16]
 806 00fc 9A42     		cmp	r2, r3
 807 00fe 0CBF     		ite	eq
 808 0100 0123     		moveq	r3, #1
 809 0102 0023     		movne	r3, #0
 810 0104 DBB2     		uxtb	r3, r3
 811 0106 1946     		mov	r1, r3
 812 0108 0520     		movs	r0, #5
 813 010a FFF7FEFF 		bl	_test_assert
 814 010e 0346     		mov	r3, r0
 815 0110 002B     		cmp	r3, #0
 816 0112 40F0DD80 		bne	.L57
 817              		.loc 6 372 0
 818 0116 4FF47A70 		mov	r0, #1000
 819 011a FFF7FEFF 		bl	chThdSleep
 820              		.loc 6 373 0
 821 011e FFF7FEFF 		bl	chThdGetPriorityX
 822 0122 0246     		mov	r2, r0
 823 0124 049B     		ldr	r3, [sp, #16]
 824 0126 9A42     		cmp	r2, r3
 825 0128 0CBF     		ite	eq
 826 012a 0123     		moveq	r3, #1
 827 012c 0023     		movne	r3, #0
 828 012e DBB2     		uxtb	r3, r3
 829 0130 1946     		mov	r1, r3
 830 0132 0620     		movs	r0, #6
 831 0134 FFF7FEFF 		bl	_test_assert
 832 0138 0346     		mov	r3, r0
 833 013a 002B     		cmp	r3, #0
 834 013c 40F0CA80 		bne	.L58
 835              		.loc 6 374 0
 836 0140 FFF7FEFF 		bl	chMtxUnlockAll
 837              		.loc 6 375 0
 838 0144 FFF7FEFF 		bl	chThdGetPriorityX
 839 0148 0246     		mov	r2, r0
 840 014a 059B     		ldr	r3, [sp, #20]
 841 014c 9A42     		cmp	r2, r3
 842 014e 0CBF     		ite	eq
 843 0150 0123     		moveq	r3, #1
 844 0152 0023     		movne	r3, #0
 845 0154 DBB2     		uxtb	r3, r3
 846 0156 1946     		mov	r1, r3
 847 0158 0720     		movs	r0, #7
 848 015a FFF7FEFF 		bl	_test_assert
 849 015e 0346     		mov	r3, r0
 850 0160 002B     		cmp	r3, #0
ARM GAS  /tmp/ccaMab5i.s 			page 16


 851 0162 40F0B980 		bne	.L59
 852              		.loc 6 376 0
 853 0166 FFF7FEFF 		bl	test_wait_threads
 854              		.loc 6 379 0
 855 016a 644B     		ldr	r3, .L67
 856 016c 1868     		ldr	r0, [r3]
 857 016e 6B4B     		ldr	r3, .L67+32
 858 0170 0093     		str	r3, [sp]
 859 0172 644B     		ldr	r3, .L67+8
 860 0174 049A     		ldr	r2, [sp, #16]
 861 0176 4FF4F871 		mov	r1, #496
 862 017a FFF7FEFF 		bl	chThdCreateStatic
 863 017e 0246     		mov	r2, r0
 864 0180 614B     		ldr	r3, .L67+12
 865 0182 1A60     		str	r2, [r3]
 866              		.loc 6 380 0
 867 0184 5D4B     		ldr	r3, .L67
 868 0186 5868     		ldr	r0, [r3, #4]
 869 0188 654B     		ldr	r3, .L67+36
 870 018a 0093     		str	r3, [sp]
 871 018c 604B     		ldr	r3, .L67+20
 872 018e 039A     		ldr	r2, [sp, #12]
 873 0190 4FF4F871 		mov	r1, #496
 874 0194 FFF7FEFF 		bl	chThdCreateStatic
 875 0198 0246     		mov	r2, r0
 876 019a 5B4B     		ldr	r3, .L67+12
 877 019c 5A60     		str	r2, [r3, #4]
 878              		.loc 6 381 0
 879 019e 5D48     		ldr	r0, .L67+24
 880 01a0 FFF7FEFF 		bl	chMtxLock
 881              		.loc 6 382 0
 882 01a4 FFF7FEFF 		bl	chThdGetPriorityX
 883 01a8 0246     		mov	r2, r0
 884 01aa 059B     		ldr	r3, [sp, #20]
 885 01ac 9A42     		cmp	r2, r3
 886 01ae 0CBF     		ite	eq
 887 01b0 0123     		moveq	r3, #1
 888 01b2 0023     		movne	r3, #0
 889 01b4 DBB2     		uxtb	r3, r3
 890 01b6 1946     		mov	r1, r3
 891 01b8 0820     		movs	r0, #8
 892 01ba FFF7FEFF 		bl	_test_assert
 893 01be 0346     		mov	r3, r0
 894 01c0 002B     		cmp	r3, #0
 895 01c2 40F08B80 		bne	.L60
 896              		.loc 6 383 0
 897 01c6 4FF47A70 		mov	r0, #1000
 898 01ca FFF7FEFF 		bl	chThdSleep
 899              		.loc 6 384 0
 900 01ce FFF7FEFF 		bl	chThdGetPriorityX
 901 01d2 0246     		mov	r2, r0
 902 01d4 049B     		ldr	r3, [sp, #16]
 903 01d6 9A42     		cmp	r2, r3
 904 01d8 0CBF     		ite	eq
 905 01da 0123     		moveq	r3, #1
 906 01dc 0023     		movne	r3, #0
 907 01de DBB2     		uxtb	r3, r3
ARM GAS  /tmp/ccaMab5i.s 			page 17


 908 01e0 1946     		mov	r1, r3
 909 01e2 0920     		movs	r0, #9
 910 01e4 FFF7FEFF 		bl	_test_assert
 911 01e8 0346     		mov	r3, r0
 912 01ea 002B     		cmp	r3, #0
 913 01ec 78D1     		bne	.L61
 914              		.loc 6 385 0
 915 01ee 4A48     		ldr	r0, .L67+28
 916 01f0 FFF7FEFF 		bl	chMtxLock
 917              		.loc 6 386 0
 918 01f4 FFF7FEFF 		bl	chThdGetPriorityX
 919 01f8 0246     		mov	r2, r0
 920 01fa 049B     		ldr	r3, [sp, #16]
 921 01fc 9A42     		cmp	r2, r3
 922 01fe 0CBF     		ite	eq
 923 0200 0123     		moveq	r3, #1
 924 0202 0023     		movne	r3, #0
 925 0204 DBB2     		uxtb	r3, r3
 926 0206 1946     		mov	r1, r3
 927 0208 0A20     		movs	r0, #10
 928 020a FFF7FEFF 		bl	_test_assert
 929 020e 0346     		mov	r3, r0
 930 0210 002B     		cmp	r3, #0
 931 0212 67D1     		bne	.L62
 932              		.loc 6 387 0
 933 0214 4FF47A70 		mov	r0, #1000
 934 0218 FFF7FEFF 		bl	chThdSleep
 935              		.loc 6 388 0
 936 021c FFF7FEFF 		bl	chThdGetPriorityX
 937 0220 0246     		mov	r2, r0
 938 0222 039B     		ldr	r3, [sp, #12]
 939 0224 9A42     		cmp	r2, r3
 940 0226 0CBF     		ite	eq
 941 0228 0123     		moveq	r3, #1
 942 022a 0023     		movne	r3, #0
 943 022c DBB2     		uxtb	r3, r3
 944 022e 1946     		mov	r1, r3
 945 0230 0B20     		movs	r0, #11
 946 0232 FFF7FEFF 		bl	_test_assert
 947 0236 0346     		mov	r3, r0
 948 0238 002B     		cmp	r3, #0
 949 023a 55D1     		bne	.L63
 950              		.loc 6 389 0
 951 023c FFF7FEFF 		bl	chSysLock
 952              		.loc 6 390 0
 953 0240 3548     		ldr	r0, .L67+28
 954 0242 FFF7FEFF 		bl	chMtxUnlockS
 955              		.loc 6 391 0
 956 0246 FFF7FEFF 		bl	chSchRescheduleS
 957              		.loc 6 392 0
 958 024a FFF7FEFF 		bl	chSysUnlock
 959              		.loc 6 393 0
 960 024e FFF7FEFF 		bl	chThdGetPriorityX
 961 0252 0246     		mov	r2, r0
 962 0254 049B     		ldr	r3, [sp, #16]
 963 0256 9A42     		cmp	r2, r3
 964 0258 0CBF     		ite	eq
ARM GAS  /tmp/ccaMab5i.s 			page 18


 965 025a 0123     		moveq	r3, #1
 966 025c 0023     		movne	r3, #0
 967 025e DBB2     		uxtb	r3, r3
 968 0260 1946     		mov	r1, r3
 969 0262 0C20     		movs	r0, #12
 970 0264 FFF7FEFF 		bl	_test_assert
 971 0268 0346     		mov	r3, r0
 972 026a 002B     		cmp	r3, #0
 973 026c 3ED1     		bne	.L64
 974              		.loc 6 394 0
 975 026e 4FF47A70 		mov	r0, #1000
 976 0272 FFF7FEFF 		bl	chThdSleep
 977              		.loc 6 395 0
 978 0276 FFF7FEFF 		bl	chThdGetPriorityX
 979 027a 0246     		mov	r2, r0
 980 027c 049B     		ldr	r3, [sp, #16]
 981 027e 9A42     		cmp	r2, r3
 982 0280 0CBF     		ite	eq
 983 0282 0123     		moveq	r3, #1
 984 0284 0023     		movne	r3, #0
 985 0286 DBB2     		uxtb	r3, r3
 986 0288 1946     		mov	r1, r3
 987 028a 0D20     		movs	r0, #13
 988 028c FFF7FEFF 		bl	_test_assert
 989 0290 0346     		mov	r3, r0
 990 0292 002B     		cmp	r3, #0
 991 0294 2CD1     		bne	.L65
 992              		.loc 6 396 0
 993 0296 FFF7FEFF 		bl	chMtxUnlockAll
 994              		.loc 6 397 0
 995 029a FFF7FEFF 		bl	chThdGetPriorityX
 996 029e 0246     		mov	r2, r0
 997 02a0 059B     		ldr	r3, [sp, #20]
 998 02a2 9A42     		cmp	r2, r3
 999 02a4 0CBF     		ite	eq
 1000 02a6 0123     		moveq	r3, #1
 1001 02a8 0023     		movne	r3, #0
 1002 02aa DBB2     		uxtb	r3, r3
 1003 02ac 1946     		mov	r1, r3
 1004 02ae 0E20     		movs	r0, #14
 1005 02b0 FFF7FEFF 		bl	_test_assert
 1006 02b4 0346     		mov	r3, r0
 1007 02b6 002B     		cmp	r3, #0
 1008 02b8 1CD1     		bne	.L66
 1009              		.loc 6 398 0
 1010 02ba FFF7FEFF 		bl	test_wait_threads
 1011 02be 1AE0     		b	.L37
 1012              	.L53:
 1013              		.loc 6 363 0
 1014 02c0 00BF     		nop
 1015 02c2 18E0     		b	.L37
 1016              	.L54:
 1017              		.loc 6 365 0
 1018 02c4 00BF     		nop
 1019 02c6 16E0     		b	.L37
 1020              	.L55:
 1021              		.loc 6 367 0
ARM GAS  /tmp/ccaMab5i.s 			page 19


 1022 02c8 00BF     		nop
 1023 02ca 14E0     		b	.L37
 1024              	.L56:
 1025              		.loc 6 369 0
 1026 02cc 00BF     		nop
 1027 02ce 12E0     		b	.L37
 1028              	.L57:
 1029              		.loc 6 371 0
 1030 02d0 00BF     		nop
 1031 02d2 10E0     		b	.L37
 1032              	.L58:
 1033              		.loc 6 373 0
 1034 02d4 00BF     		nop
 1035 02d6 0EE0     		b	.L37
 1036              	.L59:
 1037              		.loc 6 375 0
 1038 02d8 00BF     		nop
 1039 02da 0CE0     		b	.L37
 1040              	.L60:
 1041              		.loc 6 382 0
 1042 02dc 00BF     		nop
 1043 02de 0AE0     		b	.L37
 1044              	.L61:
 1045              		.loc 6 384 0
 1046 02e0 00BF     		nop
 1047 02e2 08E0     		b	.L37
 1048              	.L62:
 1049              		.loc 6 386 0
 1050 02e4 00BF     		nop
 1051 02e6 06E0     		b	.L37
 1052              	.L63:
 1053              		.loc 6 388 0
 1054 02e8 00BF     		nop
 1055 02ea 04E0     		b	.L37
 1056              	.L64:
 1057              		.loc 6 393 0
 1058 02ec 00BF     		nop
 1059 02ee 02E0     		b	.L37
 1060              	.L65:
 1061              		.loc 6 395 0
 1062 02f0 00BF     		nop
 1063 02f2 00E0     		b	.L37
 1064              	.L66:
 1065              		.loc 6 397 0
 1066 02f4 00BF     		nop
 1067              	.L37:
 1068              		.loc 6 399 0
 1069 02f6 07B0     		add	sp, sp, #28
 1070              		.cfi_def_cfa_offset 4
 1071              		@ sp needed
 1072 02f8 5DF804FB 		ldr	pc, [sp], #4
 1073              	.L68:
 1074              		.align	2
 1075              	.L67:
 1076 02fc 00000000 		.word	wa
 1077 0300 0C000000 		.word	.LC3
 1078 0304 00000000 		.word	thread4a
ARM GAS  /tmp/ccaMab5i.s 			page 20


 1079 0308 00000000 		.word	threads
 1080 030c 10000000 		.word	.LC4
 1081 0310 00000000 		.word	thread4b
 1082 0314 00000000 		.word	m2
 1083 0318 00000000 		.word	m1
 1084 031c 04000000 		.word	.LC1
 1085 0320 08000000 		.word	.LC2
 1086              		.cfi_endproc
 1087              	.LFE237:
 1088              		.size	mtx4_execute, .-mtx4_execute
 1089              		.global	testmtx4
 1090              		.section	.rodata
 1091 003d 000000   		.align	2
 1092              	.LC7:
 1093 0040 4D757465 		.ascii	"Mutexes, priority return\000"
 1093      7865732C 
 1093      20707269 
 1093      6F726974 
 1093      79207265 
 1094              		.section	.rodata.testmtx4,"a",%progbits
 1095              		.align	2
 1096              		.type	testmtx4, %object
 1097              		.size	testmtx4, 16
 1098              	testmtx4:
 1099 0000 40000000 		.word	.LC7
 1100 0004 00000000 		.word	mtx4_setup
 1101 0008 00000000 		.word	0
 1102 000c 00000000 		.word	mtx4_execute
 1103              		.section	.text.mtx5_setup,"ax",%progbits
 1104              		.align	1
 1105              		.p2align 4,,15
 1106              		.syntax unified
 1107              		.thumb
 1108              		.thumb_func
 1109              		.fpu fpv4-sp-d16
 1110              		.type	mtx5_setup, %function
 1111              	mtx5_setup:
 1112              	.LFB238:
 1113              		.loc 6 418 0
 1114              		.cfi_startproc
 1115              		@ args = 0, pretend = 0, frame = 0
 1116              		@ frame_needed = 0, uses_anonymous_args = 0
 1117 0000 08B5     		push	{r3, lr}
 1118              		.cfi_def_cfa_offset 8
 1119              		.cfi_offset 3, -8
 1120              		.cfi_offset 14, -4
 1121              		.loc 6 420 0
 1122 0002 0248     		ldr	r0, .L70
 1123 0004 FFF7FEFF 		bl	chMtxObjectInit
 1124              		.loc 6 421 0
 1125 0008 00BF     		nop
 1126 000a 08BD     		pop	{r3, pc}
 1127              	.L71:
 1128              		.align	2
 1129              	.L70:
 1130 000c 00000000 		.word	m1
 1131              		.cfi_endproc
ARM GAS  /tmp/ccaMab5i.s 			page 21


 1132              	.LFE238:
 1133              		.size	mtx5_setup, .-mtx5_setup
 1134              		.section	.text.mtx5_execute,"ax",%progbits
 1135              		.align	1
 1136              		.p2align 4,,15
 1137              		.syntax unified
 1138              		.thumb
 1139              		.thumb_func
 1140              		.fpu fpv4-sp-d16
 1141              		.type	mtx5_execute, %function
 1142              	mtx5_execute:
 1143              	.LFB239:
 1144              		.loc 6 423 0
 1145              		.cfi_startproc
 1146              		@ args = 0, pretend = 0, frame = 8
 1147              		@ frame_needed = 0, uses_anonymous_args = 0
 1148 0000 00B5     		push	{lr}
 1149              		.cfi_def_cfa_offset 4
 1150              		.cfi_offset 14, -4
 1151 0002 83B0     		sub	sp, sp, #12
 1152              		.cfi_def_cfa_offset 16
 1153              		.loc 6 427 0
 1154 0004 FFF7FEFF 		bl	chThdGetPriorityX
 1155 0008 0190     		str	r0, [sp, #4]
 1156              		.loc 6 429 0
 1157 000a 4248     		ldr	r0, .L86
 1158 000c FFF7FEFF 		bl	chMtxTryLock
 1159 0010 0346     		mov	r3, r0
 1160 0012 8DF80330 		strb	r3, [sp, #3]
 1161              		.loc 6 430 0
 1162 0016 9DF80330 		ldrb	r3, [sp, #3]	@ zero_extendqisi2
 1163 001a 1946     		mov	r1, r3
 1164 001c 0120     		movs	r0, #1
 1165 001e FFF7FEFF 		bl	_test_assert
 1166 0022 0346     		mov	r3, r0
 1167 0024 002B     		cmp	r3, #0
 1168 0026 67D1     		bne	.L80
 1169              		.loc 6 432 0
 1170 0028 3A48     		ldr	r0, .L86
 1171 002a FFF7FEFF 		bl	chMtxTryLock
 1172 002e 0346     		mov	r3, r0
 1173 0030 8DF80330 		strb	r3, [sp, #3]
 1174              		.loc 6 433 0
 1175 0034 9DF80330 		ldrb	r3, [sp, #3]	@ zero_extendqisi2
 1176 0038 002B     		cmp	r3, #0
 1177 003a 14BF     		ite	ne
 1178 003c 0123     		movne	r3, #1
 1179 003e 0023     		moveq	r3, #0
 1180 0040 DBB2     		uxtb	r3, r3
 1181 0042 83F00103 		eor	r3, r3, #1
 1182 0046 DBB2     		uxtb	r3, r3
 1183 0048 03F00103 		and	r3, r3, #1
 1184 004c DBB2     		uxtb	r3, r3
 1185 004e 1946     		mov	r1, r3
 1186 0050 0220     		movs	r0, #2
 1187 0052 FFF7FEFF 		bl	_test_assert
 1188 0056 0346     		mov	r3, r0
ARM GAS  /tmp/ccaMab5i.s 			page 22


 1189 0058 002B     		cmp	r3, #0
 1190 005a 4FD1     		bne	.L81
 1191              		.loc 6 435 0
 1192 005c FFF7FEFF 		bl	chSysLock
 1193              		.loc 6 436 0
 1194 0060 2C48     		ldr	r0, .L86
 1195 0062 FFF7FEFF 		bl	chMtxUnlockS
 1196              		.loc 6 437 0
 1197 0066 FFF7FEFF 		bl	chSysUnlock
 1198              		.loc 6 439 0
 1199 006a 2A48     		ldr	r0, .L86
 1200 006c FFF7FEFF 		bl	queue_isempty
 1201 0070 0346     		mov	r3, r0
 1202 0072 1946     		mov	r1, r3
 1203 0074 0320     		movs	r0, #3
 1204 0076 FFF7FEFF 		bl	_test_assert
 1205 007a 0346     		mov	r3, r0
 1206 007c 002B     		cmp	r3, #0
 1207 007e 3FD1     		bne	.L82
 1208              		.loc 6 440 0
 1209 0080 244B     		ldr	r3, .L86
 1210 0082 9B68     		ldr	r3, [r3, #8]
 1211 0084 002B     		cmp	r3, #0
 1212 0086 0CBF     		ite	eq
 1213 0088 0123     		moveq	r3, #1
 1214 008a 0023     		movne	r3, #0
 1215 008c DBB2     		uxtb	r3, r3
 1216 008e 1946     		mov	r1, r3
 1217 0090 0420     		movs	r0, #4
 1218 0092 FFF7FEFF 		bl	_test_assert
 1219 0096 0346     		mov	r3, r0
 1220 0098 002B     		cmp	r3, #0
 1221 009a 33D1     		bne	.L83
 1222              		.loc 6 441 0
 1223 009c FFF7FEFF 		bl	chThdGetPriorityX
 1224 00a0 0246     		mov	r2, r0
 1225 00a2 019B     		ldr	r3, [sp, #4]
 1226 00a4 9A42     		cmp	r2, r3
 1227 00a6 0CBF     		ite	eq
 1228 00a8 0123     		moveq	r3, #1
 1229 00aa 0023     		movne	r3, #0
 1230 00ac DBB2     		uxtb	r3, r3
 1231 00ae 1946     		mov	r1, r3
 1232 00b0 0520     		movs	r0, #5
 1233 00b2 FFF7FEFF 		bl	_test_assert
 1234 00b6 0346     		mov	r3, r0
 1235 00b8 002B     		cmp	r3, #0
 1236 00ba 25D1     		bne	.L84
 1237              		.loc 6 444 0
 1238 00bc 1548     		ldr	r0, .L86
 1239 00be FFF7FEFF 		bl	chMtxLock
 1240              		.loc 6 445 0
 1241 00c2 FFF7FEFF 		bl	chMtxUnlockAll
 1242              		.loc 6 446 0
 1243 00c6 1348     		ldr	r0, .L86
 1244 00c8 FFF7FEFF 		bl	queue_isempty
 1245 00cc 0346     		mov	r3, r0
ARM GAS  /tmp/ccaMab5i.s 			page 23


 1246 00ce 1946     		mov	r1, r3
 1247 00d0 0620     		movs	r0, #6
 1248 00d2 FFF7FEFF 		bl	_test_assert
 1249 00d6 0346     		mov	r3, r0
 1250 00d8 002B     		cmp	r3, #0
 1251 00da 17D1     		bne	.L85
 1252              		.loc 6 447 0
 1253 00dc 0D4B     		ldr	r3, .L86
 1254 00de 9B68     		ldr	r3, [r3, #8]
 1255 00e0 002B     		cmp	r3, #0
 1256 00e2 0CBF     		ite	eq
 1257 00e4 0123     		moveq	r3, #1
 1258 00e6 0023     		movne	r3, #0
 1259 00e8 DBB2     		uxtb	r3, r3
 1260 00ea 1946     		mov	r1, r3
 1261 00ec 0720     		movs	r0, #7
 1262 00ee FFF7FEFF 		bl	_test_assert
 1263 00f2 0346     		mov	r3, r0
 1264 00f4 002B     		cmp	r3, #0
 1265 00f6 0AE0     		b	.L72
 1266              	.L80:
 1267              		.loc 6 430 0
 1268 00f8 00BF     		nop
 1269 00fa 08E0     		b	.L72
 1270              	.L81:
 1271              		.loc 6 433 0
 1272 00fc 00BF     		nop
 1273 00fe 06E0     		b	.L72
 1274              	.L82:
 1275              		.loc 6 439 0
 1276 0100 00BF     		nop
 1277 0102 04E0     		b	.L72
 1278              	.L83:
 1279              		.loc 6 440 0
 1280 0104 00BF     		nop
 1281 0106 02E0     		b	.L72
 1282              	.L84:
 1283              		.loc 6 441 0
 1284 0108 00BF     		nop
 1285 010a 00E0     		b	.L72
 1286              	.L85:
 1287              		.loc 6 446 0
 1288 010c 00BF     		nop
 1289              	.L72:
 1290              		.loc 6 448 0
 1291 010e 03B0     		add	sp, sp, #12
 1292              		.cfi_def_cfa_offset 4
 1293              		@ sp needed
 1294 0110 5DF804FB 		ldr	pc, [sp], #4
 1295              	.L87:
 1296              		.align	2
 1297              	.L86:
 1298 0114 00000000 		.word	m1
 1299              		.cfi_endproc
 1300              	.LFE239:
 1301              		.size	mtx5_execute, .-mtx5_execute
 1302              		.global	testmtx5
ARM GAS  /tmp/ccaMab5i.s 			page 24


 1303              		.section	.rodata
 1304 0059 000000   		.align	2
 1305              	.LC8:
 1306 005c 4D757465 		.ascii	"Mutexes, status\000"
 1306      7865732C 
 1306      20737461 
 1306      74757300 
 1307              		.section	.rodata.testmtx5,"a",%progbits
 1308              		.align	2
 1309              		.type	testmtx5, %object
 1310              		.size	testmtx5, 16
 1311              	testmtx5:
 1312 0000 5C000000 		.word	.LC8
 1313 0004 00000000 		.word	mtx5_setup
 1314 0008 00000000 		.word	0
 1315 000c 00000000 		.word	mtx5_execute
 1316              		.section	.text.mtx6_setup,"ax",%progbits
 1317              		.align	1
 1318              		.p2align 4,,15
 1319              		.syntax unified
 1320              		.thumb
 1321              		.thumb_func
 1322              		.fpu fpv4-sp-d16
 1323              		.type	mtx6_setup, %function
 1324              	mtx6_setup:
 1325              	.LFB240:
 1326              		.loc 6 469 0
 1327              		.cfi_startproc
 1328              		@ args = 0, pretend = 0, frame = 0
 1329              		@ frame_needed = 0, uses_anonymous_args = 0
 1330 0000 08B5     		push	{r3, lr}
 1331              		.cfi_def_cfa_offset 8
 1332              		.cfi_offset 3, -8
 1333              		.cfi_offset 14, -4
 1334              		.loc 6 471 0
 1335 0002 0448     		ldr	r0, .L89
 1336 0004 FFF7FEFF 		bl	chCondObjectInit
 1337              		.loc 6 472 0
 1338 0008 0348     		ldr	r0, .L89+4
 1339 000a FFF7FEFF 		bl	chMtxObjectInit
 1340              		.loc 6 473 0
 1341 000e 00BF     		nop
 1342 0010 08BD     		pop	{r3, pc}
 1343              	.L90:
 1344 0012 00BF     		.align	2
 1345              	.L89:
 1346 0014 00000000 		.word	c1
 1347 0018 00000000 		.word	m1
 1348              		.cfi_endproc
 1349              	.LFE240:
 1350              		.size	mtx6_setup, .-mtx6_setup
 1351              		.section	.text.thread10,"ax",%progbits
 1352              		.align	1
 1353              		.p2align 4,,15
 1354              		.syntax unified
 1355              		.thumb
 1356              		.thumb_func
ARM GAS  /tmp/ccaMab5i.s 			page 25


 1357              		.fpu fpv4-sp-d16
 1358              		.type	thread10, %function
 1359              	thread10:
 1360              	.LFB241:
 1361              		.loc 6 475 0
 1362              		.cfi_startproc
 1363              		@ args = 0, pretend = 0, frame = 8
 1364              		@ frame_needed = 0, uses_anonymous_args = 0
 1365 0000 00B5     		push	{lr}
 1366              		.cfi_def_cfa_offset 4
 1367              		.cfi_offset 14, -4
 1368 0002 83B0     		sub	sp, sp, #12
 1369              		.cfi_def_cfa_offset 16
 1370 0004 0190     		str	r0, [sp, #4]
 1371              		.loc 6 477 0
 1372 0006 0948     		ldr	r0, .L92
 1373 0008 FFF7FEFF 		bl	chMtxLock
 1374              		.loc 6 478 0
 1375 000c 0848     		ldr	r0, .L92+4
 1376 000e FFF7FEFF 		bl	chCondWait
 1377              		.loc 6 479 0
 1378 0012 019B     		ldr	r3, [sp, #4]
 1379 0014 1B78     		ldrb	r3, [r3]	@ zero_extendqisi2
 1380 0016 1846     		mov	r0, r3
 1381 0018 FFF7FEFF 		bl	test_emit_token
 1382              		.loc 6 480 0
 1383 001c 0348     		ldr	r0, .L92
 1384 001e FFF7FEFF 		bl	chMtxUnlock
 1385              		.loc 6 481 0
 1386 0022 00BF     		nop
 1387 0024 03B0     		add	sp, sp, #12
 1388              		.cfi_def_cfa_offset 4
 1389              		@ sp needed
 1390 0026 5DF804FB 		ldr	pc, [sp], #4
 1391              	.L93:
 1392 002a 00BF     		.align	2
 1393              	.L92:
 1394 002c 00000000 		.word	m1
 1395 0030 00000000 		.word	c1
 1396              		.cfi_endproc
 1397              	.LFE241:
 1398              		.size	thread10, .-thread10
 1399              		.section	.text.mtx6_execute,"ax",%progbits
 1400              		.align	1
 1401              		.p2align 4,,15
 1402              		.syntax unified
 1403              		.thumb
 1404              		.thumb_func
 1405              		.fpu fpv4-sp-d16
 1406              		.type	mtx6_execute, %function
 1407              	mtx6_execute:
 1408              	.LFB242:
 1409              		.loc 6 483 0
 1410              		.cfi_startproc
 1411              		@ args = 0, pretend = 0, frame = 8
 1412              		@ frame_needed = 0, uses_anonymous_args = 0
 1413 0000 00B5     		push	{lr}
ARM GAS  /tmp/ccaMab5i.s 			page 26


 1414              		.cfi_def_cfa_offset 4
 1415              		.cfi_offset 14, -4
 1416 0002 85B0     		sub	sp, sp, #20
 1417              		.cfi_def_cfa_offset 24
 1418              		.loc 6 485 0
 1419 0004 FFF7FEFF 		bl	chThdGetPriorityX
 1420 0008 0390     		str	r0, [sp, #12]
 1421              		.loc 6 486 0
 1422 000a 334B     		ldr	r3, .L96
 1423 000c 1868     		ldr	r0, [r3]
 1424 000e 039B     		ldr	r3, [sp, #12]
 1425 0010 5A1C     		adds	r2, r3, #1
 1426 0012 324B     		ldr	r3, .L96+4
 1427 0014 0093     		str	r3, [sp]
 1428 0016 324B     		ldr	r3, .L96+8
 1429 0018 4FF4F871 		mov	r1, #496
 1430 001c FFF7FEFF 		bl	chThdCreateStatic
 1431 0020 0246     		mov	r2, r0
 1432 0022 304B     		ldr	r3, .L96+12
 1433 0024 1A60     		str	r2, [r3]
 1434              		.loc 6 487 0
 1435 0026 2C4B     		ldr	r3, .L96
 1436 0028 5868     		ldr	r0, [r3, #4]
 1437 002a 039B     		ldr	r3, [sp, #12]
 1438 002c 9A1C     		adds	r2, r3, #2
 1439 002e 2E4B     		ldr	r3, .L96+16
 1440 0030 0093     		str	r3, [sp]
 1441 0032 2B4B     		ldr	r3, .L96+8
 1442 0034 4FF4F871 		mov	r1, #496
 1443 0038 FFF7FEFF 		bl	chThdCreateStatic
 1444 003c 0246     		mov	r2, r0
 1445 003e 294B     		ldr	r3, .L96+12
 1446 0040 5A60     		str	r2, [r3, #4]
 1447              		.loc 6 488 0
 1448 0042 254B     		ldr	r3, .L96
 1449 0044 9868     		ldr	r0, [r3, #8]
 1450 0046 039B     		ldr	r3, [sp, #12]
 1451 0048 DA1C     		adds	r2, r3, #3
 1452 004a 284B     		ldr	r3, .L96+20
 1453 004c 0093     		str	r3, [sp]
 1454 004e 244B     		ldr	r3, .L96+8
 1455 0050 4FF4F871 		mov	r1, #496
 1456 0054 FFF7FEFF 		bl	chThdCreateStatic
 1457 0058 0246     		mov	r2, r0
 1458 005a 224B     		ldr	r3, .L96+12
 1459 005c 9A60     		str	r2, [r3, #8]
 1460              		.loc 6 489 0
 1461 005e 1E4B     		ldr	r3, .L96
 1462 0060 D868     		ldr	r0, [r3, #12]
 1463 0062 039B     		ldr	r3, [sp, #12]
 1464 0064 1A1D     		adds	r2, r3, #4
 1465 0066 224B     		ldr	r3, .L96+24
 1466 0068 0093     		str	r3, [sp]
 1467 006a 1D4B     		ldr	r3, .L96+8
 1468 006c 4FF4F871 		mov	r1, #496
 1469 0070 FFF7FEFF 		bl	chThdCreateStatic
 1470 0074 0246     		mov	r2, r0
ARM GAS  /tmp/ccaMab5i.s 			page 27


 1471 0076 1B4B     		ldr	r3, .L96+12
 1472 0078 DA60     		str	r2, [r3, #12]
 1473              		.loc 6 490 0
 1474 007a 174B     		ldr	r3, .L96
 1475 007c 1869     		ldr	r0, [r3, #16]
 1476 007e 039B     		ldr	r3, [sp, #12]
 1477 0080 5A1D     		adds	r2, r3, #5
 1478 0082 1C4B     		ldr	r3, .L96+28
 1479 0084 0093     		str	r3, [sp]
 1480 0086 164B     		ldr	r3, .L96+8
 1481 0088 4FF4F871 		mov	r1, #496
 1482 008c FFF7FEFF 		bl	chThdCreateStatic
 1483 0090 0246     		mov	r2, r0
 1484 0092 144B     		ldr	r3, .L96+12
 1485 0094 1A61     		str	r2, [r3, #16]
 1486              		.loc 6 491 0
 1487 0096 FFF7FEFF 		bl	chSysLock
 1488              		.loc 6 492 0
 1489 009a 1748     		ldr	r0, .L96+32
 1490 009c FFF7FEFF 		bl	chCondSignalI
 1491              		.loc 6 493 0
 1492 00a0 1548     		ldr	r0, .L96+32
 1493 00a2 FFF7FEFF 		bl	chCondSignalI
 1494              		.loc 6 494 0
 1495 00a6 1448     		ldr	r0, .L96+32
 1496 00a8 FFF7FEFF 		bl	chCondSignalI
 1497              		.loc 6 495 0
 1498 00ac 1248     		ldr	r0, .L96+32
 1499 00ae FFF7FEFF 		bl	chCondSignalI
 1500              		.loc 6 496 0
 1501 00b2 1148     		ldr	r0, .L96+32
 1502 00b4 FFF7FEFF 		bl	chCondSignalI
 1503              		.loc 6 497 0
 1504 00b8 FFF7FEFF 		bl	chSchRescheduleS
 1505              		.loc 6 498 0
 1506 00bc FFF7FEFF 		bl	chSysUnlock
 1507              		.loc 6 499 0
 1508 00c0 FFF7FEFF 		bl	test_wait_threads
 1509              		.loc 6 500 0
 1510 00c4 0D49     		ldr	r1, .L96+36
 1511 00c6 0120     		movs	r0, #1
 1512 00c8 FFF7FEFF 		bl	_test_assert_sequence
 1513 00cc 0346     		mov	r3, r0
 1514 00ce 002B     		cmp	r3, #0
 1515              		.loc 6 501 0
 1516 00d0 05B0     		add	sp, sp, #20
 1517              		.cfi_def_cfa_offset 4
 1518              		@ sp needed
 1519 00d2 5DF804FB 		ldr	pc, [sp], #4
 1520              	.L97:
 1521 00d6 00BF     		.align	2
 1522              	.L96:
 1523 00d8 00000000 		.word	wa
 1524 00dc 00000000 		.word	.LC0
 1525 00e0 00000000 		.word	thread10
 1526 00e4 00000000 		.word	threads
 1527 00e8 04000000 		.word	.LC1
ARM GAS  /tmp/ccaMab5i.s 			page 28


 1528 00ec 08000000 		.word	.LC2
 1529 00f0 0C000000 		.word	.LC3
 1530 00f4 10000000 		.word	.LC4
 1531 00f8 00000000 		.word	c1
 1532 00fc 14000000 		.word	.LC5
 1533              		.cfi_endproc
 1534              	.LFE242:
 1535              		.size	mtx6_execute, .-mtx6_execute
 1536              		.global	testmtx6
 1537              		.section	.rodata
 1538              		.align	2
 1539              	.LC9:
 1540 006c 436F6E64 		.ascii	"CondVar, signal test\000"
 1540      5661722C 
 1540      20736967 
 1540      6E616C20 
 1540      74657374 
 1541              		.section	.rodata.testmtx6,"a",%progbits
 1542              		.align	2
 1543              		.type	testmtx6, %object
 1544              		.size	testmtx6, 16
 1545              	testmtx6:
 1546 0000 6C000000 		.word	.LC9
 1547 0004 00000000 		.word	mtx6_setup
 1548 0008 00000000 		.word	0
 1549 000c 00000000 		.word	mtx6_execute
 1550              		.section	.text.mtx7_setup,"ax",%progbits
 1551              		.align	1
 1552              		.p2align 4,,15
 1553              		.syntax unified
 1554              		.thumb
 1555              		.thumb_func
 1556              		.fpu fpv4-sp-d16
 1557              		.type	mtx7_setup, %function
 1558              	mtx7_setup:
 1559              	.LFB243:
 1560              		.loc 6 520 0
 1561              		.cfi_startproc
 1562              		@ args = 0, pretend = 0, frame = 0
 1563              		@ frame_needed = 0, uses_anonymous_args = 0
 1564 0000 08B5     		push	{r3, lr}
 1565              		.cfi_def_cfa_offset 8
 1566              		.cfi_offset 3, -8
 1567              		.cfi_offset 14, -4
 1568              		.loc 6 522 0
 1569 0002 0448     		ldr	r0, .L99
 1570 0004 FFF7FEFF 		bl	chCondObjectInit
 1571              		.loc 6 523 0
 1572 0008 0348     		ldr	r0, .L99+4
 1573 000a FFF7FEFF 		bl	chMtxObjectInit
 1574              		.loc 6 524 0
 1575 000e 00BF     		nop
 1576 0010 08BD     		pop	{r3, pc}
 1577              	.L100:
 1578 0012 00BF     		.align	2
 1579              	.L99:
 1580 0014 00000000 		.word	c1
ARM GAS  /tmp/ccaMab5i.s 			page 29


 1581 0018 00000000 		.word	m1
 1582              		.cfi_endproc
 1583              	.LFE243:
 1584              		.size	mtx7_setup, .-mtx7_setup
 1585              		.section	.text.mtx7_execute,"ax",%progbits
 1586              		.align	1
 1587              		.p2align 4,,15
 1588              		.syntax unified
 1589              		.thumb
 1590              		.thumb_func
 1591              		.fpu fpv4-sp-d16
 1592              		.type	mtx7_execute, %function
 1593              	mtx7_execute:
 1594              	.LFB244:
 1595              		.loc 6 526 0
 1596              		.cfi_startproc
 1597              		@ args = 0, pretend = 0, frame = 8
 1598              		@ frame_needed = 0, uses_anonymous_args = 0
 1599 0000 00B5     		push	{lr}
 1600              		.cfi_def_cfa_offset 4
 1601              		.cfi_offset 14, -4
 1602 0002 85B0     		sub	sp, sp, #20
 1603              		.cfi_def_cfa_offset 24
 1604              		.loc 6 528 0
 1605 0004 FFF7FEFF 		bl	chThdGetPriorityX
 1606 0008 0390     		str	r0, [sp, #12]
 1607              		.loc 6 529 0
 1608 000a 2A4B     		ldr	r3, .L103
 1609 000c 1868     		ldr	r0, [r3]
 1610 000e 039B     		ldr	r3, [sp, #12]
 1611 0010 5A1C     		adds	r2, r3, #1
 1612 0012 294B     		ldr	r3, .L103+4
 1613 0014 0093     		str	r3, [sp]
 1614 0016 294B     		ldr	r3, .L103+8
 1615 0018 4FF4F871 		mov	r1, #496
 1616 001c FFF7FEFF 		bl	chThdCreateStatic
 1617 0020 0246     		mov	r2, r0
 1618 0022 274B     		ldr	r3, .L103+12
 1619 0024 1A60     		str	r2, [r3]
 1620              		.loc 6 530 0
 1621 0026 234B     		ldr	r3, .L103
 1622 0028 5868     		ldr	r0, [r3, #4]
 1623 002a 039B     		ldr	r3, [sp, #12]
 1624 002c 9A1C     		adds	r2, r3, #2
 1625 002e 254B     		ldr	r3, .L103+16
 1626 0030 0093     		str	r3, [sp]
 1627 0032 224B     		ldr	r3, .L103+8
 1628 0034 4FF4F871 		mov	r1, #496
 1629 0038 FFF7FEFF 		bl	chThdCreateStatic
 1630 003c 0246     		mov	r2, r0
 1631 003e 204B     		ldr	r3, .L103+12
 1632 0040 5A60     		str	r2, [r3, #4]
 1633              		.loc 6 531 0
 1634 0042 1C4B     		ldr	r3, .L103
 1635 0044 9868     		ldr	r0, [r3, #8]
 1636 0046 039B     		ldr	r3, [sp, #12]
 1637 0048 DA1C     		adds	r2, r3, #3
ARM GAS  /tmp/ccaMab5i.s 			page 30


 1638 004a 1F4B     		ldr	r3, .L103+20
 1639 004c 0093     		str	r3, [sp]
 1640 004e 1B4B     		ldr	r3, .L103+8
 1641 0050 4FF4F871 		mov	r1, #496
 1642 0054 FFF7FEFF 		bl	chThdCreateStatic
 1643 0058 0246     		mov	r2, r0
 1644 005a 194B     		ldr	r3, .L103+12
 1645 005c 9A60     		str	r2, [r3, #8]
 1646              		.loc 6 532 0
 1647 005e 154B     		ldr	r3, .L103
 1648 0060 D868     		ldr	r0, [r3, #12]
 1649 0062 039B     		ldr	r3, [sp, #12]
 1650 0064 1A1D     		adds	r2, r3, #4
 1651 0066 194B     		ldr	r3, .L103+24
 1652 0068 0093     		str	r3, [sp]
 1653 006a 144B     		ldr	r3, .L103+8
 1654 006c 4FF4F871 		mov	r1, #496
 1655 0070 FFF7FEFF 		bl	chThdCreateStatic
 1656 0074 0246     		mov	r2, r0
 1657 0076 124B     		ldr	r3, .L103+12
 1658 0078 DA60     		str	r2, [r3, #12]
 1659              		.loc 6 533 0
 1660 007a 0E4B     		ldr	r3, .L103
 1661 007c 1869     		ldr	r0, [r3, #16]
 1662 007e 039B     		ldr	r3, [sp, #12]
 1663 0080 5A1D     		adds	r2, r3, #5
 1664 0082 134B     		ldr	r3, .L103+28
 1665 0084 0093     		str	r3, [sp]
 1666 0086 0D4B     		ldr	r3, .L103+8
 1667 0088 4FF4F871 		mov	r1, #496
 1668 008c FFF7FEFF 		bl	chThdCreateStatic
 1669 0090 0246     		mov	r2, r0
 1670 0092 0B4B     		ldr	r3, .L103+12
 1671 0094 1A61     		str	r2, [r3, #16]
 1672              		.loc 6 534 0
 1673 0096 0F48     		ldr	r0, .L103+32
 1674 0098 FFF7FEFF 		bl	chCondBroadcast
 1675              		.loc 6 535 0
 1676 009c FFF7FEFF 		bl	test_wait_threads
 1677              		.loc 6 536 0
 1678 00a0 0D49     		ldr	r1, .L103+36
 1679 00a2 0120     		movs	r0, #1
 1680 00a4 FFF7FEFF 		bl	_test_assert_sequence
 1681 00a8 0346     		mov	r3, r0
 1682 00aa 002B     		cmp	r3, #0
 1683              		.loc 6 537 0
 1684 00ac 05B0     		add	sp, sp, #20
 1685              		.cfi_def_cfa_offset 4
 1686              		@ sp needed
 1687 00ae 5DF804FB 		ldr	pc, [sp], #4
 1688              	.L104:
 1689 00b2 00BF     		.align	2
 1690              	.L103:
 1691 00b4 00000000 		.word	wa
 1692 00b8 00000000 		.word	.LC0
 1693 00bc 00000000 		.word	thread10
 1694 00c0 00000000 		.word	threads
ARM GAS  /tmp/ccaMab5i.s 			page 31


 1695 00c4 04000000 		.word	.LC1
 1696 00c8 08000000 		.word	.LC2
 1697 00cc 0C000000 		.word	.LC3
 1698 00d0 10000000 		.word	.LC4
 1699 00d4 00000000 		.word	c1
 1700 00d8 14000000 		.word	.LC5
 1701              		.cfi_endproc
 1702              	.LFE244:
 1703              		.size	mtx7_execute, .-mtx7_execute
 1704              		.global	testmtx7
 1705              		.section	.rodata
 1706 0081 000000   		.align	2
 1707              	.LC10:
 1708 0084 436F6E64 		.ascii	"CondVar, broadcast test\000"
 1708      5661722C 
 1708      2062726F 
 1708      61646361 
 1708      73742074 
 1709              		.section	.rodata.testmtx7,"a",%progbits
 1710              		.align	2
 1711              		.type	testmtx7, %object
 1712              		.size	testmtx7, 16
 1713              	testmtx7:
 1714 0000 84000000 		.word	.LC10
 1715 0004 00000000 		.word	mtx7_setup
 1716 0008 00000000 		.word	0
 1717 000c 00000000 		.word	mtx7_execute
 1718              		.section	.text.mtx8_setup,"ax",%progbits
 1719              		.align	1
 1720              		.p2align 4,,15
 1721              		.syntax unified
 1722              		.thumb
 1723              		.thumb_func
 1724              		.fpu fpv4-sp-d16
 1725              		.type	mtx8_setup, %function
 1726              	mtx8_setup:
 1727              	.LFB245:
 1728              		.loc 6 555 0
 1729              		.cfi_startproc
 1730              		@ args = 0, pretend = 0, frame = 0
 1731              		@ frame_needed = 0, uses_anonymous_args = 0
 1732 0000 08B5     		push	{r3, lr}
 1733              		.cfi_def_cfa_offset 8
 1734              		.cfi_offset 3, -8
 1735              		.cfi_offset 14, -4
 1736              		.loc 6 557 0
 1737 0002 0548     		ldr	r0, .L106
 1738 0004 FFF7FEFF 		bl	chCondObjectInit
 1739              		.loc 6 558 0
 1740 0008 0448     		ldr	r0, .L106+4
 1741 000a FFF7FEFF 		bl	chMtxObjectInit
 1742              		.loc 6 559 0
 1743 000e 0448     		ldr	r0, .L106+8
 1744 0010 FFF7FEFF 		bl	chMtxObjectInit
 1745              		.loc 6 560 0
 1746 0014 00BF     		nop
 1747 0016 08BD     		pop	{r3, pc}
ARM GAS  /tmp/ccaMab5i.s 			page 32


 1748              	.L107:
 1749              		.align	2
 1750              	.L106:
 1751 0018 00000000 		.word	c1
 1752 001c 00000000 		.word	m1
 1753 0020 00000000 		.word	m2
 1754              		.cfi_endproc
 1755              	.LFE245:
 1756              		.size	mtx8_setup, .-mtx8_setup
 1757              		.section	.text.thread11,"ax",%progbits
 1758              		.align	1
 1759              		.p2align 4,,15
 1760              		.syntax unified
 1761              		.thumb
 1762              		.thumb_func
 1763              		.fpu fpv4-sp-d16
 1764              		.type	thread11, %function
 1765              	thread11:
 1766              	.LFB246:
 1767              		.loc 6 562 0
 1768              		.cfi_startproc
 1769              		@ args = 0, pretend = 0, frame = 8
 1770              		@ frame_needed = 0, uses_anonymous_args = 0
 1771 0000 00B5     		push	{lr}
 1772              		.cfi_def_cfa_offset 4
 1773              		.cfi_offset 14, -4
 1774 0002 83B0     		sub	sp, sp, #12
 1775              		.cfi_def_cfa_offset 16
 1776 0004 0190     		str	r0, [sp, #4]
 1777              		.loc 6 564 0
 1778 0006 0D48     		ldr	r0, .L109
 1779 0008 FFF7FEFF 		bl	chMtxLock
 1780              		.loc 6 565 0
 1781 000c 0C48     		ldr	r0, .L109+4
 1782 000e FFF7FEFF 		bl	chMtxLock
 1783              		.loc 6 567 0
 1784 0012 4FF0FF31 		mov	r1, #-1
 1785 0016 0B48     		ldr	r0, .L109+8
 1786 0018 FFF7FEFF 		bl	chCondWaitTimeout
 1787              		.loc 6 571 0
 1788 001c 019B     		ldr	r3, [sp, #4]
 1789 001e 1B78     		ldrb	r3, [r3]	@ zero_extendqisi2
 1790 0020 1846     		mov	r0, r3
 1791 0022 FFF7FEFF 		bl	test_emit_token
 1792              		.loc 6 572 0
 1793 0026 0648     		ldr	r0, .L109+4
 1794 0028 FFF7FEFF 		bl	chMtxUnlock
 1795              		.loc 6 573 0
 1796 002c 0348     		ldr	r0, .L109
 1797 002e FFF7FEFF 		bl	chMtxUnlock
 1798              		.loc 6 574 0
 1799 0032 00BF     		nop
 1800 0034 03B0     		add	sp, sp, #12
 1801              		.cfi_def_cfa_offset 4
 1802              		@ sp needed
 1803 0036 5DF804FB 		ldr	pc, [sp], #4
 1804              	.L110:
ARM GAS  /tmp/ccaMab5i.s 			page 33


 1805 003a 00BF     		.align	2
 1806              	.L109:
 1807 003c 00000000 		.word	m2
 1808 0040 00000000 		.word	m1
 1809 0044 00000000 		.word	c1
 1810              		.cfi_endproc
 1811              	.LFE246:
 1812              		.size	thread11, .-thread11
 1813              		.section	.text.thread12,"ax",%progbits
 1814              		.align	1
 1815              		.p2align 4,,15
 1816              		.syntax unified
 1817              		.thumb
 1818              		.thumb_func
 1819              		.fpu fpv4-sp-d16
 1820              		.type	thread12, %function
 1821              	thread12:
 1822              	.LFB247:
 1823              		.loc 6 576 0
 1824              		.cfi_startproc
 1825              		@ args = 0, pretend = 0, frame = 8
 1826              		@ frame_needed = 0, uses_anonymous_args = 0
 1827 0000 00B5     		push	{lr}
 1828              		.cfi_def_cfa_offset 4
 1829              		.cfi_offset 14, -4
 1830 0002 83B0     		sub	sp, sp, #12
 1831              		.cfi_def_cfa_offset 16
 1832 0004 0190     		str	r0, [sp, #4]
 1833              		.loc 6 578 0
 1834 0006 0748     		ldr	r0, .L112
 1835 0008 FFF7FEFF 		bl	chMtxLock
 1836              		.loc 6 579 0
 1837 000c 019B     		ldr	r3, [sp, #4]
 1838 000e 1B78     		ldrb	r3, [r3]	@ zero_extendqisi2
 1839 0010 1846     		mov	r0, r3
 1840 0012 FFF7FEFF 		bl	test_emit_token
 1841              		.loc 6 580 0
 1842 0016 0348     		ldr	r0, .L112
 1843 0018 FFF7FEFF 		bl	chMtxUnlock
 1844              		.loc 6 581 0
 1845 001c 00BF     		nop
 1846 001e 03B0     		add	sp, sp, #12
 1847              		.cfi_def_cfa_offset 4
 1848              		@ sp needed
 1849 0020 5DF804FB 		ldr	pc, [sp], #4
 1850              	.L113:
 1851              		.align	2
 1852              	.L112:
 1853 0024 00000000 		.word	m2
 1854              		.cfi_endproc
 1855              	.LFE247:
 1856              		.size	thread12, .-thread12
 1857              		.section	.rodata
 1858              		.align	2
 1859              	.LC11:
 1860 009c 41424300 		.ascii	"ABC\000"
 1861              		.section	.text.mtx8_execute,"ax",%progbits
ARM GAS  /tmp/ccaMab5i.s 			page 34


 1862              		.align	1
 1863              		.p2align 4,,15
 1864              		.syntax unified
 1865              		.thumb
 1866              		.thumb_func
 1867              		.fpu fpv4-sp-d16
 1868              		.type	mtx8_execute, %function
 1869              	mtx8_execute:
 1870              	.LFB248:
 1871              		.loc 6 583 0
 1872              		.cfi_startproc
 1873              		@ args = 0, pretend = 0, frame = 8
 1874              		@ frame_needed = 0, uses_anonymous_args = 0
 1875 0000 00B5     		push	{lr}
 1876              		.cfi_def_cfa_offset 4
 1877              		.cfi_offset 14, -4
 1878 0002 85B0     		sub	sp, sp, #20
 1879              		.cfi_def_cfa_offset 24
 1880              		.loc 6 585 0
 1881 0004 FFF7FEFF 		bl	chThdGetPriorityX
 1882 0008 0390     		str	r0, [sp, #12]
 1883              		.loc 6 586 0
 1884 000a 1D4B     		ldr	r3, .L116
 1885 000c 1868     		ldr	r0, [r3]
 1886 000e 039B     		ldr	r3, [sp, #12]
 1887 0010 5A1C     		adds	r2, r3, #1
 1888 0012 1C4B     		ldr	r3, .L116+4
 1889 0014 0093     		str	r3, [sp]
 1890 0016 1C4B     		ldr	r3, .L116+8
 1891 0018 4FF4F871 		mov	r1, #496
 1892 001c FFF7FEFF 		bl	chThdCreateStatic
 1893 0020 0246     		mov	r2, r0
 1894 0022 1A4B     		ldr	r3, .L116+12
 1895 0024 1A60     		str	r2, [r3]
 1896              		.loc 6 587 0
 1897 0026 164B     		ldr	r3, .L116
 1898 0028 5868     		ldr	r0, [r3, #4]
 1899 002a 039B     		ldr	r3, [sp, #12]
 1900 002c 9A1C     		adds	r2, r3, #2
 1901 002e 184B     		ldr	r3, .L116+16
 1902 0030 0093     		str	r3, [sp]
 1903 0032 184B     		ldr	r3, .L116+20
 1904 0034 4FF4F871 		mov	r1, #496
 1905 0038 FFF7FEFF 		bl	chThdCreateStatic
 1906 003c 0246     		mov	r2, r0
 1907 003e 134B     		ldr	r3, .L116+12
 1908 0040 5A60     		str	r2, [r3, #4]
 1909              		.loc 6 588 0
 1910 0042 0F4B     		ldr	r3, .L116
 1911 0044 9868     		ldr	r0, [r3, #8]
 1912 0046 039B     		ldr	r3, [sp, #12]
 1913 0048 DA1C     		adds	r2, r3, #3
 1914 004a 134B     		ldr	r3, .L116+24
 1915 004c 0093     		str	r3, [sp]
 1916 004e 134B     		ldr	r3, .L116+28
 1917 0050 4FF4F871 		mov	r1, #496
 1918 0054 FFF7FEFF 		bl	chThdCreateStatic
ARM GAS  /tmp/ccaMab5i.s 			page 35


 1919 0058 0246     		mov	r2, r0
 1920 005a 0C4B     		ldr	r3, .L116+12
 1921 005c 9A60     		str	r2, [r3, #8]
 1922              		.loc 6 589 0
 1923 005e 1048     		ldr	r0, .L116+32
 1924 0060 FFF7FEFF 		bl	chCondSignal
 1925              		.loc 6 590 0
 1926 0064 0E48     		ldr	r0, .L116+32
 1927 0066 FFF7FEFF 		bl	chCondSignal
 1928              		.loc 6 591 0
 1929 006a FFF7FEFF 		bl	test_wait_threads
 1930              		.loc 6 592 0
 1931 006e 0D49     		ldr	r1, .L116+36
 1932 0070 0120     		movs	r0, #1
 1933 0072 FFF7FEFF 		bl	_test_assert_sequence
 1934 0076 0346     		mov	r3, r0
 1935 0078 002B     		cmp	r3, #0
 1936              		.loc 6 593 0
 1937 007a 05B0     		add	sp, sp, #20
 1938              		.cfi_def_cfa_offset 4
 1939              		@ sp needed
 1940 007c 5DF804FB 		ldr	pc, [sp], #4
 1941              	.L117:
 1942              		.align	2
 1943              	.L116:
 1944 0080 00000000 		.word	wa
 1945 0084 10000000 		.word	.LC4
 1946 0088 00000000 		.word	thread11
 1947 008c 00000000 		.word	threads
 1948 0090 08000000 		.word	.LC2
 1949 0094 00000000 		.word	thread10
 1950 0098 0C000000 		.word	.LC3
 1951 009c 00000000 		.word	thread12
 1952 00a0 00000000 		.word	c1
 1953 00a4 9C000000 		.word	.LC11
 1954              		.cfi_endproc
 1955              	.LFE248:
 1956              		.size	mtx8_execute, .-mtx8_execute
 1957              		.global	testmtx8
 1958              		.section	.rodata
 1959              		.align	2
 1960              	.LC12:
 1961 00a0 436F6E64 		.ascii	"CondVar, boost test\000"
 1961      5661722C 
 1961      20626F6F 
 1961      73742074 
 1961      65737400 
 1962              		.section	.rodata.testmtx8,"a",%progbits
 1963              		.align	2
 1964              		.type	testmtx8, %object
 1965              		.size	testmtx8, 16
 1966              	testmtx8:
 1967 0000 A0000000 		.word	.LC12
 1968 0004 00000000 		.word	mtx8_setup
 1969 0008 00000000 		.word	0
 1970 000c 00000000 		.word	mtx8_execute
 1971              		.global	patternmtx
ARM GAS  /tmp/ccaMab5i.s 			page 36


 1972              		.section	.rodata.patternmtx,"a",%progbits
 1973              		.align	2
 1974              		.type	patternmtx, %object
 1975              		.size	patternmtx, 28
 1976              	patternmtx:
 1977 0000 00000000 		.word	testmtx1
 1978 0004 00000000 		.word	testmtx4
 1979 0008 00000000 		.word	testmtx5
 1980 000c 00000000 		.word	testmtx6
 1981 0010 00000000 		.word	testmtx7
 1982 0014 00000000 		.word	testmtx8
 1983 0018 00000000 		.word	0
 1984              		.section	.rodata.__func__.7157,"a",%progbits
 1985              		.align	2
 1986              		.type	__func__.7157, %object
 1987              		.size	__func__.7157, 12
 1988              	__func__.7157:
 1989 0000 63685379 		.ascii	"chSysUnlock\000"
 1989      73556E6C 
 1989      6F636B00 
 1990              		.text
 1991              	.Letext0:
 1992              		.file 7 "/usr/lib/gcc/arm-none-eabi/6.3.1/include/stddef.h"
 1993              		.file 8 "/usr/arm-none-eabi/include/machine/_default_types.h"
 1994              		.file 9 "/usr/arm-none-eabi/include/sys/_stdint.h"
 1995              		.file 10 "../ChibiOS/os/rt/ports/ARMCMx/compilers/GCC/chtypes.h"
 1996              		.file 11 "../ChibiOS/os/rt/include/chsystypes.h"
 1997              		.file 12 "../ChibiOS/os/ext/CMSIS/include/core_cm4.h"
 1998              		.file 13 "../ChibiOS/os/ext/CMSIS/ST/STM32F4xx/system_stm32f4xx.h"
 1999              		.file 14 "../ChibiOS/os/rt/ports/ARMCMx/chcore.h"
 2000              		.file 15 "../ChibiOS/os/rt/include/chtm.h"
 2001              		.file 16 "../ChibiOS/os/rt/include/chstats.h"
 2002              		.file 17 "../ChibiOS/os/rt/include/chsem.h"
 2003              		.file 18 "../ChibiOS/os/rt/include/chmtx.h"
 2004              		.file 19 "../ChibiOS/os/rt/include/chregistry.h"
 2005              		.file 20 "../ChibiOS/os/rt/include/chcond.h"
 2006              		.file 21 "../ChibiOS/test/rt/test.h"