ARM GAS  /tmp/ccaMab5i.s 			page 1


   1              		.cpu cortex-m4
   2              		.eabi_attribute 27, 1
   3              		.eabi_attribute 28, 1
   4              		.eabi_attribute 20, 1
   5              		.eabi_attribute 21, 1
   6              		.eabi_attribute 23, 3
   7              		.eabi_attribute 24, 1
   8              		.eabi_attribute 25, 1
   9              		.eabi_attribute 26, 1
  10              		.eabi_attribute 30, 6
  11              		.eabi_attribute 34, 1
  12              		.eabi_attribute 18, 4
  13              		.file	"testmtx.c"
  14              		.text
  15              	.Ltext0:
  16              		.cfi_sections	.debug_frame
  17              		.section	.text.port_lock,"ax",%progbits
  18              		.align	1
  19              		.p2align 4,,15
  20              		.syntax unified
  21              		.thumb
  22              		.thumb_func
  23              		.fpu fpv4-sp-d16
  24              		.type	port_lock, %function
  25              	port_lock:
  26              	.LFB127:
  27              		.file 1 "../ChibiOS/os/rt/ports/ARMCMx/chcore_v7m.h"
  28              		.loc 1 456 0
  29              		.cfi_startproc
  30              		@ args = 0, pretend = 0, frame = 8
  31              		@ frame_needed = 0, uses_anonymous_args = 0
  32              		@ link register save eliminated.
  33 0000 82B0     		sub	sp, sp, #8
  34              		.cfi_def_cfa_offset 8
  35 0002 2023     		movs	r3, #32
  36 0004 0193     		str	r3, [sp, #4]
  37              	.LBB6:
  38              	.LBB7:
  39              		.file 2 "../ChibiOS/os/ext/CMSIS/include/core_cmFunc.h"
  40              		.loc 2 548 0
  41 0006 019B     		ldr	r3, [sp, #4]
  42              		.syntax unified
  43              	@ 548 "../ChibiOS/os/ext/CMSIS/include/core_cmFunc.h" 1
  44 0008 83F31188 		MSR basepri, r3
  45              	@ 0 "" 2
  46              		.thumb
  47              		.syntax unified
  48              	.LBE7:
  49              	.LBE6:
  50              		.loc 1 473 0
  51 000c 00BF     		nop
  52 000e 02B0     		add	sp, sp, #8
  53              		.cfi_def_cfa_offset 0
  54              		@ sp needed
  55 0010 7047     		bx	lr
  56              		.cfi_endproc
  57              	.LFE127:
ARM GAS  /tmp/ccaMab5i.s 			page 2


  58              		.size	port_lock, .-port_lock
  59 0012 00BF     		.section	.text.port_unlock,"ax",%progbits
  60              		.align	1
  61              		.p2align 4,,15
  62              		.syntax unified
  63              		.thumb
  64              		.thumb_func
  65              		.fpu fpv4-sp-d16
  66              		.type	port_unlock, %function
  67              	port_unlock:
  68              	.LFB128:
  69              		.loc 1 480 0
  70              		.cfi_startproc
  71              		@ args = 0, pretend = 0, frame = 8
  72              		@ frame_needed = 0, uses_anonymous_args = 0
  73              		@ link register save eliminated.
  74 0000 82B0     		sub	sp, sp, #8
  75              		.cfi_def_cfa_offset 8
  76 0002 0023     		movs	r3, #0
  77 0004 0193     		str	r3, [sp, #4]
  78              	.LBB8:
  79              	.LBB9:
  80              		.loc 2 548 0
  81 0006 019B     		ldr	r3, [sp, #4]
  82              		.syntax unified
  83              	@ 548 "../ChibiOS/os/ext/CMSIS/include/core_cmFunc.h" 1
  84 0008 83F31188 		MSR basepri, r3
  85              	@ 0 "" 2
  86              		.thumb
  87              		.syntax unified
  88              	.LBE9:
  89              	.LBE8:
  90              		.loc 1 487 0
  91 000c 00BF     		nop
  92 000e 02B0     		add	sp, sp, #8
  93              		.cfi_def_cfa_offset 0
  94              		@ sp needed
  95 0010 7047     		bx	lr
  96              		.cfi_endproc
  97              	.LFE128:
  98              		.size	port_unlock, .-port_unlock
  99 0012 00BF     		.section	.text.queue_isempty,"ax",%progbits
 100              		.align	1
 101              		.p2align 4,,15
 102              		.syntax unified
 103              		.thumb
 104              		.thumb_func
 105              		.fpu fpv4-sp-d16
 106              		.type	queue_isempty, %function
 107              	queue_isempty:
 108              	.LFB140:
 109              		.file 3 "../ChibiOS/os/rt/include/chschd.h"
 110              		.loc 3 616 0
 111              		.cfi_startproc
 112              		@ args = 0, pretend = 0, frame = 8
 113              		@ frame_needed = 0, uses_anonymous_args = 0
 114              		@ link register save eliminated.
ARM GAS  /tmp/ccaMab5i.s 			page 3


 115 0000 82B0     		sub	sp, sp, #8
 116              		.cfi_def_cfa_offset 8
 117 0002 0190     		str	r0, [sp, #4]
 118              		.loc 3 618 0
 119 0004 019B     		ldr	r3, [sp, #4]
 120 0006 1A68     		ldr	r2, [r3]
 121 0008 019B     		ldr	r3, [sp, #4]
 122 000a 9A42     		cmp	r2, r3
 123 000c 0CBF     		ite	eq
 124 000e 0123     		moveq	r3, #1
 125 0010 0023     		movne	r3, #0
 126 0012 DBB2     		uxtb	r3, r3
 127              		.loc 3 619 0
 128 0014 1846     		mov	r0, r3
 129 0016 02B0     		add	sp, sp, #8
 130              		.cfi_def_cfa_offset 0
 131              		@ sp needed
 132 0018 7047     		bx	lr
 133              		.cfi_endproc
 134              	.LFE140:
 135              		.size	queue_isempty, .-queue_isempty
 136 001a 00BF     		.section	.text.chSysLock,"ax",%progbits
 137              		.align	1
 138              		.p2align 4,,15
 139              		.syntax unified
 140              		.thumb
 141              		.thumb_func
 142              		.fpu fpv4-sp-d16
 143              		.type	chSysLock, %function
 144              	chSysLock:
 145              	.LFB156:
 146              		.file 4 "../ChibiOS/os/rt/include/chsys.h"
 147              		.loc 4 346 0
 148              		.cfi_startproc
 149              		@ args = 0, pretend = 0, frame = 0
 150              		@ frame_needed = 0, uses_anonymous_args = 0
 151 0000 08B5     		push	{r3, lr}
 152              		.cfi_def_cfa_offset 8
 153              		.cfi_offset 3, -8
 154              		.cfi_offset 14, -4
 155              		.loc 4 348 0
 156 0002 FFF7FEFF 		bl	port_lock
 157              		.loc 4 349 0
 158 0006 FFF7FEFF 		bl	_stats_start_measure_crit_thd
 159              		.loc 4 350 0
 160 000a FFF7FEFF 		bl	_dbg_check_lock
 161              		.loc 4 351 0
 162 000e 00BF     		nop
 163 0010 08BD     		pop	{r3, pc}
 164              		.cfi_endproc
 165              	.LFE156:
 166              		.size	chSysLock, .-chSysLock
 167 0012 00BF     		.section	.text.chSysUnlock,"ax",%progbits
 168              		.align	1
 169              		.p2align 4,,15
 170              		.syntax unified
 171              		.thumb
ARM GAS  /tmp/ccaMab5i.s 			page 4


 172              		.thumb_func
 173              		.fpu fpv4-sp-d16
 174              		.type	chSysUnlock, %function
 175              	chSysUnlock:
 176              	.LFB157:
 177              		.loc 4 358 0
 178              		.cfi_startproc
 179              		@ args = 0, pretend = 0, frame = 0
 180              		@ frame_needed = 0, uses_anonymous_args = 0
 181 0000 08B5     		push	{r3, lr}
 182              		.cfi_def_cfa_offset 8
 183              		.cfi_offset 3, -8
 184              		.cfi_offset 14, -4
 185              		.loc 4 360 0
 186 0002 FFF7FEFF 		bl	_dbg_check_unlock
 187              		.loc 4 361 0
 188 0006 FFF7FEFF 		bl	_stats_stop_measure_crit_thd
 189              		.loc 4 367 0
 190 000a 0A4B     		ldr	r3, .L8
 191 000c 1B68     		ldr	r3, [r3]
 192 000e 094A     		ldr	r2, .L8
 193 0010 9342     		cmp	r3, r2
 194 0012 0AD0     		beq	.L7
 195              		.loc 4 367 0 is_stmt 0 discriminator 2
 196 0014 074B     		ldr	r3, .L8
 197 0016 9B69     		ldr	r3, [r3, #24]
 198 0018 9A68     		ldr	r2, [r3, #8]
 199 001a 064B     		ldr	r3, .L8
 200 001c 1B68     		ldr	r3, [r3]
 201 001e 9B68     		ldr	r3, [r3, #8]
 202 0020 9A42     		cmp	r2, r3
 203 0022 02D2     		bcs	.L7
 204              		.loc 4 367 0 discriminator 3
 205 0024 0448     		ldr	r0, .L8+4
 206 0026 FFF7FEFF 		bl	chSysHalt
 207              	.L7:
 208              		.loc 4 371 0 is_stmt 1
 209 002a FFF7FEFF 		bl	port_unlock
 210              		.loc 4 372 0
 211 002e 00BF     		nop
 212 0030 08BD     		pop	{r3, pc}
 213              	.L9:
 214 0032 00BF     		.align	2
 215              	.L8:
 216 0034 00000000 		.word	ch
 217 0038 00000000 		.word	__func__.7157
 218              		.cfi_endproc
 219              	.LFE157:
 220              		.size	chSysUnlock, .-chSysUnlock
 221              		.section	.text.chThdGetSelfX,"ax",%progbits
 222              		.align	1
 223              		.p2align 4,,15
 224              		.syntax unified
 225              		.thumb
 226              		.thumb_func
 227              		.fpu fpv4-sp-d16
 228              		.type	chThdGetSelfX, %function
ARM GAS  /tmp/ccaMab5i.s 			page 5


 229              	chThdGetSelfX:
 230              	.LFB178:
 231              		.file 5 "../ChibiOS/os/rt/include/chthreads.h"
 232              		.loc 5 174 0
 233              		.cfi_startproc
 234              		@ args = 0, pretend = 0, frame = 0
 235              		@ frame_needed = 0, uses_anonymous_args = 0
 236              		@ link register save eliminated.
 237              		.loc 5 176 0
 238 0000 014B     		ldr	r3, .L12
 239 0002 9B69     		ldr	r3, [r3, #24]
 240              		.loc 5 177 0
 241 0004 1846     		mov	r0, r3
 242 0006 7047     		bx	lr
 243              	.L13:
 244              		.align	2
 245              	.L12:
 246 0008 00000000 		.word	ch
 247              		.cfi_endproc
 248              	.LFE178:
 249              		.size	chThdGetSelfX, .-chThdGetSelfX
 250              		.section	.text.chThdGetPriorityX,"ax",%progbits
 251              		.align	1
 252              		.p2align 4,,15
 253              		.syntax unified
 254              		.thumb
 255              		.thumb_func
 256              		.fpu fpv4-sp-d16
 257              		.type	chThdGetPriorityX, %function
 258              	chThdGetPriorityX:
 259              	.LFB179:
 260              		.loc 5 187 0
 261              		.cfi_startproc
 262              		@ args = 0, pretend = 0, frame = 0
 263              		@ frame_needed = 0, uses_anonymous_args = 0
 264 0000 08B5     		push	{r3, lr}
 265              		.cfi_def_cfa_offset 8
 266              		.cfi_offset 3, -8
 267              		.cfi_offset 14, -4
 268              		.loc 5 189 0
 269 0002 FFF7FEFF 		bl	chThdGetSelfX
 270 0006 0346     		mov	r3, r0
 271 0008 9B68     		ldr	r3, [r3, #8]
 272              		.loc 5 190 0
 273 000a 1846     		mov	r0, r3
 274 000c 08BD     		pop	{r3, pc}
 275              		.cfi_endproc
 276              	.LFE179:
 277              		.size	chThdGetPriorityX, .-chThdGetPriorityX
 278 000e 00BF     		.section	.data.m1,"aw",%progbits
 279              		.align	2
 280              		.type	m1, %object
 281              		.size	m1, 16
 282              	m1:
 283 0000 00000000 		.word	m1
 284 0004 00000000 		.word	m1
 285 0008 00000000 		.word	0
ARM GAS  /tmp/ccaMab5i.s 			page 6


 286 000c 00000000 		.word	0
 287              		.section	.data.m2,"aw",%progbits
 288              		.align	2
 289              		.type	m2, %object
 290              		.size	m2, 16
 291              	m2:
 292 0000 00000000 		.word	m2
 293 0004 00000000 		.word	m2
 294 0008 00000000 		.word	0
 295 000c 00000000 		.word	0
 296              		.section	.data.c1,"aw",%progbits
 297              		.align	2
 298              		.type	c1, %object
 299              		.size	c1, 8
 300              	c1:
 301 0000 00000000 		.word	c1
 302 0004 00000000 		.word	c1
 303              		.section	.text.mtx1_setup,"ax",%progbits
 304              		.align	1
 305              		.p2align 4,,15
 306              		.syntax unified
 307              		.thumb
 308              		.thumb_func
 309              		.fpu fpv4-sp-d16
 310              		.type	mtx1_setup, %function
 311              	mtx1_setup:
 312              	.LFB231:
 313              		.file 6 "../ChibiOS/test/rt/testmtx.c"
 314              		.loc 6 84 0
 315              		.cfi_startproc
 316              		@ args = 0, pretend = 0, frame = 0
 317              		@ frame_needed = 0, uses_anonymous_args = 0
 318 0000 08B5     		push	{r3, lr}
 319              		.cfi_def_cfa_offset 8
 320              		.cfi_offset 3, -8
 321              		.cfi_offset 14, -4
 322              		.loc 6 86 0
 323 0002 0248     		ldr	r0, .L17
 324 0004 FFF7FEFF 		bl	chMtxObjectInit
 325              		.loc 6 87 0
 326 0008 00BF     		nop
 327 000a 08BD     		pop	{r3, pc}
 328              	.L18:
 329              		.align	2
 330              	.L17:
 331 000c 00000000 		.word	m1
 332              		.cfi_endproc
 333              	.LFE231:
 334              		.size	mtx1_setup, .-mtx1_setup
 335              		.section	.text.thread1,"ax",%progbits
 336              		.align	1
 337              		.p2align 4,,15
 338              		.syntax unified
 339              		.thumb
 340              		.thumb_func
 341              		.fpu fpv4-sp-d16
 342              		.type	thread1, %function
ARM GAS  /tmp/ccaMab5i.s 			page 7


 343              	thread1:
 344              	.LFB232:
 345              		.loc 6 89 0
 346              		.cfi_startproc
 347              		@ args = 0, pretend = 0, frame = 8
 348              		@ frame_needed = 0, uses_anonymous_args = 0
 349 0000 00B5     		push	{lr}
 350              		.cfi_def_cfa_offset 4
 351              		.cfi_offset 14, -4
 352 0002 83B0     		sub	sp, sp, #12
 353              		.cfi_def_cfa_offset 16
 354 0004 0190     		str	r0, [sp, #4]
 355              		.loc 6 91 0
 356 0006 0748     		ldr	r0, .L20
 357 0008 FFF7FEFF 		bl	chMtxLock
 358              		.loc 6 92 0
 359 000c 019B     		ldr	r3, [sp, #4]
 360 000e 1B78     		ldrb	r3, [r3]	@ zero_extendqisi2
 361 0010 1846     		mov	r0, r3
 362 0012 FFF7FEFF 		bl	test_emit_token
 363              		.loc 6 93 0
 364 0016 0348     		ldr	r0, .L20
 365 0018 FFF7FEFF 		bl	chMtxUnlock
 366              		.loc 6 94 0
 367 001c 00BF     		nop
 368 001e 03B0     		add	sp, sp, #12
 369              		.cfi_def_cfa_offset 4
 370              		@ sp needed
 371 0020 5DF804FB 		ldr	pc, [sp], #4
 372              	.L21:
 373              		.align	2
 374              	.L20:
 375 0024 00000000 		.word	m1
 376              		.cfi_endproc
 377              	.LFE232:
 378              		.size	thread1, .-thread1
 379              		.section	.rodata
 380              		.align	2
 381              	.LC0:
 382 0000 4500     		.ascii	"E\000"
 383 0002 0000     		.align	2
 384              	.LC1:
 385 0004 4400     		.ascii	"D\000"
 386 0006 0000     		.align	2
 387              	.LC2:
 388 0008 4300     		.ascii	"C\000"
 389 000a 0000     		.align	2
 390              	.LC3:
 391 000c 4200     		.ascii	"B\000"
 392 000e 0000     		.align	2
 393              	.LC4:
 394 0010 4100     		.ascii	"A\000"
 395 0012 0000     		.align	2
 396              	.LC5:
 397 0014 41424344 		.ascii	"ABCDE\000"
 397      4500
 398              		.section	.text.mtx1_execute,"ax",%progbits
ARM GAS  /tmp/ccaMab5i.s 			page 8


 399              		.align	1
 400              		.p2align 4,,15
 401              		.syntax unified
 402              		.thumb
 403              		.thumb_func
 404              		.fpu fpv4-sp-d16
 405              		.type	mtx1_execute, %function
 406              	mtx1_execute:
 407              	.LFB233:
 408              		.loc 6 96 0
 409              		.cfi_startproc
 410              		@ args = 0, pretend = 0, frame = 8
 411              		@ frame_needed = 0, uses_anonymous_args = 0
 412 0000 00B5     		push	{lr}
 413              		.cfi_def_cfa_offset 4
 414              		.cfi_offset 14, -4
 415 0002 85B0     		sub	sp, sp, #20
 416              		.cfi_def_cfa_offset 24
 417              		.loc 6 98 0
 418 0004 FFF7FEFF 		bl	chThdGetPriorityX
 419 0008 0390     		str	r0, [sp, #12]
 420              		.loc 6 99 0
 421 000a 3448     		ldr	r0, .L26
 422 000c FFF7FEFF 		bl	chMtxLock
 423              		.loc 6 100 0
 424 0010 334B     		ldr	r3, .L26+4
 425 0012 1868     		ldr	r0, [r3]
 426 0014 039B     		ldr	r3, [sp, #12]
 427 0016 5A1C     		adds	r2, r3, #1
 428 0018 324B     		ldr	r3, .L26+8
 429 001a 0093     		str	r3, [sp]
 430 001c 324B     		ldr	r3, .L26+12
 431 001e 4FF4F871 		mov	r1, #496
 432 0022 FFF7FEFF 		bl	chThdCreateStatic
 433 0026 0246     		mov	r2, r0
 434 0028 304B     		ldr	r3, .L26+16
 435 002a 1A60     		str	r2, [r3]
 436              		.loc 6 101 0
 437 002c 2C4B     		ldr	r3, .L26+4
 438 002e 5868     		ldr	r0, [r3, #4]
 439 0030 039B     		ldr	r3, [sp, #12]
 440 0032 9A1C     		adds	r2, r3, #2
 441 0034 2E4B     		ldr	r3, .L26+20
 442 0036 0093     		str	r3, [sp]
 443 0038 2B4B     		ldr	r3, .L26+12
 444 003a 4FF4F871 		mov	r1, #496
 445 003e FFF7FEFF 		bl	chThdCreateStatic
 446 0042 0246     		mov	r2, r0
 447 0044 294B     		ldr	r3, .L26+16
 448 0046 5A60     		str	r2, [r3, #4]
 449              		.loc 6 102 0
 450 0048 254B     		ldr	r3, .L26+4
 451 004a 9868     		ldr	r0, [r3, #8]
 452 004c 039B     		ldr	r3, [sp, #12]
 453 004e DA1C     		adds	r2, r3, #3
 454 0050 284B     		ldr	r3, .L26+24
 455 0052 0093     		str	r3, [sp]
ARM GAS  /tmp/ccaMab5i.s 			page 9


 456 0054 244B     		ldr	r3, .L26+12
 457 0056 4FF4F871 		mov	r1, #496
 458 005a FFF7FEFF 		bl	chThdCreateStatic
 459 005e 0246     		mov	r2, r0
 460 0060 224B     		ldr	r3, .L26+16
 461 0062 9A60     		str	r2, [r3, #8]
 462              		.loc 6 103 0
 463 0064 1E4B     		ldr	r3, .L26+4
 464 0066 D868     		ldr	r0, [r3, #12]
 465 0068 039B     		ldr	r3, [sp, #12]
 466 006a 1A1D     		adds	r2, r3, #4
 467 006c 224B     		ldr	r3, .L26+28
 468 006e 0093     		str	r3, [sp]
 469 0070 1D4B     		ldr	r3, .L26+12
 470 0072 4FF4F871 		mov	r1, #496
 471 0076 FFF7FEFF 		bl	chThdCreateStatic
 472 007a 0246     		mov	r2, r0
 473 007c 1B4B     		ldr	r3, .L26+16
 474 007e DA60     		str	r2, [r3, #12]
 475              		.loc 6 104 0
 476 0080 174B     		ldr	r3, .L26+4
 477 0082 1869     		ldr	r0, [r3, #16]
 478 0084 039B     		ldr	r3, [sp, #12]
 479 0086 5A1D     		adds	r2, r3, #5
 480 0088 1C4B     		ldr	r3, .L26+32
 481 008a 0093     		str	r3, [sp]
 482 008c 164B     		ldr	r3, .L26+12
 483 008e 4FF4F871 		mov	r1, #496
 484 0092 FFF7FEFF 		bl	chThdCreateStatic
 485 0096 0246     		mov	r2, r0
 486 0098 144B     		ldr	r3, .L26+16
 487 009a 1A61     		str	r2, [r3, #16]
 488              		.loc 6 105 0
 489 009c 0F48     		ldr	r0, .L26
 490 009e FFF7FEFF 		bl	chMtxUnlock
 491              		.loc 6 106 0
 492 00a2 FFF7FEFF 		bl	test_wait_threads
 493              		.loc 6 107 0
 494 00a6 FFF7FEFF 		bl	chThdGetPriorityX
 495 00aa 0246     		mov	r2, r0
 496 00ac 039B     		ldr	r3, [sp, #12]
 497 00ae 9A42     		cmp	r2, r3
 498 00b0 0CBF     		ite	eq
 499 00b2 0123     		moveq	r3, #1
 500 00b4 0023     		movne	r3, #0
 501 00b6 DBB2     		uxtb	r3, r3
 502 00b8 1946     		mov	r1, r3
 503 00ba 0120     		movs	r0, #1
 504 00bc FFF7FEFF 		bl	_test_assert
 505 00c0 0346     		mov	r3, r0
 506 00c2 002B     		cmp	r3, #0
 507 00c4 06D1     		bne	.L25
 508              		.loc 6 108 0
 509 00c6 0E49     		ldr	r1, .L26+36
 510 00c8 0220     		movs	r0, #2
 511 00ca FFF7FEFF 		bl	_test_assert_sequence
 512 00ce 0346     		mov	r3, r0
ARM GAS  /tmp/ccaMab5i.s 			page 10


 513 00d0 002B     		cmp	r3, #0
 514 00d2 00E0     		b	.L22
 515              	.L25:
 516              		.loc 6 107 0
 517 00d4 00BF     		nop
 518              	.L22:
 519              		.loc 6 109 0
 520 00d6 05B0     		add	sp, sp, #20
 521              		.cfi_def_cfa_offset 4
 522              		@ sp needed
 523 00d8 5DF804FB 		ldr	pc, [sp], #4
 524              	.L27:
 525              		.align	2
 526              	.L26:
 527 00dc 00000000 		.word	m1
 528 00e0 00000000 		.word	wa
 529 00e4 00000000 		.word	.LC0
 530 00e8 00000000 		.word	thread1
 531 00ec 00000000 		.word	threads
 532 00f0 04000000 		.word	.LC1
 533 00f4 08000000 		.word	.LC2
 534 00f8 0C000000 		.word	.LC3
 535 00fc 10000000 		.word	.LC4
 536 0100 14000000 		.word	.LC5
 537              		.cfi_endproc
 538              	.LFE233:
 539              		.size	mtx1_execute, .-mtx1_execute
 540              		.global	testmtx1
 541              		.section	.rodata
 542 001a 0000     		.align	2
 543              	.LC6:
 544 001c 4D757465 		.ascii	"Mutexes, priority enqueuing test\000"
 544      7865732C 
 544      20707269 
 544      6F726974 
 544      7920656E 
 545              		.section	.rodata.testmtx1,"a",%progbits
 546              		.align	2
 547              		.type	testmtx1, %object
 548              		.size	testmtx1, 16
 549              	testmtx1:
 550 0000 1C000000 		.word	.LC6
 551 0004 00000000 		.word	mtx1_setup
 552 0008 00000000 		.word	0
 553 000c 00000000 		.word	mtx1_execute
 554              		.section	.text.mtx4_setup,"ax",%progbits
 555              		.align	1
 556              		.p2align 4,,15
 557              		.syntax unified
 558              		.thumb
 559              		.thumb_func
 560              		.fpu fpv4-sp-d16
 561              		.type	mtx4_setup, %function
 562              	mtx4_setup:
 563              	.LFB234:
 564              		.loc 6 332 0
 565              		.cfi_startproc
ARM GAS  /tmp/ccaMab5i.s 			page 11


 566              		@ args = 0, pretend = 0, frame = 0
 567              		@ frame_needed = 0, uses_anonymous_args = 0
 568 0000 08B5     		push	{r3, lr}
 569              		.cfi_def_cfa_offset 8
 570              		.cfi_offset 3, -8
 571              		.cfi_offset 14, -4
 572              		.loc 6 334 0
 573 0002 0448     		ldr	r0, .L29
 574 0004 FFF7FEFF 		bl	chMtxObjectInit
 575              		.loc 6 335 0
 576 0008 0348     		ldr	r0, .L29+4
 577 000a FFF7FEFF 		bl	chMtxObjectInit
 578              		.loc 6 336 0
 579 000e 00BF     		nop
 580 0010 08BD     		pop	{r3, pc}
 581              	.L30:
 582 0012 00BF     		.align	2
 583              	.L29:
 584 0014 00000000 		.word	m1
 585 0018 00000000 		.word	m2
 586              		.cfi_endproc
 587              	.LFE234:
 588              		.size	mtx4_setup, .-mtx4_setup
 589              		.section	.text.thread4a,"ax",%progbits
 590              		.align	1
 591              		.p2align 4,,15
 592              		.syntax unified
 593              		.thumb
 594              		.thumb_func
 595              		.fpu fpv4-sp-d16
 596              		.type	thread4a, %function
 597              	thread4a:
 598              	.LFB235:
 599              		.loc 6 338 0
 600              		.cfi_startproc
 601              		@ args = 0, pretend = 0, frame = 8
 602              		@ frame_needed = 0, uses_anonymous_args = 0
 603 0000 00B5     		push	{lr}
 604              		.cfi_def_cfa_offset 4
 605              		.cfi_offset 14, -4
 606 0002 83B0     		sub	sp, sp, #12
 607              		.cfi_def_cfa_offset 16
 608 0004 0190     		str	r0, [sp, #4]
 609              		.loc 6 341 0
 610 0006 4FF4FA70 		mov	r0, #500
 611 000a FFF7FEFF 		bl	chThdSleep
 612              		.loc 6 342 0
 613 000e 0548     		ldr	r0, .L32
 614 0010 FFF7FEFF 		bl	chMtxLock
 615              		.loc 6 343 0
 616 0014 0348     		ldr	r0, .L32
 617 0016 FFF7FEFF 		bl	chMtxUnlock
 618              		.loc 6 344 0
 619 001a 00BF     		nop
 620 001c 03B0     		add	sp, sp, #12
 621              		.cfi_def_cfa_offset 4
 622              		@ sp needed
ARM GAS  /tmp/ccaMab5i.s 			page 12


 623 001e 5DF804FB 		ldr	pc, [sp], #4
 624              	.L33:
 625 0022 00BF     		.align	2
 626              	.L32:
 627 0024 00000000 		.word	m2
 628              		.cfi_endproc
 629              	.LFE235:
 630              		.size	thread4a, .-thread4a
 631              		.section	.text.thread4b,"ax",%progbits
 632              		.align	1
 633              		.p2align 4,,15
 634              		.syntax unified
 635              		.thumb
 636              		.thumb_func
 637              		.fpu fpv4-sp-d16
 638              		.type	thread4b, %function
 639              	thread4b:
 640              	.LFB236:
 641              		.loc 6 346 0
 642              		.cfi_startproc
 643              		@ args = 0, pretend = 0, frame = 8
 644              		@ frame_needed = 0, uses_anonymous_args = 0
 645 0000 00B5     		push	{lr}
 646              		.cfi_def_cfa_offset 4
 647              		.cfi_offset 14, -4
 648 0002 83B0     		sub	sp, sp, #12
 649              		.cfi_def_cfa_offset 16
 650 0004 0190     		str	r0, [sp, #4]
 651              		.loc 6 349 0
 652 0006 40F2DC50 		movw	r0, #1500
 653 000a FFF7FEFF 		bl	chThdSleep
 654              		.loc 6 350 0
 655 000e 0548     		ldr	r0, .L35
 656 0010 FFF7FEFF 		bl	chMtxLock
 657              		.loc 6 351 0
 658 0014 0348     		ldr	r0, .L35
 659 0016 FFF7FEFF 		bl	chMtxUnlock
 660              		.loc 6 352 0
 661 001a 00BF     		nop
 662 001c 03B0     		add	sp, sp, #12
 663              		.cfi_def_cfa_offset 4
 664              		@ sp needed
 665 001e 5DF804FB 		ldr	pc, [sp], #4
 666              	.L36:
 667 0022 00BF     		.align	2
 668              	.L35:
 669 0024 00000000 		.word	m1
 670              		.cfi_endproc
 671              	.LFE236:
 672              		.size	thread4b, .-thread4b
 673              		.section	.text.mtx4_execute,"ax",%progbits
 674              		.align	1
 675              		.p2align 4,,15
 676              		.syntax unified
 677              		.thumb
 678              		.thumb_func
 679              		.fpu fpv4-sp-d16
ARM GAS  /tmp/ccaMab5i.s 			page 13


 680              		.type	mtx4_execute, %function
 681              	mtx4_execute:
 682              	.LFB237:
 683              		.loc 6 354 0
 684              		.cfi_startproc
 685              		@ args = 0, pretend = 0, frame = 16
 686              		@ frame_needed = 0, uses_anonymous_args = 0
 687 0000 00B5     		push	{lr}
 688              		.cfi_def_cfa_offset 4
 689              		.cfi_offset 14, -4
 690 0002 87B0     		sub	sp, sp, #28
 691              		.cfi_def_cfa_offset 32
 692              		.loc 6 357 0
 693 0004 FFF7FEFF 		bl	chThdGetPriorityX
 694 0008 0590     		str	r0, [sp, #20]
 695              		.loc 6 358 0
 696 000a 059B     		ldr	r3, [sp, #20]
 697 000c 0133     		adds	r3, r3, #1
 698 000e 0493     		str	r3, [sp, #16]
 699              		.loc 6 359 0
 700 0010 059B     		ldr	r3, [sp, #20]
 701 0012 0233     		adds	r3, r3, #2
 702 0014 0393     		str	r3, [sp, #12]
 703              		.loc 6 360 0
 704 0016 B94B     		ldr	r3, .L67
 705 0018 1868     		ldr	r0, [r3]
 706 001a B94B     		ldr	r3, .L67+4
 707 001c 0093     		str	r3, [sp]
 708 001e B94B     		ldr	r3, .L67+8
 709 0020 049A     		ldr	r2, [sp, #16]
 710 0022 4FF4F871 		mov	r1, #496
 711 0026 FFF7FEFF 		bl	chThdCreateStatic
 712 002a 0246     		mov	r2, r0
 713 002c B64B     		ldr	r3, .L67+12
 714 002e 1A60     		str	r2, [r3]
 715              		.loc 6 361 0
 716 0030 B24B     		ldr	r3, .L67
 717 0032 5868     		ldr	r0, [r3, #4]
 718 0034 B54B     		ldr	r3, .L67+16
 719 0036 0093     		str	r3, [sp]
 720 0038 B54B     		ldr	r3, .L67+20
 721 003a 039A     		ldr	r2, [sp, #12]
 722 003c 4FF4F871 		mov	r1, #496
 723 0040 FFF7FEFF 		bl	chThdCreateStatic
 724 0044 0246     		mov	r2, r0
 725 0046 B04B     		ldr	r3, .L67+12
 726 0048 5A60     		str	r2, [r3, #4]
 727              		.loc 6 362 0
 728 004a B248     		ldr	r0, .L67+24
 729 004c FFF7FEFF 		bl	chMtxLock
 730              		.loc 6 363 0
 731 0050 FFF7FEFF 		bl	chThdGetPriorityX
 732 0054 0246     		mov	r2, r0
 733 0056 059B     		ldr	r3, [sp, #20]
 734 0058 9A42     		cmp	r2, r3
 735 005a 0CBF     		ite	eq
 736 005c 0123     		moveq	r3, #1
ARM GAS  /tmp/ccaMab5i.s 			page 14


 737 005e 0023     		movne	r3, #0
 738 0060 DBB2     		uxtb	r3, r3
 739 0062 1946     		mov	r1, r3
 740 0064 0120     		movs	r0, #1
 741 0066 FFF7FEFF 		bl	_test_assert
 742 006a 0346     		mov	r3, r0
 743 006c 002B     		cmp	r3, #0
 744 006e 40F02781 		bne	.L53
 745              		.loc 6 364 0
 746 0072 4FF47A70 		mov	r0, #1000
 747 0076 FFF7FEFF 		bl	chThdSleep
 748              		.loc 6 365 0
 749 007a FFF7FEFF 		bl	chThdGetPriorityX
 750 007e 0246     		mov	r2, r0
 751 0080 049B     		ldr	r3, [sp, #16]
 752 0082 9A42     		cmp	r2, r3
 753 0084 0CBF     		ite	eq
 754 0086 0123     		moveq	r3, #1
 755 0088 0023     		movne	r3, #0
 756 008a DBB2     		uxtb	r3, r3
 757 008c 1946     		mov	r1, r3
 758 008e 0220     		movs	r0, #2
 759 0090 FFF7FEFF 		bl	_test_assert
 760 0094 0346     		mov	r3, r0
 761 0096 002B     		cmp	r3, #0
 762 0098 40F01481 		bne	.L54
 763              		.loc 6 366 0
 764 009c 9E48     		ldr	r0, .L67+28
 765 009e FFF7FEFF 		bl	chMtxLock
 766              		.loc 6 367 0
 767 00a2 FFF7FEFF 		bl	chThdGetPriorityX
 768 00a6 0246     		mov	r2, r0
 769 00a8 049B     		ldr	r3, [sp, #16]
 770 00aa 9A42     		cmp	r2, r3
 771 00ac 0CBF     		ite	eq
 772 00ae 0123     		moveq	r3, #1
 773 00b0 0023     		movne	r3, #0
 774 00b2 DBB2     		uxtb	r3, r3
 775 00b4 1946     		mov	r1, r3
 776 00b6 0320     		movs	r0, #3
 777 00b8 FFF7FEFF 		bl	_test_assert
 778 00bc 0346     		mov	r3, r0
 779 00be 002B     		cmp	r3, #0
 780 00c0 40F00281 		bne	.L55
 781              		.loc 6 368 0
 782 00c4 4FF47A70 		mov	r0, #1000
 783 00c8 FFF7FEFF 		bl	chThdSleep
 784              		.loc 6 369 0
 785 00cc FFF7FEFF 		bl	chThdGetPriorityX
 786 00d0 0246     		mov	r2, r0
 787 00d2 039B     		ldr	r3, [sp, #12]
 788 00d4 9A42     		cmp	r2, r3
 789 00d6 0CBF     		ite	eq
 790 00d8 0123     		moveq	r3, #1
 791 00da 0023     		movne	r3, #0
 792 00dc DBB2     		uxtb	r3, r3
 793 00de 1946     		mov	r1, r3
ARM GAS  /tmp/ccaMab5i.s 			page 15


 794 00e0 0420     		movs	r0, #4
 795 00e2 FFF7FEFF 		bl	_test_assert
 796 00e6 0346     		mov	r3, r0
 797 00e8 002B     		cmp	r3, #0
 798 00ea 40F0EF80 		bne	.L56
 799              		.loc 6 370 0
 800 00ee 8A48     		ldr	r0, .L67+28
 801 00f0 FFF7FEFF 		bl	chMtxUnlock
 802              		.loc 6 371 0
 803 00f4 FFF7FEFF 		bl	chThdGetPriorityX
 804 00f8 0246     		mov	r2, r0
 805 00fa 049B     		ldr	r3, [sp, #16]
 806 00fc 9A42     		cmp	r2, r3
 807 00fe 0CBF     		ite	eq
 808 0100 0123     		moveq	r3, #1
 809 0102 0023     		movne	r3, #0
 810 0104 DBB2     		uxtb	r3, r3
 811 0106 1946     		mov	r1, r3
 812 0108 0520     		movs	r0, #5
 813 010a FFF7FEFF 		bl	_test_assert
 814 010e 0346     		mov	r3, r0
 815 0110 002B     		cmp	r3, #0
 816 0112 40F0DD80 		bne	.L57
 817              		.loc 6 372 0
 818 0116 4FF47A70 		mov	r0, #1000
 819 011a FFF7FEFF 		bl	chThdSleep
 820              		.loc 6 373 0
 821 011e FFF7FEFF 		bl	chThdGetPriorityX
 822 0122 0246     		mov	r2, r0
 823 0124 049B     		ldr	r3, [sp, #16]
 824 0126 9A42     		cmp	r2, r3
 825 0128 0CBF     		ite	eq
 826 012a 0123     		moveq	r3, #1
 827 012c 0023     		movne	r3, #0
 828 012e DBB2     		uxtb	r3, r3
 829 0130 1946     		mov	r1, r3
 830 0132 0620     		movs	r0, #6
 831 0134 FFF7FEFF 		bl	_test_assert
 832 0138 0346     		mov	r3, r0
 833 013a 002B     		cmp	r3, #0
 834 013c 40F0CA80 		bne	.L58
 835              		.loc 6 374 0
 836 0140 FFF7FEFF 		bl	chMtxUnlockAll
 837              		.loc 6 375 0
 838 0144 FFF7FEFF 		bl	chThdGetPriorityX
 839 0148 0246     		mov	r2, r0
 840 014a 059B     		ldr	r3, [sp, #20]
 841 014c 9A42     		cmp	r2, r3
 842 014e 0CBF     		ite	eq
 843 0150 0123     		moveq	r3, #1
 844 0152 0023     		movne	r3, #0
 845 0154 DBB2     		uxtb	r3, r3
 846 0156 1946     		mov	r1, r3
 847 0158 0720     		movs	r0, #7
 848 015a FFF7FEFF 		bl	_test_assert
 849 015e 0346     		mov	r3, r0
 850 0160 002B     		cmp	r3, #0
ARM GAS  /tmp/ccaMab5i.s 			page 16


 851 0162 40F0B980 		bne	.L59
 852              		.loc 6 376 0
 853 0166 FFF7FEFF 		bl	test_wait_threads
 854              		.loc 6 379 0
 855 016a 644B     		ldr	r3, .L67
 856 016c 1868     		ldr	r0, [r3]
 857 016e 6B4B     		ldr	r3, .L67+32
 858 0170 0093     		str	r3, [sp]
 859 0172 644B     		ldr	r3, .L67+8
 860 0174 049A     		ldr	r2, [sp, #16]
 861 0176 4FF4F871 		mov	r1, #496
 862 017a FFF7FEFF 		bl	chThdCreateStatic
 863 017e 0246     		mov	r2, r0
 864 0180 614B     		ldr	r3, .L67+12
 865 0182 1A60     		str	r2, [r3]
 866              		.loc 6 380 0
 867 0184 5D4B     		ldr	r3, .L67
 868 0186 5868     		ldr	r0, [r3, #4]
 869 0188 654B     		ldr	r3, .L67+36
 870 018a 0093     		str	r3, [sp]
 871 018c 604B     		ldr	r3, .L67+20
 872 018e 039A     		ldr	r2, [sp, #12]
 873 0190 4FF4F871 		mov	r1, #496
 874 0194 FFF7FEFF 		bl	chThdCreateStatic
 875 0198 0246     		mov	r2, r0
 876 019a 5B4B     		ldr	r3, .L67+12
 877 019c 5A60     		str	r2, [r3, #4]
 878              		.loc 6 381 0
 879 019e 5D48     		ldr	r0, .L67+24
 880 01a0 FFF7FEFF 		bl	chMtxLock
 881              		.loc 6 382 0
 882 01a4 FFF7FEFF 		bl	chThdGetPriorityX
 883 01a8 0246     		mov	r2, r0
 884 01aa 059B     		ldr	r3, [sp, #20]
 885 01ac 9A42     		cmp	r2, r3
 886 01ae 0CBF     		ite	eq
 887 01b0 0123     		moveq	r3, #1
 888 01b2 0023     		movne	r3, #0
 889 01b4 DBB2     		uxtb	r3, r3
 890 01b6 1946     		mov	r1, r3
 891 01b8 0820     		movs	r0, #8
 892 01ba FFF7FEFF 		bl	_test_assert
 893 01be 0346     		mov	r3, r0
 894 01c0 002B     		cmp	r3, #0
 895 01c2 40F08B80 		bne	.L60
 896              		.loc 6 383 0
 897 01c6 4FF47A70 		mov	r0, #1000
 898 01ca FFF7FEFF 		bl	chThdSleep
 899              		.loc 6 384 0
 900 01ce FFF7FEFF 		bl	chThdGetPriorityX
 901 01d2 0246     		mov	r2, r0
 902 01d4 049B     		ldr	r3, [sp, #16]
 903 01d6 9A42     		cmp	r2, r3
 904 01d8 0CBF     		ite	eq
 905 01da 0123     		moveq	r3, #1
 906 01dc 0023     		movne	r3, #0
 907 01de DBB2     		uxtb	r3, r3
ARM GAS  /tmp/ccaMab5i.s 			page 17


 908 01e0 1946     		mov	r1, r3
 909 01e2 0920     		movs	r0, #9
 910 01e4 FFF7FEFF 		bl	_test_assert
 911 01e8 0346     		mov	r3, r0
 912 01ea 002B     		cmp	r3, #0
 913 01ec 78D1     		bne	.L61
 914              		.loc 6 385 0
 915 01ee 4A48     		ldr	r0, .L67+28
 916 01f0 FFF7FEFF 		bl	chMtxLock
 917              		.loc 6 386 0
 918 01f4 FFF7FEFF 		bl	chThdGetPriorityX
 919 01f8 0246     		mov	r2, r0
 920 01fa 049B     		ldr	r3, [sp, #16]
 921 01fc 9A42     		cmp	r2, r3
 922 01fe 0CBF     		ite	eq
 923 0200 0123     		moveq	r3, #1
 924 0202 0023     		movne	r3, #0
 925 0204 DBB2     		uxtb	r3, r3
 926 0206 1946     		mov	r1, r3
 927 0208 0A20     		movs	r0, #10
 928 020a FFF7FEFF 		bl	_test_assert
 929 020e 0346     		mov	r3, r0
 930 0210 002B     		cmp	r3, #0
 931 0212 67D1     		bne	.L62
 932              		.loc 6 387 0
 933 0214 4FF47A70 		mov	r0, #1000
 934 0218 FFF7FEFF 		bl	chThdSleep
 935              		.loc 6 388 0
 936 021c FFF7FEFF 		bl	chThdGetPriorityX
 937 0220 0246     		mov	r2, r0
 938 0222 039B     		ldr	r3, [sp, #12]
 939 0224 9A42     		cmp	r2, r3
 940 0226 0CBF     		ite	eq
 941 0228 0123     		moveq	r3, #1
 942 022a 0023     		movne	r3, #0
 943 022c DBB2     		uxtb	r3, r3
 944 022e 1946     		mov	r1, r3
 945 0230 0B20     		movs	r0, #11
 946 0232 FFF7FEFF 		bl	_test_assert
 947 0236 0346     		mov	r3, r0
 948 0238 002B     		cmp	r3, #0
 949 023a 55D1     		bne	.L63
 950              		.loc 6 389 0
 951 023c FFF7FEFF 		bl	chSysLock
 952              		.loc 6 390 0
 953 0240 3548     		ldr	r0, .L67+28
 954 0242 FFF7FEFF 		bl	chMtxUnlockS
 955              		.loc 6 391 0
 956 0246 FFF7FEFF 		bl	chSchRescheduleS
 957              		.loc 6 392 0
 958 024a FFF7FEFF 		bl	chSysUnlock
 959              		.loc 6 393 0
 960 024e FFF7FEFF 		bl	chThdGetPriorityX
 961 0252 0246     		mov	r2, r0
 962 0254 049B     		ldr	r3, [sp, #16]
 963 0256 9A42     		cmp	r2, r3
 964 0258 0CBF     		ite	eq
ARM GAS  /tmp/ccaMab5i.s 			page 18


 965 025a 0123     		moveq	r3, #1
 966 025c 0023     		movne	r3, #0
 967 025e DBB2     		uxtb	r3, r3
 968 0260 1946     		mov	r1, r3
 969 0262 0C20     		movs	r0, #12
 970 0264 FFF7FEFF 		bl	_test_assert
 971 0268 0346     		mov	r3, r0
 972 026a 002B     		cmp	r3, #0
 973 026c 3ED1     		bne	.L64
 974              		.loc 6 394 0
 975 026e 4FF47A70 		mov	r0, #1000
 976 0272 FFF7FEFF 		bl	chThdSleep
 977              		.loc 6 395 0
 978 0276 FFF7FEFF 		bl	chThdGetPriorityX
 979 027a 0246     		mov	r2, r0
 980 027c 049B     		ldr	r3, [sp, #16]
 981 027e 9A42     		cmp	r2, r3
 982 0280 0CBF     		ite	eq
 983 0282 0123     		moveq	r3, #1
 984 0284 0023     		movne	r3, #0
 985 0286 DBB2     		uxtb	r3, r3
 986 0288 1946     		mov	r1, r3
 987 028a 0D20     		movs	r0, #13
 988 028c FFF7FEFF 		bl	_test_assert
 989 0290 0346     		mov	r3, r0
 990 0292 002B     		cmp	r3, #0
 991 0294 2CD1     		bne	.L65
 992              		.loc 6 396 0
 993 0296 FFF7FEFF 		bl	chMtxUnlockAll
 994              		.loc 6 397 0
 995 029a FFF7FEFF 		bl	chThdGetPriorityX
 996 029e 0246     		mov	r2, r0
 997 02a0 059B     		ldr	r3, [sp, #20]
 998 02a2 9A42     		cmp	r2, r3
 999 02a4 0CBF     		ite	eq
 1000 02a6 0123     		moveq	r3, #1
 1001 02a8 0023     		movne	r3, #0
 1002 02aa DBB2     		uxtb	r3, r3
 1003 02ac 1946     		mov	r1, r3
 1004 02ae 0E20     		movs	r0, #14
 1005 02b0 FFF7FEFF 		bl	_test_assert
 1006 02b4 0346     		mov	r3, r0
 1007 02b6 002B     		cmp	r3, #0
 1008 02b8 1CD1     		bne	.L66
 1009              		.loc 6 398 0
 1010 02ba FFF7FEFF 		bl	test_wait_threads
 1011 02be 1AE0     		b	.L37
 1012              	.L53:
 1013              		.loc 6 363 0
 1014 02c0 00BF     		nop
 1015 02c2 18E0     		b	.L37
 1016              	.L54:
 1017              		.loc 6 365 0
 1018 02c4 00BF     		nop
 1019 02c6 16E0     		b	.L37
 1020              	.L55:
 1021              		.loc 6 367 0
ARM GAS  /tmp/ccaMab5i.s 			page 19


 1022 02c8 00BF     		nop
 1023 02ca 14E0     		b	.L37
 1024              	.L56:
 1025              		.loc 6 369 0
 1026 02cc 00BF     		nop
 1027 02ce 12E0     		b	.L37
 1028              	.L57:
 1029              		.loc 6 371 0
 1030 02d0 00BF     		nop
 1031 02d2 10E0     		b	.L37
 1032              	.L58:
 1033              		.loc 6 373 0
 1034 02d4 00BF     		nop
 1035 02d6 0EE0     		b	.L37
 1036              	.L59:
 1037              		.loc 6 375 0
 1038 02d8 00BF     		nop
 1039 02da 0CE0     		b	.L37
 1040              	.L60:
 1041              		.loc 6 382 0
 1042 02dc 00BF     		nop
 1043 02de 0AE0     		b	.L37
 1044              	.L61:
 1045              		.loc 6 384 0
 1046 02e0 00BF     		nop
 1047 02e2 08E0     		b	.L37
 1048              	.L62:
 1049              		.loc 6 386 0
 1050 02e4 00BF     		nop
 1051 02e6 06E0     		b	.L37
 1052              	.L63:
 1053              		.loc 6 388 0
 1054 02e8 00BF     		nop
 1055 02ea 04E0     		b	.L37
 1056              	.L64:
 1057              		.loc 6 393 0
 1058 02ec 00BF     		nop
 1059 02ee 02E0     		b	.L37
 1060              	.L65:
 1061              		.loc 6 395 0
 1062 02f0 00BF     		nop
 1063 02f2 00E0     		b	.L37
 1064              	.L66:
 1065              		.loc 6 397 0
 1066 02f4 00BF     		nop
 1067              	.L37:
 1068              		.loc 6 399 0
 1069 02f6 07B0     		add	sp, sp, #28
 1070              		.cfi_def_cfa_offset 4
 1071              		@ sp needed
 1072 02f8 5DF804FB 		ldr	pc, [sp], #4
 1073              	.L68:
 1074              		.align	2
 1075              	.L67:
 1076 02fc 00000000 		.word	wa
 1077 0300 0C000000 		.word	.LC3
 1078 0304 00000000 		.word	thread4a
ARM GAS  /tmp/ccaMab5i.s 			page 20


 1079 0308 00000000 		.word	threads
 1080 030c 10000000 		.word	.LC4
 1081 0310 00000000 		.word	thread4b
 1082 0314 00000000 		.word	m2
 1083 0318 00000000 		.word	m1
 1084 031c 04000000 		.word	.LC1
 1085 0320 08000000 		.word	.LC2
 1086              		.cfi_endproc
 1087              	.LFE237:
 1088              		.size	mtx4_execute, .-mtx4_execute
 1089              		.global	testmtx4
 1090              		.section	.rodata
 1091 003d 000000   		.align	2
 1092              	.LC7:
 1093 0040 4D757465 		.ascii	"Mutexes, priority return\000"
 1093      7865732C 
 1093      20707269 
 1093      6F726974 
 1093      79207265 
 1094              		.section	.rodata.testmtx4,"a",%progbits
 1095              		.align	2
 1096              		.type	testmtx4, %object
 1097              		.size	testmtx4, 16
 1098              	testmtx4:
 1099 0000 40000000 		.word	.LC7
 1100 0004 00000000 		.word	mtx4_setup
 1101 0008 00000000 		.word	0
 1102 000c 00000000 		.word	mtx4_execute
 1103              		.section	.text.mtx5_setup,"ax",%progbits
 1104              		.align	1
 1105              		.p2align 4,,15
 1106              		.syntax unified
 1107              		.thumb
 1108              		.thumb_func
 1109              		.fpu fpv4-sp-d16
 1110              		.type	mtx5_setup, %function
 1111              	mtx5_setup:
 1112              	.LFB238:
 1113              		.loc 6 418 0
 1114              		.cfi_startproc
 1115              		@ args = 0, pretend = 0, frame = 0
 1116              		@ frame_needed = 0, uses_anonymous_args = 0
 1117 0000 08B5     		push	{r3, lr}
 1118              		.cfi_def_cfa_offset 8
 1119              		.cfi_offset 3, -8
 1120              		.cfi_offset 14, -4
 1121              		.loc 6 420 0
 1122 0002 0248     		ldr	r0, .L70
 1123 0004 FFF7FEFF 		bl	chMtxObjectInit
 1124              		.loc 6 421 0
 1125 0008 00BF     		nop
 1126 000a 08BD     		pop	{r3, pc}
 1127              	.L71:
 1128              		.align	2
 1129              	.L70:
 1130 000c 00000000 		.word	m1
 1131              		.cfi_endproc
ARM GAS  /tmp/ccaMab5i.s 			page 21


 1132              	.LFE238:
 1133              		.size	mtx5_setup, .-mtx5_setup
 1134              		.section	.text.mtx5_execute,"ax",%progbits
 1135              		.align	1
 1136              		.p2align 4,,15
 1137              		.syntax unified
 1138              		.thumb
 1139              		.thumb_func
 1140              		.fpu fpv4-sp-d16
 1141              		.type	mtx5_execute, %function
 1142              	mtx5_execute:
 1143              	.LFB239:
 1144              		.loc 6 423 0
 1145              		.cfi_startproc
 1146              		@ args = 0, pretend = 0, frame = 8
 1147              		@ frame_needed = 0, uses_anonymous_args = 0
 1148 0000 00B5     		push	{lr}
 1149              		.cfi_def_cfa_offset 4
 1150              		.cfi_offset 14, -4
 1151 0002 83B0     		sub	sp, sp, #12
 1152              		.cfi_def_cfa_offset 16
 1153              		.loc 6 427 0
 1154 0004 FFF7FEFF 		bl	chThdGetPriorityX
 1155 0008 0190     		str	r0, [sp, #4]
 1156              		.loc 6 429 0
 1157 000a 4248     		ldr	r0, .L86
 1158 000c FFF7FEFF 		bl	chMtxTryLock
 1159 0010 0346     		mov	r3, r0
 1160 0012 8DF80330 		strb	r3, [sp, #3]
 1161              		.loc 6 430 0
 1162 0016 9DF80330 		ldrb	r3, [sp, #3]	@ zero_extendqisi2
 1163 001a 1946     		mov	r1, r3
 1164 001c 0120     		movs	r0, #1
 1165 001e FFF7FEFF 		bl	_test_assert
 1166 0022 0346     		mov	r3, r0
 1167 0024 002B     		cmp	r3, #0
 1168 0026 67D1     		bne	.L80
 1169              		.loc 6 432 0
 1170 0028 3A48     		ldr	r0, .L86
 1171 002a FFF7FEFF 		bl	chMtxTryLock
 1172 002e 0346     		mov	r3, r0
 1173 0030 8DF80330 		strb	r3, [sp, #3]
 1174              		.loc 6 433 0
 1175 0034 9DF80330 		ldrb	r3, [sp, #3]	@ zero_extendqisi2
 1176 0038 002B     		cmp	r3, #0
 1177 003a 14BF     		ite	ne
 1178 003c 0123     		movne	r3, #1
 1179 003e 0023     		moveq	r3, #0
 1180 0040 DBB2     		uxtb	r3, r3
 1181 0042 83F00103 		eor	r3, r3, #1
 1182 0046 DBB2     		uxtb	r3, r3
 1183 0048 03F00103 		and	r3, r3, #1
 1184 004c DBB2     		uxtb	r3, r3
 1185 004e 1946     		mov	r1, r3
 1186 0050 0220     		movs	r0, #2
 1187 0052 FFF7FEFF 		bl	_test_assert
 1188 0056 0346     		mov	r3, r0
ARM GAS  /tmp/ccaMab5i.s 			page 22


 1189 0058 002B     		cmp	r3, #0
 1190 005a 4FD1     		bne	.L81
 1191              		.loc 6 435 0
 1192 005c FFF7FEFF 		bl	chSysLock
 1193              		.loc 6 436 0
 1194 0060 2C48     		ldr	r0, .L86
 1195 0062 FFF7FEFF 		bl	chMtxUnlockS
 1196              		.loc 6 437 0
 1197 0066 FFF7FEFF 		bl	chSysUnlock
 1198              		.loc 6 439 0
 1199 006a 2A48     		ldr	r0, .L86
 1200 006c FFF7FEFF 		bl	queue_isempty
 1201 0070 0346     		mov	r3, r0
 1202 0072 1946     		mov	r1, r3
 1203 0074 0320     		movs	r0, #3
 1204 0076 FFF7FEFF 		bl	_test_assert
 1205 007a 0346     		mov	r3, r0
 1206 007c 002B     		cmp	r3, #0
 1207 007e 3FD1     		bne	.L82
 1208              		.loc 6 440 0
 1209 0080 244B     		ldr	r3, .L86
 1210 0082 9B68     		ldr	r3, [r3, #8]
 1211 0084 002B     		cmp	r3, #0
 1212 0086 0CBF     		ite	eq
 1213 0088 0123     		moveq	r3, #1
 1214 008a 0023     		movne	r3, #0
 1215 008c DBB2     		uxtb	r3, r3
 1216 008e 1946     		mov	r1, r3
 1217 0090 0420     		movs	r0, #4
 1218 0092 FFF7FEFF 		bl	_test_assert
 1219 0096 0346     		mov	r3, r0
 1220 0098 002B     		cmp	r3, #0
 1221 009a 33D1     		bne	.L83
 1222              		.loc 6 441 0
 1223 009c FFF7FEFF 		bl	chThdGetPriorityX
 1224 00a0 0246     		mov	r2, r0
 1225 00a2 019B     		ldr	r3, [sp, #4]
 1226 00a4 9A42     		cmp	r2, r3
 1227 00a6 0CBF     		ite	eq
 1228 00a8 0123     		moveq	r3, #1
 1229 00aa 0023     		movne	r3, #0
 1230 00ac DBB2     		uxtb	r3, r3
 1231 00ae 1946     		mov	r1, r3
 1232 00b0 0520     		movs	r0, #5
 1233 00b2 FFF7FEFF 		bl	_test_assert
 1234 00b6 0346     		mov	r3, r0
 1235 00b8 002B     		cmp	r3, #0
 1236 00ba 25D1     		bne	.L84
 1237              		.loc 6 444 0
 1238 00bc 1548     		ldr	r0, .L86
 1239 00be FFF7FEFF 		bl	chMtxLock
 1240              		.loc 6 445 0
 1241 00c2 FFF7FEFF 		bl	chMtxUnlockAll
 1242              		.loc 6 446 0
 1243 00c6 1348     		ldr	r0, .L86
 1244 00c8 FFF7FEFF 		bl	queue_isempty
 1245 00cc 0346     		mov	r3, r0
ARM GAS  /tmp/ccaMab5i.s 			page 23


 1246 00ce 1946     		mov	r1, r3
 1247 00d0 0620     		movs	r0, #6
 1248 00d2 FFF7FEFF 		bl	_test_assert
 1249 00d6 0346     		mov	r3, r0
 1250 00d8 002B     		cmp	r3, #0
 1251 00da 17D1     		bne	.L85
 1252              		.loc 6 447 0
 1253 00dc 0D4B     		ldr	r3, .L86
 1254 00de 9B68     		ldr	r3, [r3, #8]
 1255 00e0 002B     		cmp	r3, #0
 1256 00e2 0CBF     		ite	eq
 1257 00e4 0123     		moveq	r3, #1
 1258 00e6 0023     		movne	r3, #0
 1259 00e8 DBB2     		uxtb	r3, r3
 1260 00ea 1946     		mov	r1, r3
 1261 00ec 0720     		movs	r0, #7
 1262 00ee FFF7FEFF 		bl	_test_assert
 1263 00f2 0346     		mov	r3, r0
 1264 00f4 002B     		cmp	r3, #0
 1265 00f6 0AE0     		b	.L72
 1266              	.L80:
 1267              		.loc 6 430 0
 1268 00f8 00BF     		nop
 1269 00fa 08E0     		b	.L72
 1270              	.L81:
 1271              		.loc 6 433 0
 1272 00fc 00BF     		nop
 1273 00fe 06E0     		b	.L72
 1274              	.L82:
 1275              		.loc 6 439 0
 1276 0100 00BF     		nop
 1277 0102 04E0     		b	.L72
 1278              	.L83:
 1279              		.loc 6 440 0
 1280 0104 00BF     		nop
 1281 0106 02E0     		b	.L72
 1282              	.L84:
 1283              		.loc 6 441 0
 1284 0108 00BF     		nop
 1285 010a 00E0     		b	.L72
 1286              	.L85:
 1287              		.loc 6 446 0
 1288 010c 00BF     		nop
 1289              	.L72:
 1290              		.loc 6 448 0
 1291 010e 03B0     		add	sp, sp, #12
 1292              		.cfi_def_cfa_offset 4
 1293              		@ sp needed
 1294 0110 5DF804FB 		ldr	pc, [sp], #4
 1295              	.L87:
 1296              		.align	2
 1297              	.L86:
 1298 0114 00000000 		.word	m1
 1299              		.cfi_endproc
 1300              	.LFE239:
 1301              		.size	mtx5_execute, .-mtx5_execute
 1302              		.global	testmtx5
ARM GAS  /tmp/ccaMab5i.s 			page 24


 1303              		.section	.rodata
 1304 0059 000000   		.align	2
 1305              	.LC8:
 1306 005c 4D757465 		.ascii	"Mutexes, status\000"
 1306      7865732C 
 1306      20737461 
 1306      74757300 
 1307              		.section	.rodata.testmtx5,"a",%progbits
 1308              		.align	2
 1309              		.type	testmtx5, %object
 1310              		.size	testmtx5, 16
 1311              	testmtx5:
 1312 0000 5C000000 		.word	.LC8
 1313 0004 00000000 		.word	mtx5_setup
 1314 0008 00000000 		.word	0
 1315 000c 00000000 		.word	mtx5_execute
 1316              		.section	.text.mtx6_setup,"ax",%progbits
 1317              		.align	1
 1318              		.p2align 4,,15
 1319              		.syntax unified
 1320              		.thumb
 1321              		.thumb_func
 1322              		.fpu fpv4-sp-d16
 1323              		.type	mtx6_setup, %function
 1324              	mtx6_setup:
 1325              	.LFB240:
 1326              		.loc 6 469 0
 1327              		.cfi_startproc
 1328              		@ args = 0, pretend = 0, frame = 0
 1329              		@ frame_needed = 0, uses_anonymous_args = 0
 1330 0000 08B5     		push	{r3, lr}
 1331              		.cfi_def_cfa_offset 8
 1332              		.cfi_offset 3, -8
 1333              		.cfi_offset 14, -4
 1334              		.loc 6 471 0
 1335 0002 0448     		ldr	r0, .L89
 1336 0004 FFF7FEFF 		bl	chCondObjectInit
 1337              		.loc 6 472 0
 1338 0008 0348     		ldr	r0, .L89+4
 1339 000a FFF7FEFF 		bl	chMtxObjectInit
 1340              		.loc 6 473 0
 1341 000e 00BF     		nop
 1342 0010 08BD     		pop	{r3, pc}
 1343              	.L90:
 1344 0012 00BF     		.align	2
 1345              	.L89:
 1346 0014 00000000 		.word	c1
 1347 0018 00000000 		.word	m1
 1348              		.cfi_endproc
 1349              	.LFE240:
 1350              		.size	mtx6_setup, .-mtx6_setup
 1351              		.section	.text.thread10,"ax",%progbits
 1352              		.align	1
 1353              		.p2align 4,,15
 1354              		.syntax unified
 1355              		.thumb
 1356              		.thumb_func
ARM GAS  /tmp/ccaMab5i.s 			page 25


 1357              		.fpu fpv4-sp-d16
 1358              		.type	thread10, %function
 1359              	thread10:
 1360              	.LFB241:
 1361              		.loc 6 475 0
 1362              		.cfi_startproc
 1363              		@ args = 0, pretend = 0, frame = 8
 1364              		@ frame_needed = 0, uses_anonymous_args = 0
 1365 0000 00B5     		push	{lr}
 1366              		.cfi_def_cfa_offset 4
 1367              		.cfi_offset 14, -4
 1368 0002 83B0     		sub	sp, sp, #12
 1369              		.cfi_def_cfa_offset 16
 1370 0004 0190     		str	r0, [sp, #4]
 1371              		.loc 6 477 0
 1372 0006 0948     		ldr	r0, .L92
 1373 0008 FFF7FEFF 		bl	chMtxLock
 1374              		.loc 6 478 0
 1375 000c 0848     		ldr	r0, .L92+4
 1376 000e FFF7FEFF 		bl	chCondWait
 1377              		.loc 6 479 0
 1378 0012 019B     		ldr	r3, [sp, #4]
 1379 0014 1B78     		ldrb	r3, [r3]	@ zero_extendqisi2
 1380 0016 1846     		mov	r0, r3
 1381 0018 FFF7FEFF 		bl	test_emit_token
 1382              		.loc 6 480 0
 1383 001c 0348     		ldr	r0, .L92
 1384 001e FFF7FEFF 		bl	chMtxUnlock
 1385              		.loc 6 481 0
 1386 0022 00BF     		nop
 1387 0024 03B0     		add	sp, sp, #12
 1388              		.cfi_def_cfa_offset 4
 1389              		@ sp needed
 1390 0026 5DF804FB 		ldr	pc, [sp], #4
 1391              	.L93:
 1392 002a 00BF     		.align	2
 1393              	.L92:
 1394 002c 00000000 		.word	m1
 1395 0030 00000000 		.word	c1
 1396              		.cfi_endproc
 1397              	.LFE241:
 1398              		.size	thread10, .-thread10
 1399              		.section	.text.mtx6_execute,"ax",%progbits
 1400              		.align	1
 1401              		.p2align 4,,15
 1402              		.syntax unified
 1403              		.thumb
 1404              		.thumb_func
 1405              		.fpu fpv4-sp-d16
 1406              		.type	mtx6_execute, %function
 1407              	mtx6_execute:
 1408              	.LFB242:
 1409              		.loc 6 483 0
 1410              		.cfi_startproc
 1411              		@ args = 0, pretend = 0, frame = 8
 1412              		@ frame_needed = 0, uses_anonymous_args = 0
 1413 0000 00B5     		push	{lr}
ARM GAS  /tmp/ccaMab5i.s 			page 26


 1414              		.cfi_def_cfa_offset 4
 1415              		.cfi_offset 14, -4
 1416 0002 85B0     		sub	sp, sp, #20
 1417              		.cfi_def_cfa_offset 24
 1418              		.loc 6 485 0
 1419 0004 FFF7FEFF 		bl	chThdGetPriorityX
 1420 0008 0390     		str	r0, [sp, #12]
 1421              		.loc 6 486 0
 1422 000a 334B     		ldr	r3, .L96
 1423 000c 1868     		ldr	r0, [r3]
 1424 000e 039B     		ldr	r3, [sp, #12]
 1425 0010 5A1C     		adds	r2, r3, #1
 1426 0012 324B     		ldr	r3, .L96+4
 1427 0014 0093     		str	r3, [sp]
 1428 0016 324B     		ldr	r3, .L96+8
 1429 0018 4FF4F871 		mov	r1, #496
 1430 001c FFF7FEFF 		bl	chThdCreateStatic
 1431 0020 0246     		mov	r2, r0
 1432 0022 304B     		ldr	r3, .L96+12
 1433 0024 1A60     		str	r2, [r3]
 1434              		.loc 6 487 0
 1435 0026 2C4B     		ldr	r3, .L96
 1436 0028 5868     		ldr	r0, [r3, #4]
 1437 002a 039B     		ldr	r3, [sp, #12]
 1438 002c 9A1C     		adds	r2, r3, #2
 1439 002e 2E4B     		ldr	r3, .L96+16
 1440 0030 0093     		str	r3, [sp]
 1441 0032 2B4B     		ldr	r3, .L96+8
 1442 0034 4FF4F871 		mov	r1, #496
 1443 0038 FFF7FEFF 		bl	chThdCreateStatic
 1444 003c 0246     		mov	r2, r0
 1445 003e 294B     		ldr	r3, .L96+12
 1446 0040 5A60     		str	r2, [r3, #4]
 1447              		.loc 6 488 0
 1448 0042 254B     		ldr	r3, .L96
 1449 0044 9868     		ldr	r0, [r3, #8]
 1450 0046 039B     		ldr	r3, [sp, #12]
 1451 0048 DA1C     		adds	r2, r3, #3
 1452 004a 284B     		ldr	r3, .L96+20
 1453 004c 0093     		str	r3, [sp]
 1454 004e 244B     		ldr	r3, .L96+8
 1455 0050 4FF4F871 		mov	r1, #496
 1456 0054 FFF7FEFF 		bl	chThdCreateStatic
 1457 0058 0246     		mov	r2, r0
 1458 005a 224B     		ldr	r3, .L96+12
 1459 005c 9A60     		str	r2, [r3, #8]
 1460              		.loc 6 489 0
 1461 005e 1E4B     		ldr	r3, .L96
 1462 0060 D868     		ldr	r0, [r3, #12]
 1463 0062 039B     		ldr	r3, [sp, #12]
 1464 0064 1A1D     		adds	r2, r3, #4
 1465 0066 224B     		ldr	r3, .L96+24
 1466 0068 0093     		str	r3, [sp]
 1467 006a 1D4B     		ldr	r3, .L96+8
 1468 006c 4FF4F871 		mov	r1, #496
 1469 0070 FFF7FEFF 		bl	chThdCreateStatic
 1470 0074 0246     		mov	r2, r0
ARM GAS  /tmp/ccaMab5i.s 			page 27


 1471 0076 1B4B     		ldr	r3, .L96+12
 1472 0078 DA60     		str	r2, [r3, #12]
 1473              		.loc 6 490 0
 1474 007a 174B     		ldr	r3, .L96
 1475 007c 1869     		ldr	r0, [r3, #16]
 1476 007e 039B     		ldr	r3, [sp, #12]
 1477 0080 5A1D     		adds	r2, r3, #5
 1478 0082 1C4B     		ldr	r3, .L96+28
 1479 0084 0093     		str	r3, [sp]
 1480 0086 164B     		ldr	r3, .L96+8
 1481 0088 4FF4F871 		mov	r1, #496
 1482 008c FFF7FEFF 		bl	chThdCreateStatic
 1483 0090 0246     		mov	r2, r0
 1484 0092 144B     		ldr	r3, .L96+12
 1485 0094 1A61     		str	r2, [r3, #16]
 1486              		.loc 6 491 0
 1487 0096 FFF7FEFF 		bl	chSysLock
 1488              		.loc 6 492 0
 1489 009a 1748     		ldr	r0, .L96+32
 1490 009c FFF7FEFF 		bl	chCondSignalI
 1491              		.loc 6 493 0
 1492 00a0 1548     		ldr	r0, .L96+32
 1493 00a2 FFF7FEFF 		bl	chCondSignalI
 1494              		.loc 6 494 0
 1495 00a6 1448     		ldr	r0, .L96+32
 1496 00a8 FFF7FEFF 		bl	chCondSignalI
 1497              		.loc 6 495 0
 1498 00ac 1248     		ldr	r0, .L96+32
 1499 00ae FFF7FEFF 		bl	chCondSignalI
 1500              		.loc 6 496 0
 1501 00b2 1148     		ldr	r0, .L96+32
 1502 00b4 FFF7FEFF 		bl	chCondSignalI
 1503              		.loc 6 497 0
 1504 00b8 FFF7FEFF 		bl	chSchRescheduleS
 1505              		.loc 6 498 0
 1506 00bc FFF7FEFF 		bl	chSysUnlock
 1507              		.loc 6 499 0
 1508 00c0 FFF7FEFF 		bl	test_wait_threads
 1509              		.loc 6 500 0
 1510 00c4 0D49     		ldr	r1, .L96+36
 1511 00c6 0120     		movs	r0, #1
 1512 00c8 FFF7FEFF 		bl	_test_assert_sequence
 1513 00cc 0346     		mov	r3, r0
 1514 00ce 002B     		cmp	r3, #0
 1515              		.loc 6 501 0
 1516 00d0 05B0     		add	sp, sp, #20
 1517              		.cfi_def_cfa_offset 4
 1518              		@ sp needed
 1519 00d2 5DF804FB 		ldr	pc, [sp], #4
 1520              	.L97:
 1521 00d6 00BF     		.align	2
 1522              	.L96:
 1523 00d8 00000000 		.word	wa
 1524 00dc 00000000 		.word	.LC0
 1525 00e0 00000000 		.word	thread10
 1526 00e4 00000000 		.word	threads
 1527 00e8 04000000 		.word	.LC1
ARM GAS  /tmp/ccaMab5i.s 			page 28


 1528 00ec 08000000 		.word	.LC2
 1529 00f0 0C000000 		.word	.LC3
 1530 00f4 10000000 		.word	.LC4
 1531 00f8 00000000 		.word	c1
 1532 00fc 14000000 		.word	.LC5
 1533              		.cfi_endproc
 1534              	.LFE242:
 1535              		.size	mtx6_execute, .-mtx6_execute
 1536              		.global	testmtx6
 1537              		.section	.rodata
 1538              		.align	2
 1539              	.LC9:
 1540 006c 436F6E64 		.ascii	"CondVar, signal test\000"
 1540      5661722C 
 1540      20736967 
 1540      6E616C20 
 1540      74657374 
 1541              		.section	.rodata.testmtx6,"a",%progbits
 1542              		.align	2
 1543              		.type	testmtx6, %object
 1544              		.size	testmtx6, 16
 1545              	testmtx6:
 1546 0000 6C000000 		.word	.LC9
 1547 0004 00000000 		.word	mtx6_setup
 1548 0008 00000000 		.word	0
 1549 000c 00000000 		.word	mtx6_execute
 1550              		.section	.text.mtx7_setup,"ax",%progbits
 1551              		.align	1
 1552              		.p2align 4,,15
 1553              		.syntax unified
 1554              		.thumb
 1555              		.thumb_func
 1556              		.fpu fpv4-sp-d16
 1557              		.type	mtx7_setup, %function
 1558              	mtx7_setup:
 1559              	.LFB243:
 1560              		.loc 6 520 0
 1561              		.cfi_startproc
 1562              		@ args = 0, pretend = 0, frame = 0
 1563              		@ frame_needed = 0, uses_anonymous_args = 0
 1564 0000 08B5     		push	{r3, lr}
 1565              		.cfi_def_cfa_offset 8
 1566              		.cfi_offset 3, -8
 1567              		.cfi_offset 14, -4
 1568              		.loc 6 522 0
 1569 0002 0448     		ldr	r0, .L99
 1570 0004 FFF7FEFF 		bl	chCondObjectInit
 1571              		.loc 6 523 0
 1572 0008 0348     		ldr	r0, .L99+4
 1573 000a FFF7FEFF 		bl	chMtxObjectInit
 1574              		.loc 6 524 0
 1575 000e 00BF     		nop
 1576 0010 08BD     		pop	{r3, pc}
 1577              	.L100:
 1578 0012 00BF     		.align	2
 1579              	.L99:
 1580 0014 00000000 		.word	c1
ARM GAS  /tmp/ccaMab5i.s 			page 29


 1581 0018 00000000 		.word	m1
 1582              		.cfi_endproc
 1583              	.LFE243:
 1584              		.size	mtx7_setup, .-mtx7_setup
 1585              		.section	.text.mtx7_execute,"ax",%progbits
 1586              		.align	1
 1587              		.p2align 4,,15
 1588              		.syntax unified
 1589              		.thumb
 1590              		.thumb_func
 1591              		.fpu fpv4-sp-d16
 1592              		.type	mtx7_execute, %function
 1593              	mtx7_execute:
 1594              	.LFB244:
 1595              		.loc 6 526 0
 1596              		.cfi_startproc
 1597              		@ args = 0, pretend = 0, frame = 8
 1598              		@ frame_needed = 0, uses_anonymous_args = 0
 1599 0000 00B5     		push	{lr}
 1600              		.cfi_def_cfa_offset 4
 1601              		.cfi_offset 14, -4
 1602 0002 85B0     		sub	sp, sp, #20
 1603              		.cfi_def_cfa_offset 24
 1604              		.loc 6 528 0
 1605 0004 FFF7FEFF 		bl	chThdGetPriorityX
 1606 0008 0390     		str	r0, [sp, #12]
 1607              		.loc 6 529 0
 1608 000a 2A4B     		ldr	r3, .L103
 1609 000c 1868     		ldr	r0, [r3]
 1610 000e 039B     		ldr	r3, [sp, #12]
 1611 0010 5A1C     		adds	r2, r3, #1
 1612 0012 294B     		ldr	r3, .L103+4
 1613 0014 0093     		str	r3, [sp]
 1614 0016 294B     		ldr	r3, .L103+8
 1615 0018 4FF4F871 		mov	r1, #496
 1616 001c FFF7FEFF 		bl	chThdCreateStatic
 1617 0020 0246     		mov	r2, r0
 1618 0022 274B     		ldr	r3, .L103+12
 1619 0024 1A60     		str	r2, [r3]
 1620              		.loc 6 530 0
 1621 0026 234B     		ldr	r3, .L103
 1622 0028 5868     		ldr	r0, [r3, #4]
 1623 002a 039B     		ldr	r3, [sp, #12]
 1624 002c 9A1C     		adds	r2, r3, #2
 1625 002e 254B     		ldr	r3, .L103+16
 1626 0030 0093     		str	r3, [sp]
 1627 0032 224B     		ldr	r3, .L103+8
 1628 0034 4FF4F871 		mov	r1, #496
 1629 0038 FFF7FEFF 		bl	chThdCreateStatic
 1630 003c 0246     		mov	r2, r0
 1631 003e 204B     		ldr	r3, .L103+12
 1632 0040 5A60     		str	r2, [r3, #4]
 1633              		.loc 6 531 0
 1634 0042 1C4B     		ldr	r3, .L103
 1635 0044 9868     		ldr	r0, [r3, #8]
 1636 0046 039B     		ldr	r3, [sp, #12]
 1637 0048 DA1C     		adds	r2, r3, #3
ARM GAS  /tmp/ccaMab5i.s 			page 30


 1638 004a 1F4B     		ldr	r3, .L103+20
 1639 004c 0093     		str	r3, [sp]
 1640 004e 1B4B     		ldr	r3, .L103+8
 1641 0050 4FF4F871 		mov	r1, #496
 1642 0054 FFF7FEFF 		bl	chThdCreateStatic
 1643 0058 0246     		mov	r2, r0
 1644 005a 194B     		ldr	r3, .L103+12
 1645 005c 9A60     		str	r2, [r3, #8]
 1646              		.loc 6 532 0
 1647 005e 154B     		ldr	r3, .L103
 1648 0060 D868     		ldr	r0, [r3, #12]
 1649 0062 039B     		ldr	r3, [sp, #12]
 1650 0064 1A1D     		adds	r2, r3, #4
 1651 0066 194B     		ldr	r3, .L103+24
 1652 0068 0093     		str	r3, [sp]
 1653 006a 144B     		ldr	r3, .L103+8
 1654 006c 4FF4F871 		mov	r1, #496
 1655 0070 FFF7FEFF 		bl	chThdCreateStatic
 1656 0074 0246     		mov	r2, r0
 1657 0076 124B     		ldr	r3, .L103+12
 1658 0078 DA60     		str	r2, [r3, #12]
 1659              		.loc 6 533 0
 1660 007a 0E4B     		ldr	r3, .L103
 1661 007c 1869     		ldr	r0, [r3, #16]
 1662 007e 039B     		ldr	r3, [sp, #12]
 1663 0080 5A1D     		adds	r2, r3, #5
 1664 0082 134B     		ldr	r3, .L103+28
 1665 0084 0093     		str	r3, [sp]
 1666 0086 0D4B     		ldr	r3, .L103+8
 1667 0088 4FF4F871 		mov	r1, #496
 1668 008c FFF7FEFF 		bl	chThdCreateStatic
 1669 0090 0246     		mov	r2, r0
 1670 0092 0B4B     		ldr	r3, .L103+12
 1671 0094 1A61     		str	r2, [r3, #16]
 1672              		.loc 6 534 0
 1673 0096 0F48     		ldr	r0, .L103+32
 1674 0098 FFF7FEFF 		bl	chCondBroadcast
 1675              		.loc 6 535 0
 1676 009c FFF7FEFF 		bl	test_wait_threads
 1677              		.loc 6 536 0
 1678 00a0 0D49     		ldr	r1, .L103+36
 1679 00a2 0120     		movs	r0, #1
 1680 00a4 FFF7FEFF 		bl	_test_assert_sequence
 1681 00a8 0346     		mov	r3, r0
 1682 00aa 002B     		cmp	r3, #0
 1683              		.loc 6 537 0
 1684 00ac 05B0     		add	sp, sp, #20
 1685              		.cfi_def_cfa_offset 4
 1686              		@ sp needed
 1687 00ae 5DF804FB 		ldr	pc, [sp], #4
 1688              	.L104:
 1689 00b2 00BF     		.align	2
 1690              	.L103:
 1691 00b4 00000000 		.word	wa
 1692 00b8 00000000 		.word	.LC0
 1693 00bc 00000000 		.word	thread10
 1694 00c0 00000000 		.word	threads
ARM GAS  /tmp/ccaMab5i.s 			page 31


 1695 00c4 04000000 		.word	.LC1
 1696 00c8 08000000 		.word	.LC2
 1697 00cc 0C000000 		.word	.LC3
 1698 00d0 10000000 		.word	.LC4
 1699 00d4 00000000 		.word	c1
 1700 00d8 14000000 		.word	.LC5
 1701              		.cfi_endproc
 1702              	.LFE244:
 1703              		.size	mtx7_execute, .-mtx7_execute
 1704              		.global	testmtx7
 1705              		.section	.rodata
 1706 0081 000000   		.align	2
 1707              	.LC10:
 1708 0084 436F6E64 		.ascii	"CondVar, broadcast test\000"
 1708      5661722C 
 1708      2062726F 
 1708      61646361 
 1708      73742074 
 1709              		.section	.rodata.testmtx7,"a",%progbits
 1710              		.align	2
 1711              		.type	testmtx7, %object
 1712              		.size	testmtx7, 16
 1713              	testmtx7:
 1714 0000 84000000 		.word	.LC10
 1715 0004 00000000 		.word	mtx7_setup
 1716 0008 00000000 		.word	0
 1717 000c 00000000 		.word	mtx7_execute
 1718              		.section	.text.mtx8_setup,"ax",%progbits
 1719              		.align	1
 1720              		.p2align 4,,15
 1721              		.syntax unified
 1722              		.thumb
 1723              		.thumb_func
 1724              		.fpu fpv4-sp-d16
 1725              		.type	mtx8_setup, %function
 1726              	mtx8_setup:
 1727              	.LFB245:
 1728              		.loc 6 555 0
 1729              		.cfi_startproc
 1730              		@ args = 0, pretend = 0, frame = 0
 1731              		@ frame_needed = 0, uses_anonymous_args = 0
 1732 0000 08B5     		push	{r3, lr}
 1733              		.cfi_def_cfa_offset 8
 1734              		.cfi_offset 3, -8
 1735              		.cfi_offset 14, -4
 1736              		.loc 6 557 0
 1737 0002 0548     		ldr	r0, .L106
 1738 0004 FFF7FEFF 		bl	chCondObjectInit
 1739              		.loc 6 558 0
 1740 0008 0448     		ldr	r0, .L106+4
 1741 000a FFF7FEFF 		bl	chMtxObjectInit
 1742              		.loc 6 559 0
 1743 000e 0448     		ldr	r0, .L106+8
 1744 0010 FFF7FEFF 		bl	chMtxObjectInit
 1745              		.loc 6 560 0
 1746 0014 00BF     		nop
 1747 0016 08BD     		pop	{r3, pc}
ARM GAS  /tmp/ccaMab5i.s 			page 32


 1748              	.L107:
 1749              		.align	2
 1750              	.L106:
 1751 0018 00000000 		.word	c1
 1752 001c 00000000 		.word	m1
 1753 0020 00000000 		.word	m2
 1754              		.cfi_endproc
 1755              	.LFE245:
 1756              		.size	mtx8_setup, .-mtx8_setup
 1757              		.section	.text.thread11,"ax",%progbits
 1758              		.align	1
 1759              		.p2align 4,,15
 1760              		.syntax unified
 1761              		.thumb
 1762              		.thumb_func
 1763              		.fpu fpv4-sp-d16
 1764              		.type	thread11, %function
 1765              	thread11:
 1766              	.LFB246:
 1767              		.loc 6 562 0
 1768              		.cfi_startproc
 1769              		@ args = 0, pretend = 0, frame = 8
 1770              		@ frame_needed = 0, uses_anonymous_args = 0
 1771 0000 00B5     		push	{lr}
 1772              		.cfi_def_cfa_offset 4
 1773              		.cfi_offset 14, -4
 1774 0002 83B0     		sub	sp, sp, #12
 1775              		.cfi_def_cfa_offset 16
 1776 0004 0190     		str	r0, [sp, #4]
 1777              		.loc 6 564 0
 1778 0006 0D48     		ldr	r0, .L109
 1779 0008 FFF7FEFF 		bl	chMtxLock
 1780              		.loc 6 565 0
 1781 000c 0C48     		ldr	r0, .L109+4
 1782 000e FFF7FEFF 		bl	chMtxLock
 1783              		.loc 6 567 0
 1784 0012 4FF0FF31 		mov	r1, #-1
 1785 0016 0B48     		ldr	r0, .L109+8
 1786 0018 FFF7FEFF 		bl	chCondWaitTimeout
 1787              		.loc 6 571 0
 1788 001c 019B     		ldr	r3, [sp, #4]
 1789 001e 1B78     		ldrb	r3, [r3]	@ zero_extendqisi2
 1790 0020 1846     		mov	r0, r3
 1791 0022 FFF7FEFF 		bl	test_emit_token
 1792              		.loc 6 572 0
 1793 0026 0648     		ldr	r0, .L109+4
 1794 0028 FFF7FEFF 		bl	chMtxUnlock
 1795              		.loc 6 573 0
 1796 002c 0348     		ldr	r0, .L109
 1797 002e FFF7FEFF 		bl	chMtxUnlock
 1798              		.loc 6 574 0
 1799 0032 00BF     		nop
 1800 0034 03B0     		add	sp, sp, #12
 1801              		.cfi_def_cfa_offset 4
 1802              		@ sp needed
 1803 0036 5DF804FB 		ldr	pc, [sp], #4
 1804              	.L110:
ARM GAS  /tmp/ccaMab5i.s 			page 33


 1805 003a 00BF     		.align	2
 1806              	.L109:
 1807 003c 00000000 		.word	m2
 1808 0040 00000000 		.word	m1
 1809 0044 00000000 		.word	c1
 1810              		.cfi_endproc
 1811              	.LFE246:
 1812              		.size	thread11, .-thread11
 1813              		.section	.text.thread12,"ax",%progbits
 1814              		.align	1
 1815              		.p2align 4,,15
 1816              		.syntax unified
 1817              		.thumb
 1818              		.thumb_func
 1819              		.fpu fpv4-sp-d16
 1820              		.type	thread12, %function
 1821              	thread12:
 1822              	.LFB247:
 1823              		.loc 6 576 0
 1824              		.cfi_startproc
 1825              		@ args = 0, pretend = 0, frame = 8
 1826              		@ frame_needed = 0, uses_anonymous_args = 0
 1827 0000 00B5     		push	{lr}
 1828              		.cfi_def_cfa_offset 4
 1829              		.cfi_offset 14, -4
 1830 0002 83B0     		sub	sp, sp, #12
 1831              		.cfi_def_cfa_offset 16
 1832 0004 0190     		str	r0, [sp, #4]
 1833              		.loc 6 578 0
 1834 0006 0748     		ldr	r0, .L112
 1835 0008 FFF7FEFF 		bl	chMtxLock
 1836              		.loc 6 579 0
 1837 000c 019B     		ldr	r3, [sp, #4]
 1838 000e 1B78     		ldrb	r3, [r3]	@ zero_extendqisi2
 1839 0010 1846     		mov	r0, r3
 1840 0012 FFF7FEFF 		bl	test_emit_token
 1841              		.loc 6 580 0
 1842 0016 0348     		ldr	r0, .L112
 1843 0018 FFF7FEFF 		bl	chMtxUnlock
 1844              		.loc 6 581 0
 1845 001c 00BF     		nop
 1846 001e 03B0     		add	sp, sp, #12
 1847              		.cfi_def_cfa_offset 4
 1848              		@ sp needed
 1849 0020 5DF804FB 		ldr	pc, [sp], #4
 1850              	.L113:
 1851              		.align	2
 1852              	.L112:
 1853 0024 00000000 		.word	m2
 1854              		.cfi_endproc
 1855              	.LFE247:
 1856              		.size	thread12, .-thread12
 1857              		.section	.rodata
 1858              		.align	2
 1859              	.LC11:
 1860 009c 41424300 		.ascii	"ABC\000"
 1861              		.section	.text.mtx8_execute,"ax",%progbits
ARM GAS  /tmp/ccaMab5i.s 			page 34


 1862              		.align	1
 1863              		.p2align 4,,15
 1864              		.syntax unified
 1865              		.thumb
 1866              		.thumb_func
 1867              		.fpu fpv4-sp-d16
 1868              		.type	mtx8_execute, %function
 1869              	mtx8_execute:
 1870              	.LFB248:
 1871              		.loc 6 583 0
 1872              		.cfi_startproc
 1873              		@ args = 0, pretend = 0, frame = 8
 1874              		@ frame_needed = 0, uses_anonymous_args = 0
 1875 0000 00B5     		push	{lr}
 1876              		.cfi_def_cfa_offset 4
 1877              		.cfi_offset 14, -4
 1878 0002 85B0     		sub	sp, sp, #20
 1879              		.cfi_def_cfa_offset 24
 1880              		.loc 6 585 0
 1881 0004 FFF7FEFF 		bl	chThdGetPriorityX
 1882 0008 0390     		str	r0, [sp, #12]
 1883              		.loc 6 586 0
 1884 000a 1D4B     		ldr	r3, .L116
 1885 000c 1868     		ldr	r0, [r3]
 1886 000e 039B     		ldr	r3, [sp, #12]
 1887 0010 5A1C     		adds	r2, r3, #1
 1888 0012 1C4B     		ldr	r3, .L116+4
 1889 0014 0093     		str	r3, [sp]
 1890 0016 1C4B     		ldr	r3, .L116+8
 1891 0018 4FF4F871 		mov	r1, #496
 1892 001c FFF7FEFF 		bl	chThdCreateStatic
 1893 0020 0246     		mov	r2, r0
 1894 0022 1A4B     		ldr	r3, .L116+12
 1895 0024 1A60     		str	r2, [r3]
 1896              		.loc 6 587 0
 1897 0026 164B     		ldr	r3, .L116
 1898 0028 5868     		ldr	r0, [r3, #4]
 1899 002a 039B     		ldr	r3, [sp, #12]
 1900 002c 9A1C     		adds	r2, r3, #2
 1901 002e 184B     		ldr	r3, .L116+16
 1902 0030 0093     		str	r3, [sp]
 1903 0032 184B     		ldr	r3, .L116+20
 1904 0034 4FF4F871 		mov	r1, #496
 1905 0038 FFF7FEFF 		bl	chThdCreateStatic
 1906 003c 0246     		mov	r2, r0
 1907 003e 134B     		ldr	r3, .L116+12
 1908 0040 5A60     		str	r2, [r3, #4]
 1909              		.loc 6 588 0
 1910 0042 0F4B     		ldr	r3, .L116
 1911 0044 9868     		ldr	r0, [r3, #8]
 1912 0046 039B     		ldr	r3, [sp, #12]
 1913 0048 DA1C     		adds	r2, r3, #3
 1914 004a 134B     		ldr	r3, .L116+24
 1915 004c 0093     		str	r3, [sp]
 1916 004e 134B     		ldr	r3, .L116+28
 1917 0050 4FF4F871 		mov	r1, #496
 1918 0054 FFF7FEFF 		bl	chThdCreateStatic
ARM GAS  /tmp/ccaMab5i.s 			page 35


 1919 0058 0246     		mov	r2, r0
 1920 005a 0C4B     		ldr	r3, .L116+12
 1921 005c 9A60     		str	r2, [r3, #8]
 1922              		.loc 6 589 0
 1923 005e 1048     		ldr	r0, .L116+32
 1924 0060 FFF7FEFF 		bl	chCondSignal
 1925              		.loc 6 590 0
 1926 0064 0E48     		ldr	r0, .L116+32
 1927 0066 FFF7FEFF 		bl	chCondSignal
 1928              		.loc 6 591 0
 1929 006a FFF7FEFF 		bl	test_wait_threads
 1930              		.loc 6 592 0
 1931 006e 0D49     		ldr	r1, .L116+36
 1932 0070 0120     		movs	r0, #1
 1933 0072 FFF7FEFF 		bl	_test_assert_sequence
 1934 0076 0346     		mov	r3, r0
 1935 0078 002B     		cmp	r3, #0
 1936              		.loc 6 593 0
 1937 007a 05B0     		add	sp, sp, #20
 1938              		.cfi_def_cfa_offset 4
 1939              		@ sp needed
 1940 007c 5DF804FB 		ldr	pc, [sp], #4
 1941              	.L117:
 1942              		.align	2
 1943              	.L116:
 1944 0080 00000000 		.word	wa
 1945 0084 10000000 		.word	.LC4
 1946 0088 00000000 		.word	thread11
 1947 008c 00000000 		.word	threads
 1948 0090 08000000 		.word	.LC2
 1949 0094 00000000 		.word	thread10
 1950 0098 0C000000 		.word	.LC3
 1951 009c 00000000 		.word	thread12
 1952 00a0 00000000 		.word	c1
 1953 00a4 9C000000 		.word	.LC11
 1954              		.cfi_endproc
 1955              	.LFE248:
 1956              		.size	mtx8_execute, .-mtx8_execute
 1957              		.global	testmtx8
 1958              		.section	.rodata
 1959              		.align	2
 1960              	.LC12:
 1961 00a0 436F6E64 		.ascii	"CondVar, boost test\000"
 1961      5661722C 
 1961      20626F6F 
 1961      73742074 
 1961      65737400 
 1962              		.section	.rodata.testmtx8,"a",%progbits
 1963              		.align	2
 1964              		.type	testmtx8, %object
 1965              		.size	testmtx8, 16
 1966              	testmtx8:
 1967 0000 A0000000 		.word	.LC12
 1968 0004 00000000 		.word	mtx8_setup
 1969 0008 00000000 		.word	0
 1970 000c 00000000 		.word	mtx8_execute
 1971              		.global	patternmtx
ARM GAS  /tmp/ccaMab5i.s 			page 36


 1972              		.section	.rodata.patternmtx,"a",%progbits
 1973              		.align	2
 1974              		.type	patternmtx, %object
 1975              		.size	patternmtx, 28
 1976              	patternmtx:
 1977 0000 00000000 		.word	testmtx1
 1978 0004 00000000 		.word	testmtx4
 1979 0008 00000000 		.word	testmtx5
 1980 000c 00000000 		.word	testmtx6
 1981 0010 00000000 		.word	testmtx7
 1982 0014 00000000 		.word	testmtx8
 1983 0018 00000000 		.word	0
 1984              		.section	.rodata.__func__.7157,"a",%progbits
 1985              		.align	2
 1986              		.type	__func__.7157, %object
 1987              		.size	__func__.7157, 12
 1988              	__func__.7157:
 1989 0000 63685379 		.ascii	"chSysUnlock\000"
 1989      73556E6C 
 1989      6F636B00 
 1990              		.text
 1991              	.Letext0:
 1992              		.file 7 "/usr/lib/gcc/arm-none-eabi/6.3.1/include/stddef.h"
 1993              		.file 8 "/usr/arm-none-eabi/include/machine/_default_types.h"
 1994              		.file 9 "/usr/arm-none-eabi/include/sys/_stdint.h"
 1995              		.file 10 "../ChibiOS/os/rt/ports/ARMCMx/compilers/GCC/chtypes.h"
 1996              		.file 11 "../ChibiOS/os/rt/include/chsystypes.h"
 1997              		.file 12 "../ChibiOS/os/ext/CMSIS/include/core_cm4.h"
 1998              		.file 13 "../ChibiOS/os/ext/CMSIS/ST/STM32F4xx/system_stm32f4xx.h"
 1999              		.file 14 "../ChibiOS/os/rt/ports/ARMCMx/chcore.h"
 2000              		.file 15 "../ChibiOS/os/rt/include/chtm.h"
 2001              		.file 16 "../ChibiOS/os/rt/include/chstats.h"
 2002              		.file 17 "../ChibiOS/os/rt/include/chsem.h"
 2003              		.file 18 "../ChibiOS/os/rt/include/chmtx.h"
 2004              		.file 19 "../ChibiOS/os/rt/include/chregistry.h"
 2005              		.file 20 "../ChibiOS/os/rt/include/chcond.h"
 2006              		.file 21 "../ChibiOS/test/rt/test.h"
 2007              		.section	.debug_info,"",%progbits
 2008              	.Ldebug_info0:
 2009 0000 C10E0000 		.4byte	0xec1
 2010 0004 0400     		.2byte	0x4
 2011 0006 00000000 		.4byte	.Ldebug_abbrev0
 2012 000a 04       		.byte	0x4
 2013 000b 01       		.uleb128 0x1
 2014 000c 10020000 		.4byte	.LASF190
 2015 0010 0C       		.byte	0xc
 2016 0011 40000000 		.4byte	.LASF191
 2017 0015 F2030000 		.4byte	.LASF192
 2018 0019 00000000 		.4byte	.Ldebug_ranges0+0
 2019 001d 00000000 		.4byte	0
 2020 0021 00000000 		.4byte	.Ldebug_line0
 2021 0025 02       		.uleb128 0x2
 2022 0026 04       		.byte	0x4
 2023 0027 05       		.byte	0x5
 2024 0028 696E7400 		.ascii	"int\000"
 2025 002c 03       		.uleb128 0x3
 2026 002d 29000000 		.4byte	.LASF4
ARM GAS  /tmp/ccaMab5i.s 			page 37


 2027 0031 07       		.byte	0x7
 2028 0032 D8       		.byte	0xd8
 2029 0033 37000000 		.4byte	0x37
 2030 0037 04       		.uleb128 0x4
 2031 0038 04       		.byte	0x4
 2032 0039 07       		.byte	0x7
 2033 003a C4030000 		.4byte	.LASF0
 2034 003e 04       		.uleb128 0x4
 2035 003f 08       		.byte	0x8
 2036 0040 05       		.byte	0x5
 2037 0041 72010000 		.4byte	.LASF1
 2038 0045 04       		.uleb128 0x4
 2039 0046 08       		.byte	0x8
 2040 0047 04       		.byte	0x4
 2041 0048 58030000 		.4byte	.LASF2
 2042 004c 04       		.uleb128 0x4
 2043 004d 01       		.byte	0x1
 2044 004e 06       		.byte	0x6
 2045 004f 80010000 		.4byte	.LASF3
 2046 0053 03       		.uleb128 0x3
 2047 0054 5D000000 		.4byte	.LASF5
 2048 0058 08       		.byte	0x8
 2049 0059 2B       		.byte	0x2b
 2050 005a 5E000000 		.4byte	0x5e
 2051 005e 04       		.uleb128 0x4
 2052 005f 01       		.byte	0x1
 2053 0060 08       		.byte	0x8
 2054 0061 9A060000 		.4byte	.LASF6
 2055 0065 04       		.uleb128 0x4
 2056 0066 02       		.byte	0x2
 2057 0067 05       		.byte	0x5
 2058 0068 C5060000 		.4byte	.LASF7
 2059 006c 03       		.uleb128 0x3
 2060 006d FC070000 		.4byte	.LASF8
 2061 0071 08       		.byte	0x8
 2062 0072 39       		.byte	0x39
 2063 0073 77000000 		.4byte	0x77
 2064 0077 04       		.uleb128 0x4
 2065 0078 02       		.byte	0x2
 2066 0079 07       		.byte	0x7
 2067 007a 6B040000 		.4byte	.LASF9
 2068 007e 03       		.uleb128 0x3
 2069 007f FC040000 		.4byte	.LASF10
 2070 0083 08       		.byte	0x8
 2071 0084 4D       		.byte	0x4d
 2072 0085 89000000 		.4byte	0x89
 2073 0089 04       		.uleb128 0x4
 2074 008a 04       		.byte	0x4
 2075 008b 05       		.byte	0x5
 2076 008c FE010000 		.4byte	.LASF11
 2077 0090 03       		.uleb128 0x3
 2078 0091 3A080000 		.4byte	.LASF12
 2079 0095 08       		.byte	0x8
 2080 0096 4F       		.byte	0x4f
 2081 0097 9B000000 		.4byte	0x9b
 2082 009b 04       		.uleb128 0x4
 2083 009c 04       		.byte	0x4
ARM GAS  /tmp/ccaMab5i.s 			page 38


 2084 009d 07       		.byte	0x7
 2085 009e D3070000 		.4byte	.LASF13
 2086 00a2 03       		.uleb128 0x3
 2087 00a3 FA050000 		.4byte	.LASF14
 2088 00a7 08       		.byte	0x8
 2089 00a8 69       		.byte	0x69
 2090 00a9 AD000000 		.4byte	0xad
 2091 00ad 04       		.uleb128 0x4
 2092 00ae 08       		.byte	0x8
 2093 00af 07       		.byte	0x7
 2094 00b0 DE000000 		.4byte	.LASF15
 2095 00b4 03       		.uleb128 0x3
 2096 00b5 E9080000 		.4byte	.LASF16
 2097 00b9 09       		.byte	0x9
 2098 00ba 18       		.byte	0x18
 2099 00bb 53000000 		.4byte	0x53
 2100 00bf 03       		.uleb128 0x3
 2101 00c0 D9030000 		.4byte	.LASF17
 2102 00c4 09       		.byte	0x9
 2103 00c5 24       		.byte	0x24
 2104 00c6 6C000000 		.4byte	0x6c
 2105 00ca 03       		.uleb128 0x3
 2106 00cb 92060000 		.4byte	.LASF18
 2107 00cf 09       		.byte	0x9
 2108 00d0 2C       		.byte	0x2c
 2109 00d1 7E000000 		.4byte	0x7e
 2110 00d5 05       		.uleb128 0x5
 2111 00d6 CA000000 		.4byte	0xca
 2112 00da 03       		.uleb128 0x3
 2113 00db 82070000 		.4byte	.LASF19
 2114 00df 09       		.byte	0x9
 2115 00e0 30       		.byte	0x30
 2116 00e1 90000000 		.4byte	0x90
 2117 00e5 03       		.uleb128 0x3
 2118 00e6 37000000 		.4byte	.LASF20
 2119 00ea 09       		.byte	0x9
 2120 00eb 3C       		.byte	0x3c
 2121 00ec A2000000 		.4byte	0xa2
 2122 00f0 03       		.uleb128 0x3
 2123 00f1 98080000 		.4byte	.LASF21
 2124 00f5 0A       		.byte	0xa
 2125 00f6 39       		.byte	0x39
 2126 00f7 DA000000 		.4byte	0xda
 2127 00fb 03       		.uleb128 0x3
 2128 00fc 4C010000 		.4byte	.LASF22
 2129 0100 0A       		.byte	0xa
 2130 0101 3A       		.byte	0x3a
 2131 0102 E5000000 		.4byte	0xe5
 2132 0106 03       		.uleb128 0x3
 2133 0107 F5060000 		.4byte	.LASF23
 2134 010b 0A       		.byte	0xa
 2135 010c 3C       		.byte	0x3c
 2136 010d B4000000 		.4byte	0xb4
 2137 0111 03       		.uleb128 0x3
 2138 0112 07020000 		.4byte	.LASF24
 2139 0116 0A       		.byte	0xa
 2140 0117 3D       		.byte	0x3d
ARM GAS  /tmp/ccaMab5i.s 			page 39


 2141 0118 B4000000 		.4byte	0xb4
 2142 011c 03       		.uleb128 0x3
 2143 011d 49060000 		.4byte	.LASF25
 2144 0121 0A       		.byte	0xa
 2145 0122 3E       		.byte	0x3e
 2146 0123 B4000000 		.4byte	0xb4
 2147 0127 03       		.uleb128 0x3
 2148 0128 7B060000 		.4byte	.LASF26
 2149 012c 0A       		.byte	0xa
 2150 012d 40       		.byte	0x40
 2151 012e DA000000 		.4byte	0xda
 2152 0132 03       		.uleb128 0x3
 2153 0133 97040000 		.4byte	.LASF27
 2154 0137 0A       		.byte	0xa
 2155 0138 41       		.byte	0x41
 2156 0139 CA000000 		.4byte	0xca
 2157 013d 03       		.uleb128 0x3
 2158 013e F0040000 		.4byte	.LASF28
 2159 0142 0A       		.byte	0xa
 2160 0143 43       		.byte	0x43
 2161 0144 DA000000 		.4byte	0xda
 2162 0148 03       		.uleb128 0x3
 2163 0149 B3030000 		.4byte	.LASF29
 2164 014d 0A       		.byte	0xa
 2165 014e 45       		.byte	0x45
 2166 014f CA000000 		.4byte	0xca
 2167 0153 03       		.uleb128 0x3
 2168 0154 A2040000 		.4byte	.LASF30
 2169 0158 0A       		.byte	0xa
 2170 0159 46       		.byte	0x46
 2171 015a DA000000 		.4byte	0xda
 2172 015e 03       		.uleb128 0x3
 2173 015f 1C080000 		.4byte	.LASF31
 2174 0163 0B       		.byte	0xb
 2175 0164 33       		.byte	0x33
 2176 0165 DA000000 		.4byte	0xda
 2177 0169 05       		.uleb128 0x5
 2178 016a 5E010000 		.4byte	0x15e
 2179 016e 03       		.uleb128 0x3
 2180 016f 07080000 		.4byte	.LASF32
 2181 0173 0B       		.byte	0xb
 2182 0174 3F       		.byte	0x3f
 2183 0175 79010000 		.4byte	0x179
 2184 0179 06       		.uleb128 0x6
 2185 017a 8D040000 		.4byte	.LASF54
 2186 017e 60       		.byte	0x60
 2187 017f 03       		.byte	0x3
 2188 0180 C2       		.byte	0xc2
 2189 0181 7F020000 		.4byte	0x27f
 2190 0185 07       		.uleb128 0x7
 2191 0186 EE060000 		.4byte	.LASF33
 2192 018a 03       		.byte	0x3
 2193 018b C3       		.byte	0xc3
 2194 018c 8A020000 		.4byte	0x28a
 2195 0190 00       		.byte	0
 2196 0191 07       		.uleb128 0x7
 2197 0192 6C060000 		.4byte	.LASF34
ARM GAS  /tmp/ccaMab5i.s 			page 40


 2198 0196 03       		.byte	0x3
 2199 0197 C5       		.byte	0xc5
 2200 0198 8A020000 		.4byte	0x28a
 2201 019c 04       		.byte	0x4
 2202 019d 07       		.uleb128 0x7
 2203 019e 55010000 		.4byte	.LASF35
 2204 01a2 03       		.byte	0x3
 2205 01a3 C7       		.byte	0xc7
 2206 01a4 27010000 		.4byte	0x127
 2207 01a8 08       		.byte	0x8
 2208 01a9 07       		.uleb128 0x7
 2209 01aa BD050000 		.4byte	.LASF36
 2210 01ae 03       		.byte	0x3
 2211 01af C8       		.byte	0xc8
 2212 01b0 02050000 		.4byte	0x502
 2213 01b4 0C       		.byte	0xc
 2214 01b5 07       		.uleb128 0x7
 2215 01b6 3A030000 		.4byte	.LASF37
 2216 01ba 03       		.byte	0x3
 2217 01bb CA       		.byte	0xca
 2218 01bc 8A020000 		.4byte	0x28a
 2219 01c0 10       		.byte	0x10
 2220 01c1 07       		.uleb128 0x7
 2221 01c2 A7050000 		.4byte	.LASF38
 2222 01c6 03       		.byte	0x3
 2223 01c7 CB       		.byte	0xcb
 2224 01c8 8A020000 		.4byte	0x28a
 2225 01cc 14       		.byte	0x14
 2226 01cd 07       		.uleb128 0x7
 2227 01ce 15090000 		.4byte	.LASF39
 2228 01d2 03       		.byte	0x3
 2229 01d3 D2       		.byte	0xd2
 2230 01d4 E2070000 		.4byte	0x7e2
 2231 01d8 18       		.byte	0x18
 2232 01d9 07       		.uleb128 0x7
 2233 01da B9030000 		.4byte	.LASF40
 2234 01de 03       		.byte	0x3
 2235 01df D8       		.byte	0xd8
 2236 01e0 F9070000 		.4byte	0x7f9
 2237 01e4 1C       		.byte	0x1c
 2238 01e5 07       		.uleb128 0x7
 2239 01e6 BE010000 		.4byte	.LASF41
 2240 01ea 03       		.byte	0x3
 2241 01eb DD       		.byte	0xdd
 2242 01ec 11010000 		.4byte	0x111
 2243 01f0 20       		.byte	0x20
 2244 01f1 07       		.uleb128 0x7
 2245 01f2 0C070000 		.4byte	.LASF42
 2246 01f6 03       		.byte	0x3
 2247 01f7 E1       		.byte	0xe1
 2248 01f8 06010000 		.4byte	0x106
 2249 01fc 21       		.byte	0x21
 2250 01fd 07       		.uleb128 0x7
 2251 01fe C6080000 		.4byte	.LASF43
 2252 0202 03       		.byte	0x3
 2253 0203 E6       		.byte	0xe6
 2254 0204 1C010000 		.4byte	0x11c
ARM GAS  /tmp/ccaMab5i.s 			page 41


 2255 0208 22       		.byte	0x22
 2256 0209 08       		.uleb128 0x8
 2257 020a 705F7500 		.ascii	"p_u\000"
 2258 020e 03       		.byte	0x3
 2259 020f 3101     		.2byte	0x131
 2260 0211 1D070000 		.4byte	0x71d
 2261 0215 24       		.byte	0x24
 2262 0216 09       		.uleb128 0x9
 2263 0217 34050000 		.4byte	.LASF44
 2264 021b 03       		.byte	0x3
 2265 021c 3601     		.2byte	0x136
 2266 021e 90020000 		.4byte	0x290
 2267 0222 28       		.byte	0x28
 2268 0223 09       		.uleb128 0x9
 2269 0224 46040000 		.4byte	.LASF45
 2270 0228 03       		.byte	0x3
 2271 0229 3C01     		.2byte	0x13c
 2272 022b B4020000 		.4byte	0x2b4
 2273 022f 2C       		.byte	0x2c
 2274 0230 09       		.uleb128 0x9
 2275 0231 89080000 		.4byte	.LASF46
 2276 0235 03       		.byte	0x3
 2277 0236 4001     		.2byte	0x140
 2278 0238 32010000 		.4byte	0x132
 2279 023c 34       		.byte	0x34
 2280 023d 09       		.uleb128 0x9
 2281 023e 77070000 		.4byte	.LASF47
 2282 0242 03       		.byte	0x3
 2283 0243 4601     		.2byte	0x146
 2284 0245 3D010000 		.4byte	0x13d
 2285 0249 38       		.byte	0x38
 2286 024a 09       		.uleb128 0x9
 2287 024b BB060000 		.4byte	.LASF48
 2288 024f 03       		.byte	0x3
 2289 0250 4D01     		.2byte	0x14d
 2290 0252 DC070000 		.4byte	0x7dc
 2291 0256 3C       		.byte	0x3c
 2292 0257 09       		.uleb128 0x9
 2293 0258 26080000 		.4byte	.LASF49
 2294 025c 03       		.byte	0x3
 2295 025d 5101     		.2byte	0x151
 2296 025f 27010000 		.4byte	0x127
 2297 0263 40       		.byte	0x40
 2298 0264 09       		.uleb128 0x9
 2299 0265 C6010000 		.4byte	.LASF50
 2300 0269 03       		.byte	0x3
 2301 026a 5801     		.2byte	0x158
 2302 026c 6C030000 		.4byte	0x36c
 2303 0270 44       		.byte	0x44
 2304 0271 09       		.uleb128 0x9
 2305 0272 1D070000 		.4byte	.LASF51
 2306 0276 03       		.byte	0x3
 2307 0277 5E01     		.2byte	0x15e
 2308 0279 CE060000 		.4byte	0x6ce
 2309 027d 48       		.byte	0x48
 2310 027e 00       		.byte	0
 2311 027f 03       		.uleb128 0x3
ARM GAS  /tmp/ccaMab5i.s 			page 42


 2312 0280 FB080000 		.4byte	.LASF52
 2313 0284 0B       		.byte	0xb
 2314 0285 44       		.byte	0x44
 2315 0286 8A020000 		.4byte	0x28a
 2316 028a 0A       		.uleb128 0xa
 2317 028b 04       		.byte	0x4
 2318 028c 6E010000 		.4byte	0x16e
 2319 0290 03       		.uleb128 0x3
 2320 0291 00000000 		.4byte	.LASF53
 2321 0295 0B       		.byte	0xb
 2322 0296 49       		.byte	0x49
 2323 0297 9B020000 		.4byte	0x29b
 2324 029b 06       		.uleb128 0x6
 2325 029c 9F070000 		.4byte	.LASF55
 2326 02a0 04       		.byte	0x4
 2327 02a1 03       		.byte	0x3
 2328 02a2 B0       		.byte	0xb0
 2329 02a3 B4020000 		.4byte	0x2b4
 2330 02a7 07       		.uleb128 0x7
 2331 02a8 EE060000 		.4byte	.LASF33
 2332 02ac 03       		.byte	0x3
 2333 02ad B1       		.byte	0xb1
 2334 02ae 8A020000 		.4byte	0x28a
 2335 02b2 00       		.byte	0
 2336 02b3 00       		.byte	0
 2337 02b4 03       		.uleb128 0x3
 2338 02b5 2F070000 		.4byte	.LASF56
 2339 02b9 0B       		.byte	0xb
 2340 02ba 50       		.byte	0x50
 2341 02bb C4020000 		.4byte	0x2c4
 2342 02bf 0B       		.uleb128 0xb
 2343 02c0 B4020000 		.4byte	0x2b4
 2344 02c4 06       		.uleb128 0x6
 2345 02c5 73000000 		.4byte	.LASF57
 2346 02c9 08       		.byte	0x8
 2347 02ca 03       		.byte	0x3
 2348 02cb B7       		.byte	0xb7
 2349 02cc E9020000 		.4byte	0x2e9
 2350 02d0 07       		.uleb128 0x7
 2351 02d1 EE060000 		.4byte	.LASF33
 2352 02d5 03       		.byte	0x3
 2353 02d6 B8       		.byte	0xb8
 2354 02d7 8A020000 		.4byte	0x28a
 2355 02db 00       		.byte	0
 2356 02dc 07       		.uleb128 0x7
 2357 02dd 6C060000 		.4byte	.LASF34
 2358 02e1 03       		.byte	0x3
 2359 02e2 B9       		.byte	0xb9
 2360 02e3 8A020000 		.4byte	0x28a
 2361 02e7 04       		.byte	0x4
 2362 02e8 00       		.byte	0
 2363 02e9 03       		.uleb128 0x3
 2364 02ea 1C000000 		.4byte	.LASF58
 2365 02ee 0B       		.byte	0xb
 2366 02ef 57       		.byte	0x57
 2367 02f0 F4020000 		.4byte	0x2f4
 2368 02f4 0C       		.uleb128 0xc
ARM GAS  /tmp/ccaMab5i.s 			page 43


 2369 02f5 E2040000 		.4byte	.LASF59
 2370 02f9 1C       		.byte	0x1c
 2371 02fa 03       		.byte	0x3
 2372 02fb 9001     		.2byte	0x190
 2373 02fd 50030000 		.4byte	0x350
 2374 0301 09       		.uleb128 0x9
 2375 0302 97070000 		.4byte	.LASF60
 2376 0306 03       		.byte	0x3
 2377 0307 9101     		.2byte	0x191
 2378 0309 B4020000 		.4byte	0x2b4
 2379 030d 00       		.byte	0
 2380 030e 09       		.uleb128 0x9
 2381 030f 2D050000 		.4byte	.LASF61
 2382 0313 03       		.byte	0x3
 2383 0314 9201     		.2byte	0x192
 2384 0316 27010000 		.4byte	0x127
 2385 031a 08       		.byte	0x8
 2386 031b 09       		.uleb128 0x9
 2387 031c B7050000 		.4byte	.LASF62
 2388 0320 03       		.byte	0x3
 2389 0321 9401     		.2byte	0x194
 2390 0323 02050000 		.4byte	0x502
 2391 0327 0C       		.byte	0xc
 2392 0328 09       		.uleb128 0x9
 2393 0329 64030000 		.4byte	.LASF63
 2394 032d 03       		.byte	0x3
 2395 032e 9701     		.2byte	0x197
 2396 0330 8A020000 		.4byte	0x28a
 2397 0334 10       		.byte	0x10
 2398 0335 09       		.uleb128 0x9
 2399 0336 F2050000 		.4byte	.LASF64
 2400 033a 03       		.byte	0x3
 2401 033b 9801     		.2byte	0x198
 2402 033d 8A020000 		.4byte	0x28a
 2403 0341 14       		.byte	0x14
 2404 0342 09       		.uleb128 0x9
 2405 0343 2F090000 		.4byte	.LASF65
 2406 0347 03       		.byte	0x3
 2407 0348 9B01     		.2byte	0x19b
 2408 034a 8A020000 		.4byte	0x28a
 2409 034e 18       		.byte	0x18
 2410 034f 00       		.byte	0
 2411 0350 03       		.uleb128 0x3
 2412 0351 31080000 		.4byte	.LASF66
 2413 0355 0B       		.byte	0xb
 2414 0356 5C       		.byte	0x5c
 2415 0357 5B030000 		.4byte	0x35b
 2416 035b 0A       		.uleb128 0xa
 2417 035c 04       		.byte	0x4
 2418 035d 61030000 		.4byte	0x361
 2419 0361 0D       		.uleb128 0xd
 2420 0362 6C030000 		.4byte	0x36c
 2421 0366 0E       		.uleb128 0xe
 2422 0367 6C030000 		.4byte	0x36c
 2423 036b 00       		.byte	0
 2424 036c 0F       		.uleb128 0xf
 2425 036d 04       		.byte	0x4
ARM GAS  /tmp/ccaMab5i.s 			page 44


 2426 036e 0B       		.uleb128 0xb
 2427 036f 6C030000 		.4byte	0x36c
 2428 0373 03       		.uleb128 0x3
 2429 0374 5C060000 		.4byte	.LASF67
 2430 0378 0B       		.byte	0xb
 2431 0379 61       		.byte	0x61
 2432 037a 7E030000 		.4byte	0x37e
 2433 037e 0C       		.uleb128 0xc
 2434 037f 3F070000 		.4byte	.LASF68
 2435 0383 14       		.byte	0x14
 2436 0384 03       		.byte	0x3
 2437 0385 6B01     		.2byte	0x16b
 2438 0387 CD030000 		.4byte	0x3cd
 2439 038b 09       		.uleb128 0x9
 2440 038c D1030000 		.4byte	.LASF69
 2441 0390 03       		.byte	0x3
 2442 0391 6C01     		.2byte	0x16c
 2443 0393 FF070000 		.4byte	0x7ff
 2444 0397 00       		.byte	0
 2445 0398 09       		.uleb128 0x9
 2446 0399 75030000 		.4byte	.LASF70
 2447 039d 03       		.byte	0x3
 2448 039e 6D01     		.2byte	0x16d
 2449 03a0 FF070000 		.4byte	0x7ff
 2450 03a4 04       		.byte	0x4
 2451 03a5 09       		.uleb128 0x9
 2452 03a6 3D040000 		.4byte	.LASF71
 2453 03aa 03       		.byte	0x3
 2454 03ab 6E01     		.2byte	0x16e
 2455 03ad 5E010000 		.4byte	0x15e
 2456 03b1 08       		.byte	0x8
 2457 03b2 09       		.uleb128 0x9
 2458 03b3 71090000 		.4byte	.LASF72
 2459 03b7 03       		.byte	0x3
 2460 03b8 6F01     		.2byte	0x16f
 2461 03ba 50030000 		.4byte	0x350
 2462 03be 0C       		.byte	0xc
 2463 03bf 09       		.uleb128 0x9
 2464 03c0 A0080000 		.4byte	.LASF73
 2465 03c4 03       		.byte	0x3
 2466 03c5 7101     		.2byte	0x171
 2467 03c7 6C030000 		.4byte	0x36c
 2468 03cb 10       		.byte	0x10
 2469 03cc 00       		.byte	0
 2470 03cd 03       		.uleb128 0x3
 2471 03ce 1C010000 		.4byte	.LASF74
 2472 03d2 0B       		.byte	0xb
 2473 03d3 66       		.byte	0x66
 2474 03d4 D8030000 		.4byte	0x3d8
 2475 03d8 0C       		.uleb128 0xc
 2476 03d9 47050000 		.4byte	.LASF75
 2477 03dd 10       		.byte	0x10
 2478 03de 03       		.byte	0x3
 2479 03df 7B01     		.2byte	0x17b
 2480 03e1 1A040000 		.4byte	0x41a
 2481 03e5 09       		.uleb128 0x9
 2482 03e6 D1030000 		.4byte	.LASF69
ARM GAS  /tmp/ccaMab5i.s 			page 45


 2483 03ea 03       		.byte	0x3
 2484 03eb 7C01     		.2byte	0x17c
 2485 03ed FF070000 		.4byte	0x7ff
 2486 03f1 00       		.byte	0
 2487 03f2 09       		.uleb128 0x9
 2488 03f3 75030000 		.4byte	.LASF70
 2489 03f7 03       		.byte	0x3
 2490 03f8 7E01     		.2byte	0x17e
 2491 03fa FF070000 		.4byte	0x7ff
 2492 03fe 04       		.byte	0x4
 2493 03ff 09       		.uleb128 0x9
 2494 0400 3D040000 		.4byte	.LASF71
 2495 0404 03       		.byte	0x3
 2496 0405 8001     		.2byte	0x180
 2497 0407 5E010000 		.4byte	0x15e
 2498 040b 08       		.byte	0x8
 2499 040c 09       		.uleb128 0x9
 2500 040d 24090000 		.4byte	.LASF76
 2501 0411 03       		.byte	0x3
 2502 0412 8201     		.2byte	0x182
 2503 0414 69010000 		.4byte	0x169
 2504 0418 0C       		.byte	0xc
 2505 0419 00       		.byte	0
 2506 041a 03       		.uleb128 0x3
 2507 041b 84000000 		.4byte	.LASF77
 2508 041f 0B       		.byte	0xb
 2509 0420 6B       		.byte	0x6b
 2510 0421 25040000 		.4byte	0x425
 2511 0425 0C       		.uleb128 0xc
 2512 0426 7D030000 		.4byte	.LASF78
 2513 042a 0C       		.byte	0xc
 2514 042b 03       		.byte	0x3
 2515 042c A201     		.2byte	0x1a2
 2516 042e 5A040000 		.4byte	0x45a
 2517 0432 09       		.uleb128 0x9
 2518 0433 F1080000 		.4byte	.LASF79
 2519 0437 03       		.byte	0x3
 2520 0438 AA01     		.2byte	0x1aa
 2521 043a E8070000 		.4byte	0x7e8
 2522 043e 00       		.byte	0
 2523 043f 09       		.uleb128 0x9
 2524 0440 CD080000 		.4byte	.LASF80
 2525 0444 03       		.byte	0x3
 2526 0445 AF01     		.2byte	0x1af
 2527 0447 48010000 		.4byte	0x148
 2528 044b 04       		.byte	0x4
 2529 044c 09       		.uleb128 0x9
 2530 044d 9B030000 		.4byte	.LASF81
 2531 0451 03       		.byte	0x3
 2532 0452 B301     		.2byte	0x1b3
 2533 0454 48010000 		.4byte	0x148
 2534 0458 08       		.byte	0x8
 2535 0459 00       		.byte	0
 2536 045a 03       		.uleb128 0x3
 2537 045b A9040000 		.4byte	.LASF82
 2538 045f 0B       		.byte	0xb
 2539 0460 70       		.byte	0x70
ARM GAS  /tmp/ccaMab5i.s 			page 46


 2540 0461 65040000 		.4byte	0x465
 2541 0465 10       		.uleb128 0x10
 2542 0466 F4010000 		.4byte	.LASF83
 2543 046a 5802     		.2byte	0x258
 2544 046c 03       		.byte	0x3
 2545 046d C201     		.2byte	0x1c2
 2546 046f CE040000 		.4byte	0x4ce
 2547 0473 09       		.uleb128 0x9
 2548 0474 D5080000 		.4byte	.LASF84
 2549 0478 03       		.byte	0x3
 2550 0479 C601     		.2byte	0x1c6
 2551 047b E9020000 		.4byte	0x2e9
 2552 047f 00       		.byte	0
 2553 0480 09       		.uleb128 0x9
 2554 0481 DB010000 		.4byte	.LASF85
 2555 0485 03       		.byte	0x3
 2556 0486 CA01     		.2byte	0x1ca
 2557 0488 CD030000 		.4byte	0x3cd
 2558 048c 1C       		.byte	0x1c
 2559 048d 08       		.uleb128 0x8
 2560 048e 64626700 		.ascii	"dbg\000"
 2561 0492 03       		.byte	0x3
 2562 0493 CE01     		.2byte	0x1ce
 2563 0495 1A040000 		.4byte	0x41a
 2564 0499 2C       		.byte	0x2c
 2565 049a 09       		.uleb128 0x9
 2566 049b 0C010000 		.4byte	.LASF86
 2567 049f 03       		.byte	0x3
 2568 04a0 D201     		.2byte	0x1d2
 2569 04a2 6E010000 		.4byte	0x16e
 2570 04a6 38       		.byte	0x38
 2571 04a7 08       		.uleb128 0x8
 2572 04a8 746D00   		.ascii	"tm\000"
 2573 04ab 03       		.byte	0x3
 2574 04ac D701     		.2byte	0x1d7
 2575 04ae 80060000 		.4byte	0x680
 2576 04b2 98       		.byte	0x98
 2577 04b3 09       		.uleb128 0x9
 2578 04b4 3C060000 		.4byte	.LASF87
 2579 04b8 03       		.byte	0x3
 2580 04b9 DD01     		.2byte	0x1dd
 2581 04bb 12070000 		.4byte	0x712
 2582 04bf A0       		.byte	0xa0
 2583 04c0 09       		.uleb128 0x9
 2584 04c1 A4030000 		.4byte	.LASF88
 2585 04c5 03       		.byte	0x3
 2586 04c6 E301     		.2byte	0x1e3
 2587 04c8 05080000 		.4byte	0x805
 2588 04cc D8       		.byte	0xd8
 2589 04cd 00       		.byte	0
 2590 04ce 04       		.uleb128 0x4
 2591 04cf 04       		.byte	0x4
 2592 04d0 07       		.byte	0x7
 2593 04d1 3E050000 		.4byte	.LASF89
 2594 04d5 11       		.uleb128 0x11
 2595 04d6 32010000 		.4byte	.LASF90
 2596 04da 0C       		.byte	0xc
ARM GAS  /tmp/ccaMab5i.s 			page 47


 2597 04db FA06     		.2byte	0x6fa
 2598 04dd D5000000 		.4byte	0xd5
 2599 04e1 12       		.uleb128 0x12
 2600 04e2 E2030000 		.4byte	.LASF91
 2601 04e6 0D       		.byte	0xd
 2602 04e7 4C       		.byte	0x4c
 2603 04e8 DA000000 		.4byte	0xda
 2604 04ec 03       		.uleb128 0x3
 2605 04ed 6C030000 		.4byte	.LASF92
 2606 04f1 0E       		.byte	0xe
 2607 04f2 65       		.byte	0x65
 2608 04f3 6C030000 		.4byte	0x36c
 2609 04f7 03       		.uleb128 0x3
 2610 04f8 06050000 		.4byte	.LASF93
 2611 04fc 0E       		.byte	0xe
 2612 04fd 6D       		.byte	0x6d
 2613 04fe E5000000 		.4byte	0xe5
 2614 0502 06       		.uleb128 0x6
 2615 0503 81080000 		.4byte	.LASF94
 2616 0507 04       		.byte	0x4
 2617 0508 0E       		.byte	0xe
 2618 0509 89       		.byte	0x89
 2619 050a 1B050000 		.4byte	0x51b
 2620 050e 13       		.uleb128 0x13
 2621 050f 72313300 		.ascii	"r13\000"
 2622 0513 0E       		.byte	0xe
 2623 0514 8A       		.byte	0x8a
 2624 0515 65060000 		.4byte	0x665
 2625 0519 00       		.byte	0
 2626 051a 00       		.byte	0
 2627 051b 06       		.uleb128 0x6
 2628 051c 67000000 		.4byte	.LASF95
 2629 0520 64       		.byte	0x64
 2630 0521 01       		.byte	0x1
 2631 0522 FD       		.byte	0xfd
 2632 0523 65060000 		.4byte	0x665
 2633 0527 13       		.uleb128 0x13
 2634 0528 73313600 		.ascii	"s16\000"
 2635 052c 01       		.byte	0x1
 2636 052d FF       		.byte	0xff
 2637 052e EC040000 		.4byte	0x4ec
 2638 0532 00       		.byte	0
 2639 0533 08       		.uleb128 0x8
 2640 0534 73313700 		.ascii	"s17\000"
 2641 0538 01       		.byte	0x1
 2642 0539 0001     		.2byte	0x100
 2643 053b EC040000 		.4byte	0x4ec
 2644 053f 04       		.byte	0x4
 2645 0540 08       		.uleb128 0x8
 2646 0541 73313800 		.ascii	"s18\000"
 2647 0545 01       		.byte	0x1
 2648 0546 0101     		.2byte	0x101
 2649 0548 EC040000 		.4byte	0x4ec
 2650 054c 08       		.byte	0x8
 2651 054d 08       		.uleb128 0x8
 2652 054e 73313900 		.ascii	"s19\000"
 2653 0552 01       		.byte	0x1
ARM GAS  /tmp/ccaMab5i.s 			page 48


 2654 0553 0201     		.2byte	0x102
 2655 0555 EC040000 		.4byte	0x4ec
 2656 0559 0C       		.byte	0xc
 2657 055a 08       		.uleb128 0x8
 2658 055b 73323000 		.ascii	"s20\000"
 2659 055f 01       		.byte	0x1
 2660 0560 0301     		.2byte	0x103
 2661 0562 EC040000 		.4byte	0x4ec
 2662 0566 10       		.byte	0x10
 2663 0567 08       		.uleb128 0x8
 2664 0568 73323100 		.ascii	"s21\000"
 2665 056c 01       		.byte	0x1
 2666 056d 0401     		.2byte	0x104
 2667 056f EC040000 		.4byte	0x4ec
 2668 0573 14       		.byte	0x14
 2669 0574 08       		.uleb128 0x8
 2670 0575 73323200 		.ascii	"s22\000"
 2671 0579 01       		.byte	0x1
 2672 057a 0501     		.2byte	0x105
 2673 057c EC040000 		.4byte	0x4ec
 2674 0580 18       		.byte	0x18
 2675 0581 08       		.uleb128 0x8
 2676 0582 73323300 		.ascii	"s23\000"
 2677 0586 01       		.byte	0x1
 2678 0587 0601     		.2byte	0x106
 2679 0589 EC040000 		.4byte	0x4ec
 2680 058d 1C       		.byte	0x1c
 2681 058e 08       		.uleb128 0x8
 2682 058f 73323400 		.ascii	"s24\000"
 2683 0593 01       		.byte	0x1
 2684 0594 0701     		.2byte	0x107
 2685 0596 EC040000 		.4byte	0x4ec
 2686 059a 20       		.byte	0x20
 2687 059b 08       		.uleb128 0x8
 2688 059c 73323500 		.ascii	"s25\000"
 2689 05a0 01       		.byte	0x1
 2690 05a1 0801     		.2byte	0x108
 2691 05a3 EC040000 		.4byte	0x4ec
 2692 05a7 24       		.byte	0x24
 2693 05a8 08       		.uleb128 0x8
 2694 05a9 73323600 		.ascii	"s26\000"
 2695 05ad 01       		.byte	0x1
 2696 05ae 0901     		.2byte	0x109
 2697 05b0 EC040000 		.4byte	0x4ec
 2698 05b4 28       		.byte	0x28
 2699 05b5 08       		.uleb128 0x8
 2700 05b6 73323700 		.ascii	"s27\000"
 2701 05ba 01       		.byte	0x1
 2702 05bb 0A01     		.2byte	0x10a
 2703 05bd EC040000 		.4byte	0x4ec
 2704 05c1 2C       		.byte	0x2c
 2705 05c2 08       		.uleb128 0x8
 2706 05c3 73323800 		.ascii	"s28\000"
 2707 05c7 01       		.byte	0x1
 2708 05c8 0B01     		.2byte	0x10b
 2709 05ca EC040000 		.4byte	0x4ec
 2710 05ce 30       		.byte	0x30
ARM GAS  /tmp/ccaMab5i.s 			page 49


 2711 05cf 08       		.uleb128 0x8
 2712 05d0 73323900 		.ascii	"s29\000"
 2713 05d4 01       		.byte	0x1
 2714 05d5 0C01     		.2byte	0x10c
 2715 05d7 EC040000 		.4byte	0x4ec
 2716 05db 34       		.byte	0x34
 2717 05dc 08       		.uleb128 0x8
 2718 05dd 73333000 		.ascii	"s30\000"
 2719 05e1 01       		.byte	0x1
 2720 05e2 0D01     		.2byte	0x10d
 2721 05e4 EC040000 		.4byte	0x4ec
 2722 05e8 38       		.byte	0x38
 2723 05e9 08       		.uleb128 0x8
 2724 05ea 73333100 		.ascii	"s31\000"
 2725 05ee 01       		.byte	0x1
 2726 05ef 0E01     		.2byte	0x10e
 2727 05f1 EC040000 		.4byte	0x4ec
 2728 05f5 3C       		.byte	0x3c
 2729 05f6 08       		.uleb128 0x8
 2730 05f7 723400   		.ascii	"r4\000"
 2731 05fa 01       		.byte	0x1
 2732 05fb 1001     		.2byte	0x110
 2733 05fd EC040000 		.4byte	0x4ec
 2734 0601 40       		.byte	0x40
 2735 0602 08       		.uleb128 0x8
 2736 0603 723500   		.ascii	"r5\000"
 2737 0606 01       		.byte	0x1
 2738 0607 1101     		.2byte	0x111
 2739 0609 EC040000 		.4byte	0x4ec
 2740 060d 44       		.byte	0x44
 2741 060e 08       		.uleb128 0x8
 2742 060f 723600   		.ascii	"r6\000"
 2743 0612 01       		.byte	0x1
 2744 0613 1201     		.2byte	0x112
 2745 0615 EC040000 		.4byte	0x4ec
 2746 0619 48       		.byte	0x48
 2747 061a 08       		.uleb128 0x8
 2748 061b 723700   		.ascii	"r7\000"
 2749 061e 01       		.byte	0x1
 2750 061f 1301     		.2byte	0x113
 2751 0621 EC040000 		.4byte	0x4ec
 2752 0625 4C       		.byte	0x4c
 2753 0626 08       		.uleb128 0x8
 2754 0627 723800   		.ascii	"r8\000"
 2755 062a 01       		.byte	0x1
 2756 062b 1401     		.2byte	0x114
 2757 062d EC040000 		.4byte	0x4ec
 2758 0631 50       		.byte	0x50
 2759 0632 08       		.uleb128 0x8
 2760 0633 723900   		.ascii	"r9\000"
 2761 0636 01       		.byte	0x1
 2762 0637 1501     		.2byte	0x115
 2763 0639 EC040000 		.4byte	0x4ec
 2764 063d 54       		.byte	0x54
 2765 063e 08       		.uleb128 0x8
 2766 063f 72313000 		.ascii	"r10\000"
 2767 0643 01       		.byte	0x1
ARM GAS  /tmp/ccaMab5i.s 			page 50


 2768 0644 1601     		.2byte	0x116
 2769 0646 EC040000 		.4byte	0x4ec
 2770 064a 58       		.byte	0x58
 2771 064b 08       		.uleb128 0x8
 2772 064c 72313100 		.ascii	"r11\000"
 2773 0650 01       		.byte	0x1
 2774 0651 1701     		.2byte	0x117
 2775 0653 EC040000 		.4byte	0x4ec
 2776 0657 5C       		.byte	0x5c
 2777 0658 08       		.uleb128 0x8
 2778 0659 6C7200   		.ascii	"lr\000"
 2779 065c 01       		.byte	0x1
 2780 065d 1801     		.2byte	0x118
 2781 065f EC040000 		.4byte	0x4ec
 2782 0663 60       		.byte	0x60
 2783 0664 00       		.byte	0
 2784 0665 0A       		.uleb128 0xa
 2785 0666 04       		.byte	0x4
 2786 0667 1B050000 		.4byte	0x51b
 2787 066b 14       		.uleb128 0x14
 2788 066c 04       		.byte	0x4
 2789 066d 0F       		.byte	0xf
 2790 066e 38       		.byte	0x38
 2791 066f 80060000 		.4byte	0x680
 2792 0673 07       		.uleb128 0x7
 2793 0674 7A080000 		.4byte	.LASF96
 2794 0678 0F       		.byte	0xf
 2795 0679 3C       		.byte	0x3c
 2796 067a F0000000 		.4byte	0xf0
 2797 067e 00       		.byte	0
 2798 067f 00       		.byte	0
 2799 0680 03       		.uleb128 0x3
 2800 0681 8A050000 		.4byte	.LASF97
 2801 0685 0F       		.byte	0xf
 2802 0686 3D       		.byte	0x3d
 2803 0687 6B060000 		.4byte	0x66b
 2804 068b 14       		.uleb128 0x14
 2805 068c 18       		.byte	0x18
 2806 068d 0F       		.byte	0xf
 2807 068e 48       		.byte	0x48
 2808 068f CE060000 		.4byte	0x6ce
 2809 0693 07       		.uleb128 0x7
 2810 0694 10080000 		.4byte	.LASF98
 2811 0698 0F       		.byte	0xf
 2812 0699 49       		.byte	0x49
 2813 069a F0000000 		.4byte	0xf0
 2814 069e 00       		.byte	0
 2815 069f 07       		.uleb128 0x7
 2816 06a0 B3000000 		.4byte	.LASF99
 2817 06a4 0F       		.byte	0xf
 2818 06a5 4A       		.byte	0x4a
 2819 06a6 F0000000 		.4byte	0xf0
 2820 06aa 04       		.byte	0x4
 2821 06ab 07       		.uleb128 0x7
 2822 06ac 9D040000 		.4byte	.LASF100
 2823 06b0 0F       		.byte	0xf
 2824 06b1 4B       		.byte	0x4b
ARM GAS  /tmp/ccaMab5i.s 			page 51


 2825 06b2 F0000000 		.4byte	0xf0
 2826 06b6 08       		.byte	0x8
 2827 06b7 13       		.uleb128 0x13
 2828 06b8 6E00     		.ascii	"n\000"
 2829 06ba 0F       		.byte	0xf
 2830 06bb 4C       		.byte	0x4c
 2831 06bc 53010000 		.4byte	0x153
 2832 06c0 0C       		.byte	0xc
 2833 06c1 07       		.uleb128 0x7
 2834 06c2 10060000 		.4byte	.LASF101
 2835 06c6 0F       		.byte	0xf
 2836 06c7 4D       		.byte	0x4d
 2837 06c8 FB000000 		.4byte	0xfb
 2838 06cc 10       		.byte	0x10
 2839 06cd 00       		.byte	0
 2840 06ce 03       		.uleb128 0x3
 2841 06cf B9000000 		.4byte	.LASF102
 2842 06d3 0F       		.byte	0xf
 2843 06d4 4E       		.byte	0x4e
 2844 06d5 8B060000 		.4byte	0x68b
 2845 06d9 14       		.uleb128 0x14
 2846 06da 38       		.byte	0x38
 2847 06db 10       		.byte	0x10
 2848 06dc 38       		.byte	0x38
 2849 06dd 12070000 		.4byte	0x712
 2850 06e1 07       		.uleb128 0x7
 2851 06e2 5A040000 		.4byte	.LASF103
 2852 06e6 10       		.byte	0x10
 2853 06e7 39       		.byte	0x39
 2854 06e8 53010000 		.4byte	0x153
 2855 06ec 00       		.byte	0
 2856 06ed 07       		.uleb128 0x7
 2857 06ee 83060000 		.4byte	.LASF104
 2858 06f2 10       		.byte	0x10
 2859 06f3 3A       		.byte	0x3a
 2860 06f4 53010000 		.4byte	0x153
 2861 06f8 04       		.byte	0x4
 2862 06f9 07       		.uleb128 0x7
 2863 06fa 50090000 		.4byte	.LASF105
 2864 06fe 10       		.byte	0x10
 2865 06ff 3B       		.byte	0x3b
 2866 0700 CE060000 		.4byte	0x6ce
 2867 0704 08       		.byte	0x8
 2868 0705 07       		.uleb128 0x7
 2869 0706 D7040000 		.4byte	.LASF106
 2870 070a 10       		.byte	0x10
 2871 070b 3D       		.byte	0x3d
 2872 070c CE060000 		.4byte	0x6ce
 2873 0710 20       		.byte	0x20
 2874 0711 00       		.byte	0
 2875 0712 03       		.uleb128 0x3
 2876 0713 7E040000 		.4byte	.LASF107
 2877 0717 10       		.byte	0x10
 2878 0718 3F       		.byte	0x3f
 2879 0719 D9060000 		.4byte	0x6d9
 2880 071d 15       		.uleb128 0x15
 2881 071e 04       		.byte	0x4
ARM GAS  /tmp/ccaMab5i.s 			page 52


 2882 071f 03       		.byte	0x3
 2883 0720 FA       		.byte	0xfa
 2884 0721 7A070000 		.4byte	0x77a
 2885 0725 16       		.uleb128 0x16
 2886 0726 30000000 		.4byte	.LASF108
 2887 072a 03       		.byte	0x3
 2888 072b 0101     		.2byte	0x101
 2889 072d 32010000 		.4byte	0x132
 2890 0731 16       		.uleb128 0x16
 2891 0732 03010000 		.4byte	.LASF109
 2892 0736 03       		.byte	0x3
 2893 0737 0801     		.2byte	0x108
 2894 0739 32010000 		.4byte	0x132
 2895 073d 16       		.uleb128 0x16
 2896 073e 0E090000 		.4byte	.LASF110
 2897 0742 03       		.byte	0x3
 2898 0743 0F01     		.2byte	0x10f
 2899 0745 6C030000 		.4byte	0x36c
 2900 0749 16       		.uleb128 0x16
 2901 074a EE010000 		.4byte	.LASF111
 2902 074e 03       		.byte	0x3
 2903 074f 1601     		.2byte	0x116
 2904 0751 7A070000 		.4byte	0x77a
 2905 0755 16       		.uleb128 0x16
 2906 0756 36040000 		.4byte	.LASF112
 2907 075a 03       		.byte	0x3
 2908 075b 1E01     		.2byte	0x11e
 2909 075d A5070000 		.4byte	0x7a5
 2910 0761 16       		.uleb128 0x16
 2911 0762 F5070000 		.4byte	.LASF113
 2912 0766 03       		.byte	0x3
 2913 0767 2701     		.2byte	0x127
 2914 0769 DC070000 		.4byte	0x7dc
 2915 076d 16       		.uleb128 0x16
 2916 076e E7060000 		.4byte	.LASF114
 2917 0772 03       		.byte	0x3
 2918 0773 2F01     		.2byte	0x12f
 2919 0775 3D010000 		.4byte	0x13d
 2920 0779 00       		.byte	0
 2921 077a 0A       		.uleb128 0xa
 2922 077b 04       		.byte	0x4
 2923 077c 7F020000 		.4byte	0x27f
 2924 0780 06       		.uleb128 0x6
 2925 0781 6A070000 		.4byte	.LASF115
 2926 0785 0C       		.byte	0xc
 2927 0786 11       		.byte	0x11
 2928 0787 34       		.byte	0x34
 2929 0788 A5070000 		.4byte	0x7a5
 2930 078c 07       		.uleb128 0x7
 2931 078d 50030000 		.4byte	.LASF116
 2932 0791 11       		.byte	0x11
 2933 0792 35       		.byte	0x35
 2934 0793 B4020000 		.4byte	0x2b4
 2935 0797 00       		.byte	0
 2936 0798 07       		.uleb128 0x7
 2937 0799 60040000 		.4byte	.LASF117
 2938 079d 11       		.byte	0x11
ARM GAS  /tmp/ccaMab5i.s 			page 53


 2939 079e 37       		.byte	0x37
 2940 079f 48010000 		.4byte	0x148
 2941 07a3 08       		.byte	0x8
 2942 07a4 00       		.byte	0
 2943 07a5 0A       		.uleb128 0xa
 2944 07a6 04       		.byte	0x4
 2945 07a7 80070000 		.4byte	0x780
 2946 07ab 06       		.uleb128 0x6
 2947 07ac BD080000 		.4byte	.LASF118
 2948 07b0 10       		.byte	0x10
 2949 07b1 12       		.byte	0x12
 2950 07b2 39       		.byte	0x39
 2951 07b3 DC070000 		.4byte	0x7dc
 2952 07b7 07       		.uleb128 0x7
 2953 07b8 A8060000 		.4byte	.LASF119
 2954 07bc 12       		.byte	0x12
 2955 07bd 3A       		.byte	0x3a
 2956 07be B4020000 		.4byte	0x2b4
 2957 07c2 00       		.byte	0
 2958 07c3 07       		.uleb128 0x7
 2959 07c4 5B090000 		.4byte	.LASF120
 2960 07c8 12       		.byte	0x12
 2961 07c9 3C       		.byte	0x3c
 2962 07ca 8A020000 		.4byte	0x28a
 2963 07ce 08       		.byte	0x8
 2964 07cf 07       		.uleb128 0x7
 2965 07d0 15080000 		.4byte	.LASF121
 2966 07d4 12       		.byte	0x12
 2967 07d5 3E       		.byte	0x3e
 2968 07d6 37090000 		.4byte	0x937
 2969 07da 0C       		.byte	0xc
 2970 07db 00       		.byte	0
 2971 07dc 0A       		.uleb128 0xa
 2972 07dd 04       		.byte	0x4
 2973 07de AB070000 		.4byte	0x7ab
 2974 07e2 0A       		.uleb128 0xa
 2975 07e3 04       		.byte	0x4
 2976 07e4 F4070000 		.4byte	0x7f4
 2977 07e8 05       		.uleb128 0x5
 2978 07e9 E2070000 		.4byte	0x7e2
 2979 07ed 04       		.uleb128 0x4
 2980 07ee 01       		.byte	0x1
 2981 07ef 08       		.byte	0x8
 2982 07f0 E5070000 		.4byte	.LASF122
 2983 07f4 0B       		.uleb128 0xb
 2984 07f5 ED070000 		.4byte	0x7ed
 2985 07f9 0A       		.uleb128 0xa
 2986 07fa 04       		.byte	0x4
 2987 07fb F7040000 		.4byte	0x4f7
 2988 07ff 0A       		.uleb128 0xa
 2989 0800 04       		.byte	0x4
 2990 0801 73030000 		.4byte	0x373
 2991 0805 17       		.uleb128 0x17
 2992 0806 F7040000 		.4byte	0x4f7
 2993 080a 15080000 		.4byte	0x815
 2994 080e 18       		.uleb128 0x18
 2995 080f CE040000 		.4byte	0x4ce
ARM GAS  /tmp/ccaMab5i.s 			page 54


 2996 0813 2F       		.byte	0x2f
 2997 0814 00       		.byte	0
 2998 0815 19       		.uleb128 0x19
 2999 0816 636800   		.ascii	"ch\000"
 3000 0819 03       		.byte	0x3
 3001 081a 0902     		.2byte	0x209
 3002 081c 5A040000 		.4byte	0x45a
 3003 0820 14       		.uleb128 0x14
 3004 0821 16       		.byte	0x16
 3005 0822 13       		.byte	0x13
 3006 0823 34       		.byte	0x34
 3007 0824 01090000 		.4byte	0x901
 3008 0828 07       		.uleb128 0x7
 3009 0829 63090000 		.4byte	.LASF123
 3010 082d 13       		.byte	0x13
 3011 082e 35       		.byte	0x35
 3012 082f 01090000 		.4byte	0x901
 3013 0833 00       		.byte	0
 3014 0834 07       		.uleb128 0x7
 3015 0835 19050000 		.4byte	.LASF124
 3016 0839 13       		.byte	0x13
 3017 083a 36       		.byte	0x36
 3018 083b B4000000 		.4byte	0xb4
 3019 083f 04       		.byte	0x4
 3020 0840 07       		.uleb128 0x7
 3021 0841 1C090000 		.4byte	.LASF125
 3022 0845 13       		.byte	0x13
 3023 0846 37       		.byte	0x37
 3024 0847 B4000000 		.4byte	0xb4
 3025 084b 05       		.byte	0x5
 3026 084c 07       		.uleb128 0x7
 3027 084d 45090000 		.4byte	.LASF126
 3028 0851 13       		.byte	0x13
 3029 0852 38       		.byte	0x38
 3030 0853 BF000000 		.4byte	0xbf
 3031 0857 06       		.byte	0x6
 3032 0858 07       		.uleb128 0x7
 3033 0859 51060000 		.4byte	.LASF127
 3034 085d 13       		.byte	0x13
 3035 085e 39       		.byte	0x39
 3036 085f B4000000 		.4byte	0xb4
 3037 0863 08       		.byte	0x8
 3038 0864 07       		.uleb128 0x7
 3039 0865 71050000 		.4byte	.LASF128
 3040 0869 13       		.byte	0x13
 3041 086a 3A       		.byte	0x3a
 3042 086b B4000000 		.4byte	0xb4
 3043 086f 09       		.byte	0x9
 3044 0870 07       		.uleb128 0x7
 3045 0871 F5000000 		.4byte	.LASF129
 3046 0875 13       		.byte	0x13
 3047 0876 3B       		.byte	0x3b
 3048 0877 B4000000 		.4byte	0xb4
 3049 087b 0A       		.byte	0xa
 3050 087c 07       		.uleb128 0x7
 3051 087d 8B070000 		.4byte	.LASF130
 3052 0881 13       		.byte	0x13
ARM GAS  /tmp/ccaMab5i.s 			page 55


 3053 0882 3C       		.byte	0x3c
 3054 0883 B4000000 		.4byte	0xb4
 3055 0887 0B       		.byte	0xb
 3056 0888 07       		.uleb128 0x7
 3057 0889 B5040000 		.4byte	.LASF131
 3058 088d 13       		.byte	0x13
 3059 088e 3D       		.byte	0x3d
 3060 088f B4000000 		.4byte	0xb4
 3061 0893 0C       		.byte	0xc
 3062 0894 07       		.uleb128 0x7
 3063 0895 50070000 		.4byte	.LASF132
 3064 0899 13       		.byte	0x13
 3065 089a 3E       		.byte	0x3e
 3066 089b B4000000 		.4byte	0xb4
 3067 089f 0D       		.byte	0xd
 3068 08a0 07       		.uleb128 0x7
 3069 08a1 0F000000 		.4byte	.LASF133
 3070 08a5 13       		.byte	0x13
 3071 08a6 3F       		.byte	0x3f
 3072 08a7 B4000000 		.4byte	0xb4
 3073 08ab 0E       		.byte	0xe
 3074 08ac 07       		.uleb128 0x7
 3075 08ad 9B050000 		.4byte	.LASF134
 3076 08b1 13       		.byte	0x13
 3077 08b2 40       		.byte	0x40
 3078 08b3 B4000000 		.4byte	0xb4
 3079 08b7 0F       		.byte	0xf
 3080 08b8 07       		.uleb128 0x7
 3081 08b9 A1010000 		.4byte	.LASF135
 3082 08bd 13       		.byte	0x13
 3083 08be 41       		.byte	0x41
 3084 08bf B4000000 		.4byte	0xb4
 3085 08c3 10       		.byte	0x10
 3086 08c4 07       		.uleb128 0x7
 3087 08c5 5C010000 		.4byte	.LASF136
 3088 08c9 13       		.byte	0x13
 3089 08ca 43       		.byte	0x43
 3090 08cb B4000000 		.4byte	0xb4
 3091 08cf 11       		.byte	0x11
 3092 08d0 07       		.uleb128 0x7
 3093 08d1 B1010000 		.4byte	.LASF137
 3094 08d5 13       		.byte	0x13
 3095 08d6 44       		.byte	0x44
 3096 08d7 B4000000 		.4byte	0xb4
 3097 08db 12       		.byte	0x12
 3098 08dc 07       		.uleb128 0x7
 3099 08dd 21050000 		.4byte	.LASF138
 3100 08e1 13       		.byte	0x13
 3101 08e2 45       		.byte	0x45
 3102 08e3 B4000000 		.4byte	0xb4
 3103 08e7 13       		.byte	0x13
 3104 08e8 07       		.uleb128 0x7
 3105 08e9 FD060000 		.4byte	.LASF139
 3106 08ed 13       		.byte	0x13
 3107 08ee 46       		.byte	0x46
 3108 08ef B4000000 		.4byte	0xb4
 3109 08f3 14       		.byte	0x14
ARM GAS  /tmp/ccaMab5i.s 			page 56


 3110 08f4 07       		.uleb128 0x7
 3111 08f5 CB040000 		.4byte	.LASF140
 3112 08f9 13       		.byte	0x13
 3113 08fa 48       		.byte	0x48
 3114 08fb B4000000 		.4byte	0xb4
 3115 08ff 15       		.byte	0x15
 3116 0900 00       		.byte	0
 3117 0901 17       		.uleb128 0x17
 3118 0902 ED070000 		.4byte	0x7ed
 3119 0906 11090000 		.4byte	0x911
 3120 090a 18       		.uleb128 0x18
 3121 090b CE040000 		.4byte	0x4ce
 3122 090f 03       		.byte	0x3
 3123 0910 00       		.byte	0
 3124 0911 03       		.uleb128 0x3
 3125 0912 29030000 		.4byte	.LASF141
 3126 0916 13       		.byte	0x13
 3127 0917 49       		.byte	0x49
 3128 0918 20080000 		.4byte	0x820
 3129 091c 0B       		.uleb128 0xb
 3130 091d 11090000 		.4byte	0x911
 3131 0921 12       		.uleb128 0x12
 3132 0922 51040000 		.4byte	.LASF142
 3133 0926 13       		.byte	0x13
 3134 0927 6E       		.byte	0x6e
 3135 0928 1C090000 		.4byte	0x91c
 3136 092c 03       		.uleb128 0x3
 3137 092d 8D030000 		.4byte	.LASF143
 3138 0931 12       		.byte	0x12
 3139 0932 34       		.byte	0x34
 3140 0933 AB070000 		.4byte	0x7ab
 3141 0937 0A       		.uleb128 0xa
 3142 0938 04       		.byte	0x4
 3143 0939 2C090000 		.4byte	0x92c
 3144 093d 06       		.uleb128 0x6
 3145 093e 5E050000 		.4byte	.LASF144
 3146 0942 08       		.byte	0x8
 3147 0943 14       		.byte	0x14
 3148 0944 3B       		.byte	0x3b
 3149 0945 56090000 		.4byte	0x956
 3150 0949 07       		.uleb128 0x7
 3151 094a 11050000 		.4byte	.LASF145
 3152 094e 14       		.byte	0x14
 3153 094f 3C       		.byte	0x3c
 3154 0950 B4020000 		.4byte	0x2b4
 3155 0954 00       		.byte	0
 3156 0955 00       		.byte	0
 3157 0956 03       		.uleb128 0x3
 3158 0957 8C010000 		.4byte	.LASF146
 3159 095b 14       		.byte	0x14
 3160 095c 3E       		.byte	0x3e
 3161 095d 3D090000 		.4byte	0x93d
 3162 0961 04       		.uleb128 0x4
 3163 0962 01       		.byte	0x1
 3164 0963 02       		.byte	0x2
 3165 0964 8C060000 		.4byte	.LASF147
 3166 0968 06       		.uleb128 0x6
ARM GAS  /tmp/ccaMab5i.s 			page 57


 3167 0969 A7080000 		.4byte	.LASF148
 3168 096d 10       		.byte	0x10
 3169 096e 15       		.byte	0x15
 3170 096f 3B       		.byte	0x3b
 3171 0970 A5090000 		.4byte	0x9a5
 3172 0974 07       		.uleb128 0x7
 3173 0975 66040000 		.4byte	.LASF149
 3174 0979 15       		.byte	0x15
 3175 097a 3C       		.byte	0x3c
 3176 097b E2070000 		.4byte	0x7e2
 3177 097f 00       		.byte	0
 3178 0980 07       		.uleb128 0x7
 3179 0981 36060000 		.4byte	.LASF150
 3180 0985 15       		.byte	0x15
 3181 0986 3D       		.byte	0x3d
 3182 0987 AB090000 		.4byte	0x9ab
 3183 098b 04       		.byte	0x4
 3184 098c 07       		.uleb128 0x7
 3185 098d 69010000 		.4byte	.LASF151
 3186 0991 15       		.byte	0x15
 3187 0992 3E       		.byte	0x3e
 3188 0993 AB090000 		.4byte	0x9ab
 3189 0997 08       		.byte	0x8
 3190 0998 07       		.uleb128 0x7
 3191 0999 73060000 		.4byte	.LASF152
 3192 099d 15       		.byte	0x15
 3193 099e 3F       		.byte	0x3f
 3194 099f AB090000 		.4byte	0x9ab
 3195 09a3 0C       		.byte	0xc
 3196 09a4 00       		.byte	0
 3197 09a5 0B       		.uleb128 0xb
 3198 09a6 68090000 		.4byte	0x968
 3199 09aa 1A       		.uleb128 0x1a
 3200 09ab 0A       		.uleb128 0xa
 3201 09ac 04       		.byte	0x4
 3202 09ad AA090000 		.4byte	0x9aa
 3203 09b1 1B       		.uleb128 0x1b
 3204 09b2 B009     		.2byte	0x9b0
 3205 09b4 15       		.byte	0x15
 3206 09b5 44       		.byte	0x44
 3207 09b6 F6090000 		.4byte	0x9f6
 3208 09ba 13       		.uleb128 0x13
 3209 09bb 543000   		.ascii	"T0\000"
 3210 09be 15       		.byte	0x15
 3211 09bf 45       		.byte	0x45
 3212 09c0 F6090000 		.4byte	0x9f6
 3213 09c4 00       		.byte	0
 3214 09c5 1C       		.uleb128 0x1c
 3215 09c6 543100   		.ascii	"T1\000"
 3216 09c9 15       		.byte	0x15
 3217 09ca 46       		.byte	0x46
 3218 09cb F6090000 		.4byte	0x9f6
 3219 09cf F001     		.2byte	0x1f0
 3220 09d1 1C       		.uleb128 0x1c
 3221 09d2 543200   		.ascii	"T2\000"
 3222 09d5 15       		.byte	0x15
 3223 09d6 47       		.byte	0x47
ARM GAS  /tmp/ccaMab5i.s 			page 58


 3224 09d7 F6090000 		.4byte	0x9f6
 3225 09db E003     		.2byte	0x3e0
 3226 09dd 1C       		.uleb128 0x1c
 3227 09de 543300   		.ascii	"T3\000"
 3228 09e1 15       		.byte	0x15
 3229 09e2 48       		.byte	0x48
 3230 09e3 F6090000 		.4byte	0x9f6
 3231 09e7 D005     		.2byte	0x5d0
 3232 09e9 1C       		.uleb128 0x1c
 3233 09ea 543400   		.ascii	"T4\000"
 3234 09ed 15       		.byte	0x15
 3235 09ee 49       		.byte	0x49
 3236 09ef F6090000 		.4byte	0x9f6
 3237 09f3 C007     		.2byte	0x7c0
 3238 09f5 00       		.byte	0
 3239 09f6 17       		.uleb128 0x17
 3240 09f7 F7040000 		.4byte	0x4f7
 3241 09fb 060A0000 		.4byte	0xa06
 3242 09ff 18       		.uleb128 0x18
 3243 0a00 CE040000 		.4byte	0x4ce
 3244 0a04 3D       		.byte	0x3d
 3245 0a05 00       		.byte	0
 3246 0a06 1D       		.uleb128 0x1d
 3247 0a07 B0080000 		.4byte	.LASF193
 3248 0a0b B009     		.2byte	0x9b0
 3249 0a0d 15       		.byte	0x15
 3250 0a0e 43       		.byte	0x43
 3251 0a0f 290A0000 		.4byte	0xa29
 3252 0a13 1E       		.uleb128 0x1e
 3253 0a14 776100   		.ascii	"wa\000"
 3254 0a17 15       		.byte	0x15
 3255 0a18 4A       		.byte	0x4a
 3256 0a19 B1090000 		.4byte	0x9b1
 3257 0a1d 1F       		.uleb128 0x1f
 3258 0a1e 33030000 		.4byte	.LASF153
 3259 0a22 15       		.byte	0x15
 3260 0a23 4B       		.byte	0x4b
 3261 0a24 290A0000 		.4byte	0xa29
 3262 0a28 00       		.byte	0
 3263 0a29 17       		.uleb128 0x17
 3264 0a2a B4000000 		.4byte	0xb4
 3265 0a2e 3A0A0000 		.4byte	0xa3a
 3266 0a32 20       		.uleb128 0x20
 3267 0a33 CE040000 		.4byte	0x4ce
 3268 0a37 AF09     		.2byte	0x9af
 3269 0a39 00       		.byte	0
 3270 0a3a 12       		.uleb128 0x12
 3271 0a3b 69080000 		.4byte	.LASF154
 3272 0a3f 15       		.byte	0x15
 3273 0a40 4F       		.byte	0x4f
 3274 0a41 61090000 		.4byte	0x961
 3275 0a45 17       		.uleb128 0x17
 3276 0a46 8A020000 		.4byte	0x28a
 3277 0a4a 550A0000 		.4byte	0xa55
 3278 0a4e 18       		.uleb128 0x18
 3279 0a4f CE040000 		.4byte	0x4ce
 3280 0a53 04       		.byte	0x4
ARM GAS  /tmp/ccaMab5i.s 			page 59


 3281 0a54 00       		.byte	0
 3282 0a55 12       		.uleb128 0x12
 3283 0a56 CF060000 		.4byte	.LASF155
 3284 0a5a 15       		.byte	0x15
 3285 0a5b A7       		.byte	0xa7
 3286 0a5c 450A0000 		.4byte	0xa45
 3287 0a60 12       		.uleb128 0x12
 3288 0a61 17010000 		.4byte	.LASF156
 3289 0a65 15       		.byte	0x15
 3290 0a66 A8       		.byte	0xa8
 3291 0a67 060A0000 		.4byte	0xa06
 3292 0a6b 17       		.uleb128 0x17
 3293 0a6c 6E030000 		.4byte	0x36e
 3294 0a70 760A0000 		.4byte	0xa76
 3295 0a74 21       		.uleb128 0x21
 3296 0a75 00       		.byte	0
 3297 0a76 0B       		.uleb128 0xb
 3298 0a77 6B0A0000 		.4byte	0xa6b
 3299 0a7b 22       		.uleb128 0x22
 3300 0a7c 776100   		.ascii	"wa\000"
 3301 0a7f 15       		.byte	0x15
 3302 0a80 A9       		.byte	0xa9
 3303 0a81 760A0000 		.4byte	0xa76
 3304 0a85 12       		.uleb128 0x12
 3305 0a86 D7060000 		.4byte	.LASF157
 3306 0a8a 15       		.byte	0x15
 3307 0a8b AA       		.byte	0xaa
 3308 0a8c 61090000 		.4byte	0x961
 3309 0a90 23       		.uleb128 0x23
 3310 0a91 6D3100   		.ascii	"m1\000"
 3311 0a94 06       		.byte	0x6
 3312 0a95 44       		.byte	0x44
 3313 0a96 2C090000 		.4byte	0x92c
 3314 0a9a 05       		.uleb128 0x5
 3315 0a9b 03       		.byte	0x3
 3316 0a9c 00000000 		.4byte	m1
 3317 0aa0 23       		.uleb128 0x23
 3318 0aa1 6D3200   		.ascii	"m2\000"
 3319 0aa4 06       		.byte	0x6
 3320 0aa5 45       		.byte	0x45
 3321 0aa6 2C090000 		.4byte	0x92c
 3322 0aaa 05       		.uleb128 0x5
 3323 0aab 03       		.byte	0x3
 3324 0aac 00000000 		.4byte	m2
 3325 0ab0 23       		.uleb128 0x23
 3326 0ab1 633100   		.ascii	"c1\000"
 3327 0ab4 06       		.byte	0x6
 3328 0ab5 47       		.byte	0x47
 3329 0ab6 56090000 		.4byte	0x956
 3330 0aba 05       		.uleb128 0x5
 3331 0abb 03       		.byte	0x3
 3332 0abc 00000000 		.4byte	c1
 3333 0ac0 24       		.uleb128 0x24
 3334 0ac1 60080000 		.4byte	.LASF158
 3335 0ac5 06       		.byte	0x6
 3336 0ac6 6F       		.byte	0x6f
 3337 0ac7 A5090000 		.4byte	0x9a5
ARM GAS  /tmp/ccaMab5i.s 			page 60


 3338 0acb 05       		.uleb128 0x5
 3339 0acc 03       		.byte	0x3
 3340 0acd 00000000 		.4byte	testmtx1
 3341 0ad1 25       		.uleb128 0x25
 3342 0ad2 AF070000 		.4byte	.LASF159
 3343 0ad6 06       		.byte	0x6
 3344 0ad7 9101     		.2byte	0x191
 3345 0ad9 A5090000 		.4byte	0x9a5
 3346 0add 05       		.uleb128 0x5
 3347 0ade 03       		.byte	0x3
 3348 0adf 00000000 		.4byte	testmtx4
 3349 0ae3 25       		.uleb128 0x25
 3350 0ae4 B8070000 		.4byte	.LASF160
 3351 0ae8 06       		.byte	0x6
 3352 0ae9 C201     		.2byte	0x1c2
 3353 0aeb A5090000 		.4byte	0x9a5
 3354 0aef 05       		.uleb128 0x5
 3355 0af0 03       		.byte	0x3
 3356 0af1 00000000 		.4byte	testmtx5
 3357 0af5 25       		.uleb128 0x25
 3358 0af6 C1070000 		.4byte	.LASF161
 3359 0afa 06       		.byte	0x6
 3360 0afb F701     		.2byte	0x1f7
 3361 0afd A5090000 		.4byte	0x9a5
 3362 0b01 05       		.uleb128 0x5
 3363 0b02 03       		.byte	0x3
 3364 0b03 00000000 		.4byte	testmtx6
 3365 0b07 25       		.uleb128 0x25
 3366 0b08 CA070000 		.4byte	.LASF162
 3367 0b0c 06       		.byte	0x6
 3368 0b0d 1B02     		.2byte	0x21b
 3369 0b0f A5090000 		.4byte	0x9a5
 3370 0b13 05       		.uleb128 0x5
 3371 0b14 03       		.byte	0x3
 3372 0b15 00000000 		.4byte	testmtx7
 3373 0b19 25       		.uleb128 0x25
 3374 0b1a 8F080000 		.4byte	.LASF163
 3375 0b1e 06       		.byte	0x6
 3376 0b1f 5302     		.2byte	0x253
 3377 0b21 A5090000 		.4byte	0x9a5
 3378 0b25 05       		.uleb128 0x5
 3379 0b26 03       		.byte	0x3
 3380 0b27 00000000 		.4byte	testmtx8
 3381 0b2b 17       		.uleb128 0x17
 3382 0b2c 460B0000 		.4byte	0xb46
 3383 0b30 3B0B0000 		.4byte	0xb3b
 3384 0b34 18       		.uleb128 0x18
 3385 0b35 CE040000 		.4byte	0x4ce
 3386 0b39 06       		.byte	0x6
 3387 0b3a 00       		.byte	0
 3388 0b3b 0B       		.uleb128 0xb
 3389 0b3c 2B0B0000 		.4byte	0xb2b
 3390 0b40 0A       		.uleb128 0xa
 3391 0b41 04       		.byte	0x4
 3392 0b42 A5090000 		.4byte	0x9a5
 3393 0b46 0B       		.uleb128 0xb
 3394 0b47 400B0000 		.4byte	0xb40
ARM GAS  /tmp/ccaMab5i.s 			page 61


 3395 0b4b 25       		.uleb128 0x25
 3396 0b4c B0060000 		.4byte	.LASF164
 3397 0b50 06       		.byte	0x6
 3398 0b51 5F02     		.2byte	0x25f
 3399 0b53 3B0B0000 		.4byte	0xb3b
 3400 0b57 05       		.uleb128 0x5
 3401 0b58 03       		.byte	0x3
 3402 0b59 00000000 		.4byte	patternmtx
 3403 0b5d 26       		.uleb128 0x26
 3404 0b5e CE010000 		.4byte	.LASF166
 3405 0b62 06       		.byte	0x6
 3406 0b63 4702     		.2byte	0x247
 3407 0b65 00000000 		.4byte	.LFB248
 3408 0b69 A8000000 		.4byte	.LFE248-.LFB248
 3409 0b6d 01       		.uleb128 0x1
 3410 0b6e 9C       		.byte	0x9c
 3411 0b6f 830B0000 		.4byte	0xb83
 3412 0b73 27       		.uleb128 0x27
 3413 0b74 ED050000 		.4byte	.LASF165
 3414 0b78 06       		.byte	0x6
 3415 0b79 4902     		.2byte	0x249
 3416 0b7b 27010000 		.4byte	0x127
 3417 0b7f 02       		.uleb128 0x2
 3418 0b80 91       		.byte	0x91
 3419 0b81 74       		.sleb128 -12
 3420 0b82 00       		.byte	0
 3421 0b83 26       		.uleb128 0x26
 3422 0b84 2D060000 		.4byte	.LASF167
 3423 0b88 06       		.byte	0x6
 3424 0b89 4002     		.2byte	0x240
 3425 0b8b 00000000 		.4byte	.LFB247
 3426 0b8f 28000000 		.4byte	.LFE247-.LFB247
 3427 0b93 01       		.uleb128 0x1
 3428 0b94 9C       		.byte	0x9c
 3429 0b95 A70B0000 		.4byte	0xba7
 3430 0b99 28       		.uleb128 0x28
 3431 0b9a 7000     		.ascii	"p\000"
 3432 0b9c 06       		.byte	0x6
 3433 0b9d 4002     		.2byte	0x240
 3434 0b9f 6C030000 		.4byte	0x36c
 3435 0ba3 02       		.uleb128 0x2
 3436 0ba4 91       		.byte	0x91
 3437 0ba5 74       		.sleb128 -12
 3438 0ba6 00       		.byte	0
 3439 0ba7 26       		.uleb128 0x26
 3440 0ba8 24060000 		.4byte	.LASF168
 3441 0bac 06       		.byte	0x6
 3442 0bad 3202     		.2byte	0x232
 3443 0baf 00000000 		.4byte	.LFB246
 3444 0bb3 48000000 		.4byte	.LFE246-.LFB246
 3445 0bb7 01       		.uleb128 0x1
 3446 0bb8 9C       		.byte	0x9c
 3447 0bb9 CB0B0000 		.4byte	0xbcb
 3448 0bbd 28       		.uleb128 0x28
 3449 0bbe 7000     		.ascii	"p\000"
 3450 0bc0 06       		.byte	0x6
 3451 0bc1 3202     		.2byte	0x232
ARM GAS  /tmp/ccaMab5i.s 			page 62


 3452 0bc3 6C030000 		.4byte	0x36c
 3453 0bc7 02       		.uleb128 0x2
 3454 0bc8 91       		.byte	0x91
 3455 0bc9 74       		.sleb128 -12
 3456 0bca 00       		.byte	0
 3457 0bcb 29       		.uleb128 0x29
 3458 0bcc 93000000 		.4byte	.LASF170
 3459 0bd0 06       		.byte	0x6
 3460 0bd1 2B02     		.2byte	0x22b
 3461 0bd3 00000000 		.4byte	.LFB245
 3462 0bd7 24000000 		.4byte	.LFE245-.LFB245
 3463 0bdb 01       		.uleb128 0x1
 3464 0bdc 9C       		.byte	0x9c
 3465 0bdd 26       		.uleb128 0x26
 3466 0bde 53080000 		.4byte	.LASF169
 3467 0be2 06       		.byte	0x6
 3468 0be3 0E02     		.2byte	0x20e
 3469 0be5 00000000 		.4byte	.LFB244
 3470 0be9 DC000000 		.4byte	.LFE244-.LFB244
 3471 0bed 01       		.uleb128 0x1
 3472 0bee 9C       		.byte	0x9c
 3473 0bef 030C0000 		.4byte	0xc03
 3474 0bf3 27       		.uleb128 0x27
 3475 0bf4 ED050000 		.4byte	.LASF165
 3476 0bf8 06       		.byte	0x6
 3477 0bf9 1002     		.2byte	0x210
 3478 0bfb 27010000 		.4byte	0x127
 3479 0bff 02       		.uleb128 0x2
 3480 0c00 91       		.byte	0x91
 3481 0c01 74       		.sleb128 -12
 3482 0c02 00       		.byte	0
 3483 0c03 29       		.uleb128 0x29
 3484 0c04 9E000000 		.4byte	.LASF171
 3485 0c08 06       		.byte	0x6
 3486 0c09 0802     		.2byte	0x208
 3487 0c0b 00000000 		.4byte	.LFB243
 3488 0c0f 1C000000 		.4byte	.LFE243-.LFB243
 3489 0c13 01       		.uleb128 0x1
 3490 0c14 9C       		.byte	0x9c
 3491 0c15 26       		.uleb128 0x26
 3492 0c16 7D050000 		.4byte	.LASF172
 3493 0c1a 06       		.byte	0x6
 3494 0c1b E301     		.2byte	0x1e3
 3495 0c1d 00000000 		.4byte	.LFB242
 3496 0c21 00010000 		.4byte	.LFE242-.LFB242
 3497 0c25 01       		.uleb128 0x1
 3498 0c26 9C       		.byte	0x9c
 3499 0c27 3B0C0000 		.4byte	0xc3b
 3500 0c2b 27       		.uleb128 0x27
 3501 0c2c ED050000 		.4byte	.LASF165
 3502 0c30 06       		.byte	0x6
 3503 0c31 E501     		.2byte	0x1e5
 3504 0c33 27010000 		.4byte	0x127
 3505 0c37 02       		.uleb128 0x2
 3506 0c38 91       		.byte	0x91
 3507 0c39 74       		.sleb128 -12
 3508 0c3a 00       		.byte	0
ARM GAS  /tmp/ccaMab5i.s 			page 63


 3509 0c3b 26       		.uleb128 0x26
 3510 0c3c 1B060000 		.4byte	.LASF173
 3511 0c40 06       		.byte	0x6
 3512 0c41 DB01     		.2byte	0x1db
 3513 0c43 00000000 		.4byte	.LFB241
 3514 0c47 34000000 		.4byte	.LFE241-.LFB241
 3515 0c4b 01       		.uleb128 0x1
 3516 0c4c 9C       		.byte	0x9c
 3517 0c4d 5F0C0000 		.4byte	0xc5f
 3518 0c51 28       		.uleb128 0x28
 3519 0c52 7000     		.ascii	"p\000"
 3520 0c54 06       		.byte	0x6
 3521 0c55 DB01     		.2byte	0x1db
 3522 0c57 6C030000 		.4byte	0x36c
 3523 0c5b 02       		.uleb128 0x2
 3524 0c5c 91       		.byte	0x91
 3525 0c5d 74       		.sleb128 -12
 3526 0c5e 00       		.byte	0
 3527 0c5f 29       		.uleb128 0x29
 3528 0c60 05060000 		.4byte	.LASF174
 3529 0c64 06       		.byte	0x6
 3530 0c65 D501     		.2byte	0x1d5
 3531 0c67 00000000 		.4byte	.LFB240
 3532 0c6b 1C000000 		.4byte	.LFE240-.LFB240
 3533 0c6f 01       		.uleb128 0x1
 3534 0c70 9C       		.byte	0x9c
 3535 0c71 26       		.uleb128 0x26
 3536 0c72 5D070000 		.4byte	.LASF175
 3537 0c76 06       		.byte	0x6
 3538 0c77 A701     		.2byte	0x1a7
 3539 0c79 00000000 		.4byte	.LFB239
 3540 0c7d 18010000 		.4byte	.LFE239-.LFB239
 3541 0c81 01       		.uleb128 0x1
 3542 0c82 9C       		.byte	0x9c
 3543 0c83 A40C0000 		.4byte	0xca4
 3544 0c87 2A       		.uleb128 0x2a
 3545 0c88 6200     		.ascii	"b\000"
 3546 0c8a 06       		.byte	0x6
 3547 0c8b AA01     		.2byte	0x1aa
 3548 0c8d 61090000 		.4byte	0x961
 3549 0c91 02       		.uleb128 0x2
 3550 0c92 91       		.byte	0x91
 3551 0c93 73       		.sleb128 -13
 3552 0c94 27       		.uleb128 0x27
 3553 0c95 ED050000 		.4byte	.LASF165
 3554 0c99 06       		.byte	0x6
 3555 0c9a AB01     		.2byte	0x1ab
 3556 0c9c 27010000 		.4byte	0x127
 3557 0ca0 02       		.uleb128 0x2
 3558 0ca1 91       		.byte	0x91
 3559 0ca2 74       		.sleb128 -12
 3560 0ca3 00       		.byte	0
 3561 0ca4 29       		.uleb128 0x29
 3562 0ca5 EA070000 		.4byte	.LASF176
 3563 0ca9 06       		.byte	0x6
 3564 0caa A201     		.2byte	0x1a2
 3565 0cac 00000000 		.4byte	.LFB238
ARM GAS  /tmp/ccaMab5i.s 			page 64


 3566 0cb0 10000000 		.4byte	.LFE238-.LFB238
 3567 0cb4 01       		.uleb128 0x1
 3568 0cb5 9C       		.byte	0x9c
 3569 0cb6 26       		.uleb128 0x26
 3570 0cb7 E0050000 		.4byte	.LASF177
 3571 0cbb 06       		.byte	0x6
 3572 0cbc 6201     		.2byte	0x162
 3573 0cbe 00000000 		.4byte	.LFB237
 3574 0cc2 24030000 		.4byte	.LFE237-.LFB237
 3575 0cc6 01       		.uleb128 0x1
 3576 0cc7 9C       		.byte	0x9c
 3577 0cc8 F60C0000 		.4byte	0xcf6
 3578 0ccc 2A       		.uleb128 0x2a
 3579 0ccd 7000     		.ascii	"p\000"
 3580 0ccf 06       		.byte	0x6
 3581 0cd0 6301     		.2byte	0x163
 3582 0cd2 27010000 		.4byte	0x127
 3583 0cd6 02       		.uleb128 0x2
 3584 0cd7 91       		.byte	0x91
 3585 0cd8 74       		.sleb128 -12
 3586 0cd9 2A       		.uleb128 0x2a
 3587 0cda 703100   		.ascii	"p1\000"
 3588 0cdd 06       		.byte	0x6
 3589 0cde 6301     		.2byte	0x163
 3590 0ce0 27010000 		.4byte	0x127
 3591 0ce4 02       		.uleb128 0x2
 3592 0ce5 91       		.byte	0x91
 3593 0ce6 70       		.sleb128 -16
 3594 0ce7 2A       		.uleb128 0x2a
 3595 0ce8 703200   		.ascii	"p2\000"
 3596 0ceb 06       		.byte	0x6
 3597 0cec 6301     		.2byte	0x163
 3598 0cee 27010000 		.4byte	0x127
 3599 0cf2 02       		.uleb128 0x2
 3600 0cf3 91       		.byte	0x91
 3601 0cf4 6C       		.sleb128 -20
 3602 0cf5 00       		.byte	0
 3603 0cf6 26       		.uleb128 0x26
 3604 0cf7 D5000000 		.4byte	.LASF178
 3605 0cfb 06       		.byte	0x6
 3606 0cfc 5A01     		.2byte	0x15a
 3607 0cfe 00000000 		.4byte	.LFB236
 3608 0d02 28000000 		.4byte	.LFE236-.LFB236
 3609 0d06 01       		.uleb128 0x1
 3610 0d07 9C       		.byte	0x9c
 3611 0d08 1A0D0000 		.4byte	0xd1a
 3612 0d0c 28       		.uleb128 0x28
 3613 0d0d 7000     		.ascii	"p\000"
 3614 0d0f 06       		.byte	0x6
 3615 0d10 5A01     		.2byte	0x15a
 3616 0d12 6C030000 		.4byte	0x36c
 3617 0d16 02       		.uleb128 0x2
 3618 0d17 91       		.byte	0x91
 3619 0d18 74       		.sleb128 -12
 3620 0d19 00       		.byte	0
 3621 0d1a 26       		.uleb128 0x26
 3622 0d1b CC000000 		.4byte	.LASF179
ARM GAS  /tmp/ccaMab5i.s 			page 65


 3623 0d1f 06       		.byte	0x6
 3624 0d20 5201     		.2byte	0x152
 3625 0d22 00000000 		.4byte	.LFB235
 3626 0d26 28000000 		.4byte	.LFE235-.LFB235
 3627 0d2a 01       		.uleb128 0x1
 3628 0d2b 9C       		.byte	0x9c
 3629 0d2c 3E0D0000 		.4byte	0xd3e
 3630 0d30 28       		.uleb128 0x28
 3631 0d31 7000     		.ascii	"p\000"
 3632 0d33 06       		.byte	0x6
 3633 0d34 5201     		.2byte	0x152
 3634 0d36 6C030000 		.4byte	0x36c
 3635 0d3a 02       		.uleb128 0x2
 3636 0d3b 91       		.byte	0x91
 3637 0d3c 74       		.sleb128 -12
 3638 0d3d 00       		.byte	0
 3639 0d3e 29       		.uleb128 0x29
 3640 0d3f D5050000 		.4byte	.LASF180
 3641 0d43 06       		.byte	0x6
 3642 0d44 4C01     		.2byte	0x14c
 3643 0d46 00000000 		.4byte	.LFB234
 3644 0d4a 1C000000 		.4byte	.LFE234-.LFB234
 3645 0d4e 01       		.uleb128 0x1
 3646 0d4f 9C       		.byte	0x9c
 3647 0d50 2B       		.uleb128 0x2b
 3648 0d51 3F010000 		.4byte	.LASF181
 3649 0d55 06       		.byte	0x6
 3650 0d56 60       		.byte	0x60
 3651 0d57 00000000 		.4byte	.LFB233
 3652 0d5b 04010000 		.4byte	.LFE233-.LFB233
 3653 0d5f 01       		.uleb128 0x1
 3654 0d60 9C       		.byte	0x9c
 3655 0d61 740D0000 		.4byte	0xd74
 3656 0d65 2C       		.uleb128 0x2c
 3657 0d66 ED050000 		.4byte	.LASF165
 3658 0d6a 06       		.byte	0x6
 3659 0d6b 62       		.byte	0x62
 3660 0d6c 27010000 		.4byte	0x127
 3661 0d70 02       		.uleb128 0x2
 3662 0d71 91       		.byte	0x91
 3663 0d72 74       		.sleb128 -12
 3664 0d73 00       		.byte	0
 3665 0d74 2B       		.uleb128 0x2b
 3666 0d75 AF050000 		.4byte	.LASF182
 3667 0d79 06       		.byte	0x6
 3668 0d7a 59       		.byte	0x59
 3669 0d7b 00000000 		.4byte	.LFB232
 3670 0d7f 28000000 		.4byte	.LFE232-.LFB232
 3671 0d83 01       		.uleb128 0x1
 3672 0d84 9C       		.byte	0x9c
 3673 0d85 960D0000 		.4byte	0xd96
 3674 0d89 2D       		.uleb128 0x2d
 3675 0d8a 7000     		.ascii	"p\000"
 3676 0d8c 06       		.byte	0x6
 3677 0d8d 59       		.byte	0x59
 3678 0d8e 6C030000 		.4byte	0x36c
 3679 0d92 02       		.uleb128 0x2
ARM GAS  /tmp/ccaMab5i.s 			page 66


 3680 0d93 91       		.byte	0x91
 3681 0d94 74       		.sleb128 -12
 3682 0d95 00       		.byte	0
 3683 0d96 2E       		.uleb128 0x2e
 3684 0d97 C0040000 		.4byte	.LASF183
 3685 0d9b 06       		.byte	0x6
 3686 0d9c 54       		.byte	0x54
 3687 0d9d 00000000 		.4byte	.LFB231
 3688 0da1 10000000 		.4byte	.LFE231-.LFB231
 3689 0da5 01       		.uleb128 0x1
 3690 0da6 9C       		.byte	0x9c
 3691 0da7 2F       		.uleb128 0x2f
 3692 0da8 C3050000 		.4byte	.LASF184
 3693 0dac 05       		.byte	0x5
 3694 0dad BB       		.byte	0xbb
 3695 0dae 27010000 		.4byte	0x127
 3696 0db2 00000000 		.4byte	.LFB179
 3697 0db6 0E000000 		.4byte	.LFE179-.LFB179
 3698 0dba 01       		.uleb128 0x1
 3699 0dbb 9C       		.byte	0x9c
 3700 0dbc 30       		.uleb128 0x30
 3701 0dbd DB080000 		.4byte	.LASF185
 3702 0dc1 05       		.byte	0x5
 3703 0dc2 AE       		.byte	0xae
 3704 0dc3 8A020000 		.4byte	0x28a
 3705 0dc7 00000000 		.4byte	.LFB178
 3706 0dcb 0C000000 		.4byte	.LFE178-.LFB178
 3707 0dcf 01       		.uleb128 0x1
 3708 0dd0 9C       		.byte	0x9c
 3709 0dd1 26       		.uleb128 0x26
 3710 0dd2 39090000 		.4byte	.LASF186
 3711 0dd6 04       		.byte	0x4
 3712 0dd7 6601     		.2byte	0x166
 3713 0dd9 00000000 		.4byte	.LFB157
 3714 0ddd 3C000000 		.4byte	.LFE157-.LFB157
 3715 0de1 01       		.uleb128 0x1
 3716 0de2 9C       		.byte	0x9c
 3717 0de3 F70D0000 		.4byte	0xdf7
 3718 0de7 31       		.uleb128 0x31
 3719 0de8 14070000 		.4byte	.LASF194
 3720 0dec 070E0000 		.4byte	0xe07
 3721 0df0 05       		.uleb128 0x5
 3722 0df1 03       		.byte	0x3
 3723 0df2 00000000 		.4byte	__func__.7157
 3724 0df6 00       		.byte	0
 3725 0df7 17       		.uleb128 0x17
 3726 0df8 F4070000 		.4byte	0x7f4
 3727 0dfc 070E0000 		.4byte	0xe07
 3728 0e00 18       		.uleb128 0x18
 3729 0e01 CE040000 		.4byte	0x4ce
 3730 0e05 0B       		.byte	0xb
 3731 0e06 00       		.byte	0
 3732 0e07 0B       		.uleb128 0xb
 3733 0e08 F70D0000 		.4byte	0xdf7
 3734 0e0c 29       		.uleb128 0x29
 3735 0e0d 25070000 		.4byte	.LASF187
 3736 0e11 04       		.byte	0x4
ARM GAS  /tmp/ccaMab5i.s 			page 67


 3737 0e12 5A01     		.2byte	0x15a
 3738 0e14 00000000 		.4byte	.LFB156
 3739 0e18 12000000 		.4byte	.LFE156-.LFB156
 3740 0e1c 01       		.uleb128 0x1
 3741 0e1d 9C       		.byte	0x9c
 3742 0e1e 32       		.uleb128 0x32
 3743 0e1f 42030000 		.4byte	.LASF195
 3744 0e23 03       		.byte	0x3
 3745 0e24 6802     		.2byte	0x268
 3746 0e26 61090000 		.4byte	0x961
 3747 0e2a 00000000 		.4byte	.LFB140
 3748 0e2e 1A000000 		.4byte	.LFE140-.LFB140
 3749 0e32 01       		.uleb128 0x1
 3750 0e33 9C       		.byte	0x9c
 3751 0e34 480E0000 		.4byte	0xe48
 3752 0e38 28       		.uleb128 0x28
 3753 0e39 74717000 		.ascii	"tqp\000"
 3754 0e3d 03       		.byte	0x3
 3755 0e3e 6802     		.2byte	0x268
 3756 0e40 480E0000 		.4byte	0xe48
 3757 0e44 02       		.uleb128 0x2
 3758 0e45 91       		.byte	0x91
 3759 0e46 7C       		.sleb128 -4
 3760 0e47 00       		.byte	0
 3761 0e48 0A       		.uleb128 0xa
 3762 0e49 04       		.byte	0x4
 3763 0e4a BF020000 		.4byte	0x2bf
 3764 0e4e 33       		.uleb128 0x33
 3765 0e4f E2010000 		.4byte	.LASF188
 3766 0e53 01       		.byte	0x1
 3767 0e54 E001     		.2byte	0x1e0
 3768 0e56 00000000 		.4byte	.LFB128
 3769 0e5a 12000000 		.4byte	.LFE128-.LFB128
 3770 0e5e 01       		.uleb128 0x1
 3771 0e5f 9C       		.byte	0x9c
 3772 0e60 7E0E0000 		.4byte	0xe7e
 3773 0e64 34       		.uleb128 0x34
 3774 0e65 AE0E0000 		.4byte	0xeae
 3775 0e69 06000000 		.4byte	.LBB8
 3776 0e6d 06000000 		.4byte	.LBE8-.LBB8
 3777 0e71 01       		.byte	0x1
 3778 0e72 E301     		.2byte	0x1e3
 3779 0e74 35       		.uleb128 0x35
 3780 0e75 B70E0000 		.4byte	0xeb7
 3781 0e79 02       		.uleb128 0x2
 3782 0e7a 91       		.byte	0x91
 3783 0e7b 7C       		.sleb128 -4
 3784 0e7c 00       		.byte	0
 3785 0e7d 00       		.byte	0
 3786 0e7e 33       		.uleb128 0x33
 3787 0e7f A9000000 		.4byte	.LASF189
 3788 0e83 01       		.byte	0x1
 3789 0e84 C801     		.2byte	0x1c8
 3790 0e86 00000000 		.4byte	.LFB127
 3791 0e8a 12000000 		.4byte	.LFE127-.LFB127
 3792 0e8e 01       		.uleb128 0x1
 3793 0e8f 9C       		.byte	0x9c
ARM GAS  /tmp/ccaMab5i.s 			page 68


 3794 0e90 AE0E0000 		.4byte	0xeae
 3795 0e94 34       		.uleb128 0x34
 3796 0e95 AE0E0000 		.4byte	0xeae
 3797 0e99 06000000 		.4byte	.LBB6
 3798 0e9d 06000000 		.4byte	.LBE6-.LBB6
 3799 0ea1 01       		.byte	0x1
 3800 0ea2 D001     		.2byte	0x1d0
 3801 0ea4 35       		.uleb128 0x35
 3802 0ea5 B70E0000 		.4byte	0xeb7
 3803 0ea9 02       		.uleb128 0x2
 3804 0eaa 91       		.byte	0x91
 3805 0eab 7C       		.sleb128 -4
 3806 0eac 00       		.byte	0
 3807 0ead 00       		.byte	0
 3808 0eae 36       		.uleb128 0x36
 3809 0eaf 45080000 		.4byte	.LASF196
 3810 0eb3 02       		.byte	0x2
 3811 0eb4 2202     		.2byte	0x222
 3812 0eb6 03       		.byte	0x3
 3813 0eb7 37       		.uleb128 0x37
 3814 0eb8 95030000 		.4byte	.LASF197
 3815 0ebc 02       		.byte	0x2
 3816 0ebd 2202     		.2byte	0x222
 3817 0ebf DA000000 		.4byte	0xda
 3818 0ec3 00       		.byte	0
 3819 0ec4 00       		.byte	0
 3820              		.section	.debug_abbrev,"",%progbits
 3821              	.Ldebug_abbrev0:
 3822 0000 01       		.uleb128 0x1
 3823 0001 11       		.uleb128 0x11
 3824 0002 01       		.byte	0x1
 3825 0003 25       		.uleb128 0x25
 3826 0004 0E       		.uleb128 0xe
 3827 0005 13       		.uleb128 0x13
 3828 0006 0B       		.uleb128 0xb
 3829 0007 03       		.uleb128 0x3
 3830 0008 0E       		.uleb128 0xe
 3831 0009 1B       		.uleb128 0x1b
 3832 000a 0E       		.uleb128 0xe
 3833 000b 55       		.uleb128 0x55
 3834 000c 17       		.uleb128 0x17
 3835 000d 11       		.uleb128 0x11
 3836 000e 01       		.uleb128 0x1
 3837 000f 10       		.uleb128 0x10
 3838 0010 17       		.uleb128 0x17
 3839 0011 00       		.byte	0
 3840 0012 00       		.byte	0
 3841 0013 02       		.uleb128 0x2
 3842 0014 24       		.uleb128 0x24
 3843 0015 00       		.byte	0
 3844 0016 0B       		.uleb128 0xb
 3845 0017 0B       		.uleb128 0xb
 3846 0018 3E       		.uleb128 0x3e
 3847 0019 0B       		.uleb128 0xb
 3848 001a 03       		.uleb128 0x3
 3849 001b 08       		.uleb128 0x8
 3850 001c 00       		.byte	0
ARM GAS  /tmp/ccaMab5i.s 			page 69


 3851 001d 00       		.byte	0
 3852 001e 03       		.uleb128 0x3
 3853 001f 16       		.uleb128 0x16
 3854 0020 00       		.byte	0
 3855 0021 03       		.uleb128 0x3
 3856 0022 0E       		.uleb128 0xe
 3857 0023 3A       		.uleb128 0x3a
 3858 0024 0B       		.uleb128 0xb
 3859 0025 3B       		.uleb128 0x3b
 3860 0026 0B       		.uleb128 0xb
 3861 0027 49       		.uleb128 0x49
 3862 0028 13       		.uleb128 0x13
 3863 0029 00       		.byte	0
 3864 002a 00       		.byte	0
 3865 002b 04       		.uleb128 0x4
 3866 002c 24       		.uleb128 0x24
 3867 002d 00       		.byte	0
 3868 002e 0B       		.uleb128 0xb
 3869 002f 0B       		.uleb128 0xb
 3870 0030 3E       		.uleb128 0x3e
 3871 0031 0B       		.uleb128 0xb
 3872 0032 03       		.uleb128 0x3
 3873 0033 0E       		.uleb128 0xe
 3874 0034 00       		.byte	0
 3875 0035 00       		.byte	0
 3876 0036 05       		.uleb128 0x5
 3877 0037 35       		.uleb128 0x35
 3878 0038 00       		.byte	0
 3879 0039 49       		.uleb128 0x49
 3880 003a 13       		.uleb128 0x13
 3881 003b 00       		.byte	0
 3882 003c 00       		.byte	0
 3883 003d 06       		.uleb128 0x6
 3884 003e 13       		.uleb128 0x13
 3885 003f 01       		.byte	0x1
 3886 0040 03       		.uleb128 0x3
 3887 0041 0E       		.uleb128 0xe
 3888 0042 0B       		.uleb128 0xb
 3889 0043 0B       		.uleb128 0xb
 3890 0044 3A       		.uleb128 0x3a
 3891 0045 0B       		.uleb128 0xb
 3892 0046 3B       		.uleb128 0x3b
 3893 0047 0B       		.uleb128 0xb
 3894 0048 01       		.uleb128 0x1
 3895 0049 13       		.uleb128 0x13
 3896 004a 00       		.byte	0
 3897 004b 00       		.byte	0
 3898 004c 07       		.uleb128 0x7
 3899 004d 0D       		.uleb128 0xd
 3900 004e 00       		.byte	0
 3901 004f 03       		.uleb128 0x3
 3902 0050 0E       		.uleb128 0xe
 3903 0051 3A       		.uleb128 0x3a
 3904 0052 0B       		.uleb128 0xb
 3905 0053 3B       		.uleb128 0x3b
 3906 0054 0B       		.uleb128 0xb
 3907 0055 49       		.uleb128 0x49
ARM GAS  /tmp/ccaMab5i.s 			page 70


 3908 0056 13       		.uleb128 0x13
 3909 0057 38       		.uleb128 0x38
 3910 0058 0B       		.uleb128 0xb
 3911 0059 00       		.byte	0
 3912 005a 00       		.byte	0
 3913 005b 08       		.uleb128 0x8
 3914 005c 0D       		.uleb128 0xd
 3915 005d 00       		.byte	0
 3916 005e 03       		.uleb128 0x3
 3917 005f 08       		.uleb128 0x8
 3918 0060 3A       		.uleb128 0x3a
 3919 0061 0B       		.uleb128 0xb
 3920 0062 3B       		.uleb128 0x3b
 3921 0063 05       		.uleb128 0x5
 3922 0064 49       		.uleb128 0x49
 3923 0065 13       		.uleb128 0x13
 3924 0066 38       		.uleb128 0x38
 3925 0067 0B       		.uleb128 0xb
 3926 0068 00       		.byte	0
 3927 0069 00       		.byte	0
 3928 006a 09       		.uleb128 0x9
 3929 006b 0D       		.uleb128 0xd
 3930 006c 00       		.byte	0
 3931 006d 03       		.uleb128 0x3
 3932 006e 0E       		.uleb128 0xe
 3933 006f 3A       		.uleb128 0x3a
 3934 0070 0B       		.uleb128 0xb
 3935 0071 3B       		.uleb128 0x3b
 3936 0072 05       		.uleb128 0x5
 3937 0073 49       		.uleb128 0x49
 3938 0074 13       		.uleb128 0x13
 3939 0075 38       		.uleb128 0x38
 3940 0076 0B       		.uleb128 0xb
 3941 0077 00       		.byte	0
 3942 0078 00       		.byte	0
 3943 0079 0A       		.uleb128 0xa
 3944 007a 0F       		.uleb128 0xf
 3945 007b 00       		.byte	0
 3946 007c 0B       		.uleb128 0xb
 3947 007d 0B       		.uleb128 0xb
 3948 007e 49       		.uleb128 0x49
 3949 007f 13       		.uleb128 0x13
 3950 0080 00       		.byte	0
 3951 0081 00       		.byte	0
 3952 0082 0B       		.uleb128 0xb
 3953 0083 26       		.uleb128 0x26
 3954 0084 00       		.byte	0
 3955 0085 49       		.uleb128 0x49
 3956 0086 13       		.uleb128 0x13
 3957 0087 00       		.byte	0
 3958 0088 00       		.byte	0
 3959 0089 0C       		.uleb128 0xc
 3960 008a 13       		.uleb128 0x13
 3961 008b 01       		.byte	0x1
 3962 008c 03       		.uleb128 0x3
 3963 008d 0E       		.uleb128 0xe
 3964 008e 0B       		.uleb128 0xb
ARM GAS  /tmp/ccaMab5i.s 			page 71


 3965 008f 0B       		.uleb128 0xb
 3966 0090 3A       		.uleb128 0x3a
 3967 0091 0B       		.uleb128 0xb
 3968 0092 3B       		.uleb128 0x3b
 3969 0093 05       		.uleb128 0x5
 3970 0094 01       		.uleb128 0x1
 3971 0095 13       		.uleb128 0x13
 3972 0096 00       		.byte	0
 3973 0097 00       		.byte	0
 3974 0098 0D       		.uleb128 0xd
 3975 0099 15       		.uleb128 0x15
 3976 009a 01       		.byte	0x1
 3977 009b 27       		.uleb128 0x27
 3978 009c 19       		.uleb128 0x19
 3979 009d 01       		.uleb128 0x1
 3980 009e 13       		.uleb128 0x13
 3981 009f 00       		.byte	0
 3982 00a0 00       		.byte	0
 3983 00a1 0E       		.uleb128 0xe
 3984 00a2 05       		.uleb128 0x5
 3985 00a3 00       		.byte	0
 3986 00a4 49       		.uleb128 0x49
 3987 00a5 13       		.uleb128 0x13
 3988 00a6 00       		.byte	0
 3989 00a7 00       		.byte	0
 3990 00a8 0F       		.uleb128 0xf
 3991 00a9 0F       		.uleb128 0xf
 3992 00aa 00       		.byte	0
 3993 00ab 0B       		.uleb128 0xb
 3994 00ac 0B       		.uleb128 0xb
 3995 00ad 00       		.byte	0
 3996 00ae 00       		.byte	0
 3997 00af 10       		.uleb128 0x10
 3998 00b0 13       		.uleb128 0x13
 3999 00b1 01       		.byte	0x1
 4000 00b2 03       		.uleb128 0x3
 4001 00b3 0E       		.uleb128 0xe
 4002 00b4 0B       		.uleb128 0xb
 4003 00b5 05       		.uleb128 0x5
 4004 00b6 3A       		.uleb128 0x3a
 4005 00b7 0B       		.uleb128 0xb
 4006 00b8 3B       		.uleb128 0x3b
 4007 00b9 05       		.uleb128 0x5
 4008 00ba 01       		.uleb128 0x1
 4009 00bb 13       		.uleb128 0x13
 4010 00bc 00       		.byte	0
 4011 00bd 00       		.byte	0
 4012 00be 11       		.uleb128 0x11
 4013 00bf 34       		.uleb128 0x34
 4014 00c0 00       		.byte	0
 4015 00c1 03       		.uleb128 0x3
 4016 00c2 0E       		.uleb128 0xe
 4017 00c3 3A       		.uleb128 0x3a
 4018 00c4 0B       		.uleb128 0xb
 4019 00c5 3B       		.uleb128 0x3b
 4020 00c6 05       		.uleb128 0x5
 4021 00c7 49       		.uleb128 0x49
ARM GAS  /tmp/ccaMab5i.s 			page 72


 4022 00c8 13       		.uleb128 0x13
 4023 00c9 3F       		.uleb128 0x3f
 4024 00ca 19       		.uleb128 0x19
 4025 00cb 3C       		.uleb128 0x3c
 4026 00cc 19       		.uleb128 0x19
 4027 00cd 00       		.byte	0
 4028 00ce 00       		.byte	0
 4029 00cf 12       		.uleb128 0x12
 4030 00d0 34       		.uleb128 0x34
 4031 00d1 00       		.byte	0
 4032 00d2 03       		.uleb128 0x3
 4033 00d3 0E       		.uleb128 0xe
 4034 00d4 3A       		.uleb128 0x3a
 4035 00d5 0B       		.uleb128 0xb
 4036 00d6 3B       		.uleb128 0x3b
 4037 00d7 0B       		.uleb128 0xb
 4038 00d8 49       		.uleb128 0x49
 4039 00d9 13       		.uleb128 0x13
 4040 00da 3F       		.uleb128 0x3f
 4041 00db 19       		.uleb128 0x19
 4042 00dc 3C       		.uleb128 0x3c
 4043 00dd 19       		.uleb128 0x19
 4044 00de 00       		.byte	0
 4045 00df 00       		.byte	0
 4046 00e0 13       		.uleb128 0x13
 4047 00e1 0D       		.uleb128 0xd
 4048 00e2 00       		.byte	0
 4049 00e3 03       		.uleb128 0x3
 4050 00e4 08       		.uleb128 0x8
 4051 00e5 3A       		.uleb128 0x3a
 4052 00e6 0B       		.uleb128 0xb
 4053 00e7 3B       		.uleb128 0x3b
 4054 00e8 0B       		.uleb128 0xb
 4055 00e9 49       		.uleb128 0x49
 4056 00ea 13       		.uleb128 0x13
 4057 00eb 38       		.uleb128 0x38
 4058 00ec 0B       		.uleb128 0xb
 4059 00ed 00       		.byte	0
 4060 00ee 00       		.byte	0
 4061 00ef 14       		.uleb128 0x14
 4062 00f0 13       		.uleb128 0x13
 4063 00f1 01       		.byte	0x1
 4064 00f2 0B       		.uleb128 0xb
 4065 00f3 0B       		.uleb128 0xb
 4066 00f4 3A       		.uleb128 0x3a
 4067 00f5 0B       		.uleb128 0xb
 4068 00f6 3B       		.uleb128 0x3b
 4069 00f7 0B       		.uleb128 0xb
 4070 00f8 01       		.uleb128 0x1
 4071 00f9 13       		.uleb128 0x13
 4072 00fa 00       		.byte	0
 4073 00fb 00       		.byte	0
 4074 00fc 15       		.uleb128 0x15
 4075 00fd 17       		.uleb128 0x17
 4076 00fe 01       		.byte	0x1
 4077 00ff 0B       		.uleb128 0xb
 4078 0100 0B       		.uleb128 0xb
ARM GAS  /tmp/ccaMab5i.s 			page 73


 4079 0101 3A       		.uleb128 0x3a
 4080 0102 0B       		.uleb128 0xb
 4081 0103 3B       		.uleb128 0x3b
 4082 0104 0B       		.uleb128 0xb
 4083 0105 01       		.uleb128 0x1
 4084 0106 13       		.uleb128 0x13
 4085 0107 00       		.byte	0
 4086 0108 00       		.byte	0
 4087 0109 16       		.uleb128 0x16
 4088 010a 0D       		.uleb128 0xd
 4089 010b 00       		.byte	0
 4090 010c 03       		.uleb128 0x3
 4091 010d 0E       		.uleb128 0xe
 4092 010e 3A       		.uleb128 0x3a
 4093 010f 0B       		.uleb128 0xb
 4094 0110 3B       		.uleb128 0x3b
 4095 0111 05       		.uleb128 0x5
 4096 0112 49       		.uleb128 0x49
 4097 0113 13       		.uleb128 0x13
 4098 0114 00       		.byte	0
 4099 0115 00       		.byte	0
 4100 0116 17       		.uleb128 0x17
 4101 0117 01       		.uleb128 0x1
 4102 0118 01       		.byte	0x1
 4103 0119 49       		.uleb128 0x49
 4104 011a 13       		.uleb128 0x13
 4105 011b 01       		.uleb128 0x1
 4106 011c 13       		.uleb128 0x13
 4107 011d 00       		.byte	0
 4108 011e 00       		.byte	0
 4109 011f 18       		.uleb128 0x18
 4110 0120 21       		.uleb128 0x21
 4111 0121 00       		.byte	0
 4112 0122 49       		.uleb128 0x49
 4113 0123 13       		.uleb128 0x13
 4114 0124 2F       		.uleb128 0x2f
 4115 0125 0B       		.uleb128 0xb
 4116 0126 00       		.byte	0
 4117 0127 00       		.byte	0
 4118 0128 19       		.uleb128 0x19
 4119 0129 34       		.uleb128 0x34
 4120 012a 00       		.byte	0
 4121 012b 03       		.uleb128 0x3
 4122 012c 08       		.uleb128 0x8
 4123 012d 3A       		.uleb128 0x3a
 4124 012e 0B       		.uleb128 0xb
 4125 012f 3B       		.uleb128 0x3b
 4126 0130 05       		.uleb128 0x5
 4127 0131 49       		.uleb128 0x49
 4128 0132 13       		.uleb128 0x13
 4129 0133 3F       		.uleb128 0x3f
 4130 0134 19       		.uleb128 0x19
 4131 0135 3C       		.uleb128 0x3c
 4132 0136 19       		.uleb128 0x19
 4133 0137 00       		.byte	0
 4134 0138 00       		.byte	0
 4135 0139 1A       		.uleb128 0x1a
ARM GAS  /tmp/ccaMab5i.s 			page 74


 4136 013a 15       		.uleb128 0x15
 4137 013b 00       		.byte	0
 4138 013c 27       		.uleb128 0x27
 4139 013d 19       		.uleb128 0x19
 4140 013e 00       		.byte	0
 4141 013f 00       		.byte	0
 4142 0140 1B       		.uleb128 0x1b
 4143 0141 13       		.uleb128 0x13
 4144 0142 01       		.byte	0x1
 4145 0143 0B       		.uleb128 0xb
 4146 0144 05       		.uleb128 0x5
 4147 0145 3A       		.uleb128 0x3a
 4148 0146 0B       		.uleb128 0xb
 4149 0147 3B       		.uleb128 0x3b
 4150 0148 0B       		.uleb128 0xb
 4151 0149 01       		.uleb128 0x1
 4152 014a 13       		.uleb128 0x13
 4153 014b 00       		.byte	0
 4154 014c 00       		.byte	0
 4155 014d 1C       		.uleb128 0x1c
 4156 014e 0D       		.uleb128 0xd
 4157 014f 00       		.byte	0
 4158 0150 03       		.uleb128 0x3
 4159 0151 08       		.uleb128 0x8
 4160 0152 3A       		.uleb128 0x3a
 4161 0153 0B       		.uleb128 0xb
 4162 0154 3B       		.uleb128 0x3b
 4163 0155 0B       		.uleb128 0xb
 4164 0156 49       		.uleb128 0x49
 4165 0157 13       		.uleb128 0x13
 4166 0158 38       		.uleb128 0x38
 4167 0159 05       		.uleb128 0x5
 4168 015a 00       		.byte	0
 4169 015b 00       		.byte	0
 4170 015c 1D       		.uleb128 0x1d
 4171 015d 17       		.uleb128 0x17
 4172 015e 01       		.byte	0x1
 4173 015f 03       		.uleb128 0x3
 4174 0160 0E       		.uleb128 0xe
 4175 0161 0B       		.uleb128 0xb
 4176 0162 05       		.uleb128 0x5
 4177 0163 3A       		.uleb128 0x3a
 4178 0164 0B       		.uleb128 0xb
 4179 0165 3B       		.uleb128 0x3b
 4180 0166 0B       		.uleb128 0xb
 4181 0167 01       		.uleb128 0x1
 4182 0168 13       		.uleb128 0x13
 4183 0169 00       		.byte	0
 4184 016a 00       		.byte	0
 4185 016b 1E       		.uleb128 0x1e
 4186 016c 0D       		.uleb128 0xd
 4187 016d 00       		.byte	0
 4188 016e 03       		.uleb128 0x3
 4189 016f 08       		.uleb128 0x8
 4190 0170 3A       		.uleb128 0x3a
 4191 0171 0B       		.uleb128 0xb
 4192 0172 3B       		.uleb128 0x3b
ARM GAS  /tmp/ccaMab5i.s 			page 75


 4193 0173 0B       		.uleb128 0xb
 4194 0174 49       		.uleb128 0x49
 4195 0175 13       		.uleb128 0x13
 4196 0176 00       		.byte	0
 4197 0177 00       		.byte	0
 4198 0178 1F       		.uleb128 0x1f
 4199 0179 0D       		.uleb128 0xd
 4200 017a 00       		.byte	0
 4201 017b 03       		.uleb128 0x3
 4202 017c 0E       		.uleb128 0xe
 4203 017d 3A       		.uleb128 0x3a
 4204 017e 0B       		.uleb128 0xb
 4205 017f 3B       		.uleb128 0x3b
 4206 0180 0B       		.uleb128 0xb
 4207 0181 49       		.uleb128 0x49
 4208 0182 13       		.uleb128 0x13
 4209 0183 00       		.byte	0
 4210 0184 00       		.byte	0
 4211 0185 20       		.uleb128 0x20
 4212 0186 21       		.uleb128 0x21
 4213 0187 00       		.byte	0
 4214 0188 49       		.uleb128 0x49
 4215 0189 13       		.uleb128 0x13
 4216 018a 2F       		.uleb128 0x2f
 4217 018b 05       		.uleb128 0x5
 4218 018c 00       		.byte	0
 4219 018d 00       		.byte	0
 4220 018e 21       		.uleb128 0x21
 4221 018f 21       		.uleb128 0x21
 4222 0190 00       		.byte	0
 4223 0191 00       		.byte	0
 4224 0192 00       		.byte	0
 4225 0193 22       		.uleb128 0x22
 4226 0194 34       		.uleb128 0x34
 4227 0195 00       		.byte	0
 4228 0196 03       		.uleb128 0x3
 4229 0197 08       		.uleb128 0x8
 4230 0198 3A       		.uleb128 0x3a
 4231 0199 0B       		.uleb128 0xb
 4232 019a 3B       		.uleb128 0x3b
 4233 019b 0B       		.uleb128 0xb
 4234 019c 49       		.uleb128 0x49
 4235 019d 13       		.uleb128 0x13
 4236 019e 3F       		.uleb128 0x3f
 4237 019f 19       		.uleb128 0x19
 4238 01a0 3C       		.uleb128 0x3c
 4239 01a1 19       		.uleb128 0x19
 4240 01a2 00       		.byte	0
 4241 01a3 00       		.byte	0
 4242 01a4 23       		.uleb128 0x23
 4243 01a5 34       		.uleb128 0x34
 4244 01a6 00       		.byte	0
 4245 01a7 03       		.uleb128 0x3
 4246 01a8 08       		.uleb128 0x8
 4247 01a9 3A       		.uleb128 0x3a
 4248 01aa 0B       		.uleb128 0xb
 4249 01ab 3B       		.uleb128 0x3b
ARM GAS  /tmp/ccaMab5i.s 			page 76


 4250 01ac 0B       		.uleb128 0xb
 4251 01ad 49       		.uleb128 0x49
 4252 01ae 13       		.uleb128 0x13
 4253 01af 02       		.uleb128 0x2
 4254 01b0 18       		.uleb128 0x18
 4255 01b1 00       		.byte	0
 4256 01b2 00       		.byte	0
 4257 01b3 24       		.uleb128 0x24
 4258 01b4 34       		.uleb128 0x34
 4259 01b5 00       		.byte	0
 4260 01b6 03       		.uleb128 0x3
 4261 01b7 0E       		.uleb128 0xe
 4262 01b8 3A       		.uleb128 0x3a
 4263 01b9 0B       		.uleb128 0xb
 4264 01ba 3B       		.uleb128 0x3b
 4265 01bb 0B       		.uleb128 0xb
 4266 01bc 49       		.uleb128 0x49
 4267 01bd 13       		.uleb128 0x13
 4268 01be 3F       		.uleb128 0x3f
 4269 01bf 19       		.uleb128 0x19
 4270 01c0 02       		.uleb128 0x2
 4271 01c1 18       		.uleb128 0x18
 4272 01c2 00       		.byte	0
 4273 01c3 00       		.byte	0
 4274 01c4 25       		.uleb128 0x25
 4275 01c5 34       		.uleb128 0x34
 4276 01c6 00       		.byte	0
 4277 01c7 03       		.uleb128 0x3
 4278 01c8 0E       		.uleb128 0xe
 4279 01c9 3A       		.uleb128 0x3a
 4280 01ca 0B       		.uleb128 0xb
 4281 01cb 3B       		.uleb128 0x3b
 4282 01cc 05       		.uleb128 0x5
 4283 01cd 49       		.uleb128 0x49
 4284 01ce 13       		.uleb128 0x13
 4285 01cf 3F       		.uleb128 0x3f
 4286 01d0 19       		.uleb128 0x19
 4287 01d1 02       		.uleb128 0x2
 4288 01d2 18       		.uleb128 0x18
 4289 01d3 00       		.byte	0
 4290 01d4 00       		.byte	0
 4291 01d5 26       		.uleb128 0x26
 4292 01d6 2E       		.uleb128 0x2e
 4293 01d7 01       		.byte	0x1
 4294 01d8 03       		.uleb128 0x3
 4295 01d9 0E       		.uleb128 0xe
 4296 01da 3A       		.uleb128 0x3a
 4297 01db 0B       		.uleb128 0xb
 4298 01dc 3B       		.uleb128 0x3b
 4299 01dd 05       		.uleb128 0x5
 4300 01de 27       		.uleb128 0x27
 4301 01df 19       		.uleb128 0x19
 4302 01e0 11       		.uleb128 0x11
 4303 01e1 01       		.uleb128 0x1
 4304 01e2 12       		.uleb128 0x12
 4305 01e3 06       		.uleb128 0x6
 4306 01e4 40       		.uleb128 0x40
ARM GAS  /tmp/ccaMab5i.s 			page 77


 4307 01e5 18       		.uleb128 0x18
 4308 01e6 9642     		.uleb128 0x2116
 4309 01e8 19       		.uleb128 0x19
 4310 01e9 01       		.uleb128 0x1
 4311 01ea 13       		.uleb128 0x13
 4312 01eb 00       		.byte	0
 4313 01ec 00       		.byte	0
 4314 01ed 27       		.uleb128 0x27
 4315 01ee 34       		.uleb128 0x34
 4316 01ef 00       		.byte	0
 4317 01f0 03       		.uleb128 0x3
 4318 01f1 0E       		.uleb128 0xe
 4319 01f2 3A       		.uleb128 0x3a
 4320 01f3 0B       		.uleb128 0xb
 4321 01f4 3B       		.uleb128 0x3b
 4322 01f5 05       		.uleb128 0x5
 4323 01f6 49       		.uleb128 0x49
 4324 01f7 13       		.uleb128 0x13
 4325 01f8 02       		.uleb128 0x2
 4326 01f9 18       		.uleb128 0x18
 4327 01fa 00       		.byte	0
 4328 01fb 00       		.byte	0
 4329 01fc 28       		.uleb128 0x28
 4330 01fd 05       		.uleb128 0x5
 4331 01fe 00       		.byte	0
 4332 01ff 03       		.uleb128 0x3
 4333 0200 08       		.uleb128 0x8
 4334 0201 3A       		.uleb128 0x3a
 4335 0202 0B       		.uleb128 0xb
 4336 0203 3B       		.uleb128 0x3b
 4337 0204 05       		.uleb128 0x5
 4338 0205 49       		.uleb128 0x49
 4339 0206 13       		.uleb128 0x13
 4340 0207 02       		.uleb128 0x2
 4341 0208 18       		.uleb128 0x18
 4342 0209 00       		.byte	0
 4343 020a 00       		.byte	0
 4344 020b 29       		.uleb128 0x29
 4345 020c 2E       		.uleb128 0x2e
 4346 020d 00       		.byte	0
 4347 020e 03       		.uleb128 0x3
 4348 020f 0E       		.uleb128 0xe
 4349 0210 3A       		.uleb128 0x3a
 4350 0211 0B       		.uleb128 0xb
 4351 0212 3B       		.uleb128 0x3b
 4352 0213 05       		.uleb128 0x5
 4353 0214 27       		.uleb128 0x27
 4354 0215 19       		.uleb128 0x19
 4355 0216 11       		.uleb128 0x11
 4356 0217 01       		.uleb128 0x1
 4357 0218 12       		.uleb128 0x12
 4358 0219 06       		.uleb128 0x6
 4359 021a 40       		.uleb128 0x40
 4360 021b 18       		.uleb128 0x18
 4361 021c 9642     		.uleb128 0x2116
 4362 021e 19       		.uleb128 0x19
 4363 021f 00       		.byte	0
ARM GAS  /tmp/ccaMab5i.s 			page 78


 4364 0220 00       		.byte	0
 4365 0221 2A       		.uleb128 0x2a
 4366 0222 34       		.uleb128 0x34
 4367 0223 00       		.byte	0
 4368 0224 03       		.uleb128 0x3
 4369 0225 08       		.uleb128 0x8
 4370 0226 3A       		.uleb128 0x3a
 4371 0227 0B       		.uleb128 0xb
 4372 0228 3B       		.uleb128 0x3b
 4373 0229 05       		.uleb128 0x5
 4374 022a 49       		.uleb128 0x49
 4375 022b 13       		.uleb128 0x13
 4376 022c 02       		.uleb128 0x2
 4377 022d 18       		.uleb128 0x18
 4378 022e 00       		.byte	0
 4379 022f 00       		.byte	0
 4380 0230 2B       		.uleb128 0x2b
 4381 0231 2E       		.uleb128 0x2e
 4382 0232 01       		.byte	0x1
 4383 0233 03       		.uleb128 0x3
 4384 0234 0E       		.uleb128 0xe
 4385 0235 3A       		.uleb128 0x3a
 4386 0236 0B       		.uleb128 0xb
 4387 0237 3B       		.uleb128 0x3b
 4388 0238 0B       		.uleb128 0xb
 4389 0239 27       		.uleb128 0x27
 4390 023a 19       		.uleb128 0x19
 4391 023b 11       		.uleb128 0x11
 4392 023c 01       		.uleb128 0x1
 4393 023d 12       		.uleb128 0x12
 4394 023e 06       		.uleb128 0x6
 4395 023f 40       		.uleb128 0x40
 4396 0240 18       		.uleb128 0x18
 4397 0241 9642     		.uleb128 0x2116
 4398 0243 19       		.uleb128 0x19
 4399 0244 01       		.uleb128 0x1
 4400 0245 13       		.uleb128 0x13
 4401 0246 00       		.byte	0
 4402 0247 00       		.byte	0
 4403 0248 2C       		.uleb128 0x2c
 4404 0249 34       		.uleb128 0x34
 4405 024a 00       		.byte	0
 4406 024b 03       		.uleb128 0x3
 4407 024c 0E       		.uleb128 0xe
 4408 024d 3A       		.uleb128 0x3a
 4409 024e 0B       		.uleb128 0xb
 4410 024f 3B       		.uleb128 0x3b
 4411 0250 0B       		.uleb128 0xb
 4412 0251 49       		.uleb128 0x49
 4413 0252 13       		.uleb128 0x13
 4414 0253 02       		.uleb128 0x2
 4415 0254 18       		.uleb128 0x18
 4416 0255 00       		.byte	0
 4417 0256 00       		.byte	0
 4418 0257 2D       		.uleb128 0x2d
 4419 0258 05       		.uleb128 0x5
 4420 0259 00       		.byte	0
ARM GAS  /tmp/ccaMab5i.s 			page 79


 4421 025a 03       		.uleb128 0x3
 4422 025b 08       		.uleb128 0x8
 4423 025c 3A       		.uleb128 0x3a
 4424 025d 0B       		.uleb128 0xb
 4425 025e 3B       		.uleb128 0x3b
 4426 025f 0B       		.uleb128 0xb
 4427 0260 49       		.uleb128 0x49
 4428 0261 13       		.uleb128 0x13
 4429 0262 02       		.uleb128 0x2
 4430 0263 18       		.uleb128 0x18
 4431 0264 00       		.byte	0
 4432 0265 00       		.byte	0
 4433 0266 2E       		.uleb128 0x2e
 4434 0267 2E       		.uleb128 0x2e
 4435 0268 00       		.byte	0
 4436 0269 03       		.uleb128 0x3
 4437 026a 0E       		.uleb128 0xe
 4438 026b 3A       		.uleb128 0x3a
 4439 026c 0B       		.uleb128 0xb
 4440 026d 3B       		.uleb128 0x3b
 4441 026e 0B       		.uleb128 0xb
 4442 026f 27       		.uleb128 0x27
 4443 0270 19       		.uleb128 0x19
 4444 0271 11       		.uleb128 0x11
 4445 0272 01       		.uleb128 0x1
 4446 0273 12       		.uleb128 0x12
 4447 0274 06       		.uleb128 0x6
 4448 0275 40       		.uleb128 0x40
 4449 0276 18       		.uleb128 0x18
 4450 0277 9642     		.uleb128 0x2116
 4451 0279 19       		.uleb128 0x19
 4452 027a 00       		.byte	0
 4453 027b 00       		.byte	0
 4454 027c 2F       		.uleb128 0x2f
 4455 027d 2E       		.uleb128 0x2e
 4456 027e 00       		.byte	0
 4457 027f 03       		.uleb128 0x3
 4458 0280 0E       		.uleb128 0xe
 4459 0281 3A       		.uleb128 0x3a
 4460 0282 0B       		.uleb128 0xb
 4461 0283 3B       		.uleb128 0x3b
 4462 0284 0B       		.uleb128 0xb
 4463 0285 27       		.uleb128 0x27
 4464 0286 19       		.uleb128 0x19
 4465 0287 49       		.uleb128 0x49
 4466 0288 13       		.uleb128 0x13
 4467 0289 11       		.uleb128 0x11
 4468 028a 01       		.uleb128 0x1
 4469 028b 12       		.uleb128 0x12
 4470 028c 06       		.uleb128 0x6
 4471 028d 40       		.uleb128 0x40
 4472 028e 18       		.uleb128 0x18
 4473 028f 9642     		.uleb128 0x2116
 4474 0291 19       		.uleb128 0x19
 4475 0292 00       		.byte	0
 4476 0293 00       		.byte	0
 4477 0294 30       		.uleb128 0x30
ARM GAS  /tmp/ccaMab5i.s 			page 80


 4478 0295 2E       		.uleb128 0x2e
 4479 0296 00       		.byte	0
 4480 0297 03       		.uleb128 0x3
 4481 0298 0E       		.uleb128 0xe
 4482 0299 3A       		.uleb128 0x3a
 4483 029a 0B       		.uleb128 0xb
 4484 029b 3B       		.uleb128 0x3b
 4485 029c 0B       		.uleb128 0xb
 4486 029d 27       		.uleb128 0x27
 4487 029e 19       		.uleb128 0x19
 4488 029f 49       		.uleb128 0x49
 4489 02a0 13       		.uleb128 0x13
 4490 02a1 11       		.uleb128 0x11
 4491 02a2 01       		.uleb128 0x1
 4492 02a3 12       		.uleb128 0x12
 4493 02a4 06       		.uleb128 0x6
 4494 02a5 40       		.uleb128 0x40
 4495 02a6 18       		.uleb128 0x18
 4496 02a7 9742     		.uleb128 0x2117
 4497 02a9 19       		.uleb128 0x19
 4498 02aa 00       		.byte	0
 4499 02ab 00       		.byte	0
 4500 02ac 31       		.uleb128 0x31
 4501 02ad 34       		.uleb128 0x34
 4502 02ae 00       		.byte	0
 4503 02af 03       		.uleb128 0x3
 4504 02b0 0E       		.uleb128 0xe
 4505 02b1 49       		.uleb128 0x49
 4506 02b2 13       		.uleb128 0x13
 4507 02b3 34       		.uleb128 0x34
 4508 02b4 19       		.uleb128 0x19
 4509 02b5 02       		.uleb128 0x2
 4510 02b6 18       		.uleb128 0x18
 4511 02b7 00       		.byte	0
 4512 02b8 00       		.byte	0
 4513 02b9 32       		.uleb128 0x32
 4514 02ba 2E       		.uleb128 0x2e
 4515 02bb 01       		.byte	0x1
 4516 02bc 03       		.uleb128 0x3
 4517 02bd 0E       		.uleb128 0xe
 4518 02be 3A       		.uleb128 0x3a
 4519 02bf 0B       		.uleb128 0xb
 4520 02c0 3B       		.uleb128 0x3b
 4521 02c1 05       		.uleb128 0x5
 4522 02c2 27       		.uleb128 0x27
 4523 02c3 19       		.uleb128 0x19
 4524 02c4 49       		.uleb128 0x49
 4525 02c5 13       		.uleb128 0x13
 4526 02c6 11       		.uleb128 0x11
 4527 02c7 01       		.uleb128 0x1
 4528 02c8 12       		.uleb128 0x12
 4529 02c9 06       		.uleb128 0x6
 4530 02ca 40       		.uleb128 0x40
 4531 02cb 18       		.uleb128 0x18
 4532 02cc 9742     		.uleb128 0x2117
 4533 02ce 19       		.uleb128 0x19
 4534 02cf 01       		.uleb128 0x1
ARM GAS  /tmp/ccaMab5i.s 			page 81


 4535 02d0 13       		.uleb128 0x13
 4536 02d1 00       		.byte	0
 4537 02d2 00       		.byte	0
 4538 02d3 33       		.uleb128 0x33
 4539 02d4 2E       		.uleb128 0x2e
 4540 02d5 01       		.byte	0x1
 4541 02d6 03       		.uleb128 0x3
 4542 02d7 0E       		.uleb128 0xe
 4543 02d8 3A       		.uleb128 0x3a
 4544 02d9 0B       		.uleb128 0xb
 4545 02da 3B       		.uleb128 0x3b
 4546 02db 05       		.uleb128 0x5
 4547 02dc 27       		.uleb128 0x27
 4548 02dd 19       		.uleb128 0x19
 4549 02de 11       		.uleb128 0x11
 4550 02df 01       		.uleb128 0x1
 4551 02e0 12       		.uleb128 0x12
 4552 02e1 06       		.uleb128 0x6
 4553 02e2 40       		.uleb128 0x40
 4554 02e3 18       		.uleb128 0x18
 4555 02e4 9742     		.uleb128 0x2117
 4556 02e6 19       		.uleb128 0x19
 4557 02e7 01       		.uleb128 0x1
 4558 02e8 13       		.uleb128 0x13
 4559 02e9 00       		.byte	0
 4560 02ea 00       		.byte	0
 4561 02eb 34       		.uleb128 0x34
 4562 02ec 1D       		.uleb128 0x1d
 4563 02ed 01       		.byte	0x1
 4564 02ee 31       		.uleb128 0x31
 4565 02ef 13       		.uleb128 0x13
 4566 02f0 11       		.uleb128 0x11
 4567 02f1 01       		.uleb128 0x1
 4568 02f2 12       		.uleb128 0x12
 4569 02f3 06       		.uleb128 0x6
 4570 02f4 58       		.uleb128 0x58
 4571 02f5 0B       		.uleb128 0xb
 4572 02f6 59       		.uleb128 0x59
 4573 02f7 05       		.uleb128 0x5
 4574 02f8 00       		.byte	0
 4575 02f9 00       		.byte	0
 4576 02fa 35       		.uleb128 0x35
 4577 02fb 05       		.uleb128 0x5
 4578 02fc 00       		.byte	0
 4579 02fd 31       		.uleb128 0x31
 4580 02fe 13       		.uleb128 0x13
 4581 02ff 02       		.uleb128 0x2
 4582 0300 18       		.uleb128 0x18
 4583 0301 00       		.byte	0
 4584 0302 00       		.byte	0
 4585 0303 36       		.uleb128 0x36
 4586 0304 2E       		.uleb128 0x2e
 4587 0305 01       		.byte	0x1
 4588 0306 03       		.uleb128 0x3
 4589 0307 0E       		.uleb128 0xe
 4590 0308 3A       		.uleb128 0x3a
 4591 0309 0B       		.uleb128 0xb
ARM GAS  /tmp/ccaMab5i.s 			page 82


 4592 030a 3B       		.uleb128 0x3b
 4593 030b 05       		.uleb128 0x5
 4594 030c 27       		.uleb128 0x27
 4595 030d 19       		.uleb128 0x19
 4596 030e 20       		.uleb128 0x20
 4597 030f 0B       		.uleb128 0xb
 4598 0310 00       		.byte	0
 4599 0311 00       		.byte	0
 4600 0312 37       		.uleb128 0x37
 4601 0313 05       		.uleb128 0x5
 4602 0314 00       		.byte	0
 4603 0315 03       		.uleb128 0x3
 4604 0316 0E       		.uleb128 0xe
 4605 0317 3A       		.uleb128 0x3a
 4606 0318 0B       		.uleb128 0xb
 4607 0319 3B       		.uleb128 0x3b
 4608 031a 05       		.uleb128 0x5
 4609 031b 49       		.uleb128 0x49
 4610 031c 13       		.uleb128 0x13
 4611 031d 00       		.byte	0
 4612 031e 00       		.byte	0
 4613 031f 00       		.byte	0
 4614              		.section	.debug_aranges,"",%progbits
 4615 0000 DC000000 		.4byte	0xdc
 4616 0004 0200     		.2byte	0x2
 4617 0006 00000000 		.4byte	.Ldebug_info0
 4618 000a 04       		.byte	0x4
 4619 000b 00       		.byte	0
 4620 000c 0000     		.2byte	0
 4621 000e 0000     		.2byte	0
 4622 0010 00000000 		.4byte	.LFB127
 4623 0014 12000000 		.4byte	.LFE127-.LFB127
 4624 0018 00000000 		.4byte	.LFB128
 4625 001c 12000000 		.4byte	.LFE128-.LFB128
 4626 0020 00000000 		.4byte	.LFB140
 4627 0024 1A000000 		.4byte	.LFE140-.LFB140
 4628 0028 00000000 		.4byte	.LFB156
 4629 002c 12000000 		.4byte	.LFE156-.LFB156
 4630 0030 00000000 		.4byte	.LFB157
 4631 0034 3C000000 		.4byte	.LFE157-.LFB157
 4632 0038 00000000 		.4byte	.LFB178
 4633 003c 0C000000 		.4byte	.LFE178-.LFB178
 4634 0040 00000000 		.4byte	.LFB179
 4635 0044 0E000000 		.4byte	.LFE179-.LFB179
 4636 0048 00000000 		.4byte	.LFB231
 4637 004c 10000000 		.4byte	.LFE231-.LFB231
 4638 0050 00000000 		.4byte	.LFB232
 4639 0054 28000000 		.4byte	.LFE232-.LFB232
 4640 0058 00000000 		.4byte	.LFB233
 4641 005c 04010000 		.4byte	.LFE233-.LFB233
 4642 0060 00000000 		.4byte	.LFB234
 4643 0064 1C000000 		.4byte	.LFE234-.LFB234
 4644 0068 00000000 		.4byte	.LFB235
 4645 006c 28000000 		.4byte	.LFE235-.LFB235
 4646 0070 00000000 		.4byte	.LFB236
 4647 0074 28000000 		.4byte	.LFE236-.LFB236
 4648 0078 00000000 		.4byte	.LFB237
ARM GAS  /tmp/ccaMab5i.s 			page 83


 4649 007c 24030000 		.4byte	.LFE237-.LFB237
 4650 0080 00000000 		.4byte	.LFB238
 4651 0084 10000000 		.4byte	.LFE238-.LFB238
 4652 0088 00000000 		.4byte	.LFB239
 4653 008c 18010000 		.4byte	.LFE239-.LFB239
 4654 0090 00000000 		.4byte	.LFB240
 4655 0094 1C000000 		.4byte	.LFE240-.LFB240
 4656 0098 00000000 		.4byte	.LFB241
 4657 009c 34000000 		.4byte	.LFE241-.LFB241
 4658 00a0 00000000 		.4byte	.LFB242
 4659 00a4 00010000 		.4byte	.LFE242-.LFB242
 4660 00a8 00000000 		.4byte	.LFB243
 4661 00ac 1C000000 		.4byte	.LFE243-.LFB243
 4662 00b0 00000000 		.4byte	.LFB244
 4663 00b4 DC000000 		.4byte	.LFE244-.LFB244
 4664 00b8 00000000 		.4byte	.LFB245
 4665 00bc 24000000 		.4byte	.LFE245-.LFB245
 4666 00c0 00000000 		.4byte	.LFB246
 4667 00c4 48000000 		.4byte	.LFE246-.LFB246
 4668 00c8 00000000 		.4byte	.LFB247
 4669 00cc 28000000 		.4byte	.LFE247-.LFB247
 4670 00d0 00000000 		.4byte	.LFB248
 4671 00d4 A8000000 		.4byte	.LFE248-.LFB248
 4672 00d8 00000000 		.4byte	0
 4673 00dc 00000000 		.4byte	0
 4674              		.section	.debug_ranges,"",%progbits
 4675              	.Ldebug_ranges0:
 4676 0000 00000000 		.4byte	.LFB127
 4677 0004 12000000 		.4byte	.LFE127
 4678 0008 00000000 		.4byte	.LFB128
 4679 000c 12000000 		.4byte	.LFE128
 4680 0010 00000000 		.4byte	.LFB140
 4681 0014 1A000000 		.4byte	.LFE140
 4682 0018 00000000 		.4byte	.LFB156
 4683 001c 12000000 		.4byte	.LFE156
 4684 0020 00000000 		.4byte	.LFB157
 4685 0024 3C000000 		.4byte	.LFE157
 4686 0028 00000000 		.4byte	.LFB178
 4687 002c 0C000000 		.4byte	.LFE178
 4688 0030 00000000 		.4byte	.LFB179
 4689 0034 0E000000 		.4byte	.LFE179
 4690 0038 00000000 		.4byte	.LFB231
 4691 003c 10000000 		.4byte	.LFE231
 4692 0040 00000000 		.4byte	.LFB232
 4693 0044 28000000 		.4byte	.LFE232
 4694 0048 00000000 		.4byte	.LFB233
 4695 004c 04010000 		.4byte	.LFE233
 4696 0050 00000000 		.4byte	.LFB234
 4697 0054 1C000000 		.4byte	.LFE234
 4698 0058 00000000 		.4byte	.LFB235
 4699 005c 28000000 		.4byte	.LFE235
 4700 0060 00000000 		.4byte	.LFB236
 4701 0064 28000000 		.4byte	.LFE236
 4702 0068 00000000 		.4byte	.LFB237
 4703 006c 24030000 		.4byte	.LFE237
 4704 0070 00000000 		.4byte	.LFB238
 4705 0074 10000000 		.4byte	.LFE238
ARM GAS  /tmp/ccaMab5i.s 			page 84


 4706 0078 00000000 		.4byte	.LFB239
 4707 007c 18010000 		.4byte	.LFE239
 4708 0080 00000000 		.4byte	.LFB240
 4709 0084 1C000000 		.4byte	.LFE240
 4710 0088 00000000 		.4byte	.LFB241
 4711 008c 34000000 		.4byte	.LFE241
 4712 0090 00000000 		.4byte	.LFB242
 4713 0094 00010000 		.4byte	.LFE242
 4714 0098 00000000 		.4byte	.LFB243
 4715 009c 1C000000 		.4byte	.LFE243
 4716 00a0 00000000 		.4byte	.LFB244
 4717 00a4 DC000000 		.4byte	.LFE244
 4718 00a8 00000000 		.4byte	.LFB245
 4719 00ac 24000000 		.4byte	.LFE245
 4720 00b0 00000000 		.4byte	.LFB246
 4721 00b4 48000000 		.4byte	.LFE246
 4722 00b8 00000000 		.4byte	.LFB247
 4723 00bc 28000000 		.4byte	.LFE247
 4724 00c0 00000000 		.4byte	.LFB248
 4725 00c4 A8000000 		.4byte	.LFE248
 4726 00c8 00000000 		.4byte	0
 4727 00cc 00000000 		.4byte	0
 4728              		.section	.debug_line,"",%progbits
 4729              	.Ldebug_line0:
 4730 0000 08050000 		.section	.debug_str,"MS",%progbits,1
 4730      02005A02 
 4730      00000201 
 4730      FB0E0D00 
 4730      01010101 
 4731              	.LASF53:
 4732 0000 74687265 		.ascii	"threads_list_t\000"
 4732      6164735F 
 4732      6C697374 
 4732      5F7400
 4733              	.LASF133:
 4734 000f 63665F6F 		.ascii	"cf_off_older\000"
 4734      66665F6F 
 4734      6C646572 
 4734      00
 4735              	.LASF58:
 4736 001c 72656164 		.ascii	"ready_list_t\000"
 4736      795F6C69 
 4736      73745F74 
 4736      00
 4737              	.LASF4:
 4738 0029 73697A65 		.ascii	"size_t\000"
 4738      5F7400
 4739              	.LASF108:
 4740 0030 7264796D 		.ascii	"rdymsg\000"
 4740      736700
 4741              	.LASF20:
 4742 0037 75696E74 		.ascii	"uint64_t\000"
 4742      36345F74 
 4742      00
 4743              	.LASF191:
 4744 0040 2E2E2F43 		.ascii	"../ChibiOS/test/rt/testmtx.c\000"
 4744      68696269 
ARM GAS  /tmp/ccaMab5i.s 			page 85


 4744      4F532F74 
 4744      6573742F 
 4744      72742F74 
 4745              	.LASF5:
 4746 005d 5F5F7569 		.ascii	"__uint8_t\000"
 4746      6E74385F 
 4746      7400
 4747              	.LASF95:
 4748 0067 706F7274 		.ascii	"port_intctx\000"
 4748      5F696E74 
 4748      63747800 
 4749              	.LASF57:
 4750 0073 63685F74 		.ascii	"ch_threads_queue\000"
 4750      68726561 
 4750      64735F71 
 4750      75657565 
 4750      00
 4751              	.LASF77:
 4752 0084 73797374 		.ascii	"system_debug_t\000"
 4752      656D5F64 
 4752      65627567 
 4752      5F7400
 4753              	.LASF170:
 4754 0093 6D747838 		.ascii	"mtx8_setup\000"
 4754      5F736574 
 4754      757000
 4755              	.LASF171:
 4756 009e 6D747837 		.ascii	"mtx7_setup\000"
 4756      5F736574 
 4756      757000
 4757              	.LASF189:
 4758 00a9 706F7274 		.ascii	"port_lock\000"
 4758      5F6C6F63 
 4758      6B00
 4759              	.LASF99:
 4760 00b3 776F7273 		.ascii	"worst\000"
 4760      7400
 4761              	.LASF102:
 4762 00b9 74696D65 		.ascii	"time_measurement_t\000"
 4762      5F6D6561 
 4762      73757265 
 4762      6D656E74 
 4762      5F7400
 4763              	.LASF179:
 4764 00cc 74687265 		.ascii	"thread4a\000"
 4764      61643461 
 4764      00
 4765              	.LASF178:
 4766 00d5 74687265 		.ascii	"thread4b\000"
 4766      61643462 
 4766      00
 4767              	.LASF15:
 4768 00de 6C6F6E67 		.ascii	"long long unsigned int\000"
 4768      206C6F6E 
 4768      6720756E 
 4768      7369676E 
 4768      65642069 
ARM GAS  /tmp/ccaMab5i.s 			page 86


 4769              	.LASF129:
 4770 00f5 63685F74 		.ascii	"ch_threadsize\000"
 4770      68726561 
 4770      6473697A 
 4770      6500
 4771              	.LASF109:
 4772 0103 65786974 		.ascii	"exitcode\000"
 4772      636F6465 
 4772      00
 4773              	.LASF86:
 4774 010c 6D61696E 		.ascii	"mainthread\000"
 4774      74687265 
 4774      616400
 4775              	.LASF156:
 4776 0117 74657374 		.ascii	"test\000"
 4776      00
 4777              	.LASF74:
 4778 011c 76697274 		.ascii	"virtual_timers_list_t\000"
 4778      75616C5F 
 4778      74696D65 
 4778      72735F6C 
 4778      6973745F 
 4779              	.LASF90:
 4780 0132 49544D5F 		.ascii	"ITM_RxBuffer\000"
 4780      52784275 
 4780      66666572 
 4780      00
 4781              	.LASF181:
 4782 013f 6D747831 		.ascii	"mtx1_execute\000"
 4782      5F657865 
 4782      63757465 
 4782      00
 4783              	.LASF22:
 4784 014c 72747469 		.ascii	"rttime_t\000"
 4784      6D655F74 
 4784      00
 4785              	.LASF35:
 4786 0155 705F7072 		.ascii	"p_prio\000"
 4786      696F00
 4787              	.LASF136:
 4788 015c 63665F6F 		.ascii	"cf_off_state\000"
 4788      66665F73 
 4788      74617465 
 4788      00
 4789              	.LASF151:
 4790 0169 74656172 		.ascii	"teardown\000"
 4790      646F776E 
 4790      00
 4791              	.LASF1:
 4792 0172 6C6F6E67 		.ascii	"long long int\000"
 4792      206C6F6E 
 4792      6720696E 
 4792      7400
 4793              	.LASF3:
 4794 0180 7369676E 		.ascii	"signed char\000"
 4794      65642063 
 4794      68617200 
ARM GAS  /tmp/ccaMab5i.s 			page 87


 4795              	.LASF146:
 4796 018c 636F6E64 		.ascii	"condition_variable_t\000"
 4796      6974696F 
 4796      6E5F7661 
 4796      72696162 
 4796      6C655F74 
 4797              	.LASF135:
 4798 01a1 63665F6F 		.ascii	"cf_off_stklimit\000"
 4798      66665F73 
 4798      746B6C69 
 4798      6D697400 
 4799              	.LASF137:
 4800 01b1 63665F6F 		.ascii	"cf_off_flags\000"
 4800      66665F66 
 4800      6C616773 
 4800      00
 4801              	.LASF41:
 4802 01be 705F7374 		.ascii	"p_state\000"
 4802      61746500 
 4803              	.LASF50:
 4804 01c6 705F6D70 		.ascii	"p_mpool\000"
 4804      6F6F6C00 
 4805              	.LASF166:
 4806 01ce 6D747838 		.ascii	"mtx8_execute\000"
 4806      5F657865 
 4806      63757465 
 4806      00
 4807              	.LASF85:
 4808 01db 76746C69 		.ascii	"vtlist\000"
 4808      737400
 4809              	.LASF188:
 4810 01e2 706F7274 		.ascii	"port_unlock\000"
 4810      5F756E6C 
 4810      6F636B00 
 4811              	.LASF111:
 4812 01ee 77747472 		.ascii	"wttrp\000"
 4812      7000
 4813              	.LASF83:
 4814 01f4 63685F73 		.ascii	"ch_system\000"
 4814      79737465 
 4814      6D00
 4815              	.LASF11:
 4816 01fe 6C6F6E67 		.ascii	"long int\000"
 4816      20696E74 
 4816      00
 4817              	.LASF24:
 4818 0207 74737461 		.ascii	"tstate_t\000"
 4818      74655F74 
 4818      00
 4819              	.LASF190:
 4820 0210 474E5520 		.ascii	"GNU C11 6.3.1 20170620 (release) [ARM/embedded-6-br"
 4820      43313120 
 4820      362E332E 
 4820      31203230 
 4820      31373036 
 4821 0243 616E6368 		.ascii	"anch revision 249437] -mcpu=cortex-m4 -mfloat-abi=h"
 4821      20726576 
ARM GAS  /tmp/ccaMab5i.s 			page 88


 4821      6973696F 
 4821      6E203234 
 4821      39343337 
 4822 0276 61726420 		.ascii	"ard -mfpu=fpv4-sp-d16 -mno-thumb-interwork -mthumb "
 4822      2D6D6670 
 4822      753D6670 
 4822      76342D73 
 4822      702D6431 
 4823 02a9 2D676764 		.ascii	"-ggdb -O0 -fomit-frame-pointer -falign-functions=16"
 4823      62202D4F 
 4823      30202D66 
 4823      6F6D6974 
 4823      2D667261 
 4824 02dc 202D6666 		.ascii	" -ffunction-sections -fdata-sections -fno-common -f"
 4824      756E6374 
 4824      696F6E2D 
 4824      73656374 
 4824      696F6E73 
 4825 030f 73696E67 		.ascii	"single-precision-constant\000"
 4825      6C652D70 
 4825      72656369 
 4825      73696F6E 
 4825      2D636F6E 
 4826              	.LASF141:
 4827 0329 63686465 		.ascii	"chdebug_t\000"
 4827      6275675F 
 4827      7400
 4828              	.LASF153:
 4829 0333 62756666 		.ascii	"buffer\000"
 4829      657200
 4830              	.LASF37:
 4831 033a 705F6E65 		.ascii	"p_newer\000"
 4831      77657200 
 4832              	.LASF195:
 4833 0342 71756575 		.ascii	"queue_isempty\000"
 4833      655F6973 
 4833      656D7074 
 4833      7900
 4834              	.LASF116:
 4835 0350 735F7175 		.ascii	"s_queue\000"
 4835      65756500 
 4836              	.LASF2:
 4837 0358 6C6F6E67 		.ascii	"long double\000"
 4837      20646F75 
 4837      626C6500 
 4838              	.LASF63:
 4839 0364 725F6E65 		.ascii	"r_newer\000"
 4839      77657200 
 4840              	.LASF92:
 4841 036c 72656761 		.ascii	"regarm_t\000"
 4841      726D5F74 
 4841      00
 4842              	.LASF70:
 4843 0375 76745F70 		.ascii	"vt_prev\000"
 4843      72657600 
 4844              	.LASF78:
 4845 037d 63685F73 		.ascii	"ch_system_debug\000"
ARM GAS  /tmp/ccaMab5i.s 			page 89


 4845      79737465 
 4845      6D5F6465 
 4845      62756700 
 4846              	.LASF143:
 4847 038d 6D757465 		.ascii	"mutex_t\000"
 4847      785F7400 
 4848              	.LASF197:
 4849 0395 76616C75 		.ascii	"value\000"
 4849      6500
 4850              	.LASF81:
 4851 039b 6C6F636B 		.ascii	"lock_cnt\000"
 4851      5F636E74 
 4851      00
 4852              	.LASF88:
 4853 03a4 69646C65 		.ascii	"idle_thread_wa\000"
 4853      5F746872 
 4853      6561645F 
 4853      776100
 4854              	.LASF29:
 4855 03b3 636E745F 		.ascii	"cnt_t\000"
 4855      7400
 4856              	.LASF40:
 4857 03b9 705F7374 		.ascii	"p_stklimit\000"
 4857      6B6C696D 
 4857      697400
 4858              	.LASF0:
 4859 03c4 756E7369 		.ascii	"unsigned int\000"
 4859      676E6564 
 4859      20696E74 
 4859      00
 4860              	.LASF69:
 4861 03d1 76745F6E 		.ascii	"vt_next\000"
 4861      65787400 
 4862              	.LASF17:
 4863 03d9 75696E74 		.ascii	"uint16_t\000"
 4863      31365F74 
 4863      00
 4864              	.LASF91:
 4865 03e2 53797374 		.ascii	"SystemCoreClock\000"
 4865      656D436F 
 4865      7265436C 
 4865      6F636B00 
 4866              	.LASF192:
 4867 03f2 2F686F6D 		.ascii	"/home/matt/Documents/fibre-link/header-detection/pc"
 4867      652F6D61 
 4867      74742F44 
 4867      6F63756D 
 4867      656E7473 
 4868 0425 622F7374 		.ascii	"b/stm32/firmware\000"
 4868      6D33322F 
 4868      6669726D 
 4868      77617265 
 4868      00
 4869              	.LASF112:
 4870 0436 77747365 		.ascii	"wtsemp\000"
 4870      6D7000
 4871              	.LASF71:
ARM GAS  /tmp/ccaMab5i.s 			page 90


 4872 043d 76745F64 		.ascii	"vt_delta\000"
 4872      656C7461 
 4872      00
 4873              	.LASF45:
 4874 0446 705F6D73 		.ascii	"p_msgqueue\000"
 4874      67717565 
 4874      756500
 4875              	.LASF142:
 4876 0451 63685F64 		.ascii	"ch_debug\000"
 4876      65627567 
 4876      00
 4877              	.LASF103:
 4878 045a 6E5F6972 		.ascii	"n_irq\000"
 4878      7100
 4879              	.LASF117:
 4880 0460 735F636E 		.ascii	"s_cnt\000"
 4880      7400
 4881              	.LASF149:
 4882 0466 6E616D65 		.ascii	"name\000"
 4882      00
 4883              	.LASF9:
 4884 046b 73686F72 		.ascii	"short unsigned int\000"
 4884      7420756E 
 4884      7369676E 
 4884      65642069 
 4884      6E7400
 4885              	.LASF107:
 4886 047e 6B65726E 		.ascii	"kernel_stats_t\000"
 4886      656C5F73 
 4886      74617473 
 4886      5F7400
 4887              	.LASF54:
 4888 048d 63685F74 		.ascii	"ch_thread\000"
 4888      68726561 
 4888      6400
 4889              	.LASF27:
 4890 0497 6D73675F 		.ascii	"msg_t\000"
 4890      7400
 4891              	.LASF100:
 4892 049d 6C617374 		.ascii	"last\000"
 4892      00
 4893              	.LASF30:
 4894 04a2 75636E74 		.ascii	"ucnt_t\000"
 4894      5F7400
 4895              	.LASF82:
 4896 04a9 63685F73 		.ascii	"ch_system_t\000"
 4896      79737465 
 4896      6D5F7400 
 4897              	.LASF131:
 4898 04b5 63665F6F 		.ascii	"cf_off_ctx\000"
 4898      66665F63 
 4898      747800
 4899              	.LASF183:
 4900 04c0 6D747831 		.ascii	"mtx1_setup\000"
 4900      5F736574 
 4900      757000
 4901              	.LASF140:
ARM GAS  /tmp/ccaMab5i.s 			page 91


 4902 04cb 63665F6F 		.ascii	"cf_off_time\000"
 4902      66665F74 
 4902      696D6500 
 4903              	.LASF106:
 4904 04d7 6D5F6372 		.ascii	"m_crit_isr\000"
 4904      69745F69 
 4904      737200
 4905              	.LASF59:
 4906 04e2 63685F72 		.ascii	"ch_ready_list\000"
 4906      65616479 
 4906      5F6C6973 
 4906      7400
 4907              	.LASF28:
 4908 04f0 6576656E 		.ascii	"eventmask_t\000"
 4908      746D6173 
 4908      6B5F7400 
 4909              	.LASF10:
 4910 04fc 5F5F696E 		.ascii	"__int32_t\000"
 4910      7433325F 
 4910      7400
 4911              	.LASF93:
 4912 0506 73746B61 		.ascii	"stkalign_t\000"
 4912      6C69676E 
 4912      5F7400
 4913              	.LASF145:
 4914 0511 635F7175 		.ascii	"c_queue\000"
 4914      65756500 
 4915              	.LASF124:
 4916 0519 63685F7A 		.ascii	"ch_zero\000"
 4916      65726F00 
 4917              	.LASF138:
 4918 0521 63665F6F 		.ascii	"cf_off_refs\000"
 4918      66665F72 
 4918      65667300 
 4919              	.LASF61:
 4920 052d 725F7072 		.ascii	"r_prio\000"
 4920      696F00
 4921              	.LASF44:
 4922 0534 705F7761 		.ascii	"p_waiting\000"
 4922      6974696E 
 4922      6700
 4923              	.LASF89:
 4924 053e 73697A65 		.ascii	"sizetype\000"
 4924      74797065 
 4924      00
 4925              	.LASF75:
 4926 0547 63685F76 		.ascii	"ch_virtual_timers_list\000"
 4926      69727475 
 4926      616C5F74 
 4926      696D6572 
 4926      735F6C69 
 4927              	.LASF144:
 4928 055e 636F6E64 		.ascii	"condition_variable\000"
 4928      6974696F 
 4928      6E5F7661 
 4928      72696162 
 4928      6C6500
ARM GAS  /tmp/ccaMab5i.s 			page 92


 4929              	.LASF128:
 4930 0571 63685F74 		.ascii	"ch_timesize\000"
 4930      696D6573 
 4930      697A6500 
 4931              	.LASF172:
 4932 057d 6D747836 		.ascii	"mtx6_execute\000"
 4932      5F657865 
 4932      63757465 
 4932      00
 4933              	.LASF97:
 4934 058a 746D5F63 		.ascii	"tm_calibration_t\000"
 4934      616C6962 
 4934      72617469 
 4934      6F6E5F74 
 4934      00
 4935              	.LASF134:
 4936 059b 63665F6F 		.ascii	"cf_off_name\000"
 4936      66665F6E 
 4936      616D6500 
 4937              	.LASF38:
 4938 05a7 705F6F6C 		.ascii	"p_older\000"
 4938      64657200 
 4939              	.LASF182:
 4940 05af 74687265 		.ascii	"thread1\000"
 4940      61643100 
 4941              	.LASF62:
 4942 05b7 725F6374 		.ascii	"r_ctx\000"
 4942      7800
 4943              	.LASF36:
 4944 05bd 705F6374 		.ascii	"p_ctx\000"
 4944      7800
 4945              	.LASF184:
 4946 05c3 63685468 		.ascii	"chThdGetPriorityX\000"
 4946      64476574 
 4946      5072696F 
 4946      72697479 
 4946      5800
 4947              	.LASF180:
 4948 05d5 6D747834 		.ascii	"mtx4_setup\000"
 4948      5F736574 
 4948      757000
 4949              	.LASF177:
 4950 05e0 6D747834 		.ascii	"mtx4_execute\000"
 4950      5F657865 
 4950      63757465 
 4950      00
 4951              	.LASF165:
 4952 05ed 7072696F 		.ascii	"prio\000"
 4952      00
 4953              	.LASF64:
 4954 05f2 725F6F6C 		.ascii	"r_older\000"
 4954      64657200 
 4955              	.LASF14:
 4956 05fa 5F5F7569 		.ascii	"__uint64_t\000"
 4956      6E743634 
 4956      5F7400
 4957              	.LASF174:
ARM GAS  /tmp/ccaMab5i.s 			page 93


 4958 0605 6D747836 		.ascii	"mtx6_setup\000"
 4958      5F736574 
 4958      757000
 4959              	.LASF101:
 4960 0610 63756D75 		.ascii	"cumulative\000"
 4960      6C617469 
 4960      766500
 4961              	.LASF173:
 4962 061b 74687265 		.ascii	"thread10\000"
 4962      61643130 
 4962      00
 4963              	.LASF168:
 4964 0624 74687265 		.ascii	"thread11\000"
 4964      61643131 
 4964      00
 4965              	.LASF167:
 4966 062d 74687265 		.ascii	"thread12\000"
 4966      61643132 
 4966      00
 4967              	.LASF150:
 4968 0636 73657475 		.ascii	"setup\000"
 4968      7000
 4969              	.LASF87:
 4970 063c 6B65726E 		.ascii	"kernel_stats\000"
 4970      656C5F73 
 4970      74617473 
 4970      00
 4971              	.LASF25:
 4972 0649 74726566 		.ascii	"trefs_t\000"
 4972      735F7400 
 4973              	.LASF127:
 4974 0651 63685F70 		.ascii	"ch_ptrsize\000"
 4974      74727369 
 4974      7A6500
 4975              	.LASF67:
 4976 065c 76697274 		.ascii	"virtual_timer_t\000"
 4976      75616C5F 
 4976      74696D65 
 4976      725F7400 
 4977              	.LASF34:
 4978 066c 705F7072 		.ascii	"p_prev\000"
 4978      657600
 4979              	.LASF152:
 4980 0673 65786563 		.ascii	"execute\000"
 4980      75746500 
 4981              	.LASF26:
 4982 067b 74707269 		.ascii	"tprio_t\000"
 4982      6F5F7400 
 4983              	.LASF104:
 4984 0683 6E5F6374 		.ascii	"n_ctxswc\000"
 4984      78737763 
 4984      00
 4985              	.LASF147:
 4986 068c 5F426F6F 		.ascii	"_Bool\000"
 4986      6C00
 4987              	.LASF18:
 4988 0692 696E7433 		.ascii	"int32_t\000"
ARM GAS  /tmp/ccaMab5i.s 			page 94


 4988      325F7400 
 4989              	.LASF6:
 4990 069a 756E7369 		.ascii	"unsigned char\000"
 4990      676E6564 
 4990      20636861 
 4990      7200
 4991              	.LASF119:
 4992 06a8 6D5F7175 		.ascii	"m_queue\000"
 4992      65756500 
 4993              	.LASF164:
 4994 06b0 70617474 		.ascii	"patternmtx\000"
 4994      65726E6D 
 4994      747800
 4995              	.LASF48:
 4996 06bb 705F6D74 		.ascii	"p_mtxlist\000"
 4996      786C6973 
 4996      7400
 4997              	.LASF7:
 4998 06c5 73686F72 		.ascii	"short int\000"
 4998      7420696E 
 4998      7400
 4999              	.LASF155:
 5000 06cf 74687265 		.ascii	"threads\000"
 5000      61647300 
 5001              	.LASF157:
 5002 06d7 74657374 		.ascii	"test_timer_done\000"
 5002      5F74696D 
 5002      65725F64 
 5002      6F6E6500 
 5003              	.LASF114:
 5004 06e7 65776D61 		.ascii	"ewmask\000"
 5004      736B00
 5005              	.LASF33:
 5006 06ee 705F6E65 		.ascii	"p_next\000"
 5006      787400
 5007              	.LASF23:
 5008 06f5 746D6F64 		.ascii	"tmode_t\000"
 5008      655F7400 
 5009              	.LASF139:
 5010 06fd 63665F6F 		.ascii	"cf_off_preempt\000"
 5010      66665F70 
 5010      7265656D 
 5010      707400
 5011              	.LASF42:
 5012 070c 705F666C 		.ascii	"p_flags\000"
 5012      61677300 
 5013              	.LASF194:
 5014 0714 5F5F6675 		.ascii	"__func__\000"
 5014      6E635F5F 
 5014      00
 5015              	.LASF51:
 5016 071d 705F7374 		.ascii	"p_stats\000"
 5016      61747300 
 5017              	.LASF187:
 5018 0725 63685379 		.ascii	"chSysLock\000"
 5018      734C6F63 
 5018      6B00
ARM GAS  /tmp/ccaMab5i.s 			page 95


 5019              	.LASF56:
 5020 072f 74687265 		.ascii	"threads_queue_t\000"
 5020      6164735F 
 5020      71756575 
 5020      655F7400 
 5021              	.LASF68:
 5022 073f 63685F76 		.ascii	"ch_virtual_timer\000"
 5022      69727475 
 5022      616C5F74 
 5022      696D6572 
 5022      00
 5023              	.LASF132:
 5024 0750 63665F6F 		.ascii	"cf_off_newer\000"
 5024      66665F6E 
 5024      65776572 
 5024      00
 5025              	.LASF175:
 5026 075d 6D747835 		.ascii	"mtx5_execute\000"
 5026      5F657865 
 5026      63757465 
 5026      00
 5027              	.LASF115:
 5028 076a 63685F73 		.ascii	"ch_semaphore\000"
 5028      656D6170 
 5028      686F7265 
 5028      00
 5029              	.LASF47:
 5030 0777 705F6570 		.ascii	"p_epending\000"
 5030      656E6469 
 5030      6E6700
 5031              	.LASF19:
 5032 0782 75696E74 		.ascii	"uint32_t\000"
 5032      33325F74 
 5032      00
 5033              	.LASF130:
 5034 078b 63665F6F 		.ascii	"cf_off_prio\000"
 5034      66665F70 
 5034      72696F00 
 5035              	.LASF60:
 5036 0797 725F7175 		.ascii	"r_queue\000"
 5036      65756500 
 5037              	.LASF55:
 5038 079f 63685F74 		.ascii	"ch_threads_list\000"
 5038      68726561 
 5038      64735F6C 
 5038      69737400 
 5039              	.LASF159:
 5040 07af 74657374 		.ascii	"testmtx4\000"
 5040      6D747834 
 5040      00
 5041              	.LASF160:
 5042 07b8 74657374 		.ascii	"testmtx5\000"
 5042      6D747835 
 5042      00
 5043              	.LASF161:
 5044 07c1 74657374 		.ascii	"testmtx6\000"
 5044      6D747836 
ARM GAS  /tmp/ccaMab5i.s 			page 96


 5044      00
 5045              	.LASF162:
 5046 07ca 74657374 		.ascii	"testmtx7\000"
 5046      6D747837 
 5046      00
 5047              	.LASF13:
 5048 07d3 6C6F6E67 		.ascii	"long unsigned int\000"
 5048      20756E73 
 5048      69676E65 
 5048      6420696E 
 5048      7400
 5049              	.LASF122:
 5050 07e5 63686172 		.ascii	"char\000"
 5050      00
 5051              	.LASF176:
 5052 07ea 6D747835 		.ascii	"mtx5_setup\000"
 5052      5F736574 
 5052      757000
 5053              	.LASF113:
 5054 07f5 77746D74 		.ascii	"wtmtxp\000"
 5054      787000
 5055              	.LASF8:
 5056 07fc 5F5F7569 		.ascii	"__uint16_t\000"
 5056      6E743136 
 5056      5F7400
 5057              	.LASF32:
 5058 0807 74687265 		.ascii	"thread_t\000"
 5058      61645F74 
 5058      00
 5059              	.LASF98:
 5060 0810 62657374 		.ascii	"best\000"
 5060      00
 5061              	.LASF121:
 5062 0815 6D5F6E65 		.ascii	"m_next\000"
 5062      787400
 5063              	.LASF31:
 5064 081c 73797374 		.ascii	"systime_t\000"
 5064      696D655F 
 5064      7400
 5065              	.LASF49:
 5066 0826 705F7265 		.ascii	"p_realprio\000"
 5066      616C7072 
 5066      696F00
 5067              	.LASF66:
 5068 0831 76746675 		.ascii	"vtfunc_t\000"
 5068      6E635F74 
 5068      00
 5069              	.LASF12:
 5070 083a 5F5F7569 		.ascii	"__uint32_t\000"
 5070      6E743332 
 5070      5F7400
 5071              	.LASF196:
 5072 0845 5F5F7365 		.ascii	"__set_BASEPRI\000"
 5072      745F4241 
 5072      53455052 
 5072      4900
 5073              	.LASF169:
ARM GAS  /tmp/ccaMab5i.s 			page 97


 5074 0853 6D747837 		.ascii	"mtx7_execute\000"
 5074      5F657865 
 5074      63757465 
 5074      00
 5075              	.LASF158:
 5076 0860 74657374 		.ascii	"testmtx1\000"
 5076      6D747831 
 5076      00
 5077              	.LASF154:
 5078 0869 74657374 		.ascii	"test_global_fail\000"
 5078      5F676C6F 
 5078      62616C5F 
 5078      6661696C 
 5078      00
 5079              	.LASF96:
 5080 087a 6F666673 		.ascii	"offset\000"
 5080      657400
 5081              	.LASF94:
 5082 0881 636F6E74 		.ascii	"context\000"
 5082      65787400 
 5083              	.LASF46:
 5084 0889 705F6D73 		.ascii	"p_msg\000"
 5084      6700
 5085              	.LASF163:
 5086 088f 74657374 		.ascii	"testmtx8\000"
 5086      6D747838 
 5086      00
 5087              	.LASF21:
 5088 0898 7274636E 		.ascii	"rtcnt_t\000"
 5088      745F7400 
 5089              	.LASF73:
 5090 08a0 76745F70 		.ascii	"vt_par\000"
 5090      617200
 5091              	.LASF148:
 5092 08a7 74657374 		.ascii	"testcase\000"
 5092      63617365 
 5092      00
 5093              	.LASF193:
 5094 08b0 74657374 		.ascii	"test_buffers\000"
 5094      5F627566 
 5094      66657273 
 5094      00
 5095              	.LASF118:
 5096 08bd 63685F6D 		.ascii	"ch_mutex\000"
 5096      75746578 
 5096      00
 5097              	.LASF43:
 5098 08c6 705F7265 		.ascii	"p_refs\000"
 5098      667300
 5099              	.LASF80:
 5100 08cd 6973725F 		.ascii	"isr_cnt\000"
 5100      636E7400 
 5101              	.LASF84:
 5102 08d5 726C6973 		.ascii	"rlist\000"
 5102      7400
 5103              	.LASF185:
 5104 08db 63685468 		.ascii	"chThdGetSelfX\000"
ARM GAS  /tmp/ccaMab5i.s 			page 98


 5104      64476574 
 5104      53656C66 
 5104      5800
 5105              	.LASF16:
 5106 08e9 75696E74 		.ascii	"uint8_t\000"
 5106      385F7400 
 5107              	.LASF79:
 5108 08f1 70616E69 		.ascii	"panic_msg\000"
 5108      635F6D73 
 5108      6700
 5109              	.LASF52:
 5110 08fb 74687265 		.ascii	"thread_reference_t\000"
 5110      61645F72 
 5110      65666572 
 5110      656E6365 
 5110      5F7400
 5111              	.LASF110:
 5112 090e 77746F62 		.ascii	"wtobjp\000"
 5112      6A7000
 5113              	.LASF39:
 5114 0915 705F6E61 		.ascii	"p_name\000"
 5114      6D6500
 5115              	.LASF125:
 5116 091c 63685F73 		.ascii	"ch_size\000"
 5116      697A6500 
 5117              	.LASF76:
 5118 0924 76745F73 		.ascii	"vt_systime\000"
 5118      79737469 
 5118      6D6500
 5119              	.LASF65:
 5120 092f 725F6375 		.ascii	"r_current\000"
 5120      7272656E 
 5120      7400
 5121              	.LASF186:
 5122 0939 63685379 		.ascii	"chSysUnlock\000"
 5122      73556E6C 
 5122      6F636B00 
 5123              	.LASF126:
 5124 0945 63685F76 		.ascii	"ch_version\000"
 5124      65727369 
 5124      6F6E00
 5125              	.LASF105:
 5126 0950 6D5F6372 		.ascii	"m_crit_thd\000"
 5126      69745F74 
 5126      686400
 5127              	.LASF120:
 5128 095b 6D5F6F77 		.ascii	"m_owner\000"
 5128      6E657200 
 5129              	.LASF123:
 5130 0963 63685F69 		.ascii	"ch_identifier\000"
 5130      64656E74 
 5130      69666965 
 5130      7200
 5131              	.LASF72:
 5132 0971 76745F66 		.ascii	"vt_func\000"
 5132      756E6300 
 5133              		.ident	"GCC: (GNU Tools for ARM Embedded Processors 6-2017-q2-update) 6.3.1 20170620 (release) [AR
ARM GAS  /tmp/ccaMab5i.s 			page 99


ARM GAS  /tmp/ccaMab5i.s 			page 100


DEFINED SYMBOLS
                            *ABS*:0000000000000000 testmtx.c
     /tmp/ccaMab5i.s:18     .text.port_lock:0000000000000000 $t
     /tmp/ccaMab5i.s:25     .text.port_lock:0000000000000000 port_lock
     /tmp/ccaMab5i.s:60     .text.port_unlock:0000000000000000 $t
     /tmp/ccaMab5i.s:67     .text.port_unlock:0000000000000000 port_unlock
     /tmp/ccaMab5i.s:100    .text.queue_isempty:0000000000000000 $t
     /tmp/ccaMab5i.s:107    .text.queue_isempty:0000000000000000 queue_isempty
     /tmp/ccaMab5i.s:137    .text.chSysLock:0000000000000000 $t
     /tmp/ccaMab5i.s:144    .text.chSysLock:0000000000000000 chSysLock
     /tmp/ccaMab5i.s:168    .text.chSysUnlock:0000000000000000 $t
     /tmp/ccaMab5i.s:175    .text.chSysUnlock:0000000000000000 chSysUnlock
     /tmp/ccaMab5i.s:216    .text.chSysUnlock:0000000000000034 $d
     /tmp/ccaMab5i.s:1988   .rodata.__func__.7157:0000000000000000 __func__.7157
     /tmp/ccaMab5i.s:222    .text.chThdGetSelfX:0000000000000000 $t
     /tmp/ccaMab5i.s:229    .text.chThdGetSelfX:0000000000000000 chThdGetSelfX
     /tmp/ccaMab5i.s:246    .text.chThdGetSelfX:0000000000000008 $d
     /tmp/ccaMab5i.s:251    .text.chThdGetPriorityX:0000000000000000 $t
     /tmp/ccaMab5i.s:258    .text.chThdGetPriorityX:0000000000000000 chThdGetPriorityX
     /tmp/ccaMab5i.s:279    .data.m1:0000000000000000 $d
     /tmp/ccaMab5i.s:282    .data.m1:0000000000000000 m1
     /tmp/ccaMab5i.s:288    .data.m2:0000000000000000 $d
     /tmp/ccaMab5i.s:291    .data.m2:0000000000000000 m2
     /tmp/ccaMab5i.s:297    .data.c1:0000000000000000 $d
     /tmp/ccaMab5i.s:300    .data.c1:0000000000000000 c1
     /tmp/ccaMab5i.s:304    .text.mtx1_setup:0000000000000000 $t
     /tmp/ccaMab5i.s:311    .text.mtx1_setup:0000000000000000 mtx1_setup
     /tmp/ccaMab5i.s:331    .text.mtx1_setup:000000000000000c $d
     /tmp/ccaMab5i.s:336    .text.thread1:0000000000000000 $t
     /tmp/ccaMab5i.s:343    .text.thread1:0000000000000000 thread1
     /tmp/ccaMab5i.s:375    .text.thread1:0000000000000024 $d
     /tmp/ccaMab5i.s:380    .rodata:0000000000000000 $d
     /tmp/ccaMab5i.s:399    .text.mtx1_execute:0000000000000000 $t
     /tmp/ccaMab5i.s:406    .text.mtx1_execute:0000000000000000 mtx1_execute
     /tmp/ccaMab5i.s:527    .text.mtx1_execute:00000000000000dc $d
     /tmp/ccaMab5i.s:549    .rodata.testmtx1:0000000000000000 testmtx1
     /tmp/ccaMab5i.s:546    .rodata.testmtx1:0000000000000000 $d
     /tmp/ccaMab5i.s:555    .text.mtx4_setup:0000000000000000 $t
     /tmp/ccaMab5i.s:562    .text.mtx4_setup:0000000000000000 mtx4_setup
     /tmp/ccaMab5i.s:584    .text.mtx4_setup:0000000000000014 $d
     /tmp/ccaMab5i.s:590    .text.thread4a:0000000000000000 $t
     /tmp/ccaMab5i.s:597    .text.thread4a:0000000000000000 thread4a
     /tmp/ccaMab5i.s:627    .text.thread4a:0000000000000024 $d
     /tmp/ccaMab5i.s:632    .text.thread4b:0000000000000000 $t
     /tmp/ccaMab5i.s:639    .text.thread4b:0000000000000000 thread4b
     /tmp/ccaMab5i.s:669    .text.thread4b:0000000000000024 $d
     /tmp/ccaMab5i.s:674    .text.mtx4_execute:0000000000000000 $t
     /tmp/ccaMab5i.s:681    .text.mtx4_execute:0000000000000000 mtx4_execute
     /tmp/ccaMab5i.s:1076   .text.mtx4_execute:00000000000002fc $d
     /tmp/ccaMab5i.s:1098   .rodata.testmtx4:0000000000000000 testmtx4
     /tmp/ccaMab5i.s:1095   .rodata.testmtx4:0000000000000000 $d
     /tmp/ccaMab5i.s:1104   .text.mtx5_setup:0000000000000000 $t
     /tmp/ccaMab5i.s:1111   .text.mtx5_setup:0000000000000000 mtx5_setup
     /tmp/ccaMab5i.s:1130   .text.mtx5_setup:000000000000000c $d
     /tmp/ccaMab5i.s:1135   .text.mtx5_execute:0000000000000000 $t
     /tmp/ccaMab5i.s:1142   .text.mtx5_execute:0000000000000000 mtx5_execute
     /tmp/ccaMab5i.s:1298   .text.mtx5_execute:0000000000000114 $d
ARM GAS  /tmp/ccaMab5i.s 			page 101


     /tmp/ccaMab5i.s:1311   .rodata.testmtx5:0000000000000000 testmtx5
     /tmp/ccaMab5i.s:1308   .rodata.testmtx5:0000000000000000 $d
     /tmp/ccaMab5i.s:1317   .text.mtx6_setup:0000000000000000 $t
     /tmp/ccaMab5i.s:1324   .text.mtx6_setup:0000000000000000 mtx6_setup
     /tmp/ccaMab5i.s:1346   .text.mtx6_setup:0000000000000014 $d
     /tmp/ccaMab5i.s:1352   .text.thread10:0000000000000000 $t
     /tmp/ccaMab5i.s:1359   .text.thread10:0000000000000000 thread10
     /tmp/ccaMab5i.s:1394   .text.thread10:000000000000002c $d
     /tmp/ccaMab5i.s:1400   .text.mtx6_execute:0000000000000000 $t
     /tmp/ccaMab5i.s:1407   .text.mtx6_execute:0000000000000000 mtx6_execute
     /tmp/ccaMab5i.s:1523   .text.mtx6_execute:00000000000000d8 $d
     /tmp/ccaMab5i.s:1545   .rodata.testmtx6:0000000000000000 testmtx6
     /tmp/ccaMab5i.s:1542   .rodata.testmtx6:0000000000000000 $d
     /tmp/ccaMab5i.s:1551   .text.mtx7_setup:0000000000000000 $t
     /tmp/ccaMab5i.s:1558   .text.mtx7_setup:0000000000000000 mtx7_setup
     /tmp/ccaMab5i.s:1580   .text.mtx7_setup:0000000000000014 $d
     /tmp/ccaMab5i.s:1586   .text.mtx7_execute:0000000000000000 $t
     /tmp/ccaMab5i.s:1593   .text.mtx7_execute:0000000000000000 mtx7_execute
     /tmp/ccaMab5i.s:1691   .text.mtx7_execute:00000000000000b4 $d
     /tmp/ccaMab5i.s:1713   .rodata.testmtx7:0000000000000000 testmtx7
     /tmp/ccaMab5i.s:1710   .rodata.testmtx7:0000000000000000 $d
     /tmp/ccaMab5i.s:1719   .text.mtx8_setup:0000000000000000 $t
     /tmp/ccaMab5i.s:1726   .text.mtx8_setup:0000000000000000 mtx8_setup
     /tmp/ccaMab5i.s:1751   .text.mtx8_setup:0000000000000018 $d
     /tmp/ccaMab5i.s:1758   .text.thread11:0000000000000000 $t
     /tmp/ccaMab5i.s:1765   .text.thread11:0000000000000000 thread11
     /tmp/ccaMab5i.s:1807   .text.thread11:000000000000003c $d
     /tmp/ccaMab5i.s:1814   .text.thread12:0000000000000000 $t
     /tmp/ccaMab5i.s:1821   .text.thread12:0000000000000000 thread12
     /tmp/ccaMab5i.s:1853   .text.thread12:0000000000000024 $d
     /tmp/ccaMab5i.s:1862   .text.mtx8_execute:0000000000000000 $t
     /tmp/ccaMab5i.s:1869   .text.mtx8_execute:0000000000000000 mtx8_execute
     /tmp/ccaMab5i.s:1944   .text.mtx8_execute:0000000000000080 $d
     /tmp/ccaMab5i.s:1966   .rodata.testmtx8:0000000000000000 testmtx8
     /tmp/ccaMab5i.s:1963   .rodata.testmtx8:0000000000000000 $d
     /tmp/ccaMab5i.s:1976   .rodata.patternmtx:0000000000000000 patternmtx
     /tmp/ccaMab5i.s:1973   .rodata.patternmtx:0000000000000000 $d
     /tmp/ccaMab5i.s:1985   .rodata.__func__.7157:0000000000000000 $d
                     .debug_frame:0000000000000010 $d

UNDEFINED SYMBOLS
_stats_start_measure_crit_thd
_dbg_check_lock
_dbg_check_unlock
_stats_stop_measure_crit_thd
chSysHalt
ch
chMtxObjectInit
chMtxLock
test_emit_token
chMtxUnlock
chThdCreateStatic
test_wait_threads
_test_assert
_test_assert_sequence
wa
threads
ARM GAS  /tmp/ccaMab5i.s 			page 102


chThdSleep
chMtxUnlockAll
chMtxUnlockS
chSchRescheduleS
chMtxTryLock
chCondObjectInit
chCondWait
chCondSignalI
chCondBroadcast
chCondWaitTimeout
chCondSignal
