ARM GAS  /tmp/ccUSzzA9.s 			page 1


   1              		.cpu cortex-m4
   2              		.eabi_attribute 27, 1
   3              		.eabi_attribute 28, 1
   4              		.eabi_attribute 20, 1
   5              		.eabi_attribute 21, 1
   6              		.eabi_attribute 23, 3
   7              		.eabi_attribute 24, 1
   8              		.eabi_attribute 25, 1
   9              		.eabi_attribute 26, 1
  10              		.eabi_attribute 30, 6
  11              		.eabi_attribute 34, 1
  12              		.eabi_attribute 18, 4
  13              		.file	"testsem.c"
  14              		.text
  15              	.Ltext0:
  16              		.cfi_sections	.debug_frame
  17              		.section	.text.port_lock,"ax",%progbits
  18              		.align	1
  19              		.p2align 4,,15
  20              		.syntax unified
  21              		.thumb
  22              		.thumb_func
  23              		.fpu fpv4-sp-d16
  24              		.type	port_lock, %function
  25              	port_lock:
  26              	.LFB127:
  27              		.file 1 "../ChibiOS/os/rt/ports/ARMCMx/chcore_v7m.h"
  28              		.loc 1 456 0
  29              		.cfi_startproc
  30              		@ args = 0, pretend = 0, frame = 8
  31              		@ frame_needed = 0, uses_anonymous_args = 0
  32              		@ link register save eliminated.
  33 0000 82B0     		sub	sp, sp, #8
  34              		.cfi_def_cfa_offset 8
  35 0002 2023     		movs	r3, #32
  36 0004 0193     		str	r3, [sp, #4]
  37              	.LBB6:
  38              	.LBB7:
  39              		.file 2 "../ChibiOS/os/ext/CMSIS/include/core_cmFunc.h"
  40              		.loc 2 548 0
  41 0006 019B     		ldr	r3, [sp, #4]
  42              		.syntax unified
  43              	@ 548 "../ChibiOS/os/ext/CMSIS/include/core_cmFunc.h" 1
  44 0008 83F31188 		MSR basepri, r3
  45              	@ 0 "" 2
  46              		.thumb
  47              		.syntax unified
  48              	.LBE7:
  49              	.LBE6:
  50              		.loc 1 473 0
  51 000c 00BF     		nop
  52 000e 02B0     		add	sp, sp, #8
  53              		.cfi_def_cfa_offset 0
  54              		@ sp needed
  55 0010 7047     		bx	lr
  56              		.cfi_endproc
  57              	.LFE127:
ARM GAS  /tmp/ccUSzzA9.s 			page 2


  58              		.size	port_lock, .-port_lock
  59 0012 00BF     		.section	.text.port_unlock,"ax",%progbits
  60              		.align	1
  61              		.p2align 4,,15
  62              		.syntax unified
  63              		.thumb
  64              		.thumb_func
  65              		.fpu fpv4-sp-d16
  66              		.type	port_unlock, %function
  67              	port_unlock:
  68              	.LFB128:
  69              		.loc 1 480 0
  70              		.cfi_startproc
  71              		@ args = 0, pretend = 0, frame = 8
  72              		@ frame_needed = 0, uses_anonymous_args = 0
  73              		@ link register save eliminated.
  74 0000 82B0     		sub	sp, sp, #8
  75              		.cfi_def_cfa_offset 8
  76 0002 0023     		movs	r3, #0
  77 0004 0193     		str	r3, [sp, #4]
  78              	.LBB8:
  79              	.LBB9:
  80              		.loc 2 548 0
  81 0006 019B     		ldr	r3, [sp, #4]
  82              		.syntax unified
  83              	@ 548 "../ChibiOS/os/ext/CMSIS/include/core_cmFunc.h" 1
  84 0008 83F31188 		MSR basepri, r3
  85              	@ 0 "" 2
  86              		.thumb
  87              		.syntax unified
  88              	.LBE9:
  89              	.LBE8:
  90              		.loc 1 487 0
  91 000c 00BF     		nop
  92 000e 02B0     		add	sp, sp, #8
  93              		.cfi_def_cfa_offset 0
  94              		@ sp needed
  95 0010 7047     		bx	lr
  96              		.cfi_endproc
  97              	.LFE128:
  98              		.size	port_unlock, .-port_unlock
  99 0012 00BF     		.section	.text.queue_isempty,"ax",%progbits
 100              		.align	1
 101              		.p2align 4,,15
 102              		.syntax unified
 103              		.thumb
 104              		.thumb_func
 105              		.fpu fpv4-sp-d16
 106              		.type	queue_isempty, %function
 107              	queue_isempty:
 108              	.LFB140:
 109              		.file 3 "../ChibiOS/os/rt/include/chschd.h"
 110              		.loc 3 616 0
 111              		.cfi_startproc
 112              		@ args = 0, pretend = 0, frame = 8
 113              		@ frame_needed = 0, uses_anonymous_args = 0
 114              		@ link register save eliminated.
ARM GAS  /tmp/ccUSzzA9.s 			page 3


 115 0000 82B0     		sub	sp, sp, #8
 116              		.cfi_def_cfa_offset 8
 117 0002 0190     		str	r0, [sp, #4]
 118              		.loc 3 618 0
 119 0004 019B     		ldr	r3, [sp, #4]
 120 0006 1A68     		ldr	r2, [r3]
 121 0008 019B     		ldr	r3, [sp, #4]
 122 000a 9A42     		cmp	r2, r3
 123 000c 0CBF     		ite	eq
 124 000e 0123     		moveq	r3, #1
 125 0010 0023     		movne	r3, #0
 126 0012 DBB2     		uxtb	r3, r3
 127              		.loc 3 619 0
 128 0014 1846     		mov	r0, r3
 129 0016 02B0     		add	sp, sp, #8
 130              		.cfi_def_cfa_offset 0
 131              		@ sp needed
 132 0018 7047     		bx	lr
 133              		.cfi_endproc
 134              	.LFE140:
 135              		.size	queue_isempty, .-queue_isempty
 136 001a 00BF     		.section	.text.chSysLock,"ax",%progbits
 137              		.align	1
 138              		.p2align 4,,15
 139              		.syntax unified
 140              		.thumb
 141              		.thumb_func
 142              		.fpu fpv4-sp-d16
 143              		.type	chSysLock, %function
 144              	chSysLock:
 145              	.LFB156:
 146              		.file 4 "../ChibiOS/os/rt/include/chsys.h"
 147              		.loc 4 346 0
 148              		.cfi_startproc
 149              		@ args = 0, pretend = 0, frame = 0
 150              		@ frame_needed = 0, uses_anonymous_args = 0
 151 0000 08B5     		push	{r3, lr}
 152              		.cfi_def_cfa_offset 8
 153              		.cfi_offset 3, -8
 154              		.cfi_offset 14, -4
 155              		.loc 4 348 0
 156 0002 FFF7FEFF 		bl	port_lock
 157              		.loc 4 349 0
 158 0006 FFF7FEFF 		bl	_stats_start_measure_crit_thd
 159              		.loc 4 350 0
 160 000a FFF7FEFF 		bl	_dbg_check_lock
 161              		.loc 4 351 0
 162 000e 00BF     		nop
 163 0010 08BD     		pop	{r3, pc}
 164              		.cfi_endproc
 165              	.LFE156:
 166              		.size	chSysLock, .-chSysLock
 167 0012 00BF     		.section	.text.chSysUnlock,"ax",%progbits
 168              		.align	1
 169              		.p2align 4,,15
 170              		.syntax unified
 171              		.thumb
ARM GAS  /tmp/ccUSzzA9.s 			page 4


 172              		.thumb_func
 173              		.fpu fpv4-sp-d16
 174              		.type	chSysUnlock, %function
 175              	chSysUnlock:
 176              	.LFB157:
 177              		.loc 4 358 0
 178              		.cfi_startproc
 179              		@ args = 0, pretend = 0, frame = 0
 180              		@ frame_needed = 0, uses_anonymous_args = 0
 181 0000 08B5     		push	{r3, lr}
 182              		.cfi_def_cfa_offset 8
 183              		.cfi_offset 3, -8
 184              		.cfi_offset 14, -4
 185              		.loc 4 360 0
 186 0002 FFF7FEFF 		bl	_dbg_check_unlock
 187              		.loc 4 361 0
 188 0006 FFF7FEFF 		bl	_stats_stop_measure_crit_thd
 189              		.loc 4 367 0
 190 000a 0A4B     		ldr	r3, .L8
 191 000c 1B68     		ldr	r3, [r3]
 192 000e 094A     		ldr	r2, .L8
 193 0010 9342     		cmp	r3, r2
 194 0012 0AD0     		beq	.L7
 195              		.loc 4 367 0 is_stmt 0 discriminator 2
 196 0014 074B     		ldr	r3, .L8
 197 0016 9B69     		ldr	r3, [r3, #24]
 198 0018 9A68     		ldr	r2, [r3, #8]
 199 001a 064B     		ldr	r3, .L8
 200 001c 1B68     		ldr	r3, [r3]
 201 001e 9B68     		ldr	r3, [r3, #8]
 202 0020 9A42     		cmp	r2, r3
 203 0022 02D2     		bcs	.L7
 204              		.loc 4 367 0 discriminator 3
 205 0024 0448     		ldr	r0, .L8+4
 206 0026 FFF7FEFF 		bl	chSysHalt
 207              	.L7:
 208              		.loc 4 371 0 is_stmt 1
 209 002a FFF7FEFF 		bl	port_unlock
 210              		.loc 4 372 0
 211 002e 00BF     		nop
 212 0030 08BD     		pop	{r3, pc}
 213              	.L9:
 214 0032 00BF     		.align	2
 215              	.L8:
 216 0034 00000000 		.word	ch
 217 0038 00000000 		.word	__func__.7157
 218              		.cfi_endproc
 219              	.LFE157:
 220              		.size	chSysUnlock, .-chSysUnlock
 221              		.section	.text.chVTGetSystemTimeX,"ax",%progbits
 222              		.align	1
 223              		.p2align 4,,15
 224              		.syntax unified
 225              		.thumb
 226              		.thumb_func
 227              		.fpu fpv4-sp-d16
 228              		.type	chVTGetSystemTimeX, %function
ARM GAS  /tmp/ccUSzzA9.s 			page 5


 229              	chVTGetSystemTimeX:
 230              	.LFB164:
 231              		.file 5 "../ChibiOS/os/rt/include/chvt.h"
 232              		.loc 5 228 0
 233              		.cfi_startproc
 234              		@ args = 0, pretend = 0, frame = 0
 235              		@ frame_needed = 0, uses_anonymous_args = 0
 236              		@ link register save eliminated.
 237              		.loc 5 231 0
 238 0000 014B     		ldr	r3, .L12
 239 0002 9B6A     		ldr	r3, [r3, #40]
 240              		.loc 5 235 0
 241 0004 1846     		mov	r0, r3
 242 0006 7047     		bx	lr
 243              	.L13:
 244              		.align	2
 245              	.L12:
 246 0008 00000000 		.word	ch
 247              		.cfi_endproc
 248              	.LFE164:
 249              		.size	chVTGetSystemTimeX, .-chVTGetSystemTimeX
 250              		.section	.text.chVTGetSystemTime,"ax",%progbits
 251              		.align	1
 252              		.p2align 4,,15
 253              		.syntax unified
 254              		.thumb
 255              		.thumb_func
 256              		.fpu fpv4-sp-d16
 257              		.type	chVTGetSystemTime, %function
 258              	chVTGetSystemTime:
 259              	.LFB165:
 260              		.loc 5 247 0
 261              		.cfi_startproc
 262              		@ args = 0, pretend = 0, frame = 8
 263              		@ frame_needed = 0, uses_anonymous_args = 0
 264 0000 00B5     		push	{lr}
 265              		.cfi_def_cfa_offset 4
 266              		.cfi_offset 14, -4
 267 0002 83B0     		sub	sp, sp, #12
 268              		.cfi_def_cfa_offset 16
 269              		.loc 5 250 0
 270 0004 FFF7FEFF 		bl	chSysLock
 271              		.loc 5 251 0
 272 0008 FFF7FEFF 		bl	chVTGetSystemTimeX
 273 000c 0190     		str	r0, [sp, #4]
 274              		.loc 5 252 0
 275 000e FFF7FEFF 		bl	chSysUnlock
 276              		.loc 5 254 0
 277 0012 019B     		ldr	r3, [sp, #4]
 278              		.loc 5 255 0
 279 0014 1846     		mov	r0, r3
 280 0016 03B0     		add	sp, sp, #12
 281              		.cfi_def_cfa_offset 4
 282              		@ sp needed
 283 0018 5DF804FB 		ldr	pc, [sp], #4
 284              		.cfi_endproc
 285              	.LFE165:
ARM GAS  /tmp/ccUSzzA9.s 			page 6


 286              		.size	chVTGetSystemTime, .-chVTGetSystemTime
 287              		.section	.text.chThdGetSelfX,"ax",%progbits
 288              		.align	1
 289              		.p2align 4,,15
 290              		.syntax unified
 291              		.thumb
 292              		.thumb_func
 293              		.fpu fpv4-sp-d16
 294              		.type	chThdGetSelfX, %function
 295              	chThdGetSelfX:
 296              	.LFB178:
 297              		.file 6 "../ChibiOS/os/rt/include/chthreads.h"
 298              		.loc 6 174 0
 299              		.cfi_startproc
 300              		@ args = 0, pretend = 0, frame = 0
 301              		@ frame_needed = 0, uses_anonymous_args = 0
 302              		@ link register save eliminated.
 303              		.loc 6 176 0
 304 0000 014B     		ldr	r3, .L18
 305 0002 9B69     		ldr	r3, [r3, #24]
 306              		.loc 6 177 0
 307 0004 1846     		mov	r0, r3
 308 0006 7047     		bx	lr
 309              	.L19:
 310              		.align	2
 311              	.L18:
 312 0008 00000000 		.word	ch
 313              		.cfi_endproc
 314              	.LFE178:
 315              		.size	chThdGetSelfX, .-chThdGetSelfX
 316              		.section	.text.chThdGetPriorityX,"ax",%progbits
 317              		.align	1
 318              		.p2align 4,,15
 319              		.syntax unified
 320              		.thumb
 321              		.thumb_func
 322              		.fpu fpv4-sp-d16
 323              		.type	chThdGetPriorityX, %function
 324              	chThdGetPriorityX:
 325              	.LFB179:
 326              		.loc 6 187 0
 327              		.cfi_startproc
 328              		@ args = 0, pretend = 0, frame = 0
 329              		@ frame_needed = 0, uses_anonymous_args = 0
 330 0000 08B5     		push	{r3, lr}
 331              		.cfi_def_cfa_offset 8
 332              		.cfi_offset 3, -8
 333              		.cfi_offset 14, -4
 334              		.loc 6 189 0
 335 0002 FFF7FEFF 		bl	chThdGetSelfX
 336 0006 0346     		mov	r3, r0
 337 0008 9B68     		ldr	r3, [r3, #8]
 338              		.loc 6 190 0
 339 000a 1846     		mov	r0, r3
 340 000c 08BD     		pop	{r3, pc}
 341              		.cfi_endproc
 342              	.LFE179:
ARM GAS  /tmp/ccUSzzA9.s 			page 7


 343              		.size	chThdGetPriorityX, .-chThdGetPriorityX
 344 000e 00BF     		.section	.text.chSemGetCounterI,"ax",%progbits
 345              		.align	1
 346              		.p2align 4,,15
 347              		.syntax unified
 348              		.thumb
 349              		.thumb_func
 350              		.fpu fpv4-sp-d16
 351              		.type	chSemGetCounterI, %function
 352              	chSemGetCounterI:
 353              	.LFB192:
 354              		.file 7 "../ChibiOS/os/rt/include/chsem.h"
 355              		.loc 7 149 0
 356              		.cfi_startproc
 357              		@ args = 0, pretend = 0, frame = 8
 358              		@ frame_needed = 0, uses_anonymous_args = 0
 359 0000 00B5     		push	{lr}
 360              		.cfi_def_cfa_offset 4
 361              		.cfi_offset 14, -4
 362 0002 83B0     		sub	sp, sp, #12
 363              		.cfi_def_cfa_offset 16
 364 0004 0190     		str	r0, [sp, #4]
 365              		.loc 7 151 0
 366 0006 FFF7FEFF 		bl	chDbgCheckClassI
 367              		.loc 7 153 0
 368 000a 019B     		ldr	r3, [sp, #4]
 369 000c 9B68     		ldr	r3, [r3, #8]
 370              		.loc 7 154 0
 371 000e 1846     		mov	r0, r3
 372 0010 03B0     		add	sp, sp, #12
 373              		.cfi_def_cfa_offset 4
 374              		@ sp needed
 375 0012 5DF804FB 		ldr	pc, [sp], #4
 376              		.cfi_endproc
 377              	.LFE192:
 378              		.size	chSemGetCounterI, .-chSemGetCounterI
 379 0016 00BF     		.section	.text.chBSemObjectInit,"ax",%progbits
 380              		.align	1
 381              		.p2align 4,,15
 382              		.syntax unified
 383              		.thumb
 384              		.thumb_func
 385              		.fpu fpv4-sp-d16
 386              		.type	chBSemObjectInit, %function
 387              	chBSemObjectInit:
 388              	.LFB193:
 389              		.file 8 "../ChibiOS/os/rt/include/chbsem.h"
 390              		.loc 8 124 0
 391              		.cfi_startproc
 392              		@ args = 0, pretend = 0, frame = 8
 393              		@ frame_needed = 0, uses_anonymous_args = 0
 394 0000 00B5     		push	{lr}
 395              		.cfi_def_cfa_offset 4
 396              		.cfi_offset 14, -4
 397 0002 83B0     		sub	sp, sp, #12
 398              		.cfi_def_cfa_offset 16
 399 0004 0190     		str	r0, [sp, #4]
ARM GAS  /tmp/ccUSzzA9.s 			page 8


 400 0006 0B46     		mov	r3, r1
 401 0008 8DF80330 		strb	r3, [sp, #3]
 402              		.loc 8 126 0
 403 000c 019A     		ldr	r2, [sp, #4]
 404 000e 9DF80330 		ldrb	r3, [sp, #3]
 405 0012 83F00103 		eor	r3, r3, #1
 406 0016 DBB2     		uxtb	r3, r3
 407 0018 1946     		mov	r1, r3
 408 001a 1046     		mov	r0, r2
 409 001c FFF7FEFF 		bl	chSemObjectInit
 410              		.loc 8 127 0
 411 0020 00BF     		nop
 412 0022 03B0     		add	sp, sp, #12
 413              		.cfi_def_cfa_offset 4
 414              		@ sp needed
 415 0024 5DF804FB 		ldr	pc, [sp], #4
 416              		.cfi_endproc
 417              	.LFE193:
 418              		.size	chBSemObjectInit, .-chBSemObjectInit
 419              		.section	.text.chBSemWait,"ax",%progbits
 420              		.align	1
 421              		.p2align 4,,15
 422              		.syntax unified
 423              		.thumb
 424              		.thumb_func
 425              		.fpu fpv4-sp-d16
 426              		.type	chBSemWait, %function
 427              	chBSemWait:
 428              	.LFB194:
 429              		.loc 8 141 0
 430              		.cfi_startproc
 431              		@ args = 0, pretend = 0, frame = 8
 432              		@ frame_needed = 0, uses_anonymous_args = 0
 433 0000 00B5     		push	{lr}
 434              		.cfi_def_cfa_offset 4
 435              		.cfi_offset 14, -4
 436 0002 83B0     		sub	sp, sp, #12
 437              		.cfi_def_cfa_offset 16
 438 0004 0190     		str	r0, [sp, #4]
 439              		.loc 8 143 0
 440 0006 019B     		ldr	r3, [sp, #4]
 441 0008 1846     		mov	r0, r3
 442 000a FFF7FEFF 		bl	chSemWait
 443 000e 0346     		mov	r3, r0
 444              		.loc 8 144 0
 445 0010 1846     		mov	r0, r3
 446 0012 03B0     		add	sp, sp, #12
 447              		.cfi_def_cfa_offset 4
 448              		@ sp needed
 449 0014 5DF804FB 		ldr	pc, [sp], #4
 450              		.cfi_endproc
 451              	.LFE194:
 452              		.size	chBSemWait, .-chBSemWait
 453              		.section	.text.chBSemReset,"ax",%progbits
 454              		.align	1
 455              		.p2align 4,,15
 456              		.syntax unified
ARM GAS  /tmp/ccUSzzA9.s 			page 9


 457              		.thumb
 458              		.thumb_func
 459              		.fpu fpv4-sp-d16
 460              		.type	chBSemReset, %function
 461              	chBSemReset:
 462              	.LFB199:
 463              		.loc 8 253 0
 464              		.cfi_startproc
 465              		@ args = 0, pretend = 0, frame = 8
 466              		@ frame_needed = 0, uses_anonymous_args = 0
 467 0000 00B5     		push	{lr}
 468              		.cfi_def_cfa_offset 4
 469              		.cfi_offset 14, -4
 470 0002 83B0     		sub	sp, sp, #12
 471              		.cfi_def_cfa_offset 16
 472 0004 0190     		str	r0, [sp, #4]
 473 0006 0B46     		mov	r3, r1
 474 0008 8DF80330 		strb	r3, [sp, #3]
 475              		.loc 8 255 0
 476 000c 019A     		ldr	r2, [sp, #4]
 477 000e 9DF80330 		ldrb	r3, [sp, #3]
 478 0012 83F00103 		eor	r3, r3, #1
 479 0016 DBB2     		uxtb	r3, r3
 480 0018 1946     		mov	r1, r3
 481 001a 1046     		mov	r0, r2
 482 001c FFF7FEFF 		bl	chSemReset
 483              		.loc 8 256 0
 484 0020 00BF     		nop
 485 0022 03B0     		add	sp, sp, #12
 486              		.cfi_def_cfa_offset 4
 487              		@ sp needed
 488 0024 5DF804FB 		ldr	pc, [sp], #4
 489              		.cfi_endproc
 490              	.LFE199:
 491              		.size	chBSemReset, .-chBSemReset
 492              		.section	.text.chBSemSignalI,"ax",%progbits
 493              		.align	1
 494              		.p2align 4,,15
 495              		.syntax unified
 496              		.thumb
 497              		.thumb_func
 498              		.fpu fpv4-sp-d16
 499              		.type	chBSemSignalI, %function
 500              	chBSemSignalI:
 501              	.LFB200:
 502              		.loc 8 266 0
 503              		.cfi_startproc
 504              		@ args = 0, pretend = 0, frame = 8
 505              		@ frame_needed = 0, uses_anonymous_args = 0
 506 0000 00B5     		push	{lr}
 507              		.cfi_def_cfa_offset 4
 508              		.cfi_offset 14, -4
 509 0002 83B0     		sub	sp, sp, #12
 510              		.cfi_def_cfa_offset 16
 511 0004 0190     		str	r0, [sp, #4]
 512              		.loc 8 268 0
 513 0006 FFF7FEFF 		bl	chDbgCheckClassI
ARM GAS  /tmp/ccUSzzA9.s 			page 10


 514              		.loc 8 270 0
 515 000a 019B     		ldr	r3, [sp, #4]
 516 000c 9B68     		ldr	r3, [r3, #8]
 517 000e 002B     		cmp	r3, #0
 518 0010 03DC     		bgt	.L30
 519              		.loc 8 271 0
 520 0012 019B     		ldr	r3, [sp, #4]
 521 0014 1846     		mov	r0, r3
 522 0016 FFF7FEFF 		bl	chSemSignalI
 523              	.L30:
 524              		.loc 8 273 0
 525 001a 00BF     		nop
 526 001c 03B0     		add	sp, sp, #12
 527              		.cfi_def_cfa_offset 4
 528              		@ sp needed
 529 001e 5DF804FB 		ldr	pc, [sp], #4
 530              		.cfi_endproc
 531              	.LFE200:
 532              		.size	chBSemSignalI, .-chBSemSignalI
 533 0022 00BF     		.section	.text.chBSemSignal,"ax",%progbits
 534              		.align	1
 535              		.p2align 4,,15
 536              		.syntax unified
 537              		.thumb
 538              		.thumb_func
 539              		.fpu fpv4-sp-d16
 540              		.type	chBSemSignal, %function
 541              	chBSemSignal:
 542              	.LFB201:
 543              		.loc 8 282 0
 544              		.cfi_startproc
 545              		@ args = 0, pretend = 0, frame = 8
 546              		@ frame_needed = 0, uses_anonymous_args = 0
 547 0000 00B5     		push	{lr}
 548              		.cfi_def_cfa_offset 4
 549              		.cfi_offset 14, -4
 550 0002 83B0     		sub	sp, sp, #12
 551              		.cfi_def_cfa_offset 16
 552 0004 0190     		str	r0, [sp, #4]
 553              		.loc 8 284 0
 554 0006 FFF7FEFF 		bl	chSysLock
 555              		.loc 8 285 0
 556 000a 0198     		ldr	r0, [sp, #4]
 557 000c FFF7FEFF 		bl	chBSemSignalI
 558              		.loc 8 286 0
 559 0010 FFF7FEFF 		bl	chSchRescheduleS
 560              		.loc 8 287 0
 561 0014 FFF7FEFF 		bl	chSysUnlock
 562              		.loc 8 288 0
 563 0018 00BF     		nop
 564 001a 03B0     		add	sp, sp, #12
 565              		.cfi_def_cfa_offset 4
 566              		@ sp needed
 567 001c 5DF804FB 		ldr	pc, [sp], #4
 568              		.cfi_endproc
 569              	.LFE201:
 570              		.size	chBSemSignal, .-chBSemSignal
ARM GAS  /tmp/ccUSzzA9.s 			page 11


 571              		.section	.text.chBSemGetStateI,"ax",%progbits
 572              		.align	1
 573              		.p2align 4,,15
 574              		.syntax unified
 575              		.thumb
 576              		.thumb_func
 577              		.fpu fpv4-sp-d16
 578              		.type	chBSemGetStateI, %function
 579              	chBSemGetStateI:
 580              	.LFB202:
 581              		.loc 8 300 0
 582              		.cfi_startproc
 583              		@ args = 0, pretend = 0, frame = 8
 584              		@ frame_needed = 0, uses_anonymous_args = 0
 585 0000 00B5     		push	{lr}
 586              		.cfi_def_cfa_offset 4
 587              		.cfi_offset 14, -4
 588 0002 83B0     		sub	sp, sp, #12
 589              		.cfi_def_cfa_offset 16
 590 0004 0190     		str	r0, [sp, #4]
 591              		.loc 8 302 0
 592 0006 FFF7FEFF 		bl	chDbgCheckClassI
 593              		.loc 8 304 0
 594 000a 019B     		ldr	r3, [sp, #4]
 595 000c 9B68     		ldr	r3, [r3, #8]
 596 000e 002B     		cmp	r3, #0
 597 0010 D4BF     		ite	le
 598 0012 0123     		movle	r3, #1
 599 0014 0023     		movgt	r3, #0
 600 0016 DBB2     		uxtb	r3, r3
 601              		.loc 8 305 0
 602 0018 1846     		mov	r0, r3
 603 001a 03B0     		add	sp, sp, #12
 604              		.cfi_def_cfa_offset 4
 605              		@ sp needed
 606 001c 5DF804FB 		ldr	pc, [sp], #4
 607              		.cfi_endproc
 608              	.LFE202:
 609              		.size	chBSemGetStateI, .-chBSemGetStateI
 610              		.section	.data.sem1,"aw",%progbits
 611              		.align	2
 612              		.type	sem1, %object
 613              		.size	sem1, 12
 614              	sem1:
 615 0000 00000000 		.word	sem1
 616 0004 00000000 		.word	sem1
 617 0008 00000000 		.word	0
 618              		.section	.text.sem1_setup,"ax",%progbits
 619              		.align	1
 620              		.p2align 4,,15
 621              		.syntax unified
 622              		.thumb
 623              		.thumb_func
 624              		.fpu fpv4-sp-d16
 625              		.type	sem1_setup, %function
 626              	sem1_setup:
 627              	.LFB231:
ARM GAS  /tmp/ccUSzzA9.s 			page 12


 628              		.file 9 "../ChibiOS/test/rt/testsem.c"
 629              		.loc 9 72 0
 630              		.cfi_startproc
 631              		@ args = 0, pretend = 0, frame = 0
 632              		@ frame_needed = 0, uses_anonymous_args = 0
 633 0000 08B5     		push	{r3, lr}
 634              		.cfi_def_cfa_offset 8
 635              		.cfi_offset 3, -8
 636              		.cfi_offset 14, -4
 637              		.loc 9 74 0
 638 0002 0021     		movs	r1, #0
 639 0004 0248     		ldr	r0, .L35
 640 0006 FFF7FEFF 		bl	chSemObjectInit
 641              		.loc 9 75 0
 642 000a 00BF     		nop
 643 000c 08BD     		pop	{r3, pc}
 644              	.L36:
 645 000e 00BF     		.align	2
 646              	.L35:
 647 0010 00000000 		.word	sem1
 648              		.cfi_endproc
 649              	.LFE231:
 650              		.size	sem1_setup, .-sem1_setup
 651              		.section	.text.thread1,"ax",%progbits
 652              		.align	1
 653              		.p2align 4,,15
 654              		.syntax unified
 655              		.thumb
 656              		.thumb_func
 657              		.fpu fpv4-sp-d16
 658              		.type	thread1, %function
 659              	thread1:
 660              	.LFB232:
 661              		.loc 9 77 0
 662              		.cfi_startproc
 663              		@ args = 0, pretend = 0, frame = 8
 664              		@ frame_needed = 0, uses_anonymous_args = 0
 665 0000 00B5     		push	{lr}
 666              		.cfi_def_cfa_offset 4
 667              		.cfi_offset 14, -4
 668 0002 83B0     		sub	sp, sp, #12
 669              		.cfi_def_cfa_offset 16
 670 0004 0190     		str	r0, [sp, #4]
 671              		.loc 9 79 0
 672 0006 0648     		ldr	r0, .L38
 673 0008 FFF7FEFF 		bl	chSemWait
 674              		.loc 9 80 0
 675 000c 019B     		ldr	r3, [sp, #4]
 676 000e 1B78     		ldrb	r3, [r3]	@ zero_extendqisi2
 677 0010 1846     		mov	r0, r3
 678 0012 FFF7FEFF 		bl	test_emit_token
 679              		.loc 9 81 0
 680 0016 00BF     		nop
 681 0018 03B0     		add	sp, sp, #12
 682              		.cfi_def_cfa_offset 4
 683              		@ sp needed
 684 001a 5DF804FB 		ldr	pc, [sp], #4
ARM GAS  /tmp/ccUSzzA9.s 			page 13


 685              	.L39:
 686 001e 00BF     		.align	2
 687              	.L38:
 688 0020 00000000 		.word	sem1
 689              		.cfi_endproc
 690              	.LFE232:
 691              		.size	thread1, .-thread1
 692              		.section	.rodata
 693              		.align	2
 694              	.LC0:
 695 0000 4100     		.ascii	"A\000"
 696 0002 0000     		.align	2
 697              	.LC1:
 698 0004 4200     		.ascii	"B\000"
 699 0006 0000     		.align	2
 700              	.LC2:
 701 0008 4300     		.ascii	"C\000"
 702 000a 0000     		.align	2
 703              	.LC3:
 704 000c 4400     		.ascii	"D\000"
 705 000e 0000     		.align	2
 706              	.LC4:
 707 0010 4500     		.ascii	"E\000"
 708 0012 0000     		.align	2
 709              	.LC5:
 710 0014 41424344 		.ascii	"ABCDE\000"
 710      4500
 711              		.section	.text.sem1_execute,"ax",%progbits
 712              		.align	1
 713              		.p2align 4,,15
 714              		.syntax unified
 715              		.thumb
 716              		.thumb_func
 717              		.fpu fpv4-sp-d16
 718              		.type	sem1_execute, %function
 719              	sem1_execute:
 720              	.LFB233:
 721              		.loc 9 83 0
 722              		.cfi_startproc
 723              		@ args = 0, pretend = 0, frame = 0
 724              		@ frame_needed = 0, uses_anonymous_args = 0
 725 0000 10B5     		push	{r4, lr}
 726              		.cfi_def_cfa_offset 8
 727              		.cfi_offset 4, -8
 728              		.cfi_offset 14, -4
 729 0002 82B0     		sub	sp, sp, #8
 730              		.cfi_def_cfa_offset 16
 731              		.loc 9 85 0
 732 0004 524B     		ldr	r3, .L45
 733 0006 1C68     		ldr	r4, [r3]
 734 0008 FFF7FEFF 		bl	chThdGetPriorityX
 735 000c 0346     		mov	r3, r0
 736 000e 5A1D     		adds	r2, r3, #5
 737 0010 504B     		ldr	r3, .L45+4
 738 0012 0093     		str	r3, [sp]
 739 0014 504B     		ldr	r3, .L45+8
 740 0016 4FF4F871 		mov	r1, #496
ARM GAS  /tmp/ccUSzzA9.s 			page 14


 741 001a 2046     		mov	r0, r4
 742 001c FFF7FEFF 		bl	chThdCreateStatic
 743 0020 0246     		mov	r2, r0
 744 0022 4E4B     		ldr	r3, .L45+12
 745 0024 1A60     		str	r2, [r3]
 746              		.loc 9 86 0
 747 0026 4A4B     		ldr	r3, .L45
 748 0028 5C68     		ldr	r4, [r3, #4]
 749 002a FFF7FEFF 		bl	chThdGetPriorityX
 750 002e 0346     		mov	r3, r0
 751 0030 5A1C     		adds	r2, r3, #1
 752 0032 4B4B     		ldr	r3, .L45+16
 753 0034 0093     		str	r3, [sp]
 754 0036 484B     		ldr	r3, .L45+8
 755 0038 4FF4F871 		mov	r1, #496
 756 003c 2046     		mov	r0, r4
 757 003e FFF7FEFF 		bl	chThdCreateStatic
 758 0042 0246     		mov	r2, r0
 759 0044 454B     		ldr	r3, .L45+12
 760 0046 5A60     		str	r2, [r3, #4]
 761              		.loc 9 87 0
 762 0048 414B     		ldr	r3, .L45
 763 004a 9C68     		ldr	r4, [r3, #8]
 764 004c FFF7FEFF 		bl	chThdGetPriorityX
 765 0050 0346     		mov	r3, r0
 766 0052 DA1C     		adds	r2, r3, #3
 767 0054 434B     		ldr	r3, .L45+20
 768 0056 0093     		str	r3, [sp]
 769 0058 3F4B     		ldr	r3, .L45+8
 770 005a 4FF4F871 		mov	r1, #496
 771 005e 2046     		mov	r0, r4
 772 0060 FFF7FEFF 		bl	chThdCreateStatic
 773 0064 0246     		mov	r2, r0
 774 0066 3D4B     		ldr	r3, .L45+12
 775 0068 9A60     		str	r2, [r3, #8]
 776              		.loc 9 88 0
 777 006a 394B     		ldr	r3, .L45
 778 006c DC68     		ldr	r4, [r3, #12]
 779 006e FFF7FEFF 		bl	chThdGetPriorityX
 780 0072 0346     		mov	r3, r0
 781 0074 1A1D     		adds	r2, r3, #4
 782 0076 3C4B     		ldr	r3, .L45+24
 783 0078 0093     		str	r3, [sp]
 784 007a 374B     		ldr	r3, .L45+8
 785 007c 4FF4F871 		mov	r1, #496
 786 0080 2046     		mov	r0, r4
 787 0082 FFF7FEFF 		bl	chThdCreateStatic
 788 0086 0246     		mov	r2, r0
 789 0088 344B     		ldr	r3, .L45+12
 790 008a DA60     		str	r2, [r3, #12]
 791              		.loc 9 89 0
 792 008c 304B     		ldr	r3, .L45
 793 008e 1C69     		ldr	r4, [r3, #16]
 794 0090 FFF7FEFF 		bl	chThdGetPriorityX
 795 0094 0346     		mov	r3, r0
 796 0096 9A1C     		adds	r2, r3, #2
 797 0098 344B     		ldr	r3, .L45+28
ARM GAS  /tmp/ccUSzzA9.s 			page 15


 798 009a 0093     		str	r3, [sp]
 799 009c 2E4B     		ldr	r3, .L45+8
 800 009e 4FF4F871 		mov	r1, #496
 801 00a2 2046     		mov	r0, r4
 802 00a4 FFF7FEFF 		bl	chThdCreateStatic
 803 00a8 0246     		mov	r2, r0
 804 00aa 2C4B     		ldr	r3, .L45+12
 805 00ac 1A61     		str	r2, [r3, #16]
 806              		.loc 9 90 0
 807 00ae 3048     		ldr	r0, .L45+32
 808 00b0 FFF7FEFF 		bl	chSemSignal
 809              		.loc 9 91 0
 810 00b4 2E48     		ldr	r0, .L45+32
 811 00b6 FFF7FEFF 		bl	chSemSignal
 812              		.loc 9 92 0
 813 00ba 2D48     		ldr	r0, .L45+32
 814 00bc FFF7FEFF 		bl	chSemSignal
 815              		.loc 9 93 0
 816 00c0 2B48     		ldr	r0, .L45+32
 817 00c2 FFF7FEFF 		bl	chSemSignal
 818              		.loc 9 94 0
 819 00c6 2A48     		ldr	r0, .L45+32
 820 00c8 FFF7FEFF 		bl	chSemSignal
 821              		.loc 9 95 0
 822 00cc FFF7FEFF 		bl	test_wait_threads
 823              		.loc 9 99 0
 824 00d0 2849     		ldr	r1, .L45+36
 825 00d2 0120     		movs	r0, #1
 826 00d4 FFF7FEFF 		bl	_test_assert_sequence
 827 00d8 0346     		mov	r3, r0
 828 00da 002B     		cmp	r3, #0
 829 00dc 34D1     		bne	.L44
 830              		.loc 9 101 0
 831 00de 1C4B     		ldr	r3, .L45
 832 00e0 1C68     		ldr	r4, [r3]
 833 00e2 FFF7FEFF 		bl	chThdGetPriorityX
 834 00e6 0346     		mov	r3, r0
 835 00e8 5A1D     		adds	r2, r3, #5
 836 00ea 1A4B     		ldr	r3, .L45+4
 837 00ec 0093     		str	r3, [sp]
 838 00ee 1A4B     		ldr	r3, .L45+8
 839 00f0 4FF4F871 		mov	r1, #496
 840 00f4 2046     		mov	r0, r4
 841 00f6 FFF7FEFF 		bl	chThdCreateStatic
 842 00fa 0246     		mov	r2, r0
 843 00fc 174B     		ldr	r3, .L45+12
 844 00fe 1A60     		str	r2, [r3]
 845              		.loc 9 102 0
 846 0100 FFF7FEFF 		bl	chSysLock
 847              		.loc 9 103 0
 848 0104 0221     		movs	r1, #2
 849 0106 1A48     		ldr	r0, .L45+32
 850 0108 FFF7FEFF 		bl	chSemAddCounterI
 851              		.loc 9 104 0
 852 010c FFF7FEFF 		bl	chSchRescheduleS
 853              		.loc 9 105 0
 854 0110 FFF7FEFF 		bl	chSysUnlock
ARM GAS  /tmp/ccUSzzA9.s 			page 16


 855              		.loc 9 106 0
 856 0114 FFF7FEFF 		bl	test_wait_threads
 857              		.loc 9 107 0
 858 0118 FFF7FEFF 		bl	chSysLock
 859 011c 1448     		ldr	r0, .L45+32
 860 011e FFF7FEFF 		bl	chSemGetCounterI
 861 0122 0346     		mov	r3, r0
 862 0124 012B     		cmp	r3, #1
 863 0126 0CBF     		ite	eq
 864 0128 0123     		moveq	r3, #1
 865 012a 0023     		movne	r3, #0
 866 012c DBB2     		uxtb	r3, r3
 867 012e 1946     		mov	r1, r3
 868 0130 0220     		movs	r0, #2
 869 0132 FFF7FEFF 		bl	_test_assert
 870 0136 0346     		mov	r3, r0
 871 0138 002B     		cmp	r3, #0
 872 013a 02D0     		beq	.L43
 873              		.loc 9 107 0 is_stmt 0 discriminator 1
 874 013c FFF7FEFF 		bl	chSysUnlock
 875 0140 03E0     		b	.L40
 876              	.L43:
 877              		.loc 9 107 0 discriminator 2
 878 0142 FFF7FEFF 		bl	chSysUnlock
 879 0146 00E0     		b	.L40
 880              	.L44:
 881              		.loc 9 99 0 is_stmt 1
 882 0148 00BF     		nop
 883              	.L40:
 884              		.loc 9 108 0
 885 014a 02B0     		add	sp, sp, #8
 886              		.cfi_def_cfa_offset 8
 887              		@ sp needed
 888 014c 10BD     		pop	{r4, pc}
 889              	.L46:
 890 014e 00BF     		.align	2
 891              	.L45:
 892 0150 00000000 		.word	wa
 893 0154 00000000 		.word	.LC0
 894 0158 00000000 		.word	thread1
 895 015c 00000000 		.word	threads
 896 0160 04000000 		.word	.LC1
 897 0164 08000000 		.word	.LC2
 898 0168 0C000000 		.word	.LC3
 899 016c 10000000 		.word	.LC4
 900 0170 00000000 		.word	sem1
 901 0174 14000000 		.word	.LC5
 902              		.cfi_endproc
 903              	.LFE233:
 904              		.size	sem1_execute, .-sem1_execute
 905              		.global	testsem1
 906              		.section	.rodata
 907 001a 0000     		.align	2
 908              	.LC6:
 909 001c 53656D61 		.ascii	"Semaphores, enqueuing\000"
 909      70686F72 
 909      65732C20 
ARM GAS  /tmp/ccUSzzA9.s 			page 17


 909      656E7175 
 909      6575696E 
 910              		.section	.rodata.testsem1,"a",%progbits
 911              		.align	2
 912              		.type	testsem1, %object
 913              		.size	testsem1, 16
 914              	testsem1:
 915 0000 1C000000 		.word	.LC6
 916 0004 00000000 		.word	sem1_setup
 917 0008 00000000 		.word	0
 918 000c 00000000 		.word	sem1_execute
 919              		.section	.text.sem2_setup,"ax",%progbits
 920              		.align	1
 921              		.p2align 4,,15
 922              		.syntax unified
 923              		.thumb
 924              		.thumb_func
 925              		.fpu fpv4-sp-d16
 926              		.type	sem2_setup, %function
 927              	sem2_setup:
 928              	.LFB234:
 929              		.loc 9 128 0
 930              		.cfi_startproc
 931              		@ args = 0, pretend = 0, frame = 0
 932              		@ frame_needed = 0, uses_anonymous_args = 0
 933 0000 08B5     		push	{r3, lr}
 934              		.cfi_def_cfa_offset 8
 935              		.cfi_offset 3, -8
 936              		.cfi_offset 14, -4
 937              		.loc 9 130 0
 938 0002 0021     		movs	r1, #0
 939 0004 0248     		ldr	r0, .L48
 940 0006 FFF7FEFF 		bl	chSemObjectInit
 941              		.loc 9 131 0
 942 000a 00BF     		nop
 943 000c 08BD     		pop	{r3, pc}
 944              	.L49:
 945 000e 00BF     		.align	2
 946              	.L48:
 947 0010 00000000 		.word	sem1
 948              		.cfi_endproc
 949              	.LFE234:
 950              		.size	sem2_setup, .-sem2_setup
 951              		.section	.text.thread2,"ax",%progbits
 952              		.align	1
 953              		.p2align 4,,15
 954              		.syntax unified
 955              		.thumb
 956              		.thumb_func
 957              		.fpu fpv4-sp-d16
 958              		.type	thread2, %function
 959              	thread2:
 960              	.LFB235:
 961              		.loc 9 133 0
 962              		.cfi_startproc
 963              		@ args = 0, pretend = 0, frame = 8
 964              		@ frame_needed = 0, uses_anonymous_args = 0
ARM GAS  /tmp/ccUSzzA9.s 			page 18


 965 0000 00B5     		push	{lr}
 966              		.cfi_def_cfa_offset 4
 967              		.cfi_offset 14, -4
 968 0002 83B0     		sub	sp, sp, #12
 969              		.cfi_def_cfa_offset 16
 970 0004 0190     		str	r0, [sp, #4]
 971              		.loc 9 136 0
 972 0006 4FF4FA70 		mov	r0, #500
 973 000a FFF7FEFF 		bl	chThdSleep
 974              		.loc 9 137 0
 975 000e FFF7FEFF 		bl	chSysLock
 976              		.loc 9 138 0
 977 0012 0548     		ldr	r0, .L51
 978 0014 FFF7FEFF 		bl	chSemSignalI
 979              		.loc 9 139 0
 980 0018 FFF7FEFF 		bl	chSchRescheduleS
 981              		.loc 9 140 0
 982 001c FFF7FEFF 		bl	chSysUnlock
 983              		.loc 9 141 0
 984 0020 00BF     		nop
 985 0022 03B0     		add	sp, sp, #12
 986              		.cfi_def_cfa_offset 4
 987              		@ sp needed
 988 0024 5DF804FB 		ldr	pc, [sp], #4
 989              	.L52:
 990              		.align	2
 991              	.L51:
 992 0028 00000000 		.word	sem1
 993              		.cfi_endproc
 994              	.LFE235:
 995              		.size	thread2, .-thread2
 996              		.section	.text.sem2_execute,"ax",%progbits
 997              		.align	1
 998              		.p2align 4,,15
 999              		.syntax unified
 1000              		.thumb
 1001              		.thumb_func
 1002              		.fpu fpv4-sp-d16
 1003              		.type	sem2_execute, %function
 1004              	sem2_execute:
 1005              	.LFB236:
 1006              		.loc 9 143 0
 1007              		.cfi_startproc
 1008              		@ args = 0, pretend = 0, frame = 16
 1009              		@ frame_needed = 0, uses_anonymous_args = 0
 1010 0000 10B5     		push	{r4, lr}
 1011              		.cfi_def_cfa_offset 8
 1012              		.cfi_offset 4, -8
 1013              		.cfi_offset 14, -4
 1014 0002 86B0     		sub	sp, sp, #24
 1015              		.cfi_def_cfa_offset 32
 1016              		.loc 9 151 0
 1017 0004 0021     		movs	r1, #0
 1018 0006 6C48     		ldr	r0, .L77
 1019 0008 FFF7FEFF 		bl	chSemWaitTimeout
 1020 000c 0490     		str	r0, [sp, #16]
 1021              		.loc 9 152 0
ARM GAS  /tmp/ccUSzzA9.s 			page 19


 1022 000e 049B     		ldr	r3, [sp, #16]
 1023 0010 B3F1FF3F 		cmp	r3, #-1
 1024 0014 0CBF     		ite	eq
 1025 0016 0123     		moveq	r3, #1
 1026 0018 0023     		movne	r3, #0
 1027 001a DBB2     		uxtb	r3, r3
 1028 001c 1946     		mov	r1, r3
 1029 001e 0120     		movs	r0, #1
 1030 0020 FFF7FEFF 		bl	_test_assert
 1031 0024 0346     		mov	r3, r0
 1032 0026 002B     		cmp	r3, #0
 1033 0028 40F0B080 		bne	.L67
 1034              		.loc 9 153 0
 1035 002c 6248     		ldr	r0, .L77
 1036 002e FFF7FEFF 		bl	queue_isempty
 1037 0032 0346     		mov	r3, r0
 1038 0034 1946     		mov	r1, r3
 1039 0036 0220     		movs	r0, #2
 1040 0038 FFF7FEFF 		bl	_test_assert
 1041 003c 0346     		mov	r3, r0
 1042 003e 002B     		cmp	r3, #0
 1043 0040 40F0A680 		bne	.L68
 1044              		.loc 9 154 0
 1045 0044 5C4B     		ldr	r3, .L77
 1046 0046 9B68     		ldr	r3, [r3, #8]
 1047 0048 002B     		cmp	r3, #0
 1048 004a 0CBF     		ite	eq
 1049 004c 0123     		moveq	r3, #1
 1050 004e 0023     		movne	r3, #0
 1051 0050 DBB2     		uxtb	r3, r3
 1052 0052 1946     		mov	r1, r3
 1053 0054 0320     		movs	r0, #3
 1054 0056 FFF7FEFF 		bl	_test_assert
 1055 005a 0346     		mov	r3, r0
 1056 005c 002B     		cmp	r3, #0
 1057 005e 40F09980 		bne	.L69
 1058              		.loc 9 159 0
 1059 0062 564B     		ldr	r3, .L77+4
 1060 0064 1C68     		ldr	r4, [r3]
 1061 0066 FFF7FEFF 		bl	chThdGetPriorityX
 1062 006a 0346     		mov	r3, r0
 1063 006c 5A1E     		subs	r2, r3, #1
 1064 006e 0023     		movs	r3, #0
 1065 0070 0093     		str	r3, [sp]
 1066 0072 534B     		ldr	r3, .L77+8
 1067 0074 4FF4F871 		mov	r1, #496
 1068 0078 2046     		mov	r0, r4
 1069 007a FFF7FEFF 		bl	chThdCreateStatic
 1070 007e 0246     		mov	r2, r0
 1071 0080 504B     		ldr	r3, .L77+12
 1072 0082 1A60     		str	r2, [r3]
 1073              		.loc 9 161 0
 1074 0084 41F28831 		movw	r1, #5000
 1075 0088 4B48     		ldr	r0, .L77
 1076 008a FFF7FEFF 		bl	chSemWaitTimeout
 1077 008e 0490     		str	r0, [sp, #16]
 1078              		.loc 9 162 0
ARM GAS  /tmp/ccUSzzA9.s 			page 20


 1079 0090 FFF7FEFF 		bl	test_wait_threads
 1080              		.loc 9 163 0
 1081 0094 049B     		ldr	r3, [sp, #16]
 1082 0096 002B     		cmp	r3, #0
 1083 0098 0CBF     		ite	eq
 1084 009a 0123     		moveq	r3, #1
 1085 009c 0023     		movne	r3, #0
 1086 009e DBB2     		uxtb	r3, r3
 1087 00a0 1946     		mov	r1, r3
 1088 00a2 0420     		movs	r0, #4
 1089 00a4 FFF7FEFF 		bl	_test_assert
 1090 00a8 0346     		mov	r3, r0
 1091 00aa 002B     		cmp	r3, #0
 1092 00ac 74D1     		bne	.L70
 1093              		.loc 9 164 0
 1094 00ae 4248     		ldr	r0, .L77
 1095 00b0 FFF7FEFF 		bl	queue_isempty
 1096 00b4 0346     		mov	r3, r0
 1097 00b6 1946     		mov	r1, r3
 1098 00b8 0520     		movs	r0, #5
 1099 00ba FFF7FEFF 		bl	_test_assert
 1100 00be 0346     		mov	r3, r0
 1101 00c0 002B     		cmp	r3, #0
 1102 00c2 6BD1     		bne	.L71
 1103              		.loc 9 165 0
 1104 00c4 3C4B     		ldr	r3, .L77
 1105 00c6 9B68     		ldr	r3, [r3, #8]
 1106 00c8 002B     		cmp	r3, #0
 1107 00ca 0CBF     		ite	eq
 1108 00cc 0123     		moveq	r3, #1
 1109 00ce 0023     		movne	r3, #0
 1110 00d0 DBB2     		uxtb	r3, r3
 1111 00d2 1946     		mov	r1, r3
 1112 00d4 0620     		movs	r0, #6
 1113 00d6 FFF7FEFF 		bl	_test_assert
 1114 00da 0346     		mov	r3, r0
 1115 00dc 002B     		cmp	r3, #0
 1116 00de 5FD1     		bne	.L72
 1117              		.loc 9 170 0
 1118 00e0 FFF7FEFF 		bl	test_wait_tick
 1119              		.loc 9 171 0
 1120 00e4 FFF7FEFF 		bl	chVTGetSystemTime
 1121 00e8 0346     		mov	r3, r0
 1122 00ea 03F6C413 		addw	r3, r3, #2500
 1123 00ee 0393     		str	r3, [sp, #12]
 1124              		.loc 9 172 0
 1125 00f0 0023     		movs	r3, #0
 1126 00f2 0593     		str	r3, [sp, #20]
 1127 00f4 36E0     		b	.L61
 1128              	.L65:
 1129              		.loc 9 173 0
 1130 00f6 059B     		ldr	r3, [sp, #20]
 1131 00f8 DBB2     		uxtb	r3, r3
 1132 00fa 4133     		adds	r3, r3, #65
 1133 00fc DBB2     		uxtb	r3, r3
 1134 00fe 1846     		mov	r0, r3
 1135 0100 FFF7FEFF 		bl	test_emit_token
ARM GAS  /tmp/ccUSzzA9.s 			page 21


 1136              		.loc 9 174 0
 1137 0104 4FF4FA71 		mov	r1, #500
 1138 0108 2B48     		ldr	r0, .L77
 1139 010a FFF7FEFF 		bl	chSemWaitTimeout
 1140 010e 0490     		str	r0, [sp, #16]
 1141              		.loc 9 175 0
 1142 0110 049B     		ldr	r3, [sp, #16]
 1143 0112 B3F1FF3F 		cmp	r3, #-1
 1144 0116 0CBF     		ite	eq
 1145 0118 0123     		moveq	r3, #1
 1146 011a 0023     		movne	r3, #0
 1147 011c DBB2     		uxtb	r3, r3
 1148 011e 1946     		mov	r1, r3
 1149 0120 0720     		movs	r0, #7
 1150 0122 FFF7FEFF 		bl	_test_assert
 1151 0126 0346     		mov	r3, r0
 1152 0128 002B     		cmp	r3, #0
 1153 012a 3BD1     		bne	.L73
 1154              		.loc 9 176 0
 1155 012c 2248     		ldr	r0, .L77
 1156 012e FFF7FEFF 		bl	queue_isempty
 1157 0132 0346     		mov	r3, r0
 1158 0134 1946     		mov	r1, r3
 1159 0136 0820     		movs	r0, #8
 1160 0138 FFF7FEFF 		bl	_test_assert
 1161 013c 0346     		mov	r3, r0
 1162 013e 002B     		cmp	r3, #0
 1163 0140 32D1     		bne	.L74
 1164              		.loc 9 177 0
 1165 0142 1D4B     		ldr	r3, .L77
 1166 0144 9B68     		ldr	r3, [r3, #8]
 1167 0146 002B     		cmp	r3, #0
 1168 0148 0CBF     		ite	eq
 1169 014a 0123     		moveq	r3, #1
 1170 014c 0023     		movne	r3, #0
 1171 014e DBB2     		uxtb	r3, r3
 1172 0150 1946     		mov	r1, r3
 1173 0152 0920     		movs	r0, #9
 1174 0154 FFF7FEFF 		bl	_test_assert
 1175 0158 0346     		mov	r3, r0
 1176 015a 002B     		cmp	r3, #0
 1177 015c 26D1     		bne	.L75
 1178              		.loc 9 172 0 discriminator 2
 1179 015e 059B     		ldr	r3, [sp, #20]
 1180 0160 0133     		adds	r3, r3, #1
 1181 0162 0593     		str	r3, [sp, #20]
 1182              	.L61:
 1183              		.loc 9 172 0 is_stmt 0 discriminator 1
 1184 0164 059B     		ldr	r3, [sp, #20]
 1185 0166 042B     		cmp	r3, #4
 1186 0168 C5DD     		ble	.L65
 1187              		.loc 9 179 0 is_stmt 1
 1188 016a 1749     		ldr	r1, .L77+16
 1189 016c 0A20     		movs	r0, #10
 1190 016e FFF7FEFF 		bl	_test_assert_sequence
 1191 0172 0346     		mov	r3, r0
 1192 0174 002B     		cmp	r3, #0
ARM GAS  /tmp/ccUSzzA9.s 			page 22


 1193 0176 1BD1     		bne	.L76
 1194              		.loc 9 180 0
 1195 0178 039B     		ldr	r3, [sp, #12]
 1196 017a 1433     		adds	r3, r3, #20
 1197 017c 1A46     		mov	r2, r3
 1198 017e 0399     		ldr	r1, [sp, #12]
 1199 0180 0B20     		movs	r0, #11
 1200 0182 FFF7FEFF 		bl	_test_assert_time_window
 1201 0186 0346     		mov	r3, r0
 1202 0188 002B     		cmp	r3, #0
 1203 018a 12E0     		b	.L53
 1204              	.L67:
 1205              		.loc 9 152 0
 1206 018c 00BF     		nop
 1207 018e 10E0     		b	.L53
 1208              	.L68:
 1209              		.loc 9 153 0
 1210 0190 00BF     		nop
 1211 0192 0EE0     		b	.L53
 1212              	.L69:
 1213              		.loc 9 154 0
 1214 0194 00BF     		nop
 1215 0196 0CE0     		b	.L53
 1216              	.L70:
 1217              		.loc 9 163 0
 1218 0198 00BF     		nop
 1219 019a 0AE0     		b	.L53
 1220              	.L71:
 1221              		.loc 9 164 0
 1222 019c 00BF     		nop
 1223 019e 08E0     		b	.L53
 1224              	.L72:
 1225              		.loc 9 165 0
 1226 01a0 00BF     		nop
 1227 01a2 06E0     		b	.L53
 1228              	.L73:
 1229              		.loc 9 175 0
 1230 01a4 00BF     		nop
 1231 01a6 04E0     		b	.L53
 1232              	.L74:
 1233              		.loc 9 176 0
 1234 01a8 00BF     		nop
 1235 01aa 02E0     		b	.L53
 1236              	.L75:
 1237              		.loc 9 177 0
 1238 01ac 00BF     		nop
 1239 01ae 00E0     		b	.L53
 1240              	.L76:
 1241              		.loc 9 179 0
 1242 01b0 00BF     		nop
 1243              	.L53:
 1244              		.loc 9 181 0
 1245 01b2 06B0     		add	sp, sp, #24
 1246              		.cfi_def_cfa_offset 8
 1247              		@ sp needed
 1248 01b4 10BD     		pop	{r4, pc}
 1249              	.L78:
ARM GAS  /tmp/ccUSzzA9.s 			page 23


 1250 01b6 00BF     		.align	2
 1251              	.L77:
 1252 01b8 00000000 		.word	sem1
 1253 01bc 00000000 		.word	wa
 1254 01c0 00000000 		.word	thread2
 1255 01c4 00000000 		.word	threads
 1256 01c8 14000000 		.word	.LC5
 1257              		.cfi_endproc
 1258              	.LFE236:
 1259              		.size	sem2_execute, .-sem2_execute
 1260              		.global	testsem2
 1261              		.section	.rodata
 1262 0032 0000     		.align	2
 1263              	.LC7:
 1264 0034 53656D61 		.ascii	"Semaphores, timeout\000"
 1264      70686F72 
 1264      65732C20 
 1264      74696D65 
 1264      6F757400 
 1265              		.section	.rodata.testsem2,"a",%progbits
 1266              		.align	2
 1267              		.type	testsem2, %object
 1268              		.size	testsem2, 16
 1269              	testsem2:
 1270 0000 34000000 		.word	.LC7
 1271 0004 00000000 		.word	sem2_setup
 1272 0008 00000000 		.word	0
 1273 000c 00000000 		.word	sem2_execute
 1274              		.section	.text.sem3_setup,"ax",%progbits
 1275              		.align	1
 1276              		.p2align 4,,15
 1277              		.syntax unified
 1278              		.thumb
 1279              		.thumb_func
 1280              		.fpu fpv4-sp-d16
 1281              		.type	sem3_setup, %function
 1282              	sem3_setup:
 1283              	.LFB237:
 1284              		.loc 9 202 0
 1285              		.cfi_startproc
 1286              		@ args = 0, pretend = 0, frame = 0
 1287              		@ frame_needed = 0, uses_anonymous_args = 0
 1288 0000 08B5     		push	{r3, lr}
 1289              		.cfi_def_cfa_offset 8
 1290              		.cfi_offset 3, -8
 1291              		.cfi_offset 14, -4
 1292              		.loc 9 204 0
 1293 0002 0021     		movs	r1, #0
 1294 0004 0248     		ldr	r0, .L80
 1295 0006 FFF7FEFF 		bl	chSemObjectInit
 1296              		.loc 9 205 0
 1297 000a 00BF     		nop
 1298 000c 08BD     		pop	{r3, pc}
 1299              	.L81:
 1300 000e 00BF     		.align	2
 1301              	.L80:
 1302 0010 00000000 		.word	sem1
ARM GAS  /tmp/ccUSzzA9.s 			page 24


 1303              		.cfi_endproc
 1304              	.LFE237:
 1305              		.size	sem3_setup, .-sem3_setup
 1306              		.section	.text.thread3,"ax",%progbits
 1307              		.align	1
 1308              		.p2align 4,,15
 1309              		.syntax unified
 1310              		.thumb
 1311              		.thumb_func
 1312              		.fpu fpv4-sp-d16
 1313              		.type	thread3, %function
 1314              	thread3:
 1315              	.LFB238:
 1316              		.loc 9 207 0
 1317              		.cfi_startproc
 1318              		@ args = 0, pretend = 0, frame = 8
 1319              		@ frame_needed = 0, uses_anonymous_args = 0
 1320 0000 00B5     		push	{lr}
 1321              		.cfi_def_cfa_offset 4
 1322              		.cfi_offset 14, -4
 1323 0002 83B0     		sub	sp, sp, #12
 1324              		.cfi_def_cfa_offset 16
 1325 0004 0190     		str	r0, [sp, #4]
 1326              		.loc 9 210 0
 1327 0006 0548     		ldr	r0, .L83
 1328 0008 FFF7FEFF 		bl	chSemWait
 1329              		.loc 9 211 0
 1330 000c 0348     		ldr	r0, .L83
 1331 000e FFF7FEFF 		bl	chSemSignal
 1332              		.loc 9 212 0
 1333 0012 00BF     		nop
 1334 0014 03B0     		add	sp, sp, #12
 1335              		.cfi_def_cfa_offset 4
 1336              		@ sp needed
 1337 0016 5DF804FB 		ldr	pc, [sp], #4
 1338              	.L84:
 1339 001a 00BF     		.align	2
 1340              	.L83:
 1341 001c 00000000 		.word	sem1
 1342              		.cfi_endproc
 1343              	.LFE238:
 1344              		.size	thread3, .-thread3
 1345              		.section	.text.sem3_execute,"ax",%progbits
 1346              		.align	1
 1347              		.p2align 4,,15
 1348              		.syntax unified
 1349              		.thumb
 1350              		.thumb_func
 1351              		.fpu fpv4-sp-d16
 1352              		.type	sem3_execute, %function
 1353              	sem3_execute:
 1354              	.LFB239:
 1355              		.loc 9 214 0
 1356              		.cfi_startproc
 1357              		@ args = 0, pretend = 0, frame = 0
 1358              		@ frame_needed = 0, uses_anonymous_args = 0
 1359 0000 10B5     		push	{r4, lr}
ARM GAS  /tmp/ccUSzzA9.s 			page 25


 1360              		.cfi_def_cfa_offset 8
 1361              		.cfi_offset 4, -8
 1362              		.cfi_offset 14, -4
 1363 0002 82B0     		sub	sp, sp, #8
 1364              		.cfi_def_cfa_offset 16
 1365              		.loc 9 216 0
 1366 0004 284B     		ldr	r3, .L93
 1367 0006 1C68     		ldr	r4, [r3]
 1368 0008 FFF7FEFF 		bl	chThdGetPriorityX
 1369 000c 0346     		mov	r3, r0
 1370 000e 5A1C     		adds	r2, r3, #1
 1371 0010 0023     		movs	r3, #0
 1372 0012 0093     		str	r3, [sp]
 1373 0014 254B     		ldr	r3, .L93+4
 1374 0016 4FF4F871 		mov	r1, #496
 1375 001a 2046     		mov	r0, r4
 1376 001c FFF7FEFF 		bl	chThdCreateStatic
 1377 0020 0246     		mov	r2, r0
 1378 0022 234B     		ldr	r3, .L93+8
 1379 0024 1A60     		str	r2, [r3]
 1380              		.loc 9 217 0
 1381 0026 2349     		ldr	r1, .L93+12
 1382 0028 2248     		ldr	r0, .L93+12
 1383 002a FFF7FEFF 		bl	chSemSignalWait
 1384              		.loc 9 218 0
 1385 002e 2148     		ldr	r0, .L93+12
 1386 0030 FFF7FEFF 		bl	queue_isempty
 1387 0034 0346     		mov	r3, r0
 1388 0036 1946     		mov	r1, r3
 1389 0038 0120     		movs	r0, #1
 1390 003a FFF7FEFF 		bl	_test_assert
 1391 003e 0346     		mov	r3, r0
 1392 0040 002B     		cmp	r3, #0
 1393 0042 2AD1     		bne	.L90
 1394              		.loc 9 219 0
 1395 0044 1B4B     		ldr	r3, .L93+12
 1396 0046 9B68     		ldr	r3, [r3, #8]
 1397 0048 002B     		cmp	r3, #0
 1398 004a 0CBF     		ite	eq
 1399 004c 0123     		moveq	r3, #1
 1400 004e 0023     		movne	r3, #0
 1401 0050 DBB2     		uxtb	r3, r3
 1402 0052 1946     		mov	r1, r3
 1403 0054 0220     		movs	r0, #2
 1404 0056 FFF7FEFF 		bl	_test_assert
 1405 005a 0346     		mov	r3, r0
 1406 005c 002B     		cmp	r3, #0
 1407 005e 1ED1     		bne	.L91
 1408              		.loc 9 221 0
 1409 0060 1449     		ldr	r1, .L93+12
 1410 0062 1448     		ldr	r0, .L93+12
 1411 0064 FFF7FEFF 		bl	chSemSignalWait
 1412              		.loc 9 222 0
 1413 0068 1248     		ldr	r0, .L93+12
 1414 006a FFF7FEFF 		bl	queue_isempty
 1415 006e 0346     		mov	r3, r0
 1416 0070 1946     		mov	r1, r3
ARM GAS  /tmp/ccUSzzA9.s 			page 26


 1417 0072 0320     		movs	r0, #3
 1418 0074 FFF7FEFF 		bl	_test_assert
 1419 0078 0346     		mov	r3, r0
 1420 007a 002B     		cmp	r3, #0
 1421 007c 11D1     		bne	.L92
 1422              		.loc 9 223 0
 1423 007e 0D4B     		ldr	r3, .L93+12
 1424 0080 9B68     		ldr	r3, [r3, #8]
 1425 0082 002B     		cmp	r3, #0
 1426 0084 0CBF     		ite	eq
 1427 0086 0123     		moveq	r3, #1
 1428 0088 0023     		movne	r3, #0
 1429 008a DBB2     		uxtb	r3, r3
 1430 008c 1946     		mov	r1, r3
 1431 008e 0420     		movs	r0, #4
 1432 0090 FFF7FEFF 		bl	_test_assert
 1433 0094 0346     		mov	r3, r0
 1434 0096 002B     		cmp	r3, #0
 1435 0098 04E0     		b	.L85
 1436              	.L90:
 1437              		.loc 9 218 0
 1438 009a 00BF     		nop
 1439 009c 02E0     		b	.L85
 1440              	.L91:
 1441              		.loc 9 219 0
 1442 009e 00BF     		nop
 1443 00a0 00E0     		b	.L85
 1444              	.L92:
 1445              		.loc 9 222 0
 1446 00a2 00BF     		nop
 1447              	.L85:
 1448              		.loc 9 224 0
 1449 00a4 02B0     		add	sp, sp, #8
 1450              		.cfi_def_cfa_offset 8
 1451              		@ sp needed
 1452 00a6 10BD     		pop	{r4, pc}
 1453              	.L94:
 1454              		.align	2
 1455              	.L93:
 1456 00a8 00000000 		.word	wa
 1457 00ac 00000000 		.word	thread3
 1458 00b0 00000000 		.word	threads
 1459 00b4 00000000 		.word	sem1
 1460              		.cfi_endproc
 1461              	.LFE239:
 1462              		.size	sem3_execute, .-sem3_execute
 1463              		.global	testsem3
 1464              		.section	.rodata
 1465              		.align	2
 1466              	.LC8:
 1467 0048 53656D61 		.ascii	"Semaphores, atomic signal-wait\000"
 1467      70686F72 
 1467      65732C20 
 1467      61746F6D 
 1467      69632073 
 1468              		.section	.rodata.testsem3,"a",%progbits
 1469              		.align	2
ARM GAS  /tmp/ccUSzzA9.s 			page 27


 1470              		.type	testsem3, %object
 1471              		.size	testsem3, 16
 1472              	testsem3:
 1473 0000 48000000 		.word	.LC8
 1474 0004 00000000 		.word	sem3_setup
 1475 0008 00000000 		.word	0
 1476 000c 00000000 		.word	sem3_execute
 1477              		.section	.text.thread4,"ax",%progbits
 1478              		.align	1
 1479              		.p2align 4,,15
 1480              		.syntax unified
 1481              		.thumb
 1482              		.thumb_func
 1483              		.fpu fpv4-sp-d16
 1484              		.type	thread4, %function
 1485              	thread4:
 1486              	.LFB240:
 1487              		.loc 9 241 0
 1488              		.cfi_startproc
 1489              		@ args = 0, pretend = 0, frame = 8
 1490              		@ frame_needed = 0, uses_anonymous_args = 0
 1491 0000 00B5     		push	{lr}
 1492              		.cfi_def_cfa_offset 4
 1493              		.cfi_offset 14, -4
 1494 0002 83B0     		sub	sp, sp, #12
 1495              		.cfi_def_cfa_offset 16
 1496 0004 0190     		str	r0, [sp, #4]
 1497              		.loc 9 243 0
 1498 0006 0198     		ldr	r0, [sp, #4]
 1499 0008 FFF7FEFF 		bl	chBSemSignal
 1500              		.loc 9 244 0
 1501 000c 00BF     		nop
 1502 000e 03B0     		add	sp, sp, #12
 1503              		.cfi_def_cfa_offset 4
 1504              		@ sp needed
 1505 0010 5DF804FB 		ldr	pc, [sp], #4
 1506              		.cfi_endproc
 1507              	.LFE240:
 1508              		.size	thread4, .-thread4
 1509              		.section	.text.sem4_execute,"ax",%progbits
 1510              		.align	1
 1511              		.p2align 4,,15
 1512              		.syntax unified
 1513              		.thumb
 1514              		.thumb_func
 1515              		.fpu fpv4-sp-d16
 1516              		.type	sem4_execute, %function
 1517              	sem4_execute:
 1518              	.LFB241:
 1519              		.loc 9 246 0
 1520              		.cfi_startproc
 1521              		@ args = 0, pretend = 0, frame = 16
 1522              		@ frame_needed = 0, uses_anonymous_args = 0
 1523 0000 10B5     		push	{r4, lr}
 1524              		.cfi_def_cfa_offset 8
 1525              		.cfi_offset 4, -8
 1526              		.cfi_offset 14, -4
ARM GAS  /tmp/ccUSzzA9.s 			page 28


 1527 0002 86B0     		sub	sp, sp, #24
 1528              		.cfi_def_cfa_offset 32
 1529              		.loc 9 250 0
 1530 0004 03AB     		add	r3, sp, #12
 1531 0006 0121     		movs	r1, #1
 1532 0008 1846     		mov	r0, r3
 1533 000a FFF7FEFF 		bl	chBSemObjectInit
 1534              		.loc 9 251 0
 1535 000e 03AB     		add	r3, sp, #12
 1536 0010 0121     		movs	r1, #1
 1537 0012 1846     		mov	r0, r3
 1538 0014 FFF7FEFF 		bl	chBSemReset
 1539              		.loc 9 252 0
 1540 0018 FFF7FEFF 		bl	chSysLock
 1541 001c 03AB     		add	r3, sp, #12
 1542 001e 1846     		mov	r0, r3
 1543 0020 FFF7FEFF 		bl	chBSemGetStateI
 1544 0024 0346     		mov	r3, r0
 1545 0026 1946     		mov	r1, r3
 1546 0028 0120     		movs	r0, #1
 1547 002a FFF7FEFF 		bl	_test_assert
 1548 002e 0346     		mov	r3, r0
 1549 0030 002B     		cmp	r3, #0
 1550 0032 02D0     		beq	.L97
 1551              		.loc 9 252 0 is_stmt 0 discriminator 1
 1552 0034 FFF7FEFF 		bl	chSysUnlock
 1553 0038 9DE0     		b	.L96
 1554              	.L97:
 1555              		.loc 9 252 0 discriminator 2
 1556 003a FFF7FEFF 		bl	chSysUnlock
 1557              		.loc 9 255 0 is_stmt 1 discriminator 2
 1558 003e 4F4B     		ldr	r3, .L105
 1559 0040 1C68     		ldr	r4, [r3]
 1560              		.loc 9 256 0 discriminator 2
 1561 0042 FFF7FEFF 		bl	chThdGetPriorityX
 1562 0046 0346     		mov	r3, r0
 1563              		.loc 9 255 0 discriminator 2
 1564 0048 5A1E     		subs	r2, r3, #1
 1565 004a 03AB     		add	r3, sp, #12
 1566 004c 0093     		str	r3, [sp]
 1567 004e 4C4B     		ldr	r3, .L105+4
 1568 0050 4FF4F871 		mov	r1, #496
 1569 0054 2046     		mov	r0, r4
 1570 0056 FFF7FEFF 		bl	chThdCreateStatic
 1571 005a 0246     		mov	r2, r0
 1572 005c 494B     		ldr	r3, .L105+8
 1573 005e 1A60     		str	r2, [r3]
 1574              		.loc 9 259 0 discriminator 2
 1575 0060 03AB     		add	r3, sp, #12
 1576 0062 1846     		mov	r0, r3
 1577 0064 FFF7FEFF 		bl	chBSemWait
 1578              		.loc 9 262 0 discriminator 2
 1579 0068 FFF7FEFF 		bl	chSysLock
 1580 006c 03AB     		add	r3, sp, #12
 1581 006e 1846     		mov	r0, r3
 1582 0070 FFF7FEFF 		bl	chBSemGetStateI
 1583 0074 0346     		mov	r3, r0
ARM GAS  /tmp/ccUSzzA9.s 			page 29


 1584 0076 1946     		mov	r1, r3
 1585 0078 0220     		movs	r0, #2
 1586 007a FFF7FEFF 		bl	_test_assert
 1587 007e 0346     		mov	r3, r0
 1588 0080 002B     		cmp	r3, #0
 1589 0082 02D0     		beq	.L99
 1590              		.loc 9 262 0 is_stmt 0 discriminator 1
 1591 0084 FFF7FEFF 		bl	chSysUnlock
 1592 0088 75E0     		b	.L96
 1593              	.L99:
 1594              		.loc 9 262 0 discriminator 2
 1595 008a FFF7FEFF 		bl	chSysUnlock
 1596              		.loc 9 266 0 is_stmt 1 discriminator 2
 1597 008e 03AB     		add	r3, sp, #12
 1598 0090 1846     		mov	r0, r3
 1599 0092 FFF7FEFF 		bl	chBSemSignal
 1600              		.loc 9 267 0 discriminator 2
 1601 0096 FFF7FEFF 		bl	chSysLock
 1602 009a 03AB     		add	r3, sp, #12
 1603 009c 1846     		mov	r0, r3
 1604 009e FFF7FEFF 		bl	chBSemGetStateI
 1605 00a2 0346     		mov	r3, r0
 1606 00a4 002B     		cmp	r3, #0
 1607 00a6 14BF     		ite	ne
 1608 00a8 0123     		movne	r3, #1
 1609 00aa 0023     		moveq	r3, #0
 1610 00ac DBB2     		uxtb	r3, r3
 1611 00ae 83F00103 		eor	r3, r3, #1
 1612 00b2 DBB2     		uxtb	r3, r3
 1613 00b4 03F00103 		and	r3, r3, #1
 1614 00b8 DBB2     		uxtb	r3, r3
 1615 00ba 1946     		mov	r1, r3
 1616 00bc 0320     		movs	r0, #3
 1617 00be FFF7FEFF 		bl	_test_assert
 1618 00c2 0346     		mov	r3, r0
 1619 00c4 002B     		cmp	r3, #0
 1620 00c6 02D0     		beq	.L100
 1621              		.loc 9 267 0 is_stmt 0 discriminator 1
 1622 00c8 FFF7FEFF 		bl	chSysUnlock
 1623 00cc 53E0     		b	.L96
 1624              	.L100:
 1625              		.loc 9 267 0 discriminator 2
 1626 00ce FFF7FEFF 		bl	chSysUnlock
 1627              		.loc 9 268 0 is_stmt 1 discriminator 2
 1628 00d2 FFF7FEFF 		bl	chSysLock
 1629 00d6 03AB     		add	r3, sp, #12
 1630 00d8 1846     		mov	r0, r3
 1631 00da FFF7FEFF 		bl	chSemGetCounterI
 1632 00de 0346     		mov	r3, r0
 1633 00e0 012B     		cmp	r3, #1
 1634 00e2 0CBF     		ite	eq
 1635 00e4 0123     		moveq	r3, #1
 1636 00e6 0023     		movne	r3, #0
 1637 00e8 DBB2     		uxtb	r3, r3
 1638 00ea 1946     		mov	r1, r3
 1639 00ec 0420     		movs	r0, #4
 1640 00ee FFF7FEFF 		bl	_test_assert
ARM GAS  /tmp/ccUSzzA9.s 			page 30


 1641 00f2 0346     		mov	r3, r0
 1642 00f4 002B     		cmp	r3, #0
 1643 00f6 02D0     		beq	.L101
 1644              		.loc 9 268 0 is_stmt 0 discriminator 1
 1645 00f8 FFF7FEFF 		bl	chSysUnlock
 1646 00fc 3BE0     		b	.L96
 1647              	.L101:
 1648              		.loc 9 268 0 discriminator 2
 1649 00fe FFF7FEFF 		bl	chSysUnlock
 1650              		.loc 9 271 0 is_stmt 1 discriminator 2
 1651 0102 03AB     		add	r3, sp, #12
 1652 0104 1846     		mov	r0, r3
 1653 0106 FFF7FEFF 		bl	chBSemSignal
 1654              		.loc 9 272 0 discriminator 2
 1655 010a FFF7FEFF 		bl	chSysLock
 1656 010e 03AB     		add	r3, sp, #12
 1657 0110 1846     		mov	r0, r3
 1658 0112 FFF7FEFF 		bl	chBSemGetStateI
 1659 0116 0346     		mov	r3, r0
 1660 0118 002B     		cmp	r3, #0
 1661 011a 14BF     		ite	ne
 1662 011c 0123     		movne	r3, #1
 1663 011e 0023     		moveq	r3, #0
 1664 0120 DBB2     		uxtb	r3, r3
 1665 0122 83F00103 		eor	r3, r3, #1
 1666 0126 DBB2     		uxtb	r3, r3
 1667 0128 03F00103 		and	r3, r3, #1
 1668 012c DBB2     		uxtb	r3, r3
 1669 012e 1946     		mov	r1, r3
 1670 0130 0320     		movs	r0, #3
 1671 0132 FFF7FEFF 		bl	_test_assert
 1672 0136 0346     		mov	r3, r0
 1673 0138 002B     		cmp	r3, #0
 1674 013a 02D0     		beq	.L102
 1675              		.loc 9 272 0 is_stmt 0 discriminator 1
 1676 013c FFF7FEFF 		bl	chSysUnlock
 1677 0140 19E0     		b	.L96
 1678              	.L102:
 1679              		.loc 9 272 0 discriminator 2
 1680 0142 FFF7FEFF 		bl	chSysUnlock
 1681              		.loc 9 273 0 is_stmt 1 discriminator 2
 1682 0146 FFF7FEFF 		bl	chSysLock
 1683 014a 03AB     		add	r3, sp, #12
 1684 014c 1846     		mov	r0, r3
 1685 014e FFF7FEFF 		bl	chSemGetCounterI
 1686 0152 0346     		mov	r3, r0
 1687 0154 012B     		cmp	r3, #1
 1688 0156 0CBF     		ite	eq
 1689 0158 0123     		moveq	r3, #1
 1690 015a 0023     		movne	r3, #0
 1691 015c DBB2     		uxtb	r3, r3
 1692 015e 1946     		mov	r1, r3
 1693 0160 0520     		movs	r0, #5
 1694 0162 FFF7FEFF 		bl	_test_assert
 1695 0166 0346     		mov	r3, r0
 1696 0168 002B     		cmp	r3, #0
 1697 016a 02D0     		beq	.L103
ARM GAS  /tmp/ccUSzzA9.s 			page 31


 1698              		.loc 9 273 0 is_stmt 0 discriminator 1
 1699 016c FFF7FEFF 		bl	chSysUnlock
 1700 0170 01E0     		b	.L96
 1701              	.L103:
 1702              		.loc 9 273 0 discriminator 2
 1703 0172 FFF7FEFF 		bl	chSysUnlock
 1704              	.L96:
 1705              		.loc 9 274 0 is_stmt 1
 1706 0176 06B0     		add	sp, sp, #24
 1707              		.cfi_def_cfa_offset 8
 1708              		@ sp needed
 1709 0178 10BD     		pop	{r4, pc}
 1710              	.L106:
 1711 017a 00BF     		.align	2
 1712              	.L105:
 1713 017c 00000000 		.word	wa
 1714 0180 00000000 		.word	thread4
 1715 0184 00000000 		.word	threads
 1716              		.cfi_endproc
 1717              	.LFE241:
 1718              		.size	sem4_execute, .-sem4_execute
 1719              		.global	testsem4
 1720              		.section	.rodata
 1721 0067 00       		.align	2
 1722              	.LC9:
 1723 0068 42696E61 		.ascii	"Binary Semaphores, functionality\000"
 1723      72792053 
 1723      656D6170 
 1723      686F7265 
 1723      732C2066 
 1724              		.section	.rodata.testsem4,"a",%progbits
 1725              		.align	2
 1726              		.type	testsem4, %object
 1727              		.size	testsem4, 16
 1728              	testsem4:
 1729 0000 68000000 		.word	.LC9
 1730 0004 00000000 		.word	0
 1731 0008 00000000 		.word	0
 1732 000c 00000000 		.word	sem4_execute
 1733              		.global	patternsem
 1734              		.section	.rodata.patternsem,"a",%progbits
 1735              		.align	2
 1736              		.type	patternsem, %object
 1737              		.size	patternsem, 20
 1738              	patternsem:
 1739 0000 00000000 		.word	testsem1
 1740 0004 00000000 		.word	testsem2
 1741 0008 00000000 		.word	testsem3
 1742 000c 00000000 		.word	testsem4
 1743 0010 00000000 		.word	0
 1744              		.section	.rodata.__func__.7157,"a",%progbits
 1745              		.align	2
 1746              		.type	__func__.7157, %object
 1747              		.size	__func__.7157, 12
 1748              	__func__.7157:
 1749 0000 63685379 		.ascii	"chSysUnlock\000"
 1749      73556E6C 
ARM GAS  /tmp/ccUSzzA9.s 			page 32


 1749      6F636B00 
 1750              		.text
 1751              	.Letext0:
 1752              		.file 10 "/usr/lib/gcc/arm-none-eabi/6.3.1/include/stddef.h"
 1753              		.file 11 "/usr/arm-none-eabi/include/machine/_default_types.h"
 1754              		.file 12 "/usr/arm-none-eabi/include/sys/_stdint.h"
 1755              		.file 13 "../ChibiOS/os/rt/ports/ARMCMx/compilers/GCC/chtypes.h"
 1756              		.file 14 "../ChibiOS/os/rt/include/chsystypes.h"
 1757              		.file 15 "../ChibiOS/os/ext/CMSIS/include/core_cm4.h"
 1758              		.file 16 "../ChibiOS/os/ext/CMSIS/ST/STM32F4xx/system_stm32f4xx.h"
 1759              		.file 17 "../ChibiOS/os/rt/ports/ARMCMx/chcore.h"
 1760              		.file 18 "../ChibiOS/os/rt/include/chtm.h"
 1761              		.file 19 "../ChibiOS/os/rt/include/chstats.h"
 1762              		.file 20 "../ChibiOS/os/rt/include/chmtx.h"
 1763              		.file 21 "../ChibiOS/os/rt/include/chregistry.h"
 1764              		.file 22 "../ChibiOS/test/rt/test.h"
 1765              		.section	.debug_info,"",%progbits
 1766              	.Ldebug_info0:
 1767 0000 EA0E0000 		.4byte	0xeea
 1768 0004 0400     		.2byte	0x4
 1769 0006 00000000 		.4byte	.Ldebug_abbrev0
 1770 000a 04       		.byte	0x4
 1771 000b 01       		.uleb128 0x1
 1772 000c EF010000 		.4byte	.LASF195
 1773 0010 0C       		.byte	0xc
 1774 0011 4E050000 		.4byte	.LASF196
 1775 0015 15090000 		.4byte	.LASF197
 1776 0019 00000000 		.4byte	.Ldebug_ranges0+0
 1777 001d 00000000 		.4byte	0
 1778 0021 00000000 		.4byte	.Ldebug_line0
 1779 0025 02       		.uleb128 0x2
 1780 0026 04       		.byte	0x4
 1781 0027 05       		.byte	0x5
 1782 0028 696E7400 		.ascii	"int\000"
 1783 002c 03       		.uleb128 0x3
 1784 002d 1A000000 		.4byte	.LASF4
 1785 0031 0A       		.byte	0xa
 1786 0032 D8       		.byte	0xd8
 1787 0033 37000000 		.4byte	0x37
 1788 0037 04       		.uleb128 0x4
 1789 0038 04       		.byte	0x4
 1790 0039 07       		.byte	0x7
 1791 003a CA030000 		.4byte	.LASF0
 1792 003e 04       		.uleb128 0x4
 1793 003f 08       		.byte	0x8
 1794 0040 05       		.byte	0x5
 1795 0041 45010000 		.4byte	.LASF1
 1796 0045 04       		.uleb128 0x4
 1797 0046 08       		.byte	0x8
 1798 0047 04       		.byte	0x4
 1799 0048 8B050000 		.4byte	.LASF2
 1800 004c 04       		.uleb128 0x4
 1801 004d 01       		.byte	0x1
 1802 004e 06       		.byte	0x6
 1803 004f 53010000 		.4byte	.LASF3
 1804 0053 03       		.uleb128 0x3
 1805 0054 4B000000 		.4byte	.LASF5
ARM GAS  /tmp/ccUSzzA9.s 			page 33


 1806 0058 0B       		.byte	0xb
 1807 0059 2B       		.byte	0x2b
 1808 005a 5E000000 		.4byte	0x5e
 1809 005e 04       		.uleb128 0x4
 1810 005f 01       		.byte	0x1
 1811 0060 08       		.byte	0x8
 1812 0061 C3060000 		.4byte	.LASF6
 1813 0065 04       		.uleb128 0x4
 1814 0066 02       		.byte	0x2
 1815 0067 05       		.byte	0x5
 1816 0068 DB060000 		.4byte	.LASF7
 1817 006c 03       		.uleb128 0x3
 1818 006d FB070000 		.4byte	.LASF8
 1819 0071 0B       		.byte	0xb
 1820 0072 39       		.byte	0x39
 1821 0073 77000000 		.4byte	0x77
 1822 0077 04       		.uleb128 0x4
 1823 0078 02       		.byte	0x2
 1824 0079 07       		.byte	0x7
 1825 007a 65040000 		.4byte	.LASF9
 1826 007e 03       		.uleb128 0x3
 1827 007f F8040000 		.4byte	.LASF10
 1828 0083 0B       		.byte	0xb
 1829 0084 4D       		.byte	0x4d
 1830 0085 89000000 		.4byte	0x89
 1831 0089 04       		.uleb128 0x4
 1832 008a 04       		.byte	0x4
 1833 008b 05       		.byte	0x5
 1834 008c D1010000 		.4byte	.LASF11
 1835 0090 03       		.uleb128 0x3
 1836 0091 9B030000 		.4byte	.LASF12
 1837 0095 0B       		.byte	0xb
 1838 0096 4F       		.byte	0x4f
 1839 0097 9B000000 		.4byte	0x9b
 1840 009b 04       		.uleb128 0x4
 1841 009c 04       		.byte	0x4
 1842 009d 07       		.byte	0x7
 1843 009e DD070000 		.4byte	.LASF13
 1844 00a2 03       		.uleb128 0x3
 1845 00a3 49060000 		.4byte	.LASF14
 1846 00a7 0B       		.byte	0xb
 1847 00a8 69       		.byte	0x69
 1848 00a9 AD000000 		.4byte	0xad
 1849 00ad 04       		.uleb128 0x4
 1850 00ae 08       		.byte	0x8
 1851 00af 07       		.byte	0x7
 1852 00b0 B3000000 		.4byte	.LASF15
 1853 00b4 03       		.uleb128 0x3
 1854 00b5 DB080000 		.4byte	.LASF16
 1855 00b9 0C       		.byte	0xc
 1856 00ba 18       		.byte	0x18
 1857 00bb 53000000 		.4byte	0x53
 1858 00bf 03       		.uleb128 0x3
 1859 00c0 DF030000 		.4byte	.LASF17
 1860 00c4 0C       		.byte	0xc
 1861 00c5 24       		.byte	0x24
 1862 00c6 6C000000 		.4byte	0x6c
ARM GAS  /tmp/ccUSzzA9.s 			page 34


 1863 00ca 03       		.uleb128 0x3
 1864 00cb BB060000 		.4byte	.LASF18
 1865 00cf 0C       		.byte	0xc
 1866 00d0 2C       		.byte	0x2c
 1867 00d1 7E000000 		.4byte	0x7e
 1868 00d5 05       		.uleb128 0x5
 1869 00d6 CA000000 		.4byte	0xca
 1870 00da 03       		.uleb128 0x3
 1871 00db A8070000 		.4byte	.LASF19
 1872 00df 0C       		.byte	0xc
 1873 00e0 30       		.byte	0x30
 1874 00e1 90000000 		.4byte	0x90
 1875 00e5 03       		.uleb128 0x3
 1876 00e6 35000000 		.4byte	.LASF20
 1877 00ea 0C       		.byte	0xc
 1878 00eb 3C       		.byte	0x3c
 1879 00ec A2000000 		.4byte	0xa2
 1880 00f0 03       		.uleb128 0x3
 1881 00f1 93080000 		.4byte	.LASF21
 1882 00f5 0D       		.byte	0xd
 1883 00f6 39       		.byte	0x39
 1884 00f7 DA000000 		.4byte	0xda
 1885 00fb 03       		.uleb128 0x3
 1886 00fc 14010000 		.4byte	.LASF22
 1887 0100 0D       		.byte	0xd
 1888 0101 3A       		.byte	0x3a
 1889 0102 E5000000 		.4byte	0xe5
 1890 0106 03       		.uleb128 0x3
 1891 0107 13070000 		.4byte	.LASF23
 1892 010b 0D       		.byte	0xd
 1893 010c 3C       		.byte	0x3c
 1894 010d B4000000 		.4byte	0xb4
 1895 0111 03       		.uleb128 0x3
 1896 0112 E6010000 		.4byte	.LASF24
 1897 0116 0D       		.byte	0xd
 1898 0117 3D       		.byte	0x3d
 1899 0118 B4000000 		.4byte	0xb4
 1900 011c 03       		.uleb128 0x3
 1901 011d 72060000 		.4byte	.LASF25
 1902 0121 0D       		.byte	0xd
 1903 0122 3E       		.byte	0x3e
 1904 0123 B4000000 		.4byte	0xb4
 1905 0127 03       		.uleb128 0x3
 1906 0128 A4060000 		.4byte	.LASF26
 1907 012c 0D       		.byte	0xd
 1908 012d 40       		.byte	0x40
 1909 012e DA000000 		.4byte	0xda
 1910 0132 03       		.uleb128 0x3
 1911 0133 96040000 		.4byte	.LASF27
 1912 0137 0D       		.byte	0xd
 1913 0138 41       		.byte	0x41
 1914 0139 CA000000 		.4byte	0xca
 1915 013d 03       		.uleb128 0x3
 1916 013e EC040000 		.4byte	.LASF28
 1917 0142 0D       		.byte	0xd
 1918 0143 43       		.byte	0x43
 1919 0144 DA000000 		.4byte	0xda
ARM GAS  /tmp/ccUSzzA9.s 			page 35


 1920 0148 03       		.uleb128 0x3
 1921 0149 A6030000 		.4byte	.LASF29
 1922 014d 0D       		.byte	0xd
 1923 014e 45       		.byte	0x45
 1924 014f CA000000 		.4byte	0xca
 1925 0153 03       		.uleb128 0x3
 1926 0154 A1040000 		.4byte	.LASF30
 1927 0158 0D       		.byte	0xd
 1928 0159 46       		.byte	0x46
 1929 015a DA000000 		.4byte	0xda
 1930 015e 03       		.uleb128 0x3
 1931 015f 26080000 		.4byte	.LASF31
 1932 0163 0E       		.byte	0xe
 1933 0164 33       		.byte	0x33
 1934 0165 DA000000 		.4byte	0xda
 1935 0169 05       		.uleb128 0x5
 1936 016a 5E010000 		.4byte	0x15e
 1937 016e 03       		.uleb128 0x3
 1938 016f 11080000 		.4byte	.LASF32
 1939 0173 0E       		.byte	0xe
 1940 0174 3F       		.byte	0x3f
 1941 0175 79010000 		.4byte	0x179
 1942 0179 06       		.uleb128 0x6
 1943 017a 87040000 		.4byte	.LASF54
 1944 017e 60       		.byte	0x60
 1945 017f 03       		.byte	0x3
 1946 0180 C2       		.byte	0xc2
 1947 0181 7F020000 		.4byte	0x27f
 1948 0185 07       		.uleb128 0x7
 1949 0186 0C070000 		.4byte	.LASF33
 1950 018a 03       		.byte	0x3
 1951 018b C3       		.byte	0xc3
 1952 018c 8A020000 		.4byte	0x28a
 1953 0190 00       		.byte	0
 1954 0191 07       		.uleb128 0x7
 1955 0192 95060000 		.4byte	.LASF34
 1956 0196 03       		.byte	0x3
 1957 0197 C5       		.byte	0xc5
 1958 0198 8A020000 		.4byte	0x28a
 1959 019c 04       		.byte	0x4
 1960 019d 07       		.uleb128 0x7
 1961 019e 1D010000 		.4byte	.LASF35
 1962 01a2 03       		.byte	0x3
 1963 01a3 C7       		.byte	0xc7
 1964 01a4 27010000 		.4byte	0x127
 1965 01a8 08       		.byte	0x8
 1966 01a9 07       		.uleb128 0x7
 1967 01aa FC050000 		.4byte	.LASF36
 1968 01ae 03       		.byte	0x3
 1969 01af C8       		.byte	0xc8
 1970 01b0 02050000 		.4byte	0x502
 1971 01b4 0C       		.byte	0xc
 1972 01b5 07       		.uleb128 0x7
 1973 01b6 19030000 		.4byte	.LASF37
 1974 01ba 03       		.byte	0x3
 1975 01bb CA       		.byte	0xca
 1976 01bc 8A020000 		.4byte	0x28a
ARM GAS  /tmp/ccUSzzA9.s 			page 36


 1977 01c0 10       		.byte	0x10
 1978 01c1 07       		.uleb128 0x7
 1979 01c2 CB050000 		.4byte	.LASF38
 1980 01c6 03       		.byte	0x3
 1981 01c7 CB       		.byte	0xcb
 1982 01c8 8A020000 		.4byte	0x28a
 1983 01cc 14       		.byte	0x14
 1984 01cd 07       		.uleb128 0x7
 1985 01ce FD080000 		.4byte	.LASF39
 1986 01d2 03       		.byte	0x3
 1987 01d3 D2       		.byte	0xd2
 1988 01d4 E2070000 		.4byte	0x7e2
 1989 01d8 18       		.byte	0x18
 1990 01d9 07       		.uleb128 0x7
 1991 01da BF030000 		.4byte	.LASF40
 1992 01de 03       		.byte	0x3
 1993 01df D8       		.byte	0xd8
 1994 01e0 F9070000 		.4byte	0x7f9
 1995 01e4 1C       		.byte	0x1c
 1996 01e5 07       		.uleb128 0x7
 1997 01e6 E5060000 		.4byte	.LASF41
 1998 01ea 03       		.byte	0x3
 1999 01eb DD       		.byte	0xdd
 2000 01ec 11010000 		.4byte	0x111
 2001 01f0 20       		.byte	0x20
 2002 01f1 07       		.uleb128 0x7
 2003 01f2 2A070000 		.4byte	.LASF42
 2004 01f6 03       		.byte	0x3
 2005 01f7 E1       		.byte	0xe1
 2006 01f8 06010000 		.4byte	0x106
 2007 01fc 21       		.byte	0x21
 2008 01fd 07       		.uleb128 0x7
 2009 01fe B8080000 		.4byte	.LASF43
 2010 0202 03       		.byte	0x3
 2011 0203 E6       		.byte	0xe6
 2012 0204 1C010000 		.4byte	0x11c
 2013 0208 22       		.byte	0x22
 2014 0209 08       		.uleb128 0x8
 2015 020a 705F7500 		.ascii	"p_u\000"
 2016 020e 03       		.byte	0x3
 2017 020f 3101     		.2byte	0x131
 2018 0211 1D070000 		.4byte	0x71d
 2019 0215 24       		.byte	0x24
 2020 0216 09       		.uleb128 0x9
 2021 0217 44050000 		.4byte	.LASF44
 2022 021b 03       		.byte	0x3
 2023 021c 3601     		.2byte	0x136
 2024 021e 90020000 		.4byte	0x290
 2025 0222 28       		.byte	0x28
 2026 0223 09       		.uleb128 0x9
 2027 0224 30040000 		.4byte	.LASF45
 2028 0228 03       		.byte	0x3
 2029 0229 3C01     		.2byte	0x13c
 2030 022b B4020000 		.4byte	0x2b4
 2031 022f 2C       		.byte	0x2c
 2032 0230 09       		.uleb128 0x9
 2033 0231 8D080000 		.4byte	.LASF46
ARM GAS  /tmp/ccUSzzA9.s 			page 37


 2034 0235 03       		.byte	0x3
 2035 0236 4001     		.2byte	0x140
 2036 0238 32010000 		.4byte	0x132
 2037 023c 34       		.byte	0x34
 2038 023d 09       		.uleb128 0x9
 2039 023e 9D070000 		.4byte	.LASF47
 2040 0242 03       		.byte	0x3
 2041 0243 4601     		.2byte	0x146
 2042 0245 3D010000 		.4byte	0x13d
 2043 0249 38       		.byte	0x38
 2044 024a 09       		.uleb128 0x9
 2045 024b D1060000 		.4byte	.LASF48
 2046 024f 03       		.byte	0x3
 2047 0250 4D01     		.2byte	0x14d
 2048 0252 DC070000 		.4byte	0x7dc
 2049 0256 3C       		.byte	0x3c
 2050 0257 09       		.uleb128 0x9
 2051 0258 30080000 		.4byte	.LASF49
 2052 025c 03       		.byte	0x3
 2053 025d 5101     		.2byte	0x151
 2054 025f 27010000 		.4byte	0x127
 2055 0263 40       		.byte	0x40
 2056 0264 09       		.uleb128 0x9
 2057 0265 7C010000 		.4byte	.LASF50
 2058 0269 03       		.byte	0x3
 2059 026a 5801     		.2byte	0x158
 2060 026c 6C030000 		.4byte	0x36c
 2061 0270 44       		.byte	0x44
 2062 0271 09       		.uleb128 0x9
 2063 0272 3B070000 		.4byte	.LASF51
 2064 0276 03       		.byte	0x3
 2065 0277 5E01     		.2byte	0x15e
 2066 0279 CE060000 		.4byte	0x6ce
 2067 027d 48       		.byte	0x48
 2068 027e 00       		.byte	0
 2069 027f 03       		.uleb128 0x3
 2070 0280 E3080000 		.4byte	.LASF52
 2071 0284 0E       		.byte	0xe
 2072 0285 44       		.byte	0x44
 2073 0286 8A020000 		.4byte	0x28a
 2074 028a 0A       		.uleb128 0xa
 2075 028b 04       		.byte	0x4
 2076 028c 6E010000 		.4byte	0x16e
 2077 0290 03       		.uleb128 0x3
 2078 0291 0D050000 		.4byte	.LASF53
 2079 0295 0E       		.byte	0xe
 2080 0296 49       		.byte	0x49
 2081 0297 9B020000 		.4byte	0x29b
 2082 029b 06       		.uleb128 0x6
 2083 029c C5070000 		.4byte	.LASF55
 2084 02a0 04       		.byte	0x4
 2085 02a1 03       		.byte	0x3
 2086 02a2 B0       		.byte	0xb0
 2087 02a3 B4020000 		.4byte	0x2b4
 2088 02a7 07       		.uleb128 0x7
 2089 02a8 0C070000 		.4byte	.LASF33
 2090 02ac 03       		.byte	0x3
ARM GAS  /tmp/ccUSzzA9.s 			page 38


 2091 02ad B1       		.byte	0xb1
 2092 02ae 8A020000 		.4byte	0x28a
 2093 02b2 00       		.byte	0
 2094 02b3 00       		.byte	0
 2095 02b4 03       		.uleb128 0x3
 2096 02b5 59070000 		.4byte	.LASF56
 2097 02b9 0E       		.byte	0xe
 2098 02ba 50       		.byte	0x50
 2099 02bb C4020000 		.4byte	0x2c4
 2100 02bf 0B       		.uleb128 0xb
 2101 02c0 B4020000 		.4byte	0x2b4
 2102 02c4 06       		.uleb128 0x6
 2103 02c5 61000000 		.4byte	.LASF57
 2104 02c9 08       		.byte	0x8
 2105 02ca 03       		.byte	0x3
 2106 02cb B7       		.byte	0xb7
 2107 02cc E9020000 		.4byte	0x2e9
 2108 02d0 07       		.uleb128 0x7
 2109 02d1 0C070000 		.4byte	.LASF33
 2110 02d5 03       		.byte	0x3
 2111 02d6 B8       		.byte	0xb8
 2112 02d7 8A020000 		.4byte	0x28a
 2113 02db 00       		.byte	0
 2114 02dc 07       		.uleb128 0x7
 2115 02dd 95060000 		.4byte	.LASF34
 2116 02e1 03       		.byte	0x3
 2117 02e2 B9       		.byte	0xb9
 2118 02e3 8A020000 		.4byte	0x28a
 2119 02e7 04       		.byte	0x4
 2120 02e8 00       		.byte	0
 2121 02e9 03       		.uleb128 0x3
 2122 02ea 0D000000 		.4byte	.LASF58
 2123 02ee 0E       		.byte	0xe
 2124 02ef 57       		.byte	0x57
 2125 02f0 F4020000 		.4byte	0x2f4
 2126 02f4 0C       		.uleb128 0xc
 2127 02f5 DE040000 		.4byte	.LASF59
 2128 02f9 1C       		.byte	0x1c
 2129 02fa 03       		.byte	0x3
 2130 02fb 9001     		.2byte	0x190
 2131 02fd 50030000 		.4byte	0x350
 2132 0301 09       		.uleb128 0x9
 2133 0302 BD070000 		.4byte	.LASF60
 2134 0306 03       		.byte	0x3
 2135 0307 9101     		.2byte	0x191
 2136 0309 B4020000 		.4byte	0x2b4
 2137 030d 00       		.byte	0
 2138 030e 09       		.uleb128 0x9
 2139 030f 3D050000 		.4byte	.LASF61
 2140 0313 03       		.byte	0x3
 2141 0314 9201     		.2byte	0x192
 2142 0316 27010000 		.4byte	0x127
 2143 031a 08       		.byte	0x8
 2144 031b 09       		.uleb128 0x9
 2145 031c E3050000 		.4byte	.LASF62
 2146 0320 03       		.byte	0x3
 2147 0321 9401     		.2byte	0x194
ARM GAS  /tmp/ccUSzzA9.s 			page 39


 2148 0323 02050000 		.4byte	0x502
 2149 0327 0C       		.byte	0xc
 2150 0328 09       		.uleb128 0x9
 2151 0329 47030000 		.4byte	.LASF63
 2152 032d 03       		.byte	0x3
 2153 032e 9701     		.2byte	0x197
 2154 0330 8A020000 		.4byte	0x28a
 2155 0334 10       		.byte	0x10
 2156 0335 09       		.uleb128 0x9
 2157 0336 36060000 		.4byte	.LASF64
 2158 033a 03       		.byte	0x3
 2159 033b 9801     		.2byte	0x198
 2160 033d 8A020000 		.4byte	0x28a
 2161 0341 14       		.byte	0x14
 2162 0342 09       		.uleb128 0x9
 2163 0343 2C060000 		.4byte	.LASF65
 2164 0347 03       		.byte	0x3
 2165 0348 9B01     		.2byte	0x19b
 2166 034a 8A020000 		.4byte	0x28a
 2167 034e 18       		.byte	0x18
 2168 034f 00       		.byte	0
 2169 0350 03       		.uleb128 0x3
 2170 0351 3B080000 		.4byte	.LASF66
 2171 0355 0E       		.byte	0xe
 2172 0356 5C       		.byte	0x5c
 2173 0357 5B030000 		.4byte	0x35b
 2174 035b 0A       		.uleb128 0xa
 2175 035c 04       		.byte	0x4
 2176 035d 61030000 		.4byte	0x361
 2177 0361 0D       		.uleb128 0xd
 2178 0362 6C030000 		.4byte	0x36c
 2179 0366 0E       		.uleb128 0xe
 2180 0367 6C030000 		.4byte	0x36c
 2181 036b 00       		.byte	0
 2182 036c 0F       		.uleb128 0xf
 2183 036d 04       		.byte	0x4
 2184 036e 0B       		.uleb128 0xb
 2185 036f 6C030000 		.4byte	0x36c
 2186 0373 03       		.uleb128 0x3
 2187 0374 85060000 		.4byte	.LASF67
 2188 0378 0E       		.byte	0xe
 2189 0379 61       		.byte	0x61
 2190 037a 7E030000 		.4byte	0x37e
 2191 037e 0C       		.uleb128 0xc
 2192 037f 69070000 		.4byte	.LASF68
 2193 0383 14       		.byte	0x14
 2194 0384 03       		.byte	0x3
 2195 0385 6B01     		.2byte	0x16b
 2196 0387 CD030000 		.4byte	0x3cd
 2197 038b 09       		.uleb128 0x9
 2198 038c D7030000 		.4byte	.LASF69
 2199 0390 03       		.byte	0x3
 2200 0391 6C01     		.2byte	0x16c
 2201 0393 FF070000 		.4byte	0x7ff
 2202 0397 00       		.byte	0
 2203 0398 09       		.uleb128 0x9
 2204 0399 58030000 		.4byte	.LASF70
ARM GAS  /tmp/ccUSzzA9.s 			page 40


 2205 039d 03       		.byte	0x3
 2206 039e 6D01     		.2byte	0x16d
 2207 03a0 FF070000 		.4byte	0x7ff
 2208 03a4 04       		.byte	0x4
 2209 03a5 09       		.uleb128 0x9
 2210 03a6 60090000 		.4byte	.LASF71
 2211 03aa 03       		.byte	0x3
 2212 03ab 6E01     		.2byte	0x16e
 2213 03ad 5E010000 		.4byte	0x15e
 2214 03b1 08       		.byte	0x8
 2215 03b2 09       		.uleb128 0x9
 2216 03b3 AD090000 		.4byte	.LASF72
 2217 03b7 03       		.byte	0x3
 2218 03b8 6F01     		.2byte	0x16f
 2219 03ba 50030000 		.4byte	0x350
 2220 03be 0C       		.byte	0xc
 2221 03bf 09       		.uleb128 0x9
 2222 03c0 9B080000 		.4byte	.LASF73
 2223 03c4 03       		.byte	0x3
 2224 03c5 7101     		.2byte	0x171
 2225 03c7 6C030000 		.4byte	0x36c
 2226 03cb 10       		.byte	0x10
 2227 03cc 00       		.byte	0
 2228 03cd 03       		.uleb128 0x3
 2229 03ce F1000000 		.4byte	.LASF74
 2230 03d2 0E       		.byte	0xe
 2231 03d3 66       		.byte	0x66
 2232 03d4 D8030000 		.4byte	0x3d8
 2233 03d8 0C       		.uleb128 0xc
 2234 03d9 74050000 		.4byte	.LASF75
 2235 03dd 10       		.byte	0x10
 2236 03de 03       		.byte	0x3
 2237 03df 7B01     		.2byte	0x17b
 2238 03e1 1A040000 		.4byte	0x41a
 2239 03e5 09       		.uleb128 0x9
 2240 03e6 D7030000 		.4byte	.LASF69
 2241 03ea 03       		.byte	0x3
 2242 03eb 7C01     		.2byte	0x17c
 2243 03ed FF070000 		.4byte	0x7ff
 2244 03f1 00       		.byte	0
 2245 03f2 09       		.uleb128 0x9
 2246 03f3 58030000 		.4byte	.LASF70
 2247 03f7 03       		.byte	0x3
 2248 03f8 7E01     		.2byte	0x17e
 2249 03fa FF070000 		.4byte	0x7ff
 2250 03fe 04       		.byte	0x4
 2251 03ff 09       		.uleb128 0x9
 2252 0400 60090000 		.4byte	.LASF71
 2253 0404 03       		.byte	0x3
 2254 0405 8001     		.2byte	0x180
 2255 0407 5E010000 		.4byte	0x15e
 2256 040b 08       		.byte	0x8
 2257 040c 09       		.uleb128 0x9
 2258 040d 3A010000 		.4byte	.LASF76
 2259 0411 03       		.byte	0x3
 2260 0412 8201     		.2byte	0x182
 2261 0414 69010000 		.4byte	0x169
ARM GAS  /tmp/ccUSzzA9.s 			page 41


 2262 0418 0C       		.byte	0xc
 2263 0419 00       		.byte	0
 2264 041a 03       		.uleb128 0x3
 2265 041b 72000000 		.4byte	.LASF77
 2266 041f 0E       		.byte	0xe
 2267 0420 6B       		.byte	0x6b
 2268 0421 25040000 		.4byte	0x425
 2269 0425 0C       		.uleb128 0xc
 2270 0426 37030000 		.4byte	.LASF78
 2271 042a 0C       		.byte	0xc
 2272 042b 03       		.byte	0x3
 2273 042c A201     		.2byte	0x1a2
 2274 042e 5A040000 		.4byte	0x45a
 2275 0432 09       		.uleb128 0x9
 2276 0433 63080000 		.4byte	.LASF79
 2277 0437 03       		.byte	0x3
 2278 0438 AA01     		.2byte	0x1aa
 2279 043a E8070000 		.4byte	0x7e8
 2280 043e 00       		.byte	0
 2281 043f 09       		.uleb128 0x9
 2282 0440 BF080000 		.4byte	.LASF80
 2283 0444 03       		.byte	0x3
 2284 0445 AF01     		.2byte	0x1af
 2285 0447 48010000 		.4byte	0x148
 2286 044b 04       		.byte	0x4
 2287 044c 09       		.uleb128 0x9
 2288 044d 92030000 		.4byte	.LASF81
 2289 0451 03       		.byte	0x3
 2290 0452 B301     		.2byte	0x1b3
 2291 0454 48010000 		.4byte	0x148
 2292 0458 08       		.byte	0x8
 2293 0459 00       		.byte	0
 2294 045a 03       		.uleb128 0x3
 2295 045b A8040000 		.4byte	.LASF82
 2296 045f 0E       		.byte	0xe
 2297 0460 70       		.byte	0x70
 2298 0461 65040000 		.4byte	0x465
 2299 0465 10       		.uleb128 0x10
 2300 0466 C7010000 		.4byte	.LASF83
 2301 046a 5802     		.2byte	0x258
 2302 046c 03       		.byte	0x3
 2303 046d C201     		.2byte	0x1c2
 2304 046f CE040000 		.4byte	0x4ce
 2305 0473 09       		.uleb128 0x9
 2306 0474 C7080000 		.4byte	.LASF84
 2307 0478 03       		.byte	0x3
 2308 0479 C601     		.2byte	0x1c6
 2309 047b E9020000 		.4byte	0x2e9
 2310 047f 00       		.byte	0
 2311 0480 09       		.uleb128 0x9
 2312 0481 94010000 		.4byte	.LASF85
 2313 0485 03       		.byte	0x3
 2314 0486 CA01     		.2byte	0x1ca
 2315 0488 CD030000 		.4byte	0x3cd
 2316 048c 1C       		.byte	0x1c
 2317 048d 08       		.uleb128 0x8
 2318 048e 64626700 		.ascii	"dbg\000"
ARM GAS  /tmp/ccUSzzA9.s 			page 42


 2319 0492 03       		.byte	0x3
 2320 0493 CE01     		.2byte	0x1ce
 2321 0495 1A040000 		.4byte	0x41a
 2322 0499 2C       		.byte	0x2c
 2323 049a 09       		.uleb128 0x9
 2324 049b E1000000 		.4byte	.LASF86
 2325 049f 03       		.byte	0x3
 2326 04a0 D201     		.2byte	0x1d2
 2327 04a2 6E010000 		.4byte	0x16e
 2328 04a6 38       		.byte	0x38
 2329 04a7 08       		.uleb128 0x8
 2330 04a8 746D00   		.ascii	"tm\000"
 2331 04ab 03       		.byte	0x3
 2332 04ac D701     		.2byte	0x1d7
 2333 04ae 80060000 		.4byte	0x680
 2334 04b2 98       		.byte	0x98
 2335 04b3 09       		.uleb128 0x9
 2336 04b4 3E000000 		.4byte	.LASF87
 2337 04b8 03       		.byte	0x3
 2338 04b9 DD01     		.2byte	0x1dd
 2339 04bb 12070000 		.4byte	0x712
 2340 04bf A0       		.byte	0xa0
 2341 04c0 09       		.uleb128 0x9
 2342 04c1 81000000 		.4byte	.LASF88
 2343 04c5 03       		.byte	0x3
 2344 04c6 E301     		.2byte	0x1e3
 2345 04c8 05080000 		.4byte	0x805
 2346 04cc D8       		.byte	0xd8
 2347 04cd 00       		.byte	0
 2348 04ce 04       		.uleb128 0x4
 2349 04cf 04       		.byte	0x4
 2350 04d0 07       		.byte	0x7
 2351 04d1 6B050000 		.4byte	.LASF89
 2352 04d5 11       		.uleb128 0x11
 2353 04d6 07010000 		.4byte	.LASF90
 2354 04da 0F       		.byte	0xf
 2355 04db FA06     		.2byte	0x6fa
 2356 04dd D5000000 		.4byte	0xd5
 2357 04e1 12       		.uleb128 0x12
 2358 04e2 E8030000 		.4byte	.LASF91
 2359 04e6 10       		.byte	0x10
 2360 04e7 4C       		.byte	0x4c
 2361 04e8 DA000000 		.4byte	0xda
 2362 04ec 03       		.uleb128 0x3
 2363 04ed 4F030000 		.4byte	.LASF92
 2364 04f1 11       		.byte	0x11
 2365 04f2 65       		.byte	0x65
 2366 04f3 6C030000 		.4byte	0x36c
 2367 04f7 03       		.uleb128 0x3
 2368 04f8 02050000 		.4byte	.LASF93
 2369 04fc 11       		.byte	0x11
 2370 04fd 6D       		.byte	0x6d
 2371 04fe E5000000 		.4byte	0xe5
 2372 0502 06       		.uleb128 0x6
 2373 0503 85080000 		.4byte	.LASF94
 2374 0507 04       		.byte	0x4
 2375 0508 11       		.byte	0x11
ARM GAS  /tmp/ccUSzzA9.s 			page 43


 2376 0509 89       		.byte	0x89
 2377 050a 1B050000 		.4byte	0x51b
 2378 050e 13       		.uleb128 0x13
 2379 050f 72313300 		.ascii	"r13\000"
 2380 0513 11       		.byte	0x11
 2381 0514 8A       		.byte	0x8a
 2382 0515 65060000 		.4byte	0x665
 2383 0519 00       		.byte	0
 2384 051a 00       		.byte	0
 2385 051b 06       		.uleb128 0x6
 2386 051c 55000000 		.4byte	.LASF95
 2387 0520 64       		.byte	0x64
 2388 0521 01       		.byte	0x1
 2389 0522 FD       		.byte	0xfd
 2390 0523 65060000 		.4byte	0x665
 2391 0527 13       		.uleb128 0x13
 2392 0528 73313600 		.ascii	"s16\000"
 2393 052c 01       		.byte	0x1
 2394 052d FF       		.byte	0xff
 2395 052e EC040000 		.4byte	0x4ec
 2396 0532 00       		.byte	0
 2397 0533 08       		.uleb128 0x8
 2398 0534 73313700 		.ascii	"s17\000"
 2399 0538 01       		.byte	0x1
 2400 0539 0001     		.2byte	0x100
 2401 053b EC040000 		.4byte	0x4ec
 2402 053f 04       		.byte	0x4
 2403 0540 08       		.uleb128 0x8
 2404 0541 73313800 		.ascii	"s18\000"
 2405 0545 01       		.byte	0x1
 2406 0546 0101     		.2byte	0x101
 2407 0548 EC040000 		.4byte	0x4ec
 2408 054c 08       		.byte	0x8
 2409 054d 08       		.uleb128 0x8
 2410 054e 73313900 		.ascii	"s19\000"
 2411 0552 01       		.byte	0x1
 2412 0553 0201     		.2byte	0x102
 2413 0555 EC040000 		.4byte	0x4ec
 2414 0559 0C       		.byte	0xc
 2415 055a 08       		.uleb128 0x8
 2416 055b 73323000 		.ascii	"s20\000"
 2417 055f 01       		.byte	0x1
 2418 0560 0301     		.2byte	0x103
 2419 0562 EC040000 		.4byte	0x4ec
 2420 0566 10       		.byte	0x10
 2421 0567 08       		.uleb128 0x8
 2422 0568 73323100 		.ascii	"s21\000"
 2423 056c 01       		.byte	0x1
 2424 056d 0401     		.2byte	0x104
 2425 056f EC040000 		.4byte	0x4ec
 2426 0573 14       		.byte	0x14
 2427 0574 08       		.uleb128 0x8
 2428 0575 73323200 		.ascii	"s22\000"
 2429 0579 01       		.byte	0x1
 2430 057a 0501     		.2byte	0x105
 2431 057c EC040000 		.4byte	0x4ec
 2432 0580 18       		.byte	0x18
ARM GAS  /tmp/ccUSzzA9.s 			page 44


 2433 0581 08       		.uleb128 0x8
 2434 0582 73323300 		.ascii	"s23\000"
 2435 0586 01       		.byte	0x1
 2436 0587 0601     		.2byte	0x106
 2437 0589 EC040000 		.4byte	0x4ec
 2438 058d 1C       		.byte	0x1c
 2439 058e 08       		.uleb128 0x8
 2440 058f 73323400 		.ascii	"s24\000"
 2441 0593 01       		.byte	0x1
 2442 0594 0701     		.2byte	0x107
 2443 0596 EC040000 		.4byte	0x4ec
 2444 059a 20       		.byte	0x20
 2445 059b 08       		.uleb128 0x8
 2446 059c 73323500 		.ascii	"s25\000"
 2447 05a0 01       		.byte	0x1
 2448 05a1 0801     		.2byte	0x108
 2449 05a3 EC040000 		.4byte	0x4ec
 2450 05a7 24       		.byte	0x24
 2451 05a8 08       		.uleb128 0x8
 2452 05a9 73323600 		.ascii	"s26\000"
 2453 05ad 01       		.byte	0x1
 2454 05ae 0901     		.2byte	0x109
 2455 05b0 EC040000 		.4byte	0x4ec
 2456 05b4 28       		.byte	0x28
 2457 05b5 08       		.uleb128 0x8
 2458 05b6 73323700 		.ascii	"s27\000"
 2459 05ba 01       		.byte	0x1
 2460 05bb 0A01     		.2byte	0x10a
 2461 05bd EC040000 		.4byte	0x4ec
 2462 05c1 2C       		.byte	0x2c
 2463 05c2 08       		.uleb128 0x8
 2464 05c3 73323800 		.ascii	"s28\000"
 2465 05c7 01       		.byte	0x1
 2466 05c8 0B01     		.2byte	0x10b
 2467 05ca EC040000 		.4byte	0x4ec
 2468 05ce 30       		.byte	0x30
 2469 05cf 08       		.uleb128 0x8
 2470 05d0 73323900 		.ascii	"s29\000"
 2471 05d4 01       		.byte	0x1
 2472 05d5 0C01     		.2byte	0x10c
 2473 05d7 EC040000 		.4byte	0x4ec
 2474 05db 34       		.byte	0x34
 2475 05dc 08       		.uleb128 0x8
 2476 05dd 73333000 		.ascii	"s30\000"
 2477 05e1 01       		.byte	0x1
 2478 05e2 0D01     		.2byte	0x10d
 2479 05e4 EC040000 		.4byte	0x4ec
 2480 05e8 38       		.byte	0x38
 2481 05e9 08       		.uleb128 0x8
 2482 05ea 73333100 		.ascii	"s31\000"
 2483 05ee 01       		.byte	0x1
 2484 05ef 0E01     		.2byte	0x10e
 2485 05f1 EC040000 		.4byte	0x4ec
 2486 05f5 3C       		.byte	0x3c
 2487 05f6 08       		.uleb128 0x8
 2488 05f7 723400   		.ascii	"r4\000"
 2489 05fa 01       		.byte	0x1
ARM GAS  /tmp/ccUSzzA9.s 			page 45


 2490 05fb 1001     		.2byte	0x110
 2491 05fd EC040000 		.4byte	0x4ec
 2492 0601 40       		.byte	0x40
 2493 0602 08       		.uleb128 0x8
 2494 0603 723500   		.ascii	"r5\000"
 2495 0606 01       		.byte	0x1
 2496 0607 1101     		.2byte	0x111
 2497 0609 EC040000 		.4byte	0x4ec
 2498 060d 44       		.byte	0x44
 2499 060e 08       		.uleb128 0x8
 2500 060f 723600   		.ascii	"r6\000"
 2501 0612 01       		.byte	0x1
 2502 0613 1201     		.2byte	0x112
 2503 0615 EC040000 		.4byte	0x4ec
 2504 0619 48       		.byte	0x48
 2505 061a 08       		.uleb128 0x8
 2506 061b 723700   		.ascii	"r7\000"
 2507 061e 01       		.byte	0x1
 2508 061f 1301     		.2byte	0x113
 2509 0621 EC040000 		.4byte	0x4ec
 2510 0625 4C       		.byte	0x4c
 2511 0626 08       		.uleb128 0x8
 2512 0627 723800   		.ascii	"r8\000"
 2513 062a 01       		.byte	0x1
 2514 062b 1401     		.2byte	0x114
 2515 062d EC040000 		.4byte	0x4ec
 2516 0631 50       		.byte	0x50
 2517 0632 08       		.uleb128 0x8
 2518 0633 723900   		.ascii	"r9\000"
 2519 0636 01       		.byte	0x1
 2520 0637 1501     		.2byte	0x115
 2521 0639 EC040000 		.4byte	0x4ec
 2522 063d 54       		.byte	0x54
 2523 063e 08       		.uleb128 0x8
 2524 063f 72313000 		.ascii	"r10\000"
 2525 0643 01       		.byte	0x1
 2526 0644 1601     		.2byte	0x116
 2527 0646 EC040000 		.4byte	0x4ec
 2528 064a 58       		.byte	0x58
 2529 064b 08       		.uleb128 0x8
 2530 064c 72313100 		.ascii	"r11\000"
 2531 0650 01       		.byte	0x1
 2532 0651 1701     		.2byte	0x117
 2533 0653 EC040000 		.4byte	0x4ec
 2534 0657 5C       		.byte	0x5c
 2535 0658 08       		.uleb128 0x8
 2536 0659 6C7200   		.ascii	"lr\000"
 2537 065c 01       		.byte	0x1
 2538 065d 1801     		.2byte	0x118
 2539 065f EC040000 		.4byte	0x4ec
 2540 0663 60       		.byte	0x60
 2541 0664 00       		.byte	0
 2542 0665 0A       		.uleb128 0xa
 2543 0666 04       		.byte	0x4
 2544 0667 1B050000 		.4byte	0x51b
 2545 066b 14       		.uleb128 0x14
 2546 066c 04       		.byte	0x4
ARM GAS  /tmp/ccUSzzA9.s 			page 46


 2547 066d 12       		.byte	0x12
 2548 066e 38       		.byte	0x38
 2549 066f 80060000 		.4byte	0x680
 2550 0673 07       		.uleb128 0x7
 2551 0674 7E080000 		.4byte	.LASF96
 2552 0678 12       		.byte	0x12
 2553 0679 3C       		.byte	0x3c
 2554 067a F0000000 		.4byte	0xf0
 2555 067e 00       		.byte	0
 2556 067f 00       		.byte	0
 2557 0680 03       		.uleb128 0x3
 2558 0681 AE050000 		.4byte	.LASF97
 2559 0685 12       		.byte	0x12
 2560 0686 3D       		.byte	0x3d
 2561 0687 6B060000 		.4byte	0x66b
 2562 068b 14       		.uleb128 0x14
 2563 068c 18       		.byte	0x18
 2564 068d 12       		.byte	0x12
 2565 068e 48       		.byte	0x48
 2566 068f CE060000 		.4byte	0x6ce
 2567 0693 07       		.uleb128 0x7
 2568 0694 1A080000 		.4byte	.LASF98
 2569 0698 12       		.byte	0x12
 2570 0699 49       		.byte	0x49
 2571 069a F0000000 		.4byte	0xf0
 2572 069e 00       		.byte	0
 2573 069f 07       		.uleb128 0x7
 2574 06a0 9A000000 		.4byte	.LASF99
 2575 06a4 12       		.byte	0x12
 2576 06a5 4A       		.byte	0x4a
 2577 06a6 F0000000 		.4byte	0xf0
 2578 06aa 04       		.byte	0x4
 2579 06ab 07       		.uleb128 0x7
 2580 06ac 9C040000 		.4byte	.LASF100
 2581 06b0 12       		.byte	0x12
 2582 06b1 4B       		.byte	0x4b
 2583 06b2 F0000000 		.4byte	0xf0
 2584 06b6 08       		.byte	0x8
 2585 06b7 13       		.uleb128 0x13
 2586 06b8 6E00     		.ascii	"n\000"
 2587 06ba 12       		.byte	0x12
 2588 06bb 4C       		.byte	0x4c
 2589 06bc 53010000 		.4byte	0x153
 2590 06c0 0C       		.byte	0xc
 2591 06c1 07       		.uleb128 0x7
 2592 06c2 54060000 		.4byte	.LASF101
 2593 06c6 12       		.byte	0x12
 2594 06c7 4D       		.byte	0x4d
 2595 06c8 FB000000 		.4byte	0xfb
 2596 06cc 10       		.byte	0x10
 2597 06cd 00       		.byte	0
 2598 06ce 03       		.uleb128 0x3
 2599 06cf A0000000 		.4byte	.LASF102
 2600 06d3 12       		.byte	0x12
 2601 06d4 4E       		.byte	0x4e
 2602 06d5 8B060000 		.4byte	0x68b
 2603 06d9 14       		.uleb128 0x14
ARM GAS  /tmp/ccUSzzA9.s 			page 47


 2604 06da 38       		.byte	0x38
 2605 06db 13       		.byte	0x13
 2606 06dc 38       		.byte	0x38
 2607 06dd 12070000 		.4byte	0x712
 2608 06e1 07       		.uleb128 0x7
 2609 06e2 54040000 		.4byte	.LASF103
 2610 06e6 13       		.byte	0x13
 2611 06e7 39       		.byte	0x39
 2612 06e8 53010000 		.4byte	0x153
 2613 06ec 00       		.byte	0
 2614 06ed 07       		.uleb128 0x7
 2615 06ee AC060000 		.4byte	.LASF104
 2616 06f2 13       		.byte	0x13
 2617 06f3 3A       		.byte	0x3a
 2618 06f4 53010000 		.4byte	0x153
 2619 06f8 04       		.byte	0x4
 2620 06f9 07       		.uleb128 0x7
 2621 06fa 8C090000 		.4byte	.LASF105
 2622 06fe 13       		.byte	0x13
 2623 06ff 3B       		.byte	0x3b
 2624 0700 CE060000 		.4byte	0x6ce
 2625 0704 08       		.byte	0x8
 2626 0705 07       		.uleb128 0x7
 2627 0706 D3040000 		.4byte	.LASF106
 2628 070a 13       		.byte	0x13
 2629 070b 3D       		.byte	0x3d
 2630 070c CE060000 		.4byte	0x6ce
 2631 0710 20       		.byte	0x20
 2632 0711 00       		.byte	0
 2633 0712 03       		.uleb128 0x3
 2634 0713 78040000 		.4byte	.LASF107
 2635 0717 13       		.byte	0x13
 2636 0718 3F       		.byte	0x3f
 2637 0719 D9060000 		.4byte	0x6d9
 2638 071d 15       		.uleb128 0x15
 2639 071e 04       		.byte	0x4
 2640 071f 03       		.byte	0x3
 2641 0720 FA       		.byte	0xfa
 2642 0721 7A070000 		.4byte	0x77a
 2643 0725 16       		.uleb128 0x16
 2644 0726 21000000 		.4byte	.LASF108
 2645 072a 03       		.byte	0x3
 2646 072b 0101     		.2byte	0x101
 2647 072d 32010000 		.4byte	0x132
 2648 0731 16       		.uleb128 0x16
 2649 0732 D8000000 		.4byte	.LASF109
 2650 0736 03       		.byte	0x3
 2651 0737 0801     		.2byte	0x108
 2652 0739 32010000 		.4byte	0x132
 2653 073d 16       		.uleb128 0x16
 2654 073e F6080000 		.4byte	.LASF110
 2655 0742 03       		.byte	0x3
 2656 0743 0F01     		.2byte	0x10f
 2657 0745 6C030000 		.4byte	0x36c
 2658 0749 16       		.uleb128 0x16
 2659 074a C1010000 		.4byte	.LASF111
 2660 074e 03       		.byte	0x3
ARM GAS  /tmp/ccUSzzA9.s 			page 48


 2661 074f 1601     		.2byte	0x116
 2662 0751 7A070000 		.4byte	0x77a
 2663 0755 16       		.uleb128 0x16
 2664 0756 05040000 		.4byte	.LASF112
 2665 075a 03       		.byte	0x3
 2666 075b 1E01     		.2byte	0x11e
 2667 075d A5070000 		.4byte	0x7a5
 2668 0761 16       		.uleb128 0x16
 2669 0762 F4070000 		.4byte	.LASF113
 2670 0766 03       		.byte	0x3
 2671 0767 2701     		.2byte	0x127
 2672 0769 DC070000 		.4byte	0x7dc
 2673 076d 16       		.uleb128 0x16
 2674 076e 05070000 		.4byte	.LASF114
 2675 0772 03       		.byte	0x3
 2676 0773 2F01     		.2byte	0x12f
 2677 0775 3D010000 		.4byte	0x13d
 2678 0779 00       		.byte	0
 2679 077a 0A       		.uleb128 0xa
 2680 077b 04       		.byte	0x4
 2681 077c 7F020000 		.4byte	0x27f
 2682 0780 06       		.uleb128 0x6
 2683 0781 90070000 		.4byte	.LASF115
 2684 0785 0C       		.byte	0xc
 2685 0786 07       		.byte	0x7
 2686 0787 34       		.byte	0x34
 2687 0788 A5070000 		.4byte	0x7a5
 2688 078c 07       		.uleb128 0x7
 2689 078d 2F030000 		.4byte	.LASF116
 2690 0791 07       		.byte	0x7
 2691 0792 35       		.byte	0x35
 2692 0793 B4020000 		.4byte	0x2b4
 2693 0797 00       		.byte	0
 2694 0798 07       		.uleb128 0x7
 2695 0799 5A040000 		.4byte	.LASF117
 2696 079d 07       		.byte	0x7
 2697 079e 37       		.byte	0x37
 2698 079f 48010000 		.4byte	0x148
 2699 07a3 08       		.byte	0x8
 2700 07a4 00       		.byte	0
 2701 07a5 0A       		.uleb128 0xa
 2702 07a6 04       		.byte	0x4
 2703 07a7 80070000 		.4byte	0x780
 2704 07ab 06       		.uleb128 0x6
 2705 07ac AF080000 		.4byte	.LASF118
 2706 07b0 10       		.byte	0x10
 2707 07b1 14       		.byte	0x14
 2708 07b2 39       		.byte	0x39
 2709 07b3 DC070000 		.4byte	0x7dc
 2710 07b7 07       		.uleb128 0x7
 2711 07b8 84010000 		.4byte	.LASF119
 2712 07bc 14       		.byte	0x14
 2713 07bd 3A       		.byte	0x3a
 2714 07be B4020000 		.4byte	0x2b4
 2715 07c2 00       		.byte	0
 2716 07c3 07       		.uleb128 0x7
 2717 07c4 97090000 		.4byte	.LASF120
ARM GAS  /tmp/ccUSzzA9.s 			page 49


 2718 07c8 14       		.byte	0x14
 2719 07c9 3C       		.byte	0x3c
 2720 07ca 8A020000 		.4byte	0x28a
 2721 07ce 08       		.byte	0x8
 2722 07cf 07       		.uleb128 0x7
 2723 07d0 1F080000 		.4byte	.LASF121
 2724 07d4 14       		.byte	0x14
 2725 07d5 3E       		.byte	0x3e
 2726 07d6 62090000 		.4byte	0x962
 2727 07da 0C       		.byte	0xc
 2728 07db 00       		.byte	0
 2729 07dc 0A       		.uleb128 0xa
 2730 07dd 04       		.byte	0x4
 2731 07de AB070000 		.4byte	0x7ab
 2732 07e2 0A       		.uleb128 0xa
 2733 07e3 04       		.byte	0x4
 2734 07e4 F4070000 		.4byte	0x7f4
 2735 07e8 05       		.uleb128 0x5
 2736 07e9 E2070000 		.4byte	0x7e2
 2737 07ed 04       		.uleb128 0x4
 2738 07ee 01       		.byte	0x1
 2739 07ef 08       		.byte	0x8
 2740 07f0 EF070000 		.4byte	.LASF122
 2741 07f4 0B       		.uleb128 0xb
 2742 07f5 ED070000 		.4byte	0x7ed
 2743 07f9 0A       		.uleb128 0xa
 2744 07fa 04       		.byte	0x4
 2745 07fb F7040000 		.4byte	0x4f7
 2746 07ff 0A       		.uleb128 0xa
 2747 0800 04       		.byte	0x4
 2748 0801 73030000 		.4byte	0x373
 2749 0805 17       		.uleb128 0x17
 2750 0806 F7040000 		.4byte	0x4f7
 2751 080a 15080000 		.4byte	0x815
 2752 080e 18       		.uleb128 0x18
 2753 080f CE040000 		.4byte	0x4ce
 2754 0813 2F       		.byte	0x2f
 2755 0814 00       		.byte	0
 2756 0815 19       		.uleb128 0x19
 2757 0816 636800   		.ascii	"ch\000"
 2758 0819 03       		.byte	0x3
 2759 081a 0902     		.2byte	0x209
 2760 081c 5A040000 		.4byte	0x45a
 2761 0820 14       		.uleb128 0x14
 2762 0821 16       		.byte	0x16
 2763 0822 15       		.byte	0x15
 2764 0823 34       		.byte	0x34
 2765 0824 01090000 		.4byte	0x901
 2766 0828 07       		.uleb128 0x7
 2767 0829 9F090000 		.4byte	.LASF123
 2768 082d 15       		.byte	0x15
 2769 082e 35       		.byte	0x35
 2770 082f 01090000 		.4byte	0x901
 2771 0833 00       		.byte	0
 2772 0834 07       		.uleb128 0x7
 2773 0835 1C050000 		.4byte	.LASF124
 2774 0839 15       		.byte	0x15
ARM GAS  /tmp/ccUSzzA9.s 			page 50


 2775 083a 36       		.byte	0x36
 2776 083b B4000000 		.4byte	0xb4
 2777 083f 04       		.byte	0x4
 2778 0840 07       		.uleb128 0x7
 2779 0841 D5070000 		.4byte	.LASF125
 2780 0845 15       		.byte	0x15
 2781 0846 37       		.byte	0x37
 2782 0847 B4000000 		.4byte	0xb4
 2783 084b 05       		.byte	0x5
 2784 084c 07       		.uleb128 0x7
 2785 084d 75090000 		.4byte	.LASF126
 2786 0851 15       		.byte	0x15
 2787 0852 38       		.byte	0x38
 2788 0853 BF000000 		.4byte	0xbf
 2789 0857 06       		.byte	0x6
 2790 0858 07       		.uleb128 0x7
 2791 0859 7A060000 		.4byte	.LASF127
 2792 085d 15       		.byte	0x15
 2793 085e 39       		.byte	0x39
 2794 085f B4000000 		.4byte	0xb4
 2795 0863 08       		.byte	0x8
 2796 0864 07       		.uleb128 0x7
 2797 0865 97050000 		.4byte	.LASF128
 2798 0869 15       		.byte	0x15
 2799 086a 3A       		.byte	0x3a
 2800 086b B4000000 		.4byte	0xb4
 2801 086f 09       		.byte	0x9
 2802 0870 07       		.uleb128 0x7
 2803 0871 CA000000 		.4byte	.LASF129
 2804 0875 15       		.byte	0x15
 2805 0876 3B       		.byte	0x3b
 2806 0877 B4000000 		.4byte	0xb4
 2807 087b 0A       		.byte	0xa
 2808 087c 07       		.uleb128 0x7
 2809 087d B1070000 		.4byte	.LASF130
 2810 0881 15       		.byte	0x15
 2811 0882 3C       		.byte	0x3c
 2812 0883 B4000000 		.4byte	0xb4
 2813 0887 0B       		.byte	0xb
 2814 0888 07       		.uleb128 0x7
 2815 0889 B4040000 		.4byte	.LASF131
 2816 088d 15       		.byte	0x15
 2817 088e 3D       		.byte	0x3d
 2818 088f B4000000 		.4byte	0xb4
 2819 0893 0C       		.byte	0xc
 2820 0894 07       		.uleb128 0x7
 2821 0895 7A070000 		.4byte	.LASF132
 2822 0899 15       		.byte	0x15
 2823 089a 3E       		.byte	0x3e
 2824 089b B4000000 		.4byte	0xb4
 2825 089f 0D       		.byte	0xd
 2826 08a0 07       		.uleb128 0x7
 2827 08a1 00000000 		.4byte	.LASF133
 2828 08a5 15       		.byte	0x15
 2829 08a6 3F       		.byte	0x3f
 2830 08a7 B4000000 		.4byte	0xb4
 2831 08ab 0E       		.byte	0xe
ARM GAS  /tmp/ccUSzzA9.s 			page 51


 2832 08ac 07       		.uleb128 0x7
 2833 08ad BF050000 		.4byte	.LASF134
 2834 08b1 15       		.byte	0x15
 2835 08b2 40       		.byte	0x40
 2836 08b3 B4000000 		.4byte	0xb4
 2837 08b7 0F       		.byte	0xf
 2838 08b8 07       		.uleb128 0x7
 2839 08b9 5F010000 		.4byte	.LASF135
 2840 08bd 15       		.byte	0x15
 2841 08be 41       		.byte	0x41
 2842 08bf B4000000 		.4byte	0xb4
 2843 08c3 10       		.byte	0x10
 2844 08c4 07       		.uleb128 0x7
 2845 08c5 24010000 		.4byte	.LASF136
 2846 08c9 15       		.byte	0x15
 2847 08ca 43       		.byte	0x43
 2848 08cb B4000000 		.4byte	0xb4
 2849 08cf 11       		.byte	0x11
 2850 08d0 07       		.uleb128 0x7
 2851 08d1 6F010000 		.4byte	.LASF137
 2852 08d5 15       		.byte	0x15
 2853 08d6 44       		.byte	0x44
 2854 08d7 B4000000 		.4byte	0xb4
 2855 08db 12       		.byte	0x12
 2856 08dc 07       		.uleb128 0x7
 2857 08dd 24050000 		.4byte	.LASF138
 2858 08e1 15       		.byte	0x15
 2859 08e2 45       		.byte	0x45
 2860 08e3 B4000000 		.4byte	0xb4
 2861 08e7 13       		.byte	0x13
 2862 08e8 07       		.uleb128 0x7
 2863 08e9 1B070000 		.4byte	.LASF139
 2864 08ed 15       		.byte	0x15
 2865 08ee 46       		.byte	0x46
 2866 08ef B4000000 		.4byte	0xb4
 2867 08f3 14       		.byte	0x14
 2868 08f4 07       		.uleb128 0x7
 2869 08f5 BF040000 		.4byte	.LASF140
 2870 08f9 15       		.byte	0x15
 2871 08fa 48       		.byte	0x48
 2872 08fb B4000000 		.4byte	0xb4
 2873 08ff 15       		.byte	0x15
 2874 0900 00       		.byte	0
 2875 0901 17       		.uleb128 0x17
 2876 0902 ED070000 		.4byte	0x7ed
 2877 0906 11090000 		.4byte	0x911
 2878 090a 18       		.uleb128 0x18
 2879 090b CE040000 		.4byte	0x4ce
 2880 090f 03       		.byte	0x3
 2881 0910 00       		.byte	0
 2882 0911 03       		.uleb128 0x3
 2883 0912 08030000 		.4byte	.LASF141
 2884 0916 15       		.byte	0x15
 2885 0917 49       		.byte	0x49
 2886 0918 20080000 		.4byte	0x820
 2887 091c 0B       		.uleb128 0xb
 2888 091d 11090000 		.4byte	0x911
ARM GAS  /tmp/ccUSzzA9.s 			page 52


 2889 0921 12       		.uleb128 0x12
 2890 0922 4B040000 		.4byte	.LASF142
 2891 0926 15       		.byte	0x15
 2892 0927 6E       		.byte	0x6e
 2893 0928 1C090000 		.4byte	0x91c
 2894 092c 03       		.uleb128 0x3
 2895 092d 4D070000 		.4byte	.LASF143
 2896 0931 07       		.byte	0x7
 2897 0932 38       		.byte	0x38
 2898 0933 80070000 		.4byte	0x780
 2899 0937 14       		.uleb128 0x14
 2900 0938 0C       		.byte	0xc
 2901 0939 08       		.byte	0x8
 2902 093a 4B       		.byte	0x4b
 2903 093b 4C090000 		.4byte	0x94c
 2904 093f 07       		.uleb128 0x7
 2905 0940 59090000 		.4byte	.LASF144
 2906 0944 08       		.byte	0x8
 2907 0945 4C       		.byte	0x4c
 2908 0946 2C090000 		.4byte	0x92c
 2909 094a 00       		.byte	0
 2910 094b 00       		.byte	0
 2911 094c 03       		.uleb128 0x3
 2912 094d 5F060000 		.4byte	.LASF145
 2913 0951 08       		.byte	0x8
 2914 0952 4D       		.byte	0x4d
 2915 0953 37090000 		.4byte	0x937
 2916 0957 03       		.uleb128 0x3
 2917 0958 84030000 		.4byte	.LASF146
 2918 095c 14       		.byte	0x14
 2919 095d 34       		.byte	0x34
 2920 095e AB070000 		.4byte	0x7ab
 2921 0962 0A       		.uleb128 0xa
 2922 0963 04       		.byte	0x4
 2923 0964 57090000 		.4byte	0x957
 2924 0968 04       		.uleb128 0x4
 2925 0969 01       		.byte	0x1
 2926 096a 02       		.byte	0x2
 2927 096b B5060000 		.4byte	.LASF147
 2928 096f 06       		.uleb128 0x6
 2929 0970 87070000 		.4byte	.LASF148
 2930 0974 10       		.byte	0x10
 2931 0975 16       		.byte	0x16
 2932 0976 3B       		.byte	0x3b
 2933 0977 AC090000 		.4byte	0x9ac
 2934 097b 07       		.uleb128 0x7
 2935 097c 60040000 		.4byte	.LASF149
 2936 0980 16       		.byte	0x16
 2937 0981 3C       		.byte	0x3c
 2938 0982 E2070000 		.4byte	0x7e2
 2939 0986 00       		.byte	0
 2940 0987 07       		.uleb128 0x7
 2941 0988 14060000 		.4byte	.LASF150
 2942 098c 16       		.byte	0x16
 2943 098d 3D       		.byte	0x3d
 2944 098e B2090000 		.4byte	0x9b2
 2945 0992 04       		.byte	0x4
ARM GAS  /tmp/ccUSzzA9.s 			page 53


 2946 0993 07       		.uleb128 0x7
 2947 0994 31010000 		.4byte	.LASF151
 2948 0998 16       		.byte	0x16
 2949 0999 3E       		.byte	0x3e
 2950 099a B2090000 		.4byte	0x9b2
 2951 099e 08       		.byte	0x8
 2952 099f 07       		.uleb128 0x7
 2953 09a0 9C060000 		.4byte	.LASF152
 2954 09a4 16       		.byte	0x16
 2955 09a5 3F       		.byte	0x3f
 2956 09a6 B2090000 		.4byte	0x9b2
 2957 09aa 0C       		.byte	0xc
 2958 09ab 00       		.byte	0
 2959 09ac 0B       		.uleb128 0xb
 2960 09ad 6F090000 		.4byte	0x96f
 2961 09b1 1A       		.uleb128 0x1a
 2962 09b2 0A       		.uleb128 0xa
 2963 09b3 04       		.byte	0x4
 2964 09b4 B1090000 		.4byte	0x9b1
 2965 09b8 1B       		.uleb128 0x1b
 2966 09b9 B009     		.2byte	0x9b0
 2967 09bb 16       		.byte	0x16
 2968 09bc 44       		.byte	0x44
 2969 09bd FD090000 		.4byte	0x9fd
 2970 09c1 13       		.uleb128 0x13
 2971 09c2 543000   		.ascii	"T0\000"
 2972 09c5 16       		.byte	0x16
 2973 09c6 45       		.byte	0x45
 2974 09c7 FD090000 		.4byte	0x9fd
 2975 09cb 00       		.byte	0
 2976 09cc 1C       		.uleb128 0x1c
 2977 09cd 543100   		.ascii	"T1\000"
 2978 09d0 16       		.byte	0x16
 2979 09d1 46       		.byte	0x46
 2980 09d2 FD090000 		.4byte	0x9fd
 2981 09d6 F001     		.2byte	0x1f0
 2982 09d8 1C       		.uleb128 0x1c
 2983 09d9 543200   		.ascii	"T2\000"
 2984 09dc 16       		.byte	0x16
 2985 09dd 47       		.byte	0x47
 2986 09de FD090000 		.4byte	0x9fd
 2987 09e2 E003     		.2byte	0x3e0
 2988 09e4 1C       		.uleb128 0x1c
 2989 09e5 543300   		.ascii	"T3\000"
 2990 09e8 16       		.byte	0x16
 2991 09e9 48       		.byte	0x48
 2992 09ea FD090000 		.4byte	0x9fd
 2993 09ee D005     		.2byte	0x5d0
 2994 09f0 1C       		.uleb128 0x1c
 2995 09f1 543400   		.ascii	"T4\000"
 2996 09f4 16       		.byte	0x16
 2997 09f5 49       		.byte	0x49
 2998 09f6 FD090000 		.4byte	0x9fd
 2999 09fa C007     		.2byte	0x7c0
 3000 09fc 00       		.byte	0
 3001 09fd 17       		.uleb128 0x17
 3002 09fe F7040000 		.4byte	0x4f7
ARM GAS  /tmp/ccUSzzA9.s 			page 54


 3003 0a02 0D0A0000 		.4byte	0xa0d
 3004 0a06 18       		.uleb128 0x18
 3005 0a07 CE040000 		.4byte	0x4ce
 3006 0a0b 3D       		.byte	0x3d
 3007 0a0c 00       		.byte	0
 3008 0a0d 1D       		.uleb128 0x1d
 3009 0a0e A2080000 		.4byte	.LASF198
 3010 0a12 B009     		.2byte	0x9b0
 3011 0a14 16       		.byte	0x16
 3012 0a15 43       		.byte	0x43
 3013 0a16 300A0000 		.4byte	0xa30
 3014 0a1a 1E       		.uleb128 0x1e
 3015 0a1b 776100   		.ascii	"wa\000"
 3016 0a1e 16       		.byte	0x16
 3017 0a1f 4A       		.byte	0x4a
 3018 0a20 B8090000 		.4byte	0x9b8
 3019 0a24 1F       		.uleb128 0x1f
 3020 0a25 12030000 		.4byte	.LASF153
 3021 0a29 16       		.byte	0x16
 3022 0a2a 4B       		.byte	0x4b
 3023 0a2b 300A0000 		.4byte	0xa30
 3024 0a2f 00       		.byte	0
 3025 0a30 17       		.uleb128 0x17
 3026 0a31 B4000000 		.4byte	0xb4
 3027 0a35 410A0000 		.4byte	0xa41
 3028 0a39 20       		.uleb128 0x20
 3029 0a3a CE040000 		.4byte	0x4ce
 3030 0a3e AF09     		.2byte	0x9af
 3031 0a40 00       		.byte	0
 3032 0a41 12       		.uleb128 0x12
 3033 0a42 6D080000 		.4byte	.LASF154
 3034 0a46 16       		.byte	0x16
 3035 0a47 4F       		.byte	0x4f
 3036 0a48 68090000 		.4byte	0x968
 3037 0a4c 17       		.uleb128 0x17
 3038 0a4d 8A020000 		.4byte	0x28a
 3039 0a51 5C0A0000 		.4byte	0xa5c
 3040 0a55 18       		.uleb128 0x18
 3041 0a56 CE040000 		.4byte	0x4ce
 3042 0a5a 04       		.byte	0x4
 3043 0a5b 00       		.byte	0
 3044 0a5c 12       		.uleb128 0x12
 3045 0a5d ED060000 		.4byte	.LASF155
 3046 0a61 16       		.byte	0x16
 3047 0a62 A7       		.byte	0xa7
 3048 0a63 4C0A0000 		.4byte	0xa4c
 3049 0a67 12       		.uleb128 0x12
 3050 0a68 EC000000 		.4byte	.LASF156
 3051 0a6c 16       		.byte	0x16
 3052 0a6d A8       		.byte	0xa8
 3053 0a6e 0D0A0000 		.4byte	0xa0d
 3054 0a72 17       		.uleb128 0x17
 3055 0a73 6E030000 		.4byte	0x36e
 3056 0a77 7D0A0000 		.4byte	0xa7d
 3057 0a7b 21       		.uleb128 0x21
 3058 0a7c 00       		.byte	0
 3059 0a7d 0B       		.uleb128 0xb
ARM GAS  /tmp/ccUSzzA9.s 			page 55


 3060 0a7e 720A0000 		.4byte	0xa72
 3061 0a82 22       		.uleb128 0x22
 3062 0a83 776100   		.ascii	"wa\000"
 3063 0a86 16       		.byte	0x16
 3064 0a87 A9       		.byte	0xa9
 3065 0a88 7D0A0000 		.4byte	0xa7d
 3066 0a8c 12       		.uleb128 0x12
 3067 0a8d F5060000 		.4byte	.LASF157
 3068 0a91 16       		.byte	0x16
 3069 0a92 AA       		.byte	0xaa
 3070 0a93 68090000 		.4byte	0x968
 3071 0a97 23       		.uleb128 0x23
 3072 0a98 6B030000 		.4byte	.LASF163
 3073 0a9c 09       		.byte	0x9
 3074 0a9d 3B       		.byte	0x3b
 3075 0a9e 2C090000 		.4byte	0x92c
 3076 0aa2 05       		.uleb128 0x5
 3077 0aa3 03       		.byte	0x3
 3078 0aa4 00000000 		.4byte	sem1
 3079 0aa8 24       		.uleb128 0x24
 3080 0aa9 0C040000 		.4byte	.LASF158
 3081 0aad 09       		.byte	0x9
 3082 0aae 6E       		.byte	0x6e
 3083 0aaf AC090000 		.4byte	0x9ac
 3084 0ab3 05       		.uleb128 0x5
 3085 0ab4 03       		.byte	0x3
 3086 0ab5 00000000 		.4byte	testsem1
 3087 0ab9 24       		.uleb128 0x24
 3088 0aba 15040000 		.4byte	.LASF159
 3089 0abe 09       		.byte	0x9
 3090 0abf B7       		.byte	0xb7
 3091 0ac0 AC090000 		.4byte	0x9ac
 3092 0ac4 05       		.uleb128 0x5
 3093 0ac5 03       		.byte	0x3
 3094 0ac6 00000000 		.4byte	testsem2
 3095 0aca 24       		.uleb128 0x24
 3096 0acb 1E040000 		.4byte	.LASF160
 3097 0acf 09       		.byte	0x9
 3098 0ad0 E2       		.byte	0xe2
 3099 0ad1 AC090000 		.4byte	0x9ac
 3100 0ad5 05       		.uleb128 0x5
 3101 0ad6 03       		.byte	0x3
 3102 0ad7 00000000 		.4byte	testsem3
 3103 0adb 25       		.uleb128 0x25
 3104 0adc 27040000 		.4byte	.LASF161
 3105 0ae0 09       		.byte	0x9
 3106 0ae1 1401     		.2byte	0x114
 3107 0ae3 AC090000 		.4byte	0x9ac
 3108 0ae7 05       		.uleb128 0x5
 3109 0ae8 03       		.byte	0x3
 3110 0ae9 00000000 		.4byte	testsem4
 3111 0aed 17       		.uleb128 0x17
 3112 0aee 080B0000 		.4byte	0xb08
 3113 0af2 FD0A0000 		.4byte	0xafd
 3114 0af6 18       		.uleb128 0x18
 3115 0af7 CE040000 		.4byte	0x4ce
 3116 0afb 04       		.byte	0x4
ARM GAS  /tmp/ccUSzzA9.s 			page 56


 3117 0afc 00       		.byte	0
 3118 0afd 0B       		.uleb128 0xb
 3119 0afe ED0A0000 		.4byte	0xaed
 3120 0b02 0A       		.uleb128 0xa
 3121 0b03 04       		.byte	0x4
 3122 0b04 AC090000 		.4byte	0x9ac
 3123 0b08 0B       		.uleb128 0xb
 3124 0b09 020B0000 		.4byte	0xb02
 3125 0b0d 25       		.uleb128 0x25
 3126 0b0e 3E060000 		.4byte	.LASF162
 3127 0b12 09       		.byte	0x9
 3128 0b13 1F01     		.2byte	0x11f
 3129 0b15 FD0A0000 		.4byte	0xafd
 3130 0b19 05       		.uleb128 0x5
 3131 0b1a 03       		.byte	0x3
 3132 0b1b 00000000 		.4byte	patternsem
 3133 0b1f 26       		.uleb128 0x26
 3134 0b20 30050000 		.4byte	.LASF165
 3135 0b24 09       		.byte	0x9
 3136 0b25 F6       		.byte	0xf6
 3137 0b26 00000000 		.4byte	.LFB241
 3138 0b2a 88010000 		.4byte	.LFE241-.LFB241
 3139 0b2e 01       		.uleb128 0x1
 3140 0b2f 9C       		.byte	0x9c
 3141 0b30 430B0000 		.4byte	0xb43
 3142 0b34 23       		.uleb128 0x23
 3143 0b35 91040000 		.4byte	.LASF164
 3144 0b39 09       		.byte	0x9
 3145 0b3a F7       		.byte	0xf7
 3146 0b3b 4C090000 		.4byte	0x94c
 3147 0b3f 02       		.uleb128 0x2
 3148 0b40 91       		.byte	0x91
 3149 0b41 6C       		.sleb128 -20
 3150 0b42 00       		.byte	0
 3151 0b43 26       		.uleb128 0x26
 3152 0b44 E9050000 		.4byte	.LASF166
 3153 0b48 09       		.byte	0x9
 3154 0b49 F1       		.byte	0xf1
 3155 0b4a 00000000 		.4byte	.LFB240
 3156 0b4e 14000000 		.4byte	.LFE240-.LFB240
 3157 0b52 01       		.uleb128 0x1
 3158 0b53 9C       		.byte	0x9c
 3159 0b54 650B0000 		.4byte	0xb65
 3160 0b58 27       		.uleb128 0x27
 3161 0b59 7000     		.ascii	"p\000"
 3162 0b5b 09       		.byte	0x9
 3163 0b5c F1       		.byte	0xf1
 3164 0b5d 6C030000 		.4byte	0x36c
 3165 0b61 02       		.uleb128 0x2
 3166 0b62 91       		.byte	0x91
 3167 0b63 74       		.sleb128 -12
 3168 0b64 00       		.byte	0
 3169 0b65 28       		.uleb128 0x28
 3170 0b66 F8030000 		.4byte	.LASF168
 3171 0b6a 09       		.byte	0x9
 3172 0b6b D6       		.byte	0xd6
 3173 0b6c 00000000 		.4byte	.LFB239
ARM GAS  /tmp/ccUSzzA9.s 			page 57


 3174 0b70 B8000000 		.4byte	.LFE239-.LFB239
 3175 0b74 01       		.uleb128 0x1
 3176 0b75 9C       		.byte	0x9c
 3177 0b76 26       		.uleb128 0x26
 3178 0b77 8C010000 		.4byte	.LASF167
 3179 0b7b 09       		.byte	0x9
 3180 0b7c CF       		.byte	0xcf
 3181 0b7d 00000000 		.4byte	.LFB238
 3182 0b81 20000000 		.4byte	.LFE238-.LFB238
 3183 0b85 01       		.uleb128 0x1
 3184 0b86 9C       		.byte	0x9c
 3185 0b87 980B0000 		.4byte	0xb98
 3186 0b8b 27       		.uleb128 0x27
 3187 0b8c 7000     		.ascii	"p\000"
 3188 0b8e 09       		.byte	0x9
 3189 0b8f CF       		.byte	0xcf
 3190 0b90 6C030000 		.4byte	0x36c
 3191 0b94 02       		.uleb128 0x2
 3192 0b95 91       		.byte	0x91
 3193 0b96 74       		.sleb128 -12
 3194 0b97 00       		.byte	0
 3195 0b98 28       		.uleb128 0x28
 3196 0b99 F1050000 		.4byte	.LASF169
 3197 0b9d 09       		.byte	0x9
 3198 0b9e CA       		.byte	0xca
 3199 0b9f 00000000 		.4byte	.LFB237
 3200 0ba3 14000000 		.4byte	.LFE237-.LFB237
 3201 0ba7 01       		.uleb128 0x1
 3202 0ba8 9C       		.byte	0x9c
 3203 0ba9 26       		.uleb128 0x26
 3204 0baa B4010000 		.4byte	.LASF170
 3205 0bae 09       		.byte	0x9
 3206 0baf 8F       		.byte	0x8f
 3207 0bb0 00000000 		.4byte	.LFB236
 3208 0bb4 CC010000 		.4byte	.LFE236-.LFB236
 3209 0bb8 01       		.uleb128 0x1
 3210 0bb9 9C       		.byte	0x9c
 3211 0bba E70B0000 		.4byte	0xbe7
 3212 0bbe 29       		.uleb128 0x29
 3213 0bbf 6900     		.ascii	"i\000"
 3214 0bc1 09       		.byte	0x9
 3215 0bc2 90       		.byte	0x90
 3216 0bc3 25000000 		.4byte	0x25
 3217 0bc7 02       		.uleb128 0x2
 3218 0bc8 91       		.byte	0x91
 3219 0bc9 74       		.sleb128 -12
 3220 0bca 23       		.uleb128 0x23
 3221 0bcb DA010000 		.4byte	.LASF171
 3222 0bcf 09       		.byte	0x9
 3223 0bd0 91       		.byte	0x91
 3224 0bd1 5E010000 		.4byte	0x15e
 3225 0bd5 02       		.uleb128 0x2
 3226 0bd6 91       		.byte	0x91
 3227 0bd7 6C       		.sleb128 -20
 3228 0bd8 29       		.uleb128 0x29
 3229 0bd9 6D736700 		.ascii	"msg\000"
 3230 0bdd 09       		.byte	0x9
ARM GAS  /tmp/ccUSzzA9.s 			page 58


 3231 0bde 92       		.byte	0x92
 3232 0bdf 32010000 		.4byte	0x132
 3233 0be3 02       		.uleb128 0x2
 3234 0be4 91       		.byte	0x91
 3235 0be5 70       		.sleb128 -16
 3236 0be6 00       		.byte	0
 3237 0be7 26       		.uleb128 0x26
 3238 0be8 DB050000 		.4byte	.LASF172
 3239 0bec 09       		.byte	0x9
 3240 0bed 85       		.byte	0x85
 3241 0bee 00000000 		.4byte	.LFB235
 3242 0bf2 2C000000 		.4byte	.LFE235-.LFB235
 3243 0bf6 01       		.uleb128 0x1
 3244 0bf7 9C       		.byte	0x9c
 3245 0bf8 090C0000 		.4byte	0xc09
 3246 0bfc 27       		.uleb128 0x27
 3247 0bfd 7000     		.ascii	"p\000"
 3248 0bff 09       		.byte	0x9
 3249 0c00 85       		.byte	0x85
 3250 0c01 6C030000 		.4byte	0x36c
 3251 0c05 02       		.uleb128 0x2
 3252 0c06 91       		.byte	0x91
 3253 0c07 74       		.sleb128 -12
 3254 0c08 00       		.byte	0
 3255 0c09 28       		.uleb128 0x28
 3256 0c0a 60030000 		.4byte	.LASF173
 3257 0c0e 09       		.byte	0x9
 3258 0c0f 80       		.byte	0x80
 3259 0c10 00000000 		.4byte	.LFB234
 3260 0c14 14000000 		.4byte	.LFE234-.LFB234
 3261 0c18 01       		.uleb128 0x1
 3262 0c19 9C       		.byte	0x9c
 3263 0c1a 28       		.uleb128 0x28
 3264 0c1b 28000000 		.4byte	.LASF174
 3265 0c1f 09       		.byte	0x9
 3266 0c20 53       		.byte	0x53
 3267 0c21 00000000 		.4byte	.LFB233
 3268 0c25 78010000 		.4byte	.LFE233-.LFB233
 3269 0c29 01       		.uleb128 0x1
 3270 0c2a 9C       		.byte	0x9c
 3271 0c2b 26       		.uleb128 0x26
 3272 0c2c D3050000 		.4byte	.LASF175
 3273 0c30 09       		.byte	0x9
 3274 0c31 4D       		.byte	0x4d
 3275 0c32 00000000 		.4byte	.LFB232
 3276 0c36 24000000 		.4byte	.LFE232-.LFB232
 3277 0c3a 01       		.uleb128 0x1
 3278 0c3b 9C       		.byte	0x9c
 3279 0c3c 4D0C0000 		.4byte	0xc4d
 3280 0c40 27       		.uleb128 0x27
 3281 0c41 7000     		.ascii	"p\000"
 3282 0c43 09       		.byte	0x9
 3283 0c44 4D       		.byte	0x4d
 3284 0c45 6C030000 		.4byte	0x36c
 3285 0c49 02       		.uleb128 0x2
 3286 0c4a 91       		.byte	0x91
 3287 0c4b 74       		.sleb128 -12
ARM GAS  /tmp/ccUSzzA9.s 			page 59


 3288 0c4c 00       		.byte	0
 3289 0c4d 28       		.uleb128 0x28
 3290 0c4e A3050000 		.4byte	.LASF176
 3291 0c52 09       		.byte	0x9
 3292 0c53 48       		.byte	0x48
 3293 0c54 00000000 		.4byte	.LFB231
 3294 0c58 14000000 		.4byte	.LFE231-.LFB231
 3295 0c5c 01       		.uleb128 0x1
 3296 0c5d 9C       		.byte	0x9c
 3297 0c5e 2A       		.uleb128 0x2a
 3298 0c5f 3B040000 		.4byte	.LASF181
 3299 0c63 08       		.byte	0x8
 3300 0c64 2C01     		.2byte	0x12c
 3301 0c66 68090000 		.4byte	0x968
 3302 0c6a 00000000 		.4byte	.LFB202
 3303 0c6e 20000000 		.4byte	.LFE202-.LFB202
 3304 0c72 01       		.uleb128 0x1
 3305 0c73 9C       		.byte	0x9c
 3306 0c74 880C0000 		.4byte	0xc88
 3307 0c78 2B       		.uleb128 0x2b
 3308 0c79 62737000 		.ascii	"bsp\000"
 3309 0c7d 08       		.byte	0x8
 3310 0c7e 2C01     		.2byte	0x12c
 3311 0c80 880C0000 		.4byte	0xc88
 3312 0c84 02       		.uleb128 0x2
 3313 0c85 91       		.byte	0x91
 3314 0c86 74       		.sleb128 -12
 3315 0c87 00       		.byte	0
 3316 0c88 0A       		.uleb128 0xa
 3317 0c89 04       		.byte	0x4
 3318 0c8a 4C090000 		.4byte	0x94c
 3319 0c8e 2C       		.uleb128 0x2c
 3320 0c8f A7010000 		.4byte	.LASF177
 3321 0c93 08       		.byte	0x8
 3322 0c94 1A01     		.2byte	0x11a
 3323 0c96 00000000 		.4byte	.LFB201
 3324 0c9a 20000000 		.4byte	.LFE201-.LFB201
 3325 0c9e 01       		.uleb128 0x1
 3326 0c9f 9C       		.byte	0x9c
 3327 0ca0 B40C0000 		.4byte	0xcb4
 3328 0ca4 2B       		.uleb128 0x2b
 3329 0ca5 62737000 		.ascii	"bsp\000"
 3330 0ca9 08       		.byte	0x8
 3331 0caa 1A01     		.2byte	0x11a
 3332 0cac 880C0000 		.4byte	0xc88
 3333 0cb0 02       		.uleb128 0x2
 3334 0cb1 91       		.byte	0x91
 3335 0cb2 74       		.sleb128 -12
 3336 0cb3 00       		.byte	0
 3337 0cb4 2C       		.uleb128 0x2c
 3338 0cb5 76030000 		.4byte	.LASF178
 3339 0cb9 08       		.byte	0x8
 3340 0cba 0A01     		.2byte	0x10a
 3341 0cbc 00000000 		.4byte	.LFB200
 3342 0cc0 22000000 		.4byte	.LFE200-.LFB200
 3343 0cc4 01       		.uleb128 0x1
 3344 0cc5 9C       		.byte	0x9c
ARM GAS  /tmp/ccUSzzA9.s 			page 60


 3345 0cc6 DA0C0000 		.4byte	0xcda
 3346 0cca 2B       		.uleb128 0x2b
 3347 0ccb 62737000 		.ascii	"bsp\000"
 3348 0ccf 08       		.byte	0x8
 3349 0cd0 0A01     		.2byte	0x10a
 3350 0cd2 880C0000 		.4byte	0xc88
 3351 0cd6 02       		.uleb128 0x2
 3352 0cd7 91       		.byte	0x91
 3353 0cd8 74       		.sleb128 -12
 3354 0cd9 00       		.byte	0
 3355 0cda 26       		.uleb128 0x26
 3356 0cdb 80090000 		.4byte	.LASF179
 3357 0cdf 08       		.byte	0x8
 3358 0ce0 FD       		.byte	0xfd
 3359 0ce1 00000000 		.4byte	.LFB199
 3360 0ce5 28000000 		.4byte	.LFE199-.LFB199
 3361 0ce9 01       		.uleb128 0x1
 3362 0cea 9C       		.byte	0x9c
 3363 0ceb 0C0D0000 		.4byte	0xd0c
 3364 0cef 27       		.uleb128 0x27
 3365 0cf0 62737000 		.ascii	"bsp\000"
 3366 0cf4 08       		.byte	0x8
 3367 0cf5 FD       		.byte	0xfd
 3368 0cf6 880C0000 		.4byte	0xc88
 3369 0cfa 02       		.uleb128 0x2
 3370 0cfb 91       		.byte	0x91
 3371 0cfc 74       		.sleb128 -12
 3372 0cfd 2D       		.uleb128 0x2d
 3373 0cfe 70030000 		.4byte	.LASF180
 3374 0d02 08       		.byte	0x8
 3375 0d03 FD       		.byte	0xfd
 3376 0d04 68090000 		.4byte	0x968
 3377 0d08 02       		.uleb128 0x2
 3378 0d09 91       		.byte	0x91
 3379 0d0a 73       		.sleb128 -13
 3380 0d0b 00       		.byte	0
 3381 0d0c 2E       		.uleb128 0x2e
 3382 0d0d 06080000 		.4byte	.LASF182
 3383 0d11 08       		.byte	0x8
 3384 0d12 8D       		.byte	0x8d
 3385 0d13 32010000 		.4byte	0x132
 3386 0d17 00000000 		.4byte	.LFB194
 3387 0d1b 18000000 		.4byte	.LFE194-.LFB194
 3388 0d1f 01       		.uleb128 0x1
 3389 0d20 9C       		.byte	0x9c
 3390 0d21 340D0000 		.4byte	0xd34
 3391 0d25 27       		.uleb128 0x27
 3392 0d26 62737000 		.ascii	"bsp\000"
 3393 0d2a 08       		.byte	0x8
 3394 0d2b 8D       		.byte	0x8d
 3395 0d2c 880C0000 		.4byte	0xc88
 3396 0d30 02       		.uleb128 0x2
 3397 0d31 91       		.byte	0x91
 3398 0d32 74       		.sleb128 -12
 3399 0d33 00       		.byte	0
 3400 0d34 26       		.uleb128 0x26
 3401 0d35 04090000 		.4byte	.LASF183
ARM GAS  /tmp/ccUSzzA9.s 			page 61


 3402 0d39 08       		.byte	0x8
 3403 0d3a 7C       		.byte	0x7c
 3404 0d3b 00000000 		.4byte	.LFB193
 3405 0d3f 28000000 		.4byte	.LFE193-.LFB193
 3406 0d43 01       		.uleb128 0x1
 3407 0d44 9C       		.byte	0x9c
 3408 0d45 660D0000 		.4byte	0xd66
 3409 0d49 27       		.uleb128 0x27
 3410 0d4a 62737000 		.ascii	"bsp\000"
 3411 0d4e 08       		.byte	0x8
 3412 0d4f 7C       		.byte	0x7c
 3413 0d50 880C0000 		.4byte	0xc88
 3414 0d54 02       		.uleb128 0x2
 3415 0d55 91       		.byte	0x91
 3416 0d56 74       		.sleb128 -12
 3417 0d57 2D       		.uleb128 0x2d
 3418 0d58 70030000 		.4byte	.LASF180
 3419 0d5c 08       		.byte	0x8
 3420 0d5d 7C       		.byte	0x7c
 3421 0d5e 68090000 		.4byte	0x968
 3422 0d62 02       		.uleb128 0x2
 3423 0d63 91       		.byte	0x91
 3424 0d64 73       		.sleb128 -13
 3425 0d65 00       		.byte	0
 3426 0d66 2E       		.uleb128 0x2e
 3427 0d67 44080000 		.4byte	.LASF184
 3428 0d6b 07       		.byte	0x7
 3429 0d6c 95       		.byte	0x95
 3430 0d6d 48010000 		.4byte	0x148
 3431 0d71 00000000 		.4byte	.LFB192
 3432 0d75 16000000 		.4byte	.LFE192-.LFB192
 3433 0d79 01       		.uleb128 0x1
 3434 0d7a 9C       		.byte	0x9c
 3435 0d7b 8D0D0000 		.4byte	0xd8d
 3436 0d7f 27       		.uleb128 0x27
 3437 0d80 737000   		.ascii	"sp\000"
 3438 0d83 07       		.byte	0x7
 3439 0d84 95       		.byte	0x95
 3440 0d85 8D0D0000 		.4byte	0xd8d
 3441 0d89 02       		.uleb128 0x2
 3442 0d8a 91       		.byte	0x91
 3443 0d8b 74       		.sleb128 -12
 3444 0d8c 00       		.byte	0
 3445 0d8d 0A       		.uleb128 0xa
 3446 0d8e 04       		.byte	0x4
 3447 0d8f 2C090000 		.4byte	0x92c
 3448 0d93 2F       		.uleb128 0x2f
 3449 0d94 02060000 		.4byte	.LASF185
 3450 0d98 06       		.byte	0x6
 3451 0d99 BB       		.byte	0xbb
 3452 0d9a 27010000 		.4byte	0x127
 3453 0d9e 00000000 		.4byte	.LFB179
 3454 0da2 0E000000 		.4byte	.LFE179-.LFB179
 3455 0da6 01       		.uleb128 0x1
 3456 0da7 9C       		.byte	0x9c
 3457 0da8 30       		.uleb128 0x30
 3458 0da9 CD080000 		.4byte	.LASF186
ARM GAS  /tmp/ccUSzzA9.s 			page 62


 3459 0dad 06       		.byte	0x6
 3460 0dae AE       		.byte	0xae
 3461 0daf 8A020000 		.4byte	0x28a
 3462 0db3 00000000 		.4byte	.LFB178
 3463 0db7 0C000000 		.4byte	.LFE178-.LFB178
 3464 0dbb 01       		.uleb128 0x1
 3465 0dbc 9C       		.byte	0x9c
 3466 0dbd 2E       		.uleb128 0x2e
 3467 0dbe 1A060000 		.4byte	.LASF187
 3468 0dc2 05       		.byte	0x5
 3469 0dc3 F7       		.byte	0xf7
 3470 0dc4 5E010000 		.4byte	0x15e
 3471 0dc8 00000000 		.4byte	.LFB165
 3472 0dcc 1C000000 		.4byte	.LFE165-.LFB165
 3473 0dd0 01       		.uleb128 0x1
 3474 0dd1 9C       		.byte	0x9c
 3475 0dd2 E50D0000 		.4byte	0xde5
 3476 0dd6 23       		.uleb128 0x23
 3477 0dd7 CB040000 		.4byte	.LASF188
 3478 0ddb 05       		.byte	0x5
 3479 0ddc F8       		.byte	0xf8
 3480 0ddd 5E010000 		.4byte	0x15e
 3481 0de1 02       		.uleb128 0x2
 3482 0de2 91       		.byte	0x91
 3483 0de3 74       		.sleb128 -12
 3484 0de4 00       		.byte	0
 3485 0de5 30       		.uleb128 0x30
 3486 0de6 AC030000 		.4byte	.LASF189
 3487 0dea 05       		.byte	0x5
 3488 0deb E4       		.byte	0xe4
 3489 0dec 5E010000 		.4byte	0x15e
 3490 0df0 00000000 		.4byte	.LFB164
 3491 0df4 0C000000 		.4byte	.LFE164-.LFB164
 3492 0df8 01       		.uleb128 0x1
 3493 0df9 9C       		.byte	0x9c
 3494 0dfa 2C       		.uleb128 0x2c
 3495 0dfb 69090000 		.4byte	.LASF190
 3496 0dff 04       		.byte	0x4
 3497 0e00 6601     		.2byte	0x166
 3498 0e02 00000000 		.4byte	.LFB157
 3499 0e06 3C000000 		.4byte	.LFE157-.LFB157
 3500 0e0a 01       		.uleb128 0x1
 3501 0e0b 9C       		.byte	0x9c
 3502 0e0c 200E0000 		.4byte	0xe20
 3503 0e10 31       		.uleb128 0x31
 3504 0e11 32070000 		.4byte	.LASF199
 3505 0e15 300E0000 		.4byte	0xe30
 3506 0e19 05       		.uleb128 0x5
 3507 0e1a 03       		.byte	0x3
 3508 0e1b 00000000 		.4byte	__func__.7157
 3509 0e1f 00       		.byte	0
 3510 0e20 17       		.uleb128 0x17
 3511 0e21 F4070000 		.4byte	0x7f4
 3512 0e25 300E0000 		.4byte	0xe30
 3513 0e29 18       		.uleb128 0x18
 3514 0e2a CE040000 		.4byte	0x4ce
 3515 0e2e 0B       		.byte	0xb
ARM GAS  /tmp/ccUSzzA9.s 			page 63


 3516 0e2f 00       		.byte	0
 3517 0e30 0B       		.uleb128 0xb
 3518 0e31 200E0000 		.4byte	0xe20
 3519 0e35 32       		.uleb128 0x32
 3520 0e36 43070000 		.4byte	.LASF191
 3521 0e3a 04       		.byte	0x4
 3522 0e3b 5A01     		.2byte	0x15a
 3523 0e3d 00000000 		.4byte	.LFB156
 3524 0e41 12000000 		.4byte	.LFE156-.LFB156
 3525 0e45 01       		.uleb128 0x1
 3526 0e46 9C       		.byte	0x9c
 3527 0e47 33       		.uleb128 0x33
 3528 0e48 21030000 		.4byte	.LASF192
 3529 0e4c 03       		.byte	0x3
 3530 0e4d 6802     		.2byte	0x268
 3531 0e4f 68090000 		.4byte	0x968
 3532 0e53 00000000 		.4byte	.LFB140
 3533 0e57 1A000000 		.4byte	.LFE140-.LFB140
 3534 0e5b 01       		.uleb128 0x1
 3535 0e5c 9C       		.byte	0x9c
 3536 0e5d 710E0000 		.4byte	0xe71
 3537 0e61 2B       		.uleb128 0x2b
 3538 0e62 74717000 		.ascii	"tqp\000"
 3539 0e66 03       		.byte	0x3
 3540 0e67 6802     		.2byte	0x268
 3541 0e69 710E0000 		.4byte	0xe71
 3542 0e6d 02       		.uleb128 0x2
 3543 0e6e 91       		.byte	0x91
 3544 0e6f 7C       		.sleb128 -4
 3545 0e70 00       		.byte	0
 3546 0e71 0A       		.uleb128 0xa
 3547 0e72 04       		.byte	0x4
 3548 0e73 BF020000 		.4byte	0x2bf
 3549 0e77 34       		.uleb128 0x34
 3550 0e78 9B010000 		.4byte	.LASF193
 3551 0e7c 01       		.byte	0x1
 3552 0e7d E001     		.2byte	0x1e0
 3553 0e7f 00000000 		.4byte	.LFB128
 3554 0e83 12000000 		.4byte	.LFE128-.LFB128
 3555 0e87 01       		.uleb128 0x1
 3556 0e88 9C       		.byte	0x9c
 3557 0e89 A70E0000 		.4byte	0xea7
 3558 0e8d 35       		.uleb128 0x35
 3559 0e8e D70E0000 		.4byte	0xed7
 3560 0e92 06000000 		.4byte	.LBB8
 3561 0e96 06000000 		.4byte	.LBE8-.LBB8
 3562 0e9a 01       		.byte	0x1
 3563 0e9b E301     		.2byte	0x1e3
 3564 0e9d 36       		.uleb128 0x36
 3565 0e9e E00E0000 		.4byte	0xee0
 3566 0ea2 02       		.uleb128 0x2
 3567 0ea3 91       		.byte	0x91
 3568 0ea4 7C       		.sleb128 -4
 3569 0ea5 00       		.byte	0
 3570 0ea6 00       		.byte	0
 3571 0ea7 34       		.uleb128 0x34
 3572 0ea8 90000000 		.4byte	.LASF194
ARM GAS  /tmp/ccUSzzA9.s 			page 64


 3573 0eac 01       		.byte	0x1
 3574 0ead C801     		.2byte	0x1c8
 3575 0eaf 00000000 		.4byte	.LFB127
 3576 0eb3 12000000 		.4byte	.LFE127-.LFB127
 3577 0eb7 01       		.uleb128 0x1
 3578 0eb8 9C       		.byte	0x9c
 3579 0eb9 D70E0000 		.4byte	0xed7
 3580 0ebd 35       		.uleb128 0x35
 3581 0ebe D70E0000 		.4byte	0xed7
 3582 0ec2 06000000 		.4byte	.LBB6
 3583 0ec6 06000000 		.4byte	.LBE6-.LBB6
 3584 0eca 01       		.byte	0x1
 3585 0ecb D001     		.2byte	0x1d0
 3586 0ecd 36       		.uleb128 0x36
 3587 0ece E00E0000 		.4byte	0xee0
 3588 0ed2 02       		.uleb128 0x2
 3589 0ed3 91       		.byte	0x91
 3590 0ed4 7C       		.sleb128 -4
 3591 0ed5 00       		.byte	0
 3592 0ed6 00       		.byte	0
 3593 0ed7 37       		.uleb128 0x37
 3594 0ed8 55080000 		.4byte	.LASF200
 3595 0edc 02       		.byte	0x2
 3596 0edd 2202     		.2byte	0x222
 3597 0edf 03       		.byte	0x3
 3598 0ee0 38       		.uleb128 0x38
 3599 0ee1 8C030000 		.4byte	.LASF201
 3600 0ee5 02       		.byte	0x2
 3601 0ee6 2202     		.2byte	0x222
 3602 0ee8 DA000000 		.4byte	0xda
 3603 0eec 00       		.byte	0
 3604 0eed 00       		.byte	0
 3605              		.section	.debug_abbrev,"",%progbits
 3606              	.Ldebug_abbrev0:
 3607 0000 01       		.uleb128 0x1
 3608 0001 11       		.uleb128 0x11
 3609 0002 01       		.byte	0x1
 3610 0003 25       		.uleb128 0x25
 3611 0004 0E       		.uleb128 0xe
 3612 0005 13       		.uleb128 0x13
 3613 0006 0B       		.uleb128 0xb
 3614 0007 03       		.uleb128 0x3
 3615 0008 0E       		.uleb128 0xe
 3616 0009 1B       		.uleb128 0x1b
 3617 000a 0E       		.uleb128 0xe
 3618 000b 55       		.uleb128 0x55
 3619 000c 17       		.uleb128 0x17
 3620 000d 11       		.uleb128 0x11
 3621 000e 01       		.uleb128 0x1
 3622 000f 10       		.uleb128 0x10
 3623 0010 17       		.uleb128 0x17
 3624 0011 00       		.byte	0
 3625 0012 00       		.byte	0
 3626 0013 02       		.uleb128 0x2
 3627 0014 24       		.uleb128 0x24
 3628 0015 00       		.byte	0
 3629 0016 0B       		.uleb128 0xb
ARM GAS  /tmp/ccUSzzA9.s 			page 65


 3630 0017 0B       		.uleb128 0xb
 3631 0018 3E       		.uleb128 0x3e
 3632 0019 0B       		.uleb128 0xb
 3633 001a 03       		.uleb128 0x3
 3634 001b 08       		.uleb128 0x8
 3635 001c 00       		.byte	0
 3636 001d 00       		.byte	0
 3637 001e 03       		.uleb128 0x3
 3638 001f 16       		.uleb128 0x16
 3639 0020 00       		.byte	0
 3640 0021 03       		.uleb128 0x3
 3641 0022 0E       		.uleb128 0xe
 3642 0023 3A       		.uleb128 0x3a
 3643 0024 0B       		.uleb128 0xb
 3644 0025 3B       		.uleb128 0x3b
 3645 0026 0B       		.uleb128 0xb
 3646 0027 49       		.uleb128 0x49
 3647 0028 13       		.uleb128 0x13
 3648 0029 00       		.byte	0
 3649 002a 00       		.byte	0
 3650 002b 04       		.uleb128 0x4
 3651 002c 24       		.uleb128 0x24
 3652 002d 00       		.byte	0
 3653 002e 0B       		.uleb128 0xb
 3654 002f 0B       		.uleb128 0xb
 3655 0030 3E       		.uleb128 0x3e
 3656 0031 0B       		.uleb128 0xb
 3657 0032 03       		.uleb128 0x3
 3658 0033 0E       		.uleb128 0xe
 3659 0034 00       		.byte	0
 3660 0035 00       		.byte	0
 3661 0036 05       		.uleb128 0x5
 3662 0037 35       		.uleb128 0x35
 3663 0038 00       		.byte	0
 3664 0039 49       		.uleb128 0x49
 3665 003a 13       		.uleb128 0x13
 3666 003b 00       		.byte	0
 3667 003c 00       		.byte	0
 3668 003d 06       		.uleb128 0x6
 3669 003e 13       		.uleb128 0x13
 3670 003f 01       		.byte	0x1
 3671 0040 03       		.uleb128 0x3
 3672 0041 0E       		.uleb128 0xe
 3673 0042 0B       		.uleb128 0xb
 3674 0043 0B       		.uleb128 0xb
 3675 0044 3A       		.uleb128 0x3a
 3676 0045 0B       		.uleb128 0xb
 3677 0046 3B       		.uleb128 0x3b
 3678 0047 0B       		.uleb128 0xb
 3679 0048 01       		.uleb128 0x1
 3680 0049 13       		.uleb128 0x13
 3681 004a 00       		.byte	0
 3682 004b 00       		.byte	0
 3683 004c 07       		.uleb128 0x7
 3684 004d 0D       		.uleb128 0xd
 3685 004e 00       		.byte	0
 3686 004f 03       		.uleb128 0x3
ARM GAS  /tmp/ccUSzzA9.s 			page 66


 3687 0050 0E       		.uleb128 0xe
 3688 0051 3A       		.uleb128 0x3a
 3689 0052 0B       		.uleb128 0xb
 3690 0053 3B       		.uleb128 0x3b
 3691 0054 0B       		.uleb128 0xb
 3692 0055 49       		.uleb128 0x49
 3693 0056 13       		.uleb128 0x13
 3694 0057 38       		.uleb128 0x38
 3695 0058 0B       		.uleb128 0xb
 3696 0059 00       		.byte	0
 3697 005a 00       		.byte	0
 3698 005b 08       		.uleb128 0x8
 3699 005c 0D       		.uleb128 0xd
 3700 005d 00       		.byte	0
 3701 005e 03       		.uleb128 0x3
 3702 005f 08       		.uleb128 0x8
 3703 0060 3A       		.uleb128 0x3a
 3704 0061 0B       		.uleb128 0xb
 3705 0062 3B       		.uleb128 0x3b
 3706 0063 05       		.uleb128 0x5
 3707 0064 49       		.uleb128 0x49
 3708 0065 13       		.uleb128 0x13
 3709 0066 38       		.uleb128 0x38
 3710 0067 0B       		.uleb128 0xb
 3711 0068 00       		.byte	0
 3712 0069 00       		.byte	0
 3713 006a 09       		.uleb128 0x9
 3714 006b 0D       		.uleb128 0xd
 3715 006c 00       		.byte	0
 3716 006d 03       		.uleb128 0x3
 3717 006e 0E       		.uleb128 0xe
 3718 006f 3A       		.uleb128 0x3a
 3719 0070 0B       		.uleb128 0xb
 3720 0071 3B       		.uleb128 0x3b
 3721 0072 05       		.uleb128 0x5
 3722 0073 49       		.uleb128 0x49
 3723 0074 13       		.uleb128 0x13
 3724 0075 38       		.uleb128 0x38
 3725 0076 0B       		.uleb128 0xb
 3726 0077 00       		.byte	0
 3727 0078 00       		.byte	0
 3728 0079 0A       		.uleb128 0xa
 3729 007a 0F       		.uleb128 0xf
 3730 007b 00       		.byte	0
 3731 007c 0B       		.uleb128 0xb
 3732 007d 0B       		.uleb128 0xb
 3733 007e 49       		.uleb128 0x49
 3734 007f 13       		.uleb128 0x13
 3735 0080 00       		.byte	0
 3736 0081 00       		.byte	0
 3737 0082 0B       		.uleb128 0xb
 3738 0083 26       		.uleb128 0x26
 3739 0084 00       		.byte	0
 3740 0085 49       		.uleb128 0x49
 3741 0086 13       		.uleb128 0x13
 3742 0087 00       		.byte	0
 3743 0088 00       		.byte	0
ARM GAS  /tmp/ccUSzzA9.s 			page 67


 3744 0089 0C       		.uleb128 0xc
 3745 008a 13       		.uleb128 0x13
 3746 008b 01       		.byte	0x1
 3747 008c 03       		.uleb128 0x3
 3748 008d 0E       		.uleb128 0xe
 3749 008e 0B       		.uleb128 0xb
 3750 008f 0B       		.uleb128 0xb
 3751 0090 3A       		.uleb128 0x3a
 3752 0091 0B       		.uleb128 0xb
 3753 0092 3B       		.uleb128 0x3b
 3754 0093 05       		.uleb128 0x5
 3755 0094 01       		.uleb128 0x1
 3756 0095 13       		.uleb128 0x13
 3757 0096 00       		.byte	0
 3758 0097 00       		.byte	0
 3759 0098 0D       		.uleb128 0xd
 3760 0099 15       		.uleb128 0x15
 3761 009a 01       		.byte	0x1
 3762 009b 27       		.uleb128 0x27
 3763 009c 19       		.uleb128 0x19
 3764 009d 01       		.uleb128 0x1
 3765 009e 13       		.uleb128 0x13
 3766 009f 00       		.byte	0
 3767 00a0 00       		.byte	0
 3768 00a1 0E       		.uleb128 0xe
 3769 00a2 05       		.uleb128 0x5
 3770 00a3 00       		.byte	0
 3771 00a4 49       		.uleb128 0x49
 3772 00a5 13       		.uleb128 0x13
 3773 00a6 00       		.byte	0
 3774 00a7 00       		.byte	0
 3775 00a8 0F       		.uleb128 0xf
 3776 00a9 0F       		.uleb128 0xf
 3777 00aa 00       		.byte	0
 3778 00ab 0B       		.uleb128 0xb
 3779 00ac 0B       		.uleb128 0xb
 3780 00ad 00       		.byte	0
 3781 00ae 00       		.byte	0
 3782 00af 10       		.uleb128 0x10
 3783 00b0 13       		.uleb128 0x13
 3784 00b1 01       		.byte	0x1
 3785 00b2 03       		.uleb128 0x3
 3786 00b3 0E       		.uleb128 0xe
 3787 00b4 0B       		.uleb128 0xb
 3788 00b5 05       		.uleb128 0x5
 3789 00b6 3A       		.uleb128 0x3a
 3790 00b7 0B       		.uleb128 0xb
 3791 00b8 3B       		.uleb128 0x3b
 3792 00b9 05       		.uleb128 0x5
 3793 00ba 01       		.uleb128 0x1
 3794 00bb 13       		.uleb128 0x13
 3795 00bc 00       		.byte	0
 3796 00bd 00       		.byte	0
 3797 00be 11       		.uleb128 0x11
 3798 00bf 34       		.uleb128 0x34
 3799 00c0 00       		.byte	0
 3800 00c1 03       		.uleb128 0x3
ARM GAS  /tmp/ccUSzzA9.s 			page 68


 3801 00c2 0E       		.uleb128 0xe
 3802 00c3 3A       		.uleb128 0x3a
 3803 00c4 0B       		.uleb128 0xb
 3804 00c5 3B       		.uleb128 0x3b
 3805 00c6 05       		.uleb128 0x5
 3806 00c7 49       		.uleb128 0x49
 3807 00c8 13       		.uleb128 0x13
 3808 00c9 3F       		.uleb128 0x3f
 3809 00ca 19       		.uleb128 0x19
 3810 00cb 3C       		.uleb128 0x3c
 3811 00cc 19       		.uleb128 0x19
 3812 00cd 00       		.byte	0
 3813 00ce 00       		.byte	0
 3814 00cf 12       		.uleb128 0x12
 3815 00d0 34       		.uleb128 0x34
 3816 00d1 00       		.byte	0
 3817 00d2 03       		.uleb128 0x3
 3818 00d3 0E       		.uleb128 0xe
 3819 00d4 3A       		.uleb128 0x3a
 3820 00d5 0B       		.uleb128 0xb
 3821 00d6 3B       		.uleb128 0x3b
 3822 00d7 0B       		.uleb128 0xb
 3823 00d8 49       		.uleb128 0x49
 3824 00d9 13       		.uleb128 0x13
 3825 00da 3F       		.uleb128 0x3f
 3826 00db 19       		.uleb128 0x19
 3827 00dc 3C       		.uleb128 0x3c
 3828 00dd 19       		.uleb128 0x19
 3829 00de 00       		.byte	0
 3830 00df 00       		.byte	0
 3831 00e0 13       		.uleb128 0x13
 3832 00e1 0D       		.uleb128 0xd
 3833 00e2 00       		.byte	0
 3834 00e3 03       		.uleb128 0x3
 3835 00e4 08       		.uleb128 0x8
 3836 00e5 3A       		.uleb128 0x3a
 3837 00e6 0B       		.uleb128 0xb
 3838 00e7 3B       		.uleb128 0x3b
 3839 00e8 0B       		.uleb128 0xb
 3840 00e9 49       		.uleb128 0x49
 3841 00ea 13       		.uleb128 0x13
 3842 00eb 38       		.uleb128 0x38
 3843 00ec 0B       		.uleb128 0xb
 3844 00ed 00       		.byte	0
 3845 00ee 00       		.byte	0
 3846 00ef 14       		.uleb128 0x14
 3847 00f0 13       		.uleb128 0x13
 3848 00f1 01       		.byte	0x1
 3849 00f2 0B       		.uleb128 0xb
 3850 00f3 0B       		.uleb128 0xb
 3851 00f4 3A       		.uleb128 0x3a
 3852 00f5 0B       		.uleb128 0xb
 3853 00f6 3B       		.uleb128 0x3b
 3854 00f7 0B       		.uleb128 0xb
 3855 00f8 01       		.uleb128 0x1
 3856 00f9 13       		.uleb128 0x13
 3857 00fa 00       		.byte	0
ARM GAS  /tmp/ccUSzzA9.s 			page 69


 3858 00fb 00       		.byte	0
 3859 00fc 15       		.uleb128 0x15
 3860 00fd 17       		.uleb128 0x17
 3861 00fe 01       		.byte	0x1
 3862 00ff 0B       		.uleb128 0xb
 3863 0100 0B       		.uleb128 0xb
 3864 0101 3A       		.uleb128 0x3a
 3865 0102 0B       		.uleb128 0xb
 3866 0103 3B       		.uleb128 0x3b
 3867 0104 0B       		.uleb128 0xb
 3868 0105 01       		.uleb128 0x1
 3869 0106 13       		.uleb128 0x13
 3870 0107 00       		.byte	0
 3871 0108 00       		.byte	0
 3872 0109 16       		.uleb128 0x16
 3873 010a 0D       		.uleb128 0xd
 3874 010b 00       		.byte	0
 3875 010c 03       		.uleb128 0x3
 3876 010d 0E       		.uleb128 0xe
 3877 010e 3A       		.uleb128 0x3a
 3878 010f 0B       		.uleb128 0xb
 3879 0110 3B       		.uleb128 0x3b
 3880 0111 05       		.uleb128 0x5
 3881 0112 49       		.uleb128 0x49
 3882 0113 13       		.uleb128 0x13
 3883 0114 00       		.byte	0
 3884 0115 00       		.byte	0
 3885 0116 17       		.uleb128 0x17
 3886 0117 01       		.uleb128 0x1
 3887 0118 01       		.byte	0x1
 3888 0119 49       		.uleb128 0x49
 3889 011a 13       		.uleb128 0x13
 3890 011b 01       		.uleb128 0x1
 3891 011c 13       		.uleb128 0x13
 3892 011d 00       		.byte	0
 3893 011e 00       		.byte	0
 3894 011f 18       		.uleb128 0x18
 3895 0120 21       		.uleb128 0x21
 3896 0121 00       		.byte	0
 3897 0122 49       		.uleb128 0x49
 3898 0123 13       		.uleb128 0x13
 3899 0124 2F       		.uleb128 0x2f
 3900 0125 0B       		.uleb128 0xb
 3901 0126 00       		.byte	0
 3902 0127 00       		.byte	0
 3903 0128 19       		.uleb128 0x19
 3904 0129 34       		.uleb128 0x34
 3905 012a 00       		.byte	0
 3906 012b 03       		.uleb128 0x3
 3907 012c 08       		.uleb128 0x8
 3908 012d 3A       		.uleb128 0x3a
 3909 012e 0B       		.uleb128 0xb
 3910 012f 3B       		.uleb128 0x3b
 3911 0130 05       		.uleb128 0x5
 3912 0131 49       		.uleb128 0x49
 3913 0132 13       		.uleb128 0x13
 3914 0133 3F       		.uleb128 0x3f
ARM GAS  /tmp/ccUSzzA9.s 			page 70


 3915 0134 19       		.uleb128 0x19
 3916 0135 3C       		.uleb128 0x3c
 3917 0136 19       		.uleb128 0x19
 3918 0137 00       		.byte	0
 3919 0138 00       		.byte	0
 3920 0139 1A       		.uleb128 0x1a
 3921 013a 15       		.uleb128 0x15
 3922 013b 00       		.byte	0
 3923 013c 27       		.uleb128 0x27
 3924 013d 19       		.uleb128 0x19
 3925 013e 00       		.byte	0
 3926 013f 00       		.byte	0
 3927 0140 1B       		.uleb128 0x1b
 3928 0141 13       		.uleb128 0x13
 3929 0142 01       		.byte	0x1
 3930 0143 0B       		.uleb128 0xb
 3931 0144 05       		.uleb128 0x5
 3932 0145 3A       		.uleb128 0x3a
 3933 0146 0B       		.uleb128 0xb
 3934 0147 3B       		.uleb128 0x3b
 3935 0148 0B       		.uleb128 0xb
 3936 0149 01       		.uleb128 0x1
 3937 014a 13       		.uleb128 0x13
 3938 014b 00       		.byte	0
 3939 014c 00       		.byte	0
 3940 014d 1C       		.uleb128 0x1c
 3941 014e 0D       		.uleb128 0xd
 3942 014f 00       		.byte	0
 3943 0150 03       		.uleb128 0x3
 3944 0151 08       		.uleb128 0x8
 3945 0152 3A       		.uleb128 0x3a
 3946 0153 0B       		.uleb128 0xb
 3947 0154 3B       		.uleb128 0x3b
 3948 0155 0B       		.uleb128 0xb
 3949 0156 49       		.uleb128 0x49
 3950 0157 13       		.uleb128 0x13
 3951 0158 38       		.uleb128 0x38
 3952 0159 05       		.uleb128 0x5
 3953 015a 00       		.byte	0
 3954 015b 00       		.byte	0
 3955 015c 1D       		.uleb128 0x1d
 3956 015d 17       		.uleb128 0x17
 3957 015e 01       		.byte	0x1
 3958 015f 03       		.uleb128 0x3
 3959 0160 0E       		.uleb128 0xe
 3960 0161 0B       		.uleb128 0xb
 3961 0162 05       		.uleb128 0x5
 3962 0163 3A       		.uleb128 0x3a
 3963 0164 0B       		.uleb128 0xb
 3964 0165 3B       		.uleb128 0x3b
 3965 0166 0B       		.uleb128 0xb
 3966 0167 01       		.uleb128 0x1
 3967 0168 13       		.uleb128 0x13
 3968 0169 00       		.byte	0
 3969 016a 00       		.byte	0
 3970 016b 1E       		.uleb128 0x1e
 3971 016c 0D       		.uleb128 0xd
ARM GAS  /tmp/ccUSzzA9.s 			page 71


 3972 016d 00       		.byte	0
 3973 016e 03       		.uleb128 0x3
 3974 016f 08       		.uleb128 0x8
 3975 0170 3A       		.uleb128 0x3a
 3976 0171 0B       		.uleb128 0xb
 3977 0172 3B       		.uleb128 0x3b
 3978 0173 0B       		.uleb128 0xb
 3979 0174 49       		.uleb128 0x49
 3980 0175 13       		.uleb128 0x13
 3981 0176 00       		.byte	0
 3982 0177 00       		.byte	0
 3983 0178 1F       		.uleb128 0x1f
 3984 0179 0D       		.uleb128 0xd
 3985 017a 00       		.byte	0
 3986 017b 03       		.uleb128 0x3
 3987 017c 0E       		.uleb128 0xe
 3988 017d 3A       		.uleb128 0x3a
 3989 017e 0B       		.uleb128 0xb
 3990 017f 3B       		.uleb128 0x3b
 3991 0180 0B       		.uleb128 0xb
 3992 0181 49       		.uleb128 0x49
 3993 0182 13       		.uleb128 0x13
 3994 0183 00       		.byte	0
 3995 0184 00       		.byte	0
 3996 0185 20       		.uleb128 0x20
 3997 0186 21       		.uleb128 0x21
 3998 0187 00       		.byte	0
 3999 0188 49       		.uleb128 0x49
 4000 0189 13       		.uleb128 0x13
 4001 018a 2F       		.uleb128 0x2f
 4002 018b 05       		.uleb128 0x5
 4003 018c 00       		.byte	0
 4004 018d 00       		.byte	0
 4005 018e 21       		.uleb128 0x21
 4006 018f 21       		.uleb128 0x21
 4007 0190 00       		.byte	0
 4008 0191 00       		.byte	0
 4009 0192 00       		.byte	0
 4010 0193 22       		.uleb128 0x22
 4011 0194 34       		.uleb128 0x34
 4012 0195 00       		.byte	0
 4013 0196 03       		.uleb128 0x3
 4014 0197 08       		.uleb128 0x8
 4015 0198 3A       		.uleb128 0x3a
 4016 0199 0B       		.uleb128 0xb
 4017 019a 3B       		.uleb128 0x3b
 4018 019b 0B       		.uleb128 0xb
 4019 019c 49       		.uleb128 0x49
 4020 019d 13       		.uleb128 0x13
 4021 019e 3F       		.uleb128 0x3f
 4022 019f 19       		.uleb128 0x19
 4023 01a0 3C       		.uleb128 0x3c
 4024 01a1 19       		.uleb128 0x19
 4025 01a2 00       		.byte	0
 4026 01a3 00       		.byte	0
 4027 01a4 23       		.uleb128 0x23
 4028 01a5 34       		.uleb128 0x34
ARM GAS  /tmp/ccUSzzA9.s 			page 72


 4029 01a6 00       		.byte	0
 4030 01a7 03       		.uleb128 0x3
 4031 01a8 0E       		.uleb128 0xe
 4032 01a9 3A       		.uleb128 0x3a
 4033 01aa 0B       		.uleb128 0xb
 4034 01ab 3B       		.uleb128 0x3b
 4035 01ac 0B       		.uleb128 0xb
 4036 01ad 49       		.uleb128 0x49
 4037 01ae 13       		.uleb128 0x13
 4038 01af 02       		.uleb128 0x2
 4039 01b0 18       		.uleb128 0x18
 4040 01b1 00       		.byte	0
 4041 01b2 00       		.byte	0
 4042 01b3 24       		.uleb128 0x24
 4043 01b4 34       		.uleb128 0x34
 4044 01b5 00       		.byte	0
 4045 01b6 03       		.uleb128 0x3
 4046 01b7 0E       		.uleb128 0xe
 4047 01b8 3A       		.uleb128 0x3a
 4048 01b9 0B       		.uleb128 0xb
 4049 01ba 3B       		.uleb128 0x3b
 4050 01bb 0B       		.uleb128 0xb
 4051 01bc 49       		.uleb128 0x49
 4052 01bd 13       		.uleb128 0x13
 4053 01be 3F       		.uleb128 0x3f
 4054 01bf 19       		.uleb128 0x19
 4055 01c0 02       		.uleb128 0x2
 4056 01c1 18       		.uleb128 0x18
 4057 01c2 00       		.byte	0
 4058 01c3 00       		.byte	0
 4059 01c4 25       		.uleb128 0x25
 4060 01c5 34       		.uleb128 0x34
 4061 01c6 00       		.byte	0
 4062 01c7 03       		.uleb128 0x3
 4063 01c8 0E       		.uleb128 0xe
 4064 01c9 3A       		.uleb128 0x3a
 4065 01ca 0B       		.uleb128 0xb
 4066 01cb 3B       		.uleb128 0x3b
 4067 01cc 05       		.uleb128 0x5
 4068 01cd 49       		.uleb128 0x49
 4069 01ce 13       		.uleb128 0x13
 4070 01cf 3F       		.uleb128 0x3f
 4071 01d0 19       		.uleb128 0x19
 4072 01d1 02       		.uleb128 0x2
 4073 01d2 18       		.uleb128 0x18
 4074 01d3 00       		.byte	0
 4075 01d4 00       		.byte	0
 4076 01d5 26       		.uleb128 0x26
 4077 01d6 2E       		.uleb128 0x2e
 4078 01d7 01       		.byte	0x1
 4079 01d8 03       		.uleb128 0x3
 4080 01d9 0E       		.uleb128 0xe
 4081 01da 3A       		.uleb128 0x3a
 4082 01db 0B       		.uleb128 0xb
 4083 01dc 3B       		.uleb128 0x3b
 4084 01dd 0B       		.uleb128 0xb
 4085 01de 27       		.uleb128 0x27
ARM GAS  /tmp/ccUSzzA9.s 			page 73


 4086 01df 19       		.uleb128 0x19
 4087 01e0 11       		.uleb128 0x11
 4088 01e1 01       		.uleb128 0x1
 4089 01e2 12       		.uleb128 0x12
 4090 01e3 06       		.uleb128 0x6
 4091 01e4 40       		.uleb128 0x40
 4092 01e5 18       		.uleb128 0x18
 4093 01e6 9642     		.uleb128 0x2116
 4094 01e8 19       		.uleb128 0x19
 4095 01e9 01       		.uleb128 0x1
 4096 01ea 13       		.uleb128 0x13
 4097 01eb 00       		.byte	0
 4098 01ec 00       		.byte	0
 4099 01ed 27       		.uleb128 0x27
 4100 01ee 05       		.uleb128 0x5
 4101 01ef 00       		.byte	0
 4102 01f0 03       		.uleb128 0x3
 4103 01f1 08       		.uleb128 0x8
 4104 01f2 3A       		.uleb128 0x3a
 4105 01f3 0B       		.uleb128 0xb
 4106 01f4 3B       		.uleb128 0x3b
 4107 01f5 0B       		.uleb128 0xb
 4108 01f6 49       		.uleb128 0x49
 4109 01f7 13       		.uleb128 0x13
 4110 01f8 02       		.uleb128 0x2
 4111 01f9 18       		.uleb128 0x18
 4112 01fa 00       		.byte	0
 4113 01fb 00       		.byte	0
 4114 01fc 28       		.uleb128 0x28
 4115 01fd 2E       		.uleb128 0x2e
 4116 01fe 00       		.byte	0
 4117 01ff 03       		.uleb128 0x3
 4118 0200 0E       		.uleb128 0xe
 4119 0201 3A       		.uleb128 0x3a
 4120 0202 0B       		.uleb128 0xb
 4121 0203 3B       		.uleb128 0x3b
 4122 0204 0B       		.uleb128 0xb
 4123 0205 27       		.uleb128 0x27
 4124 0206 19       		.uleb128 0x19
 4125 0207 11       		.uleb128 0x11
 4126 0208 01       		.uleb128 0x1
 4127 0209 12       		.uleb128 0x12
 4128 020a 06       		.uleb128 0x6
 4129 020b 40       		.uleb128 0x40
 4130 020c 18       		.uleb128 0x18
 4131 020d 9642     		.uleb128 0x2116
 4132 020f 19       		.uleb128 0x19
 4133 0210 00       		.byte	0
 4134 0211 00       		.byte	0
 4135 0212 29       		.uleb128 0x29
 4136 0213 34       		.uleb128 0x34
 4137 0214 00       		.byte	0
 4138 0215 03       		.uleb128 0x3
 4139 0216 08       		.uleb128 0x8
 4140 0217 3A       		.uleb128 0x3a
 4141 0218 0B       		.uleb128 0xb
 4142 0219 3B       		.uleb128 0x3b
ARM GAS  /tmp/ccUSzzA9.s 			page 74


 4143 021a 0B       		.uleb128 0xb
 4144 021b 49       		.uleb128 0x49
 4145 021c 13       		.uleb128 0x13
 4146 021d 02       		.uleb128 0x2
 4147 021e 18       		.uleb128 0x18
 4148 021f 00       		.byte	0
 4149 0220 00       		.byte	0
 4150 0221 2A       		.uleb128 0x2a
 4151 0222 2E       		.uleb128 0x2e
 4152 0223 01       		.byte	0x1
 4153 0224 03       		.uleb128 0x3
 4154 0225 0E       		.uleb128 0xe
 4155 0226 3A       		.uleb128 0x3a
 4156 0227 0B       		.uleb128 0xb
 4157 0228 3B       		.uleb128 0x3b
 4158 0229 05       		.uleb128 0x5
 4159 022a 27       		.uleb128 0x27
 4160 022b 19       		.uleb128 0x19
 4161 022c 49       		.uleb128 0x49
 4162 022d 13       		.uleb128 0x13
 4163 022e 11       		.uleb128 0x11
 4164 022f 01       		.uleb128 0x1
 4165 0230 12       		.uleb128 0x12
 4166 0231 06       		.uleb128 0x6
 4167 0232 40       		.uleb128 0x40
 4168 0233 18       		.uleb128 0x18
 4169 0234 9642     		.uleb128 0x2116
 4170 0236 19       		.uleb128 0x19
 4171 0237 01       		.uleb128 0x1
 4172 0238 13       		.uleb128 0x13
 4173 0239 00       		.byte	0
 4174 023a 00       		.byte	0
 4175 023b 2B       		.uleb128 0x2b
 4176 023c 05       		.uleb128 0x5
 4177 023d 00       		.byte	0
 4178 023e 03       		.uleb128 0x3
 4179 023f 08       		.uleb128 0x8
 4180 0240 3A       		.uleb128 0x3a
 4181 0241 0B       		.uleb128 0xb
 4182 0242 3B       		.uleb128 0x3b
 4183 0243 05       		.uleb128 0x5
 4184 0244 49       		.uleb128 0x49
 4185 0245 13       		.uleb128 0x13
 4186 0246 02       		.uleb128 0x2
 4187 0247 18       		.uleb128 0x18
 4188 0248 00       		.byte	0
 4189 0249 00       		.byte	0
 4190 024a 2C       		.uleb128 0x2c
 4191 024b 2E       		.uleb128 0x2e
 4192 024c 01       		.byte	0x1
 4193 024d 03       		.uleb128 0x3
 4194 024e 0E       		.uleb128 0xe
 4195 024f 3A       		.uleb128 0x3a
 4196 0250 0B       		.uleb128 0xb
 4197 0251 3B       		.uleb128 0x3b
 4198 0252 05       		.uleb128 0x5
 4199 0253 27       		.uleb128 0x27
ARM GAS  /tmp/ccUSzzA9.s 			page 75


 4200 0254 19       		.uleb128 0x19
 4201 0255 11       		.uleb128 0x11
 4202 0256 01       		.uleb128 0x1
 4203 0257 12       		.uleb128 0x12
 4204 0258 06       		.uleb128 0x6
 4205 0259 40       		.uleb128 0x40
 4206 025a 18       		.uleb128 0x18
 4207 025b 9642     		.uleb128 0x2116
 4208 025d 19       		.uleb128 0x19
 4209 025e 01       		.uleb128 0x1
 4210 025f 13       		.uleb128 0x13
 4211 0260 00       		.byte	0
 4212 0261 00       		.byte	0
 4213 0262 2D       		.uleb128 0x2d
 4214 0263 05       		.uleb128 0x5
 4215 0264 00       		.byte	0
 4216 0265 03       		.uleb128 0x3
 4217 0266 0E       		.uleb128 0xe
 4218 0267 3A       		.uleb128 0x3a
 4219 0268 0B       		.uleb128 0xb
 4220 0269 3B       		.uleb128 0x3b
 4221 026a 0B       		.uleb128 0xb
 4222 026b 49       		.uleb128 0x49
 4223 026c 13       		.uleb128 0x13
 4224 026d 02       		.uleb128 0x2
 4225 026e 18       		.uleb128 0x18
 4226 026f 00       		.byte	0
 4227 0270 00       		.byte	0
 4228 0271 2E       		.uleb128 0x2e
 4229 0272 2E       		.uleb128 0x2e
 4230 0273 01       		.byte	0x1
 4231 0274 03       		.uleb128 0x3
 4232 0275 0E       		.uleb128 0xe
 4233 0276 3A       		.uleb128 0x3a
 4234 0277 0B       		.uleb128 0xb
 4235 0278 3B       		.uleb128 0x3b
 4236 0279 0B       		.uleb128 0xb
 4237 027a 27       		.uleb128 0x27
 4238 027b 19       		.uleb128 0x19
 4239 027c 49       		.uleb128 0x49
 4240 027d 13       		.uleb128 0x13
 4241 027e 11       		.uleb128 0x11
 4242 027f 01       		.uleb128 0x1
 4243 0280 12       		.uleb128 0x12
 4244 0281 06       		.uleb128 0x6
 4245 0282 40       		.uleb128 0x40
 4246 0283 18       		.uleb128 0x18
 4247 0284 9642     		.uleb128 0x2116
 4248 0286 19       		.uleb128 0x19
 4249 0287 01       		.uleb128 0x1
 4250 0288 13       		.uleb128 0x13
 4251 0289 00       		.byte	0
 4252 028a 00       		.byte	0
 4253 028b 2F       		.uleb128 0x2f
 4254 028c 2E       		.uleb128 0x2e
 4255 028d 00       		.byte	0
 4256 028e 03       		.uleb128 0x3
ARM GAS  /tmp/ccUSzzA9.s 			page 76


 4257 028f 0E       		.uleb128 0xe
 4258 0290 3A       		.uleb128 0x3a
 4259 0291 0B       		.uleb128 0xb
 4260 0292 3B       		.uleb128 0x3b
 4261 0293 0B       		.uleb128 0xb
 4262 0294 27       		.uleb128 0x27
 4263 0295 19       		.uleb128 0x19
 4264 0296 49       		.uleb128 0x49
 4265 0297 13       		.uleb128 0x13
 4266 0298 11       		.uleb128 0x11
 4267 0299 01       		.uleb128 0x1
 4268 029a 12       		.uleb128 0x12
 4269 029b 06       		.uleb128 0x6
 4270 029c 40       		.uleb128 0x40
 4271 029d 18       		.uleb128 0x18
 4272 029e 9642     		.uleb128 0x2116
 4273 02a0 19       		.uleb128 0x19
 4274 02a1 00       		.byte	0
 4275 02a2 00       		.byte	0
 4276 02a3 30       		.uleb128 0x30
 4277 02a4 2E       		.uleb128 0x2e
 4278 02a5 00       		.byte	0
 4279 02a6 03       		.uleb128 0x3
 4280 02a7 0E       		.uleb128 0xe
 4281 02a8 3A       		.uleb128 0x3a
 4282 02a9 0B       		.uleb128 0xb
 4283 02aa 3B       		.uleb128 0x3b
 4284 02ab 0B       		.uleb128 0xb
 4285 02ac 27       		.uleb128 0x27
 4286 02ad 19       		.uleb128 0x19
 4287 02ae 49       		.uleb128 0x49
 4288 02af 13       		.uleb128 0x13
 4289 02b0 11       		.uleb128 0x11
 4290 02b1 01       		.uleb128 0x1
 4291 02b2 12       		.uleb128 0x12
 4292 02b3 06       		.uleb128 0x6
 4293 02b4 40       		.uleb128 0x40
 4294 02b5 18       		.uleb128 0x18
 4295 02b6 9742     		.uleb128 0x2117
 4296 02b8 19       		.uleb128 0x19
 4297 02b9 00       		.byte	0
 4298 02ba 00       		.byte	0
 4299 02bb 31       		.uleb128 0x31
 4300 02bc 34       		.uleb128 0x34
 4301 02bd 00       		.byte	0
 4302 02be 03       		.uleb128 0x3
 4303 02bf 0E       		.uleb128 0xe
 4304 02c0 49       		.uleb128 0x49
 4305 02c1 13       		.uleb128 0x13
 4306 02c2 34       		.uleb128 0x34
 4307 02c3 19       		.uleb128 0x19
 4308 02c4 02       		.uleb128 0x2
 4309 02c5 18       		.uleb128 0x18
 4310 02c6 00       		.byte	0
 4311 02c7 00       		.byte	0
 4312 02c8 32       		.uleb128 0x32
 4313 02c9 2E       		.uleb128 0x2e
ARM GAS  /tmp/ccUSzzA9.s 			page 77


 4314 02ca 00       		.byte	0
 4315 02cb 03       		.uleb128 0x3
 4316 02cc 0E       		.uleb128 0xe
 4317 02cd 3A       		.uleb128 0x3a
 4318 02ce 0B       		.uleb128 0xb
 4319 02cf 3B       		.uleb128 0x3b
 4320 02d0 05       		.uleb128 0x5
 4321 02d1 27       		.uleb128 0x27
 4322 02d2 19       		.uleb128 0x19
 4323 02d3 11       		.uleb128 0x11
 4324 02d4 01       		.uleb128 0x1
 4325 02d5 12       		.uleb128 0x12
 4326 02d6 06       		.uleb128 0x6
 4327 02d7 40       		.uleb128 0x40
 4328 02d8 18       		.uleb128 0x18
 4329 02d9 9642     		.uleb128 0x2116
 4330 02db 19       		.uleb128 0x19
 4331 02dc 00       		.byte	0
 4332 02dd 00       		.byte	0
 4333 02de 33       		.uleb128 0x33
 4334 02df 2E       		.uleb128 0x2e
 4335 02e0 01       		.byte	0x1
 4336 02e1 03       		.uleb128 0x3
 4337 02e2 0E       		.uleb128 0xe
 4338 02e3 3A       		.uleb128 0x3a
 4339 02e4 0B       		.uleb128 0xb
 4340 02e5 3B       		.uleb128 0x3b
 4341 02e6 05       		.uleb128 0x5
 4342 02e7 27       		.uleb128 0x27
 4343 02e8 19       		.uleb128 0x19
 4344 02e9 49       		.uleb128 0x49
 4345 02ea 13       		.uleb128 0x13
 4346 02eb 11       		.uleb128 0x11
 4347 02ec 01       		.uleb128 0x1
 4348 02ed 12       		.uleb128 0x12
 4349 02ee 06       		.uleb128 0x6
 4350 02ef 40       		.uleb128 0x40
 4351 02f0 18       		.uleb128 0x18
 4352 02f1 9742     		.uleb128 0x2117
 4353 02f3 19       		.uleb128 0x19
 4354 02f4 01       		.uleb128 0x1
 4355 02f5 13       		.uleb128 0x13
 4356 02f6 00       		.byte	0
 4357 02f7 00       		.byte	0
 4358 02f8 34       		.uleb128 0x34
 4359 02f9 2E       		.uleb128 0x2e
 4360 02fa 01       		.byte	0x1
 4361 02fb 03       		.uleb128 0x3
 4362 02fc 0E       		.uleb128 0xe
 4363 02fd 3A       		.uleb128 0x3a
 4364 02fe 0B       		.uleb128 0xb
 4365 02ff 3B       		.uleb128 0x3b
 4366 0300 05       		.uleb128 0x5
 4367 0301 27       		.uleb128 0x27
 4368 0302 19       		.uleb128 0x19
 4369 0303 11       		.uleb128 0x11
 4370 0304 01       		.uleb128 0x1
ARM GAS  /tmp/ccUSzzA9.s 			page 78


 4371 0305 12       		.uleb128 0x12
 4372 0306 06       		.uleb128 0x6
 4373 0307 40       		.uleb128 0x40
 4374 0308 18       		.uleb128 0x18
 4375 0309 9742     		.uleb128 0x2117
 4376 030b 19       		.uleb128 0x19
 4377 030c 01       		.uleb128 0x1
 4378 030d 13       		.uleb128 0x13
 4379 030e 00       		.byte	0
 4380 030f 00       		.byte	0
 4381 0310 35       		.uleb128 0x35
 4382 0311 1D       		.uleb128 0x1d
 4383 0312 01       		.byte	0x1
 4384 0313 31       		.uleb128 0x31
 4385 0314 13       		.uleb128 0x13
 4386 0315 11       		.uleb128 0x11
 4387 0316 01       		.uleb128 0x1
 4388 0317 12       		.uleb128 0x12
 4389 0318 06       		.uleb128 0x6
 4390 0319 58       		.uleb128 0x58
 4391 031a 0B       		.uleb128 0xb
 4392 031b 59       		.uleb128 0x59
 4393 031c 05       		.uleb128 0x5
 4394 031d 00       		.byte	0
 4395 031e 00       		.byte	0
 4396 031f 36       		.uleb128 0x36
 4397 0320 05       		.uleb128 0x5
 4398 0321 00       		.byte	0
 4399 0322 31       		.uleb128 0x31
 4400 0323 13       		.uleb128 0x13
 4401 0324 02       		.uleb128 0x2
 4402 0325 18       		.uleb128 0x18
 4403 0326 00       		.byte	0
 4404 0327 00       		.byte	0
 4405 0328 37       		.uleb128 0x37
 4406 0329 2E       		.uleb128 0x2e
 4407 032a 01       		.byte	0x1
 4408 032b 03       		.uleb128 0x3
 4409 032c 0E       		.uleb128 0xe
 4410 032d 3A       		.uleb128 0x3a
 4411 032e 0B       		.uleb128 0xb
 4412 032f 3B       		.uleb128 0x3b
 4413 0330 05       		.uleb128 0x5
 4414 0331 27       		.uleb128 0x27
 4415 0332 19       		.uleb128 0x19
 4416 0333 20       		.uleb128 0x20
 4417 0334 0B       		.uleb128 0xb
 4418 0335 00       		.byte	0
 4419 0336 00       		.byte	0
 4420 0337 38       		.uleb128 0x38
 4421 0338 05       		.uleb128 0x5
 4422 0339 00       		.byte	0
 4423 033a 03       		.uleb128 0x3
 4424 033b 0E       		.uleb128 0xe
 4425 033c 3A       		.uleb128 0x3a
 4426 033d 0B       		.uleb128 0xb
 4427 033e 3B       		.uleb128 0x3b
ARM GAS  /tmp/ccUSzzA9.s 			page 79


 4428 033f 05       		.uleb128 0x5
 4429 0340 49       		.uleb128 0x49
 4430 0341 13       		.uleb128 0x13
 4431 0342 00       		.byte	0
 4432 0343 00       		.byte	0
 4433 0344 00       		.byte	0
 4434              		.section	.debug_aranges,"",%progbits
 4435 0000 EC000000 		.4byte	0xec
 4436 0004 0200     		.2byte	0x2
 4437 0006 00000000 		.4byte	.Ldebug_info0
 4438 000a 04       		.byte	0x4
 4439 000b 00       		.byte	0
 4440 000c 0000     		.2byte	0
 4441 000e 0000     		.2byte	0
 4442 0010 00000000 		.4byte	.LFB127
 4443 0014 12000000 		.4byte	.LFE127-.LFB127
 4444 0018 00000000 		.4byte	.LFB128
 4445 001c 12000000 		.4byte	.LFE128-.LFB128
 4446 0020 00000000 		.4byte	.LFB140
 4447 0024 1A000000 		.4byte	.LFE140-.LFB140
 4448 0028 00000000 		.4byte	.LFB156
 4449 002c 12000000 		.4byte	.LFE156-.LFB156
 4450 0030 00000000 		.4byte	.LFB157
 4451 0034 3C000000 		.4byte	.LFE157-.LFB157
 4452 0038 00000000 		.4byte	.LFB164
 4453 003c 0C000000 		.4byte	.LFE164-.LFB164
 4454 0040 00000000 		.4byte	.LFB165
 4455 0044 1C000000 		.4byte	.LFE165-.LFB165
 4456 0048 00000000 		.4byte	.LFB178
 4457 004c 0C000000 		.4byte	.LFE178-.LFB178
 4458 0050 00000000 		.4byte	.LFB179
 4459 0054 0E000000 		.4byte	.LFE179-.LFB179
 4460 0058 00000000 		.4byte	.LFB192
 4461 005c 16000000 		.4byte	.LFE192-.LFB192
 4462 0060 00000000 		.4byte	.LFB193
 4463 0064 28000000 		.4byte	.LFE193-.LFB193
 4464 0068 00000000 		.4byte	.LFB194
 4465 006c 18000000 		.4byte	.LFE194-.LFB194
 4466 0070 00000000 		.4byte	.LFB199
 4467 0074 28000000 		.4byte	.LFE199-.LFB199
 4468 0078 00000000 		.4byte	.LFB200
 4469 007c 22000000 		.4byte	.LFE200-.LFB200
 4470 0080 00000000 		.4byte	.LFB201
 4471 0084 20000000 		.4byte	.LFE201-.LFB201
 4472 0088 00000000 		.4byte	.LFB202
 4473 008c 20000000 		.4byte	.LFE202-.LFB202
 4474 0090 00000000 		.4byte	.LFB231
 4475 0094 14000000 		.4byte	.LFE231-.LFB231
 4476 0098 00000000 		.4byte	.LFB232
 4477 009c 24000000 		.4byte	.LFE232-.LFB232
 4478 00a0 00000000 		.4byte	.LFB233
 4479 00a4 78010000 		.4byte	.LFE233-.LFB233
 4480 00a8 00000000 		.4byte	.LFB234
 4481 00ac 14000000 		.4byte	.LFE234-.LFB234
 4482 00b0 00000000 		.4byte	.LFB235
 4483 00b4 2C000000 		.4byte	.LFE235-.LFB235
 4484 00b8 00000000 		.4byte	.LFB236
ARM GAS  /tmp/ccUSzzA9.s 			page 80


 4485 00bc CC010000 		.4byte	.LFE236-.LFB236
 4486 00c0 00000000 		.4byte	.LFB237
 4487 00c4 14000000 		.4byte	.LFE237-.LFB237
 4488 00c8 00000000 		.4byte	.LFB238
 4489 00cc 20000000 		.4byte	.LFE238-.LFB238
 4490 00d0 00000000 		.4byte	.LFB239
 4491 00d4 B8000000 		.4byte	.LFE239-.LFB239
 4492 00d8 00000000 		.4byte	.LFB240
 4493 00dc 14000000 		.4byte	.LFE240-.LFB240
 4494 00e0 00000000 		.4byte	.LFB241
 4495 00e4 88010000 		.4byte	.LFE241-.LFB241
 4496 00e8 00000000 		.4byte	0
 4497 00ec 00000000 		.4byte	0
 4498              		.section	.debug_ranges,"",%progbits
 4499              	.Ldebug_ranges0:
 4500 0000 00000000 		.4byte	.LFB127
 4501 0004 12000000 		.4byte	.LFE127
 4502 0008 00000000 		.4byte	.LFB128
 4503 000c 12000000 		.4byte	.LFE128
 4504 0010 00000000 		.4byte	.LFB140
 4505 0014 1A000000 		.4byte	.LFE140
 4506 0018 00000000 		.4byte	.LFB156
 4507 001c 12000000 		.4byte	.LFE156
 4508 0020 00000000 		.4byte	.LFB157
 4509 0024 3C000000 		.4byte	.LFE157
 4510 0028 00000000 		.4byte	.LFB164
 4511 002c 0C000000 		.4byte	.LFE164
 4512 0030 00000000 		.4byte	.LFB165
 4513 0034 1C000000 		.4byte	.LFE165
 4514 0038 00000000 		.4byte	.LFB178
 4515 003c 0C000000 		.4byte	.LFE178
 4516 0040 00000000 		.4byte	.LFB179
 4517 0044 0E000000 		.4byte	.LFE179
 4518 0048 00000000 		.4byte	.LFB192
 4519 004c 16000000 		.4byte	.LFE192
 4520 0050 00000000 		.4byte	.LFB193
 4521 0054 28000000 		.4byte	.LFE193
 4522 0058 00000000 		.4byte	.LFB194
 4523 005c 18000000 		.4byte	.LFE194
 4524 0060 00000000 		.4byte	.LFB199
 4525 0064 28000000 		.4byte	.LFE199
 4526 0068 00000000 		.4byte	.LFB200
 4527 006c 22000000 		.4byte	.LFE200
 4528 0070 00000000 		.4byte	.LFB201
 4529 0074 20000000 		.4byte	.LFE201
 4530 0078 00000000 		.4byte	.LFB202
 4531 007c 20000000 		.4byte	.LFE202
 4532 0080 00000000 		.4byte	.LFB231
 4533 0084 14000000 		.4byte	.LFE231
 4534 0088 00000000 		.4byte	.LFB232
 4535 008c 24000000 		.4byte	.LFE232
 4536 0090 00000000 		.4byte	.LFB233
 4537 0094 78010000 		.4byte	.LFE233
 4538 0098 00000000 		.4byte	.LFB234
 4539 009c 14000000 		.4byte	.LFE234
 4540 00a0 00000000 		.4byte	.LFB235
 4541 00a4 2C000000 		.4byte	.LFE235
ARM GAS  /tmp/ccUSzzA9.s 			page 81


 4542 00a8 00000000 		.4byte	.LFB236
 4543 00ac CC010000 		.4byte	.LFE236
 4544 00b0 00000000 		.4byte	.LFB237
 4545 00b4 14000000 		.4byte	.LFE237
 4546 00b8 00000000 		.4byte	.LFB238
 4547 00bc 20000000 		.4byte	.LFE238
 4548 00c0 00000000 		.4byte	.LFB239
 4549 00c4 B8000000 		.4byte	.LFE239
 4550 00c8 00000000 		.4byte	.LFB240
 4551 00cc 14000000 		.4byte	.LFE240
 4552 00d0 00000000 		.4byte	.LFB241
 4553 00d4 88010000 		.4byte	.LFE241
 4554 00d8 00000000 		.4byte	0
 4555 00dc 00000000 		.4byte	0
 4556              		.section	.debug_line,"",%progbits
 4557              	.Ldebug_line0:
 4558 0000 9F050000 		.section	.debug_str,"MS",%progbits,1
 4558      02006402 
 4558      00000201 
 4558      FB0E0D00 
 4558      01010101 
 4559              	.LASF133:
 4560 0000 63665F6F 		.ascii	"cf_off_older\000"
 4560      66665F6F 
 4560      6C646572 
 4560      00
 4561              	.LASF58:
 4562 000d 72656164 		.ascii	"ready_list_t\000"
 4562      795F6C69 
 4562      73745F74 
 4562      00
 4563              	.LASF4:
 4564 001a 73697A65 		.ascii	"size_t\000"
 4564      5F7400
 4565              	.LASF108:
 4566 0021 7264796D 		.ascii	"rdymsg\000"
 4566      736700
 4567              	.LASF174:
 4568 0028 73656D31 		.ascii	"sem1_execute\000"
 4568      5F657865 
 4568      63757465 
 4568      00
 4569              	.LASF20:
 4570 0035 75696E74 		.ascii	"uint64_t\000"
 4570      36345F74 
 4570      00
 4571              	.LASF87:
 4572 003e 6B65726E 		.ascii	"kernel_stats\000"
 4572      656C5F73 
 4572      74617473 
 4572      00
 4573              	.LASF5:
 4574 004b 5F5F7569 		.ascii	"__uint8_t\000"
 4574      6E74385F 
 4574      7400
 4575              	.LASF95:
 4576 0055 706F7274 		.ascii	"port_intctx\000"
ARM GAS  /tmp/ccUSzzA9.s 			page 82


 4576      5F696E74 
 4576      63747800 
 4577              	.LASF57:
 4578 0061 63685F74 		.ascii	"ch_threads_queue\000"
 4578      68726561 
 4578      64735F71 
 4578      75657565 
 4578      00
 4579              	.LASF77:
 4580 0072 73797374 		.ascii	"system_debug_t\000"
 4580      656D5F64 
 4580      65627567 
 4580      5F7400
 4581              	.LASF88:
 4582 0081 69646C65 		.ascii	"idle_thread_wa\000"
 4582      5F746872 
 4582      6561645F 
 4582      776100
 4583              	.LASF194:
 4584 0090 706F7274 		.ascii	"port_lock\000"
 4584      5F6C6F63 
 4584      6B00
 4585              	.LASF99:
 4586 009a 776F7273 		.ascii	"worst\000"
 4586      7400
 4587              	.LASF102:
 4588 00a0 74696D65 		.ascii	"time_measurement_t\000"
 4588      5F6D6561 
 4588      73757265 
 4588      6D656E74 
 4588      5F7400
 4589              	.LASF15:
 4590 00b3 6C6F6E67 		.ascii	"long long unsigned int\000"
 4590      206C6F6E 
 4590      6720756E 
 4590      7369676E 
 4590      65642069 
 4591              	.LASF129:
 4592 00ca 63685F74 		.ascii	"ch_threadsize\000"
 4592      68726561 
 4592      6473697A 
 4592      6500
 4593              	.LASF109:
 4594 00d8 65786974 		.ascii	"exitcode\000"
 4594      636F6465 
 4594      00
 4595              	.LASF86:
 4596 00e1 6D61696E 		.ascii	"mainthread\000"
 4596      74687265 
 4596      616400
 4597              	.LASF156:
 4598 00ec 74657374 		.ascii	"test\000"
 4598      00
 4599              	.LASF74:
 4600 00f1 76697274 		.ascii	"virtual_timers_list_t\000"
 4600      75616C5F 
 4600      74696D65 
ARM GAS  /tmp/ccUSzzA9.s 			page 83


 4600      72735F6C 
 4600      6973745F 
 4601              	.LASF90:
 4602 0107 49544D5F 		.ascii	"ITM_RxBuffer\000"
 4602      52784275 
 4602      66666572 
 4602      00
 4603              	.LASF22:
 4604 0114 72747469 		.ascii	"rttime_t\000"
 4604      6D655F74 
 4604      00
 4605              	.LASF35:
 4606 011d 705F7072 		.ascii	"p_prio\000"
 4606      696F00
 4607              	.LASF136:
 4608 0124 63665F6F 		.ascii	"cf_off_state\000"
 4608      66665F73 
 4608      74617465 
 4608      00
 4609              	.LASF151:
 4610 0131 74656172 		.ascii	"teardown\000"
 4610      646F776E 
 4610      00
 4611              	.LASF76:
 4612 013a 76745F73 		.ascii	"vt_systime\000"
 4612      79737469 
 4612      6D6500
 4613              	.LASF1:
 4614 0145 6C6F6E67 		.ascii	"long long int\000"
 4614      206C6F6E 
 4614      6720696E 
 4614      7400
 4615              	.LASF3:
 4616 0153 7369676E 		.ascii	"signed char\000"
 4616      65642063 
 4616      68617200 
 4617              	.LASF135:
 4618 015f 63665F6F 		.ascii	"cf_off_stklimit\000"
 4618      66665F73 
 4618      746B6C69 
 4618      6D697400 
 4619              	.LASF137:
 4620 016f 63665F6F 		.ascii	"cf_off_flags\000"
 4620      66665F66 
 4620      6C616773 
 4620      00
 4621              	.LASF50:
 4622 017c 705F6D70 		.ascii	"p_mpool\000"
 4622      6F6F6C00 
 4623              	.LASF119:
 4624 0184 6D5F7175 		.ascii	"m_queue\000"
 4624      65756500 
 4625              	.LASF167:
 4626 018c 74687265 		.ascii	"thread3\000"
 4626      61643300 
 4627              	.LASF85:
 4628 0194 76746C69 		.ascii	"vtlist\000"
ARM GAS  /tmp/ccUSzzA9.s 			page 84


 4628      737400
 4629              	.LASF193:
 4630 019b 706F7274 		.ascii	"port_unlock\000"
 4630      5F756E6C 
 4630      6F636B00 
 4631              	.LASF177:
 4632 01a7 63684253 		.ascii	"chBSemSignal\000"
 4632      656D5369 
 4632      676E616C 
 4632      00
 4633              	.LASF170:
 4634 01b4 73656D32 		.ascii	"sem2_execute\000"
 4634      5F657865 
 4634      63757465 
 4634      00
 4635              	.LASF111:
 4636 01c1 77747472 		.ascii	"wttrp\000"
 4636      7000
 4637              	.LASF83:
 4638 01c7 63685F73 		.ascii	"ch_system\000"
 4638      79737465 
 4638      6D00
 4639              	.LASF11:
 4640 01d1 6C6F6E67 		.ascii	"long int\000"
 4640      20696E74 
 4640      00
 4641              	.LASF171:
 4642 01da 74617267 		.ascii	"target_time\000"
 4642      65745F74 
 4642      696D6500 
 4643              	.LASF24:
 4644 01e6 74737461 		.ascii	"tstate_t\000"
 4644      74655F74 
 4644      00
 4645              	.LASF195:
 4646 01ef 474E5520 		.ascii	"GNU C11 6.3.1 20170620 (release) [ARM/embedded-6-br"
 4646      43313120 
 4646      362E332E 
 4646      31203230 
 4646      31373036 
 4647 0222 616E6368 		.ascii	"anch revision 249437] -mcpu=cortex-m4 -mfloat-abi=h"
 4647      20726576 
 4647      6973696F 
 4647      6E203234 
 4647      39343337 
 4648 0255 61726420 		.ascii	"ard -mfpu=fpv4-sp-d16 -mno-thumb-interwork -mthumb "
 4648      2D6D6670 
 4648      753D6670 
 4648      76342D73 
 4648      702D6431 
 4649 0288 2D676764 		.ascii	"-ggdb -O0 -fomit-frame-pointer -falign-functions=16"
 4649      62202D4F 
 4649      30202D66 
 4649      6F6D6974 
 4649      2D667261 
 4650 02bb 202D6666 		.ascii	" -ffunction-sections -fdata-sections -fno-common -f"
 4650      756E6374 
ARM GAS  /tmp/ccUSzzA9.s 			page 85


 4650      696F6E2D 
 4650      73656374 
 4650      696F6E73 
 4651 02ee 73696E67 		.ascii	"single-precision-constant\000"
 4651      6C652D70 
 4651      72656369 
 4651      73696F6E 
 4651      2D636F6E 
 4652              	.LASF141:
 4653 0308 63686465 		.ascii	"chdebug_t\000"
 4653      6275675F 
 4653      7400
 4654              	.LASF153:
 4655 0312 62756666 		.ascii	"buffer\000"
 4655      657200
 4656              	.LASF37:
 4657 0319 705F6E65 		.ascii	"p_newer\000"
 4657      77657200 
 4658              	.LASF192:
 4659 0321 71756575 		.ascii	"queue_isempty\000"
 4659      655F6973 
 4659      656D7074 
 4659      7900
 4660              	.LASF116:
 4661 032f 735F7175 		.ascii	"s_queue\000"
 4661      65756500 
 4662              	.LASF78:
 4663 0337 63685F73 		.ascii	"ch_system_debug\000"
 4663      79737465 
 4663      6D5F6465 
 4663      62756700 
 4664              	.LASF63:
 4665 0347 725F6E65 		.ascii	"r_newer\000"
 4665      77657200 
 4666              	.LASF92:
 4667 034f 72656761 		.ascii	"regarm_t\000"
 4667      726D5F74 
 4667      00
 4668              	.LASF70:
 4669 0358 76745F70 		.ascii	"vt_prev\000"
 4669      72657600 
 4670              	.LASF173:
 4671 0360 73656D32 		.ascii	"sem2_setup\000"
 4671      5F736574 
 4671      757000
 4672              	.LASF163:
 4673 036b 73656D31 		.ascii	"sem1\000"
 4673      00
 4674              	.LASF180:
 4675 0370 74616B65 		.ascii	"taken\000"
 4675      6E00
 4676              	.LASF178:
 4677 0376 63684253 		.ascii	"chBSemSignalI\000"
 4677      656D5369 
 4677      676E616C 
 4677      4900
 4678              	.LASF146:
ARM GAS  /tmp/ccUSzzA9.s 			page 86


 4679 0384 6D757465 		.ascii	"mutex_t\000"
 4679      785F7400 
 4680              	.LASF201:
 4681 038c 76616C75 		.ascii	"value\000"
 4681      6500
 4682              	.LASF81:
 4683 0392 6C6F636B 		.ascii	"lock_cnt\000"
 4683      5F636E74 
 4683      00
 4684              	.LASF12:
 4685 039b 5F5F7569 		.ascii	"__uint32_t\000"
 4685      6E743332 
 4685      5F7400
 4686              	.LASF29:
 4687 03a6 636E745F 		.ascii	"cnt_t\000"
 4687      7400
 4688              	.LASF189:
 4689 03ac 63685654 		.ascii	"chVTGetSystemTimeX\000"
 4689      47657453 
 4689      79737465 
 4689      6D54696D 
 4689      655800
 4690              	.LASF40:
 4691 03bf 705F7374 		.ascii	"p_stklimit\000"
 4691      6B6C696D 
 4691      697400
 4692              	.LASF0:
 4693 03ca 756E7369 		.ascii	"unsigned int\000"
 4693      676E6564 
 4693      20696E74 
 4693      00
 4694              	.LASF69:
 4695 03d7 76745F6E 		.ascii	"vt_next\000"
 4695      65787400 
 4696              	.LASF17:
 4697 03df 75696E74 		.ascii	"uint16_t\000"
 4697      31365F74 
 4697      00
 4698              	.LASF91:
 4699 03e8 53797374 		.ascii	"SystemCoreClock\000"
 4699      656D436F 
 4699      7265436C 
 4699      6F636B00 
 4700              	.LASF168:
 4701 03f8 73656D33 		.ascii	"sem3_execute\000"
 4701      5F657865 
 4701      63757465 
 4701      00
 4702              	.LASF112:
 4703 0405 77747365 		.ascii	"wtsemp\000"
 4703      6D7000
 4704              	.LASF158:
 4705 040c 74657374 		.ascii	"testsem1\000"
 4705      73656D31 
 4705      00
 4706              	.LASF159:
 4707 0415 74657374 		.ascii	"testsem2\000"
ARM GAS  /tmp/ccUSzzA9.s 			page 87


 4707      73656D32 
 4707      00
 4708              	.LASF160:
 4709 041e 74657374 		.ascii	"testsem3\000"
 4709      73656D33 
 4709      00
 4710              	.LASF161:
 4711 0427 74657374 		.ascii	"testsem4\000"
 4711      73656D34 
 4711      00
 4712              	.LASF45:
 4713 0430 705F6D73 		.ascii	"p_msgqueue\000"
 4713      67717565 
 4713      756500
 4714              	.LASF181:
 4715 043b 63684253 		.ascii	"chBSemGetStateI\000"
 4715      656D4765 
 4715      74537461 
 4715      74654900 
 4716              	.LASF142:
 4717 044b 63685F64 		.ascii	"ch_debug\000"
 4717      65627567 
 4717      00
 4718              	.LASF103:
 4719 0454 6E5F6972 		.ascii	"n_irq\000"
 4719      7100
 4720              	.LASF117:
 4721 045a 735F636E 		.ascii	"s_cnt\000"
 4721      7400
 4722              	.LASF149:
 4723 0460 6E616D65 		.ascii	"name\000"
 4723      00
 4724              	.LASF9:
 4725 0465 73686F72 		.ascii	"short unsigned int\000"
 4725      7420756E 
 4725      7369676E 
 4725      65642069 
 4725      6E7400
 4726              	.LASF107:
 4727 0478 6B65726E 		.ascii	"kernel_stats_t\000"
 4727      656C5F73 
 4727      74617473 
 4727      5F7400
 4728              	.LASF54:
 4729 0487 63685F74 		.ascii	"ch_thread\000"
 4729      68726561 
 4729      6400
 4730              	.LASF164:
 4731 0491 6273656D 		.ascii	"bsem\000"
 4731      00
 4732              	.LASF27:
 4733 0496 6D73675F 		.ascii	"msg_t\000"
 4733      7400
 4734              	.LASF100:
 4735 049c 6C617374 		.ascii	"last\000"
 4735      00
 4736              	.LASF30:
ARM GAS  /tmp/ccUSzzA9.s 			page 88


 4737 04a1 75636E74 		.ascii	"ucnt_t\000"
 4737      5F7400
 4738              	.LASF82:
 4739 04a8 63685F73 		.ascii	"ch_system_t\000"
 4739      79737465 
 4739      6D5F7400 
 4740              	.LASF131:
 4741 04b4 63665F6F 		.ascii	"cf_off_ctx\000"
 4741      66665F63 
 4741      747800
 4742              	.LASF140:
 4743 04bf 63665F6F 		.ascii	"cf_off_time\000"
 4743      66665F74 
 4743      696D6500 
 4744              	.LASF188:
 4745 04cb 73797374 		.ascii	"systime\000"
 4745      696D6500 
 4746              	.LASF106:
 4747 04d3 6D5F6372 		.ascii	"m_crit_isr\000"
 4747      69745F69 
 4747      737200
 4748              	.LASF59:
 4749 04de 63685F72 		.ascii	"ch_ready_list\000"
 4749      65616479 
 4749      5F6C6973 
 4749      7400
 4750              	.LASF28:
 4751 04ec 6576656E 		.ascii	"eventmask_t\000"
 4751      746D6173 
 4751      6B5F7400 
 4752              	.LASF10:
 4753 04f8 5F5F696E 		.ascii	"__int32_t\000"
 4753      7433325F 
 4753      7400
 4754              	.LASF93:
 4755 0502 73746B61 		.ascii	"stkalign_t\000"
 4755      6C69676E 
 4755      5F7400
 4756              	.LASF53:
 4757 050d 74687265 		.ascii	"threads_list_t\000"
 4757      6164735F 
 4757      6C697374 
 4757      5F7400
 4758              	.LASF124:
 4759 051c 63685F7A 		.ascii	"ch_zero\000"
 4759      65726F00 
 4760              	.LASF138:
 4761 0524 63665F6F 		.ascii	"cf_off_refs\000"
 4761      66665F72 
 4761      65667300 
 4762              	.LASF165:
 4763 0530 73656D34 		.ascii	"sem4_execute\000"
 4763      5F657865 
 4763      63757465 
 4763      00
 4764              	.LASF61:
 4765 053d 725F7072 		.ascii	"r_prio\000"
ARM GAS  /tmp/ccUSzzA9.s 			page 89


 4765      696F00
 4766              	.LASF44:
 4767 0544 705F7761 		.ascii	"p_waiting\000"
 4767      6974696E 
 4767      6700
 4768              	.LASF196:
 4769 054e 2E2E2F43 		.ascii	"../ChibiOS/test/rt/testsem.c\000"
 4769      68696269 
 4769      4F532F74 
 4769      6573742F 
 4769      72742F74 
 4770              	.LASF89:
 4771 056b 73697A65 		.ascii	"sizetype\000"
 4771      74797065 
 4771      00
 4772              	.LASF75:
 4773 0574 63685F76 		.ascii	"ch_virtual_timers_list\000"
 4773      69727475 
 4773      616C5F74 
 4773      696D6572 
 4773      735F6C69 
 4774              	.LASF2:
 4775 058b 6C6F6E67 		.ascii	"long double\000"
 4775      20646F75 
 4775      626C6500 
 4776              	.LASF128:
 4777 0597 63685F74 		.ascii	"ch_timesize\000"
 4777      696D6573 
 4777      697A6500 
 4778              	.LASF176:
 4779 05a3 73656D31 		.ascii	"sem1_setup\000"
 4779      5F736574 
 4779      757000
 4780              	.LASF97:
 4781 05ae 746D5F63 		.ascii	"tm_calibration_t\000"
 4781      616C6962 
 4781      72617469 
 4781      6F6E5F74 
 4781      00
 4782              	.LASF134:
 4783 05bf 63665F6F 		.ascii	"cf_off_name\000"
 4783      66665F6E 
 4783      616D6500 
 4784              	.LASF38:
 4785 05cb 705F6F6C 		.ascii	"p_older\000"
 4785      64657200 
 4786              	.LASF175:
 4787 05d3 74687265 		.ascii	"thread1\000"
 4787      61643100 
 4788              	.LASF172:
 4789 05db 74687265 		.ascii	"thread2\000"
 4789      61643200 
 4790              	.LASF62:
 4791 05e3 725F6374 		.ascii	"r_ctx\000"
 4791      7800
 4792              	.LASF166:
 4793 05e9 74687265 		.ascii	"thread4\000"
ARM GAS  /tmp/ccUSzzA9.s 			page 90


 4793      61643400 
 4794              	.LASF169:
 4795 05f1 73656D33 		.ascii	"sem3_setup\000"
 4795      5F736574 
 4795      757000
 4796              	.LASF36:
 4797 05fc 705F6374 		.ascii	"p_ctx\000"
 4797      7800
 4798              	.LASF185:
 4799 0602 63685468 		.ascii	"chThdGetPriorityX\000"
 4799      64476574 
 4799      5072696F 
 4799      72697479 
 4799      5800
 4800              	.LASF150:
 4801 0614 73657475 		.ascii	"setup\000"
 4801      7000
 4802              	.LASF187:
 4803 061a 63685654 		.ascii	"chVTGetSystemTime\000"
 4803      47657453 
 4803      79737465 
 4803      6D54696D 
 4803      6500
 4804              	.LASF65:
 4805 062c 725F6375 		.ascii	"r_current\000"
 4805      7272656E 
 4805      7400
 4806              	.LASF64:
 4807 0636 725F6F6C 		.ascii	"r_older\000"
 4807      64657200 
 4808              	.LASF162:
 4809 063e 70617474 		.ascii	"patternsem\000"
 4809      65726E73 
 4809      656D00
 4810              	.LASF14:
 4811 0649 5F5F7569 		.ascii	"__uint64_t\000"
 4811      6E743634 
 4811      5F7400
 4812              	.LASF101:
 4813 0654 63756D75 		.ascii	"cumulative\000"
 4813      6C617469 
 4813      766500
 4814              	.LASF145:
 4815 065f 62696E61 		.ascii	"binary_semaphore_t\000"
 4815      72795F73 
 4815      656D6170 
 4815      686F7265 
 4815      5F7400
 4816              	.LASF25:
 4817 0672 74726566 		.ascii	"trefs_t\000"
 4817      735F7400 
 4818              	.LASF127:
 4819 067a 63685F70 		.ascii	"ch_ptrsize\000"
 4819      74727369 
 4819      7A6500
 4820              	.LASF67:
 4821 0685 76697274 		.ascii	"virtual_timer_t\000"
ARM GAS  /tmp/ccUSzzA9.s 			page 91


 4821      75616C5F 
 4821      74696D65 
 4821      725F7400 
 4822              	.LASF34:
 4823 0695 705F7072 		.ascii	"p_prev\000"
 4823      657600
 4824              	.LASF152:
 4825 069c 65786563 		.ascii	"execute\000"
 4825      75746500 
 4826              	.LASF26:
 4827 06a4 74707269 		.ascii	"tprio_t\000"
 4827      6F5F7400 
 4828              	.LASF104:
 4829 06ac 6E5F6374 		.ascii	"n_ctxswc\000"
 4829      78737763 
 4829      00
 4830              	.LASF147:
 4831 06b5 5F426F6F 		.ascii	"_Bool\000"
 4831      6C00
 4832              	.LASF18:
 4833 06bb 696E7433 		.ascii	"int32_t\000"
 4833      325F7400 
 4834              	.LASF6:
 4835 06c3 756E7369 		.ascii	"unsigned char\000"
 4835      676E6564 
 4835      20636861 
 4835      7200
 4836              	.LASF48:
 4837 06d1 705F6D74 		.ascii	"p_mtxlist\000"
 4837      786C6973 
 4837      7400
 4838              	.LASF7:
 4839 06db 73686F72 		.ascii	"short int\000"
 4839      7420696E 
 4839      7400
 4840              	.LASF41:
 4841 06e5 705F7374 		.ascii	"p_state\000"
 4841      61746500 
 4842              	.LASF155:
 4843 06ed 74687265 		.ascii	"threads\000"
 4843      61647300 
 4844              	.LASF157:
 4845 06f5 74657374 		.ascii	"test_timer_done\000"
 4845      5F74696D 
 4845      65725F64 
 4845      6F6E6500 
 4846              	.LASF114:
 4847 0705 65776D61 		.ascii	"ewmask\000"
 4847      736B00
 4848              	.LASF33:
 4849 070c 705F6E65 		.ascii	"p_next\000"
 4849      787400
 4850              	.LASF23:
 4851 0713 746D6F64 		.ascii	"tmode_t\000"
 4851      655F7400 
 4852              	.LASF139:
 4853 071b 63665F6F 		.ascii	"cf_off_preempt\000"
ARM GAS  /tmp/ccUSzzA9.s 			page 92


 4853      66665F70 
 4853      7265656D 
 4853      707400
 4854              	.LASF42:
 4855 072a 705F666C 		.ascii	"p_flags\000"
 4855      61677300 
 4856              	.LASF199:
 4857 0732 5F5F6675 		.ascii	"__func__\000"
 4857      6E635F5F 
 4857      00
 4858              	.LASF51:
 4859 073b 705F7374 		.ascii	"p_stats\000"
 4859      61747300 
 4860              	.LASF191:
 4861 0743 63685379 		.ascii	"chSysLock\000"
 4861      734C6F63 
 4861      6B00
 4862              	.LASF143:
 4863 074d 73656D61 		.ascii	"semaphore_t\000"
 4863      70686F72 
 4863      655F7400 
 4864              	.LASF56:
 4865 0759 74687265 		.ascii	"threads_queue_t\000"
 4865      6164735F 
 4865      71756575 
 4865      655F7400 
 4866              	.LASF68:
 4867 0769 63685F76 		.ascii	"ch_virtual_timer\000"
 4867      69727475 
 4867      616C5F74 
 4867      696D6572 
 4867      00
 4868              	.LASF132:
 4869 077a 63665F6F 		.ascii	"cf_off_newer\000"
 4869      66665F6E 
 4869      65776572 
 4869      00
 4870              	.LASF148:
 4871 0787 74657374 		.ascii	"testcase\000"
 4871      63617365 
 4871      00
 4872              	.LASF115:
 4873 0790 63685F73 		.ascii	"ch_semaphore\000"
 4873      656D6170 
 4873      686F7265 
 4873      00
 4874              	.LASF47:
 4875 079d 705F6570 		.ascii	"p_epending\000"
 4875      656E6469 
 4875      6E6700
 4876              	.LASF19:
 4877 07a8 75696E74 		.ascii	"uint32_t\000"
 4877      33325F74 
 4877      00
 4878              	.LASF130:
 4879 07b1 63665F6F 		.ascii	"cf_off_prio\000"
 4879      66665F70 
ARM GAS  /tmp/ccUSzzA9.s 			page 93


 4879      72696F00 
 4880              	.LASF60:
 4881 07bd 725F7175 		.ascii	"r_queue\000"
 4881      65756500 
 4882              	.LASF55:
 4883 07c5 63685F74 		.ascii	"ch_threads_list\000"
 4883      68726561 
 4883      64735F6C 
 4883      69737400 
 4884              	.LASF125:
 4885 07d5 63685F73 		.ascii	"ch_size\000"
 4885      697A6500 
 4886              	.LASF13:
 4887 07dd 6C6F6E67 		.ascii	"long unsigned int\000"
 4887      20756E73 
 4887      69676E65 
 4887      6420696E 
 4887      7400
 4888              	.LASF122:
 4889 07ef 63686172 		.ascii	"char\000"
 4889      00
 4890              	.LASF113:
 4891 07f4 77746D74 		.ascii	"wtmtxp\000"
 4891      787000
 4892              	.LASF8:
 4893 07fb 5F5F7569 		.ascii	"__uint16_t\000"
 4893      6E743136 
 4893      5F7400
 4894              	.LASF182:
 4895 0806 63684253 		.ascii	"chBSemWait\000"
 4895      656D5761 
 4895      697400
 4896              	.LASF32:
 4897 0811 74687265 		.ascii	"thread_t\000"
 4897      61645F74 
 4897      00
 4898              	.LASF98:
 4899 081a 62657374 		.ascii	"best\000"
 4899      00
 4900              	.LASF121:
 4901 081f 6D5F6E65 		.ascii	"m_next\000"
 4901      787400
 4902              	.LASF31:
 4903 0826 73797374 		.ascii	"systime_t\000"
 4903      696D655F 
 4903      7400
 4904              	.LASF49:
 4905 0830 705F7265 		.ascii	"p_realprio\000"
 4905      616C7072 
 4905      696F00
 4906              	.LASF66:
 4907 083b 76746675 		.ascii	"vtfunc_t\000"
 4907      6E635F74 
 4907      00
 4908              	.LASF184:
 4909 0844 63685365 		.ascii	"chSemGetCounterI\000"
 4909      6D476574 
ARM GAS  /tmp/ccUSzzA9.s 			page 94


 4909      436F756E 
 4909      74657249 
 4909      00
 4910              	.LASF200:
 4911 0855 5F5F7365 		.ascii	"__set_BASEPRI\000"
 4911      745F4241 
 4911      53455052 
 4911      4900
 4912              	.LASF79:
 4913 0863 70616E69 		.ascii	"panic_msg\000"
 4913      635F6D73 
 4913      6700
 4914              	.LASF154:
 4915 086d 74657374 		.ascii	"test_global_fail\000"
 4915      5F676C6F 
 4915      62616C5F 
 4915      6661696C 
 4915      00
 4916              	.LASF96:
 4917 087e 6F666673 		.ascii	"offset\000"
 4917      657400
 4918              	.LASF94:
 4919 0885 636F6E74 		.ascii	"context\000"
 4919      65787400 
 4920              	.LASF46:
 4921 088d 705F6D73 		.ascii	"p_msg\000"
 4921      6700
 4922              	.LASF21:
 4923 0893 7274636E 		.ascii	"rtcnt_t\000"
 4923      745F7400 
 4924              	.LASF73:
 4925 089b 76745F70 		.ascii	"vt_par\000"
 4925      617200
 4926              	.LASF198:
 4927 08a2 74657374 		.ascii	"test_buffers\000"
 4927      5F627566 
 4927      66657273 
 4927      00
 4928              	.LASF118:
 4929 08af 63685F6D 		.ascii	"ch_mutex\000"
 4929      75746578 
 4929      00
 4930              	.LASF43:
 4931 08b8 705F7265 		.ascii	"p_refs\000"
 4931      667300
 4932              	.LASF80:
 4933 08bf 6973725F 		.ascii	"isr_cnt\000"
 4933      636E7400 
 4934              	.LASF84:
 4935 08c7 726C6973 		.ascii	"rlist\000"
 4935      7400
 4936              	.LASF186:
 4937 08cd 63685468 		.ascii	"chThdGetSelfX\000"
 4937      64476574 
 4937      53656C66 
 4937      5800
 4938              	.LASF16:
ARM GAS  /tmp/ccUSzzA9.s 			page 95


 4939 08db 75696E74 		.ascii	"uint8_t\000"
 4939      385F7400 
 4940              	.LASF52:
 4941 08e3 74687265 		.ascii	"thread_reference_t\000"
 4941      61645F72 
 4941      65666572 
 4941      656E6365 
 4941      5F7400
 4942              	.LASF110:
 4943 08f6 77746F62 		.ascii	"wtobjp\000"
 4943      6A7000
 4944              	.LASF39:
 4945 08fd 705F6E61 		.ascii	"p_name\000"
 4945      6D6500
 4946              	.LASF183:
 4947 0904 63684253 		.ascii	"chBSemObjectInit\000"
 4947      656D4F62 
 4947      6A656374 
 4947      496E6974 
 4947      00
 4948              	.LASF197:
 4949 0915 2F686F6D 		.ascii	"/home/matt/Documents/fibre-link/header-detection/pc"
 4949      652F6D61 
 4949      74742F44 
 4949      6F63756D 
 4949      656E7473 
 4950 0948 622F7374 		.ascii	"b/stm32/firmware\000"
 4950      6D33322F 
 4950      6669726D 
 4950      77617265 
 4950      00
 4951              	.LASF144:
 4952 0959 62735F73 		.ascii	"bs_sem\000"
 4952      656D00
 4953              	.LASF71:
 4954 0960 76745F64 		.ascii	"vt_delta\000"
 4954      656C7461 
 4954      00
 4955              	.LASF190:
 4956 0969 63685379 		.ascii	"chSysUnlock\000"
 4956      73556E6C 
 4956      6F636B00 
 4957              	.LASF126:
 4958 0975 63685F76 		.ascii	"ch_version\000"
 4958      65727369 
 4958      6F6E00
 4959              	.LASF179:
 4960 0980 63684253 		.ascii	"chBSemReset\000"
 4960      656D5265 
 4960      73657400 
 4961              	.LASF105:
 4962 098c 6D5F6372 		.ascii	"m_crit_thd\000"
 4962      69745F74 
 4962      686400
 4963              	.LASF120:
 4964 0997 6D5F6F77 		.ascii	"m_owner\000"
 4964      6E657200 
ARM GAS  /tmp/ccUSzzA9.s 			page 96


 4965              	.LASF123:
 4966 099f 63685F69 		.ascii	"ch_identifier\000"
 4966      64656E74 
 4966      69666965 
 4966      7200
 4967              	.LASF72:
 4968 09ad 76745F66 		.ascii	"vt_func\000"
 4968      756E6300 
 4969              		.ident	"GCC: (GNU Tools for ARM Embedded Processors 6-2017-q2-update) 6.3.1 20170620 (release) [AR
ARM GAS  /tmp/ccUSzzA9.s 			page 97


DEFINED SYMBOLS
                            *ABS*:0000000000000000 testsem.c
     /tmp/ccUSzzA9.s:18     .text.port_lock:0000000000000000 $t
     /tmp/ccUSzzA9.s:25     .text.port_lock:0000000000000000 port_lock
     /tmp/ccUSzzA9.s:60     .text.port_unlock:0000000000000000 $t
     /tmp/ccUSzzA9.s:67     .text.port_unlock:0000000000000000 port_unlock
     /tmp/ccUSzzA9.s:100    .text.queue_isempty:0000000000000000 $t
     /tmp/ccUSzzA9.s:107    .text.queue_isempty:0000000000000000 queue_isempty
     /tmp/ccUSzzA9.s:137    .text.chSysLock:0000000000000000 $t
     /tmp/ccUSzzA9.s:144    .text.chSysLock:0000000000000000 chSysLock
     /tmp/ccUSzzA9.s:168    .text.chSysUnlock:0000000000000000 $t
     /tmp/ccUSzzA9.s:175    .text.chSysUnlock:0000000000000000 chSysUnlock
     /tmp/ccUSzzA9.s:216    .text.chSysUnlock:0000000000000034 $d
     /tmp/ccUSzzA9.s:1748   .rodata.__func__.7157:0000000000000000 __func__.7157
     /tmp/ccUSzzA9.s:222    .text.chVTGetSystemTimeX:0000000000000000 $t
     /tmp/ccUSzzA9.s:229    .text.chVTGetSystemTimeX:0000000000000000 chVTGetSystemTimeX
     /tmp/ccUSzzA9.s:246    .text.chVTGetSystemTimeX:0000000000000008 $d
     /tmp/ccUSzzA9.s:251    .text.chVTGetSystemTime:0000000000000000 $t
     /tmp/ccUSzzA9.s:258    .text.chVTGetSystemTime:0000000000000000 chVTGetSystemTime
     /tmp/ccUSzzA9.s:288    .text.chThdGetSelfX:0000000000000000 $t
     /tmp/ccUSzzA9.s:295    .text.chThdGetSelfX:0000000000000000 chThdGetSelfX
     /tmp/ccUSzzA9.s:312    .text.chThdGetSelfX:0000000000000008 $d
     /tmp/ccUSzzA9.s:317    .text.chThdGetPriorityX:0000000000000000 $t
     /tmp/ccUSzzA9.s:324    .text.chThdGetPriorityX:0000000000000000 chThdGetPriorityX
     /tmp/ccUSzzA9.s:345    .text.chSemGetCounterI:0000000000000000 $t
     /tmp/ccUSzzA9.s:352    .text.chSemGetCounterI:0000000000000000 chSemGetCounterI
     /tmp/ccUSzzA9.s:380    .text.chBSemObjectInit:0000000000000000 $t
     /tmp/ccUSzzA9.s:387    .text.chBSemObjectInit:0000000000000000 chBSemObjectInit
     /tmp/ccUSzzA9.s:420    .text.chBSemWait:0000000000000000 $t
     /tmp/ccUSzzA9.s:427    .text.chBSemWait:0000000000000000 chBSemWait
     /tmp/ccUSzzA9.s:454    .text.chBSemReset:0000000000000000 $t
     /tmp/ccUSzzA9.s:461    .text.chBSemReset:0000000000000000 chBSemReset
     /tmp/ccUSzzA9.s:493    .text.chBSemSignalI:0000000000000000 $t
     /tmp/ccUSzzA9.s:500    .text.chBSemSignalI:0000000000000000 chBSemSignalI
     /tmp/ccUSzzA9.s:534    .text.chBSemSignal:0000000000000000 $t
     /tmp/ccUSzzA9.s:541    .text.chBSemSignal:0000000000000000 chBSemSignal
     /tmp/ccUSzzA9.s:572    .text.chBSemGetStateI:0000000000000000 $t
     /tmp/ccUSzzA9.s:579    .text.chBSemGetStateI:0000000000000000 chBSemGetStateI
     /tmp/ccUSzzA9.s:611    .data.sem1:0000000000000000 $d
     /tmp/ccUSzzA9.s:614    .data.sem1:0000000000000000 sem1
     /tmp/ccUSzzA9.s:619    .text.sem1_setup:0000000000000000 $t
     /tmp/ccUSzzA9.s:626    .text.sem1_setup:0000000000000000 sem1_setup
     /tmp/ccUSzzA9.s:647    .text.sem1_setup:0000000000000010 $d
     /tmp/ccUSzzA9.s:652    .text.thread1:0000000000000000 $t
     /tmp/ccUSzzA9.s:659    .text.thread1:0000000000000000 thread1
     /tmp/ccUSzzA9.s:688    .text.thread1:0000000000000020 $d
     /tmp/ccUSzzA9.s:693    .rodata:0000000000000000 $d
     /tmp/ccUSzzA9.s:712    .text.sem1_execute:0000000000000000 $t
     /tmp/ccUSzzA9.s:719    .text.sem1_execute:0000000000000000 sem1_execute
     /tmp/ccUSzzA9.s:892    .text.sem1_execute:0000000000000150 $d
     /tmp/ccUSzzA9.s:914    .rodata.testsem1:0000000000000000 testsem1
     /tmp/ccUSzzA9.s:911    .rodata.testsem1:0000000000000000 $d
     /tmp/ccUSzzA9.s:920    .text.sem2_setup:0000000000000000 $t
     /tmp/ccUSzzA9.s:927    .text.sem2_setup:0000000000000000 sem2_setup
     /tmp/ccUSzzA9.s:947    .text.sem2_setup:0000000000000010 $d
     /tmp/ccUSzzA9.s:952    .text.thread2:0000000000000000 $t
     /tmp/ccUSzzA9.s:959    .text.thread2:0000000000000000 thread2
ARM GAS  /tmp/ccUSzzA9.s 			page 98


     /tmp/ccUSzzA9.s:992    .text.thread2:0000000000000028 $d
     /tmp/ccUSzzA9.s:997    .text.sem2_execute:0000000000000000 $t
     /tmp/ccUSzzA9.s:1004   .text.sem2_execute:0000000000000000 sem2_execute
     /tmp/ccUSzzA9.s:1252   .text.sem2_execute:00000000000001b8 $d
     /tmp/ccUSzzA9.s:1269   .rodata.testsem2:0000000000000000 testsem2
     /tmp/ccUSzzA9.s:1266   .rodata.testsem2:0000000000000000 $d
     /tmp/ccUSzzA9.s:1275   .text.sem3_setup:0000000000000000 $t
     /tmp/ccUSzzA9.s:1282   .text.sem3_setup:0000000000000000 sem3_setup
     /tmp/ccUSzzA9.s:1302   .text.sem3_setup:0000000000000010 $d
     /tmp/ccUSzzA9.s:1307   .text.thread3:0000000000000000 $t
     /tmp/ccUSzzA9.s:1314   .text.thread3:0000000000000000 thread3
     /tmp/ccUSzzA9.s:1341   .text.thread3:000000000000001c $d
     /tmp/ccUSzzA9.s:1346   .text.sem3_execute:0000000000000000 $t
     /tmp/ccUSzzA9.s:1353   .text.sem3_execute:0000000000000000 sem3_execute
     /tmp/ccUSzzA9.s:1456   .text.sem3_execute:00000000000000a8 $d
     /tmp/ccUSzzA9.s:1472   .rodata.testsem3:0000000000000000 testsem3
     /tmp/ccUSzzA9.s:1469   .rodata.testsem3:0000000000000000 $d
     /tmp/ccUSzzA9.s:1478   .text.thread4:0000000000000000 $t
     /tmp/ccUSzzA9.s:1485   .text.thread4:0000000000000000 thread4
     /tmp/ccUSzzA9.s:1510   .text.sem4_execute:0000000000000000 $t
     /tmp/ccUSzzA9.s:1517   .text.sem4_execute:0000000000000000 sem4_execute
     /tmp/ccUSzzA9.s:1713   .text.sem4_execute:000000000000017c $d
     /tmp/ccUSzzA9.s:1728   .rodata.testsem4:0000000000000000 testsem4
     /tmp/ccUSzzA9.s:1725   .rodata.testsem4:0000000000000000 $d
     /tmp/ccUSzzA9.s:1738   .rodata.patternsem:0000000000000000 patternsem
     /tmp/ccUSzzA9.s:1735   .rodata.patternsem:0000000000000000 $d
     /tmp/ccUSzzA9.s:1745   .rodata.__func__.7157:0000000000000000 $d
                     .debug_frame:0000000000000010 $d

UNDEFINED SYMBOLS
_stats_start_measure_crit_thd
_dbg_check_lock
_dbg_check_unlock
_stats_stop_measure_crit_thd
chSysHalt
ch
chDbgCheckClassI
chSemObjectInit
chSemWait
chSemReset
chSemSignalI
chSchRescheduleS
test_emit_token
chThdCreateStatic
chSemSignal
test_wait_threads
_test_assert_sequence
chSemAddCounterI
_test_assert
wa
threads
chThdSleep
chSemWaitTimeout
test_wait_tick
_test_assert_time_window
chSemSignalWait
