ARM GAS  /tmp/ccjFQPnC.s 			page 1


   1              		.cpu cortex-m4
   2              		.eabi_attribute 27, 1
   3              		.eabi_attribute 28, 1
   4              		.eabi_attribute 20, 1
   5              		.eabi_attribute 21, 1
   6              		.eabi_attribute 23, 3
   7              		.eabi_attribute 24, 1
   8              		.eabi_attribute 25, 1
   9              		.eabi_attribute 26, 1
  10              		.eabi_attribute 30, 6
  11              		.eabi_attribute 34, 1
  12              		.eabi_attribute 18, 4
  13              		.file	"testevt.c"
  14              		.text
  15              	.Ltext0:
  16              		.cfi_sections	.debug_frame
  17              		.section	.text.port_lock,"ax",%progbits
  18              		.align	1
  19              		.p2align 4,,15
  20              		.syntax unified
  21              		.thumb
  22              		.thumb_func
  23              		.fpu fpv4-sp-d16
  24              		.type	port_lock, %function
  25              	port_lock:
  26              	.LFB127:
  27              		.file 1 "../ChibiOS/os/rt/ports/ARMCMx/chcore_v7m.h"
  28              		.loc 1 456 0
  29              		.cfi_startproc
  30              		@ args = 0, pretend = 0, frame = 8
  31              		@ frame_needed = 0, uses_anonymous_args = 0
  32              		@ link register save eliminated.
  33 0000 82B0     		sub	sp, sp, #8
  34              		.cfi_def_cfa_offset 8
  35 0002 2023     		movs	r3, #32
  36 0004 0193     		str	r3, [sp, #4]
  37              	.LBB6:
  38              	.LBB7:
  39              		.file 2 "../ChibiOS/os/ext/CMSIS/include/core_cmFunc.h"
  40              		.loc 2 548 0
  41 0006 019B     		ldr	r3, [sp, #4]
  42              		.syntax unified
  43              	@ 548 "../ChibiOS/os/ext/CMSIS/include/core_cmFunc.h" 1
  44 0008 83F31188 		MSR basepri, r3
  45              	@ 0 "" 2
  46              		.thumb
  47              		.syntax unified
  48              	.LBE7:
  49              	.LBE6:
  50              		.loc 1 473 0
  51 000c 00BF     		nop
  52 000e 02B0     		add	sp, sp, #8
  53              		.cfi_def_cfa_offset 0
  54              		@ sp needed
  55 0010 7047     		bx	lr
  56              		.cfi_endproc
  57              	.LFE127:
ARM GAS  /tmp/ccjFQPnC.s 			page 2


  58              		.size	port_lock, .-port_lock
  59 0012 00BF     		.section	.text.port_unlock,"ax",%progbits
  60              		.align	1
  61              		.p2align 4,,15
  62              		.syntax unified
  63              		.thumb
  64              		.thumb_func
  65              		.fpu fpv4-sp-d16
  66              		.type	port_unlock, %function
  67              	port_unlock:
  68              	.LFB128:
  69              		.loc 1 480 0
  70              		.cfi_startproc
  71              		@ args = 0, pretend = 0, frame = 8
  72              		@ frame_needed = 0, uses_anonymous_args = 0
  73              		@ link register save eliminated.
  74 0000 82B0     		sub	sp, sp, #8
  75              		.cfi_def_cfa_offset 8
  76 0002 0023     		movs	r3, #0
  77 0004 0193     		str	r3, [sp, #4]
  78              	.LBB8:
  79              	.LBB9:
  80              		.loc 2 548 0
  81 0006 019B     		ldr	r3, [sp, #4]
  82              		.syntax unified
  83              	@ 548 "../ChibiOS/os/ext/CMSIS/include/core_cmFunc.h" 1
  84 0008 83F31188 		MSR basepri, r3
  85              	@ 0 "" 2
  86              		.thumb
  87              		.syntax unified
  88              	.LBE9:
  89              	.LBE8:
  90              		.loc 1 487 0
  91 000c 00BF     		nop
  92 000e 02B0     		add	sp, sp, #8
  93              		.cfi_def_cfa_offset 0
  94              		@ sp needed
  95 0010 7047     		bx	lr
  96              		.cfi_endproc
  97              	.LFE128:
  98              		.size	port_unlock, .-port_unlock
  99 0012 00BF     		.section	.text.chSysLock,"ax",%progbits
 100              		.align	1
 101              		.p2align 4,,15
 102              		.syntax unified
 103              		.thumb
 104              		.thumb_func
 105              		.fpu fpv4-sp-d16
 106              		.type	chSysLock, %function
 107              	chSysLock:
 108              	.LFB156:
 109              		.file 3 "../ChibiOS/os/rt/include/chsys.h"
 110              		.loc 3 346 0
 111              		.cfi_startproc
 112              		@ args = 0, pretend = 0, frame = 0
 113              		@ frame_needed = 0, uses_anonymous_args = 0
 114 0000 08B5     		push	{r3, lr}
ARM GAS  /tmp/ccjFQPnC.s 			page 3


 115              		.cfi_def_cfa_offset 8
 116              		.cfi_offset 3, -8
 117              		.cfi_offset 14, -4
 118              		.loc 3 348 0
 119 0002 FFF7FEFF 		bl	port_lock
 120              		.loc 3 349 0
 121 0006 FFF7FEFF 		bl	_stats_start_measure_crit_thd
 122              		.loc 3 350 0
 123 000a FFF7FEFF 		bl	_dbg_check_lock
 124              		.loc 3 351 0
 125 000e 00BF     		nop
 126 0010 08BD     		pop	{r3, pc}
 127              		.cfi_endproc
 128              	.LFE156:
 129              		.size	chSysLock, .-chSysLock
 130 0012 00BF     		.section	.text.chSysUnlock,"ax",%progbits
 131              		.align	1
 132              		.p2align 4,,15
 133              		.syntax unified
 134              		.thumb
 135              		.thumb_func
 136              		.fpu fpv4-sp-d16
 137              		.type	chSysUnlock, %function
 138              	chSysUnlock:
 139              	.LFB157:
 140              		.loc 3 358 0
 141              		.cfi_startproc
 142              		@ args = 0, pretend = 0, frame = 0
 143              		@ frame_needed = 0, uses_anonymous_args = 0
 144 0000 08B5     		push	{r3, lr}
 145              		.cfi_def_cfa_offset 8
 146              		.cfi_offset 3, -8
 147              		.cfi_offset 14, -4
 148              		.loc 3 360 0
 149 0002 FFF7FEFF 		bl	_dbg_check_unlock
 150              		.loc 3 361 0
 151 0006 FFF7FEFF 		bl	_stats_stop_measure_crit_thd
 152              		.loc 3 367 0
 153 000a 0A4B     		ldr	r3, .L6
 154 000c 1B68     		ldr	r3, [r3]
 155 000e 094A     		ldr	r2, .L6
 156 0010 9342     		cmp	r3, r2
 157 0012 0AD0     		beq	.L5
 158              		.loc 3 367 0 is_stmt 0 discriminator 2
 159 0014 074B     		ldr	r3, .L6
 160 0016 9B69     		ldr	r3, [r3, #24]
 161 0018 9A68     		ldr	r2, [r3, #8]
 162 001a 064B     		ldr	r3, .L6
 163 001c 1B68     		ldr	r3, [r3]
 164 001e 9B68     		ldr	r3, [r3, #8]
 165 0020 9A42     		cmp	r2, r3
 166 0022 02D2     		bcs	.L5
 167              		.loc 3 367 0 discriminator 3
 168 0024 0448     		ldr	r0, .L6+4
 169 0026 FFF7FEFF 		bl	chSysHalt
 170              	.L5:
 171              		.loc 3 371 0 is_stmt 1
ARM GAS  /tmp/ccjFQPnC.s 			page 4


 172 002a FFF7FEFF 		bl	port_unlock
 173              		.loc 3 372 0
 174 002e 00BF     		nop
 175 0030 08BD     		pop	{r3, pc}
 176              	.L7:
 177 0032 00BF     		.align	2
 178              	.L6:
 179 0034 00000000 		.word	ch
 180 0038 00000000 		.word	__func__.7157
 181              		.cfi_endproc
 182              	.LFE157:
 183              		.size	chSysUnlock, .-chSysUnlock
 184              		.section	.text.chVTGetSystemTimeX,"ax",%progbits
 185              		.align	1
 186              		.p2align 4,,15
 187              		.syntax unified
 188              		.thumb
 189              		.thumb_func
 190              		.fpu fpv4-sp-d16
 191              		.type	chVTGetSystemTimeX, %function
 192              	chVTGetSystemTimeX:
 193              	.LFB164:
 194              		.file 4 "../ChibiOS/os/rt/include/chvt.h"
 195              		.loc 4 228 0
 196              		.cfi_startproc
 197              		@ args = 0, pretend = 0, frame = 0
 198              		@ frame_needed = 0, uses_anonymous_args = 0
 199              		@ link register save eliminated.
 200              		.loc 4 231 0
 201 0000 014B     		ldr	r3, .L10
 202 0002 9B6A     		ldr	r3, [r3, #40]
 203              		.loc 4 235 0
 204 0004 1846     		mov	r0, r3
 205 0006 7047     		bx	lr
 206              	.L11:
 207              		.align	2
 208              	.L10:
 209 0008 00000000 		.word	ch
 210              		.cfi_endproc
 211              	.LFE164:
 212              		.size	chVTGetSystemTimeX, .-chVTGetSystemTimeX
 213              		.section	.text.chVTGetSystemTime,"ax",%progbits
 214              		.align	1
 215              		.p2align 4,,15
 216              		.syntax unified
 217              		.thumb
 218              		.thumb_func
 219              		.fpu fpv4-sp-d16
 220              		.type	chVTGetSystemTime, %function
 221              	chVTGetSystemTime:
 222              	.LFB165:
 223              		.loc 4 247 0
 224              		.cfi_startproc
 225              		@ args = 0, pretend = 0, frame = 8
 226              		@ frame_needed = 0, uses_anonymous_args = 0
 227 0000 00B5     		push	{lr}
 228              		.cfi_def_cfa_offset 4
ARM GAS  /tmp/ccjFQPnC.s 			page 5


 229              		.cfi_offset 14, -4
 230 0002 83B0     		sub	sp, sp, #12
 231              		.cfi_def_cfa_offset 16
 232              		.loc 4 250 0
 233 0004 FFF7FEFF 		bl	chSysLock
 234              		.loc 4 251 0
 235 0008 FFF7FEFF 		bl	chVTGetSystemTimeX
 236 000c 0190     		str	r0, [sp, #4]
 237              		.loc 4 252 0
 238 000e FFF7FEFF 		bl	chSysUnlock
 239              		.loc 4 254 0
 240 0012 019B     		ldr	r3, [sp, #4]
 241              		.loc 4 255 0
 242 0014 1846     		mov	r0, r3
 243 0016 03B0     		add	sp, sp, #12
 244              		.cfi_def_cfa_offset 4
 245              		@ sp needed
 246 0018 5DF804FB 		ldr	pc, [sp], #4
 247              		.cfi_endproc
 248              	.LFE165:
 249              		.size	chVTGetSystemTime, .-chVTGetSystemTime
 250              		.section	.text.chThdGetSelfX,"ax",%progbits
 251              		.align	1
 252              		.p2align 4,,15
 253              		.syntax unified
 254              		.thumb
 255              		.thumb_func
 256              		.fpu fpv4-sp-d16
 257              		.type	chThdGetSelfX, %function
 258              	chThdGetSelfX:
 259              	.LFB178:
 260              		.file 5 "../ChibiOS/os/rt/include/chthreads.h"
 261              		.loc 5 174 0
 262              		.cfi_startproc
 263              		@ args = 0, pretend = 0, frame = 0
 264              		@ frame_needed = 0, uses_anonymous_args = 0
 265              		@ link register save eliminated.
 266              		.loc 5 176 0
 267 0000 014B     		ldr	r3, .L16
 268 0002 9B69     		ldr	r3, [r3, #24]
 269              		.loc 5 177 0
 270 0004 1846     		mov	r0, r3
 271 0006 7047     		bx	lr
 272              	.L17:
 273              		.align	2
 274              	.L16:
 275 0008 00000000 		.word	ch
 276              		.cfi_endproc
 277              	.LFE178:
 278              		.size	chThdGetSelfX, .-chThdGetSelfX
 279              		.section	.text.chThdGetPriorityX,"ax",%progbits
 280              		.align	1
 281              		.p2align 4,,15
 282              		.syntax unified
 283              		.thumb
 284              		.thumb_func
 285              		.fpu fpv4-sp-d16
ARM GAS  /tmp/ccjFQPnC.s 			page 6


 286              		.type	chThdGetPriorityX, %function
 287              	chThdGetPriorityX:
 288              	.LFB179:
 289              		.loc 5 187 0
 290              		.cfi_startproc
 291              		@ args = 0, pretend = 0, frame = 0
 292              		@ frame_needed = 0, uses_anonymous_args = 0
 293 0000 08B5     		push	{r3, lr}
 294              		.cfi_def_cfa_offset 8
 295              		.cfi_offset 3, -8
 296              		.cfi_offset 14, -4
 297              		.loc 5 189 0
 298 0002 FFF7FEFF 		bl	chThdGetSelfX
 299 0006 0346     		mov	r3, r0
 300 0008 9B68     		ldr	r3, [r3, #8]
 301              		.loc 5 190 0
 302 000a 1846     		mov	r0, r3
 303 000c 08BD     		pop	{r3, pc}
 304              		.cfi_endproc
 305              	.LFE179:
 306              		.size	chThdGetPriorityX, .-chThdGetPriorityX
 307 000e 00BF     		.section	.text.chEvtObjectInit,"ax",%progbits
 308              		.align	1
 309              		.p2align 4,,15
 310              		.syntax unified
 311              		.thumb
 312              		.thumb_func
 313              		.fpu fpv4-sp-d16
 314              		.type	chEvtObjectInit, %function
 315              	chEvtObjectInit:
 316              	.LFB205:
 317              		.file 6 "../ChibiOS/os/rt/include/chevents.h"
 318              		.loc 6 170 0
 319              		.cfi_startproc
 320              		@ args = 0, pretend = 0, frame = 8
 321              		@ frame_needed = 0, uses_anonymous_args = 0
 322              		@ link register save eliminated.
 323 0000 82B0     		sub	sp, sp, #8
 324              		.cfi_def_cfa_offset 8
 325 0002 0190     		str	r0, [sp, #4]
 326              		.loc 6 172 0
 327 0004 019B     		ldr	r3, [sp, #4]
 328 0006 019A     		ldr	r2, [sp, #4]
 329 0008 1A60     		str	r2, [r3]
 330              		.loc 6 173 0
 331 000a 00BF     		nop
 332 000c 02B0     		add	sp, sp, #8
 333              		.cfi_def_cfa_offset 0
 334              		@ sp needed
 335 000e 7047     		bx	lr
 336              		.cfi_endproc
 337              	.LFE205:
 338              		.size	chEvtObjectInit, .-chEvtObjectInit
 339              		.section	.text.chEvtRegisterMask,"ax",%progbits
 340              		.align	1
 341              		.p2align 4,,15
 342              		.syntax unified
ARM GAS  /tmp/ccjFQPnC.s 			page 7


 343              		.thumb
 344              		.thumb_func
 345              		.fpu fpv4-sp-d16
 346              		.type	chEvtRegisterMask, %function
 347              	chEvtRegisterMask:
 348              	.LFB206:
 349              		.loc 6 191 0
 350              		.cfi_startproc
 351              		@ args = 0, pretend = 0, frame = 16
 352              		@ frame_needed = 0, uses_anonymous_args = 0
 353 0000 00B5     		push	{lr}
 354              		.cfi_def_cfa_offset 4
 355              		.cfi_offset 14, -4
 356 0002 85B0     		sub	sp, sp, #20
 357              		.cfi_def_cfa_offset 24
 358 0004 0390     		str	r0, [sp, #12]
 359 0006 0291     		str	r1, [sp, #8]
 360 0008 0192     		str	r2, [sp, #4]
 361              		.loc 6 193 0
 362 000a 4FF0FF33 		mov	r3, #-1
 363 000e 019A     		ldr	r2, [sp, #4]
 364 0010 0299     		ldr	r1, [sp, #8]
 365 0012 0398     		ldr	r0, [sp, #12]
 366 0014 FFF7FEFF 		bl	chEvtRegisterMaskWithFlags
 367              		.loc 6 194 0
 368 0018 00BF     		nop
 369 001a 05B0     		add	sp, sp, #20
 370              		.cfi_def_cfa_offset 4
 371              		@ sp needed
 372 001c 5DF804FB 		ldr	pc, [sp], #4
 373              		.cfi_endproc
 374              	.LFE206:
 375              		.size	chEvtRegisterMask, .-chEvtRegisterMask
 376              		.section	.text.chEvtIsListeningI,"ax",%progbits
 377              		.align	1
 378              		.p2align 4,,15
 379              		.syntax unified
 380              		.thumb
 381              		.thumb_func
 382              		.fpu fpv4-sp-d16
 383              		.type	chEvtIsListeningI, %function
 384              	chEvtIsListeningI:
 385              	.LFB208:
 386              		.loc 6 224 0
 387              		.cfi_startproc
 388              		@ args = 0, pretend = 0, frame = 8
 389              		@ frame_needed = 0, uses_anonymous_args = 0
 390              		@ link register save eliminated.
 391 0000 82B0     		sub	sp, sp, #8
 392              		.cfi_def_cfa_offset 8
 393 0002 0190     		str	r0, [sp, #4]
 394              		.loc 6 226 0
 395 0004 019B     		ldr	r3, [sp, #4]
 396 0006 1A68     		ldr	r2, [r3]
 397 0008 019B     		ldr	r3, [sp, #4]
 398 000a 9A42     		cmp	r2, r3
 399 000c 14BF     		ite	ne
ARM GAS  /tmp/ccjFQPnC.s 			page 8


 400 000e 0123     		movne	r3, #1
 401 0010 0023     		moveq	r3, #0
 402 0012 DBB2     		uxtb	r3, r3
 403              		.loc 6 227 0
 404 0014 1846     		mov	r0, r3
 405 0016 02B0     		add	sp, sp, #8
 406              		.cfi_def_cfa_offset 0
 407              		@ sp needed
 408 0018 7047     		bx	lr
 409              		.cfi_endproc
 410              	.LFE208:
 411              		.size	chEvtIsListeningI, .-chEvtIsListeningI
 412 001a 00BF     		.section	.text.chEvtBroadcast,"ax",%progbits
 413              		.align	1
 414              		.p2align 4,,15
 415              		.syntax unified
 416              		.thumb
 417              		.thumb_func
 418              		.fpu fpv4-sp-d16
 419              		.type	chEvtBroadcast, %function
 420              	chEvtBroadcast:
 421              	.LFB209:
 422              		.loc 6 237 0
 423              		.cfi_startproc
 424              		@ args = 0, pretend = 0, frame = 8
 425              		@ frame_needed = 0, uses_anonymous_args = 0
 426 0000 00B5     		push	{lr}
 427              		.cfi_def_cfa_offset 4
 428              		.cfi_offset 14, -4
 429 0002 83B0     		sub	sp, sp, #12
 430              		.cfi_def_cfa_offset 16
 431 0004 0190     		str	r0, [sp, #4]
 432              		.loc 6 239 0
 433 0006 0021     		movs	r1, #0
 434 0008 0198     		ldr	r0, [sp, #4]
 435 000a FFF7FEFF 		bl	chEvtBroadcastFlags
 436              		.loc 6 240 0
 437 000e 00BF     		nop
 438 0010 03B0     		add	sp, sp, #12
 439              		.cfi_def_cfa_offset 4
 440              		@ sp needed
 441 0012 5DF804FB 		ldr	pc, [sp], #4
 442              		.cfi_endproc
 443              	.LFE209:
 444              		.size	chEvtBroadcast, .-chEvtBroadcast
 445 0016 00BF     		.section	.data.es1,"aw",%progbits
 446              		.align	2
 447              		.type	es1, %object
 448              		.size	es1, 4
 449              	es1:
 450 0000 00000000 		.word	es1
 451              		.section	.data.es2,"aw",%progbits
 452              		.align	2
 453              		.type	es2, %object
 454              		.size	es2, 4
 455              	es2:
 456 0000 00000000 		.word	es2
ARM GAS  /tmp/ccjFQPnC.s 			page 9


 457              		.section	.text.evt1_setup,"ax",%progbits
 458              		.align	1
 459              		.p2align 4,,15
 460              		.syntax unified
 461              		.thumb
 462              		.thumb_func
 463              		.fpu fpv4-sp-d16
 464              		.type	evt1_setup, %function
 465              	evt1_setup:
 466              	.LFB231:
 467              		.file 7 "../ChibiOS/test/rt/testevt.c"
 468              		.loc 7 75 0
 469              		.cfi_startproc
 470              		@ args = 0, pretend = 0, frame = 0
 471              		@ frame_needed = 0, uses_anonymous_args = 0
 472 0000 08B5     		push	{r3, lr}
 473              		.cfi_def_cfa_offset 8
 474              		.cfi_offset 3, -8
 475              		.cfi_offset 14, -4
 476              		.loc 7 77 0
 477 0002 4FF0FF30 		mov	r0, #-1
 478 0006 FFF7FEFF 		bl	chEvtGetAndClearEvents
 479              		.loc 7 78 0
 480 000a 00BF     		nop
 481 000c 08BD     		pop	{r3, pc}
 482              		.cfi_endproc
 483              	.LFE231:
 484              		.size	evt1_setup, .-evt1_setup
 485 000e 00BF     		.section	.text.h1,"ax",%progbits
 486              		.align	1
 487              		.p2align 4,,15
 488              		.syntax unified
 489              		.thumb
 490              		.thumb_func
 491              		.fpu fpv4-sp-d16
 492              		.type	h1, %function
 493              	h1:
 494              	.LFB232:
 495              		.loc 7 80 0
 496              		.cfi_startproc
 497              		@ args = 0, pretend = 0, frame = 8
 498              		@ frame_needed = 0, uses_anonymous_args = 0
 499 0000 00B5     		push	{lr}
 500              		.cfi_def_cfa_offset 4
 501              		.cfi_offset 14, -4
 502 0002 83B0     		sub	sp, sp, #12
 503              		.cfi_def_cfa_offset 16
 504 0004 0190     		str	r0, [sp, #4]
 505              		.loc 7 80 0
 506 0006 4120     		movs	r0, #65
 507 0008 FFF7FEFF 		bl	test_emit_token
 508 000c 00BF     		nop
 509 000e 03B0     		add	sp, sp, #12
 510              		.cfi_def_cfa_offset 4
 511              		@ sp needed
 512 0010 5DF804FB 		ldr	pc, [sp], #4
 513              		.cfi_endproc
ARM GAS  /tmp/ccjFQPnC.s 			page 10


 514              	.LFE232:
 515              		.size	h1, .-h1
 516              		.section	.text.h2,"ax",%progbits
 517              		.align	1
 518              		.p2align 4,,15
 519              		.syntax unified
 520              		.thumb
 521              		.thumb_func
 522              		.fpu fpv4-sp-d16
 523              		.type	h2, %function
 524              	h2:
 525              	.LFB233:
 526              		.loc 7 81 0
 527              		.cfi_startproc
 528              		@ args = 0, pretend = 0, frame = 8
 529              		@ frame_needed = 0, uses_anonymous_args = 0
 530 0000 00B5     		push	{lr}
 531              		.cfi_def_cfa_offset 4
 532              		.cfi_offset 14, -4
 533 0002 83B0     		sub	sp, sp, #12
 534              		.cfi_def_cfa_offset 16
 535 0004 0190     		str	r0, [sp, #4]
 536              		.loc 7 81 0
 537 0006 4220     		movs	r0, #66
 538 0008 FFF7FEFF 		bl	test_emit_token
 539 000c 00BF     		nop
 540 000e 03B0     		add	sp, sp, #12
 541              		.cfi_def_cfa_offset 4
 542              		@ sp needed
 543 0010 5DF804FB 		ldr	pc, [sp], #4
 544              		.cfi_endproc
 545              	.LFE233:
 546              		.size	h2, .-h2
 547              		.section	.text.h3,"ax",%progbits
 548              		.align	1
 549              		.p2align 4,,15
 550              		.syntax unified
 551              		.thumb
 552              		.thumb_func
 553              		.fpu fpv4-sp-d16
 554              		.type	h3, %function
 555              	h3:
 556              	.LFB234:
 557              		.loc 7 82 0
 558              		.cfi_startproc
 559              		@ args = 0, pretend = 0, frame = 8
 560              		@ frame_needed = 0, uses_anonymous_args = 0
 561 0000 00B5     		push	{lr}
 562              		.cfi_def_cfa_offset 4
 563              		.cfi_offset 14, -4
 564 0002 83B0     		sub	sp, sp, #12
 565              		.cfi_def_cfa_offset 16
 566 0004 0190     		str	r0, [sp, #4]
 567              		.loc 7 82 0
 568 0006 4320     		movs	r0, #67
 569 0008 FFF7FEFF 		bl	test_emit_token
 570 000c 00BF     		nop
ARM GAS  /tmp/ccjFQPnC.s 			page 11


 571 000e 03B0     		add	sp, sp, #12
 572              		.cfi_def_cfa_offset 4
 573              		@ sp needed
 574 0010 5DF804FB 		ldr	pc, [sp], #4
 575              		.cfi_endproc
 576              	.LFE234:
 577              		.size	h3, .-h3
 578              		.section	.rodata.evhndl,"a",%progbits
 579              		.align	2
 580              		.type	evhndl, %object
 581              		.size	evhndl, 12
 582              	evhndl:
 583 0000 00000000 		.word	h1
 584 0004 00000000 		.word	h2
 585 0008 00000000 		.word	h3
 586              		.section	.rodata
 587              		.align	2
 588              	.LC0:
 589 0000 41424300 		.ascii	"ABC\000"
 590              		.section	.text.evt1_execute,"ax",%progbits
 591              		.align	1
 592              		.p2align 4,,15
 593              		.syntax unified
 594              		.thumb
 595              		.thumb_func
 596              		.fpu fpv4-sp-d16
 597              		.type	evt1_execute, %function
 598              	evt1_execute:
 599              	.LFB235:
 600              		.loc 7 85 0
 601              		.cfi_startproc
 602              		@ args = 0, pretend = 0, frame = 40
 603              		@ frame_needed = 0, uses_anonymous_args = 0
 604 0000 00B5     		push	{lr}
 605              		.cfi_def_cfa_offset 4
 606              		.cfi_offset 14, -4
 607 0002 8BB0     		sub	sp, sp, #44
 608              		.cfi_def_cfa_offset 48
 609              		.loc 7 91 0
 610 0004 2B48     		ldr	r0, .L39
 611 0006 FFF7FEFF 		bl	chEvtObjectInit
 612              		.loc 7 92 0
 613 000a 05AB     		add	r3, sp, #20
 614 000c 0122     		movs	r2, #1
 615 000e 1946     		mov	r1, r3
 616 0010 2848     		ldr	r0, .L39
 617 0012 FFF7FEFF 		bl	chEvtRegisterMask
 618              		.loc 7 93 0
 619 0016 6B46     		mov	r3, sp
 620 0018 0222     		movs	r2, #2
 621 001a 1946     		mov	r1, r3
 622 001c 2548     		ldr	r0, .L39
 623 001e FFF7FEFF 		bl	chEvtRegisterMask
 624              		.loc 7 94 0
 625 0022 2448     		ldr	r0, .L39
 626 0024 FFF7FEFF 		bl	chEvtIsListeningI
 627 0028 0346     		mov	r3, r0
ARM GAS  /tmp/ccjFQPnC.s 			page 12


 628 002a 1946     		mov	r1, r3
 629 002c 0120     		movs	r0, #1
 630 002e FFF7FEFF 		bl	_test_assert
 631 0032 0346     		mov	r3, r0
 632 0034 002B     		cmp	r3, #0
 633 0036 35D1     		bne	.L36
 634              		.loc 7 95 0
 635 0038 05AB     		add	r3, sp, #20
 636 003a 1946     		mov	r1, r3
 637 003c 1D48     		ldr	r0, .L39
 638 003e FFF7FEFF 		bl	chEvtUnregister
 639              		.loc 7 96 0
 640 0042 1C48     		ldr	r0, .L39
 641 0044 FFF7FEFF 		bl	chEvtIsListeningI
 642 0048 0346     		mov	r3, r0
 643 004a 1946     		mov	r1, r3
 644 004c 0220     		movs	r0, #2
 645 004e FFF7FEFF 		bl	_test_assert
 646 0052 0346     		mov	r3, r0
 647 0054 002B     		cmp	r3, #0
 648 0056 27D1     		bne	.L37
 649              		.loc 7 97 0
 650 0058 6B46     		mov	r3, sp
 651 005a 1946     		mov	r1, r3
 652 005c 1548     		ldr	r0, .L39
 653 005e FFF7FEFF 		bl	chEvtUnregister
 654              		.loc 7 98 0
 655 0062 1448     		ldr	r0, .L39
 656 0064 FFF7FEFF 		bl	chEvtIsListeningI
 657 0068 0346     		mov	r3, r0
 658 006a 002B     		cmp	r3, #0
 659 006c 14BF     		ite	ne
 660 006e 0123     		movne	r3, #1
 661 0070 0023     		moveq	r3, #0
 662 0072 DBB2     		uxtb	r3, r3
 663 0074 83F00103 		eor	r3, r3, #1
 664 0078 DBB2     		uxtb	r3, r3
 665 007a 03F00103 		and	r3, r3, #1
 666 007e DBB2     		uxtb	r3, r3
 667 0080 1946     		mov	r1, r3
 668 0082 0320     		movs	r0, #3
 669 0084 FFF7FEFF 		bl	_test_assert
 670 0088 0346     		mov	r3, r0
 671 008a 002B     		cmp	r3, #0
 672 008c 0ED1     		bne	.L38
 673              		.loc 7 103 0
 674 008e 0721     		movs	r1, #7
 675 0090 0948     		ldr	r0, .L39+4
 676 0092 FFF7FEFF 		bl	chEvtDispatch
 677              		.loc 7 104 0
 678 0096 0949     		ldr	r1, .L39+8
 679 0098 0420     		movs	r0, #4
 680 009a FFF7FEFF 		bl	_test_assert_sequence
 681 009e 0346     		mov	r3, r0
 682 00a0 002B     		cmp	r3, #0
 683 00a2 04E0     		b	.L29
 684              	.L36:
ARM GAS  /tmp/ccjFQPnC.s 			page 13


 685              		.loc 7 94 0
 686 00a4 00BF     		nop
 687 00a6 02E0     		b	.L29
 688              	.L37:
 689              		.loc 7 96 0
 690 00a8 00BF     		nop
 691 00aa 00E0     		b	.L29
 692              	.L38:
 693              		.loc 7 98 0
 694 00ac 00BF     		nop
 695              	.L29:
 696              		.loc 7 105 0
 697 00ae 0BB0     		add	sp, sp, #44
 698              		.cfi_def_cfa_offset 4
 699              		@ sp needed
 700 00b0 5DF804FB 		ldr	pc, [sp], #4
 701              	.L40:
 702              		.align	2
 703              	.L39:
 704 00b4 00000000 		.word	es1
 705 00b8 00000000 		.word	evhndl
 706 00bc 00000000 		.word	.LC0
 707              		.cfi_endproc
 708              	.LFE235:
 709              		.size	evt1_execute, .-evt1_execute
 710              		.global	testevt1
 711              		.section	.rodata
 712              		.align	2
 713              	.LC1:
 714 0004 4576656E 		.ascii	"Events, registration and dispatch\000"
 714      74732C20 
 714      72656769 
 714      73747261 
 714      74696F6E 
 715              		.section	.rodata.testevt1,"a",%progbits
 716              		.align	2
 717              		.type	testevt1, %object
 718              		.size	testevt1, 16
 719              	testevt1:
 720 0000 04000000 		.word	.LC1
 721 0004 00000000 		.word	evt1_setup
 722 0008 00000000 		.word	0
 723 000c 00000000 		.word	evt1_execute
 724              		.section	.text.evt2_setup,"ax",%progbits
 725              		.align	1
 726              		.p2align 4,,15
 727              		.syntax unified
 728              		.thumb
 729              		.thumb_func
 730              		.fpu fpv4-sp-d16
 731              		.type	evt2_setup, %function
 732              	evt2_setup:
 733              	.LFB236:
 734              		.loc 7 128 0
 735              		.cfi_startproc
 736              		@ args = 0, pretend = 0, frame = 0
 737              		@ frame_needed = 0, uses_anonymous_args = 0
ARM GAS  /tmp/ccjFQPnC.s 			page 14


 738 0000 08B5     		push	{r3, lr}
 739              		.cfi_def_cfa_offset 8
 740              		.cfi_offset 3, -8
 741              		.cfi_offset 14, -4
 742              		.loc 7 130 0
 743 0002 4FF0FF30 		mov	r0, #-1
 744 0006 FFF7FEFF 		bl	chEvtGetAndClearEvents
 745              		.loc 7 131 0
 746 000a 00BF     		nop
 747 000c 08BD     		pop	{r3, pc}
 748              		.cfi_endproc
 749              	.LFE236:
 750              		.size	evt2_setup, .-evt2_setup
 751 000e 00BF     		.section	.text.thread1,"ax",%progbits
 752              		.align	1
 753              		.p2align 4,,15
 754              		.syntax unified
 755              		.thumb
 756              		.thumb_func
 757              		.fpu fpv4-sp-d16
 758              		.type	thread1, %function
 759              	thread1:
 760              	.LFB237:
 761              		.loc 7 133 0
 762              		.cfi_startproc
 763              		@ args = 0, pretend = 0, frame = 8
 764              		@ frame_needed = 0, uses_anonymous_args = 0
 765 0000 00B5     		push	{lr}
 766              		.cfi_def_cfa_offset 4
 767              		.cfi_offset 14, -4
 768 0002 83B0     		sub	sp, sp, #12
 769              		.cfi_def_cfa_offset 16
 770 0004 0190     		str	r0, [sp, #4]
 771              		.loc 7 135 0
 772 0006 4FF4FA70 		mov	r0, #500
 773 000a FFF7FEFF 		bl	chThdSleep
 774              		.loc 7 136 0
 775 000e 0121     		movs	r1, #1
 776 0010 0198     		ldr	r0, [sp, #4]
 777 0012 FFF7FEFF 		bl	chEvtSignal
 778              		.loc 7 137 0
 779 0016 00BF     		nop
 780 0018 03B0     		add	sp, sp, #12
 781              		.cfi_def_cfa_offset 4
 782              		@ sp needed
 783 001a 5DF804FB 		ldr	pc, [sp], #4
 784              		.cfi_endproc
 785              	.LFE237:
 786              		.size	thread1, .-thread1
 787 001e 00BF     		.section	.text.thread2,"ax",%progbits
 788              		.align	1
 789              		.p2align 4,,15
 790              		.syntax unified
 791              		.thumb
 792              		.thumb_func
 793              		.fpu fpv4-sp-d16
 794              		.type	thread2, %function
ARM GAS  /tmp/ccjFQPnC.s 			page 15


 795              	thread2:
 796              	.LFB238:
 797              		.loc 7 139 0
 798              		.cfi_startproc
 799              		@ args = 0, pretend = 0, frame = 8
 800              		@ frame_needed = 0, uses_anonymous_args = 0
 801 0000 00B5     		push	{lr}
 802              		.cfi_def_cfa_offset 4
 803              		.cfi_offset 14, -4
 804 0002 83B0     		sub	sp, sp, #12
 805              		.cfi_def_cfa_offset 16
 806 0004 0190     		str	r0, [sp, #4]
 807              		.loc 7 142 0
 808 0006 0748     		ldr	r0, .L44
 809 0008 FFF7FEFF 		bl	chEvtBroadcast
 810              		.loc 7 143 0
 811 000c 4FF4FA70 		mov	r0, #500
 812 0010 FFF7FEFF 		bl	chThdSleep
 813              		.loc 7 144 0
 814 0014 0448     		ldr	r0, .L44+4
 815 0016 FFF7FEFF 		bl	chEvtBroadcast
 816              		.loc 7 145 0
 817 001a 00BF     		nop
 818 001c 03B0     		add	sp, sp, #12
 819              		.cfi_def_cfa_offset 4
 820              		@ sp needed
 821 001e 5DF804FB 		ldr	pc, [sp], #4
 822              	.L45:
 823 0022 00BF     		.align	2
 824              	.L44:
 825 0024 00000000 		.word	es1
 826 0028 00000000 		.word	es2
 827              		.cfi_endproc
 828              	.LFE238:
 829              		.size	thread2, .-thread2
 830              		.section	.rodata
 831 0026 0000     		.align	2
 832              	.LC2:
 833 0028 4100     		.ascii	"A\000"
 834              		.section	.text.evt2_execute,"ax",%progbits
 835              		.align	1
 836              		.p2align 4,,15
 837              		.syntax unified
 838              		.thumb
 839              		.thumb_func
 840              		.fpu fpv4-sp-d16
 841              		.type	evt2_execute, %function
 842              	evt2_execute:
 843              	.LFB239:
 844              		.loc 7 147 0
 845              		.cfi_startproc
 846              		@ args = 0, pretend = 0, frame = 48
 847              		@ frame_needed = 0, uses_anonymous_args = 0
 848 0000 30B5     		push	{r4, r5, lr}
 849              		.cfi_def_cfa_offset 12
 850              		.cfi_offset 4, -12
 851              		.cfi_offset 5, -8
ARM GAS  /tmp/ccjFQPnC.s 			page 16


 852              		.cfi_offset 14, -4
 853 0002 8FB0     		sub	sp, sp, #60
 854              		.cfi_def_cfa_offset 72
 855              		.loc 7 155 0
 856 0004 0720     		movs	r0, #7
 857 0006 FFF7FEFF 		bl	chEvtAddEvents
 858              		.loc 7 156 0
 859 000a 4FF0FF30 		mov	r0, #-1
 860 000e FFF7FEFF 		bl	chEvtWaitOne
 861 0012 0D90     		str	r0, [sp, #52]
 862              		.loc 7 157 0
 863 0014 0D9B     		ldr	r3, [sp, #52]
 864 0016 012B     		cmp	r3, #1
 865 0018 0CBF     		ite	eq
 866 001a 0123     		moveq	r3, #1
 867 001c 0023     		movne	r3, #0
 868 001e DBB2     		uxtb	r3, r3
 869 0020 1946     		mov	r1, r3
 870 0022 0120     		movs	r0, #1
 871 0024 FFF7FEFF 		bl	_test_assert
 872 0028 0346     		mov	r3, r0
 873 002a 002B     		cmp	r3, #0
 874 002c 40F08381 		bne	.L65
 875              		.loc 7 158 0
 876 0030 4FF0FF30 		mov	r0, #-1
 877 0034 FFF7FEFF 		bl	chEvtWaitOne
 878 0038 0D90     		str	r0, [sp, #52]
 879              		.loc 7 159 0
 880 003a 0D9B     		ldr	r3, [sp, #52]
 881 003c 022B     		cmp	r3, #2
 882 003e 0CBF     		ite	eq
 883 0040 0123     		moveq	r3, #1
 884 0042 0023     		movne	r3, #0
 885 0044 DBB2     		uxtb	r3, r3
 886 0046 1946     		mov	r1, r3
 887 0048 0220     		movs	r0, #2
 888 004a FFF7FEFF 		bl	_test_assert
 889 004e 0346     		mov	r3, r0
 890 0050 002B     		cmp	r3, #0
 891 0052 40F07281 		bne	.L66
 892              		.loc 7 160 0
 893 0056 4FF0FF30 		mov	r0, #-1
 894 005a FFF7FEFF 		bl	chEvtWaitOne
 895 005e 0D90     		str	r0, [sp, #52]
 896              		.loc 7 161 0
 897 0060 0D9B     		ldr	r3, [sp, #52]
 898 0062 042B     		cmp	r3, #4
 899 0064 0CBF     		ite	eq
 900 0066 0123     		moveq	r3, #1
 901 0068 0023     		movne	r3, #0
 902 006a DBB2     		uxtb	r3, r3
 903 006c 1946     		mov	r1, r3
 904 006e 0320     		movs	r0, #3
 905 0070 FFF7FEFF 		bl	_test_assert
 906 0074 0346     		mov	r3, r0
 907 0076 002B     		cmp	r3, #0
 908 0078 40F06181 		bne	.L67
ARM GAS  /tmp/ccjFQPnC.s 			page 17


 909              		.loc 7 162 0
 910 007c 4FF0FF30 		mov	r0, #-1
 911 0080 FFF7FEFF 		bl	chEvtGetAndClearEvents
 912 0084 0D90     		str	r0, [sp, #52]
 913              		.loc 7 163 0
 914 0086 0D9B     		ldr	r3, [sp, #52]
 915 0088 002B     		cmp	r3, #0
 916 008a 0CBF     		ite	eq
 917 008c 0123     		moveq	r3, #1
 918 008e 0023     		movne	r3, #0
 919 0090 DBB2     		uxtb	r3, r3
 920 0092 1946     		mov	r1, r3
 921 0094 0420     		movs	r0, #4
 922 0096 FFF7FEFF 		bl	_test_assert
 923 009a 0346     		mov	r3, r0
 924 009c 002B     		cmp	r3, #0
 925 009e 40F05081 		bne	.L68
 926              		.loc 7 168 0
 927 00a2 FFF7FEFF 		bl	test_wait_tick
 928              		.loc 7 169 0
 929 00a6 FFF7FEFF 		bl	chVTGetSystemTime
 930 00aa 0346     		mov	r3, r0
 931 00ac 03F5FA73 		add	r3, r3, #500
 932 00b0 0C93     		str	r3, [sp, #48]
 933              		.loc 7 170 0
 934 00b2 B04B     		ldr	r3, .L80
 935 00b4 1C68     		ldr	r4, [r3]
 936 00b6 FFF7FEFF 		bl	chThdGetPriorityX
 937 00ba 0346     		mov	r3, r0
 938 00bc 5D1E     		subs	r5, r3, #1
 939              		.loc 7 171 0
 940 00be FFF7FEFF 		bl	chThdGetSelfX
 941 00c2 0346     		mov	r3, r0
 942              		.loc 7 170 0
 943 00c4 0093     		str	r3, [sp]
 944 00c6 AC4B     		ldr	r3, .L80+4
 945 00c8 2A46     		mov	r2, r5
 946 00ca 4FF4F871 		mov	r1, #496
 947 00ce 2046     		mov	r0, r4
 948 00d0 FFF7FEFF 		bl	chThdCreateStatic
 949 00d4 0246     		mov	r2, r0
 950 00d6 A94B     		ldr	r3, .L80+8
 951 00d8 1A60     		str	r2, [r3]
 952              		.loc 7 172 0
 953 00da 4FF0FF30 		mov	r0, #-1
 954 00de FFF7FEFF 		bl	chEvtWaitOne
 955 00e2 0D90     		str	r0, [sp, #52]
 956              		.loc 7 173 0
 957 00e4 0C9B     		ldr	r3, [sp, #48]
 958 00e6 3233     		adds	r3, r3, #50
 959 00e8 1A46     		mov	r2, r3
 960 00ea 0C99     		ldr	r1, [sp, #48]
 961 00ec 0520     		movs	r0, #5
 962 00ee FFF7FEFF 		bl	_test_assert_time_window
 963 00f2 0346     		mov	r3, r0
 964 00f4 002B     		cmp	r3, #0
 965 00f6 40F02681 		bne	.L69
ARM GAS  /tmp/ccjFQPnC.s 			page 18


 966              		.loc 7 174 0
 967 00fa 0D9B     		ldr	r3, [sp, #52]
 968 00fc 012B     		cmp	r3, #1
 969 00fe 0CBF     		ite	eq
 970 0100 0123     		moveq	r3, #1
 971 0102 0023     		movne	r3, #0
 972 0104 DBB2     		uxtb	r3, r3
 973 0106 1946     		mov	r1, r3
 974 0108 0620     		movs	r0, #6
 975 010a FFF7FEFF 		bl	_test_assert
 976 010e 0346     		mov	r3, r0
 977 0110 002B     		cmp	r3, #0
 978 0112 40F01A81 		bne	.L70
 979              		.loc 7 175 0
 980 0116 4FF0FF30 		mov	r0, #-1
 981 011a FFF7FEFF 		bl	chEvtGetAndClearEvents
 982 011e 0D90     		str	r0, [sp, #52]
 983              		.loc 7 176 0
 984 0120 0D9B     		ldr	r3, [sp, #52]
 985 0122 002B     		cmp	r3, #0
 986 0124 0CBF     		ite	eq
 987 0126 0123     		moveq	r3, #1
 988 0128 0023     		movne	r3, #0
 989 012a DBB2     		uxtb	r3, r3
 990 012c 1946     		mov	r1, r3
 991 012e 0720     		movs	r0, #7
 992 0130 FFF7FEFF 		bl	_test_assert
 993 0134 0346     		mov	r3, r0
 994 0136 002B     		cmp	r3, #0
 995 0138 40F00981 		bne	.L71
 996              		.loc 7 177 0
 997 013c FFF7FEFF 		bl	test_wait_threads
 998              		.loc 7 182 0
 999 0140 0520     		movs	r0, #5
 1000 0142 FFF7FEFF 		bl	chEvtAddEvents
 1001              		.loc 7 183 0
 1002 0146 4FF0FF30 		mov	r0, #-1
 1003 014a FFF7FEFF 		bl	chEvtWaitAny
 1004 014e 0D90     		str	r0, [sp, #52]
 1005              		.loc 7 184 0
 1006 0150 0D9B     		ldr	r3, [sp, #52]
 1007 0152 052B     		cmp	r3, #5
 1008 0154 0CBF     		ite	eq
 1009 0156 0123     		moveq	r3, #1
 1010 0158 0023     		movne	r3, #0
 1011 015a DBB2     		uxtb	r3, r3
 1012 015c 1946     		mov	r1, r3
 1013 015e 0820     		movs	r0, #8
 1014 0160 FFF7FEFF 		bl	_test_assert
 1015 0164 0346     		mov	r3, r0
 1016 0166 002B     		cmp	r3, #0
 1017 0168 40F0F380 		bne	.L72
 1018              		.loc 7 185 0
 1019 016c 4FF0FF30 		mov	r0, #-1
 1020 0170 FFF7FEFF 		bl	chEvtGetAndClearEvents
 1021 0174 0D90     		str	r0, [sp, #52]
 1022              		.loc 7 186 0
ARM GAS  /tmp/ccjFQPnC.s 			page 19


 1023 0176 0D9B     		ldr	r3, [sp, #52]
 1024 0178 002B     		cmp	r3, #0
 1025 017a 0CBF     		ite	eq
 1026 017c 0123     		moveq	r3, #1
 1027 017e 0023     		movne	r3, #0
 1028 0180 DBB2     		uxtb	r3, r3
 1029 0182 1946     		mov	r1, r3
 1030 0184 0920     		movs	r0, #9
 1031 0186 FFF7FEFF 		bl	_test_assert
 1032 018a 0346     		mov	r3, r0
 1033 018c 002B     		cmp	r3, #0
 1034 018e 40F0E280 		bne	.L73
 1035              		.loc 7 191 0
 1036 0192 FFF7FEFF 		bl	test_wait_tick
 1037              		.loc 7 192 0
 1038 0196 FFF7FEFF 		bl	chVTGetSystemTime
 1039 019a 0346     		mov	r3, r0
 1040 019c 03F5FA73 		add	r3, r3, #500
 1041 01a0 0C93     		str	r3, [sp, #48]
 1042              		.loc 7 193 0
 1043 01a2 744B     		ldr	r3, .L80
 1044 01a4 1C68     		ldr	r4, [r3]
 1045 01a6 FFF7FEFF 		bl	chThdGetPriorityX
 1046 01aa 0346     		mov	r3, r0
 1047 01ac 5D1E     		subs	r5, r3, #1
 1048              		.loc 7 194 0
 1049 01ae FFF7FEFF 		bl	chThdGetSelfX
 1050 01b2 0346     		mov	r3, r0
 1051              		.loc 7 193 0
 1052 01b4 0093     		str	r3, [sp]
 1053 01b6 704B     		ldr	r3, .L80+4
 1054 01b8 2A46     		mov	r2, r5
 1055 01ba 4FF4F871 		mov	r1, #496
 1056 01be 2046     		mov	r0, r4
 1057 01c0 FFF7FEFF 		bl	chThdCreateStatic
 1058 01c4 0246     		mov	r2, r0
 1059 01c6 6D4B     		ldr	r3, .L80+8
 1060 01c8 1A60     		str	r2, [r3]
 1061              		.loc 7 195 0
 1062 01ca 4FF0FF30 		mov	r0, #-1
 1063 01ce FFF7FEFF 		bl	chEvtWaitAny
 1064 01d2 0D90     		str	r0, [sp, #52]
 1065              		.loc 7 196 0
 1066 01d4 0C9B     		ldr	r3, [sp, #48]
 1067 01d6 3233     		adds	r3, r3, #50
 1068 01d8 1A46     		mov	r2, r3
 1069 01da 0C99     		ldr	r1, [sp, #48]
 1070 01dc 0A20     		movs	r0, #10
 1071 01de FFF7FEFF 		bl	_test_assert_time_window
 1072 01e2 0346     		mov	r3, r0
 1073 01e4 002B     		cmp	r3, #0
 1074 01e6 40F0B880 		bne	.L74
 1075              		.loc 7 197 0
 1076 01ea 0D9B     		ldr	r3, [sp, #52]
 1077 01ec 012B     		cmp	r3, #1
 1078 01ee 0CBF     		ite	eq
 1079 01f0 0123     		moveq	r3, #1
ARM GAS  /tmp/ccjFQPnC.s 			page 20


 1080 01f2 0023     		movne	r3, #0
 1081 01f4 DBB2     		uxtb	r3, r3
 1082 01f6 1946     		mov	r1, r3
 1083 01f8 0B20     		movs	r0, #11
 1084 01fa FFF7FEFF 		bl	_test_assert
 1085 01fe 0346     		mov	r3, r0
 1086 0200 002B     		cmp	r3, #0
 1087 0202 40F0AC80 		bne	.L75
 1088              		.loc 7 198 0
 1089 0206 4FF0FF30 		mov	r0, #-1
 1090 020a FFF7FEFF 		bl	chEvtGetAndClearEvents
 1091 020e 0D90     		str	r0, [sp, #52]
 1092              		.loc 7 199 0
 1093 0210 0D9B     		ldr	r3, [sp, #52]
 1094 0212 002B     		cmp	r3, #0
 1095 0214 0CBF     		ite	eq
 1096 0216 0123     		moveq	r3, #1
 1097 0218 0023     		movne	r3, #0
 1098 021a DBB2     		uxtb	r3, r3
 1099 021c 1946     		mov	r1, r3
 1100 021e 0C20     		movs	r0, #12
 1101 0220 FFF7FEFF 		bl	_test_assert
 1102 0224 0346     		mov	r3, r0
 1103 0226 002B     		cmp	r3, #0
 1104 0228 40F09B80 		bne	.L76
 1105              		.loc 7 200 0
 1106 022c FFF7FEFF 		bl	test_wait_threads
 1107              		.loc 7 205 0
 1108 0230 5348     		ldr	r0, .L80+12
 1109 0232 FFF7FEFF 		bl	chEvtObjectInit
 1110              		.loc 7 206 0
 1111 0236 5348     		ldr	r0, .L80+16
 1112 0238 FFF7FEFF 		bl	chEvtObjectInit
 1113              		.loc 7 207 0
 1114 023c 07AB     		add	r3, sp, #28
 1115 023e 0122     		movs	r2, #1
 1116 0240 1946     		mov	r1, r3
 1117 0242 4F48     		ldr	r0, .L80+12
 1118 0244 FFF7FEFF 		bl	chEvtRegisterMask
 1119              		.loc 7 208 0
 1120 0248 02AB     		add	r3, sp, #8
 1121 024a 0422     		movs	r2, #4
 1122 024c 1946     		mov	r1, r3
 1123 024e 4D48     		ldr	r0, .L80+16
 1124 0250 FFF7FEFF 		bl	chEvtRegisterMask
 1125              		.loc 7 209 0
 1126 0254 FFF7FEFF 		bl	test_wait_tick
 1127              		.loc 7 210 0
 1128 0258 FFF7FEFF 		bl	chVTGetSystemTime
 1129 025c 0346     		mov	r3, r0
 1130 025e 03F5FA73 		add	r3, r3, #500
 1131 0262 0C93     		str	r3, [sp, #48]
 1132              		.loc 7 211 0
 1133 0264 434B     		ldr	r3, .L80
 1134 0266 1C68     		ldr	r4, [r3]
 1135 0268 FFF7FEFF 		bl	chThdGetPriorityX
 1136 026c 0346     		mov	r3, r0
ARM GAS  /tmp/ccjFQPnC.s 			page 21


 1137 026e 5A1E     		subs	r2, r3, #1
 1138 0270 454B     		ldr	r3, .L80+20
 1139 0272 0093     		str	r3, [sp]
 1140 0274 454B     		ldr	r3, .L80+24
 1141 0276 4FF4F871 		mov	r1, #496
 1142 027a 2046     		mov	r0, r4
 1143 027c FFF7FEFF 		bl	chThdCreateStatic
 1144 0280 0246     		mov	r2, r0
 1145 0282 3E4B     		ldr	r3, .L80+8
 1146 0284 1A60     		str	r2, [r3]
 1147              		.loc 7 213 0
 1148 0286 0520     		movs	r0, #5
 1149 0288 FFF7FEFF 		bl	chEvtWaitAll
 1150 028c 0D90     		str	r0, [sp, #52]
 1151              		.loc 7 214 0
 1152 028e 0C9B     		ldr	r3, [sp, #48]
 1153 0290 3233     		adds	r3, r3, #50
 1154 0292 1A46     		mov	r2, r3
 1155 0294 0C99     		ldr	r1, [sp, #48]
 1156 0296 0D20     		movs	r0, #13
 1157 0298 FFF7FEFF 		bl	_test_assert_time_window
 1158 029c 0346     		mov	r3, r0
 1159 029e 002B     		cmp	r3, #0
 1160 02a0 61D1     		bne	.L77
 1161              		.loc 7 215 0
 1162 02a2 4FF0FF30 		mov	r0, #-1
 1163 02a6 FFF7FEFF 		bl	chEvtGetAndClearEvents
 1164 02aa 0D90     		str	r0, [sp, #52]
 1165              		.loc 7 216 0
 1166 02ac 0D9B     		ldr	r3, [sp, #52]
 1167 02ae 002B     		cmp	r3, #0
 1168 02b0 0CBF     		ite	eq
 1169 02b2 0123     		moveq	r3, #1
 1170 02b4 0023     		movne	r3, #0
 1171 02b6 DBB2     		uxtb	r3, r3
 1172 02b8 1946     		mov	r1, r3
 1173 02ba 0E20     		movs	r0, #14
 1174 02bc FFF7FEFF 		bl	_test_assert
 1175 02c0 0346     		mov	r3, r0
 1176 02c2 002B     		cmp	r3, #0
 1177 02c4 51D1     		bne	.L78
 1178              		.loc 7 217 0
 1179 02c6 FFF7FEFF 		bl	test_wait_threads
 1180              		.loc 7 218 0
 1181 02ca 07AB     		add	r3, sp, #28
 1182 02cc 1946     		mov	r1, r3
 1183 02ce 2C48     		ldr	r0, .L80+12
 1184 02d0 FFF7FEFF 		bl	chEvtUnregister
 1185              		.loc 7 219 0
 1186 02d4 02AB     		add	r3, sp, #8
 1187 02d6 1946     		mov	r1, r3
 1188 02d8 2A48     		ldr	r0, .L80+16
 1189 02da FFF7FEFF 		bl	chEvtUnregister
 1190              		.loc 7 220 0
 1191 02de 2848     		ldr	r0, .L80+12
 1192 02e0 FFF7FEFF 		bl	chEvtIsListeningI
 1193 02e4 0346     		mov	r3, r0
ARM GAS  /tmp/ccjFQPnC.s 			page 22


 1194 02e6 002B     		cmp	r3, #0
 1195 02e8 14BF     		ite	ne
 1196 02ea 0123     		movne	r3, #1
 1197 02ec 0023     		moveq	r3, #0
 1198 02ee DBB2     		uxtb	r3, r3
 1199 02f0 83F00103 		eor	r3, r3, #1
 1200 02f4 DBB2     		uxtb	r3, r3
 1201 02f6 03F00103 		and	r3, r3, #1
 1202 02fa DBB2     		uxtb	r3, r3
 1203 02fc 1946     		mov	r1, r3
 1204 02fe 0F20     		movs	r0, #15
 1205 0300 FFF7FEFF 		bl	_test_assert
 1206 0304 0346     		mov	r3, r0
 1207 0306 002B     		cmp	r3, #0
 1208 0308 31D1     		bne	.L79
 1209              		.loc 7 221 0
 1210 030a 1E48     		ldr	r0, .L80+16
 1211 030c FFF7FEFF 		bl	chEvtIsListeningI
 1212 0310 0346     		mov	r3, r0
 1213 0312 002B     		cmp	r3, #0
 1214 0314 14BF     		ite	ne
 1215 0316 0123     		movne	r3, #1
 1216 0318 0023     		moveq	r3, #0
 1217 031a DBB2     		uxtb	r3, r3
 1218 031c 83F00103 		eor	r3, r3, #1
 1219 0320 DBB2     		uxtb	r3, r3
 1220 0322 03F00103 		and	r3, r3, #1
 1221 0326 DBB2     		uxtb	r3, r3
 1222 0328 1946     		mov	r1, r3
 1223 032a 1020     		movs	r0, #16
 1224 032c FFF7FEFF 		bl	_test_assert
 1225 0330 0346     		mov	r3, r0
 1226 0332 002B     		cmp	r3, #0
 1227 0334 1CE0     		b	.L46
 1228              	.L65:
 1229              		.loc 7 157 0
 1230 0336 00BF     		nop
 1231 0338 1AE0     		b	.L46
 1232              	.L66:
 1233              		.loc 7 159 0
 1234 033a 00BF     		nop
 1235 033c 18E0     		b	.L46
 1236              	.L67:
 1237              		.loc 7 161 0
 1238 033e 00BF     		nop
 1239 0340 16E0     		b	.L46
 1240              	.L68:
 1241              		.loc 7 163 0
 1242 0342 00BF     		nop
 1243 0344 14E0     		b	.L46
 1244              	.L69:
 1245              		.loc 7 173 0
 1246 0346 00BF     		nop
 1247 0348 12E0     		b	.L46
 1248              	.L70:
 1249              		.loc 7 174 0
 1250 034a 00BF     		nop
ARM GAS  /tmp/ccjFQPnC.s 			page 23


 1251 034c 10E0     		b	.L46
 1252              	.L71:
 1253              		.loc 7 176 0
 1254 034e 00BF     		nop
 1255 0350 0EE0     		b	.L46
 1256              	.L72:
 1257              		.loc 7 184 0
 1258 0352 00BF     		nop
 1259 0354 0CE0     		b	.L46
 1260              	.L73:
 1261              		.loc 7 186 0
 1262 0356 00BF     		nop
 1263 0358 0AE0     		b	.L46
 1264              	.L74:
 1265              		.loc 7 196 0
 1266 035a 00BF     		nop
 1267 035c 08E0     		b	.L46
 1268              	.L75:
 1269              		.loc 7 197 0
 1270 035e 00BF     		nop
 1271 0360 06E0     		b	.L46
 1272              	.L76:
 1273              		.loc 7 199 0
 1274 0362 00BF     		nop
 1275 0364 04E0     		b	.L46
 1276              	.L77:
 1277              		.loc 7 214 0
 1278 0366 00BF     		nop
 1279 0368 02E0     		b	.L46
 1280              	.L78:
 1281              		.loc 7 216 0
 1282 036a 00BF     		nop
 1283 036c 00E0     		b	.L46
 1284              	.L79:
 1285              		.loc 7 220 0
 1286 036e 00BF     		nop
 1287              	.L46:
 1288              		.loc 7 222 0
 1289 0370 0FB0     		add	sp, sp, #60
 1290              		.cfi_def_cfa_offset 12
 1291              		@ sp needed
 1292 0372 30BD     		pop	{r4, r5, pc}
 1293              	.L81:
 1294              		.align	2
 1295              	.L80:
 1296 0374 00000000 		.word	wa
 1297 0378 00000000 		.word	thread1
 1298 037c 00000000 		.word	threads
 1299 0380 00000000 		.word	es1
 1300 0384 00000000 		.word	es2
 1301 0388 28000000 		.word	.LC2
 1302 038c 00000000 		.word	thread2
 1303              		.cfi_endproc
 1304              	.LFE239:
 1305              		.size	evt2_execute, .-evt2_execute
 1306              		.global	testevt2
 1307              		.section	.rodata
ARM GAS  /tmp/ccjFQPnC.s 			page 24


 1308 002a 0000     		.align	2
 1309              	.LC3:
 1310 002c 4576656E 		.ascii	"Events, wait and broadcast\000"
 1310      74732C20 
 1310      77616974 
 1310      20616E64 
 1310      2062726F 
 1311              		.section	.rodata.testevt2,"a",%progbits
 1312              		.align	2
 1313              		.type	testevt2, %object
 1314              		.size	testevt2, 16
 1315              	testevt2:
 1316 0000 2C000000 		.word	.LC3
 1317 0004 00000000 		.word	evt2_setup
 1318 0008 00000000 		.word	0
 1319 000c 00000000 		.word	evt2_execute
 1320              		.section	.text.evt3_setup,"ax",%progbits
 1321              		.align	1
 1322              		.p2align 4,,15
 1323              		.syntax unified
 1324              		.thumb
 1325              		.thumb_func
 1326              		.fpu fpv4-sp-d16
 1327              		.type	evt3_setup, %function
 1328              	evt3_setup:
 1329              	.LFB240:
 1330              		.loc 7 247 0
 1331              		.cfi_startproc
 1332              		@ args = 0, pretend = 0, frame = 0
 1333              		@ frame_needed = 0, uses_anonymous_args = 0
 1334 0000 08B5     		push	{r3, lr}
 1335              		.cfi_def_cfa_offset 8
 1336              		.cfi_offset 3, -8
 1337              		.cfi_offset 14, -4
 1338              		.loc 7 249 0
 1339 0002 4FF0FF30 		mov	r0, #-1
 1340 0006 FFF7FEFF 		bl	chEvtGetAndClearEvents
 1341              		.loc 7 250 0
 1342 000a 00BF     		nop
 1343 000c 08BD     		pop	{r3, pc}
 1344              		.cfi_endproc
 1345              	.LFE240:
 1346              		.size	evt3_setup, .-evt3_setup
 1347 000e 00BF     		.section	.text.evt3_execute,"ax",%progbits
 1348              		.align	1
 1349              		.p2align 4,,15
 1350              		.syntax unified
 1351              		.thumb
 1352              		.thumb_func
 1353              		.fpu fpv4-sp-d16
 1354              		.type	evt3_execute, %function
 1355              	evt3_execute:
 1356              	.LFB241:
 1357              		.loc 7 252 0
 1358              		.cfi_startproc
 1359              		@ args = 0, pretend = 0, frame = 8
 1360              		@ frame_needed = 0, uses_anonymous_args = 0
ARM GAS  /tmp/ccjFQPnC.s 			page 25


 1361 0000 00B5     		push	{lr}
 1362              		.cfi_def_cfa_offset 4
 1363              		.cfi_offset 14, -4
 1364 0002 83B0     		sub	sp, sp, #12
 1365              		.cfi_def_cfa_offset 16
 1366              		.loc 7 258 0
 1367 0004 0021     		movs	r1, #0
 1368 0006 4FF0FF30 		mov	r0, #-1
 1369 000a FFF7FEFF 		bl	chEvtWaitOneTimeout
 1370 000e 0190     		str	r0, [sp, #4]
 1371              		.loc 7 259 0
 1372 0010 019B     		ldr	r3, [sp, #4]
 1373 0012 002B     		cmp	r3, #0
 1374 0014 0CBF     		ite	eq
 1375 0016 0123     		moveq	r3, #1
 1376 0018 0023     		movne	r3, #0
 1377 001a DBB2     		uxtb	r3, r3
 1378 001c 1946     		mov	r1, r3
 1379 001e 0120     		movs	r0, #1
 1380 0020 FFF7FEFF 		bl	_test_assert
 1381 0024 0346     		mov	r3, r0
 1382 0026 002B     		cmp	r3, #0
 1383 0028 5ED1     		bne	.L90
 1384              		.loc 7 260 0
 1385 002a 0021     		movs	r1, #0
 1386 002c 4FF0FF30 		mov	r0, #-1
 1387 0030 FFF7FEFF 		bl	chEvtWaitAnyTimeout
 1388 0034 0190     		str	r0, [sp, #4]
 1389              		.loc 7 261 0
 1390 0036 019B     		ldr	r3, [sp, #4]
 1391 0038 002B     		cmp	r3, #0
 1392 003a 0CBF     		ite	eq
 1393 003c 0123     		moveq	r3, #1
 1394 003e 0023     		movne	r3, #0
 1395 0040 DBB2     		uxtb	r3, r3
 1396 0042 1946     		mov	r1, r3
 1397 0044 0220     		movs	r0, #2
 1398 0046 FFF7FEFF 		bl	_test_assert
 1399 004a 0346     		mov	r3, r0
 1400 004c 002B     		cmp	r3, #0
 1401 004e 4DD1     		bne	.L91
 1402              		.loc 7 262 0
 1403 0050 0021     		movs	r1, #0
 1404 0052 4FF0FF30 		mov	r0, #-1
 1405 0056 FFF7FEFF 		bl	chEvtWaitAllTimeout
 1406 005a 0190     		str	r0, [sp, #4]
 1407              		.loc 7 263 0
 1408 005c 019B     		ldr	r3, [sp, #4]
 1409 005e 002B     		cmp	r3, #0
 1410 0060 0CBF     		ite	eq
 1411 0062 0123     		moveq	r3, #1
 1412 0064 0023     		movne	r3, #0
 1413 0066 DBB2     		uxtb	r3, r3
 1414 0068 1946     		mov	r1, r3
 1415 006a 0320     		movs	r0, #3
 1416 006c FFF7FEFF 		bl	_test_assert
 1417 0070 0346     		mov	r3, r0
ARM GAS  /tmp/ccjFQPnC.s 			page 26


 1418 0072 002B     		cmp	r3, #0
 1419 0074 3CD1     		bne	.L92
 1420              		.loc 7 264 0
 1421 0076 0A21     		movs	r1, #10
 1422 0078 4FF0FF30 		mov	r0, #-1
 1423 007c FFF7FEFF 		bl	chEvtWaitOneTimeout
 1424 0080 0190     		str	r0, [sp, #4]
 1425              		.loc 7 265 0
 1426 0082 019B     		ldr	r3, [sp, #4]
 1427 0084 002B     		cmp	r3, #0
 1428 0086 0CBF     		ite	eq
 1429 0088 0123     		moveq	r3, #1
 1430 008a 0023     		movne	r3, #0
 1431 008c DBB2     		uxtb	r3, r3
 1432 008e 1946     		mov	r1, r3
 1433 0090 0420     		movs	r0, #4
 1434 0092 FFF7FEFF 		bl	_test_assert
 1435 0096 0346     		mov	r3, r0
 1436 0098 002B     		cmp	r3, #0
 1437 009a 2BD1     		bne	.L93
 1438              		.loc 7 266 0
 1439 009c 0A21     		movs	r1, #10
 1440 009e 4FF0FF30 		mov	r0, #-1
 1441 00a2 FFF7FEFF 		bl	chEvtWaitAnyTimeout
 1442 00a6 0190     		str	r0, [sp, #4]
 1443              		.loc 7 267 0
 1444 00a8 019B     		ldr	r3, [sp, #4]
 1445 00aa 002B     		cmp	r3, #0
 1446 00ac 0CBF     		ite	eq
 1447 00ae 0123     		moveq	r3, #1
 1448 00b0 0023     		movne	r3, #0
 1449 00b2 DBB2     		uxtb	r3, r3
 1450 00b4 1946     		mov	r1, r3
 1451 00b6 0520     		movs	r0, #5
 1452 00b8 FFF7FEFF 		bl	_test_assert
 1453 00bc 0346     		mov	r3, r0
 1454 00be 002B     		cmp	r3, #0
 1455 00c0 1AD1     		bne	.L94
 1456              		.loc 7 268 0
 1457 00c2 0A21     		movs	r1, #10
 1458 00c4 4FF0FF30 		mov	r0, #-1
 1459 00c8 FFF7FEFF 		bl	chEvtWaitAllTimeout
 1460 00cc 0190     		str	r0, [sp, #4]
 1461              		.loc 7 269 0
 1462 00ce 019B     		ldr	r3, [sp, #4]
 1463 00d0 002B     		cmp	r3, #0
 1464 00d2 0CBF     		ite	eq
 1465 00d4 0123     		moveq	r3, #1
 1466 00d6 0023     		movne	r3, #0
 1467 00d8 DBB2     		uxtb	r3, r3
 1468 00da 1946     		mov	r1, r3
 1469 00dc 0620     		movs	r0, #6
 1470 00de FFF7FEFF 		bl	_test_assert
 1471 00e2 0346     		mov	r3, r0
 1472 00e4 002B     		cmp	r3, #0
 1473 00e6 08E0     		b	.L83
 1474              	.L90:
ARM GAS  /tmp/ccjFQPnC.s 			page 27


 1475              		.loc 7 259 0
 1476 00e8 00BF     		nop
 1477 00ea 06E0     		b	.L83
 1478              	.L91:
 1479              		.loc 7 261 0
 1480 00ec 00BF     		nop
 1481 00ee 04E0     		b	.L83
 1482              	.L92:
 1483              		.loc 7 263 0
 1484 00f0 00BF     		nop
 1485 00f2 02E0     		b	.L83
 1486              	.L93:
 1487              		.loc 7 265 0
 1488 00f4 00BF     		nop
 1489 00f6 00E0     		b	.L83
 1490              	.L94:
 1491              		.loc 7 267 0
 1492 00f8 00BF     		nop
 1493              	.L83:
 1494              		.loc 7 270 0
 1495 00fa 03B0     		add	sp, sp, #12
 1496              		.cfi_def_cfa_offset 4
 1497              		@ sp needed
 1498 00fc 5DF804FB 		ldr	pc, [sp], #4
 1499              		.cfi_endproc
 1500              	.LFE241:
 1501              		.size	evt3_execute, .-evt3_execute
 1502              		.global	testevt3
 1503              		.section	.rodata
 1504 0047 00       		.align	2
 1505              	.LC4:
 1506 0048 4576656E 		.ascii	"Events, timeouts\000"
 1506      74732C20 
 1506      74696D65 
 1506      6F757473 
 1506      00
 1507              		.section	.rodata.testevt3,"a",%progbits
 1508              		.align	2
 1509              		.type	testevt3, %object
 1510              		.size	testevt3, 16
 1511              	testevt3:
 1512 0000 48000000 		.word	.LC4
 1513 0004 00000000 		.word	evt3_setup
 1514 0008 00000000 		.word	0
 1515 000c 00000000 		.word	evt3_execute
 1516              		.global	patternevt
 1517              		.section	.rodata.patternevt,"a",%progbits
 1518              		.align	2
 1519              		.type	patternevt, %object
 1520              		.size	patternevt, 16
 1521              	patternevt:
 1522 0000 00000000 		.word	testevt1
 1523 0004 00000000 		.word	testevt2
 1524 0008 00000000 		.word	testevt3
 1525 000c 00000000 		.word	0
 1526              		.section	.rodata.__func__.7157,"a",%progbits
 1527              		.align	2
ARM GAS  /tmp/ccjFQPnC.s 			page 28


 1528              		.type	__func__.7157, %object
 1529              		.size	__func__.7157, 12
 1530              	__func__.7157:
 1531 0000 63685379 		.ascii	"chSysUnlock\000"
 1531      73556E6C 
 1531      6F636B00 
 1532              		.text
 1533              	.Letext0:
 1534              		.file 8 "/usr/lib/gcc/arm-none-eabi/6.3.1/include/stddef.h"
 1535              		.file 9 "/usr/arm-none-eabi/include/machine/_default_types.h"
 1536              		.file 10 "/usr/arm-none-eabi/include/sys/_stdint.h"
 1537              		.file 11 "../ChibiOS/os/rt/ports/ARMCMx/compilers/GCC/chtypes.h"
 1538              		.file 12 "../ChibiOS/os/rt/include/chsystypes.h"
 1539              		.file 13 "../ChibiOS/os/rt/include/chschd.h"
 1540              		.file 14 "../ChibiOS/os/ext/CMSIS/include/core_cm4.h"
 1541              		.file 15 "../ChibiOS/os/ext/CMSIS/ST/STM32F4xx/system_stm32f4xx.h"
 1542              		.file 16 "../ChibiOS/os/rt/ports/ARMCMx/chcore.h"
 1543              		.file 17 "../ChibiOS/os/rt/include/chtm.h"
 1544              		.file 18 "../ChibiOS/os/rt/include/chstats.h"
 1545              		.file 19 "../ChibiOS/os/rt/include/chsem.h"
 1546              		.file 20 "../ChibiOS/os/rt/include/chmtx.h"
 1547              		.file 21 "../ChibiOS/os/rt/include/chregistry.h"
 1548              		.file 22 "../ChibiOS/test/rt/test.h"