ARM GAS  /tmp/ccmXWZj0.s 			page 1


   1              		.cpu cortex-m4
   2              		.eabi_attribute 27, 1
   3              		.eabi_attribute 28, 1
   4              		.eabi_attribute 20, 1
   5              		.eabi_attribute 21, 1
   6              		.eabi_attribute 23, 3
   7              		.eabi_attribute 24, 1
   8              		.eabi_attribute 25, 1
   9              		.eabi_attribute 26, 1
  10              		.eabi_attribute 30, 6
  11              		.eabi_attribute 34, 1
  12              		.eabi_attribute 18, 4
  13              		.file	"testthd.c"
  14              		.text
  15              	.Ltext0:
  16              		.cfi_sections	.debug_frame
  17              		.section	.text.port_lock,"ax",%progbits
  18              		.align	1
  19              		.p2align 4,,15
  20              		.syntax unified
  21              		.thumb
  22              		.thumb_func
  23              		.fpu fpv4-sp-d16
  24              		.type	port_lock, %function
  25              	port_lock:
  26              	.LFB127:
  27              		.file 1 "../ChibiOS/os/rt/ports/ARMCMx/chcore_v7m.h"
  28              		.loc 1 456 0
  29              		.cfi_startproc
  30              		@ args = 0, pretend = 0, frame = 8
  31              		@ frame_needed = 0, uses_anonymous_args = 0
  32              		@ link register save eliminated.
  33 0000 82B0     		sub	sp, sp, #8
  34              		.cfi_def_cfa_offset 8
  35 0002 2023     		movs	r3, #32
  36 0004 0193     		str	r3, [sp, #4]
  37              	.LBB6:
  38              	.LBB7:
  39              		.file 2 "../ChibiOS/os/ext/CMSIS/include/core_cmFunc.h"
  40              		.loc 2 548 0
  41 0006 019B     		ldr	r3, [sp, #4]
  42              		.syntax unified
  43              	@ 548 "../ChibiOS/os/ext/CMSIS/include/core_cmFunc.h" 1
  44 0008 83F31188 		MSR basepri, r3
  45              	@ 0 "" 2
  46              		.thumb
  47              		.syntax unified
  48              	.LBE7:
  49              	.LBE6:
  50              		.loc 1 473 0
  51 000c 00BF     		nop
  52 000e 02B0     		add	sp, sp, #8
  53              		.cfi_def_cfa_offset 0
  54              		@ sp needed
  55 0010 7047     		bx	lr
  56              		.cfi_endproc
  57              	.LFE127:
ARM GAS  /tmp/ccmXWZj0.s 			page 2


  58              		.size	port_lock, .-port_lock
  59 0012 00BF     		.section	.text.port_unlock,"ax",%progbits
  60              		.align	1
  61              		.p2align 4,,15
  62              		.syntax unified
  63              		.thumb
  64              		.thumb_func
  65              		.fpu fpv4-sp-d16
  66              		.type	port_unlock, %function
  67              	port_unlock:
  68              	.LFB128:
  69              		.loc 1 480 0
  70              		.cfi_startproc
  71              		@ args = 0, pretend = 0, frame = 8
  72              		@ frame_needed = 0, uses_anonymous_args = 0
  73              		@ link register save eliminated.
  74 0000 82B0     		sub	sp, sp, #8
  75              		.cfi_def_cfa_offset 8
  76 0002 0023     		movs	r3, #0
  77 0004 0193     		str	r3, [sp, #4]
  78              	.LBB8:
  79              	.LBB9:
  80              		.loc 2 548 0
  81 0006 019B     		ldr	r3, [sp, #4]
  82              		.syntax unified
  83              	@ 548 "../ChibiOS/os/ext/CMSIS/include/core_cmFunc.h" 1
  84 0008 83F31188 		MSR basepri, r3
  85              	@ 0 "" 2
  86              		.thumb
  87              		.syntax unified
  88              	.LBE9:
  89              	.LBE8:
  90              		.loc 1 487 0
  91 000c 00BF     		nop
  92 000e 02B0     		add	sp, sp, #8
  93              		.cfi_def_cfa_offset 0
  94              		@ sp needed
  95 0010 7047     		bx	lr
  96              		.cfi_endproc
  97              	.LFE128:
  98              		.size	port_unlock, .-port_unlock
  99 0012 00BF     		.section	.text.chSysLock,"ax",%progbits
 100              		.align	1
 101              		.p2align 4,,15
 102              		.syntax unified
 103              		.thumb
 104              		.thumb_func
 105              		.fpu fpv4-sp-d16
 106              		.type	chSysLock, %function
 107              	chSysLock:
 108              	.LFB156:
 109              		.file 3 "../ChibiOS/os/rt/include/chsys.h"
 110              		.loc 3 346 0
 111              		.cfi_startproc
 112              		@ args = 0, pretend = 0, frame = 0
 113              		@ frame_needed = 0, uses_anonymous_args = 0
 114 0000 08B5     		push	{r3, lr}
ARM GAS  /tmp/ccmXWZj0.s 			page 3


 115              		.cfi_def_cfa_offset 8
 116              		.cfi_offset 3, -8
 117              		.cfi_offset 14, -4
 118              		.loc 3 348 0
 119 0002 FFF7FEFF 		bl	port_lock
 120              		.loc 3 349 0
 121 0006 FFF7FEFF 		bl	_stats_start_measure_crit_thd
 122              		.loc 3 350 0
 123 000a FFF7FEFF 		bl	_dbg_check_lock
 124              		.loc 3 351 0
 125 000e 00BF     		nop
 126 0010 08BD     		pop	{r3, pc}
 127              		.cfi_endproc
 128              	.LFE156:
 129              		.size	chSysLock, .-chSysLock
 130 0012 00BF     		.section	.text.chSysUnlock,"ax",%progbits
 131              		.align	1
 132              		.p2align 4,,15
 133              		.syntax unified
 134              		.thumb
 135              		.thumb_func
 136              		.fpu fpv4-sp-d16
 137              		.type	chSysUnlock, %function
 138              	chSysUnlock:
 139              	.LFB157:
 140              		.loc 3 358 0
 141              		.cfi_startproc
 142              		@ args = 0, pretend = 0, frame = 0
 143              		@ frame_needed = 0, uses_anonymous_args = 0
 144 0000 08B5     		push	{r3, lr}
 145              		.cfi_def_cfa_offset 8
 146              		.cfi_offset 3, -8
 147              		.cfi_offset 14, -4
 148              		.loc 3 360 0
 149 0002 FFF7FEFF 		bl	_dbg_check_unlock
 150              		.loc 3 361 0
 151 0006 FFF7FEFF 		bl	_stats_stop_measure_crit_thd
 152              		.loc 3 367 0
 153 000a 0A4B     		ldr	r3, .L6
 154 000c 1B68     		ldr	r3, [r3]
 155 000e 094A     		ldr	r2, .L6
 156 0010 9342     		cmp	r3, r2
 157 0012 0AD0     		beq	.L5
 158              		.loc 3 367 0 is_stmt 0 discriminator 2
 159 0014 074B     		ldr	r3, .L6
 160 0016 9B69     		ldr	r3, [r3, #24]
 161 0018 9A68     		ldr	r2, [r3, #8]
 162 001a 064B     		ldr	r3, .L6
 163 001c 1B68     		ldr	r3, [r3]
 164 001e 9B68     		ldr	r3, [r3, #8]
 165 0020 9A42     		cmp	r2, r3
 166 0022 02D2     		bcs	.L5
 167              		.loc 3 367 0 discriminator 3
 168 0024 0448     		ldr	r0, .L6+4
 169 0026 FFF7FEFF 		bl	chSysHalt
 170              	.L5:
 171              		.loc 3 371 0 is_stmt 1
ARM GAS  /tmp/ccmXWZj0.s 			page 4


 172 002a FFF7FEFF 		bl	port_unlock
 173              		.loc 3 372 0
 174 002e 00BF     		nop
 175 0030 08BD     		pop	{r3, pc}
 176              	.L7:
 177 0032 00BF     		.align	2
 178              	.L6:
 179 0034 00000000 		.word	ch
 180 0038 00000000 		.word	__func__.7157
 181              		.cfi_endproc
 182              	.LFE157:
 183              		.size	chSysUnlock, .-chSysUnlock
 184              		.section	.text.chVTGetSystemTimeX,"ax",%progbits
 185              		.align	1
 186              		.p2align 4,,15
 187              		.syntax unified
 188              		.thumb
 189              		.thumb_func
 190              		.fpu fpv4-sp-d16
 191              		.type	chVTGetSystemTimeX, %function
 192              	chVTGetSystemTimeX:
 193              	.LFB164:
 194              		.file 4 "../ChibiOS/os/rt/include/chvt.h"
 195              		.loc 4 228 0
 196              		.cfi_startproc
 197              		@ args = 0, pretend = 0, frame = 0
 198              		@ frame_needed = 0, uses_anonymous_args = 0
 199              		@ link register save eliminated.
 200              		.loc 4 231 0
 201 0000 014B     		ldr	r3, .L10
 202 0002 9B6A     		ldr	r3, [r3, #40]
 203              		.loc 4 235 0
 204 0004 1846     		mov	r0, r3
 205 0006 7047     		bx	lr
 206              	.L11:
 207              		.align	2
 208              	.L10:
 209 0008 00000000 		.word	ch
 210              		.cfi_endproc
 211              	.LFE164:
 212              		.size	chVTGetSystemTimeX, .-chVTGetSystemTimeX
 213              		.section	.text.chVTGetSystemTime,"ax",%progbits
 214              		.align	1
 215              		.p2align 4,,15
 216              		.syntax unified
 217              		.thumb
 218              		.thumb_func
 219              		.fpu fpv4-sp-d16
 220              		.type	chVTGetSystemTime, %function
 221              	chVTGetSystemTime:
 222              	.LFB165:
 223              		.loc 4 247 0
 224              		.cfi_startproc
 225              		@ args = 0, pretend = 0, frame = 8
 226              		@ frame_needed = 0, uses_anonymous_args = 0
 227 0000 00B5     		push	{lr}
 228              		.cfi_def_cfa_offset 4
ARM GAS  /tmp/ccmXWZj0.s 			page 5


 229              		.cfi_offset 14, -4
 230 0002 83B0     		sub	sp, sp, #12
 231              		.cfi_def_cfa_offset 16
 232              		.loc 4 250 0
 233 0004 FFF7FEFF 		bl	chSysLock
 234              		.loc 4 251 0
 235 0008 FFF7FEFF 		bl	chVTGetSystemTimeX
 236 000c 0190     		str	r0, [sp, #4]
 237              		.loc 4 252 0
 238 000e FFF7FEFF 		bl	chSysUnlock
 239              		.loc 4 254 0
 240 0012 019B     		ldr	r3, [sp, #4]
 241              		.loc 4 255 0
 242 0014 1846     		mov	r0, r3
 243 0016 03B0     		add	sp, sp, #12
 244              		.cfi_def_cfa_offset 4
 245              		@ sp needed
 246 0018 5DF804FB 		ldr	pc, [sp], #4
 247              		.cfi_endproc
 248              	.LFE165:
 249              		.size	chVTGetSystemTime, .-chVTGetSystemTime
 250              		.section	.text.chThdGetSelfX,"ax",%progbits
 251              		.align	1
 252              		.p2align 4,,15
 253              		.syntax unified
 254              		.thumb
 255              		.thumb_func
 256              		.fpu fpv4-sp-d16
 257              		.type	chThdGetSelfX, %function
 258              	chThdGetSelfX:
 259              	.LFB178:
 260              		.file 5 "../ChibiOS/os/rt/include/chthreads.h"
 261              		.loc 5 174 0
 262              		.cfi_startproc
 263              		@ args = 0, pretend = 0, frame = 0
 264              		@ frame_needed = 0, uses_anonymous_args = 0
 265              		@ link register save eliminated.
 266              		.loc 5 176 0
 267 0000 014B     		ldr	r3, .L16
 268 0002 9B69     		ldr	r3, [r3, #24]
 269              		.loc 5 177 0
 270 0004 1846     		mov	r0, r3
 271 0006 7047     		bx	lr
 272              	.L17:
 273              		.align	2
 274              	.L16:
 275 0008 00000000 		.word	ch
 276              		.cfi_endproc
 277              	.LFE178:
 278              		.size	chThdGetSelfX, .-chThdGetSelfX
 279              		.section	.text.chThdGetPriorityX,"ax",%progbits
 280              		.align	1
 281              		.p2align 4,,15
 282              		.syntax unified
 283              		.thumb
 284              		.thumb_func
 285              		.fpu fpv4-sp-d16
ARM GAS  /tmp/ccmXWZj0.s 			page 6


 286              		.type	chThdGetPriorityX, %function
 287              	chThdGetPriorityX:
 288              	.LFB179:
 289              		.loc 5 187 0
 290              		.cfi_startproc
 291              		@ args = 0, pretend = 0, frame = 0
 292              		@ frame_needed = 0, uses_anonymous_args = 0
 293 0000 08B5     		push	{r3, lr}
 294              		.cfi_def_cfa_offset 8
 295              		.cfi_offset 3, -8
 296              		.cfi_offset 14, -4
 297              		.loc 5 189 0
 298 0002 FFF7FEFF 		bl	chThdGetSelfX
 299 0006 0346     		mov	r3, r0
 300 0008 9B68     		ldr	r3, [r3, #8]
 301              		.loc 5 190 0
 302 000a 1846     		mov	r0, r3
 303 000c 08BD     		pop	{r3, pc}
 304              		.cfi_endproc
 305              	.LFE179:
 306              		.size	chThdGetPriorityX, .-chThdGetPriorityX
 307 000e 00BF     		.section	.text.thread,"ax",%progbits
 308              		.align	1
 309              		.p2align 4,,15
 310              		.syntax unified
 311              		.thumb
 312              		.thumb_func
 313              		.fpu fpv4-sp-d16
 314              		.type	thread, %function
 315              	thread:
 316              	.LFB231:
 317              		.file 6 "../ChibiOS/test/rt/testthd.c"
 318              		.loc 6 60 0
 319              		.cfi_startproc
 320              		@ args = 0, pretend = 0, frame = 8
 321              		@ frame_needed = 0, uses_anonymous_args = 0
 322 0000 00B5     		push	{lr}
 323              		.cfi_def_cfa_offset 4
 324              		.cfi_offset 14, -4
 325 0002 83B0     		sub	sp, sp, #12
 326              		.cfi_def_cfa_offset 16
 327 0004 0190     		str	r0, [sp, #4]
 328              		.loc 6 62 0
 329 0006 019B     		ldr	r3, [sp, #4]
 330 0008 1B78     		ldrb	r3, [r3]	@ zero_extendqisi2
 331 000a 1846     		mov	r0, r3
 332 000c FFF7FEFF 		bl	test_emit_token
 333              		.loc 6 63 0
 334 0010 00BF     		nop
 335 0012 03B0     		add	sp, sp, #12
 336              		.cfi_def_cfa_offset 4
 337              		@ sp needed
 338 0014 5DF804FB 		ldr	pc, [sp], #4
 339              		.cfi_endproc
 340              	.LFE231:
 341              		.size	thread, .-thread
 342              		.section	.rodata
ARM GAS  /tmp/ccmXWZj0.s 			page 7


 343              		.align	2
 344              	.LC0:
 345 0000 4500     		.ascii	"E\000"
 346 0002 0000     		.align	2
 347              	.LC1:
 348 0004 4400     		.ascii	"D\000"
 349 0006 0000     		.align	2
 350              	.LC2:
 351 0008 4300     		.ascii	"C\000"
 352 000a 0000     		.align	2
 353              	.LC3:
 354 000c 4200     		.ascii	"B\000"
 355 000e 0000     		.align	2
 356              	.LC4:
 357 0010 4100     		.ascii	"A\000"
 358 0012 0000     		.align	2
 359              	.LC5:
 360 0014 41424344 		.ascii	"ABCDE\000"
 360      4500
 361              		.section	.text.thd1_execute,"ax",%progbits
 362              		.align	1
 363              		.p2align 4,,15
 364              		.syntax unified
 365              		.thumb
 366              		.thumb_func
 367              		.fpu fpv4-sp-d16
 368              		.type	thd1_execute, %function
 369              	thd1_execute:
 370              	.LFB232:
 371              		.loc 6 65 0
 372              		.cfi_startproc
 373              		@ args = 0, pretend = 0, frame = 0
 374              		@ frame_needed = 0, uses_anonymous_args = 0
 375 0000 10B5     		push	{r4, lr}
 376              		.cfi_def_cfa_offset 8
 377              		.cfi_offset 4, -8
 378              		.cfi_offset 14, -4
 379 0002 82B0     		sub	sp, sp, #8
 380              		.cfi_def_cfa_offset 16
 381              		.loc 6 67 0
 382 0004 2F4B     		ldr	r3, .L23
 383 0006 1C68     		ldr	r4, [r3]
 384 0008 FFF7FEFF 		bl	chThdGetPriorityX
 385 000c 0346     		mov	r3, r0
 386 000e 5A1F     		subs	r2, r3, #5
 387 0010 2D4B     		ldr	r3, .L23+4
 388 0012 0093     		str	r3, [sp]
 389 0014 2D4B     		ldr	r3, .L23+8
 390 0016 4FF4F871 		mov	r1, #496
 391 001a 2046     		mov	r0, r4
 392 001c FFF7FEFF 		bl	chThdCreateStatic
 393 0020 0246     		mov	r2, r0
 394 0022 2B4B     		ldr	r3, .L23+12
 395 0024 1A60     		str	r2, [r3]
 396              		.loc 6 68 0
 397 0026 274B     		ldr	r3, .L23
 398 0028 5C68     		ldr	r4, [r3, #4]
ARM GAS  /tmp/ccmXWZj0.s 			page 8


 399 002a FFF7FEFF 		bl	chThdGetPriorityX
 400 002e 0346     		mov	r3, r0
 401 0030 1A1F     		subs	r2, r3, #4
 402 0032 284B     		ldr	r3, .L23+16
 403 0034 0093     		str	r3, [sp]
 404 0036 254B     		ldr	r3, .L23+8
 405 0038 4FF4F871 		mov	r1, #496
 406 003c 2046     		mov	r0, r4
 407 003e FFF7FEFF 		bl	chThdCreateStatic
 408 0042 0246     		mov	r2, r0
 409 0044 224B     		ldr	r3, .L23+12
 410 0046 5A60     		str	r2, [r3, #4]
 411              		.loc 6 69 0
 412 0048 1E4B     		ldr	r3, .L23
 413 004a 9C68     		ldr	r4, [r3, #8]
 414 004c FFF7FEFF 		bl	chThdGetPriorityX
 415 0050 0346     		mov	r3, r0
 416 0052 DA1E     		subs	r2, r3, #3
 417 0054 204B     		ldr	r3, .L23+20
 418 0056 0093     		str	r3, [sp]
 419 0058 1C4B     		ldr	r3, .L23+8
 420 005a 4FF4F871 		mov	r1, #496
 421 005e 2046     		mov	r0, r4
 422 0060 FFF7FEFF 		bl	chThdCreateStatic
 423 0064 0246     		mov	r2, r0
 424 0066 1A4B     		ldr	r3, .L23+12
 425 0068 9A60     		str	r2, [r3, #8]
 426              		.loc 6 70 0
 427 006a 164B     		ldr	r3, .L23
 428 006c DC68     		ldr	r4, [r3, #12]
 429 006e FFF7FEFF 		bl	chThdGetPriorityX
 430 0072 0346     		mov	r3, r0
 431 0074 9A1E     		subs	r2, r3, #2
 432 0076 194B     		ldr	r3, .L23+24
 433 0078 0093     		str	r3, [sp]
 434 007a 144B     		ldr	r3, .L23+8
 435 007c 4FF4F871 		mov	r1, #496
 436 0080 2046     		mov	r0, r4
 437 0082 FFF7FEFF 		bl	chThdCreateStatic
 438 0086 0246     		mov	r2, r0
 439 0088 114B     		ldr	r3, .L23+12
 440 008a DA60     		str	r2, [r3, #12]
 441              		.loc 6 71 0
 442 008c 0D4B     		ldr	r3, .L23
 443 008e 1C69     		ldr	r4, [r3, #16]
 444 0090 FFF7FEFF 		bl	chThdGetPriorityX
 445 0094 0346     		mov	r3, r0
 446 0096 5A1E     		subs	r2, r3, #1
 447 0098 114B     		ldr	r3, .L23+28
 448 009a 0093     		str	r3, [sp]
 449 009c 0B4B     		ldr	r3, .L23+8
 450 009e 4FF4F871 		mov	r1, #496
 451 00a2 2046     		mov	r0, r4
 452 00a4 FFF7FEFF 		bl	chThdCreateStatic
 453 00a8 0246     		mov	r2, r0
 454 00aa 094B     		ldr	r3, .L23+12
 455 00ac 1A61     		str	r2, [r3, #16]
ARM GAS  /tmp/ccmXWZj0.s 			page 9


 456              		.loc 6 72 0
 457 00ae FFF7FEFF 		bl	test_wait_threads
 458              		.loc 6 73 0
 459 00b2 0C49     		ldr	r1, .L23+32
 460 00b4 0120     		movs	r0, #1
 461 00b6 FFF7FEFF 		bl	_test_assert_sequence
 462 00ba 0346     		mov	r3, r0
 463 00bc 002B     		cmp	r3, #0
 464              		.loc 6 74 0
 465 00be 02B0     		add	sp, sp, #8
 466              		.cfi_def_cfa_offset 8
 467              		@ sp needed
 468 00c0 10BD     		pop	{r4, pc}
 469              	.L24:
 470 00c2 00BF     		.align	2
 471              	.L23:
 472 00c4 00000000 		.word	wa
 473 00c8 00000000 		.word	.LC0
 474 00cc 00000000 		.word	thread
 475 00d0 00000000 		.word	threads
 476 00d4 04000000 		.word	.LC1
 477 00d8 08000000 		.word	.LC2
 478 00dc 0C000000 		.word	.LC3
 479 00e0 10000000 		.word	.LC4
 480 00e4 14000000 		.word	.LC5
 481              		.cfi_endproc
 482              	.LFE232:
 483              		.size	thd1_execute, .-thd1_execute
 484              		.global	testthd1
 485              		.section	.rodata
 486 001a 0000     		.align	2
 487              	.LC6:
 488 001c 54687265 		.ascii	"Threads, enqueuing test #1\000"
 488      6164732C 
 488      20656E71 
 488      75657569 
 488      6E672074 
 489              		.section	.rodata.testthd1,"a",%progbits
 490              		.align	2
 491              		.type	testthd1, %object
 492              		.size	testthd1, 16
 493              	testthd1:
 494 0000 1C000000 		.word	.LC6
 495 0004 00000000 		.word	0
 496 0008 00000000 		.word	0
 497 000c 00000000 		.word	thd1_execute
 498              		.section	.text.thd2_execute,"ax",%progbits
 499              		.align	1
 500              		.p2align 4,,15
 501              		.syntax unified
 502              		.thumb
 503              		.thumb_func
 504              		.fpu fpv4-sp-d16
 505              		.type	thd2_execute, %function
 506              	thd2_execute:
 507              	.LFB233:
 508              		.loc 6 93 0
ARM GAS  /tmp/ccmXWZj0.s 			page 10


 509              		.cfi_startproc
 510              		@ args = 0, pretend = 0, frame = 0
 511              		@ frame_needed = 0, uses_anonymous_args = 0
 512 0000 10B5     		push	{r4, lr}
 513              		.cfi_def_cfa_offset 8
 514              		.cfi_offset 4, -8
 515              		.cfi_offset 14, -4
 516 0002 82B0     		sub	sp, sp, #8
 517              		.cfi_def_cfa_offset 16
 518              		.loc 6 95 0
 519 0004 334B     		ldr	r3, .L27
 520 0006 5C68     		ldr	r4, [r3, #4]
 521 0008 FFF7FEFF 		bl	chThdGetPriorityX
 522 000c 0346     		mov	r3, r0
 523 000e 1A1F     		subs	r2, r3, #4
 524 0010 314B     		ldr	r3, .L27+4
 525 0012 0093     		str	r3, [sp]
 526 0014 314B     		ldr	r3, .L27+8
 527 0016 4FF4F871 		mov	r1, #496
 528 001a 2046     		mov	r0, r4
 529 001c FFF7FEFF 		bl	chThdCreateStatic
 530 0020 0246     		mov	r2, r0
 531 0022 2F4B     		ldr	r3, .L27+12
 532 0024 5A60     		str	r2, [r3, #4]
 533              		.loc 6 96 0
 534 0026 2B4B     		ldr	r3, .L27
 535 0028 1C68     		ldr	r4, [r3]
 536 002a FFF7FEFF 		bl	chThdGetPriorityX
 537 002e 0346     		mov	r3, r0
 538 0030 5A1F     		subs	r2, r3, #5
 539 0032 2C4B     		ldr	r3, .L27+16
 540 0034 0093     		str	r3, [sp]
 541 0036 294B     		ldr	r3, .L27+8
 542 0038 4FF4F871 		mov	r1, #496
 543 003c 2046     		mov	r0, r4
 544 003e FFF7FEFF 		bl	chThdCreateStatic
 545 0042 0246     		mov	r2, r0
 546 0044 264B     		ldr	r3, .L27+12
 547 0046 1A60     		str	r2, [r3]
 548              		.loc 6 97 0
 549 0048 224B     		ldr	r3, .L27
 550 004a 1C69     		ldr	r4, [r3, #16]
 551 004c FFF7FEFF 		bl	chThdGetPriorityX
 552 0050 0346     		mov	r3, r0
 553 0052 5A1E     		subs	r2, r3, #1
 554 0054 244B     		ldr	r3, .L27+20
 555 0056 0093     		str	r3, [sp]
 556 0058 204B     		ldr	r3, .L27+8
 557 005a 4FF4F871 		mov	r1, #496
 558 005e 2046     		mov	r0, r4
 559 0060 FFF7FEFF 		bl	chThdCreateStatic
 560 0064 0246     		mov	r2, r0
 561 0066 1E4B     		ldr	r3, .L27+12
 562 0068 1A61     		str	r2, [r3, #16]
 563              		.loc 6 98 0
 564 006a 1A4B     		ldr	r3, .L27
 565 006c DC68     		ldr	r4, [r3, #12]
ARM GAS  /tmp/ccmXWZj0.s 			page 11


 566 006e FFF7FEFF 		bl	chThdGetPriorityX
 567 0072 0346     		mov	r3, r0
 568 0074 9A1E     		subs	r2, r3, #2
 569 0076 1D4B     		ldr	r3, .L27+24
 570 0078 0093     		str	r3, [sp]
 571 007a 184B     		ldr	r3, .L27+8
 572 007c 4FF4F871 		mov	r1, #496
 573 0080 2046     		mov	r0, r4
 574 0082 FFF7FEFF 		bl	chThdCreateStatic
 575 0086 0246     		mov	r2, r0
 576 0088 154B     		ldr	r3, .L27+12
 577 008a DA60     		str	r2, [r3, #12]
 578              		.loc 6 100 0
 579 008c FFF7FEFF 		bl	chSysLock
 580              		.loc 6 101 0
 581 0090 104B     		ldr	r3, .L27
 582 0092 9C68     		ldr	r4, [r3, #8]
 583 0094 FFF7FEFF 		bl	chThdGetPriorityX
 584 0098 0346     		mov	r3, r0
 585 009a DA1E     		subs	r2, r3, #3
 586 009c 144B     		ldr	r3, .L27+28
 587 009e 0093     		str	r3, [sp]
 588 00a0 0E4B     		ldr	r3, .L27+8
 589 00a2 4FF4F871 		mov	r1, #496
 590 00a6 2046     		mov	r0, r4
 591 00a8 FFF7FEFF 		bl	chThdCreateI
 592 00ac 0246     		mov	r2, r0
 593 00ae 0C4B     		ldr	r3, .L27+12
 594 00b0 9A60     		str	r2, [r3, #8]
 595              		.loc 6 102 0
 596 00b2 FFF7FEFF 		bl	chSysUnlock
 597              		.loc 6 103 0
 598 00b6 0A4B     		ldr	r3, .L27+12
 599 00b8 9B68     		ldr	r3, [r3, #8]
 600 00ba 1846     		mov	r0, r3
 601 00bc FFF7FEFF 		bl	chThdStart
 602              		.loc 6 104 0
 603 00c0 FFF7FEFF 		bl	test_wait_threads
 604              		.loc 6 105 0
 605 00c4 0B49     		ldr	r1, .L27+32
 606 00c6 0120     		movs	r0, #1
 607 00c8 FFF7FEFF 		bl	_test_assert_sequence
 608 00cc 0346     		mov	r3, r0
 609 00ce 002B     		cmp	r3, #0
 610              		.loc 6 106 0
 611 00d0 02B0     		add	sp, sp, #8
 612              		.cfi_def_cfa_offset 8
 613              		@ sp needed
 614 00d2 10BD     		pop	{r4, pc}
 615              	.L28:
 616              		.align	2
 617              	.L27:
 618 00d4 00000000 		.word	wa
 619 00d8 04000000 		.word	.LC1
 620 00dc 00000000 		.word	thread
 621 00e0 00000000 		.word	threads
 622 00e4 00000000 		.word	.LC0
ARM GAS  /tmp/ccmXWZj0.s 			page 12


 623 00e8 10000000 		.word	.LC4
 624 00ec 0C000000 		.word	.LC3
 625 00f0 08000000 		.word	.LC2
 626 00f4 14000000 		.word	.LC5
 627              		.cfi_endproc
 628              	.LFE233:
 629              		.size	thd2_execute, .-thd2_execute
 630              		.global	testthd2
 631              		.section	.rodata
 632 0037 00       		.align	2
 633              	.LC7:
 634 0038 54687265 		.ascii	"Threads, enqueuing test #2\000"
 634      6164732C 
 634      20656E71 
 634      75657569 
 634      6E672074 
 635              		.section	.rodata.testthd2,"a",%progbits
 636              		.align	2
 637              		.type	testthd2, %object
 638              		.size	testthd2, 16
 639              	testthd2:
 640 0000 38000000 		.word	.LC7
 641 0004 00000000 		.word	0
 642 0008 00000000 		.word	0
 643 000c 00000000 		.word	thd2_execute
 644              		.section	.text.thd3_execute,"ax",%progbits
 645              		.align	1
 646              		.p2align 4,,15
 647              		.syntax unified
 648              		.thumb
 649              		.thumb_func
 650              		.fpu fpv4-sp-d16
 651              		.type	thd3_execute, %function
 652              	thd3_execute:
 653              	.LFB234:
 654              		.loc 6 125 0
 655              		.cfi_startproc
 656              		@ args = 0, pretend = 0, frame = 8
 657              		@ frame_needed = 0, uses_anonymous_args = 0
 658 0000 00B5     		push	{lr}
 659              		.cfi_def_cfa_offset 4
 660              		.cfi_offset 14, -4
 661 0002 83B0     		sub	sp, sp, #12
 662              		.cfi_def_cfa_offset 16
 663              		.loc 6 128 0
 664 0004 FFF7FEFF 		bl	chThdGetPriorityX
 665 0008 0190     		str	r0, [sp, #4]
 666              		.loc 6 129 0
 667 000a 019B     		ldr	r3, [sp, #4]
 668 000c 0133     		adds	r3, r3, #1
 669 000e 1846     		mov	r0, r3
 670 0010 FFF7FEFF 		bl	chThdSetPriority
 671 0014 0090     		str	r0, [sp]
 672              		.loc 6 130 0
 673 0016 009A     		ldr	r2, [sp]
 674 0018 019B     		ldr	r3, [sp, #4]
 675 001a 9A42     		cmp	r2, r3
ARM GAS  /tmp/ccmXWZj0.s 			page 13


 676 001c 0CBF     		ite	eq
 677 001e 0123     		moveq	r3, #1
 678 0020 0023     		movne	r3, #0
 679 0022 DBB2     		uxtb	r3, r3
 680 0024 1946     		mov	r1, r3
 681 0026 0120     		movs	r0, #1
 682 0028 FFF7FEFF 		bl	_test_assert
 683 002c 0346     		mov	r3, r0
 684 002e 002B     		cmp	r3, #0
 685 0030 40F0D380 		bne	.L42
 686              		.loc 6 132 0
 687 0034 FFF7FEFF 		bl	chThdGetPriorityX
 688 0038 0246     		mov	r2, r0
 689 003a 019B     		ldr	r3, [sp, #4]
 690 003c 0133     		adds	r3, r3, #1
 691 003e 9A42     		cmp	r2, r3
 692 0040 0CBF     		ite	eq
 693 0042 0123     		moveq	r3, #1
 694 0044 0023     		movne	r3, #0
 695 0046 DBB2     		uxtb	r3, r3
 696 0048 1946     		mov	r1, r3
 697 004a 0220     		movs	r0, #2
 698 004c FFF7FEFF 		bl	_test_assert
 699 0050 0346     		mov	r3, r0
 700 0052 002B     		cmp	r3, #0
 701 0054 40F0C380 		bne	.L43
 702              		.loc 6 134 0
 703 0058 0098     		ldr	r0, [sp]
 704 005a FFF7FEFF 		bl	chThdSetPriority
 705 005e 0090     		str	r0, [sp]
 706              		.loc 6 135 0
 707 0060 019B     		ldr	r3, [sp, #4]
 708 0062 5A1C     		adds	r2, r3, #1
 709 0064 009B     		ldr	r3, [sp]
 710 0066 9A42     		cmp	r2, r3
 711 0068 0CBF     		ite	eq
 712 006a 0123     		moveq	r3, #1
 713 006c 0023     		movne	r3, #0
 714 006e DBB2     		uxtb	r3, r3
 715 0070 1946     		mov	r1, r3
 716 0072 0320     		movs	r0, #3
 717 0074 FFF7FEFF 		bl	_test_assert
 718 0078 0346     		mov	r3, r0
 719 007a 002B     		cmp	r3, #0
 720 007c 40F0B180 		bne	.L44
 721              		.loc 6 137 0
 722 0080 FFF7FEFF 		bl	chThdGetPriorityX
 723 0084 0246     		mov	r2, r0
 724 0086 019B     		ldr	r3, [sp, #4]
 725 0088 9A42     		cmp	r2, r3
 726 008a 0CBF     		ite	eq
 727 008c 0123     		moveq	r3, #1
 728 008e 0023     		movne	r3, #0
 729 0090 DBB2     		uxtb	r3, r3
 730 0092 1946     		mov	r1, r3
 731 0094 0420     		movs	r0, #4
 732 0096 FFF7FEFF 		bl	_test_assert
ARM GAS  /tmp/ccmXWZj0.s 			page 14


 733 009a 0346     		mov	r3, r0
 734 009c 002B     		cmp	r3, #0
 735 009e 40F0A280 		bne	.L45
 736              		.loc 6 142 0
 737 00a2 FFF7FEFF 		bl	chSysLock
 738              		.loc 6 143 0
 739 00a6 FFF7FEFF 		bl	chThdGetSelfX
 740 00aa 0346     		mov	r3, r0
 741 00ac 9A68     		ldr	r2, [r3, #8]
 742 00ae 0232     		adds	r2, r2, #2
 743 00b0 9A60     		str	r2, [r3, #8]
 744              		.loc 6 144 0
 745 00b2 FFF7FEFF 		bl	chSysUnlock
 746              		.loc 6 145 0
 747 00b6 FFF7FEFF 		bl	chThdGetPriorityX
 748 00ba 0246     		mov	r2, r0
 749 00bc 019B     		ldr	r3, [sp, #4]
 750 00be 0233     		adds	r3, r3, #2
 751 00c0 9A42     		cmp	r2, r3
 752 00c2 0CBF     		ite	eq
 753 00c4 0123     		moveq	r3, #1
 754 00c6 0023     		movne	r3, #0
 755 00c8 DBB2     		uxtb	r3, r3
 756 00ca 1946     		mov	r1, r3
 757 00cc 0520     		movs	r0, #5
 758 00ce FFF7FEFF 		bl	_test_assert
 759 00d2 0346     		mov	r3, r0
 760 00d4 002B     		cmp	r3, #0
 761 00d6 40F08880 		bne	.L46
 762              		.loc 6 149 0
 763 00da 019B     		ldr	r3, [sp, #4]
 764 00dc 0133     		adds	r3, r3, #1
 765 00de 1846     		mov	r0, r3
 766 00e0 FFF7FEFF 		bl	chThdSetPriority
 767 00e4 0090     		str	r0, [sp]
 768              		.loc 6 150 0
 769 00e6 009A     		ldr	r2, [sp]
 770 00e8 019B     		ldr	r3, [sp, #4]
 771 00ea 9A42     		cmp	r2, r3
 772 00ec 0CBF     		ite	eq
 773 00ee 0123     		moveq	r3, #1
 774 00f0 0023     		movne	r3, #0
 775 00f2 DBB2     		uxtb	r3, r3
 776 00f4 1946     		mov	r1, r3
 777 00f6 0620     		movs	r0, #6
 778 00f8 FFF7FEFF 		bl	_test_assert
 779 00fc 0346     		mov	r3, r0
 780 00fe 002B     		cmp	r3, #0
 781 0100 75D1     		bne	.L47
 782              		.loc 6 152 0
 783 0102 FFF7FEFF 		bl	chThdGetSelfX
 784 0106 0346     		mov	r3, r0
 785 0108 9A68     		ldr	r2, [r3, #8]
 786 010a 019B     		ldr	r3, [sp, #4]
 787 010c 0233     		adds	r3, r3, #2
 788 010e 9A42     		cmp	r2, r3
 789 0110 0CBF     		ite	eq
ARM GAS  /tmp/ccmXWZj0.s 			page 15


 790 0112 0123     		moveq	r3, #1
 791 0114 0023     		movne	r3, #0
 792 0116 DBB2     		uxtb	r3, r3
 793 0118 1946     		mov	r1, r3
 794 011a 0720     		movs	r0, #7
 795 011c FFF7FEFF 		bl	_test_assert
 796 0120 0346     		mov	r3, r0
 797 0122 002B     		cmp	r3, #0
 798 0124 65D1     		bne	.L48
 799              		.loc 6 154 0
 800 0126 FFF7FEFF 		bl	chThdGetSelfX
 801 012a 0346     		mov	r3, r0
 802 012c 1A6C     		ldr	r2, [r3, #64]
 803 012e 019B     		ldr	r3, [sp, #4]
 804 0130 0133     		adds	r3, r3, #1
 805 0132 9A42     		cmp	r2, r3
 806 0134 0CBF     		ite	eq
 807 0136 0123     		moveq	r3, #1
 808 0138 0023     		movne	r3, #0
 809 013a DBB2     		uxtb	r3, r3
 810 013c 1946     		mov	r1, r3
 811 013e 0820     		movs	r0, #8
 812 0140 FFF7FEFF 		bl	_test_assert
 813 0144 0346     		mov	r3, r0
 814 0146 002B     		cmp	r3, #0
 815 0148 55D1     		bne	.L49
 816              		.loc 6 158 0
 817 014a 019B     		ldr	r3, [sp, #4]
 818 014c 0333     		adds	r3, r3, #3
 819 014e 1846     		mov	r0, r3
 820 0150 FFF7FEFF 		bl	chThdSetPriority
 821 0154 0090     		str	r0, [sp]
 822              		.loc 6 159 0
 823 0156 019B     		ldr	r3, [sp, #4]
 824 0158 5A1C     		adds	r2, r3, #1
 825 015a 009B     		ldr	r3, [sp]
 826 015c 9A42     		cmp	r2, r3
 827 015e 0CBF     		ite	eq
 828 0160 0123     		moveq	r3, #1
 829 0162 0023     		movne	r3, #0
 830 0164 DBB2     		uxtb	r3, r3
 831 0166 1946     		mov	r1, r3
 832 0168 0920     		movs	r0, #9
 833 016a FFF7FEFF 		bl	_test_assert
 834 016e 0346     		mov	r3, r0
 835 0170 002B     		cmp	r3, #0
 836 0172 42D1     		bne	.L50
 837              		.loc 6 161 0
 838 0174 FFF7FEFF 		bl	chThdGetSelfX
 839 0178 0346     		mov	r3, r0
 840 017a 9A68     		ldr	r2, [r3, #8]
 841 017c 019B     		ldr	r3, [sp, #4]
 842 017e 0333     		adds	r3, r3, #3
 843 0180 9A42     		cmp	r2, r3
 844 0182 0CBF     		ite	eq
 845 0184 0123     		moveq	r3, #1
 846 0186 0023     		movne	r3, #0
ARM GAS  /tmp/ccmXWZj0.s 			page 16


 847 0188 DBB2     		uxtb	r3, r3
 848 018a 1946     		mov	r1, r3
 849 018c 0A20     		movs	r0, #10
 850 018e FFF7FEFF 		bl	_test_assert
 851 0192 0346     		mov	r3, r0
 852 0194 002B     		cmp	r3, #0
 853 0196 32D1     		bne	.L51
 854              		.loc 6 163 0
 855 0198 FFF7FEFF 		bl	chThdGetSelfX
 856 019c 0346     		mov	r3, r0
 857 019e 1A6C     		ldr	r2, [r3, #64]
 858 01a0 019B     		ldr	r3, [sp, #4]
 859 01a2 0333     		adds	r3, r3, #3
 860 01a4 9A42     		cmp	r2, r3
 861 01a6 0CBF     		ite	eq
 862 01a8 0123     		moveq	r3, #1
 863 01aa 0023     		movne	r3, #0
 864 01ac DBB2     		uxtb	r3, r3
 865 01ae 1946     		mov	r1, r3
 866 01b0 0B20     		movs	r0, #11
 867 01b2 FFF7FEFF 		bl	_test_assert
 868 01b6 0346     		mov	r3, r0
 869 01b8 002B     		cmp	r3, #0
 870 01ba 22D1     		bne	.L52
 871              		.loc 6 166 0
 872 01bc FFF7FEFF 		bl	chSysLock
 873              		.loc 6 167 0
 874 01c0 FFF7FEFF 		bl	chThdGetSelfX
 875 01c4 0246     		mov	r2, r0
 876 01c6 019B     		ldr	r3, [sp, #4]
 877 01c8 9360     		str	r3, [r2, #8]
 878              		.loc 6 168 0
 879 01ca FFF7FEFF 		bl	chThdGetSelfX
 880 01ce 0246     		mov	r2, r0
 881 01d0 019B     		ldr	r3, [sp, #4]
 882 01d2 1364     		str	r3, [r2, #64]
 883              		.loc 6 169 0
 884 01d4 FFF7FEFF 		bl	chSysUnlock
 885 01d8 14E0     		b	.L29
 886              	.L42:
 887              		.loc 6 130 0
 888 01da 00BF     		nop
 889 01dc 12E0     		b	.L29
 890              	.L43:
 891              		.loc 6 132 0
 892 01de 00BF     		nop
 893 01e0 10E0     		b	.L29
 894              	.L44:
 895              		.loc 6 135 0
 896 01e2 00BF     		nop
 897 01e4 0EE0     		b	.L29
 898              	.L45:
 899              		.loc 6 137 0
 900 01e6 00BF     		nop
 901 01e8 0CE0     		b	.L29
 902              	.L46:
 903              		.loc 6 145 0
ARM GAS  /tmp/ccmXWZj0.s 			page 17


 904 01ea 00BF     		nop
 905 01ec 0AE0     		b	.L29
 906              	.L47:
 907              		.loc 6 150 0
 908 01ee 00BF     		nop
 909 01f0 08E0     		b	.L29
 910              	.L48:
 911              		.loc 6 152 0
 912 01f2 00BF     		nop
 913 01f4 06E0     		b	.L29
 914              	.L49:
 915              		.loc 6 154 0
 916 01f6 00BF     		nop
 917 01f8 04E0     		b	.L29
 918              	.L50:
 919              		.loc 6 159 0
 920 01fa 00BF     		nop
 921 01fc 02E0     		b	.L29
 922              	.L51:
 923              		.loc 6 161 0
 924 01fe 00BF     		nop
 925 0200 00E0     		b	.L29
 926              	.L52:
 927              		.loc 6 163 0
 928 0202 00BF     		nop
 929              	.L29:
 930              		.loc 6 171 0
 931 0204 03B0     		add	sp, sp, #12
 932              		.cfi_def_cfa_offset 4
 933              		@ sp needed
 934 0206 5DF804FB 		ldr	pc, [sp], #4
 935              		.cfi_endproc
 936              	.LFE234:
 937              		.size	thd3_execute, .-thd3_execute
 938              		.global	testthd3
 939 020a 00BF     		.section	.rodata
 940 0053 00       		.align	2
 941              	.LC8:
 942 0054 54687265 		.ascii	"Threads, priority change\000"
 942      6164732C 
 942      20707269 
 942      6F726974 
 942      79206368 
 943              		.section	.rodata.testthd3,"a",%progbits
 944              		.align	2
 945              		.type	testthd3, %object
 946              		.size	testthd3, 16
 947              	testthd3:
 948 0000 54000000 		.word	.LC8
 949 0004 00000000 		.word	0
 950 0008 00000000 		.word	0
 951 000c 00000000 		.word	thd3_execute
 952              		.section	.text.thd4_execute,"ax",%progbits
 953              		.align	1
 954              		.p2align 4,,15
 955              		.syntax unified
 956              		.thumb
ARM GAS  /tmp/ccmXWZj0.s 			page 18


 957              		.thumb_func
 958              		.fpu fpv4-sp-d16
 959              		.type	thd4_execute, %function
 960              	thd4_execute:
 961              	.LFB235:
 962              		.loc 6 188 0
 963              		.cfi_startproc
 964              		@ args = 0, pretend = 0, frame = 8
 965              		@ frame_needed = 0, uses_anonymous_args = 0
 966 0000 00B5     		push	{lr}
 967              		.cfi_def_cfa_offset 4
 968              		.cfi_offset 14, -4
 969 0002 83B0     		sub	sp, sp, #12
 970              		.cfi_def_cfa_offset 16
 971              		.loc 6 191 0
 972 0004 FFF7FEFF 		bl	test_wait_tick
 973              		.loc 6 194 0
 974 0008 FFF7FEFF 		bl	chVTGetSystemTime
 975 000c 0190     		str	r0, [sp, #4]
 976              		.loc 6 195 0
 977 000e 4FF47A70 		mov	r0, #1000
 978 0012 FFF7FEFF 		bl	chThdSleep
 979              		.loc 6 196 0
 980 0016 019B     		ldr	r3, [sp, #4]
 981 0018 03F57A71 		add	r1, r3, #1000
 982 001c 019B     		ldr	r3, [sp, #4]
 983 001e 03F2E933 		addw	r3, r3, #1001
 984 0022 1A46     		mov	r2, r3
 985 0024 0120     		movs	r0, #1
 986 0026 FFF7FEFF 		bl	_test_assert_time_window
 987 002a 0346     		mov	r3, r0
 988 002c 002B     		cmp	r3, #0
 989 002e 3CD1     		bne	.L58
 990              		.loc 6 201 0
 991 0030 FFF7FEFF 		bl	chVTGetSystemTime
 992 0034 0190     		str	r0, [sp, #4]
 993              		.loc 6 202 0
 994 0036 4FF47A70 		mov	r0, #1000
 995 003a FFF7FEFF 		bl	chThdSleep
 996              		.loc 6 203 0
 997 003e 019B     		ldr	r3, [sp, #4]
 998 0040 03F57A71 		add	r1, r3, #1000
 999 0044 019B     		ldr	r3, [sp, #4]
 1000 0046 03F2E933 		addw	r3, r3, #1001
 1001 004a 1A46     		mov	r2, r3
 1002 004c 0220     		movs	r0, #2
 1003 004e FFF7FEFF 		bl	_test_assert_time_window
 1004 0052 0346     		mov	r3, r0
 1005 0054 002B     		cmp	r3, #0
 1006 0056 2AD1     		bne	.L59
 1007              		.loc 6 208 0
 1008 0058 FFF7FEFF 		bl	chVTGetSystemTime
 1009 005c 0190     		str	r0, [sp, #4]
 1010              		.loc 6 209 0
 1011 005e 42F21070 		movw	r0, #10000
 1012 0062 FFF7FEFF 		bl	chThdSleep
 1013              		.loc 6 210 0
ARM GAS  /tmp/ccmXWZj0.s 			page 19


 1014 0066 019B     		ldr	r3, [sp, #4]
 1015 0068 03F51C53 		add	r3, r3, #9984
 1016 006c 1033     		adds	r3, r3, #16
 1017 006e 019A     		ldr	r2, [sp, #4]
 1018 0070 02F51C52 		add	r2, r2, #9984
 1019 0074 1132     		adds	r2, r2, #17
 1020 0076 1946     		mov	r1, r3
 1021 0078 0320     		movs	r0, #3
 1022 007a FFF7FEFF 		bl	_test_assert_time_window
 1023 007e 0346     		mov	r3, r0
 1024 0080 002B     		cmp	r3, #0
 1025 0082 16D1     		bne	.L60
 1026              		.loc 6 215 0
 1027 0084 FFF7FEFF 		bl	chVTGetSystemTime
 1028 0088 0346     		mov	r3, r0
 1029 008a 03F57A73 		add	r3, r3, #1000
 1030 008e 0193     		str	r3, [sp, #4]
 1031              		.loc 6 216 0
 1032 0090 0198     		ldr	r0, [sp, #4]
 1033 0092 FFF7FEFF 		bl	chThdSleepUntil
 1034              		.loc 6 217 0
 1035 0096 019B     		ldr	r3, [sp, #4]
 1036 0098 0133     		adds	r3, r3, #1
 1037 009a 1A46     		mov	r2, r3
 1038 009c 0199     		ldr	r1, [sp, #4]
 1039 009e 0420     		movs	r0, #4
 1040 00a0 FFF7FEFF 		bl	_test_assert_time_window
 1041 00a4 0346     		mov	r3, r0
 1042 00a6 002B     		cmp	r3, #0
 1043 00a8 04E0     		b	.L53
 1044              	.L58:
 1045              		.loc 6 196 0
 1046 00aa 00BF     		nop
 1047 00ac 02E0     		b	.L53
 1048              	.L59:
 1049              		.loc 6 203 0
 1050 00ae 00BF     		nop
 1051 00b0 00E0     		b	.L53
 1052              	.L60:
 1053              		.loc 6 210 0
 1054 00b2 00BF     		nop
 1055              	.L53:
 1056              		.loc 6 220 0
 1057 00b4 03B0     		add	sp, sp, #12
 1058              		.cfi_def_cfa_offset 4
 1059              		@ sp needed
 1060 00b6 5DF804FB 		ldr	pc, [sp], #4
 1061              		.cfi_endproc
 1062              	.LFE235:
 1063              		.size	thd4_execute, .-thd4_execute
 1064              		.global	testthd4
 1065 00ba 00BF     		.section	.rodata
 1066 006d 000000   		.align	2
 1067              	.LC9:
 1068 0070 54687265 		.ascii	"Threads, delays\000"
 1068      6164732C 
 1068      2064656C 
ARM GAS  /tmp/ccmXWZj0.s 			page 20


 1068      61797300 
 1069              		.section	.rodata.testthd4,"a",%progbits
 1070              		.align	2
 1071              		.type	testthd4, %object
 1072              		.size	testthd4, 16
 1073              	testthd4:
 1074 0000 70000000 		.word	.LC9
 1075 0004 00000000 		.word	0
 1076 0008 00000000 		.word	0
 1077 000c 00000000 		.word	thd4_execute
 1078              		.global	patternthd
 1079              		.section	.rodata.patternthd,"a",%progbits
 1080              		.align	2
 1081              		.type	patternthd, %object
 1082              		.size	patternthd, 20
 1083              	patternthd:
 1084 0000 00000000 		.word	testthd1
 1085 0004 00000000 		.word	testthd2
 1086 0008 00000000 		.word	testthd3
 1087 000c 00000000 		.word	testthd4
 1088 0010 00000000 		.word	0
 1089              		.section	.rodata.__func__.7157,"a",%progbits
 1090              		.align	2
 1091              		.type	__func__.7157, %object
 1092              		.size	__func__.7157, 12
 1093              	__func__.7157:
 1094 0000 63685379 		.ascii	"chSysUnlock\000"
 1094      73556E6C 
 1094      6F636B00 
 1095              		.text
 1096              	.Letext0:
 1097              		.file 7 "/usr/lib/gcc/arm-none-eabi/6.3.1/include/stddef.h"
 1098              		.file 8 "/usr/arm-none-eabi/include/machine/_default_types.h"
 1099              		.file 9 "/usr/arm-none-eabi/include/sys/_stdint.h"
 1100              		.file 10 "../ChibiOS/os/rt/ports/ARMCMx/compilers/GCC/chtypes.h"
 1101              		.file 11 "../ChibiOS/os/rt/include/chsystypes.h"
 1102              		.file 12 "../ChibiOS/os/rt/include/chschd.h"
 1103              		.file 13 "../ChibiOS/os/ext/CMSIS/include/core_cm4.h"
 1104              		.file 14 "../ChibiOS/os/ext/CMSIS/ST/STM32F4xx/system_stm32f4xx.h"
 1105              		.file 15 "../ChibiOS/os/rt/ports/ARMCMx/chcore.h"
 1106              		.file 16 "../ChibiOS/os/rt/include/chtm.h"
 1107              		.file 17 "../ChibiOS/os/rt/include/chstats.h"
 1108              		.file 18 "../ChibiOS/os/rt/include/chsem.h"
 1109              		.file 19 "../ChibiOS/os/rt/include/chmtx.h"
 1110              		.file 20 "../ChibiOS/os/rt/include/chregistry.h"
 1111              		.file 21 "../ChibiOS/test/rt/test.h"