ARM GAS  /tmp/ccMXVZGN.s 			page 1


   1              		.cpu cortex-m4
   2              		.eabi_attribute 27, 1
   3              		.eabi_attribute 28, 1
   4              		.eabi_attribute 20, 1
   5              		.eabi_attribute 21, 1
   6              		.eabi_attribute 23, 3
   7              		.eabi_attribute 24, 1
   8              		.eabi_attribute 25, 1
   9              		.eabi_attribute 26, 1
  10              		.eabi_attribute 30, 6
  11              		.eabi_attribute 34, 1
  12              		.eabi_attribute 18, 4
  13              		.file	"test.c"
  14              		.text
  15              	.Ltext0:
  16              		.cfi_sections	.debug_frame
  17              		.section	.text.port_lock,"ax",%progbits
  18              		.align	1
  19              		.p2align 4,,15
  20              		.syntax unified
  21              		.thumb
  22              		.thumb_func
  23              		.fpu fpv4-sp-d16
  24              		.type	port_lock, %function
  25              	port_lock:
  26              	.LFB127:
  27              		.file 1 "../ChibiOS/os/rt/ports/ARMCMx/chcore_v7m.h"
  28              		.loc 1 456 0
  29              		.cfi_startproc
  30              		@ args = 0, pretend = 0, frame = 8
  31              		@ frame_needed = 0, uses_anonymous_args = 0
  32              		@ link register save eliminated.
  33 0000 82B0     		sub	sp, sp, #8
  34              		.cfi_def_cfa_offset 8
  35 0002 2023     		movs	r3, #32
  36 0004 0193     		str	r3, [sp, #4]
  37              	.LBB6:
  38              	.LBB7:
  39              		.file 2 "../ChibiOS/os/ext/CMSIS/include/core_cmFunc.h"
  40              		.loc 2 548 0
  41 0006 019B     		ldr	r3, [sp, #4]
  42              		.syntax unified
  43              	@ 548 "../ChibiOS/os/ext/CMSIS/include/core_cmFunc.h" 1
  44 0008 83F31188 		MSR basepri, r3
  45              	@ 0 "" 2
  46              		.thumb
  47              		.syntax unified
  48              	.LBE7:
  49              	.LBE6:
  50              		.loc 1 473 0
  51 000c 00BF     		nop
  52 000e 02B0     		add	sp, sp, #8
  53              		.cfi_def_cfa_offset 0
  54              		@ sp needed
  55 0010 7047     		bx	lr
  56              		.cfi_endproc
  57              	.LFE127:
ARM GAS  /tmp/ccMXVZGN.s 			page 2


  58              		.size	port_lock, .-port_lock
  59 0012 00BF     		.section	.text.port_unlock,"ax",%progbits
  60              		.align	1
  61              		.p2align 4,,15
  62              		.syntax unified
  63              		.thumb
  64              		.thumb_func
  65              		.fpu fpv4-sp-d16
  66              		.type	port_unlock, %function
  67              	port_unlock:
  68              	.LFB128:
  69              		.loc 1 480 0
  70              		.cfi_startproc
  71              		@ args = 0, pretend = 0, frame = 8
  72              		@ frame_needed = 0, uses_anonymous_args = 0
  73              		@ link register save eliminated.
  74 0000 82B0     		sub	sp, sp, #8
  75              		.cfi_def_cfa_offset 8
  76 0002 0023     		movs	r3, #0
  77 0004 0193     		str	r3, [sp, #4]
  78              	.LBB8:
  79              	.LBB9:
  80              		.loc 2 548 0
  81 0006 019B     		ldr	r3, [sp, #4]
  82              		.syntax unified
  83              	@ 548 "../ChibiOS/os/ext/CMSIS/include/core_cmFunc.h" 1
  84 0008 83F31188 		MSR basepri, r3
  85              	@ 0 "" 2
  86              		.thumb
  87              		.syntax unified
  88              	.LBE9:
  89              	.LBE8:
  90              		.loc 1 487 0
  91 000c 00BF     		nop
  92 000e 02B0     		add	sp, sp, #8
  93              		.cfi_def_cfa_offset 0
  94              		@ sp needed
  95 0010 7047     		bx	lr
  96              		.cfi_endproc
  97              	.LFE128:
  98              		.size	port_unlock, .-port_unlock
  99 0012 00BF     		.section	.text.chSysLock,"ax",%progbits
 100              		.align	1
 101              		.p2align 4,,15
 102              		.syntax unified
 103              		.thumb
 104              		.thumb_func
 105              		.fpu fpv4-sp-d16
 106              		.type	chSysLock, %function
 107              	chSysLock:
 108              	.LFB156:
 109              		.file 3 "../ChibiOS/os/rt/include/chsys.h"
 110              		.loc 3 346 0
 111              		.cfi_startproc
 112              		@ args = 0, pretend = 0, frame = 0
 113              		@ frame_needed = 0, uses_anonymous_args = 0
 114 0000 08B5     		push	{r3, lr}
ARM GAS  /tmp/ccMXVZGN.s 			page 3


 115              		.cfi_def_cfa_offset 8
 116              		.cfi_offset 3, -8
 117              		.cfi_offset 14, -4
 118              		.loc 3 348 0
 119 0002 FFF7FEFF 		bl	port_lock
 120              		.loc 3 349 0
 121 0006 FFF7FEFF 		bl	_stats_start_measure_crit_thd
 122              		.loc 3 350 0
 123 000a FFF7FEFF 		bl	_dbg_check_lock
 124              		.loc 3 351 0
 125 000e 00BF     		nop
 126 0010 08BD     		pop	{r3, pc}
 127              		.cfi_endproc
 128              	.LFE156:
 129              		.size	chSysLock, .-chSysLock
 130 0012 00BF     		.section	.text.chSysUnlock,"ax",%progbits
 131              		.align	1
 132              		.p2align 4,,15
 133              		.syntax unified
 134              		.thumb
 135              		.thumb_func
 136              		.fpu fpv4-sp-d16
 137              		.type	chSysUnlock, %function
 138              	chSysUnlock:
 139              	.LFB157:
 140              		.loc 3 358 0
 141              		.cfi_startproc
 142              		@ args = 0, pretend = 0, frame = 0
 143              		@ frame_needed = 0, uses_anonymous_args = 0
 144 0000 08B5     		push	{r3, lr}
 145              		.cfi_def_cfa_offset 8
 146              		.cfi_offset 3, -8
 147              		.cfi_offset 14, -4
 148              		.loc 3 360 0
 149 0002 FFF7FEFF 		bl	_dbg_check_unlock
 150              		.loc 3 361 0
 151 0006 FFF7FEFF 		bl	_stats_stop_measure_crit_thd
 152              		.loc 3 367 0
 153 000a 0A4B     		ldr	r3, .L6
 154 000c 1B68     		ldr	r3, [r3]
 155 000e 094A     		ldr	r2, .L6
 156 0010 9342     		cmp	r3, r2
 157 0012 0AD0     		beq	.L5
 158              		.loc 3 367 0 is_stmt 0 discriminator 2
 159 0014 074B     		ldr	r3, .L6
 160 0016 9B69     		ldr	r3, [r3, #24]
 161 0018 9A68     		ldr	r2, [r3, #8]
 162 001a 064B     		ldr	r3, .L6
 163 001c 1B68     		ldr	r3, [r3]
 164 001e 9B68     		ldr	r3, [r3, #8]
 165 0020 9A42     		cmp	r2, r3
 166 0022 02D2     		bcs	.L5
 167              		.loc 3 367 0 discriminator 3
 168 0024 0448     		ldr	r0, .L6+4
 169 0026 FFF7FEFF 		bl	chSysHalt
 170              	.L5:
 171              		.loc 3 371 0 is_stmt 1
ARM GAS  /tmp/ccMXVZGN.s 			page 4


 172 002a FFF7FEFF 		bl	port_unlock
 173              		.loc 3 372 0
 174 002e 00BF     		nop
 175 0030 08BD     		pop	{r3, pc}
 176              	.L7:
 177 0032 00BF     		.align	2
 178              	.L6:
 179 0034 00000000 		.word	ch
 180 0038 00000000 		.word	__func__.7157
 181              		.cfi_endproc
 182              	.LFE157:
 183              		.size	chSysUnlock, .-chSysUnlock
 184              		.section	.text.chVTGetSystemTimeX,"ax",%progbits
 185              		.align	1
 186              		.p2align 4,,15
 187              		.syntax unified
 188              		.thumb
 189              		.thumb_func
 190              		.fpu fpv4-sp-d16
 191              		.type	chVTGetSystemTimeX, %function
 192              	chVTGetSystemTimeX:
 193              	.LFB164:
 194              		.file 4 "../ChibiOS/os/rt/include/chvt.h"
 195              		.loc 4 228 0
 196              		.cfi_startproc
 197              		@ args = 0, pretend = 0, frame = 0
 198              		@ frame_needed = 0, uses_anonymous_args = 0
 199              		@ link register save eliminated.
 200              		.loc 4 231 0
 201 0000 014B     		ldr	r3, .L10
 202 0002 9B6A     		ldr	r3, [r3, #40]
 203              		.loc 4 235 0
 204 0004 1846     		mov	r0, r3
 205 0006 7047     		bx	lr
 206              	.L11:
 207              		.align	2
 208              	.L10:
 209 0008 00000000 		.word	ch
 210              		.cfi_endproc
 211              	.LFE164:
 212              		.size	chVTGetSystemTimeX, .-chVTGetSystemTimeX
 213              		.section	.text.chVTGetSystemTime,"ax",%progbits
 214              		.align	1
 215              		.p2align 4,,15
 216              		.syntax unified
 217              		.thumb
 218              		.thumb_func
 219              		.fpu fpv4-sp-d16
 220              		.type	chVTGetSystemTime, %function
 221              	chVTGetSystemTime:
 222              	.LFB165:
 223              		.loc 4 247 0
 224              		.cfi_startproc
 225              		@ args = 0, pretend = 0, frame = 8
 226              		@ frame_needed = 0, uses_anonymous_args = 0
 227 0000 00B5     		push	{lr}
 228              		.cfi_def_cfa_offset 4
ARM GAS  /tmp/ccMXVZGN.s 			page 5


 229              		.cfi_offset 14, -4
 230 0002 83B0     		sub	sp, sp, #12
 231              		.cfi_def_cfa_offset 16
 232              		.loc 4 250 0
 233 0004 FFF7FEFF 		bl	chSysLock
 234              		.loc 4 251 0
 235 0008 FFF7FEFF 		bl	chVTGetSystemTimeX
 236 000c 0190     		str	r0, [sp, #4]
 237              		.loc 4 252 0
 238 000e FFF7FEFF 		bl	chSysUnlock
 239              		.loc 4 254 0
 240 0012 019B     		ldr	r3, [sp, #4]
 241              		.loc 4 255 0
 242 0014 1846     		mov	r0, r3
 243 0016 03B0     		add	sp, sp, #12
 244              		.cfi_def_cfa_offset 4
 245              		@ sp needed
 246 0018 5DF804FB 		ldr	pc, [sp], #4
 247              		.cfi_endproc
 248              	.LFE165:
 249              		.size	chVTGetSystemTime, .-chVTGetSystemTime
 250              		.section	.text.chVTIsTimeWithinX,"ax",%progbits
 251              		.align	1
 252              		.p2align 4,,15
 253              		.syntax unified
 254              		.thumb
 255              		.thumb_func
 256              		.fpu fpv4-sp-d16
 257              		.type	chVTIsTimeWithinX, %function
 258              	chVTIsTimeWithinX:
 259              	.LFB167:
 260              		.loc 4 286 0
 261              		.cfi_startproc
 262              		@ args = 0, pretend = 0, frame = 16
 263              		@ frame_needed = 0, uses_anonymous_args = 0
 264              		@ link register save eliminated.
 265 0000 84B0     		sub	sp, sp, #16
 266              		.cfi_def_cfa_offset 16
 267 0002 0390     		str	r0, [sp, #12]
 268 0004 0291     		str	r1, [sp, #8]
 269 0006 0192     		str	r2, [sp, #4]
 270              		.loc 4 288 0
 271 0008 039A     		ldr	r2, [sp, #12]
 272 000a 029B     		ldr	r3, [sp, #8]
 273 000c D21A     		subs	r2, r2, r3
 274 000e 0199     		ldr	r1, [sp, #4]
 275 0010 029B     		ldr	r3, [sp, #8]
 276 0012 CB1A     		subs	r3, r1, r3
 277 0014 9A42     		cmp	r2, r3
 278 0016 34BF     		ite	cc
 279 0018 0123     		movcc	r3, #1
 280 001a 0023     		movcs	r3, #0
 281 001c DBB2     		uxtb	r3, r3
 282              		.loc 4 289 0
 283 001e 1846     		mov	r0, r3
 284 0020 04B0     		add	sp, sp, #16
 285              		.cfi_def_cfa_offset 0
ARM GAS  /tmp/ccMXVZGN.s 			page 6


 286              		@ sp needed
 287 0022 7047     		bx	lr
 288              		.cfi_endproc
 289              	.LFE167:
 290              		.size	chVTIsTimeWithinX, .-chVTIsTimeWithinX
 291              		.section	.text.chVTIsSystemTimeWithin,"ax",%progbits
 292              		.align	1
 293              		.p2align 4,,15
 294              		.syntax unified
 295              		.thumb
 296              		.thumb_func
 297              		.fpu fpv4-sp-d16
 298              		.type	chVTIsSystemTimeWithin, %function
 299              	chVTIsSystemTimeWithin:
 300              	.LFB169:
 301              		.loc 4 322 0
 302              		.cfi_startproc
 303              		@ args = 0, pretend = 0, frame = 8
 304              		@ frame_needed = 0, uses_anonymous_args = 0
 305 0000 00B5     		push	{lr}
 306              		.cfi_def_cfa_offset 4
 307              		.cfi_offset 14, -4
 308 0002 83B0     		sub	sp, sp, #12
 309              		.cfi_def_cfa_offset 16
 310 0004 0190     		str	r0, [sp, #4]
 311 0006 0091     		str	r1, [sp]
 312              		.loc 4 324 0
 313 0008 FFF7FEFF 		bl	chVTGetSystemTime
 314 000c 0346     		mov	r3, r0
 315 000e 009A     		ldr	r2, [sp]
 316 0010 0199     		ldr	r1, [sp, #4]
 317 0012 1846     		mov	r0, r3
 318 0014 FFF7FEFF 		bl	chVTIsTimeWithinX
 319 0018 0346     		mov	r3, r0
 320              		.loc 4 325 0
 321 001a 1846     		mov	r0, r3
 322 001c 03B0     		add	sp, sp, #12
 323              		.cfi_def_cfa_offset 4
 324              		@ sp needed
 325 001e 5DF804FB 		ldr	pc, [sp], #4
 326              		.cfi_endproc
 327              	.LFE169:
 328              		.size	chVTIsSystemTimeWithin, .-chVTIsSystemTimeWithin
 329 0022 00BF     		.section	.text.chVTIsArmedI,"ax",%progbits
 330              		.align	1
 331              		.p2align 4,,15
 332              		.syntax unified
 333              		.thumb
 334              		.thumb_func
 335              		.fpu fpv4-sp-d16
 336              		.type	chVTIsArmedI, %function
 337              	chVTIsArmedI:
 338              	.LFB171:
 339              		.loc 4 373 0
 340              		.cfi_startproc
 341              		@ args = 0, pretend = 0, frame = 8
 342              		@ frame_needed = 0, uses_anonymous_args = 0
ARM GAS  /tmp/ccMXVZGN.s 			page 7


 343 0000 00B5     		push	{lr}
 344              		.cfi_def_cfa_offset 4
 345              		.cfi_offset 14, -4
 346 0002 83B0     		sub	sp, sp, #12
 347              		.cfi_def_cfa_offset 16
 348 0004 0190     		str	r0, [sp, #4]
 349              		.loc 4 375 0
 350 0006 FFF7FEFF 		bl	chDbgCheckClassI
 351              		.loc 4 377 0
 352 000a 019B     		ldr	r3, [sp, #4]
 353 000c DB68     		ldr	r3, [r3, #12]
 354 000e 002B     		cmp	r3, #0
 355 0010 14BF     		ite	ne
 356 0012 0123     		movne	r3, #1
 357 0014 0023     		moveq	r3, #0
 358 0016 DBB2     		uxtb	r3, r3
 359              		.loc 4 378 0
 360 0018 1846     		mov	r0, r3
 361 001a 03B0     		add	sp, sp, #12
 362              		.cfi_def_cfa_offset 4
 363              		@ sp needed
 364 001c 5DF804FB 		ldr	pc, [sp], #4
 365              		.cfi_endproc
 366              	.LFE171:
 367              		.size	chVTIsArmedI, .-chVTIsArmedI
 368              		.section	.text.chVTResetI,"ax",%progbits
 369              		.align	1
 370              		.p2align 4,,15
 371              		.syntax unified
 372              		.thumb
 373              		.thumb_func
 374              		.fpu fpv4-sp-d16
 375              		.type	chVTResetI, %function
 376              	chVTResetI:
 377              	.LFB173:
 378              		.loc 4 410 0
 379              		.cfi_startproc
 380              		@ args = 0, pretend = 0, frame = 8
 381              		@ frame_needed = 0, uses_anonymous_args = 0
 382 0000 00B5     		push	{lr}
 383              		.cfi_def_cfa_offset 4
 384              		.cfi_offset 14, -4
 385 0002 83B0     		sub	sp, sp, #12
 386              		.cfi_def_cfa_offset 16
 387 0004 0190     		str	r0, [sp, #4]
 388              		.loc 4 412 0
 389 0006 0198     		ldr	r0, [sp, #4]
 390 0008 FFF7FEFF 		bl	chVTIsArmedI
 391 000c 0346     		mov	r3, r0
 392 000e 002B     		cmp	r3, #0
 393 0010 02D0     		beq	.L22
 394              		.loc 4 413 0
 395 0012 0198     		ldr	r0, [sp, #4]
 396 0014 FFF7FEFF 		bl	chVTDoResetI
 397              	.L22:
 398              		.loc 4 415 0
 399 0018 00BF     		nop
ARM GAS  /tmp/ccMXVZGN.s 			page 8


 400 001a 03B0     		add	sp, sp, #12
 401              		.cfi_def_cfa_offset 4
 402              		@ sp needed
 403 001c 5DF804FB 		ldr	pc, [sp], #4
 404              		.cfi_endproc
 405              	.LFE173:
 406              		.size	chVTResetI, .-chVTResetI
 407              		.section	.text.chVTSetI,"ax",%progbits
 408              		.align	1
 409              		.p2align 4,,15
 410              		.syntax unified
 411              		.thumb
 412              		.thumb_func
 413              		.fpu fpv4-sp-d16
 414              		.type	chVTSetI, %function
 415              	chVTSetI:
 416              	.LFB175:
 417              		.loc 4 457 0
 418              		.cfi_startproc
 419              		@ args = 0, pretend = 0, frame = 16
 420              		@ frame_needed = 0, uses_anonymous_args = 0
 421 0000 00B5     		push	{lr}
 422              		.cfi_def_cfa_offset 4
 423              		.cfi_offset 14, -4
 424 0002 85B0     		sub	sp, sp, #20
 425              		.cfi_def_cfa_offset 24
 426 0004 0390     		str	r0, [sp, #12]
 427 0006 0291     		str	r1, [sp, #8]
 428 0008 0192     		str	r2, [sp, #4]
 429 000a 0093     		str	r3, [sp]
 430              		.loc 4 459 0
 431 000c 0398     		ldr	r0, [sp, #12]
 432 000e FFF7FEFF 		bl	chVTResetI
 433              		.loc 4 460 0
 434 0012 009B     		ldr	r3, [sp]
 435 0014 019A     		ldr	r2, [sp, #4]
 436 0016 0299     		ldr	r1, [sp, #8]
 437 0018 0398     		ldr	r0, [sp, #12]
 438 001a FFF7FEFF 		bl	chVTDoSetI
 439              		.loc 4 461 0
 440 001e 00BF     		nop
 441 0020 05B0     		add	sp, sp, #20
 442              		.cfi_def_cfa_offset 4
 443              		@ sp needed
 444 0022 5DF804FB 		ldr	pc, [sp], #4
 445              		.cfi_endproc
 446              	.LFE175:
 447              		.size	chVTSetI, .-chVTSetI
 448 0026 00BF     		.section	.text.chVTSet,"ax",%progbits
 449              		.align	1
 450              		.p2align 4,,15
 451              		.syntax unified
 452              		.thumb
 453              		.thumb_func
 454              		.fpu fpv4-sp-d16
 455              		.type	chVTSet, %function
 456              	chVTSet:
ARM GAS  /tmp/ccMXVZGN.s 			page 9


 457              	.LFB176:
 458              		.loc 4 486 0
 459              		.cfi_startproc
 460              		@ args = 0, pretend = 0, frame = 16
 461              		@ frame_needed = 0, uses_anonymous_args = 0
 462 0000 00B5     		push	{lr}
 463              		.cfi_def_cfa_offset 4
 464              		.cfi_offset 14, -4
 465 0002 85B0     		sub	sp, sp, #20
 466              		.cfi_def_cfa_offset 24
 467 0004 0390     		str	r0, [sp, #12]
 468 0006 0291     		str	r1, [sp, #8]
 469 0008 0192     		str	r2, [sp, #4]
 470 000a 0093     		str	r3, [sp]
 471              		.loc 4 488 0
 472 000c FFF7FEFF 		bl	chSysLock
 473              		.loc 4 489 0
 474 0010 009B     		ldr	r3, [sp]
 475 0012 019A     		ldr	r2, [sp, #4]
 476 0014 0299     		ldr	r1, [sp, #8]
 477 0016 0398     		ldr	r0, [sp, #12]
 478 0018 FFF7FEFF 		bl	chVTSetI
 479              		.loc 4 490 0
 480 001c FFF7FEFF 		bl	chSysUnlock
 481              		.loc 4 491 0
 482 0020 00BF     		nop
 483 0022 05B0     		add	sp, sp, #20
 484              		.cfi_def_cfa_offset 4
 485              		@ sp needed
 486 0024 5DF804FB 		ldr	pc, [sp], #4
 487              		.cfi_endproc
 488              	.LFE176:
 489              		.size	chVTSet, .-chVTSet
 490              		.section	.data.patterns,"aw",%progbits
 491              		.align	2
 492              		.type	patterns, %object
 493              		.size	patterns, 52
 494              	patterns:
 495 0000 00000000 		.word	patternsys
 496 0004 00000000 		.word	patternthd
 497 0008 00000000 		.word	patternsem
 498 000c 00000000 		.word	patternmtx
 499 0010 00000000 		.word	patternmsg
 500 0014 00000000 		.word	patternmbox
 501 0018 00000000 		.word	patternevt
 502 001c 00000000 		.word	patternheap
 503 0020 00000000 		.word	patternpools
 504 0024 00000000 		.word	patterndyn
 505 0028 00000000 		.word	patternqueues
 506 002c 00000000 		.word	patternbmk
 507 0030 00000000 		.word	0
 508              		.global	test_global_fail
 509              		.section	.bss.test_global_fail,"aw",%nobits
 510              		.type	test_global_fail, %object
 511              		.size	test_global_fail, 1
 512              	test_global_fail:
 513 0000 00       		.space	1
ARM GAS  /tmp/ccMXVZGN.s 			page 10


 514              		.section	.bss.local_fail,"aw",%nobits
 515              		.type	local_fail, %object
 516              		.size	local_fail, 1
 517              	local_fail:
 518 0000 00       		.space	1
 519              		.section	.bss.failpoint,"aw",%nobits
 520              		.align	2
 521              		.type	failpoint, %object
 522              		.size	failpoint, 4
 523              	failpoint:
 524 0000 00000000 		.space	4
 525              		.section	.bss.tokens_buffer,"aw",%nobits
 526              		.align	2
 527              		.type	tokens_buffer, %object
 528              		.size	tokens_buffer, 16
 529              	tokens_buffer:
 530 0000 00000000 		.space	16
 530      00000000 
 530      00000000 
 530      00000000 
 531              		.section	.bss.tokp,"aw",%nobits
 532              		.align	2
 533              		.type	tokp, %object
 534              		.size	tokp, 4
 535              	tokp:
 536 0000 00000000 		.space	4
 537              		.global	test
 538              		.section	.bss.test,"aw",%nobits
 539              		.align	3
 540              		.type	test, %object
 541              		.size	test, 2480
 542              	test:
 543 0000 00000000 		.space	2480
 543      00000000 
 543      00000000 
 543      00000000 
 543      00000000 
 544              		.global	threads
 545              		.section	.bss.threads,"aw",%nobits
 546              		.align	2
 547              		.type	threads, %object
 548              		.size	threads, 20
 549              	threads:
 550 0000 00000000 		.space	20
 550      00000000 
 550      00000000 
 550      00000000 
 550      00000000 
 551              		.global	wa
 552              		.section	.rodata.wa,"a",%progbits
 553              		.align	2
 554              		.type	wa, %object
 555              		.size	wa, 20
 556              	wa:
 557 0000 00000000 		.word	test
 558 0004 F0010000 		.word	test+496
 559 0008 E0030000 		.word	test+992
ARM GAS  /tmp/ccMXVZGN.s 			page 11


 560 000c D0050000 		.word	test+1488
 561 0010 C0070000 		.word	test+1984
 562              		.section	.bss.chp,"aw",%nobits
 563              		.align	2
 564              		.type	chp, %object
 565              		.size	chp, 4
 566              	chp:
 567 0000 00000000 		.space	4
 568              		.section	.text.test_printn,"ax",%progbits
 569              		.align	1
 570              		.p2align 4,,15
 571              		.global	test_printn
 572              		.syntax unified
 573              		.thumb
 574              		.thumb_func
 575              		.fpu fpv4-sp-d16
 576              		.type	test_printn, %function
 577              	test_printn:
 578              	.LFB268:
 579              		.file 5 "../ChibiOS/test/rt/test.c"
 580              		.loc 5 94 0
 581              		.cfi_startproc
 582              		@ args = 0, pretend = 0, frame = 32
 583              		@ frame_needed = 0, uses_anonymous_args = 0
 584 0000 00B5     		push	{lr}
 585              		.cfi_def_cfa_offset 4
 586              		.cfi_offset 14, -4
 587 0002 89B0     		sub	sp, sp, #36
 588              		.cfi_def_cfa_offset 40
 589 0004 0190     		str	r0, [sp, #4]
 590              		.loc 5 97 0
 591 0006 019B     		ldr	r3, [sp, #4]
 592 0008 002B     		cmp	r3, #0
 593 000a 09D1     		bne	.L26
 594              		.loc 5 98 0
 595 000c 1E4B     		ldr	r3, .L33
 596 000e 1B68     		ldr	r3, [r3]
 597 0010 1B68     		ldr	r3, [r3]
 598 0012 9B68     		ldr	r3, [r3, #8]
 599 0014 1C4A     		ldr	r2, .L33
 600 0016 1268     		ldr	r2, [r2]
 601 0018 3021     		movs	r1, #48
 602 001a 1046     		mov	r0, r2
 603 001c 9847     		blx	r3
 604              	.LVL0:
 605              		.loc 5 106 0
 606 001e 2EE0     		b	.L32
 607              	.L26:
 608              		.loc 5 100 0
 609 0020 03AB     		add	r3, sp, #12
 610 0022 0793     		str	r3, [sp, #28]
 611              		.loc 5 101 0
 612 0024 16E0     		b	.L28
 613              	.L29:
 614              		.loc 5 102 0
 615 0026 0799     		ldr	r1, [sp, #28]
 616 0028 4B1C     		adds	r3, r1, #1
ARM GAS  /tmp/ccMXVZGN.s 			page 12


 617 002a 0793     		str	r3, [sp, #28]
 618 002c 0198     		ldr	r0, [sp, #4]
 619 002e 174B     		ldr	r3, .L33+4
 620 0030 A3FB0023 		umull	r2, r3, r3, r0
 621 0034 DA08     		lsrs	r2, r3, #3
 622 0036 1346     		mov	r3, r2
 623 0038 9B00     		lsls	r3, r3, #2
 624 003a 1344     		add	r3, r3, r2
 625 003c 5B00     		lsls	r3, r3, #1
 626 003e C21A     		subs	r2, r0, r3
 627 0040 D3B2     		uxtb	r3, r2
 628 0042 3033     		adds	r3, r3, #48
 629 0044 DBB2     		uxtb	r3, r3
 630 0046 0B70     		strb	r3, [r1]
 631 0048 019B     		ldr	r3, [sp, #4]
 632 004a 104A     		ldr	r2, .L33+4
 633 004c A2FB0323 		umull	r2, r3, r2, r3
 634 0050 DB08     		lsrs	r3, r3, #3
 635 0052 0193     		str	r3, [sp, #4]
 636              	.L28:
 637              		.loc 5 101 0
 638 0054 019B     		ldr	r3, [sp, #4]
 639 0056 002B     		cmp	r3, #0
 640 0058 E5D1     		bne	.L29
 641              		.loc 5 103 0
 642 005a 0CE0     		b	.L30
 643              	.L31:
 644              		.loc 5 104 0
 645 005c 0A4B     		ldr	r3, .L33
 646 005e 1B68     		ldr	r3, [r3]
 647 0060 1B68     		ldr	r3, [r3]
 648 0062 9B68     		ldr	r3, [r3, #8]
 649 0064 084A     		ldr	r2, .L33
 650 0066 1068     		ldr	r0, [r2]
 651 0068 079A     		ldr	r2, [sp, #28]
 652 006a 013A     		subs	r2, r2, #1
 653 006c 0792     		str	r2, [sp, #28]
 654 006e 079A     		ldr	r2, [sp, #28]
 655 0070 1278     		ldrb	r2, [r2]	@ zero_extendqisi2
 656 0072 1146     		mov	r1, r2
 657 0074 9847     		blx	r3
 658              	.LVL1:
 659              	.L30:
 660              		.loc 5 103 0
 661 0076 03AB     		add	r3, sp, #12
 662 0078 079A     		ldr	r2, [sp, #28]
 663 007a 9A42     		cmp	r2, r3
 664 007c EED8     		bhi	.L31
 665              	.L32:
 666              		.loc 5 106 0
 667 007e 00BF     		nop
 668 0080 09B0     		add	sp, sp, #36
 669              		.cfi_def_cfa_offset 4
 670              		@ sp needed
 671 0082 5DF804FB 		ldr	pc, [sp], #4
 672              	.L34:
 673 0086 00BF     		.align	2
ARM GAS  /tmp/ccMXVZGN.s 			page 13


 674              	.L33:
 675 0088 00000000 		.word	chp
 676 008c CDCCCCCC 		.word	-858993459
 677              		.cfi_endproc
 678              	.LFE268:
 679              		.size	test_printn, .-test_printn
 680              		.section	.text.test_print,"ax",%progbits
 681              		.align	1
 682              		.p2align 4,,15
 683              		.global	test_print
 684              		.syntax unified
 685              		.thumb
 686              		.thumb_func
 687              		.fpu fpv4-sp-d16
 688              		.type	test_print, %function
 689              	test_print:
 690              	.LFB269:
 691              		.loc 5 113 0
 692              		.cfi_startproc
 693              		@ args = 0, pretend = 0, frame = 8
 694              		@ frame_needed = 0, uses_anonymous_args = 0
 695 0000 00B5     		push	{lr}
 696              		.cfi_def_cfa_offset 4
 697              		.cfi_offset 14, -4
 698 0002 83B0     		sub	sp, sp, #12
 699              		.cfi_def_cfa_offset 16
 700 0004 0190     		str	r0, [sp, #4]
 701              		.loc 5 115 0
 702 0006 0BE0     		b	.L36
 703              	.L37:
 704              		.loc 5 116 0
 705 0008 094B     		ldr	r3, .L38
 706 000a 1B68     		ldr	r3, [r3]
 707 000c 1B68     		ldr	r3, [r3]
 708 000e 9A68     		ldr	r2, [r3, #8]
 709 0010 074B     		ldr	r3, .L38
 710 0012 1868     		ldr	r0, [r3]
 711 0014 019B     		ldr	r3, [sp, #4]
 712 0016 591C     		adds	r1, r3, #1
 713 0018 0191     		str	r1, [sp, #4]
 714 001a 1B78     		ldrb	r3, [r3]	@ zero_extendqisi2
 715 001c 1946     		mov	r1, r3
 716 001e 9047     		blx	r2
 717              	.LVL2:
 718              	.L36:
 719              		.loc 5 115 0
 720 0020 019B     		ldr	r3, [sp, #4]
 721 0022 1B78     		ldrb	r3, [r3]	@ zero_extendqisi2
 722 0024 002B     		cmp	r3, #0
 723 0026 EFD1     		bne	.L37
 724              		.loc 5 117 0
 725 0028 00BF     		nop
 726 002a 03B0     		add	sp, sp, #12
 727              		.cfi_def_cfa_offset 4
 728              		@ sp needed
 729 002c 5DF804FB 		ldr	pc, [sp], #4
 730              	.L39:
ARM GAS  /tmp/ccMXVZGN.s 			page 14


 731              		.align	2
 732              	.L38:
 733 0030 00000000 		.word	chp
 734              		.cfi_endproc
 735              	.LFE269:
 736              		.size	test_print, .-test_print
 737              		.section	.rodata
 738              		.align	2
 739              	.LC0:
 740 0000 0D0A00   		.ascii	"\015\012\000"
 741              		.section	.text.test_println,"ax",%progbits
 742              		.align	1
 743              		.p2align 4,,15
 744              		.global	test_println
 745              		.syntax unified
 746              		.thumb
 747              		.thumb_func
 748              		.fpu fpv4-sp-d16
 749              		.type	test_println, %function
 750              	test_println:
 751              	.LFB270:
 752              		.loc 5 124 0
 753              		.cfi_startproc
 754              		@ args = 0, pretend = 0, frame = 8
 755              		@ frame_needed = 0, uses_anonymous_args = 0
 756 0000 00B5     		push	{lr}
 757              		.cfi_def_cfa_offset 4
 758              		.cfi_offset 14, -4
 759 0002 83B0     		sub	sp, sp, #12
 760              		.cfi_def_cfa_offset 16
 761 0004 0190     		str	r0, [sp, #4]
 762              		.loc 5 126 0
 763 0006 0198     		ldr	r0, [sp, #4]
 764 0008 FFF7FEFF 		bl	test_print
 765              		.loc 5 127 0
 766 000c 064B     		ldr	r3, .L41
 767 000e 1B68     		ldr	r3, [r3]
 768 0010 1B68     		ldr	r3, [r3]
 769 0012 1B68     		ldr	r3, [r3]
 770 0014 044A     		ldr	r2, .L41
 771 0016 1068     		ldr	r0, [r2]
 772 0018 0222     		movs	r2, #2
 773 001a 0449     		ldr	r1, .L41+4
 774 001c 9847     		blx	r3
 775              	.LVL3:
 776              		.loc 5 128 0
 777 001e 00BF     		nop
 778 0020 03B0     		add	sp, sp, #12
 779              		.cfi_def_cfa_offset 4
 780              		@ sp needed
 781 0022 5DF804FB 		ldr	pc, [sp], #4
 782              	.L42:
 783 0026 00BF     		.align	2
 784              	.L41:
 785 0028 00000000 		.word	chp
 786 002c 00000000 		.word	.LC0
 787              		.cfi_endproc
ARM GAS  /tmp/ccMXVZGN.s 			page 15


 788              	.LFE270:
 789              		.size	test_println, .-test_println
 790              		.section	.text.clear_tokens,"ax",%progbits
 791              		.align	1
 792              		.p2align 4,,15
 793              		.syntax unified
 794              		.thumb
 795              		.thumb_func
 796              		.fpu fpv4-sp-d16
 797              		.type	clear_tokens, %function
 798              	clear_tokens:
 799              	.LFB271:
 800              		.loc 5 133 0
 801              		.cfi_startproc
 802              		@ args = 0, pretend = 0, frame = 0
 803              		@ frame_needed = 0, uses_anonymous_args = 0
 804              		@ link register save eliminated.
 805              		.loc 5 135 0
 806 0000 024B     		ldr	r3, .L44
 807 0002 034A     		ldr	r2, .L44+4
 808 0004 1A60     		str	r2, [r3]
 809              		.loc 5 136 0
 810 0006 00BF     		nop
 811 0008 7047     		bx	lr
 812              	.L45:
 813 000a 00BF     		.align	2
 814              	.L44:
 815 000c 00000000 		.word	tokp
 816 0010 00000000 		.word	tokens_buffer
 817              		.cfi_endproc
 818              	.LFE271:
 819              		.size	clear_tokens, .-clear_tokens
 820              		.section	.text.print_tokens,"ax",%progbits
 821              		.align	1
 822              		.p2align 4,,15
 823              		.syntax unified
 824              		.thumb
 825              		.thumb_func
 826              		.fpu fpv4-sp-d16
 827              		.type	print_tokens, %function
 828              	print_tokens:
 829              	.LFB272:
 830              		.loc 5 138 0
 831              		.cfi_startproc
 832              		@ args = 0, pretend = 0, frame = 8
 833              		@ frame_needed = 0, uses_anonymous_args = 0
 834 0000 00B5     		push	{lr}
 835              		.cfi_def_cfa_offset 4
 836              		.cfi_offset 14, -4
 837 0002 83B0     		sub	sp, sp, #12
 838              		.cfi_def_cfa_offset 16
 839              		.loc 5 139 0
 840 0004 0B4B     		ldr	r3, .L49
 841 0006 0193     		str	r3, [sp, #4]
 842              		.loc 5 141 0
 843 0008 0BE0     		b	.L47
 844              	.L48:
ARM GAS  /tmp/ccMXVZGN.s 			page 16


 845              		.loc 5 142 0
 846 000a 0B4B     		ldr	r3, .L49+4
 847 000c 1B68     		ldr	r3, [r3]
 848 000e 1B68     		ldr	r3, [r3]
 849 0010 9A68     		ldr	r2, [r3, #8]
 850 0012 094B     		ldr	r3, .L49+4
 851 0014 1868     		ldr	r0, [r3]
 852 0016 019B     		ldr	r3, [sp, #4]
 853 0018 591C     		adds	r1, r3, #1
 854 001a 0191     		str	r1, [sp, #4]
 855 001c 1B78     		ldrb	r3, [r3]	@ zero_extendqisi2
 856 001e 1946     		mov	r1, r3
 857 0020 9047     		blx	r2
 858              	.LVL4:
 859              	.L47:
 860              		.loc 5 141 0
 861 0022 064B     		ldr	r3, .L49+8
 862 0024 1B68     		ldr	r3, [r3]
 863 0026 019A     		ldr	r2, [sp, #4]
 864 0028 9A42     		cmp	r2, r3
 865 002a EED3     		bcc	.L48
 866              		.loc 5 143 0
 867 002c 00BF     		nop
 868 002e 03B0     		add	sp, sp, #12
 869              		.cfi_def_cfa_offset 4
 870              		@ sp needed
 871 0030 5DF804FB 		ldr	pc, [sp], #4
 872              	.L50:
 873              		.align	2
 874              	.L49:
 875 0034 00000000 		.word	tokens_buffer
 876 0038 00000000 		.word	chp
 877 003c 00000000 		.word	tokp
 878              		.cfi_endproc
 879              	.LFE272:
 880              		.size	print_tokens, .-print_tokens
 881              		.section	.text.test_emit_token,"ax",%progbits
 882              		.align	1
 883              		.p2align 4,,15
 884              		.global	test_emit_token
 885              		.syntax unified
 886              		.thumb
 887              		.thumb_func
 888              		.fpu fpv4-sp-d16
 889              		.type	test_emit_token, %function
 890              	test_emit_token:
 891              	.LFB273:
 892              		.loc 5 150 0
 893              		.cfi_startproc
 894              		@ args = 0, pretend = 0, frame = 8
 895              		@ frame_needed = 0, uses_anonymous_args = 0
 896 0000 00B5     		push	{lr}
 897              		.cfi_def_cfa_offset 4
 898              		.cfi_offset 14, -4
 899 0002 83B0     		sub	sp, sp, #12
 900              		.cfi_def_cfa_offset 16
 901 0004 0346     		mov	r3, r0
ARM GAS  /tmp/ccMXVZGN.s 			page 17


 902 0006 8DF80730 		strb	r3, [sp, #7]
 903              		.loc 5 152 0
 904 000a FFF7FEFF 		bl	chSysLock
 905              		.loc 5 153 0
 906 000e 074B     		ldr	r3, .L52
 907 0010 1B68     		ldr	r3, [r3]
 908 0012 5A1C     		adds	r2, r3, #1
 909 0014 0549     		ldr	r1, .L52
 910 0016 0A60     		str	r2, [r1]
 911 0018 9DF80720 		ldrb	r2, [sp, #7]
 912 001c 1A70     		strb	r2, [r3]
 913              		.loc 5 154 0
 914 001e FFF7FEFF 		bl	chSysUnlock
 915              		.loc 5 155 0
 916 0022 00BF     		nop
 917 0024 03B0     		add	sp, sp, #12
 918              		.cfi_def_cfa_offset 4
 919              		@ sp needed
 920 0026 5DF804FB 		ldr	pc, [sp], #4
 921              	.L53:
 922 002a 00BF     		.align	2
 923              	.L52:
 924 002c 00000000 		.word	tokp
 925              		.cfi_endproc
 926              	.LFE273:
 927              		.size	test_emit_token, .-test_emit_token
 928              		.section	.text._test_fail,"ax",%progbits
 929              		.align	1
 930              		.p2align 4,,15
 931              		.global	_test_fail
 932              		.syntax unified
 933              		.thumb
 934              		.thumb_func
 935              		.fpu fpv4-sp-d16
 936              		.type	_test_fail, %function
 937              	_test_fail:
 938              	.LFB274:
 939              		.loc 5 160 0
 940              		.cfi_startproc
 941              		@ args = 0, pretend = 0, frame = 8
 942              		@ frame_needed = 0, uses_anonymous_args = 0
 943              		@ link register save eliminated.
 944 0000 82B0     		sub	sp, sp, #8
 945              		.cfi_def_cfa_offset 8
 946 0002 0190     		str	r0, [sp, #4]
 947              		.loc 5 162 0
 948 0004 064B     		ldr	r3, .L56
 949 0006 0122     		movs	r2, #1
 950 0008 1A70     		strb	r2, [r3]
 951              		.loc 5 163 0
 952 000a 064B     		ldr	r3, .L56+4
 953 000c 0122     		movs	r2, #1
 954 000e 1A70     		strb	r2, [r3]
 955              		.loc 5 164 0
 956 0010 054A     		ldr	r2, .L56+8
 957 0012 019B     		ldr	r3, [sp, #4]
 958 0014 1360     		str	r3, [r2]
ARM GAS  /tmp/ccMXVZGN.s 			page 18


 959              		.loc 5 165 0
 960 0016 0123     		movs	r3, #1
 961              		.loc 5 166 0
 962 0018 1846     		mov	r0, r3
 963 001a 02B0     		add	sp, sp, #8
 964              		.cfi_def_cfa_offset 0
 965              		@ sp needed
 966 001c 7047     		bx	lr
 967              	.L57:
 968 001e 00BF     		.align	2
 969              	.L56:
 970 0020 00000000 		.word	test_global_fail
 971 0024 00000000 		.word	local_fail
 972 0028 00000000 		.word	failpoint
 973              		.cfi_endproc
 974              	.LFE274:
 975              		.size	_test_fail, .-_test_fail
 976              		.section	.text._test_assert,"ax",%progbits
 977              		.align	1
 978              		.p2align 4,,15
 979              		.global	_test_assert
 980              		.syntax unified
 981              		.thumb
 982              		.thumb_func
 983              		.fpu fpv4-sp-d16
 984              		.type	_test_assert, %function
 985              	_test_assert:
 986              	.LFB275:
 987              		.loc 5 168 0
 988              		.cfi_startproc
 989              		@ args = 0, pretend = 0, frame = 8
 990              		@ frame_needed = 0, uses_anonymous_args = 0
 991 0000 00B5     		push	{lr}
 992              		.cfi_def_cfa_offset 4
 993              		.cfi_offset 14, -4
 994 0002 83B0     		sub	sp, sp, #12
 995              		.cfi_def_cfa_offset 16
 996 0004 0190     		str	r0, [sp, #4]
 997 0006 0B46     		mov	r3, r1
 998 0008 8DF80330 		strb	r3, [sp, #3]
 999              		.loc 5 170 0
 1000 000c 9DF80330 		ldrb	r3, [sp, #3]
 1001 0010 83F00103 		eor	r3, r3, #1
 1002 0014 DBB2     		uxtb	r3, r3
 1003 0016 002B     		cmp	r3, #0
 1004 0018 04D0     		beq	.L59
 1005              		.loc 5 171 0
 1006 001a 0198     		ldr	r0, [sp, #4]
 1007 001c FFF7FEFF 		bl	_test_fail
 1008 0020 0346     		mov	r3, r0
 1009 0022 00E0     		b	.L60
 1010              	.L59:
 1011              		.loc 5 172 0
 1012 0024 0023     		movs	r3, #0
 1013              	.L60:
 1014              		.loc 5 173 0
 1015 0026 1846     		mov	r0, r3
ARM GAS  /tmp/ccMXVZGN.s 			page 19


 1016 0028 03B0     		add	sp, sp, #12
 1017              		.cfi_def_cfa_offset 4
 1018              		@ sp needed
 1019 002a 5DF804FB 		ldr	pc, [sp], #4
 1020              		.cfi_endproc
 1021              	.LFE275:
 1022              		.size	_test_assert, .-_test_assert
 1023 002e 00BF     		.section	.text._test_assert_sequence,"ax",%progbits
 1024              		.align	1
 1025              		.p2align 4,,15
 1026              		.global	_test_assert_sequence
 1027              		.syntax unified
 1028              		.thumb
 1029              		.thumb_func
 1030              		.fpu fpv4-sp-d16
 1031              		.type	_test_assert_sequence, %function
 1032              	_test_assert_sequence:
 1033              	.LFB276:
 1034              		.loc 5 175 0
 1035              		.cfi_startproc
 1036              		@ args = 0, pretend = 0, frame = 16
 1037              		@ frame_needed = 0, uses_anonymous_args = 0
 1038 0000 00B5     		push	{lr}
 1039              		.cfi_def_cfa_offset 4
 1040              		.cfi_offset 14, -4
 1041 0002 85B0     		sub	sp, sp, #20
 1042              		.cfi_def_cfa_offset 24
 1043 0004 0190     		str	r0, [sp, #4]
 1044 0006 0091     		str	r1, [sp]
 1045              		.loc 5 176 0
 1046 0008 134B     		ldr	r3, .L66
 1047 000a 0393     		str	r3, [sp, #12]
 1048              		.loc 5 177 0
 1049 000c 0EE0     		b	.L62
 1050              	.L64:
 1051              		.loc 5 178 0
 1052 000e 039B     		ldr	r3, [sp, #12]
 1053 0010 5A1C     		adds	r2, r3, #1
 1054 0012 0392     		str	r2, [sp, #12]
 1055 0014 1A78     		ldrb	r2, [r3]	@ zero_extendqisi2
 1056 0016 009B     		ldr	r3, [sp]
 1057 0018 591C     		adds	r1, r3, #1
 1058 001a 0091     		str	r1, [sp]
 1059 001c 1B78     		ldrb	r3, [r3]	@ zero_extendqisi2
 1060 001e 9A42     		cmp	r2, r3
 1061 0020 04D0     		beq	.L62
 1062              		.loc 5 179 0
 1063 0022 0198     		ldr	r0, [sp, #4]
 1064 0024 FFF7FEFF 		bl	_test_fail
 1065 0028 0346     		mov	r3, r0
 1066 002a 10E0     		b	.L63
 1067              	.L62:
 1068              		.loc 5 177 0
 1069 002c 0B4B     		ldr	r3, .L66+4
 1070 002e 1B68     		ldr	r3, [r3]
 1071 0030 039A     		ldr	r2, [sp, #12]
 1072 0032 9A42     		cmp	r2, r3
ARM GAS  /tmp/ccMXVZGN.s 			page 20


 1073 0034 EBD3     		bcc	.L64
 1074              		.loc 5 181 0
 1075 0036 009B     		ldr	r3, [sp]
 1076 0038 1B78     		ldrb	r3, [r3]	@ zero_extendqisi2
 1077 003a 002B     		cmp	r3, #0
 1078 003c 04D0     		beq	.L65
 1079              		.loc 5 182 0
 1080 003e 0198     		ldr	r0, [sp, #4]
 1081 0040 FFF7FEFF 		bl	_test_fail
 1082 0044 0346     		mov	r3, r0
 1083 0046 02E0     		b	.L63
 1084              	.L65:
 1085              		.loc 5 183 0
 1086 0048 FFF7FEFF 		bl	clear_tokens
 1087              		.loc 5 184 0
 1088 004c 0023     		movs	r3, #0
 1089              	.L63:
 1090              		.loc 5 185 0
 1091 004e 1846     		mov	r0, r3
 1092 0050 05B0     		add	sp, sp, #20
 1093              		.cfi_def_cfa_offset 4
 1094              		@ sp needed
 1095 0052 5DF804FB 		ldr	pc, [sp], #4
 1096              	.L67:
 1097 0056 00BF     		.align	2
 1098              	.L66:
 1099 0058 00000000 		.word	tokens_buffer
 1100 005c 00000000 		.word	tokp
 1101              		.cfi_endproc
 1102              	.LFE276:
 1103              		.size	_test_assert_sequence, .-_test_assert_sequence
 1104              		.section	.text._test_assert_time_window,"ax",%progbits
 1105              		.align	1
 1106              		.p2align 4,,15
 1107              		.global	_test_assert_time_window
 1108              		.syntax unified
 1109              		.thumb
 1110              		.thumb_func
 1111              		.fpu fpv4-sp-d16
 1112              		.type	_test_assert_time_window, %function
 1113              	_test_assert_time_window:
 1114              	.LFB277:
 1115              		.loc 5 187 0
 1116              		.cfi_startproc
 1117              		@ args = 0, pretend = 0, frame = 16
 1118              		@ frame_needed = 0, uses_anonymous_args = 0
 1119 0000 00B5     		push	{lr}
 1120              		.cfi_def_cfa_offset 4
 1121              		.cfi_offset 14, -4
 1122 0002 85B0     		sub	sp, sp, #20
 1123              		.cfi_def_cfa_offset 24
 1124 0004 0390     		str	r0, [sp, #12]
 1125 0006 0291     		str	r1, [sp, #8]
 1126 0008 0192     		str	r2, [sp, #4]
 1127              		.loc 5 189 0
 1128 000a 0199     		ldr	r1, [sp, #4]
 1129 000c 0298     		ldr	r0, [sp, #8]
ARM GAS  /tmp/ccMXVZGN.s 			page 21


 1130 000e FFF7FEFF 		bl	chVTIsSystemTimeWithin
 1131 0012 0346     		mov	r3, r0
 1132 0014 1946     		mov	r1, r3
 1133 0016 0398     		ldr	r0, [sp, #12]
 1134 0018 FFF7FEFF 		bl	_test_assert
 1135 001c 0346     		mov	r3, r0
 1136              		.loc 5 190 0
 1137 001e 1846     		mov	r0, r3
 1138 0020 05B0     		add	sp, sp, #20
 1139              		.cfi_def_cfa_offset 4
 1140              		@ sp needed
 1141 0022 5DF804FB 		ldr	pc, [sp], #4
 1142              		.cfi_endproc
 1143              	.LFE277:
 1144              		.size	_test_assert_time_window, .-_test_assert_time_window
 1145 0026 00BF     		.section	.text.test_terminate_threads,"ax",%progbits
 1146              		.align	1
 1147              		.p2align 4,,15
 1148              		.global	test_terminate_threads
 1149              		.syntax unified
 1150              		.thumb
 1151              		.thumb_func
 1152              		.fpu fpv4-sp-d16
 1153              		.type	test_terminate_threads, %function
 1154              	test_terminate_threads:
 1155              	.LFB278:
 1156              		.loc 5 199 0
 1157              		.cfi_startproc
 1158              		@ args = 0, pretend = 0, frame = 8
 1159              		@ frame_needed = 0, uses_anonymous_args = 0
 1160 0000 00B5     		push	{lr}
 1161              		.cfi_def_cfa_offset 4
 1162              		.cfi_offset 14, -4
 1163 0002 83B0     		sub	sp, sp, #12
 1164              		.cfi_def_cfa_offset 16
 1165              		.loc 5 202 0
 1166 0004 0023     		movs	r3, #0
 1167 0006 0193     		str	r3, [sp, #4]
 1168 0008 0FE0     		b	.L71
 1169              	.L73:
 1170              		.loc 5 203 0
 1171 000a 0B4A     		ldr	r2, .L74
 1172 000c 019B     		ldr	r3, [sp, #4]
 1173 000e 52F82330 		ldr	r3, [r2, r3, lsl #2]
 1174 0012 002B     		cmp	r3, #0
 1175 0014 06D0     		beq	.L72
 1176              		.loc 5 204 0
 1177 0016 084A     		ldr	r2, .L74
 1178 0018 019B     		ldr	r3, [sp, #4]
 1179 001a 52F82330 		ldr	r3, [r2, r3, lsl #2]
 1180 001e 1846     		mov	r0, r3
 1181 0020 FFF7FEFF 		bl	chThdTerminate
 1182              	.L72:
 1183              		.loc 5 202 0 discriminator 2
 1184 0024 019B     		ldr	r3, [sp, #4]
 1185 0026 0133     		adds	r3, r3, #1
 1186 0028 0193     		str	r3, [sp, #4]
ARM GAS  /tmp/ccMXVZGN.s 			page 22


 1187              	.L71:
 1188              		.loc 5 202 0 is_stmt 0 discriminator 1
 1189 002a 019B     		ldr	r3, [sp, #4]
 1190 002c 042B     		cmp	r3, #4
 1191 002e ECDD     		ble	.L73
 1192              		.loc 5 205 0 is_stmt 1
 1193 0030 00BF     		nop
 1194 0032 03B0     		add	sp, sp, #12
 1195              		.cfi_def_cfa_offset 4
 1196              		@ sp needed
 1197 0034 5DF804FB 		ldr	pc, [sp], #4
 1198              	.L75:
 1199              		.align	2
 1200              	.L74:
 1201 0038 00000000 		.word	threads
 1202              		.cfi_endproc
 1203              	.LFE278:
 1204              		.size	test_terminate_threads, .-test_terminate_threads
 1205              		.section	.text.test_wait_threads,"ax",%progbits
 1206              		.align	1
 1207              		.p2align 4,,15
 1208              		.global	test_wait_threads
 1209              		.syntax unified
 1210              		.thumb
 1211              		.thumb_func
 1212              		.fpu fpv4-sp-d16
 1213              		.type	test_wait_threads, %function
 1214              	test_wait_threads:
 1215              	.LFB279:
 1216              		.loc 5 210 0
 1217              		.cfi_startproc
 1218              		@ args = 0, pretend = 0, frame = 8
 1219              		@ frame_needed = 0, uses_anonymous_args = 0
 1220 0000 00B5     		push	{lr}
 1221              		.cfi_def_cfa_offset 4
 1222              		.cfi_offset 14, -4
 1223 0002 83B0     		sub	sp, sp, #12
 1224              		.cfi_def_cfa_offset 16
 1225              		.loc 5 213 0
 1226 0004 0023     		movs	r3, #0
 1227 0006 0193     		str	r3, [sp, #4]
 1228 0008 14E0     		b	.L77
 1229              	.L79:
 1230              		.loc 5 214 0
 1231 000a 0E4A     		ldr	r2, .L80
 1232 000c 019B     		ldr	r3, [sp, #4]
 1233 000e 52F82330 		ldr	r3, [r2, r3, lsl #2]
 1234 0012 002B     		cmp	r3, #0
 1235 0014 0BD0     		beq	.L78
 1236              		.loc 5 215 0
 1237 0016 0B4A     		ldr	r2, .L80
 1238 0018 019B     		ldr	r3, [sp, #4]
 1239 001a 52F82330 		ldr	r3, [r2, r3, lsl #2]
 1240 001e 1846     		mov	r0, r3
 1241 0020 FFF7FEFF 		bl	chThdWait
 1242              		.loc 5 216 0
 1243 0024 074A     		ldr	r2, .L80
ARM GAS  /tmp/ccMXVZGN.s 			page 23


 1244 0026 019B     		ldr	r3, [sp, #4]
 1245 0028 0021     		movs	r1, #0
 1246 002a 42F82310 		str	r1, [r2, r3, lsl #2]
 1247              	.L78:
 1248              		.loc 5 213 0 discriminator 2
 1249 002e 019B     		ldr	r3, [sp, #4]
 1250 0030 0133     		adds	r3, r3, #1
 1251 0032 0193     		str	r3, [sp, #4]
 1252              	.L77:
 1253              		.loc 5 213 0 is_stmt 0 discriminator 1
 1254 0034 019B     		ldr	r3, [sp, #4]
 1255 0036 042B     		cmp	r3, #4
 1256 0038 E7DD     		ble	.L79
 1257              		.loc 5 218 0 is_stmt 1
 1258 003a 00BF     		nop
 1259 003c 03B0     		add	sp, sp, #12
 1260              		.cfi_def_cfa_offset 4
 1261              		@ sp needed
 1262 003e 5DF804FB 		ldr	pc, [sp], #4
 1263              	.L81:
 1264 0042 00BF     		.align	2
 1265              	.L80:
 1266 0044 00000000 		.word	threads
 1267              		.cfi_endproc
 1268              	.LFE279:
 1269              		.size	test_wait_threads, .-test_wait_threads
 1270              		.section	.text.test_wait_tick,"ax",%progbits
 1271              		.align	1
 1272              		.p2align 4,,15
 1273              		.global	test_wait_tick
 1274              		.syntax unified
 1275              		.thumb
 1276              		.thumb_func
 1277              		.fpu fpv4-sp-d16
 1278              		.type	test_wait_tick, %function
 1279              	test_wait_tick:
 1280              	.LFB280:
 1281              		.loc 5 248 0
 1282              		.cfi_startproc
 1283              		@ args = 0, pretend = 0, frame = 0
 1284              		@ frame_needed = 0, uses_anonymous_args = 0
 1285 0000 08B5     		push	{r3, lr}
 1286              		.cfi_def_cfa_offset 8
 1287              		.cfi_offset 3, -8
 1288              		.cfi_offset 14, -4
 1289              		.loc 5 250 0
 1290 0002 0120     		movs	r0, #1
 1291 0004 FFF7FEFF 		bl	chThdSleep
 1292              		.loc 5 251 0
 1293 0008 FFF7FEFF 		bl	chVTGetSystemTime
 1294 000c 0346     		mov	r3, r0
 1295              		.loc 5 252 0
 1296 000e 1846     		mov	r0, r3
 1297 0010 08BD     		pop	{r3, pc}
 1298              		.cfi_endproc
 1299              	.LFE280:
 1300              		.size	test_wait_tick, .-test_wait_tick
ARM GAS  /tmp/ccMXVZGN.s 			page 24


 1301              		.global	test_timer_done
 1302 0012 00BF     		.section	.bss.test_timer_done,"aw",%nobits
 1303              		.type	test_timer_done, %object
 1304              		.size	test_timer_done, 1
 1305              	test_timer_done:
 1306 0000 00       		.space	1
 1307              		.section	.bss.vt,"aw",%nobits
 1308              		.align	2
 1309              		.type	vt, %object
 1310              		.size	vt, 20
 1311              	vt:
 1312 0000 00000000 		.space	20
 1312      00000000 
 1312      00000000 
 1312      00000000 
 1312      00000000 
 1313              		.section	.text.tmr,"ax",%progbits
 1314              		.align	1
 1315              		.p2align 4,,15
 1316              		.syntax unified
 1317              		.thumb
 1318              		.thumb_func
 1319              		.fpu fpv4-sp-d16
 1320              		.type	tmr, %function
 1321              	tmr:
 1322              	.LFB281:
 1323              		.loc 5 264 0
 1324              		.cfi_startproc
 1325              		@ args = 0, pretend = 0, frame = 8
 1326              		@ frame_needed = 0, uses_anonymous_args = 0
 1327              		@ link register save eliminated.
 1328 0000 82B0     		sub	sp, sp, #8
 1329              		.cfi_def_cfa_offset 8
 1330 0002 0190     		str	r0, [sp, #4]
 1331              		.loc 5 267 0
 1332 0004 024B     		ldr	r3, .L85
 1333 0006 0122     		movs	r2, #1
 1334 0008 1A70     		strb	r2, [r3]
 1335              		.loc 5 268 0
 1336 000a 00BF     		nop
 1337 000c 02B0     		add	sp, sp, #8
 1338              		.cfi_def_cfa_offset 0
 1339              		@ sp needed
 1340 000e 7047     		bx	lr
 1341              	.L86:
 1342              		.align	2
 1343              	.L85:
 1344 0010 00000000 		.word	test_timer_done
 1345              		.cfi_endproc
 1346              	.LFE281:
 1347              		.size	tmr, .-tmr
 1348              		.section	.text.test_start_timer,"ax",%progbits
 1349              		.align	1
 1350              		.p2align 4,,15
 1351              		.global	test_start_timer
 1352              		.syntax unified
 1353              		.thumb
ARM GAS  /tmp/ccMXVZGN.s 			page 25


 1354              		.thumb_func
 1355              		.fpu fpv4-sp-d16
 1356              		.type	test_start_timer, %function
 1357              	test_start_timer:
 1358              	.LFB282:
 1359              		.loc 5 275 0
 1360              		.cfi_startproc
 1361              		@ args = 0, pretend = 0, frame = 16
 1362              		@ frame_needed = 0, uses_anonymous_args = 0
 1363 0000 00B5     		push	{lr}
 1364              		.cfi_def_cfa_offset 4
 1365              		.cfi_offset 14, -4
 1366 0002 85B0     		sub	sp, sp, #20
 1367              		.cfi_def_cfa_offset 24
 1368 0004 0190     		str	r0, [sp, #4]
 1369              		.loc 5 277 0
 1370 0006 019B     		ldr	r3, [sp, #4]
 1371 0008 42F21072 		movw	r2, #10000
 1372 000c 02FB03F3 		mul	r3, r2, r3
 1373 0010 03F2E733 		addw	r3, r3, #999
 1374 0014 084A     		ldr	r2, .L88
 1375 0016 A2FB0323 		umull	r2, r3, r2, r3
 1376 001a 9B09     		lsrs	r3, r3, #6
 1377 001c 0393     		str	r3, [sp, #12]
 1378              		.loc 5 278 0
 1379 001e 074B     		ldr	r3, .L88+4
 1380 0020 0022     		movs	r2, #0
 1381 0022 1A70     		strb	r2, [r3]
 1382              		.loc 5 279 0
 1383 0024 0023     		movs	r3, #0
 1384 0026 064A     		ldr	r2, .L88+8
 1385 0028 0399     		ldr	r1, [sp, #12]
 1386 002a 0648     		ldr	r0, .L88+12
 1387 002c FFF7FEFF 		bl	chVTSet
 1388              		.loc 5 280 0
 1389 0030 00BF     		nop
 1390 0032 05B0     		add	sp, sp, #20
 1391              		.cfi_def_cfa_offset 4
 1392              		@ sp needed
 1393 0034 5DF804FB 		ldr	pc, [sp], #4
 1394              	.L89:
 1395              		.align	2
 1396              	.L88:
 1397 0038 D34D6210 		.word	274877907
 1398 003c 00000000 		.word	test_timer_done
 1399 0040 00000000 		.word	tmr
 1400 0044 00000000 		.word	vt
 1401              		.cfi_endproc
 1402              	.LFE282:
 1403              		.size	test_start_timer, .-test_start_timer
 1404              		.section	.text.execute_test,"ax",%progbits
 1405              		.align	1
 1406              		.p2align 4,,15
 1407              		.syntax unified
 1408              		.thumb
 1409              		.thumb_func
 1410              		.fpu fpv4-sp-d16
ARM GAS  /tmp/ccMXVZGN.s 			page 26


 1411              		.type	execute_test, %function
 1412              	execute_test:
 1413              	.LFB283:
 1414              		.loc 5 285 0
 1415              		.cfi_startproc
 1416              		@ args = 0, pretend = 0, frame = 16
 1417              		@ frame_needed = 0, uses_anonymous_args = 0
 1418 0000 00B5     		push	{lr}
 1419              		.cfi_def_cfa_offset 4
 1420              		.cfi_offset 14, -4
 1421 0002 85B0     		sub	sp, sp, #20
 1422              		.cfi_def_cfa_offset 24
 1423 0004 0190     		str	r0, [sp, #4]
 1424              		.loc 5 289 0
 1425 0006 FFF7FEFF 		bl	clear_tokens
 1426              		.loc 5 290 0
 1427 000a 144B     		ldr	r3, .L95
 1428 000c 0022     		movs	r2, #0
 1429 000e 1A70     		strb	r2, [r3]
 1430              		.loc 5 291 0
 1431 0010 0023     		movs	r3, #0
 1432 0012 0393     		str	r3, [sp, #12]
 1433 0014 07E0     		b	.L91
 1434              	.L92:
 1435              		.loc 5 292 0 discriminator 3
 1436 0016 124A     		ldr	r2, .L95+4
 1437 0018 039B     		ldr	r3, [sp, #12]
 1438 001a 0021     		movs	r1, #0
 1439 001c 42F82310 		str	r1, [r2, r3, lsl #2]
 1440              		.loc 5 291 0 discriminator 3
 1441 0020 039B     		ldr	r3, [sp, #12]
 1442 0022 0133     		adds	r3, r3, #1
 1443 0024 0393     		str	r3, [sp, #12]
 1444              	.L91:
 1445              		.loc 5 291 0 is_stmt 0 discriminator 1
 1446 0026 039B     		ldr	r3, [sp, #12]
 1447 0028 042B     		cmp	r3, #4
 1448 002a F4DD     		ble	.L92
 1449              		.loc 5 294 0 is_stmt 1
 1450 002c 019B     		ldr	r3, [sp, #4]
 1451 002e 5B68     		ldr	r3, [r3, #4]
 1452 0030 002B     		cmp	r3, #0
 1453 0032 02D0     		beq	.L93
 1454              		.loc 5 295 0
 1455 0034 019B     		ldr	r3, [sp, #4]
 1456 0036 5B68     		ldr	r3, [r3, #4]
 1457 0038 9847     		blx	r3
 1458              	.LVL5:
 1459              	.L93:
 1460              		.loc 5 296 0
 1461 003a 019B     		ldr	r3, [sp, #4]
 1462 003c DB68     		ldr	r3, [r3, #12]
 1463 003e 9847     		blx	r3
 1464              	.LVL6:
 1465              		.loc 5 297 0
 1466 0040 019B     		ldr	r3, [sp, #4]
 1467 0042 9B68     		ldr	r3, [r3, #8]
ARM GAS  /tmp/ccMXVZGN.s 			page 27


 1468 0044 002B     		cmp	r3, #0
 1469 0046 02D0     		beq	.L94
 1470              		.loc 5 298 0
 1471 0048 019B     		ldr	r3, [sp, #4]
 1472 004a 9B68     		ldr	r3, [r3, #8]
 1473 004c 9847     		blx	r3
 1474              	.LVL7:
 1475              	.L94:
 1476              		.loc 5 300 0
 1477 004e FFF7FEFF 		bl	test_wait_threads
 1478              		.loc 5 301 0
 1479 0052 00BF     		nop
 1480 0054 05B0     		add	sp, sp, #20
 1481              		.cfi_def_cfa_offset 4
 1482              		@ sp needed
 1483 0056 5DF804FB 		ldr	pc, [sp], #4
 1484              	.L96:
 1485 005a 00BF     		.align	2
 1486              	.L95:
 1487 005c 00000000 		.word	local_fail
 1488 0060 00000000 		.word	threads
 1489              		.cfi_endproc
 1490              	.LFE283:
 1491              		.size	execute_test, .-execute_test
 1492              		.section	.text.print_line,"ax",%progbits
 1493              		.align	1
 1494              		.p2align 4,,15
 1495              		.syntax unified
 1496              		.thumb
 1497              		.thumb_func
 1498              		.fpu fpv4-sp-d16
 1499              		.type	print_line, %function
 1500              	print_line:
 1501              	.LFB284:
 1502              		.loc 5 303 0
 1503              		.cfi_startproc
 1504              		@ args = 0, pretend = 0, frame = 8
 1505              		@ frame_needed = 0, uses_anonymous_args = 0
 1506 0000 00B5     		push	{lr}
 1507              		.cfi_def_cfa_offset 4
 1508              		.cfi_offset 14, -4
 1509 0002 83B0     		sub	sp, sp, #12
 1510              		.cfi_def_cfa_offset 16
 1511              		.loc 5 306 0
 1512 0004 0023     		movs	r3, #0
 1513 0006 0193     		str	r3, [sp, #4]
 1514 0008 0BE0     		b	.L98
 1515              	.L99:
 1516              		.loc 5 307 0 discriminator 3
 1517 000a 0E4B     		ldr	r3, .L100
 1518 000c 1B68     		ldr	r3, [r3]
 1519 000e 1B68     		ldr	r3, [r3]
 1520 0010 9B68     		ldr	r3, [r3, #8]
 1521 0012 0C4A     		ldr	r2, .L100
 1522 0014 1268     		ldr	r2, [r2]
 1523 0016 2D21     		movs	r1, #45
 1524 0018 1046     		mov	r0, r2
ARM GAS  /tmp/ccMXVZGN.s 			page 28


 1525 001a 9847     		blx	r3
 1526              	.LVL8:
 1527              		.loc 5 306 0 discriminator 3
 1528 001c 019B     		ldr	r3, [sp, #4]
 1529 001e 0133     		adds	r3, r3, #1
 1530 0020 0193     		str	r3, [sp, #4]
 1531              	.L98:
 1532              		.loc 5 306 0 is_stmt 0 discriminator 1
 1533 0022 019B     		ldr	r3, [sp, #4]
 1534 0024 4B2B     		cmp	r3, #75
 1535 0026 F0D9     		bls	.L99
 1536              		.loc 5 308 0 is_stmt 1
 1537 0028 064B     		ldr	r3, .L100
 1538 002a 1B68     		ldr	r3, [r3]
 1539 002c 1B68     		ldr	r3, [r3]
 1540 002e 1B68     		ldr	r3, [r3]
 1541 0030 044A     		ldr	r2, .L100
 1542 0032 1068     		ldr	r0, [r2]
 1543 0034 0222     		movs	r2, #2
 1544 0036 0449     		ldr	r1, .L100+4
 1545 0038 9847     		blx	r3
 1546              	.LVL9:
 1547              		.loc 5 309 0
 1548 003a 00BF     		nop
 1549 003c 03B0     		add	sp, sp, #12
 1550              		.cfi_def_cfa_offset 4
 1551              		@ sp needed
 1552 003e 5DF804FB 		ldr	pc, [sp], #4
 1553              	.L101:
 1554 0042 00BF     		.align	2
 1555              	.L100:
 1556 0044 00000000 		.word	chp
 1557 0048 00000000 		.word	.LC0
 1558              		.cfi_endproc
 1559              	.LFE284:
 1560              		.size	print_line, .-print_line
 1561              		.section	.rodata
 1562 0003 00       		.align	2
 1563              	.LC1:
 1564 0004 00       		.ascii	"\000"
 1565 0005 000000   		.align	2
 1566              	.LC2:
 1567 0008 2A2A2A20 		.ascii	"*** ChibiOS/RT test suite\000"
 1567      43686962 
 1567      694F532F 
 1567      52542074 
 1567      65737420 
 1568 0022 0000     		.align	2
 1569              	.LC3:
 1570 0024 2A2A2A00 		.ascii	"***\000"
 1571              		.align	2
 1572              	.LC4:
 1573 0028 2A2A2A20 		.ascii	"*** Kernel:       \000"
 1573      4B65726E 
 1573      656C3A20 
 1573      20202020 
 1573      202000
ARM GAS  /tmp/ccMXVZGN.s 			page 29


 1574 003b 00       		.align	2
 1575              	.LC5:
 1576 003c 332E322E 		.ascii	"3.2.1\000"
 1576      3100
 1577 0042 0000     		.align	2
 1578              	.LC6:
 1579 0044 2A2A2A20 		.ascii	"*** Compiled:     \000"
 1579      436F6D70 
 1579      696C6564 
 1579      3A202020 
 1579      202000
 1580 0057 00       		.align	2
 1581              	.LC7:
 1582 0058 4D617920 		.ascii	"May 21 2018 - 13:07:09\000"
 1582      32312032 
 1582      30313820 
 1582      2D203133 
 1582      3A30373A 
 1583 006f 00       		.align	2
 1584              	.LC8:
 1585 0070 2A2A2A20 		.ascii	"*** Compiler:     \000"
 1585      436F6D70 
 1585      696C6572 
 1585      3A202020 
 1585      202000
 1586 0083 00       		.align	2
 1587              	.LC9:
 1588 0084 47434320 		.ascii	"GCC 6.3.1 20170620 (release) [ARM/embedded-6-branch"
 1588      362E332E 
 1588      31203230 
 1588      31373036 
 1588      32302028 
 1589 00b7 20726576 		.ascii	" revision 249437]\000"
 1589      6973696F 
 1589      6E203234 
 1589      39343337 
 1589      5D00
 1590 00c9 000000   		.align	2
 1591              	.LC10:
 1592 00cc 2A2A2A20 		.ascii	"*** Architecture: \000"
 1592      41726368 
 1592      69746563 
 1592      74757265 
 1592      3A2000
 1593 00df 00       		.align	2
 1594              	.LC11:
 1595 00e0 41524D76 		.ascii	"ARMv7E-M\000"
 1595      37452D4D 
 1595      00
 1596 00e9 000000   		.align	2
 1597              	.LC12:
 1598 00ec 2A2A2A20 		.ascii	"*** Core Variant: \000"
 1598      436F7265 
 1598      20566172 
 1598      69616E74 
 1598      3A2000
 1599 00ff 00       		.align	2
ARM GAS  /tmp/ccMXVZGN.s 			page 30


 1600              	.LC13:
 1601 0100 436F7274 		.ascii	"Cortex-M4F\000"
 1601      65782D4D 
 1601      344600
 1602 010b 00       		.align	2
 1603              	.LC14:
 1604 010c 2A2A2A20 		.ascii	"*** Port Info:    \000"
 1604      506F7274 
 1604      20496E66 
 1604      6F3A2020 
 1604      202000
 1605 011f 00       		.align	2
 1606              	.LC15:
 1607 0120 41647661 		.ascii	"Advanced kernel mode\000"
 1607      6E636564 
 1607      206B6572 
 1607      6E656C20 
 1607      6D6F6465 
 1608 0135 000000   		.align	2
 1609              	.LC16:
 1610 0138 2A2A2A20 		.ascii	"*** Platform:     \000"
 1610      506C6174 
 1610      666F726D 
 1610      3A202020 
 1610      202000
 1611 014b 00       		.align	2
 1612              	.LC17:
 1613 014c 53544D33 		.ascii	"STM32F437 High Performance with DSP and FPU\000"
 1613      32463433 
 1613      37204869 
 1613      67682050 
 1613      6572666F 
 1614              		.align	2
 1615              	.LC18:
 1616 0178 2A2A2A20 		.ascii	"*** Test Board:   \000"
 1616      54657374 
 1616      20426F61 
 1616      72643A20 
 1616      202000
 1617 018b 00       		.align	2
 1618              	.LC19:
 1619 018c 6D6F746F 		.ascii	"motor_controller\000"
 1619      725F636F 
 1619      6E74726F 
 1619      6C6C6572 
 1619      00
 1620 019d 000000   		.align	2
 1621              	.LC20:
 1622 01a0 2D2D2D20 		.ascii	"--- Test Case \000"
 1622      54657374 
 1622      20436173 
 1622      652000
 1623 01af 00       		.align	2
 1624              	.LC21:
 1625 01b0 2E00     		.ascii	".\000"
 1626 01b2 0000     		.align	2
 1627              	.LC22:
ARM GAS  /tmp/ccMXVZGN.s 			page 31


 1628 01b4 202800   		.ascii	" (\000"
 1629 01b7 00       		.align	2
 1630              	.LC23:
 1631 01b8 2900     		.ascii	")\000"
 1632 01ba 0000     		.align	2
 1633              	.LC24:
 1634 01bc 2D2D2D20 		.ascii	"--- Result: FAILURE (#\000"
 1634      52657375 
 1634      6C743A20 
 1634      4641494C 
 1634      55524520 
 1635 01d3 00       		.align	2
 1636              	.LC25:
 1637 01d4 205B00   		.ascii	" [\000"
 1638 01d7 00       		.align	2
 1639              	.LC26:
 1640 01d8 5D2900   		.ascii	"])\000"
 1641 01db 00       		.align	2
 1642              	.LC27:
 1643 01dc 2D2D2D20 		.ascii	"--- Result: SUCCESS\000"
 1643      52657375 
 1643      6C743A20 
 1643      53554343 
 1643      45535300 
 1644              		.align	2
 1645              	.LC28:
 1646 01f0 46696E61 		.ascii	"Final result: \000"
 1646      6C207265 
 1646      73756C74 
 1646      3A2000
 1647 01ff 00       		.align	2
 1648              	.LC29:
 1649 0200 4641494C 		.ascii	"FAILURE\000"
 1649      55524500 
 1650              		.align	2
 1651              	.LC30:
 1652 0208 53554343 		.ascii	"SUCCESS\000"
 1652      45535300 
 1653              		.section	.text.TestThread,"ax",%progbits
 1654              		.align	1
 1655              		.p2align 4,,15
 1656              		.global	TestThread
 1657              		.syntax unified
 1658              		.thumb
 1659              		.thumb_func
 1660              		.fpu fpv4-sp-d16
 1661              		.type	TestThread, %function
 1662              	TestThread:
 1663              	.LFB285:
 1664              		.loc 5 316 0
 1665              		.cfi_startproc
 1666              		@ args = 0, pretend = 0, frame = 16
 1667              		@ frame_needed = 0, uses_anonymous_args = 0
 1668 0000 00B5     		push	{lr}
 1669              		.cfi_def_cfa_offset 4
 1670              		.cfi_offset 14, -4
 1671 0002 85B0     		sub	sp, sp, #20
ARM GAS  /tmp/ccMXVZGN.s 			page 32


 1672              		.cfi_def_cfa_offset 24
 1673 0004 0190     		str	r0, [sp, #4]
 1674              		.loc 5 319 0
 1675 0006 604A     		ldr	r2, .L112
 1676 0008 019B     		ldr	r3, [sp, #4]
 1677 000a 1360     		str	r3, [r2]
 1678              		.loc 5 320 0
 1679 000c 5F48     		ldr	r0, .L112+4
 1680 000e FFF7FEFF 		bl	test_println
 1681              		.loc 5 321 0
 1682 0012 5F48     		ldr	r0, .L112+8
 1683 0014 FFF7FEFF 		bl	test_println
 1684              		.loc 5 322 0
 1685 0018 5E48     		ldr	r0, .L112+12
 1686 001a FFF7FEFF 		bl	test_println
 1687              		.loc 5 323 0
 1688 001e 5E48     		ldr	r0, .L112+16
 1689 0020 FFF7FEFF 		bl	test_print
 1690              		.loc 5 324 0
 1691 0024 5D48     		ldr	r0, .L112+20
 1692 0026 FFF7FEFF 		bl	test_println
 1693              		.loc 5 325 0
 1694 002a 5D48     		ldr	r0, .L112+24
 1695 002c FFF7FEFF 		bl	test_print
 1696              		.loc 5 326 0
 1697 0030 5C48     		ldr	r0, .L112+28
 1698 0032 FFF7FEFF 		bl	test_println
 1699              		.loc 5 328 0
 1700 0036 5C48     		ldr	r0, .L112+32
 1701 0038 FFF7FEFF 		bl	test_print
 1702              		.loc 5 329 0
 1703 003c 5B48     		ldr	r0, .L112+36
 1704 003e FFF7FEFF 		bl	test_println
 1705              		.loc 5 331 0
 1706 0042 5B48     		ldr	r0, .L112+40
 1707 0044 FFF7FEFF 		bl	test_print
 1708              		.loc 5 332 0
 1709 0048 5A48     		ldr	r0, .L112+44
 1710 004a FFF7FEFF 		bl	test_println
 1711              		.loc 5 334 0
 1712 004e 5A48     		ldr	r0, .L112+48
 1713 0050 FFF7FEFF 		bl	test_print
 1714              		.loc 5 335 0
 1715 0054 5948     		ldr	r0, .L112+52
 1716 0056 FFF7FEFF 		bl	test_println
 1717              		.loc 5 338 0
 1718 005a 5948     		ldr	r0, .L112+56
 1719 005c FFF7FEFF 		bl	test_print
 1720              		.loc 5 339 0
 1721 0060 5848     		ldr	r0, .L112+60
 1722 0062 FFF7FEFF 		bl	test_println
 1723              		.loc 5 342 0
 1724 0066 5848     		ldr	r0, .L112+64
 1725 0068 FFF7FEFF 		bl	test_print
 1726              		.loc 5 343 0
 1727 006c 5748     		ldr	r0, .L112+68
 1728 006e FFF7FEFF 		bl	test_println
ARM GAS  /tmp/ccMXVZGN.s 			page 33


 1729              		.loc 5 346 0
 1730 0072 5748     		ldr	r0, .L112+72
 1731 0074 FFF7FEFF 		bl	test_print
 1732              		.loc 5 347 0
 1733 0078 5648     		ldr	r0, .L112+76
 1734 007a FFF7FEFF 		bl	test_println
 1735              		.loc 5 349 0
 1736 007e 4348     		ldr	r0, .L112+4
 1737 0080 FFF7FEFF 		bl	test_println
 1738              		.loc 5 351 0
 1739 0084 544B     		ldr	r3, .L112+80
 1740 0086 0022     		movs	r2, #0
 1741 0088 1A70     		strb	r2, [r3]
 1742              		.loc 5 352 0
 1743 008a 0023     		movs	r3, #0
 1744 008c 0393     		str	r3, [sp, #12]
 1745              		.loc 5 353 0
 1746 008e 5DE0     		b	.L103
 1747              	.L108:
 1748              		.loc 5 354 0
 1749 0090 0023     		movs	r3, #0
 1750 0092 0293     		str	r3, [sp, #8]
 1751              		.loc 5 355 0
 1752 0094 4DE0     		b	.L104
 1753              	.L107:
 1754              		.loc 5 356 0
 1755 0096 FFF7FEFF 		bl	print_line
 1756              		.loc 5 357 0
 1757 009a 5048     		ldr	r0, .L112+84
 1758 009c FFF7FEFF 		bl	test_print
 1759              		.loc 5 358 0
 1760 00a0 039B     		ldr	r3, [sp, #12]
 1761 00a2 0133     		adds	r3, r3, #1
 1762 00a4 1846     		mov	r0, r3
 1763 00a6 FFF7FEFF 		bl	test_printn
 1764              		.loc 5 359 0
 1765 00aa 4D48     		ldr	r0, .L112+88
 1766 00ac FFF7FEFF 		bl	test_print
 1767              		.loc 5 360 0
 1768 00b0 029B     		ldr	r3, [sp, #8]
 1769 00b2 0133     		adds	r3, r3, #1
 1770 00b4 1846     		mov	r0, r3
 1771 00b6 FFF7FEFF 		bl	test_printn
 1772              		.loc 5 361 0
 1773 00ba 4A48     		ldr	r0, .L112+92
 1774 00bc FFF7FEFF 		bl	test_print
 1775              		.loc 5 362 0
 1776 00c0 494A     		ldr	r2, .L112+96
 1777 00c2 039B     		ldr	r3, [sp, #12]
 1778 00c4 52F82320 		ldr	r2, [r2, r3, lsl #2]
 1779 00c8 029B     		ldr	r3, [sp, #8]
 1780 00ca 9B00     		lsls	r3, r3, #2
 1781 00cc 1344     		add	r3, r3, r2
 1782 00ce 1B68     		ldr	r3, [r3]
 1783 00d0 1B68     		ldr	r3, [r3]
 1784 00d2 1846     		mov	r0, r3
 1785 00d4 FFF7FEFF 		bl	test_print
ARM GAS  /tmp/ccMXVZGN.s 			page 34


 1786              		.loc 5 363 0
 1787 00d8 4448     		ldr	r0, .L112+100
 1788 00da FFF7FEFF 		bl	test_println
 1789              		.loc 5 365 0
 1790 00de 4FF4FA60 		mov	r0, #2000
 1791 00e2 FFF7FEFF 		bl	chThdSleep
 1792              		.loc 5 367 0
 1793 00e6 404A     		ldr	r2, .L112+96
 1794 00e8 039B     		ldr	r3, [sp, #12]
 1795 00ea 52F82320 		ldr	r2, [r2, r3, lsl #2]
 1796 00ee 029B     		ldr	r3, [sp, #8]
 1797 00f0 9B00     		lsls	r3, r3, #2
 1798 00f2 1344     		add	r3, r3, r2
 1799 00f4 1B68     		ldr	r3, [r3]
 1800 00f6 1846     		mov	r0, r3
 1801 00f8 FFF7FEFF 		bl	execute_test
 1802              		.loc 5 368 0
 1803 00fc 3C4B     		ldr	r3, .L112+104
 1804 00fe 1B78     		ldrb	r3, [r3]	@ zero_extendqisi2
 1805 0100 002B     		cmp	r3, #0
 1806 0102 10D0     		beq	.L105
 1807              		.loc 5 369 0
 1808 0104 3B48     		ldr	r0, .L112+108
 1809 0106 FFF7FEFF 		bl	test_print
 1810              		.loc 5 370 0
 1811 010a 3B4B     		ldr	r3, .L112+112
 1812 010c 1B68     		ldr	r3, [r3]
 1813 010e 1846     		mov	r0, r3
 1814 0110 FFF7FEFF 		bl	test_printn
 1815              		.loc 5 371 0
 1816 0114 3948     		ldr	r0, .L112+116
 1817 0116 FFF7FEFF 		bl	test_print
 1818              		.loc 5 372 0
 1819 011a FFF7FEFF 		bl	print_tokens
 1820              		.loc 5 373 0
 1821 011e 3848     		ldr	r0, .L112+120
 1822 0120 FFF7FEFF 		bl	test_println
 1823 0124 02E0     		b	.L106
 1824              	.L105:
 1825              		.loc 5 376 0
 1826 0126 3748     		ldr	r0, .L112+124
 1827 0128 FFF7FEFF 		bl	test_println
 1828              	.L106:
 1829              		.loc 5 377 0
 1830 012c 029B     		ldr	r3, [sp, #8]
 1831 012e 0133     		adds	r3, r3, #1
 1832 0130 0293     		str	r3, [sp, #8]
 1833              	.L104:
 1834              		.loc 5 355 0
 1835 0132 2D4A     		ldr	r2, .L112+96
 1836 0134 039B     		ldr	r3, [sp, #12]
 1837 0136 52F82320 		ldr	r2, [r2, r3, lsl #2]
 1838 013a 029B     		ldr	r3, [sp, #8]
 1839 013c 9B00     		lsls	r3, r3, #2
 1840 013e 1344     		add	r3, r3, r2
 1841 0140 1B68     		ldr	r3, [r3]
 1842 0142 002B     		cmp	r3, #0
ARM GAS  /tmp/ccMXVZGN.s 			page 35


 1843 0144 A7D1     		bne	.L107
 1844              		.loc 5 379 0
 1845 0146 039B     		ldr	r3, [sp, #12]
 1846 0148 0133     		adds	r3, r3, #1
 1847 014a 0393     		str	r3, [sp, #12]
 1848              	.L103:
 1849              		.loc 5 353 0
 1850 014c 264A     		ldr	r2, .L112+96
 1851 014e 039B     		ldr	r3, [sp, #12]
 1852 0150 52F82330 		ldr	r3, [r2, r3, lsl #2]
 1853 0154 002B     		cmp	r3, #0
 1854 0156 9BD1     		bne	.L108
 1855              		.loc 5 381 0
 1856 0158 FFF7FEFF 		bl	print_line
 1857              		.loc 5 382 0
 1858 015c 0B48     		ldr	r0, .L112+4
 1859 015e FFF7FEFF 		bl	test_println
 1860              		.loc 5 383 0
 1861 0162 2948     		ldr	r0, .L112+128
 1862 0164 FFF7FEFF 		bl	test_print
 1863              		.loc 5 384 0
 1864 0168 1B4B     		ldr	r3, .L112+80
 1865 016a 1B78     		ldrb	r3, [r3]	@ zero_extendqisi2
 1866 016c 002B     		cmp	r3, #0
 1867 016e 03D0     		beq	.L109
 1868              		.loc 5 385 0
 1869 0170 2648     		ldr	r0, .L112+132
 1870 0172 FFF7FEFF 		bl	test_println
 1871              		.loc 5 388 0
 1872 0176 02E0     		b	.L111
 1873              	.L109:
 1874              		.loc 5 387 0
 1875 0178 2548     		ldr	r0, .L112+136
 1876 017a FFF7FEFF 		bl	test_println
 1877              	.L111:
 1878              		.loc 5 388 0
 1879 017e 00BF     		nop
 1880 0180 05B0     		add	sp, sp, #20
 1881              		.cfi_def_cfa_offset 4
 1882              		@ sp needed
 1883 0182 5DF804FB 		ldr	pc, [sp], #4
 1884              	.L113:
 1885 0186 00BF     		.align	2
 1886              	.L112:
 1887 0188 00000000 		.word	chp
 1888 018c 04000000 		.word	.LC1
 1889 0190 08000000 		.word	.LC2
 1890 0194 24000000 		.word	.LC3
 1891 0198 28000000 		.word	.LC4
 1892 019c 3C000000 		.word	.LC5
 1893 01a0 44000000 		.word	.LC6
 1894 01a4 58000000 		.word	.LC7
 1895 01a8 70000000 		.word	.LC8
 1896 01ac 84000000 		.word	.LC9
 1897 01b0 CC000000 		.word	.LC10
 1898 01b4 E0000000 		.word	.LC11
 1899 01b8 EC000000 		.word	.LC12
ARM GAS  /tmp/ccMXVZGN.s 			page 36


 1900 01bc 00010000 		.word	.LC13
 1901 01c0 0C010000 		.word	.LC14
 1902 01c4 20010000 		.word	.LC15
 1903 01c8 38010000 		.word	.LC16
 1904 01cc 4C010000 		.word	.LC17
 1905 01d0 78010000 		.word	.LC18
 1906 01d4 8C010000 		.word	.LC19
 1907 01d8 00000000 		.word	test_global_fail
 1908 01dc A0010000 		.word	.LC20
 1909 01e0 B0010000 		.word	.LC21
 1910 01e4 B4010000 		.word	.LC22
 1911 01e8 00000000 		.word	patterns
 1912 01ec B8010000 		.word	.LC23
 1913 01f0 00000000 		.word	local_fail
 1914 01f4 BC010000 		.word	.LC24
 1915 01f8 00000000 		.word	failpoint
 1916 01fc D4010000 		.word	.LC25
 1917 0200 D8010000 		.word	.LC26
 1918 0204 DC010000 		.word	.LC27
 1919 0208 F0010000 		.word	.LC28
 1920 020c 00020000 		.word	.LC29
 1921 0210 08020000 		.word	.LC30
 1922              		.cfi_endproc
 1923              	.LFE285:
 1924              		.size	TestThread, .-TestThread
 1925              		.section	.rodata.__func__.7157,"a",%progbits
 1926              		.align	2
 1927              		.type	__func__.7157, %object
 1928              		.size	__func__.7157, 12
 1929              	__func__.7157:
 1930 0000 63685379 		.ascii	"chSysUnlock\000"
 1930      73556E6C 
 1930      6F636B00 
 1931              		.text
 1932              	.Letext0:
 1933              		.file 6 "/usr/lib/gcc/arm-none-eabi/6.3.1/include/stddef.h"
 1934              		.file 7 "/usr/arm-none-eabi/include/machine/_default_types.h"
 1935              		.file 8 "/usr/arm-none-eabi/include/sys/_stdint.h"
 1936              		.file 9 "../ChibiOS/os/rt/ports/ARMCMx/compilers/GCC/chtypes.h"
 1937              		.file 10 "../ChibiOS/os/rt/include/chsystypes.h"
 1938              		.file 11 "../ChibiOS/os/rt/include/chschd.h"
 1939              		.file 12 "../ChibiOS/os/ext/CMSIS/include/core_cm4.h"
 1940              		.file 13 "../ChibiOS/os/ext/CMSIS/ST/STM32F4xx/system_stm32f4xx.h"
 1941              		.file 14 "../ChibiOS/os/ext/CMSIS/ST/STM32F4xx/stm32f437xx.h"
 1942              		.file 15 "../ChibiOS/os/rt/ports/ARMCMx/chcore.h"
 1943              		.file 16 "../ChibiOS/os/rt/include/chtm.h"
 1944              		.file 17 "../ChibiOS/os/rt/include/chstats.h"
 1945              		.file 18 "../ChibiOS/os/rt/include/chsem.h"
 1946              		.file 19 "../ChibiOS/os/rt/include/chmtx.h"
 1947              		.file 20 "../ChibiOS/os/rt/include/chregistry.h"
 1948              		.file 21 "../ChibiOS/os/rt/include/chevents.h"
 1949              		.file 22 "../ChibiOS/os/rt/include/chqueues.h"
 1950              		.file 23 "../ChibiOS/os/rt/include/chstreams.h"
 1951              		.file 24 "../ChibiOS/os/hal/ports/STM32/LLD/DMAv2/stm32_dma.h"
 1952              		.file 25 "../ChibiOS/os/hal/ports/STM32/LLD/GPIOv2/pal_lld.h"
 1953              		.file 26 "../ChibiOS/os/hal/include/ext.h"
 1954              		.file 27 "../ChibiOS/os/hal/ports/STM32/LLD/EXTIv1/ext_lld.h"
ARM GAS  /tmp/ccMXVZGN.s 			page 37


 1955              		.file 28 "../ChibiOS/os/hal/include/gpt.h"
 1956              		.file 29 "../ChibiOS/os/hal/ports/STM32/LLD/TIMv1/gpt_lld.h"
 1957              		.file 30 "../ChibiOS/os/hal/ports/STM32/LLD/TIMv1/stm32_tim.h"
 1958              		.file 31 "../ChibiOS/os/hal/include/pwm.h"
 1959              		.file 32 "../ChibiOS/os/hal/ports/STM32/LLD/TIMv1/pwm_lld.h"
 1960              		.file 33 "../ChibiOS/os/hal/include/serial.h"
 1961              		.file 34 "../ChibiOS/os/hal/ports/STM32/LLD/USARTv1/serial_lld.h"
 1962              		.file 35 "../ChibiOS/os/hal/include/usb.h"
 1963              		.file 36 "../ChibiOS/os/hal/ports/STM32/LLD/OTGv1/usb_lld.h"
 1964              		.file 37 "../ChibiOS/os/hal/ports/STM32/LLD/OTGv1/stm32_otg.h"
 1965              		.file 38 "../ChibiOS/test/rt/test.h"
 1966              		.file 39 "../ChibiOS/test/rt/testsys.h"
 1967              		.file 40 "../ChibiOS/test/rt/testthd.h"
 1968              		.file 41 "../ChibiOS/test/rt/testsem.h"
 1969              		.file 42 "../ChibiOS/test/rt/testmtx.h"
 1970              		.file 43 "../ChibiOS/test/rt/testmsg.h"
 1971              		.file 44 "../ChibiOS/test/rt/testmbox.h"
 1972              		.file 45 "../ChibiOS/test/rt/testevt.h"
 1973              		.file 46 "../ChibiOS/test/rt/testheap.h"
 1974              		.file 47 "../ChibiOS/test/rt/testpools.h"
 1975              		.file 48 "../ChibiOS/test/rt/testdyn.h"
 1976              		.file 49 "../ChibiOS/test/rt/testqueues.h"
 1977              		.file 50 "../ChibiOS/test/rt/testbmk.h"