ARM GAS  /tmp/ccPUcz4M.s 			page 1


   1              		.cpu cortex-m4
   2              		.eabi_attribute 27, 1
   3              		.eabi_attribute 28, 1
   4              		.eabi_attribute 20, 1
   5              		.eabi_attribute 21, 1
   6              		.eabi_attribute 23, 3
   7              		.eabi_attribute 24, 1
   8              		.eabi_attribute 25, 1
   9              		.eabi_attribute 26, 1
  10              		.eabi_attribute 30, 6
  11              		.eabi_attribute 34, 1
  12              		.eabi_attribute 18, 4
  13              		.file	"testheap.c"
  14              		.text
  15              	.Ltext0:
  16              		.cfi_sections	.debug_frame
  17              		.section	.bss.test_heap,"aw",%nobits
  18              		.align	3
  19              		.type	test_heap, %object
  20              		.size	test_heap, 32
  21              	test_heap:
  22 0000 00000000 		.space	32
  22      00000000 
  22      00000000 
  22      00000000 
  22      00000000 
  23              		.section	.text.heap1_setup,"ax",%progbits
  24              		.align	1
  25              		.p2align 4,,15
  26              		.syntax unified
  27              		.thumb
  28              		.thumb_func
  29              		.fpu fpv4-sp-d16
  30              		.type	heap1_setup, %function
  31              	heap1_setup:
  32              	.LFB231:
  33              		.file 1 "../ChibiOS/test/rt/testheap.c"
  34              		.loc 1 64 0
  35              		.cfi_startproc
  36              		@ args = 0, pretend = 0, frame = 0
  37              		@ frame_needed = 0, uses_anonymous_args = 0
  38 0000 08B5     		push	{r3, lr}
  39              		.cfi_def_cfa_offset 8
  40              		.cfi_offset 3, -8
  41              		.cfi_offset 14, -4
  42              		.loc 1 66 0
  43 0002 4FF41B62 		mov	r2, #2480
  44 0006 0349     		ldr	r1, .L2
  45 0008 0348     		ldr	r0, .L2+4
  46 000a FFF7FEFF 		bl	chHeapObjectInit
  47              		.loc 1 67 0
  48 000e 00BF     		nop
  49 0010 08BD     		pop	{r3, pc}
  50              	.L3:
  51 0012 00BF     		.align	2
  52              	.L2:
  53 0014 00000000 		.word	test
ARM GAS  /tmp/ccPUcz4M.s 			page 2


  54 0018 00000000 		.word	test_heap
  55              		.cfi_endproc
  56              	.LFE231:
  57              		.size	heap1_setup, .-heap1_setup
  58              		.section	.text.heap1_execute,"ax",%progbits
  59              		.align	1
  60              		.p2align 4,,15
  61              		.syntax unified
  62              		.thumb
  63              		.thumb_func
  64              		.fpu fpv4-sp-d16
  65              		.type	heap1_execute, %function
  66              	heap1_execute:
  67              	.LFB232:
  68              		.loc 1 69 0
  69              		.cfi_startproc
  70              		@ args = 0, pretend = 0, frame = 24
  71              		@ frame_needed = 0, uses_anonymous_args = 0
  72 0000 00B5     		push	{lr}
  73              		.cfi_def_cfa_offset 4
  74              		.cfi_offset 14, -4
  75 0002 87B0     		sub	sp, sp, #28
  76              		.cfi_def_cfa_offset 32
  77              		.loc 1 74 0
  78 0004 FFF7FEFF 		bl	chCoreGetStatusX
  79              		.loc 1 80 0
  80 0008 01AB     		add	r3, sp, #4
  81 000a 1946     		mov	r1, r3
  82 000c 0020     		movs	r0, #0
  83 000e FFF7FEFF 		bl	chHeapStatus
  84              		.loc 1 81 0
  85 0012 1021     		movs	r1, #16
  86 0014 0020     		movs	r0, #0
  87 0016 FFF7FEFF 		bl	chHeapAlloc
  88 001a 0590     		str	r0, [sp, #20]
  89              		.loc 1 82 0
  90 001c 059B     		ldr	r3, [sp, #20]
  91 001e 002B     		cmp	r3, #0
  92 0020 14BF     		ite	ne
  93 0022 0123     		movne	r3, #1
  94 0024 0023     		moveq	r3, #0
  95 0026 DBB2     		uxtb	r3, r3
  96 0028 1946     		mov	r1, r3
  97 002a 0120     		movs	r0, #1
  98 002c FFF7FEFF 		bl	_test_assert
  99 0030 0346     		mov	r3, r0
 100 0032 002B     		cmp	r3, #0
 101 0034 40F04A81 		bne	.L22
 102              		.loc 1 83 0
 103 0038 0598     		ldr	r0, [sp, #20]
 104 003a FFF7FEFF 		bl	chHeapFree
 105              		.loc 1 84 0
 106 003e 6FF0FF01 		mvn	r1, #255
 107 0042 0020     		movs	r0, #0
 108 0044 FFF7FEFF 		bl	chHeapAlloc
 109 0048 0590     		str	r0, [sp, #20]
 110              		.loc 1 85 0
ARM GAS  /tmp/ccPUcz4M.s 			page 3


 111 004a 059B     		ldr	r3, [sp, #20]
 112 004c 002B     		cmp	r3, #0
 113 004e 0CBF     		ite	eq
 114 0050 0123     		moveq	r3, #1
 115 0052 0023     		movne	r3, #0
 116 0054 DBB2     		uxtb	r3, r3
 117 0056 1946     		mov	r1, r3
 118 0058 0220     		movs	r0, #2
 119 005a FFF7FEFF 		bl	_test_assert
 120 005e 0346     		mov	r3, r0
 121 0060 002B     		cmp	r3, #0
 122 0062 40F03581 		bne	.L23
 123              		.loc 1 88 0
 124 0066 01AB     		add	r3, sp, #4
 125 0068 1946     		mov	r1, r3
 126 006a A448     		ldr	r0, .L33
 127 006c FFF7FEFF 		bl	chHeapStatus
 128              		.loc 1 91 0
 129 0070 1021     		movs	r1, #16
 130 0072 A248     		ldr	r0, .L33
 131 0074 FFF7FEFF 		bl	chHeapAlloc
 132 0078 0590     		str	r0, [sp, #20]
 133              		.loc 1 92 0
 134 007a 1021     		movs	r1, #16
 135 007c 9F48     		ldr	r0, .L33
 136 007e FFF7FEFF 		bl	chHeapAlloc
 137 0082 0490     		str	r0, [sp, #16]
 138              		.loc 1 93 0
 139 0084 1021     		movs	r1, #16
 140 0086 9D48     		ldr	r0, .L33
 141 0088 FFF7FEFF 		bl	chHeapAlloc
 142 008c 0390     		str	r0, [sp, #12]
 143              		.loc 1 94 0
 144 008e 0598     		ldr	r0, [sp, #20]
 145 0090 FFF7FEFF 		bl	chHeapFree
 146              		.loc 1 95 0
 147 0094 0498     		ldr	r0, [sp, #16]
 148 0096 FFF7FEFF 		bl	chHeapFree
 149              		.loc 1 96 0
 150 009a 0398     		ldr	r0, [sp, #12]
 151 009c FFF7FEFF 		bl	chHeapFree
 152              		.loc 1 97 0
 153 00a0 02AB     		add	r3, sp, #8
 154 00a2 1946     		mov	r1, r3
 155 00a4 9548     		ldr	r0, .L33
 156 00a6 FFF7FEFF 		bl	chHeapStatus
 157 00aa 0346     		mov	r3, r0
 158 00ac 012B     		cmp	r3, #1
 159 00ae 0CBF     		ite	eq
 160 00b0 0123     		moveq	r3, #1
 161 00b2 0023     		movne	r3, #0
 162 00b4 DBB2     		uxtb	r3, r3
 163 00b6 1946     		mov	r1, r3
 164 00b8 0320     		movs	r0, #3
 165 00ba FFF7FEFF 		bl	_test_assert
 166 00be 0346     		mov	r3, r0
 167 00c0 002B     		cmp	r3, #0
ARM GAS  /tmp/ccPUcz4M.s 			page 4


 168 00c2 40F00781 		bne	.L24
 169              		.loc 1 100 0
 170 00c6 1021     		movs	r1, #16
 171 00c8 8C48     		ldr	r0, .L33
 172 00ca FFF7FEFF 		bl	chHeapAlloc
 173 00ce 0590     		str	r0, [sp, #20]
 174              		.loc 1 101 0
 175 00d0 1021     		movs	r1, #16
 176 00d2 8A48     		ldr	r0, .L33
 177 00d4 FFF7FEFF 		bl	chHeapAlloc
 178 00d8 0490     		str	r0, [sp, #16]
 179              		.loc 1 102 0
 180 00da 1021     		movs	r1, #16
 181 00dc 8748     		ldr	r0, .L33
 182 00de FFF7FEFF 		bl	chHeapAlloc
 183 00e2 0390     		str	r0, [sp, #12]
 184              		.loc 1 103 0
 185 00e4 0398     		ldr	r0, [sp, #12]
 186 00e6 FFF7FEFF 		bl	chHeapFree
 187              		.loc 1 104 0
 188 00ea 0498     		ldr	r0, [sp, #16]
 189 00ec FFF7FEFF 		bl	chHeapFree
 190              		.loc 1 105 0
 191 00f0 0598     		ldr	r0, [sp, #20]
 192 00f2 FFF7FEFF 		bl	chHeapFree
 193              		.loc 1 106 0
 194 00f6 02AB     		add	r3, sp, #8
 195 00f8 1946     		mov	r1, r3
 196 00fa 8048     		ldr	r0, .L33
 197 00fc FFF7FEFF 		bl	chHeapStatus
 198 0100 0346     		mov	r3, r0
 199 0102 012B     		cmp	r3, #1
 200 0104 0CBF     		ite	eq
 201 0106 0123     		moveq	r3, #1
 202 0108 0023     		movne	r3, #0
 203 010a DBB2     		uxtb	r3, r3
 204 010c 1946     		mov	r1, r3
 205 010e 0420     		movs	r0, #4
 206 0110 FFF7FEFF 		bl	_test_assert
 207 0114 0346     		mov	r3, r0
 208 0116 002B     		cmp	r3, #0
 209 0118 40F0DE80 		bne	.L25
 210              		.loc 1 109 0
 211 011c 1121     		movs	r1, #17
 212 011e 7748     		ldr	r0, .L33
 213 0120 FFF7FEFF 		bl	chHeapAlloc
 214 0124 0590     		str	r0, [sp, #20]
 215              		.loc 1 110 0
 216 0126 1021     		movs	r1, #16
 217 0128 7448     		ldr	r0, .L33
 218 012a FFF7FEFF 		bl	chHeapAlloc
 219 012e 0490     		str	r0, [sp, #16]
 220              		.loc 1 111 0
 221 0130 0598     		ldr	r0, [sp, #20]
 222 0132 FFF7FEFF 		bl	chHeapFree
 223              		.loc 1 112 0
 224 0136 02AB     		add	r3, sp, #8
ARM GAS  /tmp/ccPUcz4M.s 			page 5


 225 0138 1946     		mov	r1, r3
 226 013a 7048     		ldr	r0, .L33
 227 013c FFF7FEFF 		bl	chHeapStatus
 228 0140 0346     		mov	r3, r0
 229 0142 022B     		cmp	r3, #2
 230 0144 0CBF     		ite	eq
 231 0146 0123     		moveq	r3, #1
 232 0148 0023     		movne	r3, #0
 233 014a DBB2     		uxtb	r3, r3
 234 014c 1946     		mov	r1, r3
 235 014e 0520     		movs	r0, #5
 236 0150 FFF7FEFF 		bl	_test_assert
 237 0154 0346     		mov	r3, r0
 238 0156 002B     		cmp	r3, #0
 239 0158 40F0C080 		bne	.L26
 240              		.loc 1 113 0
 241 015c 1021     		movs	r1, #16
 242 015e 6748     		ldr	r0, .L33
 243 0160 FFF7FEFF 		bl	chHeapAlloc
 244 0164 0590     		str	r0, [sp, #20]
 245              		.loc 1 116 0
 246 0166 02AB     		add	r3, sp, #8
 247 0168 1946     		mov	r1, r3
 248 016a 6448     		ldr	r0, .L33
 249 016c FFF7FEFF 		bl	chHeapStatus
 250 0170 0346     		mov	r3, r0
 251 0172 012B     		cmp	r3, #1
 252 0174 07D0     		beq	.L11
 253              		.loc 1 116 0 is_stmt 0 discriminator 2
 254 0176 02AB     		add	r3, sp, #8
 255 0178 1946     		mov	r1, r3
 256 017a 6048     		ldr	r0, .L33
 257 017c FFF7FEFF 		bl	chHeapStatus
 258 0180 0346     		mov	r3, r0
 259 0182 022B     		cmp	r3, #2
 260 0184 01D1     		bne	.L12
 261              	.L11:
 262              		.loc 1 116 0 discriminator 3
 263 0186 0123     		movs	r3, #1
 264 0188 00E0     		b	.L13
 265              	.L12:
 266              		.loc 1 116 0 discriminator 4
 267 018a 0023     		movs	r3, #0
 268              	.L13:
 269              		.loc 1 116 0 discriminator 6
 270 018c 03F00103 		and	r3, r3, #1
 271 0190 DBB2     		uxtb	r3, r3
 272 0192 1946     		mov	r1, r3
 273 0194 0620     		movs	r0, #6
 274 0196 FFF7FEFF 		bl	_test_assert
 275 019a 0346     		mov	r3, r0
 276 019c 002B     		cmp	r3, #0
 277 019e 40F09F80 		bne	.L27
 278              		.loc 1 118 0 is_stmt 1
 279 01a2 0498     		ldr	r0, [sp, #16]
 280 01a4 FFF7FEFF 		bl	chHeapFree
 281              		.loc 1 119 0
ARM GAS  /tmp/ccPUcz4M.s 			page 6


 282 01a8 0598     		ldr	r0, [sp, #20]
 283 01aa FFF7FEFF 		bl	chHeapFree
 284              		.loc 1 120 0
 285 01ae 02AB     		add	r3, sp, #8
 286 01b0 1946     		mov	r1, r3
 287 01b2 5248     		ldr	r0, .L33
 288 01b4 FFF7FEFF 		bl	chHeapStatus
 289 01b8 0346     		mov	r3, r0
 290 01ba 012B     		cmp	r3, #1
 291 01bc 0CBF     		ite	eq
 292 01be 0123     		moveq	r3, #1
 293 01c0 0023     		movne	r3, #0
 294 01c2 DBB2     		uxtb	r3, r3
 295 01c4 1946     		mov	r1, r3
 296 01c6 0720     		movs	r0, #7
 297 01c8 FFF7FEFF 		bl	_test_assert
 298 01cc 0346     		mov	r3, r0
 299 01ce 002B     		cmp	r3, #0
 300 01d0 40F08880 		bne	.L28
 301              		.loc 1 123 0
 302 01d4 1021     		movs	r1, #16
 303 01d6 4948     		ldr	r0, .L33
 304 01d8 FFF7FEFF 		bl	chHeapAlloc
 305 01dc 0590     		str	r0, [sp, #20]
 306              		.loc 1 124 0
 307 01de 1021     		movs	r1, #16
 308 01e0 4648     		ldr	r0, .L33
 309 01e2 FFF7FEFF 		bl	chHeapAlloc
 310 01e6 0490     		str	r0, [sp, #16]
 311              		.loc 1 125 0
 312 01e8 0598     		ldr	r0, [sp, #20]
 313 01ea FFF7FEFF 		bl	chHeapFree
 314              		.loc 1 126 0
 315 01ee 02AB     		add	r3, sp, #8
 316 01f0 1946     		mov	r1, r3
 317 01f2 4248     		ldr	r0, .L33
 318 01f4 FFF7FEFF 		bl	chHeapStatus
 319 01f8 0346     		mov	r3, r0
 320 01fa 022B     		cmp	r3, #2
 321 01fc 0CBF     		ite	eq
 322 01fe 0123     		moveq	r3, #1
 323 0200 0023     		movne	r3, #0
 324 0202 DBB2     		uxtb	r3, r3
 325 0204 1946     		mov	r1, r3
 326 0206 0820     		movs	r0, #8
 327 0208 FFF7FEFF 		bl	_test_assert
 328 020c 0346     		mov	r3, r0
 329 020e 002B     		cmp	r3, #0
 330 0210 6AD1     		bne	.L29
 331              		.loc 1 127 0
 332 0212 2021     		movs	r1, #32
 333 0214 3948     		ldr	r0, .L33
 334 0216 FFF7FEFF 		bl	chHeapAlloc
 335 021a 0590     		str	r0, [sp, #20]
 336              		.loc 1 128 0
 337 021c 0598     		ldr	r0, [sp, #20]
 338 021e FFF7FEFF 		bl	chHeapFree
ARM GAS  /tmp/ccPUcz4M.s 			page 7


 339              		.loc 1 129 0
 340 0222 0498     		ldr	r0, [sp, #16]
 341 0224 FFF7FEFF 		bl	chHeapFree
 342              		.loc 1 130 0
 343 0228 02AB     		add	r3, sp, #8
 344 022a 1946     		mov	r1, r3
 345 022c 3348     		ldr	r0, .L33
 346 022e FFF7FEFF 		bl	chHeapStatus
 347 0232 0346     		mov	r3, r0
 348 0234 012B     		cmp	r3, #1
 349 0236 0CBF     		ite	eq
 350 0238 0123     		moveq	r3, #1
 351 023a 0023     		movne	r3, #0
 352 023c DBB2     		uxtb	r3, r3
 353 023e 1946     		mov	r1, r3
 354 0240 0920     		movs	r0, #9
 355 0242 FFF7FEFF 		bl	_test_assert
 356 0246 0346     		mov	r3, r0
 357 0248 002B     		cmp	r3, #0
 358 024a 4FD1     		bne	.L30
 359              		.loc 1 133 0
 360 024c 02AB     		add	r3, sp, #8
 361 024e 1946     		mov	r1, r3
 362 0250 2A48     		ldr	r0, .L33
 363 0252 FFF7FEFF 		bl	chHeapStatus
 364              		.loc 1 134 0
 365 0256 029B     		ldr	r3, [sp, #8]
 366 0258 1946     		mov	r1, r3
 367 025a 2848     		ldr	r0, .L33
 368 025c FFF7FEFF 		bl	chHeapAlloc
 369 0260 0590     		str	r0, [sp, #20]
 370              		.loc 1 135 0
 371 0262 02AB     		add	r3, sp, #8
 372 0264 1946     		mov	r1, r3
 373 0266 2548     		ldr	r0, .L33
 374 0268 FFF7FEFF 		bl	chHeapStatus
 375 026c 0346     		mov	r3, r0
 376 026e 002B     		cmp	r3, #0
 377 0270 0CBF     		ite	eq
 378 0272 0123     		moveq	r3, #1
 379 0274 0023     		movne	r3, #0
 380 0276 DBB2     		uxtb	r3, r3
 381 0278 1946     		mov	r1, r3
 382 027a 0A20     		movs	r0, #10
 383 027c FFF7FEFF 		bl	_test_assert
 384 0280 0346     		mov	r3, r0
 385 0282 002B     		cmp	r3, #0
 386 0284 34D1     		bne	.L31
 387              		.loc 1 136 0
 388 0286 0598     		ldr	r0, [sp, #20]
 389 0288 FFF7FEFF 		bl	chHeapFree
 390              		.loc 1 138 0
 391 028c 02AB     		add	r3, sp, #8
 392 028e 1946     		mov	r1, r3
 393 0290 1A48     		ldr	r0, .L33
 394 0292 FFF7FEFF 		bl	chHeapStatus
 395 0296 0346     		mov	r3, r0
ARM GAS  /tmp/ccPUcz4M.s 			page 8


 396 0298 012B     		cmp	r3, #1
 397 029a 0CBF     		ite	eq
 398 029c 0123     		moveq	r3, #1
 399 029e 0023     		movne	r3, #0
 400 02a0 DBB2     		uxtb	r3, r3
 401 02a2 1946     		mov	r1, r3
 402 02a4 0B20     		movs	r0, #11
 403 02a6 FFF7FEFF 		bl	_test_assert
 404 02aa 0346     		mov	r3, r0
 405 02ac 002B     		cmp	r3, #0
 406 02ae 21D1     		bne	.L32
 407              		.loc 1 139 0
 408 02b0 029A     		ldr	r2, [sp, #8]
 409 02b2 019B     		ldr	r3, [sp, #4]
 410 02b4 9A42     		cmp	r2, r3
 411 02b6 0CBF     		ite	eq
 412 02b8 0123     		moveq	r3, #1
 413 02ba 0023     		movne	r3, #0
 414 02bc DBB2     		uxtb	r3, r3
 415 02be 1946     		mov	r1, r3
 416 02c0 0C20     		movs	r0, #12
 417 02c2 FFF7FEFF 		bl	_test_assert
 418 02c6 0346     		mov	r3, r0
 419 02c8 002B     		cmp	r3, #0
 420 02ca 14E0     		b	.L4
 421              	.L22:
 422              		.loc 1 82 0
 423 02cc 00BF     		nop
 424 02ce 12E0     		b	.L4
 425              	.L23:
 426              		.loc 1 85 0
 427 02d0 00BF     		nop
 428 02d2 10E0     		b	.L4
 429              	.L24:
 430              		.loc 1 97 0
 431 02d4 00BF     		nop
 432 02d6 0EE0     		b	.L4
 433              	.L25:
 434              		.loc 1 106 0
 435 02d8 00BF     		nop
 436 02da 0CE0     		b	.L4
 437              	.L26:
 438              		.loc 1 112 0
 439 02dc 00BF     		nop
 440 02de 0AE0     		b	.L4
 441              	.L27:
 442              		.loc 1 116 0
 443 02e0 00BF     		nop
 444 02e2 08E0     		b	.L4
 445              	.L28:
 446              		.loc 1 120 0
 447 02e4 00BF     		nop
 448 02e6 06E0     		b	.L4
 449              	.L29:
 450              		.loc 1 126 0
 451 02e8 00BF     		nop
 452 02ea 04E0     		b	.L4
ARM GAS  /tmp/ccPUcz4M.s 			page 9


 453              	.L30:
 454              		.loc 1 130 0
 455 02ec 00BF     		nop
 456 02ee 02E0     		b	.L4
 457              	.L31:
 458              		.loc 1 135 0
 459 02f0 00BF     		nop
 460 02f2 00E0     		b	.L4
 461              	.L32:
 462              		.loc 1 138 0
 463 02f4 00BF     		nop
 464              	.L4:
 465              		.loc 1 140 0
 466 02f6 07B0     		add	sp, sp, #28
 467              		.cfi_def_cfa_offset 4
 468              		@ sp needed
 469 02f8 5DF804FB 		ldr	pc, [sp], #4
 470              	.L34:
 471              		.align	2
 472              	.L33:
 473 02fc 00000000 		.word	test_heap
 474              		.cfi_endproc
 475              	.LFE232:
 476              		.size	heap1_execute, .-heap1_execute
 477              		.global	testheap1
 478              		.section	.rodata
 479              		.align	2
 480              	.LC0:
 481 0000 48656170 		.ascii	"Heap, allocation and fragmentation test\000"
 481      2C20616C 
 481      6C6F6361 
 481      74696F6E 
 481      20616E64 
 482              		.section	.rodata.testheap1,"a",%progbits
 483              		.align	2
 484              		.type	testheap1, %object
 485              		.size	testheap1, 16
 486              	testheap1:
 487 0000 00000000 		.word	.LC0
 488 0004 00000000 		.word	heap1_setup
 489 0008 00000000 		.word	0
 490 000c 00000000 		.word	heap1_execute
 491              		.global	patternheap
 492              		.section	.rodata.patternheap,"a",%progbits
 493              		.align	2
 494              		.type	patternheap, %object
 495              		.size	patternheap, 8
 496              	patternheap:
 497 0000 00000000 		.word	testheap1
 498 0004 00000000 		.word	0
 499              		.text
 500              	.Letext0:
 501              		.file 2 "/usr/lib/gcc/arm-none-eabi/6.3.1/include/stddef.h"
 502              		.file 3 "/usr/arm-none-eabi/include/machine/_default_types.h"
 503              		.file 4 "/usr/arm-none-eabi/include/sys/_stdint.h"
 504              		.file 5 "../ChibiOS/os/rt/ports/ARMCMx/compilers/GCC/chtypes.h"
 505              		.file 6 "../ChibiOS/os/rt/include/chsystypes.h"
ARM GAS  /tmp/ccPUcz4M.s 			page 10


 506              		.file 7 "../ChibiOS/os/rt/include/chschd.h"
 507              		.file 8 "../ChibiOS/os/ext/CMSIS/include/core_cm4.h"
 508              		.file 9 "../ChibiOS/os/ext/CMSIS/ST/STM32F4xx/system_stm32f4xx.h"
 509              		.file 10 "../ChibiOS/os/rt/ports/ARMCMx/chcore.h"
 510              		.file 11 "../ChibiOS/os/rt/ports/ARMCMx/chcore_v7m.h"
 511              		.file 12 "../ChibiOS/os/rt/include/chtm.h"
 512              		.file 13 "../ChibiOS/os/rt/include/chstats.h"
 513              		.file 14 "../ChibiOS/os/rt/include/chsem.h"
 514              		.file 15 "../ChibiOS/os/rt/include/chmtx.h"
 515              		.file 16 "../ChibiOS/os/rt/include/chregistry.h"
 516              		.file 17 "../ChibiOS/os/rt/include/chmemcore.h"
 517              		.file 18 "../ChibiOS/os/rt/include/chheap.h"
 518              		.file 19 "../ChibiOS/test/rt/test.h"