ARM GAS  /tmp/ccDE0Mq0.s 			page 1


   1              		.cpu cortex-m4
   2              		.eabi_attribute 27, 1
   3              		.eabi_attribute 28, 1
   4              		.eabi_attribute 20, 1
   5              		.eabi_attribute 21, 1
   6              		.eabi_attribute 23, 3
   7              		.eabi_attribute 24, 1
   8              		.eabi_attribute 25, 1
   9              		.eabi_attribute 26, 1
  10              		.eabi_attribute 30, 6
  11              		.eabi_attribute 34, 1
  12              		.eabi_attribute 18, 4
  13              		.file	"usb_lld.c"
  14              		.text
  15              	.Ltext0:
  16              		.cfi_sections	.debug_frame
  17              		.section	.text.port_lock,"ax",%progbits
  18              		.align	1
  19              		.p2align 4,,15
  20              		.syntax unified
  21              		.thumb
  22              		.thumb_func
  23              		.fpu fpv4-sp-d16
  24              		.type	port_lock, %function
  25              	port_lock:
  26              	.LFB127:
  27              		.file 1 "../ChibiOS/os/rt/ports/ARMCMx/chcore_v7m.h"
  28              		.loc 1 456 0
  29              		.cfi_startproc
  30              		@ args = 0, pretend = 0, frame = 8
  31              		@ frame_needed = 0, uses_anonymous_args = 0
  32              		@ link register save eliminated.
  33 0000 82B0     		sub	sp, sp, #8
  34              		.cfi_def_cfa_offset 8
  35 0002 2023     		movs	r3, #32
  36 0004 0193     		str	r3, [sp, #4]
  37              	.LBB6:
  38              	.LBB7:
  39              		.file 2 "../ChibiOS/os/ext/CMSIS/include/core_cmFunc.h"
  40              		.loc 2 548 0
  41 0006 019B     		ldr	r3, [sp, #4]
  42              		.syntax unified
  43              	@ 548 "../ChibiOS/os/ext/CMSIS/include/core_cmFunc.h" 1
  44 0008 83F31188 		MSR basepri, r3
  45              	@ 0 "" 2
  46              		.thumb
  47              		.syntax unified
  48              	.LBE7:
  49              	.LBE6:
  50              		.loc 1 473 0
  51 000c 00BF     		nop
  52 000e 02B0     		add	sp, sp, #8
  53              		.cfi_def_cfa_offset 0
  54              		@ sp needed
  55 0010 7047     		bx	lr
  56              		.cfi_endproc
  57              	.LFE127:
ARM GAS  /tmp/ccDE0Mq0.s 			page 2


  58              		.size	port_lock, .-port_lock
  59 0012 00BF     		.section	.text.port_unlock,"ax",%progbits
  60              		.align	1
  61              		.p2align 4,,15
  62              		.syntax unified
  63              		.thumb
  64              		.thumb_func
  65              		.fpu fpv4-sp-d16
  66              		.type	port_unlock, %function
  67              	port_unlock:
  68              	.LFB128:
  69              		.loc 1 480 0
  70              		.cfi_startproc
  71              		@ args = 0, pretend = 0, frame = 8
  72              		@ frame_needed = 0, uses_anonymous_args = 0
  73              		@ link register save eliminated.
  74 0000 82B0     		sub	sp, sp, #8
  75              		.cfi_def_cfa_offset 8
  76 0002 0023     		movs	r3, #0
  77 0004 0193     		str	r3, [sp, #4]
  78              	.LBB8:
  79              	.LBB9:
  80              		.loc 2 548 0
  81 0006 019B     		ldr	r3, [sp, #4]
  82              		.syntax unified
  83              	@ 548 "../ChibiOS/os/ext/CMSIS/include/core_cmFunc.h" 1
  84 0008 83F31188 		MSR basepri, r3
  85              	@ 0 "" 2
  86              		.thumb
  87              		.syntax unified
  88              	.LBE9:
  89              	.LBE8:
  90              		.loc 1 487 0
  91 000c 00BF     		nop
  92 000e 02B0     		add	sp, sp, #8
  93              		.cfi_def_cfa_offset 0
  94              		@ sp needed
  95 0010 7047     		bx	lr
  96              		.cfi_endproc
  97              	.LFE128:
  98              		.size	port_unlock, .-port_unlock
  99 0012 00BF     		.section	.text.port_lock_from_isr,"ax",%progbits
 100              		.align	1
 101              		.p2align 4,,15
 102              		.syntax unified
 103              		.thumb
 104              		.thumb_func
 105              		.fpu fpv4-sp-d16
 106              		.type	port_lock_from_isr, %function
 107              	port_lock_from_isr:
 108              	.LFB129:
 109              		.loc 1 495 0
 110              		.cfi_startproc
 111              		@ args = 0, pretend = 0, frame = 0
 112              		@ frame_needed = 0, uses_anonymous_args = 0
 113 0000 08B5     		push	{r3, lr}
 114              		.cfi_def_cfa_offset 8
ARM GAS  /tmp/ccDE0Mq0.s 			page 3


 115              		.cfi_offset 3, -8
 116              		.cfi_offset 14, -4
 117              		.loc 1 497 0
 118 0002 FFF7FEFF 		bl	port_lock
 119              		.loc 1 498 0
 120 0006 00BF     		nop
 121 0008 08BD     		pop	{r3, pc}
 122              		.cfi_endproc
 123              	.LFE129:
 124              		.size	port_lock_from_isr, .-port_lock_from_isr
 125              		.section	.text.port_unlock_from_isr,"ax",%progbits
 126              		.align	1
 127              		.p2align 4,,15
 128              		.syntax unified
 129              		.thumb
 130              		.thumb_func
 131              		.fpu fpv4-sp-d16
 132              		.type	port_unlock_from_isr, %function
 133              	port_unlock_from_isr:
 134              	.LFB130:
 135              		.loc 1 506 0
 136              		.cfi_startproc
 137              		@ args = 0, pretend = 0, frame = 0
 138              		@ frame_needed = 0, uses_anonymous_args = 0
 139 0000 08B5     		push	{r3, lr}
 140              		.cfi_def_cfa_offset 8
 141              		.cfi_offset 3, -8
 142              		.cfi_offset 14, -4
 143              		.loc 1 508 0
 144 0002 FFF7FEFF 		bl	port_unlock
 145              		.loc 1 509 0
 146 0006 00BF     		nop
 147 0008 08BD     		pop	{r3, pc}
 148              		.cfi_endproc
 149              	.LFE130:
 150              		.size	port_unlock_from_isr, .-port_unlock_from_isr
 151              		.section	.text.chSysLock,"ax",%progbits
 152              		.align	1
 153              		.p2align 4,,15
 154              		.syntax unified
 155              		.thumb
 156              		.thumb_func
 157              		.fpu fpv4-sp-d16
 158              		.type	chSysLock, %function
 159              	chSysLock:
 160              	.LFB156:
 161              		.file 3 "../ChibiOS/os/rt/include/chsys.h"
 162              		.loc 3 346 0
 163              		.cfi_startproc
 164              		@ args = 0, pretend = 0, frame = 0
 165              		@ frame_needed = 0, uses_anonymous_args = 0
 166 0000 08B5     		push	{r3, lr}
 167              		.cfi_def_cfa_offset 8
 168              		.cfi_offset 3, -8
 169              		.cfi_offset 14, -4
 170              		.loc 3 348 0
 171 0002 FFF7FEFF 		bl	port_lock
ARM GAS  /tmp/ccDE0Mq0.s 			page 4


 172              		.loc 3 349 0
 173 0006 FFF7FEFF 		bl	_stats_start_measure_crit_thd
 174              		.loc 3 350 0
 175 000a FFF7FEFF 		bl	_dbg_check_lock
 176              		.loc 3 351 0
 177 000e 00BF     		nop
 178 0010 08BD     		pop	{r3, pc}
 179              		.cfi_endproc
 180              	.LFE156:
 181              		.size	chSysLock, .-chSysLock
 182 0012 00BF     		.section	.text.chSysUnlock,"ax",%progbits
 183              		.align	1
 184              		.p2align 4,,15
 185              		.syntax unified
 186              		.thumb
 187              		.thumb_func
 188              		.fpu fpv4-sp-d16
 189              		.type	chSysUnlock, %function
 190              	chSysUnlock:
 191              	.LFB157:
 192              		.loc 3 358 0
 193              		.cfi_startproc
 194              		@ args = 0, pretend = 0, frame = 0
 195              		@ frame_needed = 0, uses_anonymous_args = 0
 196 0000 08B5     		push	{r3, lr}
 197              		.cfi_def_cfa_offset 8
 198              		.cfi_offset 3, -8
 199              		.cfi_offset 14, -4
 200              		.loc 3 360 0
 201 0002 FFF7FEFF 		bl	_dbg_check_unlock
 202              		.loc 3 361 0
 203 0006 FFF7FEFF 		bl	_stats_stop_measure_crit_thd
 204              		.loc 3 367 0
 205 000a 0A4B     		ldr	r3, .L8
 206 000c 1B68     		ldr	r3, [r3]
 207 000e 094A     		ldr	r2, .L8
 208 0010 9342     		cmp	r3, r2
 209 0012 0AD0     		beq	.L7
 210              		.loc 3 367 0 is_stmt 0 discriminator 2
 211 0014 074B     		ldr	r3, .L8
 212 0016 9B69     		ldr	r3, [r3, #24]
 213 0018 9A68     		ldr	r2, [r3, #8]
 214 001a 064B     		ldr	r3, .L8
 215 001c 1B68     		ldr	r3, [r3]
 216 001e 9B68     		ldr	r3, [r3, #8]
 217 0020 9A42     		cmp	r2, r3
 218 0022 02D2     		bcs	.L7
 219              		.loc 3 367 0 discriminator 3
 220 0024 0448     		ldr	r0, .L8+4
 221 0026 FFF7FEFF 		bl	chSysHalt
 222              	.L7:
 223              		.loc 3 371 0 is_stmt 1
 224 002a FFF7FEFF 		bl	port_unlock
 225              		.loc 3 372 0
 226 002e 00BF     		nop
 227 0030 08BD     		pop	{r3, pc}
 228              	.L9:
ARM GAS  /tmp/ccDE0Mq0.s 			page 5


 229 0032 00BF     		.align	2
 230              	.L8:
 231 0034 00000000 		.word	ch
 232 0038 00000000 		.word	__func__.7535
 233              		.cfi_endproc
 234              	.LFE157:
 235              		.size	chSysUnlock, .-chSysUnlock
 236              		.section	.text.chSysLockFromISR,"ax",%progbits
 237              		.align	1
 238              		.p2align 4,,15
 239              		.syntax unified
 240              		.thumb
 241              		.thumb_func
 242              		.fpu fpv4-sp-d16
 243              		.type	chSysLockFromISR, %function
 244              	chSysLockFromISR:
 245              	.LFB158:
 246              		.loc 3 386 0
 247              		.cfi_startproc
 248              		@ args = 0, pretend = 0, frame = 0
 249              		@ frame_needed = 0, uses_anonymous_args = 0
 250 0000 08B5     		push	{r3, lr}
 251              		.cfi_def_cfa_offset 8
 252              		.cfi_offset 3, -8
 253              		.cfi_offset 14, -4
 254              		.loc 3 388 0
 255 0002 FFF7FEFF 		bl	port_lock_from_isr
 256              		.loc 3 389 0
 257 0006 FFF7FEFF 		bl	_stats_start_measure_crit_isr
 258              		.loc 3 390 0
 259 000a FFF7FEFF 		bl	_dbg_check_lock_from_isr
 260              		.loc 3 391 0
 261 000e 00BF     		nop
 262 0010 08BD     		pop	{r3, pc}
 263              		.cfi_endproc
 264              	.LFE158:
 265              		.size	chSysLockFromISR, .-chSysLockFromISR
 266 0012 00BF     		.section	.text.chSysUnlockFromISR,"ax",%progbits
 267              		.align	1
 268              		.p2align 4,,15
 269              		.syntax unified
 270              		.thumb
 271              		.thumb_func
 272              		.fpu fpv4-sp-d16
 273              		.type	chSysUnlockFromISR, %function
 274              	chSysUnlockFromISR:
 275              	.LFB159:
 276              		.loc 3 406 0
 277              		.cfi_startproc
 278              		@ args = 0, pretend = 0, frame = 0
 279              		@ frame_needed = 0, uses_anonymous_args = 0
 280 0000 08B5     		push	{r3, lr}
 281              		.cfi_def_cfa_offset 8
 282              		.cfi_offset 3, -8
 283              		.cfi_offset 14, -4
 284              		.loc 3 408 0
 285 0002 FFF7FEFF 		bl	_dbg_check_unlock_from_isr
ARM GAS  /tmp/ccDE0Mq0.s 			page 6


 286              		.loc 3 409 0
 287 0006 FFF7FEFF 		bl	_stats_stop_measure_crit_isr
 288              		.loc 3 410 0
 289 000a FFF7FEFF 		bl	port_unlock_from_isr
 290              		.loc 3 411 0
 291 000e 00BF     		nop
 292 0010 08BD     		pop	{r3, pc}
 293              		.cfi_endproc
 294              	.LFE159:
 295              		.size	chSysUnlockFromISR, .-chSysUnlockFromISR
 296 0012 00BF     		.section	.text.chThdStartI,"ax",%progbits
 297              		.align	1
 298              		.p2align 4,,15
 299              		.syntax unified
 300              		.thumb
 301              		.thumb_func
 302              		.fpu fpv4-sp-d16
 303              		.type	chThdStartI, %function
 304              	chThdStartI:
 305              	.LFB182:
 306              		.file 4 "../ChibiOS/os/rt/include/chthreads.h"
 307              		.loc 4 245 0
 308              		.cfi_startproc
 309              		@ args = 0, pretend = 0, frame = 8
 310              		@ frame_needed = 0, uses_anonymous_args = 0
 311 0000 00B5     		push	{lr}
 312              		.cfi_def_cfa_offset 4
 313              		.cfi_offset 14, -4
 314 0002 83B0     		sub	sp, sp, #12
 315              		.cfi_def_cfa_offset 16
 316 0004 0190     		str	r0, [sp, #4]
 317              		.loc 4 247 0
 318 0006 019B     		ldr	r3, [sp, #4]
 319 0008 93F82030 		ldrb	r3, [r3, #32]	@ zero_extendqisi2
 320 000c 022B     		cmp	r3, #2
 321 000e 02D0     		beq	.L13
 322              		.loc 4 247 0 is_stmt 0 discriminator 2
 323 0010 0548     		ldr	r0, .L15
 324 0012 FFF7FEFF 		bl	chSysHalt
 325              	.L13:
 326              		.loc 4 249 0 is_stmt 1
 327 0016 0198     		ldr	r0, [sp, #4]
 328 0018 FFF7FEFF 		bl	chSchReadyI
 329 001c 0346     		mov	r3, r0
 330              		.loc 4 250 0
 331 001e 1846     		mov	r0, r3
 332 0020 03B0     		add	sp, sp, #12
 333              		.cfi_def_cfa_offset 4
 334              		@ sp needed
 335 0022 5DF804FB 		ldr	pc, [sp], #4
 336              	.L16:
 337 0026 00BF     		.align	2
 338              	.L15:
 339 0028 00000000 		.word	__func__.7702
 340              		.cfi_endproc
 341              	.LFE182:
 342              		.size	chThdStartI, .-chThdStartI
ARM GAS  /tmp/ccDE0Mq0.s 			page 7


 343              		.section	.text.chRegSetThreadName,"ax",%progbits
 344              		.align	1
 345              		.p2align 4,,15
 346              		.syntax unified
 347              		.thumb
 348              		.thumb_func
 349              		.fpu fpv4-sp-d16
 350              		.type	chRegSetThreadName, %function
 351              	chRegSetThreadName:
 352              	.LFB187:
 353              		.file 5 "../ChibiOS/os/rt/include/chregistry.h"
 354              		.loc 5 132 0
 355              		.cfi_startproc
 356              		@ args = 0, pretend = 0, frame = 8
 357              		@ frame_needed = 0, uses_anonymous_args = 0
 358              		@ link register save eliminated.
 359 0000 82B0     		sub	sp, sp, #8
 360              		.cfi_def_cfa_offset 8
 361 0002 0190     		str	r0, [sp, #4]
 362              		.loc 5 135 0
 363 0004 034B     		ldr	r3, .L18
 364 0006 9B69     		ldr	r3, [r3, #24]
 365 0008 019A     		ldr	r2, [sp, #4]
 366 000a 9A61     		str	r2, [r3, #24]
 367              		.loc 5 139 0
 368 000c 00BF     		nop
 369 000e 02B0     		add	sp, sp, #8
 370              		.cfi_def_cfa_offset 0
 371              		@ sp needed
 372 0010 7047     		bx	lr
 373              	.L19:
 374 0012 00BF     		.align	2
 375              	.L18:
 376 0014 00000000 		.word	ch
 377              		.cfi_endproc
 378              	.LFE187:
 379              		.size	chRegSetThreadName, .-chRegSetThreadName
 380              		.section	.text.osalSysLock,"ax",%progbits
 381              		.align	1
 382              		.p2align 4,,15
 383              		.syntax unified
 384              		.thumb
 385              		.thumb_func
 386              		.fpu fpv4-sp-d16
 387              		.type	osalSysLock, %function
 388              	osalSysLock:
 389              	.LFB235:
 390              		.file 6 "../ChibiOS/os/hal/osal/rt/osal.h"
 391              		.loc 6 491 0
 392              		.cfi_startproc
 393              		@ args = 0, pretend = 0, frame = 0
 394              		@ frame_needed = 0, uses_anonymous_args = 0
 395 0000 08B5     		push	{r3, lr}
 396              		.cfi_def_cfa_offset 8
 397              		.cfi_offset 3, -8
 398              		.cfi_offset 14, -4
 399              		.loc 6 493 0
ARM GAS  /tmp/ccDE0Mq0.s 			page 8


 400 0002 FFF7FEFF 		bl	chSysLock
 401              		.loc 6 494 0
 402 0006 00BF     		nop
 403 0008 08BD     		pop	{r3, pc}
 404              		.cfi_endproc
 405              	.LFE235:
 406              		.size	osalSysLock, .-osalSysLock
 407 000a 00BF     		.section	.text.osalSysUnlock,"ax",%progbits
 408              		.align	1
 409              		.p2align 4,,15
 410              		.syntax unified
 411              		.thumb
 412              		.thumb_func
 413              		.fpu fpv4-sp-d16
 414              		.type	osalSysUnlock, %function
 415              	osalSysUnlock:
 416              	.LFB236:
 417              		.loc 6 502 0
 418              		.cfi_startproc
 419              		@ args = 0, pretend = 0, frame = 0
 420              		@ frame_needed = 0, uses_anonymous_args = 0
 421 0000 08B5     		push	{r3, lr}
 422              		.cfi_def_cfa_offset 8
 423              		.cfi_offset 3, -8
 424              		.cfi_offset 14, -4
 425              		.loc 6 504 0
 426 0002 FFF7FEFF 		bl	chSysUnlock
 427              		.loc 6 505 0
 428 0006 00BF     		nop
 429 0008 08BD     		pop	{r3, pc}
 430              		.cfi_endproc
 431              	.LFE236:
 432              		.size	osalSysUnlock, .-osalSysUnlock
 433              		.section	.text.osalSysLockFromISR,"ax",%progbits
 434              		.align	1
 435              		.p2align 4,,15
 436              		.syntax unified
 437              		.thumb
 438              		.thumb_func
 439              		.fpu fpv4-sp-d16
 440              		.type	osalSysLockFromISR, %function
 441              	osalSysLockFromISR:
 442              	.LFB237:
 443              		.loc 6 513 0
 444              		.cfi_startproc
 445              		@ args = 0, pretend = 0, frame = 0
 446              		@ frame_needed = 0, uses_anonymous_args = 0
 447 0000 08B5     		push	{r3, lr}
 448              		.cfi_def_cfa_offset 8
 449              		.cfi_offset 3, -8
 450              		.cfi_offset 14, -4
 451              		.loc 6 515 0
 452 0002 FFF7FEFF 		bl	chSysLockFromISR
 453              		.loc 6 516 0
 454 0006 00BF     		nop
 455 0008 08BD     		pop	{r3, pc}
 456              		.cfi_endproc
ARM GAS  /tmp/ccDE0Mq0.s 			page 9


 457              	.LFE237:
 458              		.size	osalSysLockFromISR, .-osalSysLockFromISR
 459              		.section	.text.osalSysUnlockFromISR,"ax",%progbits
 460              		.align	1
 461              		.p2align 4,,15
 462              		.syntax unified
 463              		.thumb
 464              		.thumb_func
 465              		.fpu fpv4-sp-d16
 466              		.type	osalSysUnlockFromISR, %function
 467              	osalSysUnlockFromISR:
 468              	.LFB238:
 469              		.loc 6 524 0
 470              		.cfi_startproc
 471              		@ args = 0, pretend = 0, frame = 0
 472              		@ frame_needed = 0, uses_anonymous_args = 0
 473 0000 08B5     		push	{r3, lr}
 474              		.cfi_def_cfa_offset 8
 475              		.cfi_offset 3, -8
 476              		.cfi_offset 14, -4
 477              		.loc 6 526 0
 478 0002 FFF7FEFF 		bl	chSysUnlockFromISR
 479              		.loc 6 527 0
 480 0006 00BF     		nop
 481 0008 08BD     		pop	{r3, pc}
 482              		.cfi_endproc
 483              	.LFE238:
 484              		.size	osalSysUnlockFromISR, .-osalSysUnlockFromISR
 485              		.section	.text.osalSysPolledDelayX,"ax",%progbits
 486              		.align	1
 487              		.p2align 4,,15
 488              		.syntax unified
 489              		.thumb
 490              		.thumb_func
 491              		.fpu fpv4-sp-d16
 492              		.type	osalSysPolledDelayX, %function
 493              	osalSysPolledDelayX:
 494              	.LFB241:
 495              		.loc 6 571 0
 496              		.cfi_startproc
 497              		@ args = 0, pretend = 0, frame = 8
 498              		@ frame_needed = 0, uses_anonymous_args = 0
 499 0000 00B5     		push	{lr}
 500              		.cfi_def_cfa_offset 4
 501              		.cfi_offset 14, -4
 502 0002 83B0     		sub	sp, sp, #12
 503              		.cfi_def_cfa_offset 16
 504 0004 0190     		str	r0, [sp, #4]
 505              		.loc 6 573 0
 506 0006 0198     		ldr	r0, [sp, #4]
 507 0008 FFF7FEFF 		bl	chSysPolledDelayX
 508              		.loc 6 574 0
 509 000c 00BF     		nop
 510 000e 03B0     		add	sp, sp, #12
 511              		.cfi_def_cfa_offset 4
 512              		@ sp needed
 513 0010 5DF804FB 		ldr	pc, [sp], #4
ARM GAS  /tmp/ccDE0Mq0.s 			page 10


 514              		.cfi_endproc
 515              	.LFE241:
 516              		.size	osalSysPolledDelayX, .-osalSysPolledDelayX
 517              		.section	.text.osalThreadSuspendS,"ax",%progbits
 518              		.align	1
 519              		.p2align 4,,15
 520              		.syntax unified
 521              		.thumb
 522              		.thumb_func
 523              		.fpu fpv4-sp-d16
 524              		.type	osalThreadSuspendS, %function
 525              	osalThreadSuspendS:
 526              	.LFB248:
 527              		.loc 6 686 0
 528              		.cfi_startproc
 529              		@ args = 0, pretend = 0, frame = 8
 530              		@ frame_needed = 0, uses_anonymous_args = 0
 531 0000 00B5     		push	{lr}
 532              		.cfi_def_cfa_offset 4
 533              		.cfi_offset 14, -4
 534 0002 83B0     		sub	sp, sp, #12
 535              		.cfi_def_cfa_offset 16
 536 0004 0190     		str	r0, [sp, #4]
 537              		.loc 6 688 0
 538 0006 0198     		ldr	r0, [sp, #4]
 539 0008 FFF7FEFF 		bl	chThdSuspendS
 540 000c 0346     		mov	r3, r0
 541              		.loc 6 689 0
 542 000e 1846     		mov	r0, r3
 543 0010 03B0     		add	sp, sp, #12
 544              		.cfi_def_cfa_offset 4
 545              		@ sp needed
 546 0012 5DF804FB 		ldr	pc, [sp], #4
 547              		.cfi_endproc
 548              	.LFE248:
 549              		.size	osalThreadSuspendS, .-osalThreadSuspendS
 550 0016 00BF     		.section	.text.osalThreadResumeI,"ax",%progbits
 551              		.align	1
 552              		.p2align 4,,15
 553              		.syntax unified
 554              		.thumb
 555              		.thumb_func
 556              		.fpu fpv4-sp-d16
 557              		.type	osalThreadResumeI, %function
 558              	osalThreadResumeI:
 559              	.LFB250:
 560              		.loc 6 726 0
 561              		.cfi_startproc
 562              		@ args = 0, pretend = 0, frame = 8
 563              		@ frame_needed = 0, uses_anonymous_args = 0
 564 0000 00B5     		push	{lr}
 565              		.cfi_def_cfa_offset 4
 566              		.cfi_offset 14, -4
 567 0002 83B0     		sub	sp, sp, #12
 568              		.cfi_def_cfa_offset 16
 569 0004 0190     		str	r0, [sp, #4]
 570 0006 0091     		str	r1, [sp]
ARM GAS  /tmp/ccDE0Mq0.s 			page 11


 571              		.loc 6 728 0
 572 0008 0099     		ldr	r1, [sp]
 573 000a 0198     		ldr	r0, [sp, #4]
 574 000c FFF7FEFF 		bl	chThdResumeI
 575              		.loc 6 729 0
 576 0010 00BF     		nop
 577 0012 03B0     		add	sp, sp, #12
 578              		.cfi_def_cfa_offset 4
 579              		@ sp needed
 580 0014 5DF804FB 		ldr	pc, [sp], #4
 581              		.cfi_endproc
 582              	.LFE250:
 583              		.size	osalThreadResumeI, .-osalThreadResumeI
 584              		.global	USBD2
 585              		.section	.bss.USBD2,"aw",%nobits
 586              		.align	3
 587              		.type	USBD2, %object
 588              		.size	USBD2, 632
 589              	USBD2:
 590 0000 00000000 		.space	632
 590      00000000 
 590      00000000 
 590      00000000 
 590      00000000 
 591              		.section	.bss.ep0_state,"aw",%nobits
 592              		.align	2
 593              		.type	ep0_state, %object
 594              		.size	ep0_state, 20
 595              	ep0_state:
 596 0000 00000000 		.space	20
 596      00000000 
 596      00000000 
 596      00000000 
 596      00000000 
 597              		.section	.bss.ep0setup_buffer,"aw",%nobits
 598              		.align	2
 599              		.type	ep0setup_buffer, %object
 600              		.size	ep0setup_buffer, 8
 601              	ep0setup_buffer:
 602 0000 00000000 		.space	8
 602      00000000 
 603              		.section	.rodata.ep0config,"a",%progbits
 604              		.align	2
 605              		.type	ep0config, %object
 606              		.size	ep0config, 36
 607              	ep0config:
 608 0000 00000000 		.word	0
 609 0004 00000000 		.word	_usb_ep0setup
 610 0008 00000000 		.word	_usb_ep0in
 611 000c 00000000 		.word	_usb_ep0out
 612 0010 4000     		.short	64
 613 0012 4000     		.short	64
 614 0014 00000000 		.word	ep0_state
 615 0018 00000000 		.word	ep0_state
 616 001c 0100     		.short	1
 617 001e 0000     		.space	2
 618 0020 00000000 		.word	ep0setup_buffer
ARM GAS  /tmp/ccDE0Mq0.s 			page 12


 619              		.section	.rodata.hsparams,"a",%progbits
 620              		.align	2
 621              		.type	hsparams, %object
 622              		.size	hsparams, 12
 623              	hsparams:
 624 0000 00010000 		.word	256
 625 0004 00040000 		.word	1024
 626 0008 05000000 		.word	5
 627              		.section	.text.otg_core_reset,"ax",%progbits
 628              		.align	1
 629              		.p2align 4,,15
 630              		.syntax unified
 631              		.thumb
 632              		.thumb_func
 633              		.fpu fpv4-sp-d16
 634              		.type	otg_core_reset, %function
 635              	otg_core_reset:
 636              	.LFB268:
 637              		.file 7 "../ChibiOS/os/hal/ports/STM32/LLD/OTGv1/usb_lld.c"
 638              		.loc 7 134 0
 639              		.cfi_startproc
 640              		@ args = 0, pretend = 0, frame = 16
 641              		@ frame_needed = 0, uses_anonymous_args = 0
 642 0000 00B5     		push	{lr}
 643              		.cfi_def_cfa_offset 4
 644              		.cfi_offset 14, -4
 645 0002 85B0     		sub	sp, sp, #20
 646              		.cfi_def_cfa_offset 24
 647 0004 0190     		str	r0, [sp, #4]
 648              		.loc 7 135 0
 649 0006 019B     		ldr	r3, [sp, #4]
 650 0008 DB6E     		ldr	r3, [r3, #108]
 651 000a 0393     		str	r3, [sp, #12]
 652              		.loc 7 137 0
 653 000c 2020     		movs	r0, #32
 654 000e FFF7FEFF 		bl	osalSysPolledDelayX
 655              		.loc 7 140 0
 656 0012 039B     		ldr	r3, [sp, #12]
 657 0014 0122     		movs	r2, #1
 658 0016 1A61     		str	r2, [r3, #16]
 659              		.loc 7 141 0
 660 0018 00BF     		nop
 661              	.L29:
 662              		.loc 7 141 0 is_stmt 0 discriminator 1
 663 001a 039B     		ldr	r3, [sp, #12]
 664 001c 1B69     		ldr	r3, [r3, #16]
 665 001e 03F00103 		and	r3, r3, #1
 666 0022 002B     		cmp	r3, #0
 667 0024 F9D1     		bne	.L29
 668              		.loc 7 144 0 is_stmt 1
 669 0026 1220     		movs	r0, #18
 670 0028 FFF7FEFF 		bl	osalSysPolledDelayX
 671              		.loc 7 147 0
 672 002c 00BF     		nop
 673              	.L30:
 674              		.loc 7 147 0 is_stmt 0 discriminator 1
 675 002e 039B     		ldr	r3, [sp, #12]
ARM GAS  /tmp/ccDE0Mq0.s 			page 13


 676 0030 1B69     		ldr	r3, [r3, #16]
 677 0032 002B     		cmp	r3, #0
 678 0034 FBDA     		bge	.L30
 679              		.loc 7 149 0 is_stmt 1
 680 0036 00BF     		nop
 681 0038 05B0     		add	sp, sp, #20
 682              		.cfi_def_cfa_offset 4
 683              		@ sp needed
 684 003a 5DF804FB 		ldr	pc, [sp], #4
 685              		.cfi_endproc
 686              	.LFE268:
 687              		.size	otg_core_reset, .-otg_core_reset
 688 003e 00BF     		.section	.text.otg_disable_ep,"ax",%progbits
 689              		.align	1
 690              		.p2align 4,,15
 691              		.syntax unified
 692              		.thumb
 693              		.thumb_func
 694              		.fpu fpv4-sp-d16
 695              		.type	otg_disable_ep, %function
 696              	otg_disable_ep:
 697              	.LFB269:
 698              		.loc 7 151 0
 699              		.cfi_startproc
 700              		@ args = 0, pretend = 0, frame = 16
 701              		@ frame_needed = 0, uses_anonymous_args = 0
 702              		@ link register save eliminated.
 703 0000 84B0     		sub	sp, sp, #16
 704              		.cfi_def_cfa_offset 16
 705 0002 0190     		str	r0, [sp, #4]
 706              		.loc 7 152 0
 707 0004 019B     		ldr	r3, [sp, #4]
 708 0006 DB6E     		ldr	r3, [r3, #108]
 709 0008 0293     		str	r3, [sp, #8]
 710              		.loc 7 155 0
 711 000a 0023     		movs	r3, #0
 712 000c 0393     		str	r3, [sp, #12]
 713 000e 32E0     		b	.L32
 714              	.L33:
 715              		.loc 7 156 0 discriminator 3
 716 0010 029A     		ldr	r2, [sp, #8]
 717 0012 039B     		ldr	r3, [sp, #12]
 718 0014 4833     		adds	r3, r3, #72
 719 0016 5B01     		lsls	r3, r3, #5
 720 0018 1344     		add	r3, r3, r2
 721 001a 0022     		movs	r2, #0
 722 001c 1A60     		str	r2, [r3]
 723              		.loc 7 157 0 discriminator 3
 724 001e 029A     		ldr	r2, [sp, #8]
 725 0020 039B     		ldr	r3, [sp, #12]
 726 0022 5B01     		lsls	r3, r3, #5
 727 0024 1344     		add	r3, r3, r2
 728 0026 03F51163 		add	r3, r3, #2320
 729 002a 0022     		movs	r2, #0
 730 002c 1A60     		str	r2, [r3]
 731              		.loc 7 158 0 discriminator 3
 732 002e 029A     		ldr	r2, [sp, #8]
ARM GAS  /tmp/ccDE0Mq0.s 			page 14


 733 0030 039B     		ldr	r3, [sp, #12]
 734 0032 5B01     		lsls	r3, r3, #5
 735 0034 1344     		add	r3, r3, r2
 736 0036 03F60813 		addw	r3, r3, #2312
 737 003a 4FF0FF32 		mov	r2, #-1
 738 003e 1A60     		str	r2, [r3]
 739              		.loc 7 160 0 discriminator 3
 740 0040 029A     		ldr	r2, [sp, #8]
 741 0042 039B     		ldr	r3, [sp, #12]
 742 0044 5833     		adds	r3, r3, #88
 743 0046 5B01     		lsls	r3, r3, #5
 744 0048 1344     		add	r3, r3, r2
 745 004a 0022     		movs	r2, #0
 746 004c 1A60     		str	r2, [r3]
 747              		.loc 7 161 0 discriminator 3
 748 004e 029A     		ldr	r2, [sp, #8]
 749 0050 039B     		ldr	r3, [sp, #12]
 750 0052 5B01     		lsls	r3, r3, #5
 751 0054 1344     		add	r3, r3, r2
 752 0056 03F53163 		add	r3, r3, #2832
 753 005a 0022     		movs	r2, #0
 754 005c 1A60     		str	r2, [r3]
 755              		.loc 7 162 0 discriminator 3
 756 005e 029A     		ldr	r2, [sp, #8]
 757 0060 039B     		ldr	r3, [sp, #12]
 758 0062 5B01     		lsls	r3, r3, #5
 759 0064 1344     		add	r3, r3, r2
 760 0066 03F60833 		addw	r3, r3, #2824
 761 006a 4FF0FF32 		mov	r2, #-1
 762 006e 1A60     		str	r2, [r3]
 763              		.loc 7 155 0 discriminator 3
 764 0070 039B     		ldr	r3, [sp, #12]
 765 0072 0133     		adds	r3, r3, #1
 766 0074 0393     		str	r3, [sp, #12]
 767              	.L32:
 768              		.loc 7 155 0 is_stmt 0 discriminator 1
 769 0076 019B     		ldr	r3, [sp, #4]
 770 0078 1B6F     		ldr	r3, [r3, #112]
 771 007a 9A68     		ldr	r2, [r3, #8]
 772 007c 039B     		ldr	r3, [sp, #12]
 773 007e 9A42     		cmp	r2, r3
 774 0080 C6D2     		bcs	.L33
 775              		.loc 7 164 0 is_stmt 1
 776 0082 029B     		ldr	r3, [sp, #8]
 777 0084 4FF00112 		mov	r2, #65537
 778 0088 C3F81C28 		str	r2, [r3, #2076]
 779              		.loc 7 165 0
 780 008c 00BF     		nop
 781 008e 04B0     		add	sp, sp, #16
 782              		.cfi_def_cfa_offset 0
 783              		@ sp needed
 784 0090 7047     		bx	lr
 785              		.cfi_endproc
 786              	.LFE269:
 787              		.size	otg_disable_ep, .-otg_disable_ep
 788 0092 00BF     		.section	.text.otg_rxfifo_flush,"ax",%progbits
 789              		.align	1
ARM GAS  /tmp/ccDE0Mq0.s 			page 15


 790              		.p2align 4,,15
 791              		.syntax unified
 792              		.thumb
 793              		.thumb_func
 794              		.fpu fpv4-sp-d16
 795              		.type	otg_rxfifo_flush, %function
 796              	otg_rxfifo_flush:
 797              	.LFB270:
 798              		.loc 7 167 0
 799              		.cfi_startproc
 800              		@ args = 0, pretend = 0, frame = 16
 801              		@ frame_needed = 0, uses_anonymous_args = 0
 802 0000 00B5     		push	{lr}
 803              		.cfi_def_cfa_offset 4
 804              		.cfi_offset 14, -4
 805 0002 85B0     		sub	sp, sp, #20
 806              		.cfi_def_cfa_offset 24
 807 0004 0190     		str	r0, [sp, #4]
 808              		.loc 7 168 0
 809 0006 019B     		ldr	r3, [sp, #4]
 810 0008 DB6E     		ldr	r3, [r3, #108]
 811 000a 0393     		str	r3, [sp, #12]
 812              		.loc 7 170 0
 813 000c 039B     		ldr	r3, [sp, #12]
 814 000e 1022     		movs	r2, #16
 815 0010 1A61     		str	r2, [r3, #16]
 816              		.loc 7 171 0
 817 0012 00BF     		nop
 818              	.L35:
 819              		.loc 7 171 0 is_stmt 0 discriminator 1
 820 0014 039B     		ldr	r3, [sp, #12]
 821 0016 1B69     		ldr	r3, [r3, #16]
 822 0018 03F01003 		and	r3, r3, #16
 823 001c 002B     		cmp	r3, #0
 824 001e F9D1     		bne	.L35
 825              		.loc 7 174 0 is_stmt 1
 826 0020 1220     		movs	r0, #18
 827 0022 FFF7FEFF 		bl	osalSysPolledDelayX
 828              		.loc 7 175 0
 829 0026 00BF     		nop
 830 0028 05B0     		add	sp, sp, #20
 831              		.cfi_def_cfa_offset 4
 832              		@ sp needed
 833 002a 5DF804FB 		ldr	pc, [sp], #4
 834              		.cfi_endproc
 835              	.LFE270:
 836              		.size	otg_rxfifo_flush, .-otg_rxfifo_flush
 837 002e 00BF     		.section	.text.otg_txfifo_flush,"ax",%progbits
 838              		.align	1
 839              		.p2align 4,,15
 840              		.syntax unified
 841              		.thumb
 842              		.thumb_func
 843              		.fpu fpv4-sp-d16
 844              		.type	otg_txfifo_flush, %function
 845              	otg_txfifo_flush:
 846              	.LFB271:
ARM GAS  /tmp/ccDE0Mq0.s 			page 16


 847              		.loc 7 177 0
 848              		.cfi_startproc
 849              		@ args = 0, pretend = 0, frame = 16
 850              		@ frame_needed = 0, uses_anonymous_args = 0
 851 0000 00B5     		push	{lr}
 852              		.cfi_def_cfa_offset 4
 853              		.cfi_offset 14, -4
 854 0002 85B0     		sub	sp, sp, #20
 855              		.cfi_def_cfa_offset 24
 856 0004 0190     		str	r0, [sp, #4]
 857 0006 0091     		str	r1, [sp]
 858              		.loc 7 178 0
 859 0008 019B     		ldr	r3, [sp, #4]
 860 000a DB6E     		ldr	r3, [r3, #108]
 861 000c 0393     		str	r3, [sp, #12]
 862              		.loc 7 180 0
 863 000e 009B     		ldr	r3, [sp]
 864 0010 9B01     		lsls	r3, r3, #6
 865 0012 43F02002 		orr	r2, r3, #32
 866 0016 039B     		ldr	r3, [sp, #12]
 867 0018 1A61     		str	r2, [r3, #16]
 868              		.loc 7 181 0
 869 001a 00BF     		nop
 870              	.L37:
 871              		.loc 7 181 0 is_stmt 0 discriminator 1
 872 001c 039B     		ldr	r3, [sp, #12]
 873 001e 1B69     		ldr	r3, [r3, #16]
 874 0020 03F02003 		and	r3, r3, #32
 875 0024 002B     		cmp	r3, #0
 876 0026 F9D1     		bne	.L37
 877              		.loc 7 184 0 is_stmt 1
 878 0028 1220     		movs	r0, #18
 879 002a FFF7FEFF 		bl	osalSysPolledDelayX
 880              		.loc 7 185 0
 881 002e 00BF     		nop
 882 0030 05B0     		add	sp, sp, #20
 883              		.cfi_def_cfa_offset 4
 884              		@ sp needed
 885 0032 5DF804FB 		ldr	pc, [sp], #4
 886              		.cfi_endproc
 887              	.LFE271:
 888              		.size	otg_txfifo_flush, .-otg_txfifo_flush
 889 0036 00BF     		.section	.text.otg_ram_reset,"ax",%progbits
 890              		.align	1
 891              		.p2align 4,,15
 892              		.syntax unified
 893              		.thumb
 894              		.thumb_func
 895              		.fpu fpv4-sp-d16
 896              		.type	otg_ram_reset, %function
 897              	otg_ram_reset:
 898              	.LFB272:
 899              		.loc 7 194 0
 900              		.cfi_startproc
 901              		@ args = 0, pretend = 0, frame = 8
 902              		@ frame_needed = 0, uses_anonymous_args = 0
 903              		@ link register save eliminated.
ARM GAS  /tmp/ccDE0Mq0.s 			page 17


 904 0000 82B0     		sub	sp, sp, #8
 905              		.cfi_def_cfa_offset 8
 906 0002 0190     		str	r0, [sp, #4]
 907              		.loc 7 196 0
 908 0004 019B     		ldr	r3, [sp, #4]
 909 0006 1B6F     		ldr	r3, [r3, #112]
 910 0008 1A68     		ldr	r2, [r3]
 911 000a 019B     		ldr	r3, [sp, #4]
 912 000c 5A67     		str	r2, [r3, #116]
 913              		.loc 7 197 0
 914 000e 00BF     		nop
 915 0010 02B0     		add	sp, sp, #8
 916              		.cfi_def_cfa_offset 0
 917              		@ sp needed
 918 0012 7047     		bx	lr
 919              		.cfi_endproc
 920              	.LFE272:
 921              		.size	otg_ram_reset, .-otg_ram_reset
 922              		.section	.text.otg_ram_alloc,"ax",%progbits
 923              		.align	1
 924              		.p2align 4,,15
 925              		.syntax unified
 926              		.thumb
 927              		.thumb_func
 928              		.fpu fpv4-sp-d16
 929              		.type	otg_ram_alloc, %function
 930              	otg_ram_alloc:
 931              	.LFB273:
 932              		.loc 7 207 0
 933              		.cfi_startproc
 934              		@ args = 0, pretend = 0, frame = 16
 935              		@ frame_needed = 0, uses_anonymous_args = 0
 936 0000 00B5     		push	{lr}
 937              		.cfi_def_cfa_offset 4
 938              		.cfi_offset 14, -4
 939 0002 85B0     		sub	sp, sp, #20
 940              		.cfi_def_cfa_offset 24
 941 0004 0190     		str	r0, [sp, #4]
 942 0006 0091     		str	r1, [sp]
 943              		.loc 7 210 0
 944 0008 019B     		ldr	r3, [sp, #4]
 945 000a 5B6F     		ldr	r3, [r3, #116]
 946 000c 0393     		str	r3, [sp, #12]
 947              		.loc 7 211 0
 948 000e 019B     		ldr	r3, [sp, #4]
 949 0010 5A6F     		ldr	r2, [r3, #116]
 950 0012 009B     		ldr	r3, [sp]
 951 0014 1A44     		add	r2, r2, r3
 952 0016 019B     		ldr	r3, [sp, #4]
 953 0018 5A67     		str	r2, [r3, #116]
 954              		.loc 7 212 0
 955 001a 019B     		ldr	r3, [sp, #4]
 956 001c 5A6F     		ldr	r2, [r3, #116]
 957 001e 019B     		ldr	r3, [sp, #4]
 958 0020 1B6F     		ldr	r3, [r3, #112]
 959 0022 5B68     		ldr	r3, [r3, #4]
 960 0024 9A42     		cmp	r2, r3
ARM GAS  /tmp/ccDE0Mq0.s 			page 18


 961 0026 02D9     		bls	.L40
 962              		.loc 7 212 0 is_stmt 0 discriminator 2
 963 0028 0348     		ldr	r0, .L42
 964 002a FFF7FEFF 		bl	chSysHalt
 965              	.L40:
 966              		.loc 7 214 0 is_stmt 1
 967 002e 039B     		ldr	r3, [sp, #12]
 968              		.loc 7 215 0
 969 0030 1846     		mov	r0, r3
 970 0032 05B0     		add	sp, sp, #20
 971              		.cfi_def_cfa_offset 4
 972              		@ sp needed
 973 0034 5DF804FB 		ldr	pc, [sp], #4
 974              	.L43:
 975              		.align	2
 976              	.L42:
 977 0038 00000000 		.word	__func__.9451
 978              		.cfi_endproc
 979              	.LFE273:
 980              		.size	otg_ram_alloc, .-otg_ram_alloc
 981              		.section	.text.otg_fifo_write_from_buffer,"ax",%progbits
 982              		.align	1
 983              		.p2align 4,,15
 984              		.syntax unified
 985              		.thumb
 986              		.thumb_func
 987              		.fpu fpv4-sp-d16
 988              		.type	otg_fifo_write_from_buffer, %function
 989              	otg_fifo_write_from_buffer:
 990              	.LFB274:
 991              		.loc 7 228 0
 992              		.cfi_startproc
 993              		@ args = 0, pretend = 0, frame = 16
 994              		@ frame_needed = 0, uses_anonymous_args = 0
 995 0000 00B5     		push	{lr}
 996              		.cfi_def_cfa_offset 4
 997              		.cfi_offset 14, -4
 998 0002 85B0     		sub	sp, sp, #20
 999              		.cfi_def_cfa_offset 24
 1000 0004 0390     		str	r0, [sp, #12]
 1001 0006 0291     		str	r1, [sp, #8]
 1002 0008 0192     		str	r2, [sp, #4]
 1003              		.loc 7 230 0
 1004 000a 019B     		ldr	r3, [sp, #4]
 1005 000c 002B     		cmp	r3, #0
 1006 000e 02D1     		bne	.L45
 1007              		.loc 7 230 0 is_stmt 0 discriminator 2
 1008 0010 0A48     		ldr	r0, .L50
 1009 0012 FFF7FEFF 		bl	chSysHalt
 1010              	.L45:
 1011              		.loc 7 233 0 is_stmt 1
 1012 0016 029B     		ldr	r3, [sp, #8]
 1013 0018 1A68     		ldr	r2, [r3]
 1014 001a 039B     		ldr	r3, [sp, #12]
 1015 001c 1A60     		str	r2, [r3]
 1016              		.loc 7 234 0
 1017 001e 019B     		ldr	r3, [sp, #4]
ARM GAS  /tmp/ccDE0Mq0.s 			page 19


 1018 0020 042B     		cmp	r3, #4
 1019 0022 06D9     		bls	.L49
 1020              		.loc 7 237 0
 1021 0024 019B     		ldr	r3, [sp, #4]
 1022 0026 043B     		subs	r3, r3, #4
 1023 0028 0193     		str	r3, [sp, #4]
 1024              		.loc 7 238 0
 1025 002a 029B     		ldr	r3, [sp, #8]
 1026 002c 0433     		adds	r3, r3, #4
 1027 002e 0293     		str	r3, [sp, #8]
 1028              		.loc 7 233 0
 1029 0030 F1E7     		b	.L45
 1030              	.L49:
 1031              		.loc 7 235 0
 1032 0032 00BF     		nop
 1033              		.loc 7 240 0
 1034 0034 00BF     		nop
 1035 0036 05B0     		add	sp, sp, #20
 1036              		.cfi_def_cfa_offset 4
 1037              		@ sp needed
 1038 0038 5DF804FB 		ldr	pc, [sp], #4
 1039              	.L51:
 1040              		.align	2
 1041              	.L50:
 1042 003c 00000000 		.word	__func__.9457
 1043              		.cfi_endproc
 1044              	.LFE274:
 1045              		.size	otg_fifo_write_from_buffer, .-otg_fifo_write_from_buffer
 1046              		.section	.text.otg_fifo_read_to_buffer,"ax",%progbits
 1047              		.align	1
 1048              		.p2align 4,,15
 1049              		.syntax unified
 1050              		.thumb
 1051              		.thumb_func
 1052              		.fpu fpv4-sp-d16
 1053              		.type	otg_fifo_read_to_buffer, %function
 1054              	otg_fifo_read_to_buffer:
 1055              	.LFB275:
 1056              		.loc 7 255 0
 1057              		.cfi_startproc
 1058              		@ args = 0, pretend = 0, frame = 24
 1059              		@ frame_needed = 0, uses_anonymous_args = 0
 1060              		@ link register save eliminated.
 1061 0000 86B0     		sub	sp, sp, #24
 1062              		.cfi_def_cfa_offset 24
 1063 0002 0390     		str	r0, [sp, #12]
 1064 0004 0291     		str	r1, [sp, #8]
 1065 0006 0192     		str	r2, [sp, #4]
 1066 0008 0093     		str	r3, [sp]
 1067              		.loc 7 256 0
 1068 000a 0023     		movs	r3, #0
 1069 000c 0593     		str	r3, [sp, #20]
 1070              		.loc 7 257 0
 1071 000e 0023     		movs	r3, #0
 1072 0010 0493     		str	r3, [sp, #16]
 1073              		.loc 7 259 0
 1074 0012 17E0     		b	.L53
ARM GAS  /tmp/ccDE0Mq0.s 			page 20


 1075              	.L56:
 1076              		.loc 7 260 0
 1077 0014 049B     		ldr	r3, [sp, #16]
 1078 0016 03F00303 		and	r3, r3, #3
 1079 001a 002B     		cmp	r3, #0
 1080 001c 02D1     		bne	.L54
 1081              		.loc 7 261 0
 1082 001e 039B     		ldr	r3, [sp, #12]
 1083 0020 1B68     		ldr	r3, [r3]
 1084 0022 0593     		str	r3, [sp, #20]
 1085              	.L54:
 1086              		.loc 7 263 0
 1087 0024 049A     		ldr	r2, [sp, #16]
 1088 0026 009B     		ldr	r3, [sp]
 1089 0028 9A42     		cmp	r2, r3
 1090 002a 08D2     		bcs	.L55
 1091              		.loc 7 264 0
 1092 002c 029B     		ldr	r3, [sp, #8]
 1093 002e 5A1C     		adds	r2, r3, #1
 1094 0030 0292     		str	r2, [sp, #8]
 1095 0032 059A     		ldr	r2, [sp, #20]
 1096 0034 D2B2     		uxtb	r2, r2
 1097 0036 1A70     		strb	r2, [r3]
 1098              		.loc 7 265 0
 1099 0038 059B     		ldr	r3, [sp, #20]
 1100 003a 1B0A     		lsrs	r3, r3, #8
 1101 003c 0593     		str	r3, [sp, #20]
 1102              	.L55:
 1103              		.loc 7 267 0
 1104 003e 049B     		ldr	r3, [sp, #16]
 1105 0040 0133     		adds	r3, r3, #1
 1106 0042 0493     		str	r3, [sp, #16]
 1107              	.L53:
 1108              		.loc 7 259 0
 1109 0044 049A     		ldr	r2, [sp, #16]
 1110 0046 019B     		ldr	r3, [sp, #4]
 1111 0048 9A42     		cmp	r2, r3
 1112 004a E3D3     		bcc	.L56
 1113              		.loc 7 269 0
 1114 004c 00BF     		nop
 1115 004e 06B0     		add	sp, sp, #24
 1116              		.cfi_def_cfa_offset 0
 1117              		@ sp needed
 1118 0050 7047     		bx	lr
 1119              		.cfi_endproc
 1120              	.LFE275:
 1121              		.size	otg_fifo_read_to_buffer, .-otg_fifo_read_to_buffer
 1122 0052 00BF     		.section	.text.otg_rxfifo_handler,"ax",%progbits
 1123              		.align	1
 1124              		.p2align 4,,15
 1125              		.syntax unified
 1126              		.thumb
 1127              		.thumb_func
 1128              		.fpu fpv4-sp-d16
 1129              		.type	otg_rxfifo_handler, %function
 1130              	otg_rxfifo_handler:
 1131              	.LFB276:
ARM GAS  /tmp/ccDE0Mq0.s 			page 21


 1132              		.loc 7 278 0
 1133              		.cfi_startproc
 1134              		@ args = 0, pretend = 0, frame = 24
 1135              		@ frame_needed = 0, uses_anonymous_args = 0
 1136 0000 10B5     		push	{r4, lr}
 1137              		.cfi_def_cfa_offset 8
 1138              		.cfi_offset 4, -8
 1139              		.cfi_offset 14, -4
 1140 0002 86B0     		sub	sp, sp, #24
 1141              		.cfi_def_cfa_offset 32
 1142 0004 0190     		str	r0, [sp, #4]
 1143              		.loc 7 282 0
 1144 0006 019B     		ldr	r3, [sp, #4]
 1145 0008 DB6E     		ldr	r3, [r3, #108]
 1146 000a 1B6A     		ldr	r3, [r3, #32]
 1147 000c 0593     		str	r3, [sp, #20]
 1148              		.loc 7 285 0
 1149 000e 059B     		ldr	r3, [sp, #20]
 1150 0010 1B09     		lsrs	r3, r3, #4
 1151 0012 C3F30A03 		ubfx	r3, r3, #0, #11
 1152 0016 0493     		str	r3, [sp, #16]
 1153              		.loc 7 286 0
 1154 0018 059B     		ldr	r3, [sp, #20]
 1155 001a 03F00F03 		and	r3, r3, #15
 1156 001e 0393     		str	r3, [sp, #12]
 1157              		.loc 7 288 0
 1158 0020 059B     		ldr	r3, [sp, #20]
 1159 0022 03F4F013 		and	r3, r3, #1966080
 1160 0026 B3F5C02F 		cmp	r3, #393216
 1161 002a 66D0     		beq	.L66
 1162 002c B3F5C02F 		cmp	r3, #393216
 1163 0030 06D8     		bhi	.L60
 1164 0032 B3F5003F 		cmp	r3, #131072
 1165 0036 62D0     		beq	.L67
 1166 0038 B3F5802F 		cmp	r3, #262144
 1167 003c 17D0     		beq	.L62
 1168              		.loc 7 309 0
 1169 003e 61E0     		b	.L65
 1170              	.L60:
 1171              		.loc 7 288 0
 1172 0040 B3F5002F 		cmp	r3, #524288
 1173 0044 5DD0     		beq	.L68
 1174 0046 B3F5402F 		cmp	r3, #786432
 1175 004a 00D0     		beq	.L64
 1176              		.loc 7 309 0
 1177 004c 5AE0     		b	.L65
 1178              	.L64:
 1179              		.loc 7 290 0
 1180 004e 019B     		ldr	r3, [sp, #4]
 1181 0050 DB6E     		ldr	r3, [r3, #108]
 1182 0052 03F58050 		add	r0, r3, #4096
 1183 0056 019A     		ldr	r2, [sp, #4]
 1184 0058 039B     		ldr	r3, [sp, #12]
 1185 005a 0233     		adds	r3, r3, #2
 1186 005c 9B00     		lsls	r3, r3, #2
 1187 005e 1344     		add	r3, r3, r2
 1188 0060 5B68     		ldr	r3, [r3, #4]
ARM GAS  /tmp/ccDE0Mq0.s 			page 22


 1189 0062 196A     		ldr	r1, [r3, #32]
 1190 0064 0823     		movs	r3, #8
 1191 0066 049A     		ldr	r2, [sp, #16]
 1192 0068 FFF7FEFF 		bl	otg_fifo_read_to_buffer
 1193              		.loc 7 292 0
 1194 006c 4AE0     		b	.L65
 1195              	.L62:
 1196              		.loc 7 296 0
 1197 006e 019B     		ldr	r3, [sp, #4]
 1198 0070 DB6E     		ldr	r3, [r3, #108]
 1199 0072 03F58050 		add	r0, r3, #4096
 1200              		.loc 7 297 0
 1201 0076 019A     		ldr	r2, [sp, #4]
 1202 0078 039B     		ldr	r3, [sp, #12]
 1203 007a 0233     		adds	r3, r3, #2
 1204 007c 9B00     		lsls	r3, r3, #2
 1205 007e 1344     		add	r3, r3, r2
 1206 0080 5B68     		ldr	r3, [r3, #4]
 1207 0082 9B69     		ldr	r3, [r3, #24]
 1208              		.loc 7 296 0
 1209 0084 9C68     		ldr	r4, [r3, #8]
 1210              		.loc 7 299 0
 1211 0086 019A     		ldr	r2, [sp, #4]
 1212 0088 039B     		ldr	r3, [sp, #12]
 1213 008a 0233     		adds	r3, r3, #2
 1214 008c 9B00     		lsls	r3, r3, #2
 1215 008e 1344     		add	r3, r3, r2
 1216 0090 5B68     		ldr	r3, [r3, #4]
 1217 0092 9B69     		ldr	r3, [r3, #24]
 1218 0094 1A68     		ldr	r2, [r3]
 1219              		.loc 7 300 0
 1220 0096 0199     		ldr	r1, [sp, #4]
 1221 0098 039B     		ldr	r3, [sp, #12]
 1222 009a 0233     		adds	r3, r3, #2
 1223 009c 9B00     		lsls	r3, r3, #2
 1224 009e 0B44     		add	r3, r3, r1
 1225 00a0 5B68     		ldr	r3, [r3, #4]
 1226 00a2 9B69     		ldr	r3, [r3, #24]
 1227 00a4 5B68     		ldr	r3, [r3, #4]
 1228              		.loc 7 296 0
 1229 00a6 D31A     		subs	r3, r2, r3
 1230 00a8 049A     		ldr	r2, [sp, #16]
 1231 00aa 2146     		mov	r1, r4
 1232 00ac FFF7FEFF 		bl	otg_fifo_read_to_buffer
 1233              		.loc 7 301 0
 1234 00b0 019A     		ldr	r2, [sp, #4]
 1235 00b2 039B     		ldr	r3, [sp, #12]
 1236 00b4 0233     		adds	r3, r3, #2
 1237 00b6 9B00     		lsls	r3, r3, #2
 1238 00b8 1344     		add	r3, r3, r2
 1239 00ba 5B68     		ldr	r3, [r3, #4]
 1240 00bc 9A69     		ldr	r2, [r3, #24]
 1241 00be 0199     		ldr	r1, [sp, #4]
 1242 00c0 039B     		ldr	r3, [sp, #12]
 1243 00c2 0233     		adds	r3, r3, #2
 1244 00c4 9B00     		lsls	r3, r3, #2
 1245 00c6 0B44     		add	r3, r3, r1
ARM GAS  /tmp/ccDE0Mq0.s 			page 23


 1246 00c8 5B68     		ldr	r3, [r3, #4]
 1247 00ca 9B69     		ldr	r3, [r3, #24]
 1248 00cc 9968     		ldr	r1, [r3, #8]
 1249 00ce 049B     		ldr	r3, [sp, #16]
 1250 00d0 0B44     		add	r3, r3, r1
 1251 00d2 9360     		str	r3, [r2, #8]
 1252              		.loc 7 302 0
 1253 00d4 019A     		ldr	r2, [sp, #4]
 1254 00d6 039B     		ldr	r3, [sp, #12]
 1255 00d8 0233     		adds	r3, r3, #2
 1256 00da 9B00     		lsls	r3, r3, #2
 1257 00dc 1344     		add	r3, r3, r2
 1258 00de 5B68     		ldr	r3, [r3, #4]
 1259 00e0 9A69     		ldr	r2, [r3, #24]
 1260 00e2 0199     		ldr	r1, [sp, #4]
 1261 00e4 039B     		ldr	r3, [sp, #12]
 1262 00e6 0233     		adds	r3, r3, #2
 1263 00e8 9B00     		lsls	r3, r3, #2
 1264 00ea 0B44     		add	r3, r3, r1
 1265 00ec 5B68     		ldr	r3, [r3, #4]
 1266 00ee 9B69     		ldr	r3, [r3, #24]
 1267 00f0 5968     		ldr	r1, [r3, #4]
 1268 00f2 049B     		ldr	r3, [sp, #16]
 1269 00f4 0B44     		add	r3, r3, r1
 1270 00f6 5360     		str	r3, [r2, #4]
 1271              		.loc 7 303 0
 1272 00f8 04E0     		b	.L65
 1273              	.L66:
 1274              		.loc 7 305 0
 1275 00fa 00BF     		nop
 1276 00fc 02E0     		b	.L65
 1277              	.L67:
 1278              		.loc 7 307 0
 1279 00fe 00BF     		nop
 1280 0100 00E0     		b	.L65
 1281              	.L68:
 1282              		.loc 7 294 0
 1283 0102 00BF     		nop
 1284              	.L65:
 1285              		.loc 7 311 0
 1286 0104 00BF     		nop
 1287 0106 06B0     		add	sp, sp, #24
 1288              		.cfi_def_cfa_offset 8
 1289              		@ sp needed
 1290 0108 10BD     		pop	{r4, pc}
 1291              		.cfi_endproc
 1292              	.LFE276:
 1293              		.size	otg_rxfifo_handler, .-otg_rxfifo_handler
 1294 010a 00BF     		.section	.text.otg_txfifo_handler,"ax",%progbits
 1295              		.align	1
 1296              		.p2align 4,,15
 1297              		.syntax unified
 1298              		.thumb
 1299              		.thumb_func
 1300              		.fpu fpv4-sp-d16
 1301              		.type	otg_txfifo_handler, %function
 1302              	otg_txfifo_handler:
ARM GAS  /tmp/ccDE0Mq0.s 			page 24


 1303              	.LFB277:
 1304              		.loc 7 321 0
 1305              		.cfi_startproc
 1306              		@ args = 0, pretend = 0, frame = 16
 1307              		@ frame_needed = 0, uses_anonymous_args = 0
 1308 0000 00B5     		push	{lr}
 1309              		.cfi_def_cfa_offset 4
 1310              		.cfi_offset 14, -4
 1311 0002 85B0     		sub	sp, sp, #20
 1312              		.cfi_def_cfa_offset 24
 1313 0004 0190     		str	r0, [sp, #4]
 1314 0006 0B46     		mov	r3, r1
 1315 0008 8DF80330 		strb	r3, [sp, #3]
 1316              	.L74:
 1317              	.LBB10:
 1318              		.loc 7 328 0
 1319 000c 9DF80330 		ldrb	r3, [sp, #3]	@ zero_extendqisi2
 1320 0010 019A     		ldr	r2, [sp, #4]
 1321 0012 0233     		adds	r3, r3, #2
 1322 0014 9B00     		lsls	r3, r3, #2
 1323 0016 1344     		add	r3, r3, r2
 1324 0018 5B68     		ldr	r3, [r3, #4]
 1325 001a 5B69     		ldr	r3, [r3, #20]
 1326 001c 5A68     		ldr	r2, [r3, #4]
 1327 001e 9DF80330 		ldrb	r3, [sp, #3]	@ zero_extendqisi2
 1328 0022 0199     		ldr	r1, [sp, #4]
 1329 0024 0233     		adds	r3, r3, #2
 1330 0026 9B00     		lsls	r3, r3, #2
 1331 0028 0B44     		add	r3, r3, r1
 1332 002a 5B68     		ldr	r3, [r3, #4]
 1333 002c 5B69     		ldr	r3, [r3, #20]
 1334 002e 1B68     		ldr	r3, [r3]
 1335 0030 9A42     		cmp	r2, r3
 1336 0032 01D3     		bcc	.L70
 1337              		.loc 7 329 0
 1338 0034 0123     		movs	r3, #1
 1339 0036 75E0     		b	.L71
 1340              	.L70:
 1341              		.loc 7 332 0
 1342 0038 9DF80330 		ldrb	r3, [sp, #3]	@ zero_extendqisi2
 1343 003c 019A     		ldr	r2, [sp, #4]
 1344 003e 0233     		adds	r3, r3, #2
 1345 0040 9B00     		lsls	r3, r3, #2
 1346 0042 1344     		add	r3, r3, r2
 1347 0044 5B68     		ldr	r3, [r3, #4]
 1348 0046 5B69     		ldr	r3, [r3, #20]
 1349 0048 1A68     		ldr	r2, [r3]
 1350 004a 9DF80330 		ldrb	r3, [sp, #3]	@ zero_extendqisi2
 1351 004e 0199     		ldr	r1, [sp, #4]
 1352 0050 0233     		adds	r3, r3, #2
 1353 0052 9B00     		lsls	r3, r3, #2
 1354 0054 0B44     		add	r3, r3, r1
 1355 0056 5B68     		ldr	r3, [r3, #4]
 1356 0058 5B69     		ldr	r3, [r3, #20]
 1357 005a 5B68     		ldr	r3, [r3, #4]
 1358 005c D31A     		subs	r3, r2, r3
 1359 005e 0393     		str	r3, [sp, #12]
ARM GAS  /tmp/ccDE0Mq0.s 			page 25


 1360              		.loc 7 333 0
 1361 0060 9DF80330 		ldrb	r3, [sp, #3]	@ zero_extendqisi2
 1362 0064 019A     		ldr	r2, [sp, #4]
 1363 0066 0233     		adds	r3, r3, #2
 1364 0068 9B00     		lsls	r3, r3, #2
 1365 006a 1344     		add	r3, r3, r2
 1366 006c 5B68     		ldr	r3, [r3, #4]
 1367 006e 1B8A     		ldrh	r3, [r3, #16]
 1368 0070 1A46     		mov	r2, r3
 1369 0072 039B     		ldr	r3, [sp, #12]
 1370 0074 9A42     		cmp	r2, r3
 1371 0076 08D2     		bcs	.L72
 1372              		.loc 7 334 0
 1373 0078 9DF80330 		ldrb	r3, [sp, #3]	@ zero_extendqisi2
 1374 007c 019A     		ldr	r2, [sp, #4]
 1375 007e 0233     		adds	r3, r3, #2
 1376 0080 9B00     		lsls	r3, r3, #2
 1377 0082 1344     		add	r3, r3, r2
 1378 0084 5B68     		ldr	r3, [r3, #4]
 1379 0086 1B8A     		ldrh	r3, [r3, #16]
 1380 0088 0393     		str	r3, [sp, #12]
 1381              	.L72:
 1382              		.loc 7 338 0
 1383 008a 019B     		ldr	r3, [sp, #4]
 1384 008c DA6E     		ldr	r2, [r3, #108]
 1385 008e 9DF80330 		ldrb	r3, [sp, #3]	@ zero_extendqisi2
 1386 0092 5B01     		lsls	r3, r3, #5
 1387 0094 1344     		add	r3, r3, r2
 1388 0096 03F61813 		addw	r3, r3, #2328
 1389 009a 1B68     		ldr	r3, [r3]
 1390 009c 9BB2     		uxth	r3, r3
 1391 009e 9A00     		lsls	r2, r3, #2
 1392 00a0 039B     		ldr	r3, [sp, #12]
 1393 00a2 9A42     		cmp	r2, r3
 1394 00a4 01D2     		bcs	.L73
 1395              		.loc 7 339 0
 1396 00a6 0023     		movs	r3, #0
 1397 00a8 3CE0     		b	.L71
 1398              	.L73:
 1399              		.loc 7 344 0
 1400 00aa 019B     		ldr	r3, [sp, #4]
 1401 00ac DA6E     		ldr	r2, [r3, #108]
 1402 00ae 9DF80330 		ldrb	r3, [sp, #3]	@ zero_extendqisi2
 1403 00b2 0133     		adds	r3, r3, #1
 1404 00b4 1B03     		lsls	r3, r3, #12
 1405 00b6 D018     		adds	r0, r2, r3
 1406              		.loc 7 345 0
 1407 00b8 9DF80330 		ldrb	r3, [sp, #3]	@ zero_extendqisi2
 1408 00bc 019A     		ldr	r2, [sp, #4]
 1409 00be 0233     		adds	r3, r3, #2
 1410 00c0 9B00     		lsls	r3, r3, #2
 1411 00c2 1344     		add	r3, r3, r2
 1412 00c4 5B68     		ldr	r3, [r3, #4]
 1413 00c6 5B69     		ldr	r3, [r3, #20]
 1414              		.loc 7 344 0
 1415 00c8 9B68     		ldr	r3, [r3, #8]
 1416 00ca 039A     		ldr	r2, [sp, #12]
ARM GAS  /tmp/ccDE0Mq0.s 			page 26


 1417 00cc 1946     		mov	r1, r3
 1418 00ce FFF7FEFF 		bl	otg_fifo_write_from_buffer
 1419              		.loc 7 347 0
 1420 00d2 9DF80330 		ldrb	r3, [sp, #3]	@ zero_extendqisi2
 1421 00d6 019A     		ldr	r2, [sp, #4]
 1422 00d8 0233     		adds	r3, r3, #2
 1423 00da 9B00     		lsls	r3, r3, #2
 1424 00dc 1344     		add	r3, r3, r2
 1425 00de 5B68     		ldr	r3, [r3, #4]
 1426 00e0 5A69     		ldr	r2, [r3, #20]
 1427 00e2 9DF80330 		ldrb	r3, [sp, #3]	@ zero_extendqisi2
 1428 00e6 0199     		ldr	r1, [sp, #4]
 1429 00e8 0233     		adds	r3, r3, #2
 1430 00ea 9B00     		lsls	r3, r3, #2
 1431 00ec 0B44     		add	r3, r3, r1
 1432 00ee 5B68     		ldr	r3, [r3, #4]
 1433 00f0 5B69     		ldr	r3, [r3, #20]
 1434 00f2 9968     		ldr	r1, [r3, #8]
 1435 00f4 039B     		ldr	r3, [sp, #12]
 1436 00f6 0B44     		add	r3, r3, r1
 1437 00f8 9360     		str	r3, [r2, #8]
 1438              		.loc 7 351 0
 1439 00fa 9DF80330 		ldrb	r3, [sp, #3]	@ zero_extendqisi2
 1440 00fe 019A     		ldr	r2, [sp, #4]
 1441 0100 0233     		adds	r3, r3, #2
 1442 0102 9B00     		lsls	r3, r3, #2
 1443 0104 1344     		add	r3, r3, r2
 1444 0106 5B68     		ldr	r3, [r3, #4]
 1445 0108 5A69     		ldr	r2, [r3, #20]
 1446 010a 9DF80330 		ldrb	r3, [sp, #3]	@ zero_extendqisi2
 1447 010e 0199     		ldr	r1, [sp, #4]
 1448 0110 0233     		adds	r3, r3, #2
 1449 0112 9B00     		lsls	r3, r3, #2
 1450 0114 0B44     		add	r3, r3, r1
 1451 0116 5B68     		ldr	r3, [r3, #4]
 1452 0118 5B69     		ldr	r3, [r3, #20]
 1453 011a 5968     		ldr	r1, [r3, #4]
 1454 011c 039B     		ldr	r3, [sp, #12]
 1455 011e 0B44     		add	r3, r3, r1
 1456 0120 5360     		str	r3, [r2, #4]
 1457              	.LBE10:
 1458              		.loc 7 324 0
 1459 0122 73E7     		b	.L74
 1460              	.L71:
 1461              		.loc 7 353 0
 1462 0124 1846     		mov	r0, r3
 1463 0126 05B0     		add	sp, sp, #20
 1464              		.cfi_def_cfa_offset 4
 1465              		@ sp needed
 1466 0128 5DF804FB 		ldr	pc, [sp], #4
 1467              		.cfi_endproc
 1468              	.LFE277:
 1469              		.size	otg_txfifo_handler, .-otg_txfifo_handler
 1470              		.section	.text.otg_epin_handler,"ax",%progbits
 1471              		.align	1
 1472              		.p2align 4,,15
 1473              		.syntax unified
ARM GAS  /tmp/ccDE0Mq0.s 			page 27


 1474              		.thumb
 1475              		.thumb_func
 1476              		.fpu fpv4-sp-d16
 1477              		.type	otg_epin_handler, %function
 1478              	otg_epin_handler:
 1479              	.LFB278:
 1480              		.loc 7 363 0
 1481              		.cfi_startproc
 1482              		@ args = 0, pretend = 0, frame = 24
 1483              		@ frame_needed = 0, uses_anonymous_args = 0
 1484 0000 00B5     		push	{lr}
 1485              		.cfi_def_cfa_offset 4
 1486              		.cfi_offset 14, -4
 1487 0002 87B0     		sub	sp, sp, #28
 1488              		.cfi_def_cfa_offset 32
 1489 0004 0190     		str	r0, [sp, #4]
 1490 0006 0B46     		mov	r3, r1
 1491 0008 8DF80330 		strb	r3, [sp, #3]
 1492              		.loc 7 364 0
 1493 000c 019B     		ldr	r3, [sp, #4]
 1494 000e DB6E     		ldr	r3, [r3, #108]
 1495 0010 0593     		str	r3, [sp, #20]
 1496              		.loc 7 365 0
 1497 0012 9DF80330 		ldrb	r3, [sp, #3]	@ zero_extendqisi2
 1498 0016 059A     		ldr	r2, [sp, #20]
 1499 0018 5B01     		lsls	r3, r3, #5
 1500 001a 1344     		add	r3, r3, r2
 1501 001c 03F60813 		addw	r3, r3, #2312
 1502 0020 1B68     		ldr	r3, [r3]
 1503 0022 0493     		str	r3, [sp, #16]
 1504              		.loc 7 367 0
 1505 0024 9DF80330 		ldrb	r3, [sp, #3]	@ zero_extendqisi2
 1506 0028 059A     		ldr	r2, [sp, #20]
 1507 002a 5B01     		lsls	r3, r3, #5
 1508 002c 1344     		add	r3, r3, r2
 1509 002e 03F60813 		addw	r3, r3, #2312
 1510 0032 049A     		ldr	r2, [sp, #16]
 1511 0034 1A60     		str	r2, [r3]
 1512              		.loc 7 372 0
 1513 0036 049B     		ldr	r3, [sp, #16]
 1514 0038 03F00103 		and	r3, r3, #1
 1515 003c 002B     		cmp	r3, #0
 1516 003e 62D0     		beq	.L76
 1517              		.loc 7 372 0 is_stmt 0 discriminator 1
 1518 0040 059B     		ldr	r3, [sp, #20]
 1519 0042 D3F81038 		ldr	r3, [r3, #2064]
 1520 0046 03F00103 		and	r3, r3, #1
 1521 004a 002B     		cmp	r3, #0
 1522 004c 5BD0     		beq	.L76
 1523              	.LBB11:
 1524              		.loc 7 374 0 is_stmt 1
 1525 004e 9DF80330 		ldrb	r3, [sp, #3]	@ zero_extendqisi2
 1526 0052 019A     		ldr	r2, [sp, #4]
 1527 0054 0233     		adds	r3, r3, #2
 1528 0056 9B00     		lsls	r3, r3, #2
 1529 0058 1344     		add	r3, r3, r2
 1530 005a 5B68     		ldr	r3, [r3, #4]
ARM GAS  /tmp/ccDE0Mq0.s 			page 28


 1531 005c 5B69     		ldr	r3, [r3, #20]
 1532 005e 0393     		str	r3, [sp, #12]
 1533              		.loc 7 376 0
 1534 0060 039B     		ldr	r3, [sp, #12]
 1535 0062 1A68     		ldr	r2, [r3]
 1536 0064 039B     		ldr	r3, [sp, #12]
 1537 0066 1B69     		ldr	r3, [r3, #16]
 1538 0068 9A42     		cmp	r2, r3
 1539 006a 14D2     		bcs	.L77
 1540              		.loc 7 380 0
 1541 006c 039B     		ldr	r3, [sp, #12]
 1542 006e 1A69     		ldr	r2, [r3, #16]
 1543 0070 039B     		ldr	r3, [sp, #12]
 1544 0072 1B68     		ldr	r3, [r3]
 1545 0074 D21A     		subs	r2, r2, r3
 1546 0076 039B     		ldr	r3, [sp, #12]
 1547 0078 1A60     		str	r2, [r3]
 1548              		.loc 7 381 0
 1549 007a 039B     		ldr	r3, [sp, #12]
 1550 007c 0022     		movs	r2, #0
 1551 007e 5A60     		str	r2, [r3, #4]
 1552              		.loc 7 382 0
 1553 0080 FFF7FEFF 		bl	osalSysLockFromISR
 1554              		.loc 7 383 0
 1555 0084 9DF80330 		ldrb	r3, [sp, #3]	@ zero_extendqisi2
 1556 0088 1946     		mov	r1, r3
 1557 008a 0198     		ldr	r0, [sp, #4]
 1558 008c FFF7FEFF 		bl	usb_lld_start_in
 1559              		.loc 7 384 0
 1560 0090 FFF7FEFF 		bl	osalSysUnlockFromISR
 1561 0094 37E0     		b	.L76
 1562              	.L77:
 1563              		.loc 7 388 0
 1564 0096 019B     		ldr	r3, [sp, #4]
 1565 0098 1B89     		ldrh	r3, [r3, #8]
 1566 009a 1AB2     		sxth	r2, r3
 1567 009c 9DF80330 		ldrb	r3, [sp, #3]	@ zero_extendqisi2
 1568 00a0 0121     		movs	r1, #1
 1569 00a2 01FA03F3 		lsl	r3, r1, r3
 1570 00a6 1BB2     		sxth	r3, r3
 1571 00a8 DB43     		mvns	r3, r3
 1572 00aa 1BB2     		sxth	r3, r3
 1573 00ac 1340     		ands	r3, r3, r2
 1574 00ae 1BB2     		sxth	r3, r3
 1575 00b0 9AB2     		uxth	r2, r3
 1576 00b2 019B     		ldr	r3, [sp, #4]
 1577 00b4 1A81     		strh	r2, [r3, #8]	@ movhi
 1578 00b6 9DF80330 		ldrb	r3, [sp, #3]	@ zero_extendqisi2
 1579 00ba 019A     		ldr	r2, [sp, #4]
 1580 00bc 0233     		adds	r3, r3, #2
 1581 00be 9B00     		lsls	r3, r3, #2
 1582 00c0 1344     		add	r3, r3, r2
 1583 00c2 5B68     		ldr	r3, [r3, #4]
 1584 00c4 9B68     		ldr	r3, [r3, #8]
 1585 00c6 002B     		cmp	r3, #0
 1586 00c8 0CD0     		beq	.L78
 1587              		.loc 7 388 0 is_stmt 0 discriminator 1
ARM GAS  /tmp/ccDE0Mq0.s 			page 29


 1588 00ca 9DF80330 		ldrb	r3, [sp, #3]	@ zero_extendqisi2
 1589 00ce 019A     		ldr	r2, [sp, #4]
 1590 00d0 0233     		adds	r3, r3, #2
 1591 00d2 9B00     		lsls	r3, r3, #2
 1592 00d4 1344     		add	r3, r3, r2
 1593 00d6 5B68     		ldr	r3, [r3, #4]
 1594 00d8 9B68     		ldr	r3, [r3, #8]
 1595 00da 9DF80320 		ldrb	r2, [sp, #3]	@ zero_extendqisi2
 1596 00de 1146     		mov	r1, r2
 1597 00e0 0198     		ldr	r0, [sp, #4]
 1598 00e2 9847     		blx	r3
 1599              	.LVL0:
 1600              	.L78:
 1601              		.loc 7 388 0 discriminator 3
 1602 00e4 FFF7FEFF 		bl	osalSysLockFromISR
 1603 00e8 9DF80330 		ldrb	r3, [sp, #3]	@ zero_extendqisi2
 1604 00ec 019A     		ldr	r2, [sp, #4]
 1605 00ee 0233     		adds	r3, r3, #2
 1606 00f0 9B00     		lsls	r3, r3, #2
 1607 00f2 1344     		add	r3, r3, r2
 1608 00f4 5B68     		ldr	r3, [r3, #4]
 1609 00f6 5B69     		ldr	r3, [r3, #20]
 1610 00f8 0C33     		adds	r3, r3, #12
 1611 00fa 0021     		movs	r1, #0
 1612 00fc 1846     		mov	r0, r3
 1613 00fe FFF7FEFF 		bl	osalThreadResumeI
 1614 0102 FFF7FEFF 		bl	osalSysUnlockFromISR
 1615              	.L76:
 1616              	.LBE11:
 1617              		.loc 7 391 0 is_stmt 1
 1618 0106 049B     		ldr	r3, [sp, #16]
 1619 0108 03F08003 		and	r3, r3, #128
 1620 010c 002B     		cmp	r3, #0
 1621 010e 2BD0     		beq	.L80
 1622              		.loc 7 392 0 discriminator 1
 1623 0110 059B     		ldr	r3, [sp, #20]
 1624 0112 D3F83428 		ldr	r2, [r3, #2100]
 1625 0116 9DF80330 		ldrb	r3, [sp, #3]	@ zero_extendqisi2
 1626 011a 0121     		movs	r1, #1
 1627 011c 01FA03F3 		lsl	r3, r1, r3
 1628 0120 1340     		ands	r3, r3, r2
 1629              		.loc 7 391 0 discriminator 1
 1630 0122 002B     		cmp	r3, #0
 1631 0124 20D0     		beq	.L80
 1632              		.loc 7 394 0
 1633 0126 FFF7FEFF 		bl	osalSysLockFromISR
 1634              		.loc 7 395 0
 1635 012a 019B     		ldr	r3, [sp, #4]
 1636 012c 9B6F     		ldr	r3, [r3, #120]
 1637 012e 9DF80320 		ldrb	r2, [sp, #3]	@ zero_extendqisi2
 1638 0132 0121     		movs	r1, #1
 1639 0134 01FA02F2 		lsl	r2, r1, r2
 1640 0138 1A43     		orrs	r2, r2, r3
 1641 013a 019B     		ldr	r3, [sp, #4]
 1642 013c 9A67     		str	r2, [r3, #120]
 1643              		.loc 7 396 0
 1644 013e 059B     		ldr	r3, [sp, #20]
ARM GAS  /tmp/ccDE0Mq0.s 			page 30


 1645 0140 D3F83438 		ldr	r3, [r3, #2100]
 1646 0144 9DF80320 		ldrb	r2, [sp, #3]	@ zero_extendqisi2
 1647 0148 0121     		movs	r1, #1
 1648 014a 01FA02F2 		lsl	r2, r1, r2
 1649 014e D243     		mvns	r2, r2
 1650 0150 1A40     		ands	r2, r2, r3
 1651 0152 059B     		ldr	r3, [sp, #20]
 1652 0154 C3F83428 		str	r2, [r3, #2100]
 1653              		.loc 7 397 0
 1654 0158 019B     		ldr	r3, [sp, #4]
 1655 015a 7C33     		adds	r3, r3, #124
 1656 015c 0021     		movs	r1, #0
 1657 015e 1846     		mov	r0, r3
 1658 0160 FFF7FEFF 		bl	osalThreadResumeI
 1659              		.loc 7 398 0
 1660 0164 FFF7FEFF 		bl	osalSysUnlockFromISR
 1661              	.L80:
 1662              		.loc 7 400 0
 1663 0168 00BF     		nop
 1664 016a 07B0     		add	sp, sp, #28
 1665              		.cfi_def_cfa_offset 4
 1666              		@ sp needed
 1667 016c 5DF804FB 		ldr	pc, [sp], #4
 1668              		.cfi_endproc
 1669              	.LFE278:
 1670              		.size	otg_epin_handler, .-otg_epin_handler
 1671              		.section	.text.otg_epout_handler,"ax",%progbits
 1672              		.align	1
 1673              		.p2align 4,,15
 1674              		.syntax unified
 1675              		.thumb
 1676              		.thumb_func
 1677              		.fpu fpv4-sp-d16
 1678              		.type	otg_epout_handler, %function
 1679              	otg_epout_handler:
 1680              	.LFB279:
 1681              		.loc 7 410 0
 1682              		.cfi_startproc
 1683              		@ args = 0, pretend = 0, frame = 24
 1684              		@ frame_needed = 0, uses_anonymous_args = 0
 1685 0000 00B5     		push	{lr}
 1686              		.cfi_def_cfa_offset 4
 1687              		.cfi_offset 14, -4
 1688 0002 87B0     		sub	sp, sp, #28
 1689              		.cfi_def_cfa_offset 32
 1690 0004 0190     		str	r0, [sp, #4]
 1691 0006 0B46     		mov	r3, r1
 1692 0008 8DF80330 		strb	r3, [sp, #3]
 1693              		.loc 7 411 0
 1694 000c 019B     		ldr	r3, [sp, #4]
 1695 000e DB6E     		ldr	r3, [r3, #108]
 1696 0010 0593     		str	r3, [sp, #20]
 1697              		.loc 7 412 0
 1698 0012 9DF80330 		ldrb	r3, [sp, #3]	@ zero_extendqisi2
 1699 0016 059A     		ldr	r2, [sp, #20]
 1700 0018 5B01     		lsls	r3, r3, #5
 1701 001a 1344     		add	r3, r3, r2
ARM GAS  /tmp/ccDE0Mq0.s 			page 31


 1702 001c 03F60833 		addw	r3, r3, #2824
 1703 0020 1B68     		ldr	r3, [r3]
 1704 0022 0493     		str	r3, [sp, #16]
 1705              		.loc 7 415 0
 1706 0024 9DF80330 		ldrb	r3, [sp, #3]	@ zero_extendqisi2
 1707 0028 059A     		ldr	r2, [sp, #20]
 1708 002a 5B01     		lsls	r3, r3, #5
 1709 002c 1344     		add	r3, r3, r2
 1710 002e 03F60833 		addw	r3, r3, #2824
 1711 0032 049A     		ldr	r2, [sp, #16]
 1712 0034 1A60     		str	r2, [r3]
 1713              		.loc 7 417 0
 1714 0036 049B     		ldr	r3, [sp, #16]
 1715 0038 03F00803 		and	r3, r3, #8
 1716 003c 002B     		cmp	r3, #0
 1717 003e 13D0     		beq	.L82
 1718              		.loc 7 417 0 is_stmt 0 discriminator 1
 1719 0040 059B     		ldr	r3, [sp, #20]
 1720 0042 D3F81438 		ldr	r3, [r3, #2068]
 1721 0046 03F00803 		and	r3, r3, #8
 1722 004a 002B     		cmp	r3, #0
 1723 004c 0CD0     		beq	.L82
 1724              		.loc 7 420 0 is_stmt 1
 1725 004e 9DF80330 		ldrb	r3, [sp, #3]	@ zero_extendqisi2
 1726 0052 019A     		ldr	r2, [sp, #4]
 1727 0054 0233     		adds	r3, r3, #2
 1728 0056 9B00     		lsls	r3, r3, #2
 1729 0058 1344     		add	r3, r3, r2
 1730 005a 5B68     		ldr	r3, [r3, #4]
 1731 005c 5B68     		ldr	r3, [r3, #4]
 1732 005e 9DF80320 		ldrb	r2, [sp, #3]	@ zero_extendqisi2
 1733 0062 1146     		mov	r1, r2
 1734 0064 0198     		ldr	r0, [sp, #4]
 1735 0066 9847     		blx	r3
 1736              	.LVL1:
 1737              	.L82:
 1738              		.loc 7 423 0
 1739 0068 049B     		ldr	r3, [sp, #16]
 1740 006a 03F00103 		and	r3, r3, #1
 1741 006e 002B     		cmp	r3, #0
 1742 0070 00F08180 		beq	.L81
 1743              		.loc 7 423 0 is_stmt 0 discriminator 1
 1744 0074 059B     		ldr	r3, [sp, #20]
 1745 0076 D3F81438 		ldr	r3, [r3, #2068]
 1746 007a 03F00103 		and	r3, r3, #1
 1747 007e 002B     		cmp	r3, #0
 1748 0080 79D0     		beq	.L81
 1749              	.LBB12:
 1750              		.loc 7 427 0 is_stmt 1
 1751 0082 9DF80330 		ldrb	r3, [sp, #3]	@ zero_extendqisi2
 1752 0086 019A     		ldr	r2, [sp, #4]
 1753 0088 0233     		adds	r3, r3, #2
 1754 008a 9B00     		lsls	r3, r3, #2
 1755 008c 1344     		add	r3, r3, r2
 1756 008e 5B68     		ldr	r3, [r3, #4]
 1757 0090 9B69     		ldr	r3, [r3, #24]
 1758 0092 0393     		str	r3, [sp, #12]
ARM GAS  /tmp/ccDE0Mq0.s 			page 32


 1759              		.loc 7 430 0
 1760 0094 9DF80330 		ldrb	r3, [sp, #3]	@ zero_extendqisi2
 1761 0098 002B     		cmp	r3, #0
 1762 009a 2BD1     		bne	.L84
 1763              		.loc 7 444 0
 1764 009c 039B     		ldr	r3, [sp, #12]
 1765 009e 5A68     		ldr	r2, [r3, #4]
 1766 00a0 9DF80330 		ldrb	r3, [sp, #3]	@ zero_extendqisi2
 1767 00a4 0199     		ldr	r1, [sp, #4]
 1768 00a6 0233     		adds	r3, r3, #2
 1769 00a8 9B00     		lsls	r3, r3, #2
 1770 00aa 0B44     		add	r3, r3, r1
 1771 00ac 5B68     		ldr	r3, [r3, #4]
 1772 00ae 5B8A     		ldrh	r3, [r3, #18]
 1773 00b0 B2FBF3F1 		udiv	r1, r2, r3
 1774 00b4 03FB01F3 		mul	r3, r3, r1
 1775 00b8 D31A     		subs	r3, r2, r3
 1776 00ba 002B     		cmp	r3, #0
 1777 00bc 1AD1     		bne	.L84
 1778              		.loc 7 445 0 discriminator 1
 1779 00be 039B     		ldr	r3, [sp, #12]
 1780 00c0 1A68     		ldr	r2, [r3]
 1781 00c2 039B     		ldr	r3, [sp, #12]
 1782 00c4 1B69     		ldr	r3, [r3, #16]
 1783              		.loc 7 444 0 discriminator 1
 1784 00c6 9A42     		cmp	r2, r3
 1785 00c8 14D2     		bcs	.L84
 1786              		.loc 7 446 0
 1787 00ca 039B     		ldr	r3, [sp, #12]
 1788 00cc 1A69     		ldr	r2, [r3, #16]
 1789 00ce 039B     		ldr	r3, [sp, #12]
 1790 00d0 1B68     		ldr	r3, [r3]
 1791 00d2 D21A     		subs	r2, r2, r3
 1792 00d4 039B     		ldr	r3, [sp, #12]
 1793 00d6 1A60     		str	r2, [r3]
 1794              		.loc 7 447 0
 1795 00d8 039B     		ldr	r3, [sp, #12]
 1796 00da 0022     		movs	r2, #0
 1797 00dc 5A60     		str	r2, [r3, #4]
 1798              		.loc 7 448 0
 1799 00de FFF7FEFF 		bl	osalSysLockFromISR
 1800              		.loc 7 449 0
 1801 00e2 9DF80330 		ldrb	r3, [sp, #3]	@ zero_extendqisi2
 1802 00e6 1946     		mov	r1, r3
 1803 00e8 0198     		ldr	r0, [sp, #4]
 1804 00ea FFF7FEFF 		bl	usb_lld_start_out
 1805              		.loc 7 450 0
 1806 00ee FFF7FEFF 		bl	osalSysUnlockFromISR
 1807              		.loc 7 451 0
 1808 00f2 40E0     		b	.L81
 1809              	.L84:
 1810              		.loc 7 456 0
 1811 00f4 019B     		ldr	r3, [sp, #4]
 1812 00f6 5B89     		ldrh	r3, [r3, #10]
 1813 00f8 1AB2     		sxth	r2, r3
 1814 00fa 9DF80330 		ldrb	r3, [sp, #3]	@ zero_extendqisi2
 1815 00fe 0121     		movs	r1, #1
ARM GAS  /tmp/ccDE0Mq0.s 			page 33


 1816 0100 01FA03F3 		lsl	r3, r1, r3
 1817 0104 1BB2     		sxth	r3, r3
 1818 0106 DB43     		mvns	r3, r3
 1819 0108 1BB2     		sxth	r3, r3
 1820 010a 1340     		ands	r3, r3, r2
 1821 010c 1BB2     		sxth	r3, r3
 1822 010e 9AB2     		uxth	r2, r3
 1823 0110 019B     		ldr	r3, [sp, #4]
 1824 0112 5A81     		strh	r2, [r3, #10]	@ movhi
 1825 0114 9DF80330 		ldrb	r3, [sp, #3]	@ zero_extendqisi2
 1826 0118 019A     		ldr	r2, [sp, #4]
 1827 011a 0233     		adds	r3, r3, #2
 1828 011c 9B00     		lsls	r3, r3, #2
 1829 011e 1344     		add	r3, r3, r2
 1830 0120 5B68     		ldr	r3, [r3, #4]
 1831 0122 DB68     		ldr	r3, [r3, #12]
 1832 0124 002B     		cmp	r3, #0
 1833 0126 0CD0     		beq	.L85
 1834              		.loc 7 456 0 is_stmt 0 discriminator 1
 1835 0128 9DF80330 		ldrb	r3, [sp, #3]	@ zero_extendqisi2
 1836 012c 019A     		ldr	r2, [sp, #4]
 1837 012e 0233     		adds	r3, r3, #2
 1838 0130 9B00     		lsls	r3, r3, #2
 1839 0132 1344     		add	r3, r3, r2
 1840 0134 5B68     		ldr	r3, [r3, #4]
 1841 0136 DB68     		ldr	r3, [r3, #12]
 1842 0138 9DF80320 		ldrb	r2, [sp, #3]	@ zero_extendqisi2
 1843 013c 1146     		mov	r1, r2
 1844 013e 0198     		ldr	r0, [sp, #4]
 1845 0140 9847     		blx	r3
 1846              	.LVL2:
 1847              	.L85:
 1848              		.loc 7 456 0 discriminator 3
 1849 0142 FFF7FEFF 		bl	osalSysLockFromISR
 1850 0146 9DF80330 		ldrb	r3, [sp, #3]	@ zero_extendqisi2
 1851 014a 019A     		ldr	r2, [sp, #4]
 1852 014c 0233     		adds	r3, r3, #2
 1853 014e 9B00     		lsls	r3, r3, #2
 1854 0150 1344     		add	r3, r3, r2
 1855 0152 5B68     		ldr	r3, [r3, #4]
 1856 0154 9B69     		ldr	r3, [r3, #24]
 1857 0156 03F10C00 		add	r0, r3, #12
 1858 015a 9DF80330 		ldrb	r3, [sp, #3]	@ zero_extendqisi2
 1859 015e 019A     		ldr	r2, [sp, #4]
 1860 0160 0233     		adds	r3, r3, #2
 1861 0162 9B00     		lsls	r3, r3, #2
 1862 0164 1344     		add	r3, r3, r2
 1863 0166 5B68     		ldr	r3, [r3, #4]
 1864 0168 9B69     		ldr	r3, [r3, #24]
 1865 016a 5B68     		ldr	r3, [r3, #4]
 1866 016c 1946     		mov	r1, r3
 1867 016e FFF7FEFF 		bl	osalThreadResumeI
 1868 0172 FFF7FEFF 		bl	osalSysUnlockFromISR
 1869              	.L81:
 1870              	.LBE12:
 1871              		.loc 7 458 0 is_stmt 1
 1872 0176 07B0     		add	sp, sp, #28
ARM GAS  /tmp/ccDE0Mq0.s 			page 34


 1873              		.cfi_def_cfa_offset 4
 1874              		@ sp needed
 1875 0178 5DF804FB 		ldr	pc, [sp], #4
 1876              		.cfi_endproc
 1877              	.LFE279:
 1878              		.size	otg_epout_handler, .-otg_epout_handler
 1879              		.section	.text.otg_isoc_in_failed_handler,"ax",%progbits
 1880              		.align	1
 1881              		.p2align 4,,15
 1882              		.syntax unified
 1883              		.thumb
 1884              		.thumb_func
 1885              		.fpu fpv4-sp-d16
 1886              		.type	otg_isoc_in_failed_handler, %function
 1887              	otg_isoc_in_failed_handler:
 1888              	.LFB280:
 1889              		.loc 7 467 0
 1890              		.cfi_startproc
 1891              		@ args = 0, pretend = 0, frame = 16
 1892              		@ frame_needed = 0, uses_anonymous_args = 0
 1893 0000 00B5     		push	{lr}
 1894              		.cfi_def_cfa_offset 4
 1895              		.cfi_offset 14, -4
 1896 0002 85B0     		sub	sp, sp, #20
 1897              		.cfi_def_cfa_offset 24
 1898 0004 0190     		str	r0, [sp, #4]
 1899              		.loc 7 469 0
 1900 0006 019B     		ldr	r3, [sp, #4]
 1901 0008 DB6E     		ldr	r3, [r3, #108]
 1902 000a 0293     		str	r3, [sp, #8]
 1903              		.loc 7 471 0
 1904 000c 0023     		movs	r3, #0
 1905 000e 8DF80F30 		strb	r3, [sp, #15]
 1906 0012 93E0     		b	.L87
 1907              	.L91:
 1908              		.loc 7 472 0
 1909 0014 9DF80F30 		ldrb	r3, [sp, #15]	@ zero_extendqisi2
 1910 0018 029A     		ldr	r2, [sp, #8]
 1911 001a 4833     		adds	r3, r3, #72
 1912 001c 5B01     		lsls	r3, r3, #5
 1913 001e 1344     		add	r3, r3, r2
 1914 0020 1B68     		ldr	r3, [r3]
 1915 0022 03F44023 		and	r3, r3, #786432
 1916 0026 B3F5802F 		cmp	r3, #262144
 1917 002a 40F08280 		bne	.L88
 1918              		.loc 7 473 0 discriminator 1
 1919 002e 9DF80F30 		ldrb	r3, [sp, #15]	@ zero_extendqisi2
 1920 0032 029A     		ldr	r2, [sp, #8]
 1921 0034 4833     		adds	r3, r3, #72
 1922 0036 5B01     		lsls	r3, r3, #5
 1923 0038 1344     		add	r3, r3, r2
 1924 003a 1B68     		ldr	r3, [r3]
 1925              		.loc 7 472 0 discriminator 1
 1926 003c 002B     		cmp	r3, #0
 1927 003e 78DA     		bge	.L88
 1928              		.loc 7 476 0
 1929 0040 9DF80F30 		ldrb	r3, [sp, #15]	@ zero_extendqisi2
ARM GAS  /tmp/ccDE0Mq0.s 			page 35


 1930 0044 9DF80F20 		ldrb	r2, [sp, #15]	@ zero_extendqisi2
 1931 0048 0299     		ldr	r1, [sp, #8]
 1932 004a 4832     		adds	r2, r2, #72
 1933 004c 5201     		lsls	r2, r2, #5
 1934 004e 0A44     		add	r2, r2, r1
 1935 0050 1268     		ldr	r2, [r2]
 1936 0052 42F09042 		orr	r2, r2, #1207959552
 1937 0056 0299     		ldr	r1, [sp, #8]
 1938 0058 4833     		adds	r3, r3, #72
 1939 005a 5B01     		lsls	r3, r3, #5
 1940 005c 0B44     		add	r3, r3, r1
 1941 005e 1A60     		str	r2, [r3]
 1942              		.loc 7 477 0
 1943 0060 00BF     		nop
 1944              	.L89:
 1945              		.loc 7 477 0 is_stmt 0 discriminator 1
 1946 0062 9DF80F30 		ldrb	r3, [sp, #15]	@ zero_extendqisi2
 1947 0066 029A     		ldr	r2, [sp, #8]
 1948 0068 4833     		adds	r3, r3, #72
 1949 006a 5B01     		lsls	r3, r3, #5
 1950 006c 1344     		add	r3, r3, r2
 1951 006e 1B68     		ldr	r3, [r3]
 1952 0070 002B     		cmp	r3, #0
 1953 0072 F6DB     		blt	.L89
 1954              		.loc 7 481 0 is_stmt 1
 1955 0074 9DF80F30 		ldrb	r3, [sp, #15]	@ zero_extendqisi2
 1956 0078 1946     		mov	r1, r3
 1957 007a 0198     		ldr	r0, [sp, #4]
 1958 007c FFF7FEFF 		bl	otg_txfifo_flush
 1959              		.loc 7 484 0
 1960 0080 019B     		ldr	r3, [sp, #4]
 1961 0082 1B89     		ldrh	r3, [r3, #8]
 1962 0084 1AB2     		sxth	r2, r3
 1963 0086 9DF80F30 		ldrb	r3, [sp, #15]	@ zero_extendqisi2
 1964 008a 0121     		movs	r1, #1
 1965 008c 01FA03F3 		lsl	r3, r1, r3
 1966 0090 1BB2     		sxth	r3, r3
 1967 0092 DB43     		mvns	r3, r3
 1968 0094 1BB2     		sxth	r3, r3
 1969 0096 1340     		ands	r3, r3, r2
 1970 0098 1BB2     		sxth	r3, r3
 1971 009a 9AB2     		uxth	r2, r3
 1972 009c 019B     		ldr	r3, [sp, #4]
 1973 009e 1A81     		strh	r2, [r3, #8]	@ movhi
 1974 00a0 9DF80F30 		ldrb	r3, [sp, #15]	@ zero_extendqisi2
 1975 00a4 019A     		ldr	r2, [sp, #4]
 1976 00a6 0233     		adds	r3, r3, #2
 1977 00a8 9B00     		lsls	r3, r3, #2
 1978 00aa 1344     		add	r3, r3, r2
 1979 00ac 5B68     		ldr	r3, [r3, #4]
 1980 00ae 9B68     		ldr	r3, [r3, #8]
 1981 00b0 002B     		cmp	r3, #0
 1982 00b2 0CD0     		beq	.L90
 1983              		.loc 7 484 0 is_stmt 0 discriminator 1
 1984 00b4 9DF80F30 		ldrb	r3, [sp, #15]	@ zero_extendqisi2
 1985 00b8 019A     		ldr	r2, [sp, #4]
 1986 00ba 0233     		adds	r3, r3, #2
ARM GAS  /tmp/ccDE0Mq0.s 			page 36


 1987 00bc 9B00     		lsls	r3, r3, #2
 1988 00be 1344     		add	r3, r3, r2
 1989 00c0 5B68     		ldr	r3, [r3, #4]
 1990 00c2 9B68     		ldr	r3, [r3, #8]
 1991 00c4 9DF80F20 		ldrb	r2, [sp, #15]	@ zero_extendqisi2
 1992 00c8 1146     		mov	r1, r2
 1993 00ca 0198     		ldr	r0, [sp, #4]
 1994 00cc 9847     		blx	r3
 1995              	.LVL3:
 1996              	.L90:
 1997              		.loc 7 484 0 discriminator 3
 1998 00ce FFF7FEFF 		bl	osalSysLockFromISR
 1999 00d2 9DF80F30 		ldrb	r3, [sp, #15]	@ zero_extendqisi2
 2000 00d6 019A     		ldr	r2, [sp, #4]
 2001 00d8 0233     		adds	r3, r3, #2
 2002 00da 9B00     		lsls	r3, r3, #2
 2003 00dc 1344     		add	r3, r3, r2
 2004 00de 5B68     		ldr	r3, [r3, #4]
 2005 00e0 5B69     		ldr	r3, [r3, #20]
 2006 00e2 0C33     		adds	r3, r3, #12
 2007 00e4 0021     		movs	r1, #0
 2008 00e6 1846     		mov	r0, r3
 2009 00e8 FFF7FEFF 		bl	osalThreadResumeI
 2010 00ec FFF7FEFF 		bl	osalSysUnlockFromISR
 2011              		.loc 7 487 0 is_stmt 1 discriminator 3
 2012 00f0 FFF7FEFF 		bl	osalSysLockFromISR
 2013              		.loc 7 488 0 discriminator 3
 2014 00f4 029B     		ldr	r3, [sp, #8]
 2015 00f6 D3F83438 		ldr	r3, [r3, #2100]
 2016 00fa 9DF80F20 		ldrb	r2, [sp, #15]	@ zero_extendqisi2
 2017 00fe 0121     		movs	r1, #1
 2018 0100 01FA02F2 		lsl	r2, r1, r2
 2019 0104 D243     		mvns	r2, r2
 2020 0106 1A40     		ands	r2, r2, r3
 2021 0108 029B     		ldr	r3, [sp, #8]
 2022 010a C3F83428 		str	r2, [r3, #2100]
 2023              		.loc 7 489 0 discriminator 3
 2024 010e 019B     		ldr	r3, [sp, #4]
 2025 0110 9B6F     		ldr	r3, [r3, #120]
 2026 0112 9DF80F20 		ldrb	r2, [sp, #15]	@ zero_extendqisi2
 2027 0116 0121     		movs	r1, #1
 2028 0118 01FA02F2 		lsl	r2, r1, r2
 2029 011c 1A43     		orrs	r2, r2, r3
 2030 011e 019B     		ldr	r3, [sp, #4]
 2031 0120 9A67     		str	r2, [r3, #120]
 2032              		.loc 7 490 0 discriminator 3
 2033 0122 019B     		ldr	r3, [sp, #4]
 2034 0124 7C33     		adds	r3, r3, #124
 2035 0126 0021     		movs	r1, #0
 2036 0128 1846     		mov	r0, r3
 2037 012a FFF7FEFF 		bl	osalThreadResumeI
 2038              		.loc 7 491 0 discriminator 3
 2039 012e FFF7FEFF 		bl	osalSysUnlockFromISR
 2040              	.L88:
 2041              		.loc 7 471 0 discriminator 2
 2042 0132 9DF80F30 		ldrb	r3, [sp, #15]	@ zero_extendqisi2
 2043 0136 0133     		adds	r3, r3, #1
ARM GAS  /tmp/ccDE0Mq0.s 			page 37


 2044 0138 8DF80F30 		strb	r3, [sp, #15]
 2045              	.L87:
 2046              		.loc 7 471 0 is_stmt 0 discriminator 1
 2047 013c 9DF80F20 		ldrb	r2, [sp, #15]	@ zero_extendqisi2
 2048 0140 019B     		ldr	r3, [sp, #4]
 2049 0142 1B6F     		ldr	r3, [r3, #112]
 2050 0144 9B68     		ldr	r3, [r3, #8]
 2051 0146 9A42     		cmp	r2, r3
 2052 0148 7FF664AF 		bls	.L91
 2053              		.loc 7 494 0 is_stmt 1
 2054 014c 00BF     		nop
 2055 014e 05B0     		add	sp, sp, #20
 2056              		.cfi_def_cfa_offset 4
 2057              		@ sp needed
 2058 0150 5DF804FB 		ldr	pc, [sp], #4
 2059              		.cfi_endproc
 2060              	.LFE280:
 2061              		.size	otg_isoc_in_failed_handler, .-otg_isoc_in_failed_handler
 2062              		.section	.text.otg_isoc_out_failed_handler,"ax",%progbits
 2063              		.align	1
 2064              		.p2align 4,,15
 2065              		.syntax unified
 2066              		.thumb
 2067              		.thumb_func
 2068              		.fpu fpv4-sp-d16
 2069              		.type	otg_isoc_out_failed_handler, %function
 2070              	otg_isoc_out_failed_handler:
 2071              	.LFB281:
 2072              		.loc 7 503 0
 2073              		.cfi_startproc
 2074              		@ args = 0, pretend = 0, frame = 16
 2075              		@ frame_needed = 0, uses_anonymous_args = 0
 2076 0000 00B5     		push	{lr}
 2077              		.cfi_def_cfa_offset 4
 2078              		.cfi_offset 14, -4
 2079 0002 85B0     		sub	sp, sp, #20
 2080              		.cfi_def_cfa_offset 24
 2081 0004 0190     		str	r0, [sp, #4]
 2082              		.loc 7 505 0
 2083 0006 019B     		ldr	r3, [sp, #4]
 2084 0008 DB6E     		ldr	r3, [r3, #108]
 2085 000a 0293     		str	r3, [sp, #8]
 2086              		.loc 7 507 0
 2087 000c 0023     		movs	r3, #0
 2088 000e 8DF80F30 		strb	r3, [sp, #15]
 2089 0012 5AE0     		b	.L93
 2090              	.L96:
 2091              		.loc 7 508 0
 2092 0014 9DF80F30 		ldrb	r3, [sp, #15]	@ zero_extendqisi2
 2093 0018 029A     		ldr	r2, [sp, #8]
 2094 001a 5833     		adds	r3, r3, #88
 2095 001c 5B01     		lsls	r3, r3, #5
 2096 001e 1344     		add	r3, r3, r2
 2097 0020 1B68     		ldr	r3, [r3]
 2098 0022 03F44023 		and	r3, r3, #786432
 2099 0026 B3F5802F 		cmp	r3, #262144
 2100 002a 49D1     		bne	.L94
ARM GAS  /tmp/ccDE0Mq0.s 			page 38


 2101              		.loc 7 509 0 discriminator 1
 2102 002c 9DF80F30 		ldrb	r3, [sp, #15]	@ zero_extendqisi2
 2103 0030 029A     		ldr	r2, [sp, #8]
 2104 0032 5833     		adds	r3, r3, #88
 2105 0034 5B01     		lsls	r3, r3, #5
 2106 0036 1344     		add	r3, r3, r2
 2107 0038 1B68     		ldr	r3, [r3]
 2108              		.loc 7 508 0 discriminator 1
 2109 003a 002B     		cmp	r3, #0
 2110 003c 40DA     		bge	.L94
 2111              		.loc 7 517 0
 2112 003e 019B     		ldr	r3, [sp, #4]
 2113 0040 5B89     		ldrh	r3, [r3, #10]
 2114 0042 1AB2     		sxth	r2, r3
 2115 0044 9DF80F30 		ldrb	r3, [sp, #15]	@ zero_extendqisi2
 2116 0048 0121     		movs	r1, #1
 2117 004a 01FA03F3 		lsl	r3, r1, r3
 2118 004e 1BB2     		sxth	r3, r3
 2119 0050 DB43     		mvns	r3, r3
 2120 0052 1BB2     		sxth	r3, r3
 2121 0054 1340     		ands	r3, r3, r2
 2122 0056 1BB2     		sxth	r3, r3
 2123 0058 9AB2     		uxth	r2, r3
 2124 005a 019B     		ldr	r3, [sp, #4]
 2125 005c 5A81     		strh	r2, [r3, #10]	@ movhi
 2126 005e 9DF80F30 		ldrb	r3, [sp, #15]	@ zero_extendqisi2
 2127 0062 019A     		ldr	r2, [sp, #4]
 2128 0064 0233     		adds	r3, r3, #2
 2129 0066 9B00     		lsls	r3, r3, #2
 2130 0068 1344     		add	r3, r3, r2
 2131 006a 5B68     		ldr	r3, [r3, #4]
 2132 006c DB68     		ldr	r3, [r3, #12]
 2133 006e 002B     		cmp	r3, #0
 2134 0070 0CD0     		beq	.L95
 2135              		.loc 7 517 0 is_stmt 0 discriminator 1
 2136 0072 9DF80F30 		ldrb	r3, [sp, #15]	@ zero_extendqisi2
 2137 0076 019A     		ldr	r2, [sp, #4]
 2138 0078 0233     		adds	r3, r3, #2
 2139 007a 9B00     		lsls	r3, r3, #2
 2140 007c 1344     		add	r3, r3, r2
 2141 007e 5B68     		ldr	r3, [r3, #4]
 2142 0080 DB68     		ldr	r3, [r3, #12]
 2143 0082 9DF80F20 		ldrb	r2, [sp, #15]	@ zero_extendqisi2
 2144 0086 1146     		mov	r1, r2
 2145 0088 0198     		ldr	r0, [sp, #4]
 2146 008a 9847     		blx	r3
 2147              	.LVL4:
 2148              	.L95:
 2149              		.loc 7 517 0 discriminator 3
 2150 008c FFF7FEFF 		bl	osalSysLockFromISR
 2151 0090 9DF80F30 		ldrb	r3, [sp, #15]	@ zero_extendqisi2
 2152 0094 019A     		ldr	r2, [sp, #4]
 2153 0096 0233     		adds	r3, r3, #2
 2154 0098 9B00     		lsls	r3, r3, #2
 2155 009a 1344     		add	r3, r3, r2
 2156 009c 5B68     		ldr	r3, [r3, #4]
 2157 009e 9B69     		ldr	r3, [r3, #24]
ARM GAS  /tmp/ccDE0Mq0.s 			page 39


 2158 00a0 03F10C00 		add	r0, r3, #12
 2159 00a4 9DF80F30 		ldrb	r3, [sp, #15]	@ zero_extendqisi2
 2160 00a8 019A     		ldr	r2, [sp, #4]
 2161 00aa 0233     		adds	r3, r3, #2
 2162 00ac 9B00     		lsls	r3, r3, #2
 2163 00ae 1344     		add	r3, r3, r2
 2164 00b0 5B68     		ldr	r3, [r3, #4]
 2165 00b2 9B69     		ldr	r3, [r3, #24]
 2166 00b4 5B68     		ldr	r3, [r3, #4]
 2167 00b6 1946     		mov	r1, r3
 2168 00b8 FFF7FEFF 		bl	osalThreadResumeI
 2169 00bc FFF7FEFF 		bl	osalSysUnlockFromISR
 2170              	.L94:
 2171              		.loc 7 507 0 is_stmt 1 discriminator 2
 2172 00c0 9DF80F30 		ldrb	r3, [sp, #15]	@ zero_extendqisi2
 2173 00c4 0133     		adds	r3, r3, #1
 2174 00c6 8DF80F30 		strb	r3, [sp, #15]
 2175              	.L93:
 2176              		.loc 7 507 0 is_stmt 0 discriminator 1
 2177 00ca 9DF80F20 		ldrb	r2, [sp, #15]	@ zero_extendqisi2
 2178 00ce 019B     		ldr	r3, [sp, #4]
 2179 00d0 1B6F     		ldr	r3, [r3, #112]
 2180 00d2 9B68     		ldr	r3, [r3, #8]
 2181 00d4 9A42     		cmp	r2, r3
 2182 00d6 9DD9     		bls	.L96
 2183              		.loc 7 520 0 is_stmt 1
 2184 00d8 00BF     		nop
 2185 00da 05B0     		add	sp, sp, #20
 2186              		.cfi_def_cfa_offset 4
 2187              		@ sp needed
 2188 00dc 5DF804FB 		ldr	pc, [sp], #4
 2189              		.cfi_endproc
 2190              	.LFE281:
 2191              		.size	otg_isoc_out_failed_handler, .-otg_isoc_out_failed_handler
 2192              		.section	.text.usb_lld_serve_interrupt,"ax",%progbits
 2193              		.align	1
 2194              		.p2align 4,,15
 2195              		.syntax unified
 2196              		.thumb
 2197              		.thumb_func
 2198              		.fpu fpv4-sp-d16
 2199              		.type	usb_lld_serve_interrupt, %function
 2200              	usb_lld_serve_interrupt:
 2201              	.LFB282:
 2202              		.loc 7 529 0
 2203              		.cfi_startproc
 2204              		@ args = 0, pretend = 0, frame = 24
 2205              		@ frame_needed = 0, uses_anonymous_args = 0
 2206 0000 00B5     		push	{lr}
 2207              		.cfi_def_cfa_offset 4
 2208              		.cfi_offset 14, -4
 2209 0002 87B0     		sub	sp, sp, #28
 2210              		.cfi_def_cfa_offset 32
 2211 0004 0190     		str	r0, [sp, #4]
 2212              		.loc 7 530 0
 2213 0006 019B     		ldr	r3, [sp, #4]
 2214 0008 DB6E     		ldr	r3, [r3, #108]
ARM GAS  /tmp/ccDE0Mq0.s 			page 40


 2215 000a 0593     		str	r3, [sp, #20]
 2216              		.loc 7 533 0
 2217 000c 059B     		ldr	r3, [sp, #20]
 2218 000e 5B69     		ldr	r3, [r3, #20]
 2219 0010 0493     		str	r3, [sp, #16]
 2220              		.loc 7 534 0
 2221 0012 059B     		ldr	r3, [sp, #20]
 2222 0014 9B69     		ldr	r3, [r3, #24]
 2223 0016 049A     		ldr	r2, [sp, #16]
 2224 0018 1340     		ands	r3, r3, r2
 2225 001a 0493     		str	r3, [sp, #16]
 2226              		.loc 7 535 0
 2227 001c 059B     		ldr	r3, [sp, #20]
 2228 001e 049A     		ldr	r2, [sp, #16]
 2229 0020 5A61     		str	r2, [r3, #20]
 2230              		.loc 7 538 0
 2231 0022 049B     		ldr	r3, [sp, #16]
 2232 0024 03F48053 		and	r3, r3, #4096
 2233 0028 002B     		cmp	r3, #0
 2234 002a 06D0     		beq	.L98
 2235              		.loc 7 541 0
 2236 002c 019B     		ldr	r3, [sp, #4]
 2237 002e 0022     		movs	r2, #0
 2238 0030 9A67     		str	r2, [r3, #120]
 2239              		.loc 7 544 0
 2240 0032 0198     		ldr	r0, [sp, #4]
 2241 0034 FFF7FEFF 		bl	_usb_reset
 2242              		.loc 7 547 0
 2243 0038 F2E0     		b	.L97
 2244              	.L98:
 2245              		.loc 7 551 0
 2246 003a 049B     		ldr	r3, [sp, #16]
 2247 003c 002B     		cmp	r3, #0
 2248 003e 19DA     		bge	.L100
 2249              		.loc 7 554 0
 2250 0040 059B     		ldr	r3, [sp, #20]
 2251 0042 D3F8003E 		ldr	r3, [r3, #3584]
 2252 0046 03F00303 		and	r3, r3, #3
 2253 004a 002B     		cmp	r3, #0
 2254 004c 07D0     		beq	.L101
 2255              		.loc 7 556 0
 2256 004e 059B     		ldr	r3, [sp, #20]
 2257 0050 D3F8003E 		ldr	r3, [r3, #3584]
 2258 0054 23F00302 		bic	r2, r3, #3
 2259 0058 059B     		ldr	r3, [sp, #20]
 2260 005a C3F8002E 		str	r2, [r3, #3584]
 2261              	.L101:
 2262              		.loc 7 560 0
 2263 005e 059B     		ldr	r3, [sp, #20]
 2264 0060 D3F80438 		ldr	r3, [r3, #2052]
 2265 0064 43F00102 		orr	r2, r3, #1
 2266 0068 059B     		ldr	r3, [sp, #20]
 2267 006a C3F80428 		str	r2, [r3, #2052]
 2268              		.loc 7 562 0
 2269 006e 0198     		ldr	r0, [sp, #4]
 2270 0070 FFF7FEFF 		bl	_usb_wakeup
 2271              	.L100:
ARM GAS  /tmp/ccDE0Mq0.s 			page 41


 2272              		.loc 7 566 0
 2273 0074 049B     		ldr	r3, [sp, #16]
 2274 0076 03F40063 		and	r3, r3, #2048
 2275 007a 002B     		cmp	r3, #0
 2276 007c 05D0     		beq	.L102
 2277              		.loc 7 569 0
 2278 007e 019B     		ldr	r3, [sp, #4]
 2279 0080 0022     		movs	r2, #0
 2280 0082 9A67     		str	r2, [r3, #120]
 2281              		.loc 7 572 0
 2282 0084 0198     		ldr	r0, [sp, #4]
 2283 0086 FFF7FEFF 		bl	_usb_suspend
 2284              	.L102:
 2285              		.loc 7 576 0
 2286 008a 049B     		ldr	r3, [sp, #16]
 2287 008c 03F40053 		and	r3, r3, #8192
 2288 0090 002B     		cmp	r3, #0
 2289 0092 17D0     		beq	.L103
 2290              		.loc 7 578 0
 2291 0094 059B     		ldr	r3, [sp, #20]
 2292 0096 D3F80838 		ldr	r3, [r3, #2056]
 2293 009a 03F00603 		and	r3, r3, #6
 2294 009e 002B     		cmp	r3, #0
 2295 00a0 08D1     		bne	.L104
 2296              		.loc 7 579 0
 2297 00a2 059B     		ldr	r3, [sp, #20]
 2298 00a4 DB68     		ldr	r3, [r3, #12]
 2299 00a6 23F47053 		bic	r3, r3, #15360
 2300 00aa 43F41052 		orr	r2, r3, #9216
 2301 00ae 059B     		ldr	r3, [sp, #20]
 2302 00b0 DA60     		str	r2, [r3, #12]
 2303 00b2 07E0     		b	.L103
 2304              	.L104:
 2305              		.loc 7 583 0
 2306 00b4 059B     		ldr	r3, [sp, #20]
 2307 00b6 DB68     		ldr	r3, [r3, #12]
 2308 00b8 23F47053 		bic	r3, r3, #15360
 2309 00bc 43F4A052 		orr	r2, r3, #5120
 2310 00c0 059B     		ldr	r3, [sp, #20]
 2311 00c2 DA60     		str	r2, [r3, #12]
 2312              	.L103:
 2313              		.loc 7 589 0
 2314 00c4 049B     		ldr	r3, [sp, #16]
 2315 00c6 03F00803 		and	r3, r3, #8
 2316 00ca 002B     		cmp	r3, #0
 2317 00cc 09D0     		beq	.L105
 2318              		.loc 7 590 0
 2319 00ce 019B     		ldr	r3, [sp, #4]
 2320 00d0 5B68     		ldr	r3, [r3, #4]
 2321 00d2 DB68     		ldr	r3, [r3, #12]
 2322 00d4 002B     		cmp	r3, #0
 2323 00d6 04D0     		beq	.L105
 2324              		.loc 7 590 0 is_stmt 0 discriminator 1
 2325 00d8 019B     		ldr	r3, [sp, #4]
 2326 00da 5B68     		ldr	r3, [r3, #4]
 2327 00dc DB68     		ldr	r3, [r3, #12]
 2328 00de 0198     		ldr	r0, [sp, #4]
ARM GAS  /tmp/ccDE0Mq0.s 			page 42


 2329 00e0 9847     		blx	r3
 2330              	.LVL5:
 2331              	.L105:
 2332              		.loc 7 594 0 is_stmt 1
 2333 00e2 049B     		ldr	r3, [sp, #16]
 2334 00e4 03F48013 		and	r3, r3, #1048576
 2335 00e8 002B     		cmp	r3, #0
 2336 00ea 02D0     		beq	.L106
 2337              		.loc 7 595 0
 2338 00ec 0198     		ldr	r0, [sp, #4]
 2339 00ee FFF7FEFF 		bl	otg_isoc_in_failed_handler
 2340              	.L106:
 2341              		.loc 7 599 0
 2342 00f2 049B     		ldr	r3, [sp, #16]
 2343 00f4 03F40013 		and	r3, r3, #2097152
 2344 00f8 002B     		cmp	r3, #0
 2345 00fa 02D0     		beq	.L107
 2346              		.loc 7 600 0
 2347 00fc 0198     		ldr	r0, [sp, #4]
 2348 00fe FFF7FEFF 		bl	otg_isoc_out_failed_handler
 2349              	.L107:
 2350              		.loc 7 604 0
 2351 0102 049B     		ldr	r3, [sp, #16]
 2352 0104 03F01003 		and	r3, r3, #16
 2353 0108 002B     		cmp	r3, #0
 2354 010a 0FD0     		beq	.L108
 2355              		.loc 7 607 0
 2356 010c FFF7FEFF 		bl	osalSysLockFromISR
 2357              		.loc 7 608 0
 2358 0110 059B     		ldr	r3, [sp, #20]
 2359 0112 9B69     		ldr	r3, [r3, #24]
 2360 0114 23F01002 		bic	r2, r3, #16
 2361 0118 059B     		ldr	r3, [sp, #20]
 2362 011a 9A61     		str	r2, [r3, #24]
 2363              		.loc 7 609 0
 2364 011c 019B     		ldr	r3, [sp, #4]
 2365 011e 7C33     		adds	r3, r3, #124
 2366 0120 0021     		movs	r1, #0
 2367 0122 1846     		mov	r0, r3
 2368 0124 FFF7FEFF 		bl	osalThreadResumeI
 2369              		.loc 7 610 0
 2370 0128 FFF7FEFF 		bl	osalSysUnlockFromISR
 2371              	.L108:
 2372              		.loc 7 614 0
 2373 012c 059B     		ldr	r3, [sp, #20]
 2374 012e D3F81838 		ldr	r3, [r3, #2072]
 2375 0132 0393     		str	r3, [sp, #12]
 2376              		.loc 7 615 0
 2377 0134 049B     		ldr	r3, [sp, #16]
 2378 0136 03F40023 		and	r3, r3, #524288
 2379 013a 002B     		cmp	r3, #0
 2380 013c 35D0     		beq	.L109
 2381              		.loc 7 616 0
 2382 013e 039B     		ldr	r3, [sp, #12]
 2383 0140 03F48033 		and	r3, r3, #65536
 2384 0144 002B     		cmp	r3, #0
 2385 0146 03D0     		beq	.L110
ARM GAS  /tmp/ccDE0Mq0.s 			page 43


 2386              		.loc 7 617 0
 2387 0148 0021     		movs	r1, #0
 2388 014a 0198     		ldr	r0, [sp, #4]
 2389 014c FFF7FEFF 		bl	otg_epout_handler
 2390              	.L110:
 2391              		.loc 7 618 0
 2392 0150 039B     		ldr	r3, [sp, #12]
 2393 0152 03F40033 		and	r3, r3, #131072
 2394 0156 002B     		cmp	r3, #0
 2395 0158 03D0     		beq	.L111
 2396              		.loc 7 619 0
 2397 015a 0121     		movs	r1, #1
 2398 015c 0198     		ldr	r0, [sp, #4]
 2399 015e FFF7FEFF 		bl	otg_epout_handler
 2400              	.L111:
 2401              		.loc 7 620 0
 2402 0162 039B     		ldr	r3, [sp, #12]
 2403 0164 03F48023 		and	r3, r3, #262144
 2404 0168 002B     		cmp	r3, #0
 2405 016a 03D0     		beq	.L112
 2406              		.loc 7 621 0
 2407 016c 0221     		movs	r1, #2
 2408 016e 0198     		ldr	r0, [sp, #4]
 2409 0170 FFF7FEFF 		bl	otg_epout_handler
 2410              	.L112:
 2411              		.loc 7 622 0
 2412 0174 039B     		ldr	r3, [sp, #12]
 2413 0176 03F40023 		and	r3, r3, #524288
 2414 017a 002B     		cmp	r3, #0
 2415 017c 03D0     		beq	.L113
 2416              		.loc 7 623 0
 2417 017e 0321     		movs	r1, #3
 2418 0180 0198     		ldr	r0, [sp, #4]
 2419 0182 FFF7FEFF 		bl	otg_epout_handler
 2420              	.L113:
 2421              		.loc 7 625 0
 2422 0186 039B     		ldr	r3, [sp, #12]
 2423 0188 03F48013 		and	r3, r3, #1048576
 2424 018c 002B     		cmp	r3, #0
 2425 018e 03D0     		beq	.L114
 2426              		.loc 7 626 0
 2427 0190 0421     		movs	r1, #4
 2428 0192 0198     		ldr	r0, [sp, #4]
 2429 0194 FFF7FEFF 		bl	otg_epout_handler
 2430              	.L114:
 2431              		.loc 7 629 0
 2432 0198 039B     		ldr	r3, [sp, #12]
 2433 019a 03F40013 		and	r3, r3, #2097152
 2434 019e 002B     		cmp	r3, #0
 2435 01a0 03D0     		beq	.L109
 2436              		.loc 7 630 0
 2437 01a2 0521     		movs	r1, #5
 2438 01a4 0198     		ldr	r0, [sp, #4]
 2439 01a6 FFF7FEFF 		bl	otg_epout_handler
 2440              	.L109:
 2441              		.loc 7 645 0
 2442 01aa 049B     		ldr	r3, [sp, #16]
ARM GAS  /tmp/ccDE0Mq0.s 			page 44


 2443 01ac 03F48023 		and	r3, r3, #262144
 2444 01b0 002B     		cmp	r3, #0
 2445 01b2 35D0     		beq	.L97
 2446              		.loc 7 646 0
 2447 01b4 039B     		ldr	r3, [sp, #12]
 2448 01b6 03F00103 		and	r3, r3, #1
 2449 01ba 002B     		cmp	r3, #0
 2450 01bc 03D0     		beq	.L115
 2451              		.loc 7 647 0
 2452 01be 0021     		movs	r1, #0
 2453 01c0 0198     		ldr	r0, [sp, #4]
 2454 01c2 FFF7FEFF 		bl	otg_epin_handler
 2455              	.L115:
 2456              		.loc 7 648 0
 2457 01c6 039B     		ldr	r3, [sp, #12]
 2458 01c8 03F00203 		and	r3, r3, #2
 2459 01cc 002B     		cmp	r3, #0
 2460 01ce 03D0     		beq	.L116
 2461              		.loc 7 649 0
 2462 01d0 0121     		movs	r1, #1
 2463 01d2 0198     		ldr	r0, [sp, #4]
 2464 01d4 FFF7FEFF 		bl	otg_epin_handler
 2465              	.L116:
 2466              		.loc 7 650 0
 2467 01d8 039B     		ldr	r3, [sp, #12]
 2468 01da 03F00403 		and	r3, r3, #4
 2469 01de 002B     		cmp	r3, #0
 2470 01e0 03D0     		beq	.L117
 2471              		.loc 7 651 0
 2472 01e2 0221     		movs	r1, #2
 2473 01e4 0198     		ldr	r0, [sp, #4]
 2474 01e6 FFF7FEFF 		bl	otg_epin_handler
 2475              	.L117:
 2476              		.loc 7 652 0
 2477 01ea 039B     		ldr	r3, [sp, #12]
 2478 01ec 03F00803 		and	r3, r3, #8
 2479 01f0 002B     		cmp	r3, #0
 2480 01f2 03D0     		beq	.L118
 2481              		.loc 7 653 0
 2482 01f4 0321     		movs	r1, #3
 2483 01f6 0198     		ldr	r0, [sp, #4]
 2484 01f8 FFF7FEFF 		bl	otg_epin_handler
 2485              	.L118:
 2486              		.loc 7 655 0
 2487 01fc 039B     		ldr	r3, [sp, #12]
 2488 01fe 03F01003 		and	r3, r3, #16
 2489 0202 002B     		cmp	r3, #0
 2490 0204 03D0     		beq	.L119
 2491              		.loc 7 656 0
 2492 0206 0421     		movs	r1, #4
 2493 0208 0198     		ldr	r0, [sp, #4]
 2494 020a FFF7FEFF 		bl	otg_epin_handler
 2495              	.L119:
 2496              		.loc 7 659 0
 2497 020e 039B     		ldr	r3, [sp, #12]
 2498 0210 03F02003 		and	r3, r3, #32
 2499 0214 002B     		cmp	r3, #0
ARM GAS  /tmp/ccDE0Mq0.s 			page 45


 2500 0216 03D0     		beq	.L97
 2501              		.loc 7 660 0
 2502 0218 0521     		movs	r1, #5
 2503 021a 0198     		ldr	r0, [sp, #4]
 2504 021c FFF7FEFF 		bl	otg_epin_handler
 2505              	.L97:
 2506              		.loc 7 675 0
 2507 0220 07B0     		add	sp, sp, #28
 2508              		.cfi_def_cfa_offset 4
 2509              		@ sp needed
 2510 0222 5DF804FB 		ldr	pc, [sp], #4
 2511              		.cfi_endproc
 2512              	.LFE282:
 2513              		.size	usb_lld_serve_interrupt, .-usb_lld_serve_interrupt
 2514 0226 00BF     		.section	.text.Vector174,"ax",%progbits
 2515              		.align	1
 2516              		.p2align 4,,15
 2517              		.global	Vector174
 2518              		.syntax unified
 2519              		.thumb
 2520              		.thumb_func
 2521              		.fpu fpv4-sp-d16
 2522              		.type	Vector174, %function
 2523              	Vector174:
 2524              	.LFB283:
 2525              		.loc 7 703 0
 2526              		.cfi_startproc
 2527              		@ args = 0, pretend = 0, frame = 0
 2528              		@ frame_needed = 0, uses_anonymous_args = 0
 2529 0000 08B5     		push	{r3, lr}
 2530              		.cfi_def_cfa_offset 8
 2531              		.cfi_offset 3, -8
 2532              		.cfi_offset 14, -4
 2533              		.loc 7 705 0
 2534 0002 FFF7FEFF 		bl	_stats_increase_irq
 2535 0006 FFF7FEFF 		bl	_dbg_check_enter_isr
 2536              		.loc 7 707 0
 2537 000a 0448     		ldr	r0, .L121
 2538 000c FFF7FEFF 		bl	usb_lld_serve_interrupt
 2539              		.loc 7 709 0
 2540 0010 FFF7FEFF 		bl	_dbg_check_leave_isr
 2541 0014 FFF7FEFF 		bl	_port_irq_epilogue
 2542              		.loc 7 710 0
 2543 0018 00BF     		nop
 2544 001a 08BD     		pop	{r3, pc}
 2545              	.L122:
 2546              		.align	2
 2547              	.L121:
 2548 001c 00000000 		.word	USBD2
 2549              		.cfi_endproc
 2550              	.LFE283:
 2551              		.size	Vector174, .-Vector174
 2552              		.section	.text.usb_lld_init,"ax",%progbits
 2553              		.align	1
 2554              		.p2align 4,,15
 2555              		.global	usb_lld_init
 2556              		.syntax unified
ARM GAS  /tmp/ccDE0Mq0.s 			page 46


 2557              		.thumb
 2558              		.thumb_func
 2559              		.fpu fpv4-sp-d16
 2560              		.type	usb_lld_init, %function
 2561              	usb_lld_init:
 2562              	.LFB284:
 2563              		.loc 7 722 0
 2564              		.cfi_startproc
 2565              		@ args = 0, pretend = 0, frame = 8
 2566              		@ frame_needed = 0, uses_anonymous_args = 0
 2567 0000 00B5     		push	{lr}
 2568              		.cfi_def_cfa_offset 4
 2569              		.cfi_offset 14, -4
 2570 0002 83B0     		sub	sp, sp, #12
 2571              		.cfi_def_cfa_offset 16
 2572              		.loc 7 750 0
 2573 0004 1348     		ldr	r0, .L124
 2574 0006 FFF7FEFF 		bl	usbObjectInit
 2575              		.loc 7 751 0
 2576 000a 124B     		ldr	r3, .L124
 2577 000c 0022     		movs	r2, #0
 2578 000e DA67     		str	r2, [r3, #124]
 2579              		.loc 7 752 0
 2580 0010 104B     		ldr	r3, .L124
 2581 0012 114A     		ldr	r2, .L124+4
 2582 0014 DA66     		str	r2, [r3, #108]
 2583              		.loc 7 753 0
 2584 0016 0F4B     		ldr	r3, .L124
 2585 0018 104A     		ldr	r2, .L124+8
 2586 001a 1A67     		str	r2, [r3, #112]
 2587              		.loc 7 756 0
 2588 001c 0D4B     		ldr	r3, .L124
 2589 001e 0022     		movs	r2, #0
 2590 0020 C3F88020 		str	r2, [r3, #128]
 2591              	.LBB13:
 2592              		.loc 7 761 0
 2593 0024 0E4B     		ldr	r3, .L124+12
 2594 0026 0193     		str	r3, [sp, #4]
 2595              		.loc 7 762 0
 2596 0028 019B     		ldr	r3, [sp, #4]
 2597 002a 6033     		adds	r3, r3, #96
 2598 002c FF22     		movs	r2, #255
 2599 002e 1946     		mov	r1, r3
 2600 0030 0198     		ldr	r0, [sp, #4]
 2601 0032 FFF7FEFF 		bl	_thread_memfill
 2602              		.loc 7 765 0
 2603 0036 019B     		ldr	r3, [sp, #4]
 2604 0038 03F16000 		add	r0, r3, #96
 2605 003c 019B     		ldr	r3, [sp, #4]
 2606 003e 03F5F873 		add	r3, r3, #496
 2607 0042 5522     		movs	r2, #85
 2608 0044 1946     		mov	r1, r3
 2609 0046 FFF7FEFF 		bl	_thread_memfill
 2610              	.LBE13:
 2611              		.loc 7 772 0
 2612 004a 00BF     		nop
 2613 004c 03B0     		add	sp, sp, #12
ARM GAS  /tmp/ccDE0Mq0.s 			page 47


 2614              		.cfi_def_cfa_offset 4
 2615              		@ sp needed
 2616 004e 5DF804FB 		ldr	pc, [sp], #4
 2617              	.L125:
 2618 0052 00BF     		.align	2
 2619              	.L124:
 2620 0054 00000000 		.word	USBD2
 2621 0058 00000440 		.word	1074003968
 2622 005c 00000000 		.word	hsparams
 2623 0060 88000000 		.word	USBD2+136
 2624              		.cfi_endproc
 2625              	.LFE284:
 2626              		.size	usb_lld_init, .-usb_lld_init
 2627              		.section	.text.usb_lld_start,"ax",%progbits
 2628              		.align	1
 2629              		.p2align 4,,15
 2630              		.global	usb_lld_start
 2631              		.syntax unified
 2632              		.thumb
 2633              		.thumb_func
 2634              		.fpu fpv4-sp-d16
 2635              		.type	usb_lld_start, %function
 2636              	usb_lld_start:
 2637              	.LFB285:
 2638              		.loc 7 784 0
 2639              		.cfi_startproc
 2640              		@ args = 0, pretend = 0, frame = 16
 2641              		@ frame_needed = 0, uses_anonymous_args = 0
 2642 0000 00B5     		push	{lr}
 2643              		.cfi_def_cfa_offset 4
 2644              		.cfi_offset 14, -4
 2645 0002 87B0     		sub	sp, sp, #28
 2646              		.cfi_def_cfa_offset 32
 2647 0004 0390     		str	r0, [sp, #12]
 2648              		.loc 7 785 0
 2649 0006 039B     		ldr	r3, [sp, #12]
 2650 0008 DB6E     		ldr	r3, [r3, #108]
 2651 000a 0593     		str	r3, [sp, #20]
 2652              		.loc 7 787 0
 2653 000c 039B     		ldr	r3, [sp, #12]
 2654 000e 1B78     		ldrb	r3, [r3]	@ zero_extendqisi2
 2655 0010 012B     		cmp	r3, #1
 2656 0012 7ED1     		bne	.L132
 2657              		.loc 7 811 0
 2658 0014 039B     		ldr	r3, [sp, #12]
 2659 0016 414A     		ldr	r2, .L133
 2660 0018 9342     		cmp	r3, r2
 2661 001a 25D1     		bne	.L128
 2662              		.loc 7 813 0
 2663 001c 404A     		ldr	r2, .L133+4
 2664 001e 404B     		ldr	r3, .L133+4
 2665 0020 1B6B     		ldr	r3, [r3, #48]
 2666 0022 43F00053 		orr	r3, r3, #536870912
 2667 0026 1363     		str	r3, [r2, #48]
 2668              		.loc 7 814 0
 2669 0028 3D4A     		ldr	r2, .L133+4
 2670 002a 3D4B     		ldr	r3, .L133+4
ARM GAS  /tmp/ccDE0Mq0.s 			page 48


 2671 002c 1B69     		ldr	r3, [r3, #16]
 2672 002e 43F00053 		orr	r3, r3, #536870912
 2673 0032 1361     		str	r3, [r2, #16]
 2674 0034 3A4B     		ldr	r3, .L133+4
 2675 0036 0022     		movs	r2, #0
 2676 0038 1A61     		str	r2, [r3, #16]
 2677              		.loc 7 823 0
 2678 003a 394A     		ldr	r2, .L133+4
 2679 003c 384B     		ldr	r3, .L133+4
 2680 003e 1B6B     		ldr	r3, [r3, #48]
 2681 0040 23F08043 		bic	r3, r3, #1073741824
 2682 0044 1363     		str	r3, [r2, #48]
 2683 0046 364A     		ldr	r2, .L133+4
 2684 0048 354B     		ldr	r3, .L133+4
 2685 004a 1B6D     		ldr	r3, [r3, #80]
 2686 004c 23F08043 		bic	r3, r3, #1073741824
 2687 0050 1365     		str	r3, [r2, #80]
 2688              		.loc 7 827 0
 2689 0052 0E21     		movs	r1, #14
 2690 0054 4D20     		movs	r0, #77
 2691 0056 FFF7FEFF 		bl	nvicEnableVector
 2692              		.loc 7 836 0
 2693 005a 059B     		ldr	r3, [sp, #20]
 2694 005c 314A     		ldr	r2, .L133+8
 2695 005e DA60     		str	r2, [r3, #12]
 2696              		.loc 7 850 0
 2697 0060 059B     		ldr	r3, [sp, #20]
 2698 0062 314A     		ldr	r2, .L133+12
 2699 0064 C3F80028 		str	r2, [r3, #2048]
 2700              	.L128:
 2701              		.loc 7 856 0
 2702 0068 039B     		ldr	r3, [sp, #12]
 2703 006a 0022     		movs	r2, #0
 2704 006c 9A67     		str	r2, [r3, #120]
 2705              		.loc 7 859 0
 2706 006e 059B     		ldr	r3, [sp, #20]
 2707 0070 0022     		movs	r2, #0
 2708 0072 C3F8002E 		str	r2, [r3, #3584]
 2709              		.loc 7 862 0
 2710 0076 059B     		ldr	r3, [sp, #20]
 2711 0078 C022     		movs	r2, #192
 2712 007a 1A60     		str	r2, [r3]
 2713              		.loc 7 877 0
 2714 007c 059B     		ldr	r3, [sp, #20]
 2715 007e 4FF45022 		mov	r2, #851968
 2716 0082 9A63     		str	r2, [r3, #56]
 2717              		.loc 7 881 0
 2718 0084 0398     		ldr	r0, [sp, #12]
 2719 0086 FFF7FEFF 		bl	otg_core_reset
 2720              		.loc 7 884 0
 2721 008a 059B     		ldr	r3, [sp, #20]
 2722 008c 0022     		movs	r2, #0
 2723 008e 9A60     		str	r2, [r3, #8]
 2724              		.loc 7 887 0
 2725 0090 0398     		ldr	r0, [sp, #12]
 2726 0092 FFF7FEFF 		bl	otg_disable_ep
 2727              		.loc 7 891 0
ARM GAS  /tmp/ccDE0Mq0.s 			page 49


 2728 0096 059B     		ldr	r3, [sp, #20]
 2729 0098 0022     		movs	r2, #0
 2730 009a C3F81028 		str	r2, [r3, #2064]
 2731              		.loc 7 892 0
 2732 009e 059B     		ldr	r3, [sp, #20]
 2733 00a0 0022     		movs	r2, #0
 2734 00a2 C3F81428 		str	r2, [r3, #2068]
 2735              		.loc 7 893 0
 2736 00a6 059B     		ldr	r3, [sp, #20]
 2737 00a8 0022     		movs	r2, #0
 2738 00aa C3F81C28 		str	r2, [r3, #2076]
 2739              		.loc 7 894 0
 2740 00ae 039B     		ldr	r3, [sp, #12]
 2741 00b0 5B68     		ldr	r3, [r3, #4]
 2742 00b2 DB68     		ldr	r3, [r3, #12]
 2743 00b4 002B     		cmp	r3, #0
 2744 00b6 03D1     		bne	.L129
 2745              		.loc 7 895 0
 2746 00b8 059B     		ldr	r3, [sp, #20]
 2747 00ba 1C4A     		ldr	r2, .L133+16
 2748 00bc 9A61     		str	r2, [r3, #24]
 2749 00be 02E0     		b	.L130
 2750              	.L129:
 2751              		.loc 7 899 0
 2752 00c0 059B     		ldr	r3, [sp, #20]
 2753 00c2 1B4A     		ldr	r2, .L133+20
 2754 00c4 9A61     		str	r2, [r3, #24]
 2755              	.L130:
 2756              		.loc 7 905 0
 2757 00c6 059B     		ldr	r3, [sp, #20]
 2758 00c8 4FF0FF32 		mov	r2, #-1
 2759 00cc 5A61     		str	r2, [r3, #20]
 2760              		.loc 7 909 0
 2761 00ce 039B     		ldr	r3, [sp, #12]
 2762 00d0 D3F88030 		ldr	r3, [r3, #128]
 2763 00d4 002B     		cmp	r3, #0
 2764 00d6 16D1     		bne	.L131
 2765              		.loc 7 910 0
 2766 00d8 039B     		ldr	r3, [sp, #12]
 2767 00da 03F18800 		add	r0, r3, #136
 2768 00de 039B     		ldr	r3, [sp, #12]
 2769 00e0 0093     		str	r3, [sp]
 2770 00e2 144B     		ldr	r3, .L133+24
 2771 00e4 0222     		movs	r2, #2
 2772 00e6 4FF4F871 		mov	r1, #496
 2773 00ea FFF7FEFF 		bl	chThdCreateI
 2774 00ee 0246     		mov	r2, r0
 2775 00f0 039B     		ldr	r3, [sp, #12]
 2776 00f2 C3F88020 		str	r2, [r3, #128]
 2777              		.loc 7 913 0
 2778 00f6 039B     		ldr	r3, [sp, #12]
 2779 00f8 D3F88030 		ldr	r3, [r3, #128]
 2780 00fc 1846     		mov	r0, r3
 2781 00fe FFF7FEFF 		bl	chThdStartI
 2782              		.loc 7 914 0
 2783 0102 FFF7FEFF 		bl	chSchRescheduleS
 2784              	.L131:
ARM GAS  /tmp/ccDE0Mq0.s 			page 50


 2785              		.loc 7 919 0
 2786 0106 059B     		ldr	r3, [sp, #20]
 2787 0108 9B68     		ldr	r3, [r3, #8]
 2788 010a 43F00102 		orr	r2, r3, #1
 2789 010e 059B     		ldr	r3, [sp, #20]
 2790 0110 9A60     		str	r2, [r3, #8]
 2791              	.L132:
 2792              		.loc 7 921 0
 2793 0112 00BF     		nop
 2794 0114 07B0     		add	sp, sp, #28
 2795              		.cfi_def_cfa_offset 4
 2796              		@ sp needed
 2797 0116 5DF804FB 		ldr	pc, [sp], #4
 2798              	.L134:
 2799 011a 00BF     		.align	2
 2800              	.L133:
 2801 011c 00000000 		.word	USBD2
 2802 0120 00380240 		.word	1073887232
 2803 0124 40140040 		.word	1073747008
 2804 0128 03002002 		.word	35651587
 2805 012c 003C30C0 		.word	-1070580736
 2806 0130 083C30C0 		.word	-1070580728
 2807 0134 00000000 		.word	usb_lld_pump
 2808              		.cfi_endproc
 2809              	.LFE285:
 2810              		.size	usb_lld_start, .-usb_lld_start
 2811              		.section	.text.usb_lld_stop,"ax",%progbits
 2812              		.align	1
 2813              		.p2align 4,,15
 2814              		.global	usb_lld_stop
 2815              		.syntax unified
 2816              		.thumb
 2817              		.thumb_func
 2818              		.fpu fpv4-sp-d16
 2819              		.type	usb_lld_stop, %function
 2820              	usb_lld_stop:
 2821              	.LFB286:
 2822              		.loc 7 930 0
 2823              		.cfi_startproc
 2824              		@ args = 0, pretend = 0, frame = 16
 2825              		@ frame_needed = 0, uses_anonymous_args = 0
 2826 0000 00B5     		push	{lr}
 2827              		.cfi_def_cfa_offset 4
 2828              		.cfi_offset 14, -4
 2829 0002 85B0     		sub	sp, sp, #20
 2830              		.cfi_def_cfa_offset 24
 2831 0004 0190     		str	r0, [sp, #4]
 2832              		.loc 7 931 0
 2833 0006 019B     		ldr	r3, [sp, #4]
 2834 0008 DB6E     		ldr	r3, [r3, #108]
 2835 000a 0393     		str	r3, [sp, #12]
 2836              		.loc 7 934 0
 2837 000c 019B     		ldr	r3, [sp, #4]
 2838 000e 1B78     		ldrb	r3, [r3]	@ zero_extendqisi2
 2839 0010 012B     		cmp	r3, #1
 2840 0012 1CD0     		beq	.L137
 2841              		.loc 7 938 0
ARM GAS  /tmp/ccDE0Mq0.s 			page 51


 2842 0014 0198     		ldr	r0, [sp, #4]
 2843 0016 FFF7FEFF 		bl	otg_disable_ep
 2844              		.loc 7 940 0
 2845 001a 019B     		ldr	r3, [sp, #4]
 2846 001c 0022     		movs	r2, #0
 2847 001e 9A67     		str	r2, [r3, #120]
 2848              		.loc 7 942 0
 2849 0020 039B     		ldr	r3, [sp, #12]
 2850 0022 0022     		movs	r2, #0
 2851 0024 C3F81C28 		str	r2, [r3, #2076]
 2852              		.loc 7 943 0
 2853 0028 039B     		ldr	r3, [sp, #12]
 2854 002a 0022     		movs	r2, #0
 2855 002c 9A60     		str	r2, [r3, #8]
 2856              		.loc 7 944 0
 2857 002e 039B     		ldr	r3, [sp, #12]
 2858 0030 0022     		movs	r2, #0
 2859 0032 9A63     		str	r2, [r3, #56]
 2860              		.loc 7 954 0
 2861 0034 019B     		ldr	r3, [sp, #4]
 2862 0036 084A     		ldr	r2, .L138
 2863 0038 9342     		cmp	r3, r2
 2864 003a 08D1     		bne	.L137
 2865              		.loc 7 955 0
 2866 003c 4D20     		movs	r0, #77
 2867 003e FFF7FEFF 		bl	nvicDisableVector
 2868              		.loc 7 956 0
 2869 0042 064A     		ldr	r2, .L138+4
 2870 0044 054B     		ldr	r3, .L138+4
 2871 0046 1B6B     		ldr	r3, [r3, #48]
 2872 0048 23F00053 		bic	r3, r3, #536870912
 2873 004c 1363     		str	r3, [r2, #48]
 2874              	.L137:
 2875              		.loc 7 963 0
 2876 004e 00BF     		nop
 2877 0050 05B0     		add	sp, sp, #20
 2878              		.cfi_def_cfa_offset 4
 2879              		@ sp needed
 2880 0052 5DF804FB 		ldr	pc, [sp], #4
 2881              	.L139:
 2882 0056 00BF     		.align	2
 2883              	.L138:
 2884 0058 00000000 		.word	USBD2
 2885 005c 00380240 		.word	1073887232
 2886              		.cfi_endproc
 2887              	.LFE286:
 2888              		.size	usb_lld_stop, .-usb_lld_stop
 2889              		.section	.text.usb_lld_reset,"ax",%progbits
 2890              		.align	1
 2891              		.p2align 4,,15
 2892              		.global	usb_lld_reset
 2893              		.syntax unified
 2894              		.thumb
 2895              		.thumb_func
 2896              		.fpu fpv4-sp-d16
 2897              		.type	usb_lld_reset, %function
 2898              	usb_lld_reset:
ARM GAS  /tmp/ccDE0Mq0.s 			page 52


 2899              	.LFB287:
 2900              		.loc 7 972 0
 2901              		.cfi_startproc
 2902              		@ args = 0, pretend = 0, frame = 16
 2903              		@ frame_needed = 0, uses_anonymous_args = 0
 2904 0000 10B5     		push	{r4, lr}
 2905              		.cfi_def_cfa_offset 8
 2906              		.cfi_offset 4, -8
 2907              		.cfi_offset 14, -4
 2908 0002 84B0     		sub	sp, sp, #16
 2909              		.cfi_def_cfa_offset 24
 2910 0004 0190     		str	r0, [sp, #4]
 2911              		.loc 7 974 0
 2912 0006 019B     		ldr	r3, [sp, #4]
 2913 0008 DB6E     		ldr	r3, [r3, #108]
 2914 000a 0293     		str	r3, [sp, #8]
 2915              		.loc 7 977 0
 2916 000c 0021     		movs	r1, #0
 2917 000e 0198     		ldr	r0, [sp, #4]
 2918 0010 FFF7FEFF 		bl	otg_txfifo_flush
 2919              		.loc 7 980 0
 2920 0014 029B     		ldr	r3, [sp, #8]
 2921 0016 0022     		movs	r2, #0
 2922 0018 C3F83428 		str	r2, [r3, #2100]
 2923              		.loc 7 981 0
 2924 001c 029B     		ldr	r3, [sp, #8]
 2925 001e 4FF00112 		mov	r2, #65537
 2926 0022 C3F81C28 		str	r2, [r3, #2076]
 2927              		.loc 7 984 0
 2928 0026 0023     		movs	r3, #0
 2929 0028 0393     		str	r3, [sp, #12]
 2930 002a 24E0     		b	.L141
 2931              	.L142:
 2932              		.loc 7 985 0 discriminator 3
 2933 002c 029A     		ldr	r2, [sp, #8]
 2934 002e 039B     		ldr	r3, [sp, #12]
 2935 0030 4833     		adds	r3, r3, #72
 2936 0032 5B01     		lsls	r3, r3, #5
 2937 0034 1344     		add	r3, r3, r2
 2938 0036 4FF00062 		mov	r2, #134217728
 2939 003a 1A60     		str	r2, [r3]
 2940              		.loc 7 986 0 discriminator 3
 2941 003c 029A     		ldr	r2, [sp, #8]
 2942 003e 039B     		ldr	r3, [sp, #12]
 2943 0040 5833     		adds	r3, r3, #88
 2944 0042 5B01     		lsls	r3, r3, #5
 2945 0044 1344     		add	r3, r3, r2
 2946 0046 4FF00062 		mov	r2, #134217728
 2947 004a 1A60     		str	r2, [r3]
 2948              		.loc 7 987 0 discriminator 3
 2949 004c 029A     		ldr	r2, [sp, #8]
 2950 004e 039B     		ldr	r3, [sp, #12]
 2951 0050 5B01     		lsls	r3, r3, #5
 2952 0052 1344     		add	r3, r3, r2
 2953 0054 03F60813 		addw	r3, r3, #2312
 2954 0058 4FF0FF32 		mov	r2, #-1
 2955 005c 1A60     		str	r2, [r3]
ARM GAS  /tmp/ccDE0Mq0.s 			page 53


 2956              		.loc 7 988 0 discriminator 3
 2957 005e 029A     		ldr	r2, [sp, #8]
 2958 0060 039B     		ldr	r3, [sp, #12]
 2959 0062 5B01     		lsls	r3, r3, #5
 2960 0064 1344     		add	r3, r3, r2
 2961 0066 03F60833 		addw	r3, r3, #2824
 2962 006a 4FF0FF32 		mov	r2, #-1
 2963 006e 1A60     		str	r2, [r3]
 2964              		.loc 7 984 0 discriminator 3
 2965 0070 039B     		ldr	r3, [sp, #12]
 2966 0072 0133     		adds	r3, r3, #1
 2967 0074 0393     		str	r3, [sp, #12]
 2968              	.L141:
 2969              		.loc 7 984 0 is_stmt 0 discriminator 1
 2970 0076 019B     		ldr	r3, [sp, #4]
 2971 0078 1B6F     		ldr	r3, [r3, #112]
 2972 007a 9A68     		ldr	r2, [r3, #8]
 2973 007c 039B     		ldr	r3, [sp, #12]
 2974 007e 9A42     		cmp	r2, r3
 2975 0080 D4D2     		bcs	.L142
 2976              		.loc 7 992 0 is_stmt 1
 2977 0082 0198     		ldr	r0, [sp, #4]
 2978 0084 FFF7FEFF 		bl	otg_ram_reset
 2979              		.loc 7 995 0
 2980 0088 019B     		ldr	r3, [sp, #4]
 2981 008a 1B6F     		ldr	r3, [r3, #112]
 2982 008c 1A68     		ldr	r2, [r3]
 2983 008e 029B     		ldr	r3, [sp, #8]
 2984 0090 5A62     		str	r2, [r3, #36]
 2985              		.loc 7 996 0
 2986 0092 0198     		ldr	r0, [sp, #4]
 2987 0094 FFF7FEFF 		bl	otg_rxfifo_flush
 2988              		.loc 7 999 0
 2989 0098 029B     		ldr	r3, [sp, #8]
 2990 009a D3F80038 		ldr	r3, [r3, #2048]
 2991 009e 23F4FE62 		bic	r2, r3, #2032
 2992 00a2 029B     		ldr	r3, [sp, #8]
 2993 00a4 C3F80028 		str	r2, [r3, #2048]
 2994              		.loc 7 1002 0
 2995 00a8 029B     		ldr	r3, [sp, #8]
 2996 00aa 9B69     		ldr	r3, [r3, #24]
 2997 00ac 43F44023 		orr	r3, r3, #786432
 2998 00b0 43F01003 		orr	r3, r3, #16
 2999 00b4 029A     		ldr	r2, [sp, #8]
 3000 00b6 9361     		str	r3, [r2, #24]
 3001              		.loc 7 1003 0
 3002 00b8 029B     		ldr	r3, [sp, #8]
 3003 00ba 0922     		movs	r2, #9
 3004 00bc C3F81028 		str	r2, [r3, #2064]
 3005              		.loc 7 1004 0
 3006 00c0 029B     		ldr	r3, [sp, #8]
 3007 00c2 0922     		movs	r2, #9
 3008 00c4 C3F81428 		str	r2, [r3, #2068]
 3009              		.loc 7 1007 0
 3010 00c8 019B     		ldr	r3, [sp, #4]
 3011 00ca 174A     		ldr	r2, .L143
 3012 00cc DA60     		str	r2, [r3, #12]
ARM GAS  /tmp/ccDE0Mq0.s 			page 54


 3013              		.loc 7 1008 0
 3014 00ce 029B     		ldr	r3, [sp, #8]
 3015 00d0 4FF0C042 		mov	r2, #1610612736
 3016 00d4 C3F8102B 		str	r2, [r3, #2832]
 3017              		.loc 7 1010 0
 3018 00d8 4023     		movs	r3, #64
 3019              		.loc 7 1009 0
 3020 00da 43F08053 		orr	r3, r3, #268435456
 3021 00de 43F40043 		orr	r3, r3, #32768
 3022 00e2 029A     		ldr	r2, [sp, #8]
 3023 00e4 C2F8003B 		str	r3, [r2, #2816]
 3024              		.loc 7 1011 0
 3025 00e8 029B     		ldr	r3, [sp, #8]
 3026 00ea 0022     		movs	r2, #0
 3027 00ec C3F81029 		str	r2, [r3, #2320]
 3028              		.loc 7 1013 0
 3029 00f0 4023     		movs	r3, #64
 3030 00f2 43F08053 		orr	r3, r3, #268435456
 3031 00f6 43F40043 		orr	r3, r3, #32768
 3032              		.loc 7 1012 0
 3033 00fa 029A     		ldr	r2, [sp, #8]
 3034 00fc C2F80039 		str	r3, [r2, #2304]
 3035              		.loc 7 1014 0
 3036 0100 4023     		movs	r3, #64
 3037 0102 9B08     		lsrs	r3, r3, #2
 3038 0104 9BB2     		uxth	r3, r3
 3039 0106 1B04     		lsls	r3, r3, #16
 3040 0108 1C46     		mov	r4, r3
 3041              		.loc 7 1015 0
 3042 010a 4023     		movs	r3, #64
 3043 010c 9B08     		lsrs	r3, r3, #2
 3044 010e 9BB2     		uxth	r3, r3
 3045 0110 1946     		mov	r1, r3
 3046 0112 0198     		ldr	r0, [sp, #4]
 3047 0114 FFF7FEFF 		bl	otg_ram_alloc
 3048 0118 0346     		mov	r3, r0
 3049              		.loc 7 1014 0
 3050 011a 44EA0302 		orr	r2, r4, r3
 3051 011e 029B     		ldr	r3, [sp, #8]
 3052 0120 9A62     		str	r2, [r3, #40]
 3053              		.loc 7 1017 0
 3054 0122 00BF     		nop
 3055 0124 04B0     		add	sp, sp, #16
 3056              		.cfi_def_cfa_offset 8
 3057              		@ sp needed
 3058 0126 10BD     		pop	{r4, pc}
 3059              	.L144:
 3060              		.align	2
 3061              	.L143:
 3062 0128 00000000 		.word	ep0config
 3063              		.cfi_endproc
 3064              	.LFE287:
 3065              		.size	usb_lld_reset, .-usb_lld_reset
 3066              		.section	.text.usb_lld_set_address,"ax",%progbits
 3067              		.align	1
 3068              		.p2align 4,,15
 3069              		.global	usb_lld_set_address
ARM GAS  /tmp/ccDE0Mq0.s 			page 55


 3070              		.syntax unified
 3071              		.thumb
 3072              		.thumb_func
 3073              		.fpu fpv4-sp-d16
 3074              		.type	usb_lld_set_address, %function
 3075              	usb_lld_set_address:
 3076              	.LFB288:
 3077              		.loc 7 1026 0
 3078              		.cfi_startproc
 3079              		@ args = 0, pretend = 0, frame = 16
 3080              		@ frame_needed = 0, uses_anonymous_args = 0
 3081              		@ link register save eliminated.
 3082 0000 84B0     		sub	sp, sp, #16
 3083              		.cfi_def_cfa_offset 16
 3084 0002 0190     		str	r0, [sp, #4]
 3085              		.loc 7 1027 0
 3086 0004 019B     		ldr	r3, [sp, #4]
 3087 0006 DB6E     		ldr	r3, [r3, #108]
 3088 0008 0393     		str	r3, [sp, #12]
 3089              		.loc 7 1029 0
 3090 000a 039B     		ldr	r3, [sp, #12]
 3091 000c D3F80038 		ldr	r3, [r3, #2048]
 3092 0010 23F4FE63 		bic	r3, r3, #2032
 3093 0014 019A     		ldr	r2, [sp, #4]
 3094 0016 92F86620 		ldrb	r2, [r2, #102]	@ zero_extendqisi2
 3095 001a 1201     		lsls	r2, r2, #4
 3096 001c 1A43     		orrs	r2, r2, r3
 3097 001e 039B     		ldr	r3, [sp, #12]
 3098 0020 C3F80028 		str	r2, [r3, #2048]
 3099              		.loc 7 1030 0
 3100 0024 00BF     		nop
 3101 0026 04B0     		add	sp, sp, #16
 3102              		.cfi_def_cfa_offset 0
 3103              		@ sp needed
 3104 0028 7047     		bx	lr
 3105              		.cfi_endproc
 3106              	.LFE288:
 3107              		.size	usb_lld_set_address, .-usb_lld_set_address
 3108 002a 00BF     		.section	.text.usb_lld_init_endpoint,"ax",%progbits
 3109              		.align	1
 3110              		.p2align 4,,15
 3111              		.global	usb_lld_init_endpoint
 3112              		.syntax unified
 3113              		.thumb
 3114              		.thumb_func
 3115              		.fpu fpv4-sp-d16
 3116              		.type	usb_lld_init_endpoint, %function
 3117              	usb_lld_init_endpoint:
 3118              	.LFB289:
 3119              		.loc 7 1040 0
 3120              		.cfi_startproc
 3121              		@ args = 0, pretend = 0, frame = 24
 3122              		@ frame_needed = 0, uses_anonymous_args = 0
 3123 0000 30B5     		push	{r4, r5, lr}
 3124              		.cfi_def_cfa_offset 12
 3125              		.cfi_offset 4, -12
 3126              		.cfi_offset 5, -8
ARM GAS  /tmp/ccDE0Mq0.s 			page 56


 3127              		.cfi_offset 14, -4
 3128 0002 87B0     		sub	sp, sp, #28
 3129              		.cfi_def_cfa_offset 40
 3130 0004 0190     		str	r0, [sp, #4]
 3131 0006 0B46     		mov	r3, r1
 3132 0008 8DF80330 		strb	r3, [sp, #3]
 3133              		.loc 7 1042 0
 3134 000c 019B     		ldr	r3, [sp, #4]
 3135 000e DB6E     		ldr	r3, [r3, #108]
 3136 0010 0393     		str	r3, [sp, #12]
 3137              		.loc 7 1045 0
 3138 0012 9DF80330 		ldrb	r3, [sp, #3]	@ zero_extendqisi2
 3139 0016 019A     		ldr	r2, [sp, #4]
 3140 0018 0233     		adds	r3, r3, #2
 3141 001a 9B00     		lsls	r3, r3, #2
 3142 001c 1344     		add	r3, r3, r2
 3143 001e 5B68     		ldr	r3, [r3, #4]
 3144 0020 1B68     		ldr	r3, [r3]
 3145 0022 03F00303 		and	r3, r3, #3
 3146 0026 032B     		cmp	r3, #3
 3147 0028 00F20881 		bhi	.L159
 3148 002c 01A2     		adr	r2, .L149
 3149 002e 52F823F0 		ldr	pc, [r2, r3, lsl #2]
 3150 0032 00BF     		.p2align 2
 3151              	.L149:
 3152 0034 45000000 		.word	.L148+1
 3153 0038 4B000000 		.word	.L150+1
 3154 003c 51000000 		.word	.L151+1
 3155 0040 57000000 		.word	.L152+1
 3156              		.p2align 1
 3157              	.L148:
 3158              		.loc 7 1047 0
 3159 0044 7F4B     		ldr	r3, .L160
 3160 0046 0593     		str	r3, [sp, #20]
 3161              		.loc 7 1048 0
 3162 0048 08E0     		b	.L153
 3163              	.L150:
 3164              		.loc 7 1050 0
 3165 004a 7F4B     		ldr	r3, .L160+4
 3166 004c 0593     		str	r3, [sp, #20]
 3167              		.loc 7 1051 0
 3168 004e 05E0     		b	.L153
 3169              	.L151:
 3170              		.loc 7 1053 0
 3171 0050 7E4B     		ldr	r3, .L160+8
 3172 0052 0593     		str	r3, [sp, #20]
 3173              		.loc 7 1054 0
 3174 0054 02E0     		b	.L153
 3175              	.L152:
 3176              		.loc 7 1056 0
 3177 0056 7E4B     		ldr	r3, .L160+12
 3178 0058 0593     		str	r3, [sp, #20]
 3179              		.loc 7 1057 0
 3180 005a 00BF     		nop
 3181              	.L153:
 3182              		.loc 7 1063 0
 3183 005c 9DF80330 		ldrb	r3, [sp, #3]	@ zero_extendqisi2
ARM GAS  /tmp/ccDE0Mq0.s 			page 57


 3184 0060 039A     		ldr	r2, [sp, #12]
 3185 0062 5B01     		lsls	r3, r3, #5
 3186 0064 1344     		add	r3, r3, r2
 3187 0066 03F53163 		add	r3, r3, #2832
 3188 006a 0022     		movs	r2, #0
 3189 006c 1A60     		str	r2, [r3]
 3190              		.loc 7 1064 0
 3191 006e 9DF80330 		ldrb	r3, [sp, #3]	@ zero_extendqisi2
 3192 0072 019A     		ldr	r2, [sp, #4]
 3193 0074 0233     		adds	r3, r3, #2
 3194 0076 9B00     		lsls	r3, r3, #2
 3195 0078 1344     		add	r3, r3, r2
 3196 007a 5B68     		ldr	r3, [r3, #4]
 3197 007c 9B69     		ldr	r3, [r3, #24]
 3198 007e 002B     		cmp	r3, #0
 3199 0080 20D0     		beq	.L155
 3200              		.loc 7 1065 0
 3201 0082 9DF80300 		ldrb	r0, [sp, #3]	@ zero_extendqisi2
 3202 0086 9DF80330 		ldrb	r3, [sp, #3]	@ zero_extendqisi2
 3203 008a 019A     		ldr	r2, [sp, #4]
 3204 008c 0233     		adds	r3, r3, #2
 3205 008e 9B00     		lsls	r3, r3, #2
 3206 0090 1344     		add	r3, r3, r2
 3207 0092 5B68     		ldr	r3, [r3, #4]
 3208 0094 5B8A     		ldrh	r3, [r3, #18]
 3209 0096 1A46     		mov	r2, r3
 3210 0098 059B     		ldr	r3, [sp, #20]
 3211 009a 1A43     		orrs	r2, r2, r3
 3212 009c 0399     		ldr	r1, [sp, #12]
 3213 009e 00F15803 		add	r3, r0, #88
 3214 00a2 5B01     		lsls	r3, r3, #5
 3215 00a4 0B44     		add	r3, r3, r1
 3216 00a6 1A60     		str	r2, [r3]
 3217              		.loc 7 1066 0
 3218 00a8 039B     		ldr	r3, [sp, #12]
 3219 00aa D3F81C28 		ldr	r2, [r3, #2076]
 3220 00ae 9DF80330 		ldrb	r3, [sp, #3]	@ zero_extendqisi2
 3221 00b2 1033     		adds	r3, r3, #16
 3222 00b4 0121     		movs	r1, #1
 3223 00b6 01FA03F3 		lsl	r3, r1, r3
 3224 00ba 1A43     		orrs	r2, r2, r3
 3225 00bc 039B     		ldr	r3, [sp, #12]
 3226 00be C3F81C28 		str	r2, [r3, #2076]
 3227 00c2 1DE0     		b	.L156
 3228              	.L155:
 3229              		.loc 7 1069 0
 3230 00c4 9DF80330 		ldrb	r3, [sp, #3]	@ zero_extendqisi2
 3231 00c8 9DF80320 		ldrb	r2, [sp, #3]	@ zero_extendqisi2
 3232 00cc 0399     		ldr	r1, [sp, #12]
 3233 00ce 5832     		adds	r2, r2, #88
 3234 00d0 5201     		lsls	r2, r2, #5
 3235 00d2 0A44     		add	r2, r2, r1
 3236 00d4 1268     		ldr	r2, [r2]
 3237 00d6 22F40042 		bic	r2, r2, #32768
 3238 00da 0399     		ldr	r1, [sp, #12]
 3239 00dc 5833     		adds	r3, r3, #88
 3240 00de 5B01     		lsls	r3, r3, #5
ARM GAS  /tmp/ccDE0Mq0.s 			page 58


 3241 00e0 0B44     		add	r3, r3, r1
 3242 00e2 1A60     		str	r2, [r3]
 3243              		.loc 7 1070 0
 3244 00e4 039B     		ldr	r3, [sp, #12]
 3245 00e6 D3F81C28 		ldr	r2, [r3, #2076]
 3246 00ea 9DF80330 		ldrb	r3, [sp, #3]	@ zero_extendqisi2
 3247 00ee 1033     		adds	r3, r3, #16
 3248 00f0 0121     		movs	r1, #1
 3249 00f2 01FA03F3 		lsl	r3, r1, r3
 3250 00f6 DB43     		mvns	r3, r3
 3251 00f8 1A40     		ands	r2, r2, r3
 3252 00fa 039B     		ldr	r3, [sp, #12]
 3253 00fc C3F81C28 		str	r2, [r3, #2076]
 3254              	.L156:
 3255              		.loc 7 1074 0
 3256 0100 9DF80330 		ldrb	r3, [sp, #3]	@ zero_extendqisi2
 3257 0104 039A     		ldr	r2, [sp, #12]
 3258 0106 5B01     		lsls	r3, r3, #5
 3259 0108 1344     		add	r3, r3, r2
 3260 010a 03F51163 		add	r3, r3, #2320
 3261 010e 0022     		movs	r2, #0
 3262 0110 1A60     		str	r2, [r3]
 3263              		.loc 7 1075 0
 3264 0112 9DF80330 		ldrb	r3, [sp, #3]	@ zero_extendqisi2
 3265 0116 019A     		ldr	r2, [sp, #4]
 3266 0118 0233     		adds	r3, r3, #2
 3267 011a 9B00     		lsls	r3, r3, #2
 3268 011c 1344     		add	r3, r3, r2
 3269 011e 5B68     		ldr	r3, [r3, #4]
 3270 0120 5B69     		ldr	r3, [r3, #20]
 3271 0122 002B     		cmp	r3, #0
 3272 0124 5DD0     		beq	.L157
 3273              		.loc 7 1077 0
 3274 0126 9DF80330 		ldrb	r3, [sp, #3]	@ zero_extendqisi2
 3275 012a 019A     		ldr	r2, [sp, #4]
 3276 012c 0233     		adds	r3, r3, #2
 3277 012e 9B00     		lsls	r3, r3, #2
 3278 0130 1344     		add	r3, r3, r2
 3279 0132 5B68     		ldr	r3, [r3, #4]
 3280 0134 1B8A     		ldrh	r3, [r3, #16]
 3281 0136 9B08     		lsrs	r3, r3, #2
 3282 0138 9BB2     		uxth	r3, r3
 3283 013a 0493     		str	r3, [sp, #16]
 3284              		.loc 7 1078 0
 3285 013c 9DF80330 		ldrb	r3, [sp, #3]	@ zero_extendqisi2
 3286 0140 019A     		ldr	r2, [sp, #4]
 3287 0142 0233     		adds	r3, r3, #2
 3288 0144 9B00     		lsls	r3, r3, #2
 3289 0146 1344     		add	r3, r3, r2
 3290 0148 5B68     		ldr	r3, [r3, #4]
 3291 014a 9B8B     		ldrh	r3, [r3, #28]
 3292 014c 012B     		cmp	r3, #1
 3293 014e 0CD9     		bls	.L158
 3294              		.loc 7 1079 0
 3295 0150 9DF80330 		ldrb	r3, [sp, #3]	@ zero_extendqisi2
 3296 0154 019A     		ldr	r2, [sp, #4]
 3297 0156 0233     		adds	r3, r3, #2
ARM GAS  /tmp/ccDE0Mq0.s 			page 59


 3298 0158 9B00     		lsls	r3, r3, #2
 3299 015a 1344     		add	r3, r3, r2
 3300 015c 5B68     		ldr	r3, [r3, #4]
 3301 015e 9B8B     		ldrh	r3, [r3, #28]
 3302 0160 1A46     		mov	r2, r3
 3303 0162 049B     		ldr	r3, [sp, #16]
 3304 0164 02FB03F3 		mul	r3, r2, r3
 3305 0168 0493     		str	r3, [sp, #16]
 3306              	.L158:
 3307              		.loc 7 1080 0
 3308 016a 9DF80330 		ldrb	r3, [sp, #3]	@ zero_extendqisi2
 3309 016e 5C1E     		subs	r4, r3, #1
 3310 0170 049B     		ldr	r3, [sp, #16]
 3311 0172 1D04     		lsls	r5, r3, #16
 3312              		.loc 7 1081 0
 3313 0174 0499     		ldr	r1, [sp, #16]
 3314 0176 0198     		ldr	r0, [sp, #4]
 3315 0178 FFF7FEFF 		bl	otg_ram_alloc
 3316 017c 0346     		mov	r3, r0
 3317              		.loc 7 1080 0
 3318 017e 45EA0302 		orr	r2, r5, r3
 3319 0182 0399     		ldr	r1, [sp, #12]
 3320 0184 04F14003 		add	r3, r4, #64
 3321 0188 9B00     		lsls	r3, r3, #2
 3322 018a 0B44     		add	r3, r3, r1
 3323 018c 5A60     		str	r2, [r3, #4]
 3324              		.loc 7 1082 0
 3325 018e 9DF80330 		ldrb	r3, [sp, #3]	@ zero_extendqisi2
 3326 0192 1946     		mov	r1, r3
 3327 0194 0198     		ldr	r0, [sp, #4]
 3328 0196 FFF7FEFF 		bl	otg_txfifo_flush
 3329              		.loc 7 1084 0
 3330 019a 9DF80300 		ldrb	r0, [sp, #3]	@ zero_extendqisi2
 3331              		.loc 7 1085 0
 3332 019e 9DF80330 		ldrb	r3, [sp, #3]	@ zero_extendqisi2
 3333 01a2 9B05     		lsls	r3, r3, #22
 3334 01a4 1A46     		mov	r2, r3
 3335              		.loc 7 1084 0
 3336 01a6 059B     		ldr	r3, [sp, #20]
 3337 01a8 1A43     		orrs	r2, r2, r3
 3338              		.loc 7 1086 0
 3339 01aa 9DF80330 		ldrb	r3, [sp, #3]	@ zero_extendqisi2
 3340 01ae 0199     		ldr	r1, [sp, #4]
 3341 01b0 0233     		adds	r3, r3, #2
 3342 01b2 9B00     		lsls	r3, r3, #2
 3343 01b4 0B44     		add	r3, r3, r1
 3344 01b6 5B68     		ldr	r3, [r3, #4]
 3345 01b8 1B8A     		ldrh	r3, [r3, #16]
 3346              		.loc 7 1085 0
 3347 01ba 1A43     		orrs	r2, r2, r3
 3348              		.loc 7 1084 0
 3349 01bc 0399     		ldr	r1, [sp, #12]
 3350 01be 00F14803 		add	r3, r0, #72
 3351 01c2 5B01     		lsls	r3, r3, #5
 3352 01c4 0B44     		add	r3, r3, r1
 3353 01c6 1A60     		str	r2, [r3]
 3354              		.loc 7 1087 0
ARM GAS  /tmp/ccDE0Mq0.s 			page 60


 3355 01c8 039B     		ldr	r3, [sp, #12]
 3356 01ca D3F81C28 		ldr	r2, [r3, #2076]
 3357 01ce 9DF80330 		ldrb	r3, [sp, #3]	@ zero_extendqisi2
 3358 01d2 0121     		movs	r1, #1
 3359 01d4 01FA03F3 		lsl	r3, r1, r3
 3360 01d8 1A43     		orrs	r2, r2, r3
 3361 01da 039B     		ldr	r3, [sp, #12]
 3362 01dc C3F81C28 		str	r2, [r3, #2076]
 3363 01e0 2DE0     		b	.L146
 3364              	.L157:
 3365              		.loc 7 1090 0
 3366 01e2 9DF80330 		ldrb	r3, [sp, #3]	@ zero_extendqisi2
 3367 01e6 013B     		subs	r3, r3, #1
 3368 01e8 039A     		ldr	r2, [sp, #12]
 3369 01ea 4033     		adds	r3, r3, #64
 3370 01ec 9B00     		lsls	r3, r3, #2
 3371 01ee 1344     		add	r3, r3, r2
 3372 01f0 184A     		ldr	r2, .L160+16
 3373 01f2 5A60     		str	r2, [r3, #4]
 3374              		.loc 7 1091 0
 3375 01f4 9DF80330 		ldrb	r3, [sp, #3]	@ zero_extendqisi2
 3376 01f8 1946     		mov	r1, r3
 3377 01fa 0198     		ldr	r0, [sp, #4]
 3378 01fc FFF7FEFF 		bl	otg_txfifo_flush
 3379              		.loc 7 1092 0
 3380 0200 9DF80330 		ldrb	r3, [sp, #3]	@ zero_extendqisi2
 3381 0204 9DF80320 		ldrb	r2, [sp, #3]	@ zero_extendqisi2
 3382 0208 0399     		ldr	r1, [sp, #12]
 3383 020a 4832     		adds	r2, r2, #72
 3384 020c 5201     		lsls	r2, r2, #5
 3385 020e 0A44     		add	r2, r2, r1
 3386 0210 1268     		ldr	r2, [r2]
 3387 0212 22F40042 		bic	r2, r2, #32768
 3388 0216 0399     		ldr	r1, [sp, #12]
 3389 0218 4833     		adds	r3, r3, #72
 3390 021a 5B01     		lsls	r3, r3, #5
 3391 021c 0B44     		add	r3, r3, r1
 3392 021e 1A60     		str	r2, [r3]
 3393              		.loc 7 1093 0
 3394 0220 039B     		ldr	r3, [sp, #12]
 3395 0222 D3F81C28 		ldr	r2, [r3, #2076]
 3396 0226 9DF80330 		ldrb	r3, [sp, #3]	@ zero_extendqisi2
 3397 022a 0121     		movs	r1, #1
 3398 022c 01FA03F3 		lsl	r3, r1, r3
 3399 0230 DB43     		mvns	r3, r3
 3400 0232 1A40     		ands	r2, r2, r3
 3401 0234 039B     		ldr	r3, [sp, #12]
 3402 0236 C3F81C28 		str	r2, [r3, #2076]
 3403 023a 00E0     		b	.L146
 3404              	.L159:
 3405              		.loc 7 1059 0
 3406 023c 00BF     		nop
 3407              	.L146:
 3408              		.loc 7 1095 0
 3409 023e 07B0     		add	sp, sp, #28
 3410              		.cfi_def_cfa_offset 12
 3411              		@ sp needed
ARM GAS  /tmp/ccDE0Mq0.s 			page 61


 3412 0240 30BD     		pop	{r4, r5, pc}
 3413              	.L161:
 3414 0242 00BF     		.align	2
 3415              	.L160:
 3416 0244 00800010 		.word	268468224
 3417 0248 00800410 		.word	268730368
 3418 024c 00800810 		.word	268992512
 3419 0250 00800C10 		.word	269254656
 3420 0254 00040002 		.word	33555456
 3421              		.cfi_endproc
 3422              	.LFE289:
 3423              		.size	usb_lld_init_endpoint, .-usb_lld_init_endpoint
 3424              		.section	.text.usb_lld_disable_endpoints,"ax",%progbits
 3425              		.align	1
 3426              		.p2align 4,,15
 3427              		.global	usb_lld_disable_endpoints
 3428              		.syntax unified
 3429              		.thumb
 3430              		.thumb_func
 3431              		.fpu fpv4-sp-d16
 3432              		.type	usb_lld_disable_endpoints, %function
 3433              	usb_lld_disable_endpoints:
 3434              	.LFB290:
 3435              		.loc 7 1104 0
 3436              		.cfi_startproc
 3437              		@ args = 0, pretend = 0, frame = 8
 3438              		@ frame_needed = 0, uses_anonymous_args = 0
 3439 0000 00B5     		push	{lr}
 3440              		.cfi_def_cfa_offset 4
 3441              		.cfi_offset 14, -4
 3442 0002 83B0     		sub	sp, sp, #12
 3443              		.cfi_def_cfa_offset 16
 3444 0004 0190     		str	r0, [sp, #4]
 3445              		.loc 7 1107 0
 3446 0006 0198     		ldr	r0, [sp, #4]
 3447 0008 FFF7FEFF 		bl	otg_ram_reset
 3448              		.loc 7 1110 0
 3449 000c 0198     		ldr	r0, [sp, #4]
 3450 000e FFF7FEFF 		bl	otg_disable_ep
 3451              		.loc 7 1111 0
 3452 0012 00BF     		nop
 3453 0014 03B0     		add	sp, sp, #12
 3454              		.cfi_def_cfa_offset 4
 3455              		@ sp needed
 3456 0016 5DF804FB 		ldr	pc, [sp], #4
 3457              		.cfi_endproc
 3458              	.LFE290:
 3459              		.size	usb_lld_disable_endpoints, .-usb_lld_disable_endpoints
 3460 001a 00BF     		.section	.text.usb_lld_get_status_out,"ax",%progbits
 3461              		.align	1
 3462              		.p2align 4,,15
 3463              		.global	usb_lld_get_status_out
 3464              		.syntax unified
 3465              		.thumb
 3466              		.thumb_func
 3467              		.fpu fpv4-sp-d16
 3468              		.type	usb_lld_get_status_out, %function
ARM GAS  /tmp/ccDE0Mq0.s 			page 62


 3469              	usb_lld_get_status_out:
 3470              	.LFB291:
 3471              		.loc 7 1125 0
 3472              		.cfi_startproc
 3473              		@ args = 0, pretend = 0, frame = 16
 3474              		@ frame_needed = 0, uses_anonymous_args = 0
 3475              		@ link register save eliminated.
 3476 0000 84B0     		sub	sp, sp, #16
 3477              		.cfi_def_cfa_offset 16
 3478 0002 0190     		str	r0, [sp, #4]
 3479 0004 0B46     		mov	r3, r1
 3480 0006 8DF80330 		strb	r3, [sp, #3]
 3481              		.loc 7 1130 0
 3482 000a 019B     		ldr	r3, [sp, #4]
 3483 000c DA6E     		ldr	r2, [r3, #108]
 3484 000e 9DF80330 		ldrb	r3, [sp, #3]	@ zero_extendqisi2
 3485 0012 5833     		adds	r3, r3, #88
 3486 0014 5B01     		lsls	r3, r3, #5
 3487 0016 1344     		add	r3, r3, r2
 3488 0018 1B68     		ldr	r3, [r3]
 3489 001a 0393     		str	r3, [sp, #12]
 3490              		.loc 7 1131 0
 3491 001c 039B     		ldr	r3, [sp, #12]
 3492 001e 03F40043 		and	r3, r3, #32768
 3493 0022 002B     		cmp	r3, #0
 3494 0024 01D1     		bne	.L164
 3495              		.loc 7 1132 0
 3496 0026 0023     		movs	r3, #0
 3497 0028 07E0     		b	.L165
 3498              	.L164:
 3499              		.loc 7 1133 0
 3500 002a 039B     		ldr	r3, [sp, #12]
 3501 002c 03F40013 		and	r3, r3, #2097152
 3502 0030 002B     		cmp	r3, #0
 3503 0032 01D0     		beq	.L166
 3504              		.loc 7 1134 0
 3505 0034 0123     		movs	r3, #1
 3506 0036 00E0     		b	.L165
 3507              	.L166:
 3508              		.loc 7 1135 0
 3509 0038 0223     		movs	r3, #2
 3510              	.L165:
 3511              		.loc 7 1136 0
 3512 003a 1846     		mov	r0, r3
 3513 003c 04B0     		add	sp, sp, #16
 3514              		.cfi_def_cfa_offset 0
 3515              		@ sp needed
 3516 003e 7047     		bx	lr
 3517              		.cfi_endproc
 3518              	.LFE291:
 3519              		.size	usb_lld_get_status_out, .-usb_lld_get_status_out
 3520              		.section	.text.usb_lld_get_status_in,"ax",%progbits
 3521              		.align	1
 3522              		.p2align 4,,15
 3523              		.global	usb_lld_get_status_in
 3524              		.syntax unified
 3525              		.thumb
ARM GAS  /tmp/ccDE0Mq0.s 			page 63


 3526              		.thumb_func
 3527              		.fpu fpv4-sp-d16
 3528              		.type	usb_lld_get_status_in, %function
 3529              	usb_lld_get_status_in:
 3530              	.LFB292:
 3531              		.loc 7 1150 0
 3532              		.cfi_startproc
 3533              		@ args = 0, pretend = 0, frame = 16
 3534              		@ frame_needed = 0, uses_anonymous_args = 0
 3535              		@ link register save eliminated.
 3536 0000 84B0     		sub	sp, sp, #16
 3537              		.cfi_def_cfa_offset 16
 3538 0002 0190     		str	r0, [sp, #4]
 3539 0004 0B46     		mov	r3, r1
 3540 0006 8DF80330 		strb	r3, [sp, #3]
 3541              		.loc 7 1155 0
 3542 000a 019B     		ldr	r3, [sp, #4]
 3543 000c DA6E     		ldr	r2, [r3, #108]
 3544 000e 9DF80330 		ldrb	r3, [sp, #3]	@ zero_extendqisi2
 3545 0012 4833     		adds	r3, r3, #72
 3546 0014 5B01     		lsls	r3, r3, #5
 3547 0016 1344     		add	r3, r3, r2
 3548 0018 1B68     		ldr	r3, [r3]
 3549 001a 0393     		str	r3, [sp, #12]
 3550              		.loc 7 1156 0
 3551 001c 039B     		ldr	r3, [sp, #12]
 3552 001e 03F40043 		and	r3, r3, #32768
 3553 0022 002B     		cmp	r3, #0
 3554 0024 01D1     		bne	.L168
 3555              		.loc 7 1157 0
 3556 0026 0023     		movs	r3, #0
 3557 0028 07E0     		b	.L169
 3558              	.L168:
 3559              		.loc 7 1158 0
 3560 002a 039B     		ldr	r3, [sp, #12]
 3561 002c 03F40013 		and	r3, r3, #2097152
 3562 0030 002B     		cmp	r3, #0
 3563 0032 01D0     		beq	.L170
 3564              		.loc 7 1159 0
 3565 0034 0123     		movs	r3, #1
 3566 0036 00E0     		b	.L169
 3567              	.L170:
 3568              		.loc 7 1160 0
 3569 0038 0223     		movs	r3, #2
 3570              	.L169:
 3571              		.loc 7 1161 0
 3572 003a 1846     		mov	r0, r3
 3573 003c 04B0     		add	sp, sp, #16
 3574              		.cfi_def_cfa_offset 0
 3575              		@ sp needed
 3576 003e 7047     		bx	lr
 3577              		.cfi_endproc
 3578              	.LFE292:
 3579              		.size	usb_lld_get_status_in, .-usb_lld_get_status_in
 3580              		.section	.text.usb_lld_read_setup,"ax",%progbits
 3581              		.align	1
 3582              		.p2align 4,,15
ARM GAS  /tmp/ccDE0Mq0.s 			page 64


 3583              		.global	usb_lld_read_setup
 3584              		.syntax unified
 3585              		.thumb
 3586              		.thumb_func
 3587              		.fpu fpv4-sp-d16
 3588              		.type	usb_lld_read_setup, %function
 3589              	usb_lld_read_setup:
 3590              	.LFB293:
 3591              		.loc 7 1177 0
 3592              		.cfi_startproc
 3593              		@ args = 0, pretend = 0, frame = 16
 3594              		@ frame_needed = 0, uses_anonymous_args = 0
 3595 0000 00B5     		push	{lr}
 3596              		.cfi_def_cfa_offset 4
 3597              		.cfi_offset 14, -4
 3598 0002 85B0     		sub	sp, sp, #20
 3599              		.cfi_def_cfa_offset 24
 3600 0004 0390     		str	r0, [sp, #12]
 3601 0006 0B46     		mov	r3, r1
 3602 0008 0192     		str	r2, [sp, #4]
 3603 000a 8DF80B30 		strb	r3, [sp, #11]
 3604              		.loc 7 1179 0
 3605 000e 9DF80B30 		ldrb	r3, [sp, #11]	@ zero_extendqisi2
 3606 0012 039A     		ldr	r2, [sp, #12]
 3607 0014 0233     		adds	r3, r3, #2
 3608 0016 9B00     		lsls	r3, r3, #2
 3609 0018 1344     		add	r3, r3, r2
 3610 001a 5B68     		ldr	r3, [r3, #4]
 3611 001c 1B6A     		ldr	r3, [r3, #32]
 3612 001e 0822     		movs	r2, #8
 3613 0020 1946     		mov	r1, r3
 3614 0022 0198     		ldr	r0, [sp, #4]
 3615 0024 FFF7FEFF 		bl	memcpy
 3616              		.loc 7 1180 0
 3617 0028 00BF     		nop
 3618 002a 05B0     		add	sp, sp, #20
 3619              		.cfi_def_cfa_offset 4
 3620              		@ sp needed
 3621 002c 5DF804FB 		ldr	pc, [sp], #4
 3622              		.cfi_endproc
 3623              	.LFE293:
 3624              		.size	usb_lld_read_setup, .-usb_lld_read_setup
 3625              		.section	.text.usb_lld_start_out,"ax",%progbits
 3626              		.align	1
 3627              		.p2align 4,,15
 3628              		.global	usb_lld_start_out
 3629              		.syntax unified
 3630              		.thumb
 3631              		.thumb_func
 3632              		.fpu fpv4-sp-d16
 3633              		.type	usb_lld_start_out, %function
 3634              	usb_lld_start_out:
 3635              	.LFB294:
 3636              		.loc 7 1190 0
 3637              		.cfi_startproc
 3638              		@ args = 0, pretend = 0, frame = 24
 3639              		@ frame_needed = 0, uses_anonymous_args = 0
ARM GAS  /tmp/ccDE0Mq0.s 			page 65


 3640              		@ link register save eliminated.
 3641 0000 86B0     		sub	sp, sp, #24
 3642              		.cfi_def_cfa_offset 24
 3643 0002 0190     		str	r0, [sp, #4]
 3644 0004 0B46     		mov	r3, r1
 3645 0006 8DF80330 		strb	r3, [sp, #3]
 3646              		.loc 7 1192 0
 3647 000a 9DF80330 		ldrb	r3, [sp, #3]	@ zero_extendqisi2
 3648 000e 019A     		ldr	r2, [sp, #4]
 3649 0010 0233     		adds	r3, r3, #2
 3650 0012 9B00     		lsls	r3, r3, #2
 3651 0014 1344     		add	r3, r3, r2
 3652 0016 5B68     		ldr	r3, [r3, #4]
 3653 0018 9B69     		ldr	r3, [r3, #24]
 3654 001a 0593     		str	r3, [sp, #20]
 3655              		.loc 7 1195 0
 3656 001c 059B     		ldr	r3, [sp, #20]
 3657 001e 1A68     		ldr	r2, [r3]
 3658 0020 059B     		ldr	r3, [sp, #20]
 3659 0022 1A61     		str	r2, [r3, #16]
 3660              		.loc 7 1196 0
 3661 0024 9DF80330 		ldrb	r3, [sp, #3]	@ zero_extendqisi2
 3662 0028 002B     		cmp	r3, #0
 3663 002a 06D1     		bne	.L173
 3664              		.loc 7 1196 0 is_stmt 0 discriminator 1
 3665 002c 059B     		ldr	r3, [sp, #20]
 3666 002e 1B68     		ldr	r3, [r3]
 3667 0030 402B     		cmp	r3, #64
 3668 0032 02D9     		bls	.L173
 3669              		.loc 7 1197 0 is_stmt 1
 3670 0034 059B     		ldr	r3, [sp, #20]
 3671 0036 4022     		movs	r2, #64
 3672 0038 1A60     		str	r2, [r3]
 3673              	.L173:
 3674              		.loc 7 1204 0
 3675 003a 059B     		ldr	r3, [sp, #20]
 3676 003c 1A68     		ldr	r2, [r3]
 3677 003e 9DF80330 		ldrb	r3, [sp, #3]	@ zero_extendqisi2
 3678 0042 0199     		ldr	r1, [sp, #4]
 3679 0044 0233     		adds	r3, r3, #2
 3680 0046 9B00     		lsls	r3, r3, #2
 3681 0048 0B44     		add	r3, r3, r1
 3682 004a 5B68     		ldr	r3, [r3, #4]
 3683 004c 5B8A     		ldrh	r3, [r3, #18]
 3684 004e 1344     		add	r3, r3, r2
 3685 0050 5A1E     		subs	r2, r3, #1
 3686              		.loc 7 1205 0
 3687 0052 9DF80330 		ldrb	r3, [sp, #3]	@ zero_extendqisi2
 3688 0056 0199     		ldr	r1, [sp, #4]
 3689 0058 0233     		adds	r3, r3, #2
 3690 005a 9B00     		lsls	r3, r3, #2
 3691 005c 0B44     		add	r3, r3, r1
 3692 005e 5B68     		ldr	r3, [r3, #4]
 3693 0060 5B8A     		ldrh	r3, [r3, #18]
 3694              		.loc 7 1204 0
 3695 0062 B2FBF3F3 		udiv	r3, r2, r3
 3696 0066 0493     		str	r3, [sp, #16]
ARM GAS  /tmp/ccDE0Mq0.s 			page 66


 3697              		.loc 7 1206 0
 3698 0068 9DF80330 		ldrb	r3, [sp, #3]	@ zero_extendqisi2
 3699 006c 019A     		ldr	r2, [sp, #4]
 3700 006e 0233     		adds	r3, r3, #2
 3701 0070 9B00     		lsls	r3, r3, #2
 3702 0072 1344     		add	r3, r3, r2
 3703 0074 5B68     		ldr	r3, [r3, #4]
 3704 0076 5B8A     		ldrh	r3, [r3, #18]
 3705 0078 1A46     		mov	r2, r3
 3706 007a 049B     		ldr	r3, [sp, #16]
 3707 007c 03FB02F3 		mul	r3, r3, r2
 3708 0080 0333     		adds	r3, r3, #3
 3709 0082 23F00303 		bic	r3, r3, #3
 3710 0086 0393     		str	r3, [sp, #12]
 3711              		.loc 7 1209 0
 3712 0088 019B     		ldr	r3, [sp, #4]
 3713 008a D96E     		ldr	r1, [r3, #108]
 3714 008c 9DF80330 		ldrb	r3, [sp, #3]	@ zero_extendqisi2
 3715 0090 049A     		ldr	r2, [sp, #16]
 3716 0092 D004     		lsls	r0, r2, #19
 3717 0094 039A     		ldr	r2, [sp, #12]
 3718 0096 0243     		orrs	r2, r2, r0
 3719 0098 42F0C042 		orr	r2, r2, #1610612736
 3720 009c 5B01     		lsls	r3, r3, #5
 3721 009e 0B44     		add	r3, r3, r1
 3722 00a0 03F53163 		add	r3, r3, #2832
 3723 00a4 1A60     		str	r2, [r3]
 3724              		.loc 7 1213 0
 3725 00a6 9DF80330 		ldrb	r3, [sp, #3]	@ zero_extendqisi2
 3726 00aa 019A     		ldr	r2, [sp, #4]
 3727 00ac 0233     		adds	r3, r3, #2
 3728 00ae 9B00     		lsls	r3, r3, #2
 3729 00b0 1344     		add	r3, r3, r2
 3730 00b2 5B68     		ldr	r3, [r3, #4]
 3731 00b4 1B68     		ldr	r3, [r3]
 3732 00b6 03F00303 		and	r3, r3, #3
 3733 00ba 012B     		cmp	r3, #1
 3734 00bc 2CD1     		bne	.L174
 3735              		.loc 7 1215 0
 3736 00be 019B     		ldr	r3, [sp, #4]
 3737 00c0 DB6E     		ldr	r3, [r3, #108]
 3738 00c2 D3F80838 		ldr	r3, [r3, #2056]
 3739 00c6 03F48073 		and	r3, r3, #256
 3740 00ca 002B     		cmp	r3, #0
 3741 00cc 12D0     		beq	.L175
 3742              		.loc 7 1216 0
 3743 00ce 019B     		ldr	r3, [sp, #4]
 3744 00d0 D96E     		ldr	r1, [r3, #108]
 3745 00d2 9DF80330 		ldrb	r3, [sp, #3]	@ zero_extendqisi2
 3746 00d6 019A     		ldr	r2, [sp, #4]
 3747 00d8 D06E     		ldr	r0, [r2, #108]
 3748 00da 9DF80320 		ldrb	r2, [sp, #3]	@ zero_extendqisi2
 3749 00de 5832     		adds	r2, r2, #88
 3750 00e0 5201     		lsls	r2, r2, #5
 3751 00e2 0244     		add	r2, r2, r0
 3752 00e4 1268     		ldr	r2, [r2]
 3753 00e6 42F08052 		orr	r2, r2, #268435456
ARM GAS  /tmp/ccDE0Mq0.s 			page 67


 3754 00ea 5833     		adds	r3, r3, #88
 3755 00ec 5B01     		lsls	r3, r3, #5
 3756 00ee 0B44     		add	r3, r3, r1
 3757 00f0 1A60     		str	r2, [r3]
 3758 00f2 11E0     		b	.L174
 3759              	.L175:
 3760              		.loc 7 1218 0
 3761 00f4 019B     		ldr	r3, [sp, #4]
 3762 00f6 D96E     		ldr	r1, [r3, #108]
 3763 00f8 9DF80330 		ldrb	r3, [sp, #3]	@ zero_extendqisi2
 3764 00fc 019A     		ldr	r2, [sp, #4]
 3765 00fe D06E     		ldr	r0, [r2, #108]
 3766 0100 9DF80320 		ldrb	r2, [sp, #3]	@ zero_extendqisi2
 3767 0104 5832     		adds	r2, r2, #88
 3768 0106 5201     		lsls	r2, r2, #5
 3769 0108 0244     		add	r2, r2, r0
 3770 010a 1268     		ldr	r2, [r2]
 3771 010c 42F00052 		orr	r2, r2, #536870912
 3772 0110 5833     		adds	r3, r3, #88
 3773 0112 5B01     		lsls	r3, r3, #5
 3774 0114 0B44     		add	r3, r3, r1
 3775 0116 1A60     		str	r2, [r3]
 3776              	.L174:
 3777              		.loc 7 1222 0
 3778 0118 019B     		ldr	r3, [sp, #4]
 3779 011a D96E     		ldr	r1, [r3, #108]
 3780 011c 9DF80330 		ldrb	r3, [sp, #3]	@ zero_extendqisi2
 3781 0120 019A     		ldr	r2, [sp, #4]
 3782 0122 D06E     		ldr	r0, [r2, #108]
 3783 0124 9DF80320 		ldrb	r2, [sp, #3]	@ zero_extendqisi2
 3784 0128 5832     		adds	r2, r2, #88
 3785 012a 5201     		lsls	r2, r2, #5
 3786 012c 0244     		add	r2, r2, r0
 3787 012e 1268     		ldr	r2, [r2]
 3788 0130 42F00442 		orr	r2, r2, #-2080374784
 3789 0134 5833     		adds	r3, r3, #88
 3790 0136 5B01     		lsls	r3, r3, #5
 3791 0138 0B44     		add	r3, r3, r1
 3792 013a 1A60     		str	r2, [r3]
 3793              		.loc 7 1223 0
 3794 013c 00BF     		nop
 3795 013e 06B0     		add	sp, sp, #24
 3796              		.cfi_def_cfa_offset 0
 3797              		@ sp needed
 3798 0140 7047     		bx	lr
 3799              		.cfi_endproc
 3800              	.LFE294:
 3801              		.size	usb_lld_start_out, .-usb_lld_start_out
 3802 0142 00BF     		.section	.text.usb_lld_start_in,"ax",%progbits
 3803              		.align	1
 3804              		.p2align 4,,15
 3805              		.global	usb_lld_start_in
 3806              		.syntax unified
 3807              		.thumb
 3808              		.thumb_func
 3809              		.fpu fpv4-sp-d16
 3810              		.type	usb_lld_start_in, %function
ARM GAS  /tmp/ccDE0Mq0.s 			page 68


 3811              	usb_lld_start_in:
 3812              	.LFB295:
 3813              		.loc 7 1233 0
 3814              		.cfi_startproc
 3815              		@ args = 0, pretend = 0, frame = 16
 3816              		@ frame_needed = 0, uses_anonymous_args = 0
 3817              		@ link register save eliminated.
 3818 0000 84B0     		sub	sp, sp, #16
 3819              		.cfi_def_cfa_offset 16
 3820 0002 0190     		str	r0, [sp, #4]
 3821 0004 0B46     		mov	r3, r1
 3822 0006 8DF80330 		strb	r3, [sp, #3]
 3823              		.loc 7 1234 0
 3824 000a 9DF80330 		ldrb	r3, [sp, #3]	@ zero_extendqisi2
 3825 000e 019A     		ldr	r2, [sp, #4]
 3826 0010 0233     		adds	r3, r3, #2
 3827 0012 9B00     		lsls	r3, r3, #2
 3828 0014 1344     		add	r3, r3, r2
 3829 0016 5B68     		ldr	r3, [r3, #4]
 3830 0018 5B69     		ldr	r3, [r3, #20]
 3831 001a 0393     		str	r3, [sp, #12]
 3832              		.loc 7 1237 0
 3833 001c 039B     		ldr	r3, [sp, #12]
 3834 001e 1A68     		ldr	r2, [r3]
 3835 0020 039B     		ldr	r3, [sp, #12]
 3836 0022 1A61     		str	r2, [r3, #16]
 3837              		.loc 7 1238 0
 3838 0024 039B     		ldr	r3, [sp, #12]
 3839 0026 1B68     		ldr	r3, [r3]
 3840 0028 002B     		cmp	r3, #0
 3841 002a 0BD1     		bne	.L177
 3842              		.loc 7 1240 0
 3843 002c 019B     		ldr	r3, [sp, #4]
 3844 002e DA6E     		ldr	r2, [r3, #108]
 3845 0030 9DF80330 		ldrb	r3, [sp, #3]	@ zero_extendqisi2
 3846 0034 5B01     		lsls	r3, r3, #5
 3847 0036 1344     		add	r3, r3, r2
 3848 0038 03F51163 		add	r3, r3, #2320
 3849 003c 4FF40022 		mov	r2, #524288
 3850 0040 1A60     		str	r2, [r3]
 3851 0042 31E0     		b	.L178
 3852              	.L177:
 3853              	.LBB14:
 3854              		.loc 7 1243 0
 3855 0044 9DF80330 		ldrb	r3, [sp, #3]	@ zero_extendqisi2
 3856 0048 002B     		cmp	r3, #0
 3857 004a 06D1     		bne	.L179
 3858              		.loc 7 1243 0 is_stmt 0 discriminator 1
 3859 004c 039B     		ldr	r3, [sp, #12]
 3860 004e 1B68     		ldr	r3, [r3]
 3861 0050 402B     		cmp	r3, #64
 3862 0052 02D9     		bls	.L179
 3863              		.loc 7 1244 0 is_stmt 1
 3864 0054 039B     		ldr	r3, [sp, #12]
 3865 0056 4022     		movs	r2, #64
 3866 0058 1A60     		str	r2, [r3]
 3867              	.L179:
ARM GAS  /tmp/ccDE0Mq0.s 			page 69


 3868              		.loc 7 1247 0
 3869 005a 039B     		ldr	r3, [sp, #12]
 3870 005c 1A68     		ldr	r2, [r3]
 3871 005e 9DF80330 		ldrb	r3, [sp, #3]	@ zero_extendqisi2
 3872 0062 0199     		ldr	r1, [sp, #4]
 3873 0064 0233     		adds	r3, r3, #2
 3874 0066 9B00     		lsls	r3, r3, #2
 3875 0068 0B44     		add	r3, r3, r1
 3876 006a 5B68     		ldr	r3, [r3, #4]
 3877 006c 1B8A     		ldrh	r3, [r3, #16]
 3878 006e 1344     		add	r3, r3, r2
 3879 0070 5A1E     		subs	r2, r3, #1
 3880              		.loc 7 1248 0
 3881 0072 9DF80330 		ldrb	r3, [sp, #3]	@ zero_extendqisi2
 3882 0076 0199     		ldr	r1, [sp, #4]
 3883 0078 0233     		adds	r3, r3, #2
 3884 007a 9B00     		lsls	r3, r3, #2
 3885 007c 0B44     		add	r3, r3, r1
 3886 007e 5B68     		ldr	r3, [r3, #4]
 3887 0080 1B8A     		ldrh	r3, [r3, #16]
 3888              		.loc 7 1247 0
 3889 0082 B2FBF3F3 		udiv	r3, r2, r3
 3890 0086 0293     		str	r3, [sp, #8]
 3891              		.loc 7 1250 0
 3892 0088 019B     		ldr	r3, [sp, #4]
 3893 008a D96E     		ldr	r1, [r3, #108]
 3894 008c 9DF80330 		ldrb	r3, [sp, #3]	@ zero_extendqisi2
 3895 0090 029A     		ldr	r2, [sp, #8]
 3896 0092 D004     		lsls	r0, r2, #19
 3897              		.loc 7 1251 0
 3898 0094 039A     		ldr	r2, [sp, #12]
 3899 0096 1268     		ldr	r2, [r2]
 3900              		.loc 7 1250 0
 3901 0098 0243     		orrs	r2, r2, r0
 3902 009a 42F00052 		orr	r2, r2, #536870912
 3903 009e 5B01     		lsls	r3, r3, #5
 3904 00a0 0B44     		add	r3, r3, r1
 3905 00a2 03F51163 		add	r3, r3, #2320
 3906 00a6 1A60     		str	r2, [r3]
 3907              	.L178:
 3908              	.LBE14:
 3909              		.loc 7 1255 0
 3910 00a8 9DF80330 		ldrb	r3, [sp, #3]	@ zero_extendqisi2
 3911 00ac 019A     		ldr	r2, [sp, #4]
 3912 00ae 0233     		adds	r3, r3, #2
 3913 00b0 9B00     		lsls	r3, r3, #2
 3914 00b2 1344     		add	r3, r3, r2
 3915 00b4 5B68     		ldr	r3, [r3, #4]
 3916 00b6 1B68     		ldr	r3, [r3]
 3917 00b8 03F00303 		and	r3, r3, #3
 3918 00bc 012B     		cmp	r3, #1
 3919 00be 2CD1     		bne	.L180
 3920              		.loc 7 1257 0
 3921 00c0 019B     		ldr	r3, [sp, #4]
 3922 00c2 DB6E     		ldr	r3, [r3, #108]
 3923 00c4 D3F80838 		ldr	r3, [r3, #2056]
 3924 00c8 03F48073 		and	r3, r3, #256
ARM GAS  /tmp/ccDE0Mq0.s 			page 70


 3925 00cc 002B     		cmp	r3, #0
 3926 00ce 12D0     		beq	.L181
 3927              		.loc 7 1258 0
 3928 00d0 019B     		ldr	r3, [sp, #4]
 3929 00d2 D96E     		ldr	r1, [r3, #108]
 3930 00d4 9DF80330 		ldrb	r3, [sp, #3]	@ zero_extendqisi2
 3931 00d8 019A     		ldr	r2, [sp, #4]
 3932 00da D06E     		ldr	r0, [r2, #108]
 3933 00dc 9DF80320 		ldrb	r2, [sp, #3]	@ zero_extendqisi2
 3934 00e0 4832     		adds	r2, r2, #72
 3935 00e2 5201     		lsls	r2, r2, #5
 3936 00e4 0244     		add	r2, r2, r0
 3937 00e6 1268     		ldr	r2, [r2]
 3938 00e8 42F08052 		orr	r2, r2, #268435456
 3939 00ec 4833     		adds	r3, r3, #72
 3940 00ee 5B01     		lsls	r3, r3, #5
 3941 00f0 0B44     		add	r3, r3, r1
 3942 00f2 1A60     		str	r2, [r3]
 3943 00f4 11E0     		b	.L180
 3944              	.L181:
 3945              		.loc 7 1260 0
 3946 00f6 019B     		ldr	r3, [sp, #4]
 3947 00f8 D96E     		ldr	r1, [r3, #108]
 3948 00fa 9DF80330 		ldrb	r3, [sp, #3]	@ zero_extendqisi2
 3949 00fe 019A     		ldr	r2, [sp, #4]
 3950 0100 D06E     		ldr	r0, [r2, #108]
 3951 0102 9DF80320 		ldrb	r2, [sp, #3]	@ zero_extendqisi2
 3952 0106 4832     		adds	r2, r2, #72
 3953 0108 5201     		lsls	r2, r2, #5
 3954 010a 0244     		add	r2, r2, r0
 3955 010c 1268     		ldr	r2, [r2]
 3956 010e 42F00052 		orr	r2, r2, #536870912
 3957 0112 4833     		adds	r3, r3, #72
 3958 0114 5B01     		lsls	r3, r3, #5
 3959 0116 0B44     		add	r3, r3, r1
 3960 0118 1A60     		str	r2, [r3]
 3961              	.L180:
 3962              		.loc 7 1264 0
 3963 011a 019B     		ldr	r3, [sp, #4]
 3964 011c D96E     		ldr	r1, [r3, #108]
 3965 011e 9DF80330 		ldrb	r3, [sp, #3]	@ zero_extendqisi2
 3966 0122 019A     		ldr	r2, [sp, #4]
 3967 0124 D06E     		ldr	r0, [r2, #108]
 3968 0126 9DF80320 		ldrb	r2, [sp, #3]	@ zero_extendqisi2
 3969 012a 4832     		adds	r2, r2, #72
 3970 012c 5201     		lsls	r2, r2, #5
 3971 012e 0244     		add	r2, r2, r0
 3972 0130 1268     		ldr	r2, [r2]
 3973 0132 42F00442 		orr	r2, r2, #-2080374784
 3974 0136 4833     		adds	r3, r3, #72
 3975 0138 5B01     		lsls	r3, r3, #5
 3976 013a 0B44     		add	r3, r3, r1
 3977 013c 1A60     		str	r2, [r3]
 3978              		.loc 7 1265 0
 3979 013e 019B     		ldr	r3, [sp, #4]
 3980 0140 DB6E     		ldr	r3, [r3, #108]
 3981 0142 019A     		ldr	r2, [sp, #4]
ARM GAS  /tmp/ccDE0Mq0.s 			page 71


 3982 0144 D26E     		ldr	r2, [r2, #108]
 3983 0146 D2F83418 		ldr	r1, [r2, #2100]
 3984 014a 9DF80320 		ldrb	r2, [sp, #3]	@ zero_extendqisi2
 3985 014e 0120     		movs	r0, #1
 3986 0150 00FA02F2 		lsl	r2, r0, r2
 3987 0154 0A43     		orrs	r2, r2, r1
 3988 0156 C3F83428 		str	r2, [r3, #2100]
 3989              		.loc 7 1266 0
 3990 015a 00BF     		nop
 3991 015c 04B0     		add	sp, sp, #16
 3992              		.cfi_def_cfa_offset 0
 3993              		@ sp needed
 3994 015e 7047     		bx	lr
 3995              		.cfi_endproc
 3996              	.LFE295:
 3997              		.size	usb_lld_start_in, .-usb_lld_start_in
 3998              		.section	.text.usb_lld_stall_out,"ax",%progbits
 3999              		.align	1
 4000              		.p2align 4,,15
 4001              		.global	usb_lld_stall_out
 4002              		.syntax unified
 4003              		.thumb
 4004              		.thumb_func
 4005              		.fpu fpv4-sp-d16
 4006              		.type	usb_lld_stall_out, %function
 4007              	usb_lld_stall_out:
 4008              	.LFB296:
 4009              		.loc 7 1276 0
 4010              		.cfi_startproc
 4011              		@ args = 0, pretend = 0, frame = 8
 4012              		@ frame_needed = 0, uses_anonymous_args = 0
 4013              		@ link register save eliminated.
 4014 0000 82B0     		sub	sp, sp, #8
 4015              		.cfi_def_cfa_offset 8
 4016 0002 0190     		str	r0, [sp, #4]
 4017 0004 0B46     		mov	r3, r1
 4018 0006 8DF80330 		strb	r3, [sp, #3]
 4019              		.loc 7 1278 0
 4020 000a 019B     		ldr	r3, [sp, #4]
 4021 000c D96E     		ldr	r1, [r3, #108]
 4022 000e 9DF80330 		ldrb	r3, [sp, #3]	@ zero_extendqisi2
 4023 0012 019A     		ldr	r2, [sp, #4]
 4024 0014 D06E     		ldr	r0, [r2, #108]
 4025 0016 9DF80320 		ldrb	r2, [sp, #3]	@ zero_extendqisi2
 4026 001a 5832     		adds	r2, r2, #88
 4027 001c 5201     		lsls	r2, r2, #5
 4028 001e 0244     		add	r2, r2, r0
 4029 0020 1268     		ldr	r2, [r2]
 4030 0022 42F40012 		orr	r2, r2, #2097152
 4031 0026 5833     		adds	r3, r3, #88
 4032 0028 5B01     		lsls	r3, r3, #5
 4033 002a 0B44     		add	r3, r3, r1
 4034 002c 1A60     		str	r2, [r3]
 4035              		.loc 7 1279 0
 4036 002e 00BF     		nop
 4037 0030 02B0     		add	sp, sp, #8
 4038              		.cfi_def_cfa_offset 0
ARM GAS  /tmp/ccDE0Mq0.s 			page 72


 4039              		@ sp needed
 4040 0032 7047     		bx	lr
 4041              		.cfi_endproc
 4042              	.LFE296:
 4043              		.size	usb_lld_stall_out, .-usb_lld_stall_out
 4044              		.section	.text.usb_lld_stall_in,"ax",%progbits
 4045              		.align	1
 4046              		.p2align 4,,15
 4047              		.global	usb_lld_stall_in
 4048              		.syntax unified
 4049              		.thumb
 4050              		.thumb_func
 4051              		.fpu fpv4-sp-d16
 4052              		.type	usb_lld_stall_in, %function
 4053              	usb_lld_stall_in:
 4054              	.LFB297:
 4055              		.loc 7 1289 0
 4056              		.cfi_startproc
 4057              		@ args = 0, pretend = 0, frame = 8
 4058              		@ frame_needed = 0, uses_anonymous_args = 0
 4059              		@ link register save eliminated.
 4060 0000 82B0     		sub	sp, sp, #8
 4061              		.cfi_def_cfa_offset 8
 4062 0002 0190     		str	r0, [sp, #4]
 4063 0004 0B46     		mov	r3, r1
 4064 0006 8DF80330 		strb	r3, [sp, #3]
 4065              		.loc 7 1291 0
 4066 000a 019B     		ldr	r3, [sp, #4]
 4067 000c D96E     		ldr	r1, [r3, #108]
 4068 000e 9DF80330 		ldrb	r3, [sp, #3]	@ zero_extendqisi2
 4069 0012 019A     		ldr	r2, [sp, #4]
 4070 0014 D06E     		ldr	r0, [r2, #108]
 4071 0016 9DF80320 		ldrb	r2, [sp, #3]	@ zero_extendqisi2
 4072 001a 4832     		adds	r2, r2, #72
 4073 001c 5201     		lsls	r2, r2, #5
 4074 001e 0244     		add	r2, r2, r0
 4075 0020 1268     		ldr	r2, [r2]
 4076 0022 42F40012 		orr	r2, r2, #2097152
 4077 0026 4833     		adds	r3, r3, #72
 4078 0028 5B01     		lsls	r3, r3, #5
 4079 002a 0B44     		add	r3, r3, r1
 4080 002c 1A60     		str	r2, [r3]
 4081              		.loc 7 1292 0
 4082 002e 00BF     		nop
 4083 0030 02B0     		add	sp, sp, #8
 4084              		.cfi_def_cfa_offset 0
 4085              		@ sp needed
 4086 0032 7047     		bx	lr
 4087              		.cfi_endproc
 4088              	.LFE297:
 4089              		.size	usb_lld_stall_in, .-usb_lld_stall_in
 4090              		.section	.text.usb_lld_clear_out,"ax",%progbits
 4091              		.align	1
 4092              		.p2align 4,,15
 4093              		.global	usb_lld_clear_out
 4094              		.syntax unified
 4095              		.thumb
ARM GAS  /tmp/ccDE0Mq0.s 			page 73


 4096              		.thumb_func
 4097              		.fpu fpv4-sp-d16
 4098              		.type	usb_lld_clear_out, %function
 4099              	usb_lld_clear_out:
 4100              	.LFB298:
 4101              		.loc 7 1302 0
 4102              		.cfi_startproc
 4103              		@ args = 0, pretend = 0, frame = 8
 4104              		@ frame_needed = 0, uses_anonymous_args = 0
 4105              		@ link register save eliminated.
 4106 0000 82B0     		sub	sp, sp, #8
 4107              		.cfi_def_cfa_offset 8
 4108 0002 0190     		str	r0, [sp, #4]
 4109 0004 0B46     		mov	r3, r1
 4110 0006 8DF80330 		strb	r3, [sp, #3]
 4111              		.loc 7 1304 0
 4112 000a 019B     		ldr	r3, [sp, #4]
 4113 000c D96E     		ldr	r1, [r3, #108]
 4114 000e 9DF80330 		ldrb	r3, [sp, #3]	@ zero_extendqisi2
 4115 0012 019A     		ldr	r2, [sp, #4]
 4116 0014 D06E     		ldr	r0, [r2, #108]
 4117 0016 9DF80320 		ldrb	r2, [sp, #3]	@ zero_extendqisi2
 4118 001a 5832     		adds	r2, r2, #88
 4119 001c 5201     		lsls	r2, r2, #5
 4120 001e 0244     		add	r2, r2, r0
 4121 0020 1268     		ldr	r2, [r2]
 4122 0022 22F40012 		bic	r2, r2, #2097152
 4123 0026 5833     		adds	r3, r3, #88
 4124 0028 5B01     		lsls	r3, r3, #5
 4125 002a 0B44     		add	r3, r3, r1
 4126 002c 1A60     		str	r2, [r3]
 4127              		.loc 7 1305 0
 4128 002e 00BF     		nop
 4129 0030 02B0     		add	sp, sp, #8
 4130              		.cfi_def_cfa_offset 0
 4131              		@ sp needed
 4132 0032 7047     		bx	lr
 4133              		.cfi_endproc
 4134              	.LFE298:
 4135              		.size	usb_lld_clear_out, .-usb_lld_clear_out
 4136              		.section	.text.usb_lld_clear_in,"ax",%progbits
 4137              		.align	1
 4138              		.p2align 4,,15
 4139              		.global	usb_lld_clear_in
 4140              		.syntax unified
 4141              		.thumb
 4142              		.thumb_func
 4143              		.fpu fpv4-sp-d16
 4144              		.type	usb_lld_clear_in, %function
 4145              	usb_lld_clear_in:
 4146              	.LFB299:
 4147              		.loc 7 1315 0
 4148              		.cfi_startproc
 4149              		@ args = 0, pretend = 0, frame = 8
 4150              		@ frame_needed = 0, uses_anonymous_args = 0
 4151              		@ link register save eliminated.
 4152 0000 82B0     		sub	sp, sp, #8
ARM GAS  /tmp/ccDE0Mq0.s 			page 74


 4153              		.cfi_def_cfa_offset 8
 4154 0002 0190     		str	r0, [sp, #4]
 4155 0004 0B46     		mov	r3, r1
 4156 0006 8DF80330 		strb	r3, [sp, #3]
 4157              		.loc 7 1317 0
 4158 000a 019B     		ldr	r3, [sp, #4]
 4159 000c D96E     		ldr	r1, [r3, #108]
 4160 000e 9DF80330 		ldrb	r3, [sp, #3]	@ zero_extendqisi2
 4161 0012 019A     		ldr	r2, [sp, #4]
 4162 0014 D06E     		ldr	r0, [r2, #108]
 4163 0016 9DF80320 		ldrb	r2, [sp, #3]	@ zero_extendqisi2
 4164 001a 4832     		adds	r2, r2, #72
 4165 001c 5201     		lsls	r2, r2, #5
 4166 001e 0244     		add	r2, r2, r0
 4167 0020 1268     		ldr	r2, [r2]
 4168 0022 22F40012 		bic	r2, r2, #2097152
 4169 0026 4833     		adds	r3, r3, #72
 4170 0028 5B01     		lsls	r3, r3, #5
 4171 002a 0B44     		add	r3, r3, r1
 4172 002c 1A60     		str	r2, [r3]
 4173              		.loc 7 1318 0
 4174 002e 00BF     		nop
 4175 0030 02B0     		add	sp, sp, #8
 4176              		.cfi_def_cfa_offset 0
 4177              		@ sp needed
 4178 0032 7047     		bx	lr
 4179              		.cfi_endproc
 4180              	.LFE299:
 4181              		.size	usb_lld_clear_in, .-usb_lld_clear_in
 4182              		.section	.rodata
 4183              		.align	2
 4184              	.LC0:
 4185 0000 7573625F 		.ascii	"usb_lld_pump\000"
 4185      6C6C645F 
 4185      70756D70 
 4185      00
 4186              		.section	.text.usb_lld_pump,"ax",%progbits
 4187              		.align	1
 4188              		.p2align 4,,15
 4189              		.global	usb_lld_pump
 4190              		.syntax unified
 4191              		.thumb
 4192              		.thumb_func
 4193              		.fpu fpv4-sp-d16
 4194              		.type	usb_lld_pump, %function
 4195              	usb_lld_pump:
 4196              	.LFB300:
 4197              		.loc 7 1331 0
 4198              		.cfi_startproc
 4199              		@ args = 0, pretend = 0, frame = 32
 4200              		@ frame_needed = 0, uses_anonymous_args = 0
 4201 0000 00B5     		push	{lr}
 4202              		.cfi_def_cfa_offset 4
 4203              		.cfi_offset 14, -4
 4204 0002 89B0     		sub	sp, sp, #36
 4205              		.cfi_def_cfa_offset 40
 4206 0004 0190     		str	r0, [sp, #4]
ARM GAS  /tmp/ccDE0Mq0.s 			page 75


 4207              		.loc 7 1332 0
 4208 0006 019B     		ldr	r3, [sp, #4]
 4209 0008 0693     		str	r3, [sp, #24]
 4210              		.loc 7 1333 0
 4211 000a 069B     		ldr	r3, [sp, #24]
 4212 000c DB6E     		ldr	r3, [r3, #108]
 4213 000e 0593     		str	r3, [sp, #20]
 4214              		.loc 7 1336 0
 4215 0010 3D48     		ldr	r0, .L196
 4216 0012 FFF7FEFF 		bl	chRegSetThreadName
 4217              		.loc 7 1338 0
 4218 0016 FFF7FEFF 		bl	osalSysLock
 4219              	.L195:
 4220              	.LBB15:
 4221              		.loc 7 1344 0
 4222 001a 069B     		ldr	r3, [sp, #24]
 4223 001c 1B78     		ldrb	r3, [r3]	@ zero_extendqisi2
 4224 001e 012B     		cmp	r3, #1
 4225 0020 09D0     		beq	.L187
 4226              		.loc 7 1345 0 discriminator 1
 4227 0022 069B     		ldr	r3, [sp, #24]
 4228 0024 9B6F     		ldr	r3, [r3, #120]
 4229              		.loc 7 1344 0 discriminator 1
 4230 0026 002B     		cmp	r3, #0
 4231 0028 10D1     		bne	.L188
 4232              		.loc 7 1345 0
 4233 002a 059B     		ldr	r3, [sp, #20]
 4234 002c 5B69     		ldr	r3, [r3, #20]
 4235 002e 03F01003 		and	r3, r3, #16
 4236 0032 002B     		cmp	r3, #0
 4237 0034 0AD1     		bne	.L188
 4238              	.L187:
 4239              		.loc 7 1346 0
 4240 0036 059B     		ldr	r3, [sp, #20]
 4241 0038 9B69     		ldr	r3, [r3, #24]
 4242 003a 43F01002 		orr	r2, r3, #16
 4243 003e 059B     		ldr	r3, [sp, #20]
 4244 0040 9A61     		str	r2, [r3, #24]
 4245              		.loc 7 1347 0
 4246 0042 069B     		ldr	r3, [sp, #24]
 4247 0044 7C33     		adds	r3, r3, #124
 4248 0046 1846     		mov	r0, r3
 4249 0048 FFF7FEFF 		bl	osalThreadSuspendS
 4250              	.L188:
 4251              		.loc 7 1349 0
 4252 004c FFF7FEFF 		bl	osalSysUnlock
 4253              		.loc 7 1352 0
 4254 0050 0023     		movs	r3, #0
 4255 0052 8DF81F30 		strb	r3, [sp, #31]
 4256 0056 4CE0     		b	.L189
 4257              	.L191:
 4258              		.loc 7 1356 0
 4259 0058 0698     		ldr	r0, [sp, #24]
 4260 005a FFF7FEFF 		bl	otg_rxfifo_handler
 4261              	.L190:
 4262              		.loc 7 1355 0
 4263 005e 059B     		ldr	r3, [sp, #20]
ARM GAS  /tmp/ccDE0Mq0.s 			page 76


 4264 0060 5B69     		ldr	r3, [r3, #20]
 4265 0062 03F01003 		and	r3, r3, #16
 4266 0066 002B     		cmp	r3, #0
 4267 0068 F6D1     		bne	.L191
 4268              		.loc 7 1359 0
 4269 006a 9DF81F30 		ldrb	r3, [sp, #31]	@ zero_extendqisi2
 4270 006e 0122     		movs	r2, #1
 4271 0070 02FA03F3 		lsl	r3, r2, r3
 4272 0074 0493     		str	r3, [sp, #16]
 4273              		.loc 7 1360 0
 4274 0076 069B     		ldr	r3, [sp, #24]
 4275 0078 9A6F     		ldr	r2, [r3, #120]
 4276 007a 049B     		ldr	r3, [sp, #16]
 4277 007c 1340     		ands	r3, r3, r2
 4278 007e 002B     		cmp	r3, #0
 4279 0080 32D0     		beq	.L192
 4280              	.LBB16:
 4281              		.loc 7 1363 0
 4282 0082 FFF7FEFF 		bl	osalSysLock
 4283              		.loc 7 1371 0
 4284 0086 059B     		ldr	r3, [sp, #20]
 4285 0088 9B68     		ldr	r3, [r3, #8]
 4286 008a 23F00102 		bic	r2, r3, #1
 4287 008e 059B     		ldr	r3, [sp, #20]
 4288 0090 9A60     		str	r2, [r3, #8]
 4289              		.loc 7 1372 0
 4290 0092 069B     		ldr	r3, [sp, #24]
 4291 0094 9A6F     		ldr	r2, [r3, #120]
 4292 0096 049B     		ldr	r3, [sp, #16]
 4293 0098 DB43     		mvns	r3, r3
 4294 009a 1A40     		ands	r2, r2, r3
 4295 009c 069B     		ldr	r3, [sp, #24]
 4296 009e 9A67     		str	r2, [r3, #120]
 4297              		.loc 7 1373 0
 4298 00a0 FFF7FEFF 		bl	osalSysUnlock
 4299              		.loc 7 1375 0
 4300 00a4 9DF81F30 		ldrb	r3, [sp, #31]	@ zero_extendqisi2
 4301 00a8 1946     		mov	r1, r3
 4302 00aa 0698     		ldr	r0, [sp, #24]
 4303 00ac FFF7FEFF 		bl	otg_txfifo_handler
 4304 00b0 0346     		mov	r3, r0
 4305 00b2 8DF80F30 		strb	r3, [sp, #15]
 4306              		.loc 7 1377 0
 4307 00b6 FFF7FEFF 		bl	osalSysLock
 4308              		.loc 7 1378 0
 4309 00ba 059B     		ldr	r3, [sp, #20]
 4310 00bc 9B68     		ldr	r3, [r3, #8]
 4311 00be 43F00102 		orr	r2, r3, #1
 4312 00c2 059B     		ldr	r3, [sp, #20]
 4313 00c4 9A60     		str	r2, [r3, #8]
 4314              		.loc 7 1379 0
 4315 00c6 9DF80F30 		ldrb	r3, [sp, #15]
 4316 00ca 83F00103 		eor	r3, r3, #1
 4317 00ce DBB2     		uxtb	r3, r3
 4318 00d0 002B     		cmp	r3, #0
 4319 00d2 07D0     		beq	.L193
 4320              		.loc 7 1380 0
ARM GAS  /tmp/ccDE0Mq0.s 			page 77


 4321 00d4 059B     		ldr	r3, [sp, #20]
 4322 00d6 D3F83428 		ldr	r2, [r3, #2100]
 4323 00da 049B     		ldr	r3, [sp, #16]
 4324 00dc 1A43     		orrs	r2, r2, r3
 4325 00de 059B     		ldr	r3, [sp, #20]
 4326 00e0 C3F83428 		str	r2, [r3, #2100]
 4327              	.L193:
 4328              		.loc 7 1381 0
 4329 00e4 FFF7FEFF 		bl	osalSysUnlock
 4330              	.L192:
 4331              	.LBE16:
 4332              		.loc 7 1352 0 discriminator 2
 4333 00e8 9DF81F30 		ldrb	r3, [sp, #31]	@ zero_extendqisi2
 4334 00ec 0133     		adds	r3, r3, #1
 4335 00ee 8DF81F30 		strb	r3, [sp, #31]
 4336              	.L189:
 4337              		.loc 7 1352 0 is_stmt 0 discriminator 1
 4338 00f2 9DF81F20 		ldrb	r2, [sp, #31]	@ zero_extendqisi2
 4339 00f6 069B     		ldr	r3, [sp, #24]
 4340 00f8 1B6F     		ldr	r3, [r3, #112]
 4341 00fa 9B68     		ldr	r3, [r3, #8]
 4342 00fc 9A42     		cmp	r2, r3
 4343 00fe AED9     		bls	.L190
 4344              		.loc 7 1384 0 is_stmt 1
 4345 0100 FFF7FEFF 		bl	osalSysLock
 4346              	.LBE15:
 4347              		.loc 7 1339 0
 4348 0104 89E7     		b	.L195
 4349              	.L197:
 4350 0106 00BF     		.align	2
 4351              	.L196:
 4352 0108 00000000 		.word	.LC0
 4353              		.cfi_endproc
 4354              	.LFE300:
 4355              		.size	usb_lld_pump, .-usb_lld_pump
 4356              		.section	.rodata.__func__.9451,"a",%progbits
 4357              		.align	2
 4358              		.type	__func__.9451, %object
 4359              		.size	__func__.9451, 14
 4360              	__func__.9451:
 4361 0000 6F74675F 		.ascii	"otg_ram_alloc\000"
 4361      72616D5F 
 4361      616C6C6F 
 4361      6300
 4362              		.section	.rodata.__func__.9457,"a",%progbits
 4363              		.align	2
 4364              		.type	__func__.9457, %object
 4365              		.size	__func__.9457, 27
 4366              	__func__.9457:
 4367 0000 6F74675F 		.ascii	"otg_fifo_write_from_buffer\000"
 4367      6669666F 
 4367      5F777269 
 4367      74655F66 
 4367      726F6D5F 
 4368              		.section	.rodata.__func__.7702,"a",%progbits
 4369              		.align	2
 4370              		.type	__func__.7702, %object
ARM GAS  /tmp/ccDE0Mq0.s 			page 78


 4371              		.size	__func__.7702, 12
 4372              	__func__.7702:
 4373 0000 63685468 		.ascii	"chThdStartI\000"
 4373      64537461 
 4373      72744900 
 4374              		.section	.rodata.__func__.7535,"a",%progbits
 4375              		.align	2
 4376              		.type	__func__.7535, %object
 4377              		.size	__func__.7535, 12
 4378              	__func__.7535:
 4379 0000 63685379 		.ascii	"chSysUnlock\000"
 4379      73556E6C 
 4379      6F636B00 
 4380              		.text
 4381              	.Letext0:
 4382              		.file 8 "/usr/lib/gcc/arm-none-eabi/6.3.1/include/stddef.h"
 4383              		.file 9 "/usr/arm-none-eabi/include/machine/_default_types.h"
 4384              		.file 10 "/usr/arm-none-eabi/include/sys/lock.h"
 4385              		.file 11 "/usr/arm-none-eabi/include/sys/_types.h"
 4386              		.file 12 "/usr/arm-none-eabi/include/sys/reent.h"
 4387              		.file 13 "/usr/arm-none-eabi/include/sys/_stdint.h"
 4388              		.file 14 "../ChibiOS/os/rt/ports/ARMCMx/compilers/GCC/chtypes.h"
 4389              		.file 15 "../ChibiOS/os/rt/include/chsystypes.h"
 4390              		.file 16 "../ChibiOS/os/rt/include/chschd.h"
 4391              		.file 17 "../ChibiOS/os/ext/CMSIS/include/core_cm4.h"
 4392              		.file 18 "../ChibiOS/os/ext/CMSIS/ST/STM32F4xx/system_stm32f4xx.h"
 4393              		.file 19 "../ChibiOS/os/ext/CMSIS/ST/STM32F4xx/stm32f437xx.h"
 4394              		.file 20 "../ChibiOS/os/rt/ports/ARMCMx/chcore.h"
 4395              		.file 21 "../ChibiOS/os/rt/include/chtm.h"
 4396              		.file 22 "../ChibiOS/os/rt/include/chstats.h"
 4397              		.file 23 "../ChibiOS/os/rt/include/chsem.h"
 4398              		.file 24 "../ChibiOS/os/rt/include/chmtx.h"
 4399              		.file 25 "../ChibiOS/os/rt/include/chevents.h"
 4400              		.file 26 "../ChibiOS/os/rt/include/chqueues.h"
 4401              		.file 27 "../ChibiOS/os/hal/ports/STM32/LLD/DMAv2/stm32_dma.h"
 4402              		.file 28 "../ChibiOS/os/hal/ports/STM32/LLD/GPIOv2/pal_lld.h"
 4403              		.file 29 "../ChibiOS/os/hal/include/ext.h"
 4404              		.file 30 "../ChibiOS/os/hal/ports/STM32/LLD/EXTIv1/ext_lld.h"
 4405              		.file 31 "../ChibiOS/os/hal/include/gpt.h"
 4406              		.file 32 "../ChibiOS/os/hal/ports/STM32/LLD/TIMv1/gpt_lld.h"
 4407              		.file 33 "../ChibiOS/os/hal/ports/STM32/LLD/TIMv1/stm32_tim.h"
 4408              		.file 34 "../ChibiOS/os/hal/include/pwm.h"
 4409              		.file 35 "../ChibiOS/os/hal/ports/STM32/LLD/TIMv1/pwm_lld.h"
 4410              		.file 36 "../ChibiOS/os/hal/include/serial.h"
 4411              		.file 37 "../ChibiOS/os/hal/ports/STM32/LLD/USARTv1/serial_lld.h"
 4412              		.file 38 "../ChibiOS/os/hal/include/usb.h"
 4413              		.file 39 "../ChibiOS/os/hal/ports/STM32/LLD/OTGv1/usb_lld.h"
 4414              		.file 40 "../ChibiOS/os/hal/ports/STM32/LLD/OTGv1/stm32_otg.h"