ARM GAS  /tmp/ccmuN8We.s 			page 1


   1              		.cpu cortex-m4
   2              		.eabi_attribute 27, 1
   3              		.eabi_attribute 28, 1
   4              		.eabi_attribute 20, 1
   5              		.eabi_attribute 21, 1
   6              		.eabi_attribute 23, 3
   7              		.eabi_attribute 24, 1
   8              		.eabi_attribute 25, 1
   9              		.eabi_attribute 26, 1
  10              		.eabi_attribute 30, 6
  11              		.eabi_attribute 34, 1
  12              		.eabi_attribute 18, 4
  13              		.file	"usb_serial_link.c"
  14              		.text
  15              	.Ltext0:
  16              		.cfi_sections	.debug_frame
  17              		.section	.text.port_lock,"ax",%progbits
  18              		.align	1
  19              		.p2align 4,,15
  20              		.syntax unified
  21              		.thumb
  22              		.thumb_func
  23              		.fpu fpv4-sp-d16
  24              		.type	port_lock, %function
  25              	port_lock:
  26              	.LFB127:
  27              		.file 1 "../ChibiOS/os/rt/ports/ARMCMx/chcore_v7m.h"
  28              		.loc 1 456 0
  29              		.cfi_startproc
  30              		@ args = 0, pretend = 0, frame = 8
  31              		@ frame_needed = 0, uses_anonymous_args = 0
  32              		@ link register save eliminated.
  33 0000 82B0     		sub	sp, sp, #8
  34              		.cfi_def_cfa_offset 8
  35 0002 2023     		movs	r3, #32
  36 0004 0193     		str	r3, [sp, #4]
  37              	.LBB6:
  38              	.LBB7:
  39              		.file 2 "../ChibiOS/os/ext/CMSIS/include/core_cmFunc.h"
  40              		.loc 2 548 0
  41 0006 019B     		ldr	r3, [sp, #4]
  42              		.syntax unified
  43              	@ 548 "../ChibiOS/os/ext/CMSIS/include/core_cmFunc.h" 1
  44 0008 83F31188 		MSR basepri, r3
  45              	@ 0 "" 2
  46              		.thumb
  47              		.syntax unified
  48              	.LBE7:
  49              	.LBE6:
  50              		.loc 1 473 0
  51 000c 00BF     		nop
  52 000e 02B0     		add	sp, sp, #8
  53              		.cfi_def_cfa_offset 0
  54              		@ sp needed
  55 0010 7047     		bx	lr
  56              		.cfi_endproc
  57              	.LFE127:
ARM GAS  /tmp/ccmuN8We.s 			page 2


  58              		.size	port_lock, .-port_lock
  59 0012 00BF     		.section	.text.port_unlock,"ax",%progbits
  60              		.align	1
  61              		.p2align 4,,15
  62              		.syntax unified
  63              		.thumb
  64              		.thumb_func
  65              		.fpu fpv4-sp-d16
  66              		.type	port_unlock, %function
  67              	port_unlock:
  68              	.LFB128:
  69              		.loc 1 480 0
  70              		.cfi_startproc
  71              		@ args = 0, pretend = 0, frame = 8
  72              		@ frame_needed = 0, uses_anonymous_args = 0
  73              		@ link register save eliminated.
  74 0000 82B0     		sub	sp, sp, #8
  75              		.cfi_def_cfa_offset 8
  76 0002 0023     		movs	r3, #0
  77 0004 0193     		str	r3, [sp, #4]
  78              	.LBB8:
  79              	.LBB9:
  80              		.loc 2 548 0
  81 0006 019B     		ldr	r3, [sp, #4]
  82              		.syntax unified
  83              	@ 548 "../ChibiOS/os/ext/CMSIS/include/core_cmFunc.h" 1
  84 0008 83F31188 		MSR basepri, r3
  85              	@ 0 "" 2
  86              		.thumb
  87              		.syntax unified
  88              	.LBE9:
  89              	.LBE8:
  90              		.loc 1 487 0
  91 000c 00BF     		nop
  92 000e 02B0     		add	sp, sp, #8
  93              		.cfi_def_cfa_offset 0
  94              		@ sp needed
  95 0010 7047     		bx	lr
  96              		.cfi_endproc
  97              	.LFE128:
  98              		.size	port_unlock, .-port_unlock
  99 0012 00BF     		.section	.text.chSysLock,"ax",%progbits
 100              		.align	1
 101              		.p2align 4,,15
 102              		.syntax unified
 103              		.thumb
 104              		.thumb_func
 105              		.fpu fpv4-sp-d16
 106              		.type	chSysLock, %function
 107              	chSysLock:
 108              	.LFB156:
 109              		.file 3 "../ChibiOS/os/rt/include/chsys.h"
 110              		.loc 3 346 0
 111              		.cfi_startproc
 112              		@ args = 0, pretend = 0, frame = 0
 113              		@ frame_needed = 0, uses_anonymous_args = 0
 114 0000 08B5     		push	{r3, lr}
ARM GAS  /tmp/ccmuN8We.s 			page 3


 115              		.cfi_def_cfa_offset 8
 116              		.cfi_offset 3, -8
 117              		.cfi_offset 14, -4
 118              		.loc 3 348 0
 119 0002 FFF7FEFF 		bl	port_lock
 120              		.loc 3 349 0
 121 0006 FFF7FEFF 		bl	_stats_start_measure_crit_thd
 122              		.loc 3 350 0
 123 000a FFF7FEFF 		bl	_dbg_check_lock
 124              		.loc 3 351 0
 125 000e 00BF     		nop
 126 0010 08BD     		pop	{r3, pc}
 127              		.cfi_endproc
 128              	.LFE156:
 129              		.size	chSysLock, .-chSysLock
 130 0012 00BF     		.section	.text.chSysUnlock,"ax",%progbits
 131              		.align	1
 132              		.p2align 4,,15
 133              		.syntax unified
 134              		.thumb
 135              		.thumb_func
 136              		.fpu fpv4-sp-d16
 137              		.type	chSysUnlock, %function
 138              	chSysUnlock:
 139              	.LFB157:
 140              		.loc 3 358 0
 141              		.cfi_startproc
 142              		@ args = 0, pretend = 0, frame = 0
 143              		@ frame_needed = 0, uses_anonymous_args = 0
 144 0000 08B5     		push	{r3, lr}
 145              		.cfi_def_cfa_offset 8
 146              		.cfi_offset 3, -8
 147              		.cfi_offset 14, -4
 148              		.loc 3 360 0
 149 0002 FFF7FEFF 		bl	_dbg_check_unlock
 150              		.loc 3 361 0
 151 0006 FFF7FEFF 		bl	_stats_stop_measure_crit_thd
 152              		.loc 3 367 0
 153 000a 0A4B     		ldr	r3, .L6
 154 000c 1B68     		ldr	r3, [r3]
 155 000e 094A     		ldr	r2, .L6
 156 0010 9342     		cmp	r3, r2
 157 0012 0AD0     		beq	.L5
 158              		.loc 3 367 0 is_stmt 0 discriminator 2
 159 0014 074B     		ldr	r3, .L6
 160 0016 9B69     		ldr	r3, [r3, #24]
 161 0018 9A68     		ldr	r2, [r3, #8]
 162 001a 064B     		ldr	r3, .L6
 163 001c 1B68     		ldr	r3, [r3]
 164 001e 9B68     		ldr	r3, [r3, #8]
 165 0020 9A42     		cmp	r2, r3
 166 0022 02D2     		bcs	.L5
 167              		.loc 3 367 0 discriminator 3
 168 0024 0448     		ldr	r0, .L6+4
 169 0026 FFF7FEFF 		bl	chSysHalt
 170              	.L5:
 171              		.loc 3 371 0 is_stmt 1
ARM GAS  /tmp/ccmuN8We.s 			page 4


 172 002a FFF7FEFF 		bl	port_unlock
 173              		.loc 3 372 0
 174 002e 00BF     		nop
 175 0030 08BD     		pop	{r3, pc}
 176              	.L7:
 177 0032 00BF     		.align	2
 178              	.L6:
 179 0034 00000000 		.word	ch
 180 0038 00000000 		.word	__func__.7157
 181              		.cfi_endproc
 182              	.LFE157:
 183              		.size	chSysUnlock, .-chSysUnlock
 184              		.section	.text.chVTGetSystemTimeX,"ax",%progbits
 185              		.align	1
 186              		.p2align 4,,15
 187              		.syntax unified
 188              		.thumb
 189              		.thumb_func
 190              		.fpu fpv4-sp-d16
 191              		.type	chVTGetSystemTimeX, %function
 192              	chVTGetSystemTimeX:
 193              	.LFB164:
 194              		.file 4 "../ChibiOS/os/rt/include/chvt.h"
 195              		.loc 4 228 0
 196              		.cfi_startproc
 197              		@ args = 0, pretend = 0, frame = 0
 198              		@ frame_needed = 0, uses_anonymous_args = 0
 199              		@ link register save eliminated.
 200              		.loc 4 231 0
 201 0000 014B     		ldr	r3, .L10
 202 0002 9B6A     		ldr	r3, [r3, #40]
 203              		.loc 4 235 0
 204 0004 1846     		mov	r0, r3
 205 0006 7047     		bx	lr
 206              	.L11:
 207              		.align	2
 208              	.L10:
 209 0008 00000000 		.word	ch
 210              		.cfi_endproc
 211              	.LFE164:
 212              		.size	chVTGetSystemTimeX, .-chVTGetSystemTimeX
 213              		.section	.text.chVTGetSystemTime,"ax",%progbits
 214              		.align	1
 215              		.p2align 4,,15
 216              		.syntax unified
 217              		.thumb
 218              		.thumb_func
 219              		.fpu fpv4-sp-d16
 220              		.type	chVTGetSystemTime, %function
 221              	chVTGetSystemTime:
 222              	.LFB165:
 223              		.loc 4 247 0
 224              		.cfi_startproc
 225              		@ args = 0, pretend = 0, frame = 8
 226              		@ frame_needed = 0, uses_anonymous_args = 0
 227 0000 00B5     		push	{lr}
 228              		.cfi_def_cfa_offset 4
ARM GAS  /tmp/ccmuN8We.s 			page 5


 229              		.cfi_offset 14, -4
 230 0002 83B0     		sub	sp, sp, #12
 231              		.cfi_def_cfa_offset 16
 232              		.loc 4 250 0
 233 0004 FFF7FEFF 		bl	chSysLock
 234              		.loc 4 251 0
 235 0008 FFF7FEFF 		bl	chVTGetSystemTimeX
 236 000c 0190     		str	r0, [sp, #4]
 237              		.loc 4 252 0
 238 000e FFF7FEFF 		bl	chSysUnlock
 239              		.loc 4 254 0
 240 0012 019B     		ldr	r3, [sp, #4]
 241              		.loc 4 255 0
 242 0014 1846     		mov	r0, r3
 243 0016 03B0     		add	sp, sp, #12
 244              		.cfi_def_cfa_offset 4
 245              		@ sp needed
 246 0018 5DF804FB 		ldr	pc, [sp], #4
 247              		.cfi_endproc
 248              	.LFE165:
 249              		.size	chVTGetSystemTime, .-chVTGetSystemTime
 250              		.section	.text.chRegSetThreadName,"ax",%progbits
 251              		.align	1
 252              		.p2align 4,,15
 253              		.syntax unified
 254              		.thumb
 255              		.thumb_func
 256              		.fpu fpv4-sp-d16
 257              		.type	chRegSetThreadName, %function
 258              	chRegSetThreadName:
 259              	.LFB187:
 260              		.file 5 "../ChibiOS/os/rt/include/chregistry.h"
 261              		.loc 5 132 0
 262              		.cfi_startproc
 263              		@ args = 0, pretend = 0, frame = 8
 264              		@ frame_needed = 0, uses_anonymous_args = 0
 265              		@ link register save eliminated.
 266 0000 82B0     		sub	sp, sp, #8
 267              		.cfi_def_cfa_offset 8
 268 0002 0190     		str	r0, [sp, #4]
 269              		.loc 5 135 0
 270 0004 034B     		ldr	r3, .L15
 271 0006 9B69     		ldr	r3, [r3, #24]
 272 0008 019A     		ldr	r2, [sp, #4]
 273 000a 9A61     		str	r2, [r3, #24]
 274              		.loc 5 139 0
 275 000c 00BF     		nop
 276 000e 02B0     		add	sp, sp, #8
 277              		.cfi_def_cfa_offset 0
 278              		@ sp needed
 279 0010 7047     		bx	lr
 280              	.L16:
 281 0012 00BF     		.align	2
 282              	.L15:
 283 0014 00000000 		.word	ch
 284              		.cfi_endproc
 285              	.LFE187:
ARM GAS  /tmp/ccmuN8We.s 			page 6


 286              		.size	chRegSetThreadName, .-chRegSetThreadName
 287              		.section	.bss.usb_mempool,"aw",%nobits
 288              		.align	2
 289              		.type	usb_mempool, %object
 290              		.size	usb_mempool, 12
 291              	usb_mempool:
 292 0000 00000000 		.space	12
 292      00000000 
 292      00000000 
 293              		.section	.bss.usb_mailbox,"aw",%nobits
 294              		.align	2
 295              		.type	usb_mailbox, %object
 296              		.size	usb_mailbox, 40
 297              	usb_mailbox:
 298 0000 00000000 		.space	40
 298      00000000 
 298      00000000 
 298      00000000 
 298      00000000 
 299              		.section	.ccm,"aw",%progbits
 300              		.align	3
 301              		.type	usb_mempool_buffer, %object
 302              		.size	usb_mempool_buffer, 12288
 303              	usb_mempool_buffer:
 304 0000 00000000 		.space	12288
 304      00000000 
 304      00000000 
 304      00000000 
 304      00000000 
 305              		.align	2
 306              		.type	usb_mailbox_buffer, %object
 307              		.size	usb_mailbox_buffer, 384
 308              	usb_mailbox_buffer:
 309 3000 00000000 		.space	384
 309      00000000 
 309      00000000 
 309      00000000 
 309      00000000 
 310              		.section	.bss.waUSBThread,"aw",%nobits
 311              		.align	3
 312              		.type	waUSBThread, %object
 313              		.size	waUSBThread, 2416
 314              	waUSBThread:
 315 0000 00000000 		.space	2416
 315      00000000 
 315      00000000 
 315      00000000 
 315      00000000 
 316              		.section	.rodata
 317              		.align	2
 318              	.LC0:
 319 0000 55534200 		.ascii	"USB\000"
 320              		.section	.text.USBThread,"ax",%progbits
 321              		.align	1
 322              		.p2align 4,,15
 323              		.syntax unified
 324              		.thumb
ARM GAS  /tmp/ccmuN8We.s 			page 7


 325              		.thumb_func
 326              		.fpu fpv4-sp-d16
 327              		.type	USBThread, %function
 328              	USBThread:
 329              	.LFB268:
 330              		.file 6 "usb_serial_link.c"
 331              		.loc 6 37 0
 332              		.cfi_startproc
 333              		@ args = 0, pretend = 0, frame = 16
 334              		@ frame_needed = 0, uses_anonymous_args = 0
 335 0000 10B5     		push	{r4, lr}
 336              		.cfi_def_cfa_offset 8
 337              		.cfi_offset 4, -8
 338              		.cfi_offset 14, -4
 339 0002 84B0     		sub	sp, sp, #16
 340              		.cfi_def_cfa_offset 24
 341 0004 0190     		str	r0, [sp, #4]
 342              		.loc 6 40 0
 343 0006 1448     		ldr	r0, .L23
 344 0008 FFF7FEFF 		bl	chRegSetThreadName
 345              		.loc 6 50 0
 346 000c FFF7FEFF 		bl	mem_init
 347              		.loc 6 53 0
 348 0010 FFF7FEFF 		bl	usb_driver_init
 349              	.L21:
 350              		.loc 6 59 0
 351 0014 02AB     		add	r3, sp, #8
 352 0016 4FF47A72 		mov	r2, #1000
 353 001a 1946     		mov	r1, r3
 354 001c 0F48     		ldr	r0, .L23+4
 355 001e FFF7FEFF 		bl	chMBFetch
 356 0022 0390     		str	r0, [sp, #12]
 357              		.loc 6 62 0
 358 0024 039B     		ldr	r3, [sp, #12]
 359 0026 002B     		cmp	r3, #0
 360 0028 14D1     		bne	.L22
 361              		.loc 6 62 0 is_stmt 0 discriminator 2
 362 002a 029B     		ldr	r3, [sp, #8]
 363 002c 002B     		cmp	r3, #0
 364 002e 11D0     		beq	.L22
 365              		.loc 6 65 0 is_stmt 1
 366 0030 0B4B     		ldr	r3, .L23+8
 367 0032 1B68     		ldr	r3, [r3]
 368 0034 9C69     		ldr	r4, [r3, #24]
 369 0036 029B     		ldr	r3, [sp, #8]
 370 0038 1946     		mov	r1, r3
 371 003a 0A4B     		ldr	r3, .L23+12
 372 003c 1B68     		ldr	r3, [r3]
 373 003e 1A46     		mov	r2, r3
 374 0040 4FF47A73 		mov	r3, #1000
 375 0044 0648     		ldr	r0, .L23+8
 376 0046 A047     		blx	r4
 377              	.LVL0:
 378              		.loc 6 66 0
 379 0048 029B     		ldr	r3, [sp, #8]
 380 004a 1946     		mov	r1, r3
 381 004c 0648     		ldr	r0, .L23+16
ARM GAS  /tmp/ccmuN8We.s 			page 8


 382 004e FFF7FEFF 		bl	chPoolFree
 383 0052 DFE7     		b	.L21
 384              	.L22:
 385              		.loc 6 62 0
 386 0054 00BF     		nop
 387              		.loc 6 59 0
 388 0056 DDE7     		b	.L21
 389              	.L24:
 390              		.align	2
 391              	.L23:
 392 0058 00000000 		.word	.LC0
 393 005c 00000000 		.word	usb_mailbox
 394 0060 00000000 		.word	SDU1
 395 0064 00000000 		.word	packet_size.9445
 396 0068 00000000 		.word	usb_mempool
 397              		.cfi_endproc
 398              	.LFE268:
 399              		.size	USBThread, .-USBThread
 400              		.section	.text.mem_init,"ax",%progbits
 401              		.align	1
 402              		.p2align 4,,15
 403              		.syntax unified
 404              		.thumb
 405              		.thumb_func
 406              		.fpu fpv4-sp-d16
 407              		.type	mem_init, %function
 408              	mem_init:
 409              	.LFB269:
 410              		.loc 6 72 0
 411              		.cfi_startproc
 412              		@ args = 0, pretend = 0, frame = 0
 413              		@ frame_needed = 0, uses_anonymous_args = 0
 414 0000 08B5     		push	{r3, lr}
 415              		.cfi_def_cfa_offset 8
 416              		.cfi_offset 3, -8
 417              		.cfi_offset 14, -4
 418              		.loc 6 74 0
 419 0002 6022     		movs	r2, #96
 420 0004 0749     		ldr	r1, .L26
 421 0006 0848     		ldr	r0, .L26+4
 422 0008 FFF7FEFF 		bl	chMBObjectInit
 423              		.loc 6 75 0
 424 000c 0022     		movs	r2, #0
 425 000e 8021     		movs	r1, #128
 426 0010 0648     		ldr	r0, .L26+8
 427 0012 FFF7FEFF 		bl	chPoolObjectInit
 428              		.loc 6 78 0
 429 0016 6022     		movs	r2, #96
 430 0018 0549     		ldr	r1, .L26+12
 431 001a 0448     		ldr	r0, .L26+8
 432 001c FFF7FEFF 		bl	chPoolLoadArray
 433              		.loc 6 79 0
 434 0020 00BF     		nop
 435 0022 08BD     		pop	{r3, pc}
 436              	.L27:
 437              		.align	2
 438              	.L26:
ARM GAS  /tmp/ccmuN8We.s 			page 9


 439 0024 00300000 		.word	usb_mailbox_buffer
 440 0028 00000000 		.word	usb_mailbox
 441 002c 00000000 		.word	usb_mempool
 442 0030 00000000 		.word	usb_mempool_buffer
 443              		.cfi_endproc
 444              	.LFE269:
 445              		.size	mem_init, .-mem_init
 446              		.section	.text.usb_driver_init,"ax",%progbits
 447              		.align	1
 448              		.p2align 4,,15
 449              		.syntax unified
 450              		.thumb
 451              		.thumb_func
 452              		.fpu fpv4-sp-d16
 453              		.type	usb_driver_init, %function
 454              	usb_driver_init:
 455              	.LFB270:
 456              		.loc 6 83 0
 457              		.cfi_startproc
 458              		@ args = 0, pretend = 0, frame = 0
 459              		@ frame_needed = 0, uses_anonymous_args = 0
 460 0000 08B5     		push	{r3, lr}
 461              		.cfi_def_cfa_offset 8
 462              		.cfi_offset 3, -8
 463              		.cfi_offset 14, -4
 464              		.loc 6 86 0
 465 0002 1348     		ldr	r0, .L29
 466 0004 FFF7FEFF 		bl	sduObjectInit
 467              		.loc 6 87 0
 468 0008 1249     		ldr	r1, .L29+4
 469 000a 1148     		ldr	r0, .L29
 470 000c FFF7FEFF 		bl	sduStart
 471              		.loc 6 90 0
 472 0010 104B     		ldr	r3, .L29+4
 473 0012 1B68     		ldr	r3, [r3]
 474 0014 DB6E     		ldr	r3, [r3, #108]
 475 0016 0F4A     		ldr	r2, .L29+4
 476 0018 1268     		ldr	r2, [r2]
 477 001a D26E     		ldr	r2, [r2, #108]
 478 001c 926B     		ldr	r2, [r2, #56]
 479 001e 22F40012 		bic	r2, r2, #2097152
 480 0022 9A63     		str	r2, [r3, #56]
 481              		.loc 6 91 0
 482 0024 43F69820 		movw	r0, #15000
 483 0028 FFF7FEFF 		bl	chThdSleep
 484              		.loc 6 92 0
 485 002c 094B     		ldr	r3, .L29+4
 486 002e 1B68     		ldr	r3, [r3]
 487 0030 0949     		ldr	r1, .L29+8
 488 0032 1846     		mov	r0, r3
 489 0034 FFF7FEFF 		bl	usbStart
 490              		.loc 6 93 0
 491 0038 064B     		ldr	r3, .L29+4
 492 003a 1B68     		ldr	r3, [r3]
 493 003c DB6E     		ldr	r3, [r3, #108]
 494 003e 054A     		ldr	r2, .L29+4
 495 0040 1268     		ldr	r2, [r2]
ARM GAS  /tmp/ccmuN8We.s 			page 10


 496 0042 D26E     		ldr	r2, [r2, #108]
 497 0044 926B     		ldr	r2, [r2, #56]
 498 0046 42F40012 		orr	r2, r2, #2097152
 499 004a 9A63     		str	r2, [r3, #56]
 500              		.loc 6 94 0
 501 004c 00BF     		nop
 502 004e 08BD     		pop	{r3, pc}
 503              	.L30:
 504              		.align	2
 505              	.L29:
 506 0050 00000000 		.word	SDU1
 507 0054 00000000 		.word	serusbcfg
 508 0058 00000000 		.word	usbcfg
 509              		.cfi_endproc
 510              	.LFE270:
 511              		.size	usb_driver_init, .-usb_driver_init
 512              		.section	.text.usb_serial_init,"ax",%progbits
 513              		.align	1
 514              		.p2align 4,,15
 515              		.global	usb_serial_init
 516              		.syntax unified
 517              		.thumb
 518              		.thumb_func
 519              		.fpu fpv4-sp-d16
 520              		.type	usb_serial_init, %function
 521              	usb_serial_init:
 522              	.LFB271:
 523              		.loc 6 98 0
 524              		.cfi_startproc
 525              		@ args = 0, pretend = 0, frame = 0
 526              		@ frame_needed = 0, uses_anonymous_args = 0
 527 0000 00B5     		push	{lr}
 528              		.cfi_def_cfa_offset 4
 529              		.cfi_offset 14, -4
 530 0002 83B0     		sub	sp, sp, #12
 531              		.cfi_def_cfa_offset 16
 532              		.loc 6 100 0
 533 0004 0023     		movs	r3, #0
 534 0006 0093     		str	r3, [sp]
 535 0008 054B     		ldr	r3, .L32
 536 000a 4022     		movs	r2, #64
 537 000c 4FF41761 		mov	r1, #2416
 538 0010 0448     		ldr	r0, .L32+4
 539 0012 FFF7FEFF 		bl	chThdCreateStatic
 540              		.loc 6 101 0
 541 0016 00BF     		nop
 542 0018 03B0     		add	sp, sp, #12
 543              		.cfi_def_cfa_offset 4
 544              		@ sp needed
 545 001a 5DF804FB 		ldr	pc, [sp], #4
 546              	.L33:
 547 001e 00BF     		.align	2
 548              	.L32:
 549 0020 00000000 		.word	USBThread
 550 0024 00000000 		.word	waUSBThread
 551              		.cfi_endproc
 552              	.LFE271:
ARM GAS  /tmp/ccmuN8We.s 			page 11


 553              		.size	usb_serial_init, .-usb_serial_init
 554              		.section	.text._upload,"ax",%progbits
 555              		.align	1
 556              		.p2align 4,,15
 557              		.global	_upload
 558              		.syntax unified
 559              		.thumb
 560              		.thumb_func
 561              		.fpu fpv4-sp-d16
 562              		.type	_upload, %function
 563              	_upload:
 564              	.LFB272:
 565              		.loc 6 105 0
 566              		.cfi_startproc
 567              		@ args = 0, pretend = 0, frame = 16
 568              		@ frame_needed = 0, uses_anonymous_args = 0
 569 0000 00B5     		push	{lr}
 570              		.cfi_def_cfa_offset 4
 571              		.cfi_offset 14, -4
 572 0002 85B0     		sub	sp, sp, #20
 573              		.cfi_def_cfa_offset 24
 574 0004 0190     		str	r0, [sp, #4]
 575              		.loc 6 111 0
 576 0006 1048     		ldr	r0, .L38
 577 0008 FFF7FEFF 		bl	chPoolAlloc
 578 000c 0390     		str	r0, [sp, #12]
 579              		.loc 6 112 0
 580 000e 039B     		ldr	r3, [sp, #12]
 581 0010 002B     		cmp	r3, #0
 582 0012 14D0     		beq	.L37
 583              		.loc 6 115 0
 584 0014 8022     		movs	r2, #128
 585 0016 0199     		ldr	r1, [sp, #4]
 586 0018 0398     		ldr	r0, [sp, #12]
 587 001a FFF7FEFF 		bl	memcpy
 588              		.loc 6 118 0
 589 001e 039B     		ldr	r3, [sp, #12]
 590 0020 0022     		movs	r2, #0
 591 0022 1946     		mov	r1, r3
 592 0024 0948     		ldr	r0, .L38+4
 593 0026 FFF7FEFF 		bl	chMBPost
 594 002a 0290     		str	r0, [sp, #8]
 595              		.loc 6 119 0
 596 002c 029B     		ldr	r3, [sp, #8]
 597 002e 002B     		cmp	r3, #0
 598 0030 06D0     		beq	.L34
 599              		.loc 6 120 0
 600 0032 0399     		ldr	r1, [sp, #12]
 601 0034 0448     		ldr	r0, .L38
 602 0036 FFF7FEFF 		bl	chPoolFree
 603              		.loc 6 121 0
 604 003a 00BF     		nop
 605 003c 00E0     		b	.L34
 606              	.L37:
 607              		.loc 6 112 0
 608 003e 00BF     		nop
 609              	.L34:
ARM GAS  /tmp/ccmuN8We.s 			page 12


 610              		.loc 6 123 0
 611 0040 05B0     		add	sp, sp, #20
 612              		.cfi_def_cfa_offset 4
 613              		@ sp needed
 614 0042 5DF804FB 		ldr	pc, [sp], #4
 615              	.L39:
 616 0046 00BF     		.align	2
 617              	.L38:
 618 0048 00000000 		.word	usb_mempool
 619 004c 00000000 		.word	usb_mailbox
 620              		.cfi_endproc
 621              	.LFE272:
 622              		.size	_upload, .-_upload
 623              		.section	.text.upload_counts,"ax",%progbits
 624              		.align	1
 625              		.p2align 4,,15
 626              		.global	upload_counts
 627              		.syntax unified
 628              		.thumb
 629              		.thumb_func
 630              		.fpu fpv4-sp-d16
 631              		.type	upload_counts, %function
 632              	upload_counts:
 633              	.LFB273:
 634              		.loc 6 128 0
 635              		.cfi_startproc
 636              		@ args = 0, pretend = 0, frame = 136
 637              		@ frame_needed = 0, uses_anonymous_args = 0
 638 0000 00B5     		push	{lr}
 639              		.cfi_def_cfa_offset 4
 640              		.cfi_offset 14, -4
 641 0002 A3B0     		sub	sp, sp, #140
 642              		.cfi_def_cfa_offset 144
 643 0004 0190     		str	r0, [sp, #4]
 644              		.loc 6 131 0
 645 0006 0123     		movs	r3, #1
 646 0008 8DF80830 		strb	r3, [sp, #8]
 647              		.loc 6 132 0
 648 000c FFF7FEFF 		bl	chVTGetSystemTime
 649 0010 0346     		mov	r3, r0
 650 0012 CDF80930 		str	r3, [sp, #9]	@ unaligned
 651              		.loc 6 133 0
 652 0016 02AB     		add	r3, sp, #8
 653 0018 0533     		adds	r3, r3, #5
 654 001a 7B22     		movs	r2, #123
 655 001c 0021     		movs	r1, #0
 656 001e 1846     		mov	r0, r3
 657 0020 FFF7FEFF 		bl	memset
 658              		.loc 6 134 0
 659 0024 019B     		ldr	r3, [sp, #4]
 660 0026 CDF80D30 		str	r3, [sp, #13]	@ unaligned
 661              		.loc 6 135 0
 662 002a 02AB     		add	r3, sp, #8
 663 002c 1846     		mov	r0, r3
 664 002e FFF7FEFF 		bl	_upload
 665              		.loc 6 136 0
 666 0032 00BF     		nop
ARM GAS  /tmp/ccmuN8We.s 			page 13


 667 0034 23B0     		add	sp, sp, #140
 668              		.cfi_def_cfa_offset 4
 669              		@ sp needed
 670 0036 5DF804FB 		ldr	pc, [sp], #4
 671              		.cfi_endproc
 672              	.LFE273:
 673              		.size	upload_counts, .-upload_counts
 674 003a 00BF     		.section	.rodata.packet_size.9445,"a",%progbits
 675              		.align	2
 676              		.type	packet_size.9445, %object
 677              		.size	packet_size.9445, 4
 678              	packet_size.9445:
 679 0000 80000000 		.word	128
 680              		.section	.rodata.__func__.7157,"a",%progbits
 681              		.align	2
 682              		.type	__func__.7157, %object
 683              		.size	__func__.7157, 12
 684              	__func__.7157:
 685 0000 63685379 		.ascii	"chSysUnlock\000"
 685      73556E6C 
 685      6F636B00 
 686              		.text
 687              	.Letext0:
 688              		.file 7 "/usr/lib/gcc/arm-none-eabi/6.3.1/include/stddef.h"
 689              		.file 8 "/usr/arm-none-eabi/include/machine/_default_types.h"
 690              		.file 9 "/usr/arm-none-eabi/include/sys/_stdint.h"
 691              		.file 10 "../ChibiOS/os/rt/ports/ARMCMx/compilers/GCC/chtypes.h"
 692              		.file 11 "../ChibiOS/os/rt/include/chsystypes.h"
 693              		.file 12 "../ChibiOS/os/rt/include/chschd.h"
 694              		.file 13 "../ChibiOS/os/ext/CMSIS/include/core_cm4.h"
 695              		.file 14 "../ChibiOS/os/ext/CMSIS/ST/STM32F4xx/system_stm32f4xx.h"
 696              		.file 15 "../ChibiOS/os/ext/CMSIS/ST/STM32F4xx/stm32f437xx.h"
 697              		.file 16 "../ChibiOS/os/rt/ports/ARMCMx/chcore.h"
 698              		.file 17 "../ChibiOS/os/rt/include/chtm.h"
 699              		.file 18 "../ChibiOS/os/rt/include/chstats.h"
 700              		.file 19 "../ChibiOS/os/rt/include/chsem.h"
 701              		.file 20 "../ChibiOS/os/rt/include/chmtx.h"
 702              		.file 21 "../ChibiOS/os/rt/include/chevents.h"
 703              		.file 22 "../ChibiOS/os/rt/include/chmboxes.h"
 704              		.file 23 "../ChibiOS/os/rt/include/chmemcore.h"
 705              		.file 24 "../ChibiOS/os/rt/include/chmempools.h"
 706              		.file 25 "../ChibiOS/os/rt/include/chqueues.h"
 707              		.file 26 "../ChibiOS/os/hal/ports/STM32/LLD/DMAv2/stm32_dma.h"
 708              		.file 27 "../ChibiOS/os/hal/include/hal_buffers.h"
 709              		.file 28 "../ChibiOS/os/hal/ports/STM32/LLD/GPIOv2/pal_lld.h"
 710              		.file 29 "../ChibiOS/os/hal/include/ext.h"
 711              		.file 30 "../ChibiOS/os/hal/ports/STM32/LLD/EXTIv1/ext_lld.h"
 712              		.file 31 "../ChibiOS/os/hal/include/gpt.h"
 713              		.file 32 "../ChibiOS/os/hal/ports/STM32/LLD/TIMv1/gpt_lld.h"
 714              		.file 33 "../ChibiOS/os/hal/ports/STM32/LLD/TIMv1/stm32_tim.h"
 715              		.file 34 "../ChibiOS/os/hal/include/pwm.h"
 716              		.file 35 "../ChibiOS/os/hal/ports/STM32/LLD/TIMv1/pwm_lld.h"
 717              		.file 36 "../ChibiOS/os/hal/include/serial.h"
 718              		.file 37 "../ChibiOS/os/hal/ports/STM32/LLD/USARTv1/serial_lld.h"
 719              		.file 38 "../ChibiOS/os/hal/include/usb.h"
 720              		.file 39 "../ChibiOS/os/hal/ports/STM32/LLD/OTGv1/usb_lld.h"
 721              		.file 40 "../ChibiOS/os/hal/ports/STM32/LLD/OTGv1/stm32_otg.h"
ARM GAS  /tmp/ccmuN8We.s 			page 14


 722              		.file 41 "../ChibiOS/os/hal/include/serial_usb.h"
 723              		.file 42 "usbcfg.h"
 724              		.file 43 "/usr/arm-none-eabi/include/sys/lock.h"
 725              		.file 44 "/usr/arm-none-eabi/include/sys/_types.h"
 726              		.file 45 "/usr/arm-none-eabi/include/sys/reent.h"
 727              		.file 46 "usb_serial_link.h"