ARM GAS  /tmp/ccDE0Mq0.s 			page 1


   1              		.cpu cortex-m4
   2              		.eabi_attribute 27, 1
   3              		.eabi_attribute 28, 1
   4              		.eabi_attribute 20, 1
   5              		.eabi_attribute 21, 1
   6              		.eabi_attribute 23, 3
   7              		.eabi_attribute 24, 1
   8              		.eabi_attribute 25, 1
   9              		.eabi_attribute 26, 1
  10              		.eabi_attribute 30, 6
  11              		.eabi_attribute 34, 1
  12              		.eabi_attribute 18, 4
  13              		.file	"usb_lld.c"
  14              		.text
  15              	.Ltext0:
  16              		.cfi_sections	.debug_frame
  17              		.section	.text.port_lock,"ax",%progbits
  18              		.align	1
  19              		.p2align 4,,15
  20              		.syntax unified
  21              		.thumb
  22              		.thumb_func
  23              		.fpu fpv4-sp-d16
  24              		.type	port_lock, %function
  25              	port_lock:
  26              	.LFB127:
  27              		.file 1 "../ChibiOS/os/rt/ports/ARMCMx/chcore_v7m.h"
  28              		.loc 1 456 0
  29              		.cfi_startproc
  30              		@ args = 0, pretend = 0, frame = 8
  31              		@ frame_needed = 0, uses_anonymous_args = 0
  32              		@ link register save eliminated.
  33 0000 82B0     		sub	sp, sp, #8
  34              		.cfi_def_cfa_offset 8
  35 0002 2023     		movs	r3, #32
  36 0004 0193     		str	r3, [sp, #4]
  37              	.LBB6:
  38              	.LBB7:
  39              		.file 2 "../ChibiOS/os/ext/CMSIS/include/core_cmFunc.h"
  40              		.loc 2 548 0
  41 0006 019B     		ldr	r3, [sp, #4]
  42              		.syntax unified
  43              	@ 548 "../ChibiOS/os/ext/CMSIS/include/core_cmFunc.h" 1
  44 0008 83F31188 		MSR basepri, r3
  45              	@ 0 "" 2
  46              		.thumb
  47              		.syntax unified
  48              	.LBE7:
  49              	.LBE6:
  50              		.loc 1 473 0
  51 000c 00BF     		nop
  52 000e 02B0     		add	sp, sp, #8
  53              		.cfi_def_cfa_offset 0
  54              		@ sp needed
  55 0010 7047     		bx	lr
  56              		.cfi_endproc
  57              	.LFE127:
ARM GAS  /tmp/ccDE0Mq0.s 			page 2


  58              		.size	port_lock, .-port_lock
  59 0012 00BF     		.section	.text.port_unlock,"ax",%progbits
  60              		.align	1
  61              		.p2align 4,,15
  62              		.syntax unified
  63              		.thumb
  64              		.thumb_func
  65              		.fpu fpv4-sp-d16
  66              		.type	port_unlock, %function
  67              	port_unlock:
  68              	.LFB128:
  69              		.loc 1 480 0
  70              		.cfi_startproc
  71              		@ args = 0, pretend = 0, frame = 8
  72              		@ frame_needed = 0, uses_anonymous_args = 0
  73              		@ link register save eliminated.
  74 0000 82B0     		sub	sp, sp, #8
  75              		.cfi_def_cfa_offset 8
  76 0002 0023     		movs	r3, #0
  77 0004 0193     		str	r3, [sp, #4]
  78              	.LBB8:
  79              	.LBB9:
  80              		.loc 2 548 0
  81 0006 019B     		ldr	r3, [sp, #4]
  82              		.syntax unified
  83              	@ 548 "../ChibiOS/os/ext/CMSIS/include/core_cmFunc.h" 1
  84 0008 83F31188 		MSR basepri, r3
  85              	@ 0 "" 2
  86              		.thumb
  87              		.syntax unified
  88              	.LBE9:
  89              	.LBE8:
  90              		.loc 1 487 0
  91 000c 00BF     		nop
  92 000e 02B0     		add	sp, sp, #8
  93              		.cfi_def_cfa_offset 0
  94              		@ sp needed
  95 0010 7047     		bx	lr
  96              		.cfi_endproc
  97              	.LFE128:
  98              		.size	port_unlock, .-port_unlock
  99 0012 00BF     		.section	.text.port_lock_from_isr,"ax",%progbits
 100              		.align	1
 101              		.p2align 4,,15
 102              		.syntax unified
 103              		.thumb
 104              		.thumb_func
 105              		.fpu fpv4-sp-d16
 106              		.type	port_lock_from_isr, %function
 107              	port_lock_from_isr:
 108              	.LFB129:
 109              		.loc 1 495 0
 110              		.cfi_startproc
 111              		@ args = 0, pretend = 0, frame = 0
 112              		@ frame_needed = 0, uses_anonymous_args = 0
 113 0000 08B5     		push	{r3, lr}
 114              		.cfi_def_cfa_offset 8
ARM GAS  /tmp/ccDE0Mq0.s 			page 3


 115              		.cfi_offset 3, -8
 116              		.cfi_offset 14, -4
 117              		.loc 1 497 0
 118 0002 FFF7FEFF 		bl	port_lock
 119              		.loc 1 498 0
 120 0006 00BF     		nop
 121 0008 08BD     		pop	{r3, pc}
 122              		.cfi_endproc
 123              	.LFE129:
 124              		.size	port_lock_from_isr, .-port_lock_from_isr
 125              		.section	.text.port_unlock_from_isr,"ax",%progbits
 126              		.align	1
 127              		.p2align 4,,15
 128              		.syntax unified
 129              		.thumb
 130              		.thumb_func
 131              		.fpu fpv4-sp-d16
 132              		.type	port_unlock_from_isr, %function
 133              	port_unlock_from_isr:
 134              	.LFB130:
 135              		.loc 1 506 0
 136              		.cfi_startproc
 137              		@ args = 0, pretend = 0, frame = 0
 138              		@ frame_needed = 0, uses_anonymous_args = 0
 139 0000 08B5     		push	{r3, lr}
 140              		.cfi_def_cfa_offset 8
 141              		.cfi_offset 3, -8
 142              		.cfi_offset 14, -4
 143              		.loc 1 508 0
 144 0002 FFF7FEFF 		bl	port_unlock
 145              		.loc 1 509 0
 146 0006 00BF     		nop
 147 0008 08BD     		pop	{r3, pc}
 148              		.cfi_endproc
 149              	.LFE130:
 150              		.size	port_unlock_from_isr, .-port_unlock_from_isr
 151              		.section	.text.chSysLock,"ax",%progbits
 152              		.align	1
 153              		.p2align 4,,15
 154              		.syntax unified
 155              		.thumb
 156              		.thumb_func
 157              		.fpu fpv4-sp-d16
 158              		.type	chSysLock, %function
 159              	chSysLock:
 160              	.LFB156:
 161              		.file 3 "../ChibiOS/os/rt/include/chsys.h"
 162              		.loc 3 346 0
 163              		.cfi_startproc
 164              		@ args = 0, pretend = 0, frame = 0
 165              		@ frame_needed = 0, uses_anonymous_args = 0
 166 0000 08B5     		push	{r3, lr}
 167              		.cfi_def_cfa_offset 8
 168              		.cfi_offset 3, -8
 169              		.cfi_offset 14, -4
 170              		.loc 3 348 0
 171 0002 FFF7FEFF 		bl	port_lock
ARM GAS  /tmp/ccDE0Mq0.s 			page 4


 172              		.loc 3 349 0
 173 0006 FFF7FEFF 		bl	_stats_start_measure_crit_thd
 174              		.loc 3 350 0
 175 000a FFF7FEFF 		bl	_dbg_check_lock
 176              		.loc 3 351 0
 177 000e 00BF     		nop
 178 0010 08BD     		pop	{r3, pc}
 179              		.cfi_endproc
 180              	.LFE156:
 181              		.size	chSysLock, .-chSysLock
 182 0012 00BF     		.section	.text.chSysUnlock,"ax",%progbits
 183              		.align	1
 184              		.p2align 4,,15
 185              		.syntax unified
 186              		.thumb
 187              		.thumb_func
 188              		.fpu fpv4-sp-d16
 189              		.type	chSysUnlock, %function
 190              	chSysUnlock:
 191              	.LFB157:
 192              		.loc 3 358 0
 193              		.cfi_startproc
 194              		@ args = 0, pretend = 0, frame = 0
 195              		@ frame_needed = 0, uses_anonymous_args = 0
 196 0000 08B5     		push	{r3, lr}
 197              		.cfi_def_cfa_offset 8
 198              		.cfi_offset 3, -8
 199              		.cfi_offset 14, -4
 200              		.loc 3 360 0
 201 0002 FFF7FEFF 		bl	_dbg_check_unlock
 202              		.loc 3 361 0
 203 0006 FFF7FEFF 		bl	_stats_stop_measure_crit_thd
 204              		.loc 3 367 0
 205 000a 0A4B     		ldr	r3, .L8
 206 000c 1B68     		ldr	r3, [r3]
 207 000e 094A     		ldr	r2, .L8
 208 0010 9342     		cmp	r3, r2
 209 0012 0AD0     		beq	.L7
 210              		.loc 3 367 0 is_stmt 0 discriminator 2
 211 0014 074B     		ldr	r3, .L8
 212 0016 9B69     		ldr	r3, [r3, #24]
 213 0018 9A68     		ldr	r2, [r3, #8]
 214 001a 064B     		ldr	r3, .L8
 215 001c 1B68     		ldr	r3, [r3]
 216 001e 9B68     		ldr	r3, [r3, #8]
 217 0020 9A42     		cmp	r2, r3
 218 0022 02D2     		bcs	.L7
 219              		.loc 3 367 0 discriminator 3
 220 0024 0448     		ldr	r0, .L8+4
 221 0026 FFF7FEFF 		bl	chSysHalt
 222              	.L7:
 223              		.loc 3 371 0 is_stmt 1
 224 002a FFF7FEFF 		bl	port_unlock
 225              		.loc 3 372 0
 226 002e 00BF     		nop
 227 0030 08BD     		pop	{r3, pc}
 228              	.L9:
ARM GAS  /tmp/ccDE0Mq0.s 			page 5


 229 0032 00BF     		.align	2
 230              	.L8:
 231 0034 00000000 		.word	ch
 232 0038 00000000 		.word	__func__.7535
 233              		.cfi_endproc
 234              	.LFE157:
 235              		.size	chSysUnlock, .-chSysUnlock
 236              		.section	.text.chSysLockFromISR,"ax",%progbits
 237              		.align	1
 238              		.p2align 4,,15
 239              		.syntax unified
 240              		.thumb
 241              		.thumb_func
 242              		.fpu fpv4-sp-d16
 243              		.type	chSysLockFromISR, %function
 244              	chSysLockFromISR:
 245              	.LFB158:
 246              		.loc 3 386 0
 247              		.cfi_startproc
 248              		@ args = 0, pretend = 0, frame = 0
 249              		@ frame_needed = 0, uses_anonymous_args = 0
 250 0000 08B5     		push	{r3, lr}
 251              		.cfi_def_cfa_offset 8
 252              		.cfi_offset 3, -8
 253              		.cfi_offset 14, -4
 254              		.loc 3 388 0
 255 0002 FFF7FEFF 		bl	port_lock_from_isr
 256              		.loc 3 389 0
 257 0006 FFF7FEFF 		bl	_stats_start_measure_crit_isr
 258              		.loc 3 390 0
 259 000a FFF7FEFF 		bl	_dbg_check_lock_from_isr
 260              		.loc 3 391 0
 261 000e 00BF     		nop
 262 0010 08BD     		pop	{r3, pc}
 263              		.cfi_endproc
 264              	.LFE158:
 265              		.size	chSysLockFromISR, .-chSysLockFromISR
 266 0012 00BF     		.section	.text.chSysUnlockFromISR,"ax",%progbits
 267              		.align	1
 268              		.p2align 4,,15
 269              		.syntax unified
 270              		.thumb
 271              		.thumb_func
 272              		.fpu fpv4-sp-d16
 273              		.type	chSysUnlockFromISR, %function
 274              	chSysUnlockFromISR:
 275              	.LFB159:
 276              		.loc 3 406 0
 277              		.cfi_startproc
 278              		@ args = 0, pretend = 0, frame = 0
 279              		@ frame_needed = 0, uses_anonymous_args = 0
 280 0000 08B5     		push	{r3, lr}
 281              		.cfi_def_cfa_offset 8
 282              		.cfi_offset 3, -8
 283              		.cfi_offset 14, -4
 284              		.loc 3 408 0
 285 0002 FFF7FEFF 		bl	_dbg_check_unlock_from_isr
ARM GAS  /tmp/ccDE0Mq0.s 			page 6


 286              		.loc 3 409 0
 287 0006 FFF7FEFF 		bl	_stats_stop_measure_crit_isr
 288              		.loc 3 410 0
 289 000a FFF7FEFF 		bl	port_unlock_from_isr
 290              		.loc 3 411 0
 291 000e 00BF     		nop
 292 0010 08BD     		pop	{r3, pc}
 293              		.cfi_endproc
 294              	.LFE159:
 295              		.size	chSysUnlockFromISR, .-chSysUnlockFromISR
 296 0012 00BF     		.section	.text.chThdStartI,"ax",%progbits
 297              		.align	1
 298              		.p2align 4,,15
 299              		.syntax unified
 300              		.thumb
 301              		.thumb_func
 302              		.fpu fpv4-sp-d16
 303              		.type	chThdStartI, %function
 304              	chThdStartI:
 305              	.LFB182:
 306              		.file 4 "../ChibiOS/os/rt/include/chthreads.h"
 307              		.loc 4 245 0
 308              		.cfi_startproc
 309              		@ args = 0, pretend = 0, frame = 8
 310              		@ frame_needed = 0, uses_anonymous_args = 0
 311 0000 00B5     		push	{lr}
 312              		.cfi_def_cfa_offset 4
 313              		.cfi_offset 14, -4
 314 0002 83B0     		sub	sp, sp, #12
 315              		.cfi_def_cfa_offset 16
 316 0004 0190     		str	r0, [sp, #4]
 317              		.loc 4 247 0
 318 0006 019B     		ldr	r3, [sp, #4]
 319 0008 93F82030 		ldrb	r3, [r3, #32]	@ zero_extendqisi2
 320 000c 022B     		cmp	r3, #2
 321 000e 02D0     		beq	.L13
 322              		.loc 4 247 0 is_stmt 0 discriminator 2
 323 0010 0548     		ldr	r0, .L15
 324 0012 FFF7FEFF 		bl	chSysHalt
 325              	.L13:
 326              		.loc 4 249 0 is_stmt 1
 327 0016 0198     		ldr	r0, [sp, #4]
 328 0018 FFF7FEFF 		bl	chSchReadyI
 329 001c 0346     		mov	r3, r0
 330              		.loc 4 250 0
 331 001e 1846     		mov	r0, r3
 332 0020 03B0     		add	sp, sp, #12
 333              		.cfi_def_cfa_offset 4
 334              		@ sp needed
 335 0022 5DF804FB 		ldr	pc, [sp], #4
 336              	.L16:
 337 0026 00BF     		.align	2
 338              	.L15:
 339 0028 00000000 		.word	__func__.7702
 340              		.cfi_endproc
 341              	.LFE182:
 342              		.size	chThdStartI, .-chThdStartI
ARM GAS  /tmp/ccDE0Mq0.s 			page 7


 343              		.section	.text.chRegSetThreadName,"ax",%progbits
 344              		.align	1
 345              		.p2align 4,,15
 346              		.syntax unified
 347              		.thumb
 348              		.thumb_func
 349              		.fpu fpv4-sp-d16
 350              		.type	chRegSetThreadName, %function
 351              	chRegSetThreadName:
 352              	.LFB187:
 353              		.file 5 "../ChibiOS/os/rt/include/chregistry.h"
 354              		.loc 5 132 0
 355              		.cfi_startproc
 356              		@ args = 0, pretend = 0, frame = 8
 357              		@ frame_needed = 0, uses_anonymous_args = 0
 358              		@ link register save eliminated.
 359 0000 82B0     		sub	sp, sp, #8
 360              		.cfi_def_cfa_offset 8
 361 0002 0190     		str	r0, [sp, #4]
 362              		.loc 5 135 0
 363 0004 034B     		ldr	r3, .L18
 364 0006 9B69     		ldr	r3, [r3, #24]
 365 0008 019A     		ldr	r2, [sp, #4]
 366 000a 9A61     		str	r2, [r3, #24]
 367              		.loc 5 139 0
 368 000c 00BF     		nop
 369 000e 02B0     		add	sp, sp, #8
 370              		.cfi_def_cfa_offset 0
 371              		@ sp needed
 372 0010 7047     		bx	lr
 373              	.L19:
 374 0012 00BF     		.align	2
 375              	.L18:
 376 0014 00000000 		.word	ch
 377              		.cfi_endproc
 378              	.LFE187:
 379              		.size	chRegSetThreadName, .-chRegSetThreadName
 380              		.section	.text.osalSysLock,"ax",%progbits
 381              		.align	1
 382              		.p2align 4,,15
 383              		.syntax unified
 384              		.thumb
 385              		.thumb_func
 386              		.fpu fpv4-sp-d16
 387              		.type	osalSysLock, %function
 388              	osalSysLock:
 389              	.LFB235:
 390              		.file 6 "../ChibiOS/os/hal/osal/rt/osal.h"
 391              		.loc 6 491 0
 392              		.cfi_startproc
 393              		@ args = 0, pretend = 0, frame = 0
 394              		@ frame_needed = 0, uses_anonymous_args = 0
 395 0000 08B5     		push	{r3, lr}
 396              		.cfi_def_cfa_offset 8
 397              		.cfi_offset 3, -8
 398              		.cfi_offset 14, -4
 399              		.loc 6 493 0
ARM GAS  /tmp/ccDE0Mq0.s 			page 8


 400 0002 FFF7FEFF 		bl	chSysLock
 401              		.loc 6 494 0
 402 0006 00BF     		nop
 403 0008 08BD     		pop	{r3, pc}
 404              		.cfi_endproc
 405              	.LFE235:
 406              		.size	osalSysLock, .-osalSysLock
 407 000a 00BF     		.section	.text.osalSysUnlock,"ax",%progbits
 408              		.align	1
 409              		.p2align 4,,15
 410              		.syntax unified
 411              		.thumb
 412              		.thumb_func
 413              		.fpu fpv4-sp-d16
 414              		.type	osalSysUnlock, %function
 415              	osalSysUnlock:
 416              	.LFB236:
 417              		.loc 6 502 0
 418              		.cfi_startproc
 419              		@ args = 0, pretend = 0, frame = 0
 420              		@ frame_needed = 0, uses_anonymous_args = 0
 421 0000 08B5     		push	{r3, lr}
 422              		.cfi_def_cfa_offset 8
 423              		.cfi_offset 3, -8
 424              		.cfi_offset 14, -4
 425              		.loc 6 504 0
 426 0002 FFF7FEFF 		bl	chSysUnlock
 427              		.loc 6 505 0
 428 0006 00BF     		nop
 429 0008 08BD     		pop	{r3, pc}
 430              		.cfi_endproc
 431              	.LFE236:
 432              		.size	osalSysUnlock, .-osalSysUnlock
 433              		.section	.text.osalSysLockFromISR,"ax",%progbits
 434              		.align	1
 435              		.p2align 4,,15
 436              		.syntax unified
 437              		.thumb
 438              		.thumb_func
 439              		.fpu fpv4-sp-d16
 440              		.type	osalSysLockFromISR, %function
 441              	osalSysLockFromISR:
 442              	.LFB237:
 443              		.loc 6 513 0
 444              		.cfi_startproc
 445              		@ args = 0, pretend = 0, frame = 0
 446              		@ frame_needed = 0, uses_anonymous_args = 0
 447 0000 08B5     		push	{r3, lr}
 448              		.cfi_def_cfa_offset 8
 449              		.cfi_offset 3, -8
 450              		.cfi_offset 14, -4
 451              		.loc 6 515 0
 452 0002 FFF7FEFF 		bl	chSysLockFromISR
 453              		.loc 6 516 0
 454 0006 00BF     		nop
 455 0008 08BD     		pop	{r3, pc}
 456              		.cfi_endproc
ARM GAS  /tmp/ccDE0Mq0.s 			page 9


 457              	.LFE237:
 458              		.size	osalSysLockFromISR, .-osalSysLockFromISR
 459              		.section	.text.osalSysUnlockFromISR,"ax",%progbits
 460              		.align	1
 461              		.p2align 4,,15
 462              		.syntax unified
 463              		.thumb
 464              		.thumb_func
 465              		.fpu fpv4-sp-d16
 466              		.type	osalSysUnlockFromISR, %function
 467              	osalSysUnlockFromISR:
 468              	.LFB238:
 469              		.loc 6 524 0
 470              		.cfi_startproc
 471              		@ args = 0, pretend = 0, frame = 0
 472              		@ frame_needed = 0, uses_anonymous_args = 0
 473 0000 08B5     		push	{r3, lr}
 474              		.cfi_def_cfa_offset 8
 475              		.cfi_offset 3, -8
 476              		.cfi_offset 14, -4
 477              		.loc 6 526 0
 478 0002 FFF7FEFF 		bl	chSysUnlockFromISR
 479              		.loc 6 527 0
 480 0006 00BF     		nop
 481 0008 08BD     		pop	{r3, pc}
 482              		.cfi_endproc
 483              	.LFE238:
 484              		.size	osalSysUnlockFromISR, .-osalSysUnlockFromISR
 485              		.section	.text.osalSysPolledDelayX,"ax",%progbits
 486              		.align	1
 487              		.p2align 4,,15
 488              		.syntax unified
 489              		.thumb
 490              		.thumb_func
 491              		.fpu fpv4-sp-d16
 492              		.type	osalSysPolledDelayX, %function
 493              	osalSysPolledDelayX:
 494              	.LFB241:
 495              		.loc 6 571 0
 496              		.cfi_startproc
 497              		@ args = 0, pretend = 0, frame = 8
 498              		@ frame_needed = 0, uses_anonymous_args = 0
 499 0000 00B5     		push	{lr}
 500              		.cfi_def_cfa_offset 4
 501              		.cfi_offset 14, -4
 502 0002 83B0     		sub	sp, sp, #12
 503              		.cfi_def_cfa_offset 16
 504 0004 0190     		str	r0, [sp, #4]
 505              		.loc 6 573 0
 506 0006 0198     		ldr	r0, [sp, #4]
 507 0008 FFF7FEFF 		bl	chSysPolledDelayX
 508              		.loc 6 574 0
 509 000c 00BF     		nop
 510 000e 03B0     		add	sp, sp, #12
 511              		.cfi_def_cfa_offset 4
 512              		@ sp needed
 513 0010 5DF804FB 		ldr	pc, [sp], #4
ARM GAS  /tmp/ccDE0Mq0.s 			page 10


 514              		.cfi_endproc
 515              	.LFE241:
 516              		.size	osalSysPolledDelayX, .-osalSysPolledDelayX
 517              		.section	.text.osalThreadSuspendS,"ax",%progbits
 518              		.align	1
 519              		.p2align 4,,15
 520              		.syntax unified
 521              		.thumb
 522              		.thumb_func
 523              		.fpu fpv4-sp-d16
 524              		.type	osalThreadSuspendS, %function
 525              	osalThreadSuspendS:
 526              	.LFB248:
 527              		.loc 6 686 0
 528              		.cfi_startproc
 529              		@ args = 0, pretend = 0, frame = 8
 530              		@ frame_needed = 0, uses_anonymous_args = 0
 531 0000 00B5     		push	{lr}
 532              		.cfi_def_cfa_offset 4
 533              		.cfi_offset 14, -4
 534 0002 83B0     		sub	sp, sp, #12
 535              		.cfi_def_cfa_offset 16
 536 0004 0190     		str	r0, [sp, #4]
 537              		.loc 6 688 0
 538 0006 0198     		ldr	r0, [sp, #4]
 539 0008 FFF7FEFF 		bl	chThdSuspendS
 540 000c 0346     		mov	r3, r0
 541              		.loc 6 689 0
 542 000e 1846     		mov	r0, r3
 543 0010 03B0     		add	sp, sp, #12
 544              		.cfi_def_cfa_offset 4
 545              		@ sp needed
 546 0012 5DF804FB 		ldr	pc, [sp], #4
 547              		.cfi_endproc
 548              	.LFE248:
 549              		.size	osalThreadSuspendS, .-osalThreadSuspendS
 550 0016 00BF     		.section	.text.osalThreadResumeI,"ax",%progbits
 551              		.align	1
 552              		.p2align 4,,15
 553              		.syntax unified
 554              		.thumb
 555              		.thumb_func
 556              		.fpu fpv4-sp-d16
 557              		.type	osalThreadResumeI, %function
 558              	osalThreadResumeI:
 559              	.LFB250:
 560              		.loc 6 726 0
 561              		.cfi_startproc
 562              		@ args = 0, pretend = 0, frame = 8
 563              		@ frame_needed = 0, uses_anonymous_args = 0
 564 0000 00B5     		push	{lr}
 565              		.cfi_def_cfa_offset 4
 566              		.cfi_offset 14, -4
 567 0002 83B0     		sub	sp, sp, #12
 568              		.cfi_def_cfa_offset 16
 569 0004 0190     		str	r0, [sp, #4]
 570 0006 0091     		str	r1, [sp]
ARM GAS  /tmp/ccDE0Mq0.s 			page 11


 571              		.loc 6 728 0
 572 0008 0099     		ldr	r1, [sp]
 573 000a 0198     		ldr	r0, [sp, #4]
 574 000c FFF7FEFF 		bl	chThdResumeI
 575              		.loc 6 729 0
 576 0010 00BF     		nop
 577 0012 03B0     		add	sp, sp, #12
 578              		.cfi_def_cfa_offset 4
 579              		@ sp needed
 580 0014 5DF804FB 		ldr	pc, [sp], #4
 581              		.cfi_endproc
 582              	.LFE250:
 583              		.size	osalThreadResumeI, .-osalThreadResumeI
 584              		.global	USBD2
 585              		.section	.bss.USBD2,"aw",%nobits
 586              		.align	3
 587              		.type	USBD2, %object
 588              		.size	USBD2, 632
 589              	USBD2:
 590 0000 00000000 		.space	632
 590      00000000 
 590      00000000 
 590      00000000 
 590      00000000 
 591              		.section	.bss.ep0_state,"aw",%nobits
 592              		.align	2
 593              		.type	ep0_state, %object
 594              		.size	ep0_state, 20
 595              	ep0_state:
 596 0000 00000000 		.space	20
 596      00000000 
 596      00000000 
 596      00000000 
 596      00000000 
 597              		.section	.bss.ep0setup_buffer,"aw",%nobits
 598              		.align	2
 599              		.type	ep0setup_buffer, %object
 600              		.size	ep0setup_buffer, 8
 601              	ep0setup_buffer:
 602 0000 00000000 		.space	8
 602      00000000 
 603              		.section	.rodata.ep0config,"a",%progbits
 604              		.align	2
 605              		.type	ep0config, %object
 606              		.size	ep0config, 36
 607              	ep0config:
 608 0000 00000000 		.word	0
 609 0004 00000000 		.word	_usb_ep0setup
 610 0008 00000000 		.word	_usb_ep0in
 611 000c 00000000 		.word	_usb_ep0out
 612 0010 4000     		.short	64
 613 0012 4000     		.short	64
 614 0014 00000000 		.word	ep0_state
 615 0018 00000000 		.word	ep0_state
 616 001c 0100     		.short	1
 617 001e 0000     		.space	2
 618 0020 00000000 		.word	ep0setup_buffer
ARM GAS  /tmp/ccDE0Mq0.s 			page 12


 619              		.section	.rodata.hsparams,"a",%progbits
 620              		.align	2
 621              		.type	hsparams, %object
 622              		.size	hsparams, 12
 623              	hsparams:
 624 0000 00010000 		.word	256
 625 0004 00040000 		.word	1024
 626 0008 05000000 		.word	5
 627              		.section	.text.otg_core_reset,"ax",%progbits
 628              		.align	1
 629              		.p2align 4,,15
 630              		.syntax unified
 631              		.thumb
 632              		.thumb_func
 633              		.fpu fpv4-sp-d16
 634              		.type	otg_core_reset, %function
 635              	otg_core_reset:
 636              	.LFB268:
 637              		.file 7 "../ChibiOS/os/hal/ports/STM32/LLD/OTGv1/usb_lld.c"
 638              		.loc 7 134 0
 639              		.cfi_startproc
 640              		@ args = 0, pretend = 0, frame = 16
 641              		@ frame_needed = 0, uses_anonymous_args = 0
 642 0000 00B5     		push	{lr}
 643              		.cfi_def_cfa_offset 4
 644              		.cfi_offset 14, -4
 645 0002 85B0     		sub	sp, sp, #20
 646              		.cfi_def_cfa_offset 24
 647 0004 0190     		str	r0, [sp, #4]
 648              		.loc 7 135 0
 649 0006 019B     		ldr	r3, [sp, #4]
 650 0008 DB6E     		ldr	r3, [r3, #108]
 651 000a 0393     		str	r3, [sp, #12]
 652              		.loc 7 137 0
 653 000c 2020     		movs	r0, #32
 654 000e FFF7FEFF 		bl	osalSysPolledDelayX
 655              		.loc 7 140 0
 656 0012 039B     		ldr	r3, [sp, #12]
 657 0014 0122     		movs	r2, #1
 658 0016 1A61     		str	r2, [r3, #16]
 659              		.loc 7 141 0
 660 0018 00BF     		nop
 661              	.L29:
 662              		.loc 7 141 0 is_stmt 0 discriminator 1
 663 001a 039B     		ldr	r3, [sp, #12]
 664 001c 1B69     		ldr	r3, [r3, #16]
 665 001e 03F00103 		and	r3, r3, #1
 666 0022 002B     		cmp	r3, #0
 667 0024 F9D1     		bne	.L29
 668              		.loc 7 144 0 is_stmt 1
 669 0026 1220     		movs	r0, #18
 670 0028 FFF7FEFF 		bl	osalSysPolledDelayX
 671              		.loc 7 147 0
 672 002c 00BF     		nop
 673              	.L30:
 674              		.loc 7 147 0 is_stmt 0 discriminator 1
 675 002e 039B     		ldr	r3, [sp, #12]
ARM GAS  /tmp/ccDE0Mq0.s 			page 13


 676 0030 1B69     		ldr	r3, [r3, #16]
 677 0032 002B     		cmp	r3, #0
 678 0034 FBDA     		bge	.L30
 679              		.loc 7 149 0 is_stmt 1
 680 0036 00BF     		nop
 681 0038 05B0     		add	sp, sp, #20
 682              		.cfi_def_cfa_offset 4
 683              		@ sp needed
 684 003a 5DF804FB 		ldr	pc, [sp], #4
 685              		.cfi_endproc
 686              	.LFE268:
 687              		.size	otg_core_reset, .-otg_core_reset
 688 003e 00BF     		.section	.text.otg_disable_ep,"ax",%progbits
 689              		.align	1
 690              		.p2align 4,,15
 691              		.syntax unified
 692              		.thumb
 693              		.thumb_func
 694              		.fpu fpv4-sp-d16
 695              		.type	otg_disable_ep, %function
 696              	otg_disable_ep:
 697              	.LFB269:
 698              		.loc 7 151 0
 699              		.cfi_startproc
 700              		@ args = 0, pretend = 0, frame = 16
 701              		@ frame_needed = 0, uses_anonymous_args = 0
 702              		@ link register save eliminated.
 703 0000 84B0     		sub	sp, sp, #16
 704              		.cfi_def_cfa_offset 16
 705 0002 0190     		str	r0, [sp, #4]
 706              		.loc 7 152 0
 707 0004 019B     		ldr	r3, [sp, #4]
 708 0006 DB6E     		ldr	r3, [r3, #108]
 709 0008 0293     		str	r3, [sp, #8]
 710              		.loc 7 155 0
 711 000a 0023     		movs	r3, #0
 712 000c 0393     		str	r3, [sp, #12]
 713 000e 32E0     		b	.L32
 714              	.L33:
 715              		.loc 7 156 0 discriminator 3
 716 0010 029A     		ldr	r2, [sp, #8]
 717 0012 039B     		ldr	r3, [sp, #12]
 718 0014 4833     		adds	r3, r3, #72
 719 0016 5B01     		lsls	r3, r3, #5
 720 0018 1344     		add	r3, r3, r2
 721 001a 0022     		movs	r2, #0
 722 001c 1A60     		str	r2, [r3]
 723              		.loc 7 157 0 discriminator 3
 724 001e 029A     		ldr	r2, [sp, #8]
 725 0020 039B     		ldr	r3, [sp, #12]
 726 0022 5B01     		lsls	r3, r3, #5
 727 0024 1344     		add	r3, r3, r2
 728 0026 03F51163 		add	r3, r3, #2320
 729 002a 0022     		movs	r2, #0
 730 002c 1A60     		str	r2, [r3]
 731              		.loc 7 158 0 discriminator 3
 732 002e 029A     		ldr	r2, [sp, #8]
ARM GAS  /tmp/ccDE0Mq0.s 			page 14


 733 0030 039B     		ldr	r3, [sp, #12]
 734 0032 5B01     		lsls	r3, r3, #5
 735 0034 1344     		add	r3, r3, r2
 736 0036 03F60813 		addw	r3, r3, #2312
 737 003a 4FF0FF32 		mov	r2, #-1
 738 003e 1A60     		str	r2, [r3]
 739              		.loc 7 160 0 discriminator 3
 740 0040 029A     		ldr	r2, [sp, #8]
 741 0042 039B     		ldr	r3, [sp, #12]
 742 0044 5833     		adds	r3, r3, #88
 743 0046 5B01     		lsls	r3, r3, #5
 744 0048 1344     		add	r3, r3, r2
 745 004a 0022     		movs	r2, #0
 746 004c 1A60     		str	r2, [r3]
 747              		.loc 7 161 0 discriminator 3
 748 004e 029A     		ldr	r2, [sp, #8]
 749 0050 039B     		ldr	r3, [sp, #12]
 750 0052 5B01     		lsls	r3, r3, #5
 751 0054 1344     		add	r3, r3, r2
 752 0056 03F53163 		add	r3, r3, #2832
 753 005a 0022     		movs	r2, #0
 754 005c 1A60     		str	r2, [r3]
 755              		.loc 7 162 0 discriminator 3
 756 005e 029A     		ldr	r2, [sp, #8]
 757 0060 039B     		ldr	r3, [sp, #12]
 758 0062 5B01     		lsls	r3, r3, #5
 759 0064 1344     		add	r3, r3, r2
 760 0066 03F60833 		addw	r3, r3, #2824
 761 006a 4FF0FF32 		mov	r2, #-1
 762 006e 1A60     		str	r2, [r3]
 763              		.loc 7 155 0 discriminator 3
 764 0070 039B     		ldr	r3, [sp, #12]
 765 0072 0133     		adds	r3, r3, #1
 766 0074 0393     		str	r3, [sp, #12]
 767              	.L32:
 768              		.loc 7 155 0 is_stmt 0 discriminator 1
 769 0076 019B     		ldr	r3, [sp, #4]
 770 0078 1B6F     		ldr	r3, [r3, #112]
 771 007a 9A68     		ldr	r2, [r3, #8]
 772 007c 039B     		ldr	r3, [sp, #12]
 773 007e 9A42     		cmp	r2, r3
 774 0080 C6D2     		bcs	.L33
 775              		.loc 7 164 0 is_stmt 1
 776 0082 029B     		ldr	r3, [sp, #8]
 777 0084 4FF00112 		mov	r2, #65537
 778 0088 C3F81C28 		str	r2, [r3, #2076]
 779              		.loc 7 165 0
 780 008c 00BF     		nop
 781 008e 04B0     		add	sp, sp, #16
 782              		.cfi_def_cfa_offset 0
 783              		@ sp needed
 784 0090 7047     		bx	lr
 785              		.cfi_endproc
 786              	.LFE269:
 787              		.size	otg_disable_ep, .-otg_disable_ep
 788 0092 00BF     		.section	.text.otg_rxfifo_flush,"ax",%progbits
 789              		.align	1
ARM GAS  /tmp/ccDE0Mq0.s 			page 15


 790              		.p2align 4,,15
 791              		.syntax unified
 792              		.thumb
 793              		.thumb_func
 794              		.fpu fpv4-sp-d16
 795              		.type	otg_rxfifo_flush, %function
 796              	otg_rxfifo_flush:
 797              	.LFB270:
 798              		.loc 7 167 0
 799              		.cfi_startproc
 800              		@ args = 0, pretend = 0, frame = 16
 801              		@ frame_needed = 0, uses_anonymous_args = 0
 802 0000 00B5     		push	{lr}
 803              		.cfi_def_cfa_offset 4
 804              		.cfi_offset 14, -4
 805 0002 85B0     		sub	sp, sp, #20
 806              		.cfi_def_cfa_offset 24
 807 0004 0190     		str	r0, [sp, #4]
 808              		.loc 7 168 0
 809 0006 019B     		ldr	r3, [sp, #4]
 810 0008 DB6E     		ldr	r3, [r3, #108]
 811 000a 0393     		str	r3, [sp, #12]
 812              		.loc 7 170 0
 813 000c 039B     		ldr	r3, [sp, #12]
 814 000e 1022     		movs	r2, #16
 815 0010 1A61     		str	r2, [r3, #16]
 816              		.loc 7 171 0
 817 0012 00BF     		nop
 818              	.L35:
 819              		.loc 7 171 0 is_stmt 0 discriminator 1
 820 0014 039B     		ldr	r3, [sp, #12]
 821 0016 1B69     		ldr	r3, [r3, #16]
 822 0018 03F01003 		and	r3, r3, #16
 823 001c 002B     		cmp	r3, #0
 824 001e F9D1     		bne	.L35
 825              		.loc 7 174 0 is_stmt 1
 826 0020 1220     		movs	r0, #18
 827 0022 FFF7FEFF 		bl	osalSysPolledDelayX
 828              		.loc 7 175 0
 829 0026 00BF     		nop
 830 0028 05B0     		add	sp, sp, #20
 831              		.cfi_def_cfa_offset 4
 832              		@ sp needed
 833 002a 5DF804FB 		ldr	pc, [sp], #4
 834              		.cfi_endproc
 835              	.LFE270:
 836              		.size	otg_rxfifo_flush, .-otg_rxfifo_flush
 837 002e 00BF     		.section	.text.otg_txfifo_flush,"ax",%progbits
 838              		.align	1
 839              		.p2align 4,,15
 840              		.syntax unified
 841              		.thumb
 842              		.thumb_func
 843              		.fpu fpv4-sp-d16
 844              		.type	otg_txfifo_flush, %function
 845              	otg_txfifo_flush:
 846              	.LFB271:
ARM GAS  /tmp/ccDE0Mq0.s 			page 16


 847              		.loc 7 177 0
 848              		.cfi_startproc
 849              		@ args = 0, pretend = 0, frame = 16
 850              		@ frame_needed = 0, uses_anonymous_args = 0
 851 0000 00B5     		push	{lr}
 852              		.cfi_def_cfa_offset 4
 853              		.cfi_offset 14, -4
 854 0002 85B0     		sub	sp, sp, #20
 855              		.cfi_def_cfa_offset 24
 856 0004 0190     		str	r0, [sp, #4]
 857 0006 0091     		str	r1, [sp]
 858              		.loc 7 178 0
 859 0008 019B     		ldr	r3, [sp, #4]
 860 000a DB6E     		ldr	r3, [r3, #108]
 861 000c 0393     		str	r3, [sp, #12]
 862              		.loc 7 180 0
 863 000e 009B     		ldr	r3, [sp]
 864 0010 9B01     		lsls	r3, r3, #6
 865 0012 43F02002 		orr	r2, r3, #32
 866 0016 039B     		ldr	r3, [sp, #12]
 867 0018 1A61     		str	r2, [r3, #16]
 868              		.loc 7 181 0
 869 001a 00BF     		nop
 870              	.L37:
 871              		.loc 7 181 0 is_stmt 0 discriminator 1
 872 001c 039B     		ldr	r3, [sp, #12]
 873 001e 1B69     		ldr	r3, [r3, #16]
 874 0020 03F02003 		and	r3, r3, #32
 875 0024 002B     		cmp	r3, #0
 876 0026 F9D1     		bne	.L37
 877              		.loc 7 184 0 is_stmt 1
 878 0028 1220     		movs	r0, #18
 879 002a FFF7FEFF 		bl	osalSysPolledDelayX
 880              		.loc 7 185 0
 881 002e 00BF     		nop
 882 0030 05B0     		add	sp, sp, #20
 883              		.cfi_def_cfa_offset 4
 884              		@ sp needed
 885 0032 5DF804FB 		ldr	pc, [sp], #4
 886              		.cfi_endproc
 887              	.LFE271:
 888              		.size	otg_txfifo_flush, .-otg_txfifo_flush
 889 0036 00BF     		.section	.text.otg_ram_reset,"ax",%progbits
 890              		.align	1
 891              		.p2align 4,,15
 892              		.syntax unified
 893              		.thumb
 894              		.thumb_func
 895              		.fpu fpv4-sp-d16
 896              		.type	otg_ram_reset, %function
 897              	otg_ram_reset:
 898              	.LFB272:
 899              		.loc 7 194 0
 900              		.cfi_startproc
 901              		@ args = 0, pretend = 0, frame = 8
 902              		@ frame_needed = 0, uses_anonymous_args = 0
 903              		@ link register save eliminated.
ARM GAS  /tmp/ccDE0Mq0.s 			page 17


 904 0000 82B0     		sub	sp, sp, #8
 905              		.cfi_def_cfa_offset 8
 906 0002 0190     		str	r0, [sp, #4]
 907              		.loc 7 196 0
 908 0004 019B     		ldr	r3, [sp, #4]
 909 0006 1B6F     		ldr	r3, [r3, #112]
 910 0008 1A68     		ldr	r2, [r3]
 911 000a 019B     		ldr	r3, [sp, #4]
 912 000c 5A67     		str	r2, [r3, #116]
 913              		.loc 7 197 0
 914 000e 00BF     		nop
 915 0010 02B0     		add	sp, sp, #8
 916              		.cfi_def_cfa_offset 0
 917              		@ sp needed
 918 0012 7047     		bx	lr
 919              		.cfi_endproc
 920              	.LFE272:
 921              		.size	otg_ram_reset, .-otg_ram_reset
 922              		.section	.text.otg_ram_alloc,"ax",%progbits
 923              		.align	1
 924              		.p2align 4,,15
 925              		.syntax unified
 926              		.thumb
 927              		.thumb_func
 928              		.fpu fpv4-sp-d16
 929              		.type	otg_ram_alloc, %function
 930              	otg_ram_alloc:
 931              	.LFB273:
 932              		.loc 7 207 0
 933              		.cfi_startproc
 934              		@ args = 0, pretend = 0, frame = 16
 935              		@ frame_needed = 0, uses_anonymous_args = 0
 936 0000 00B5     		push	{lr}
 937              		.cfi_def_cfa_offset 4
 938              		.cfi_offset 14, -4
 939 0002 85B0     		sub	sp, sp, #20
 940              		.cfi_def_cfa_offset 24
 941 0004 0190     		str	r0, [sp, #4]
 942 0006 0091     		str	r1, [sp]
 943              		.loc 7 210 0
 944 0008 019B     		ldr	r3, [sp, #4]
 945 000a 5B6F     		ldr	r3, [r3, #116]
 946 000c 0393     		str	r3, [sp, #12]
 947              		.loc 7 211 0
 948 000e 019B     		ldr	r3, [sp, #4]
 949 0010 5A6F     		ldr	r2, [r3, #116]
 950 0012 009B     		ldr	r3, [sp]
 951 0014 1A44     		add	r2, r2, r3
 952 0016 019B     		ldr	r3, [sp, #4]
 953 0018 5A67     		str	r2, [r3, #116]
 954              		.loc 7 212 0
 955 001a 019B     		ldr	r3, [sp, #4]
 956 001c 5A6F     		ldr	r2, [r3, #116]
 957 001e 019B     		ldr	r3, [sp, #4]
 958 0020 1B6F     		ldr	r3, [r3, #112]
 959 0022 5B68     		ldr	r3, [r3, #4]
 960 0024 9A42     		cmp	r2, r3
ARM GAS  /tmp/ccDE0Mq0.s 			page 18


 961 0026 02D9     		bls	.L40
 962              		.loc 7 212 0 is_stmt 0 discriminator 2
 963 0028 0348     		ldr	r0, .L42
 964 002a FFF7FEFF 		bl	chSysHalt
 965              	.L40:
 966              		.loc 7 214 0 is_stmt 1
 967 002e 039B     		ldr	r3, [sp, #12]
 968              		.loc 7 215 0
 969 0030 1846     		mov	r0, r3
 970 0032 05B0     		add	sp, sp, #20
 971              		.cfi_def_cfa_offset 4
 972              		@ sp needed
 973 0034 5DF804FB 		ldr	pc, [sp], #4
 974              	.L43:
 975              		.align	2
 976              	.L42:
 977 0038 00000000 		.word	__func__.9451
 978              		.cfi_endproc
 979              	.LFE273:
 980              		.size	otg_ram_alloc, .-otg_ram_alloc
 981              		.section	.text.otg_fifo_write_from_buffer,"ax",%progbits
 982              		.align	1
 983              		.p2align 4,,15
 984              		.syntax unified
 985              		.thumb
 986              		.thumb_func
 987              		.fpu fpv4-sp-d16
 988              		.type	otg_fifo_write_from_buffer, %function
 989              	otg_fifo_write_from_buffer:
 990              	.LFB274:
 991              		.loc 7 228 0
 992              		.cfi_startproc
 993              		@ args = 0, pretend = 0, frame = 16
 994              		@ frame_needed = 0, uses_anonymous_args = 0
 995 0000 00B5     		push	{lr}
 996              		.cfi_def_cfa_offset 4
 997              		.cfi_offset 14, -4
 998 0002 85B0     		sub	sp, sp, #20
 999              		.cfi_def_cfa_offset 24
 1000 0004 0390     		str	r0, [sp, #12]
 1001 0006 0291     		str	r1, [sp, #8]
 1002 0008 0192     		str	r2, [sp, #4]
 1003              		.loc 7 230 0
 1004 000a 019B     		ldr	r3, [sp, #4]
 1005 000c 002B     		cmp	r3, #0
 1006 000e 02D1     		bne	.L45
 1007              		.loc 7 230 0 is_stmt 0 discriminator 2
 1008 0010 0A48     		ldr	r0, .L50
 1009 0012 FFF7FEFF 		bl	chSysHalt
 1010              	.L45:
 1011              		.loc 7 233 0 is_stmt 1
 1012 0016 029B     		ldr	r3, [sp, #8]
 1013 0018 1A68     		ldr	r2, [r3]
 1014 001a 039B     		ldr	r3, [sp, #12]
 1015 001c 1A60     		str	r2, [r3]
 1016              		.loc 7 234 0
 1017 001e 019B     		ldr	r3, [sp, #4]
ARM GAS  /tmp/ccDE0Mq0.s 			page 19


 1018 0020 042B     		cmp	r3, #4
 1019 0022 06D9     		bls	.L49
 1020              		.loc 7 237 0
 1021 0024 019B     		ldr	r3, [sp, #4]
 1022 0026 043B     		subs	r3, r3, #4
 1023 0028 0193     		str	r3, [sp, #4]
 1024              		.loc 7 238 0
 1025 002a 029B     		ldr	r3, [sp, #8]
 1026 002c 0433     		adds	r3, r3, #4
 1027 002e 0293     		str	r3, [sp, #8]
 1028              		.loc 7 233 0
 1029 0030 F1E7     		b	.L45
 1030              	.L49:
 1031              		.loc 7 235 0
 1032 0032 00BF     		nop
 1033              		.loc 7 240 0
 1034 0034 00BF     		nop
 1035 0036 05B0     		add	sp, sp, #20
 1036              		.cfi_def_cfa_offset 4
 1037              		@ sp needed
 1038 0038 5DF804FB 		ldr	pc, [sp], #4
 1039              	.L51:
 1040              		.align	2
 1041              	.L50:
 1042 003c 00000000 		.word	__func__.9457
 1043              		.cfi_endproc
 1044              	.LFE274:
 1045              		.size	otg_fifo_write_from_buffer, .-otg_fifo_write_from_buffer
 1046              		.section	.text.otg_fifo_read_to_buffer,"ax",%progbits
 1047              		.align	1
 1048              		.p2align 4,,15
 1049              		.syntax unified
 1050              		.thumb
 1051              		.thumb_func
 1052              		.fpu fpv4-sp-d16
 1053              		.type	otg_fifo_read_to_buffer, %function
 1054              	otg_fifo_read_to_buffer:
 1055              	.LFB275:
 1056              		.loc 7 255 0
 1057              		.cfi_startproc
 1058              		@ args = 0, pretend = 0, frame = 24
 1059              		@ frame_needed = 0, uses_anonymous_args = 0
 1060              		@ link register save eliminated.
 1061 0000 86B0     		sub	sp, sp, #24
 1062              		.cfi_def_cfa_offset 24
 1063 0002 0390     		str	r0, [sp, #12]
 1064 0004 0291     		str	r1, [sp, #8]
 1065 0006 0192     		str	r2, [sp, #4]
 1066 0008 0093     		str	r3, [sp]
 1067              		.loc 7 256 0
 1068 000a 0023     		movs	r3, #0
 1069 000c 0593     		str	r3, [sp, #20]
 1070              		.loc 7 257 0
 1071 000e 0023     		movs	r3, #0
 1072 0010 0493     		str	r3, [sp, #16]
 1073              		.loc 7 259 0
 1074 0012 17E0     		b	.L53
ARM GAS  /tmp/ccDE0Mq0.s 			page 20


 1075              	.L56:
 1076              		.loc 7 260 0
 1077 0014 049B     		ldr	r3, [sp, #16]
 1078 0016 03F00303 		and	r3, r3, #3
 1079 001a 002B     		cmp	r3, #0
 1080 001c 02D1     		bne	.L54
 1081              		.loc 7 261 0
 1082 001e 039B     		ldr	r3, [sp, #12]
 1083 0020 1B68     		ldr	r3, [r3]
 1084 0022 0593     		str	r3, [sp, #20]
 1085              	.L54:
 1086              		.loc 7 263 0
 1087 0024 049A     		ldr	r2, [sp, #16]
 1088 0026 009B     		ldr	r3, [sp]
 1089 0028 9A42     		cmp	r2, r3
 1090 002a 08D2     		bcs	.L55
 1091              		.loc 7 264 0
 1092 002c 029B     		ldr	r3, [sp, #8]
 1093 002e 5A1C     		adds	r2, r3, #1
 1094 0030 0292     		str	r2, [sp, #8]
 1095 0032 059A     		ldr	r2, [sp, #20]
 1096 0034 D2B2     		uxtb	r2, r2
 1097 0036 1A70     		strb	r2, [r3]
 1098              		.loc 7 265 0
 1099 0038 059B     		ldr	r3, [sp, #20]
 1100 003a 1B0A     		lsrs	r3, r3, #8
 1101 003c 0593     		str	r3, [sp, #20]
 1102              	.L55:
 1103              		.loc 7 267 0
 1104 003e 049B     		ldr	r3, [sp, #16]
 1105 0040 0133     		adds	r3, r3, #1
 1106 0042 0493     		str	r3, [sp, #16]
 1107              	.L53:
 1108              		.loc 7 259 0
 1109 0044 049A     		ldr	r2, [sp, #16]
 1110 0046 019B     		ldr	r3, [sp, #4]
 1111 0048 9A42     		cmp	r2, r3
 1112 004a E3D3     		bcc	.L56
 1113              		.loc 7 269 0
 1114 004c 00BF     		nop
 1115 004e 06B0     		add	sp, sp, #24
 1116              		.cfi_def_cfa_offset 0
 1117              		@ sp needed
 1118 0050 7047     		bx	lr
 1119              		.cfi_endproc
 1120              	.LFE275:
 1121              		.size	otg_fifo_read_to_buffer, .-otg_fifo_read_to_buffer
 1122 0052 00BF     		.section	.text.otg_rxfifo_handler,"ax",%progbits
 1123              		.align	1
 1124              		.p2align 4,,15
 1125              		.syntax unified
 1126              		.thumb
 1127              		.thumb_func
 1128              		.fpu fpv4-sp-d16
 1129              		.type	otg_rxfifo_handler, %function
 1130              	otg_rxfifo_handler:
 1131              	.LFB276:
ARM GAS  /tmp/ccDE0Mq0.s 			page 21


 1132              		.loc 7 278 0
 1133              		.cfi_startproc
 1134              		@ args = 0, pretend = 0, frame = 24
 1135              		@ frame_needed = 0, uses_anonymous_args = 0
 1136 0000 10B5     		push	{r4, lr}
 1137              		.cfi_def_cfa_offset 8
 1138              		.cfi_offset 4, -8
 1139              		.cfi_offset 14, -4
 1140 0002 86B0     		sub	sp, sp, #24
 1141              		.cfi_def_cfa_offset 32
 1142 0004 0190     		str	r0, [sp, #4]
 1143              		.loc 7 282 0
 1144 0006 019B     		ldr	r3, [sp, #4]
 1145 0008 DB6E     		ldr	r3, [r3, #108]
 1146 000a 1B6A     		ldr	r3, [r3, #32]
 1147 000c 0593     		str	r3, [sp, #20]
 1148              		.loc 7 285 0
 1149 000e 059B     		ldr	r3, [sp, #20]
 1150 0010 1B09     		lsrs	r3, r3, #4
 1151 0012 C3F30A03 		ubfx	r3, r3, #0, #11
 1152 0016 0493     		str	r3, [sp, #16]
 1153              		.loc 7 286 0
 1154 0018 059B     		ldr	r3, [sp, #20]
 1155 001a 03F00F03 		and	r3, r3, #15
 1156 001e 0393     		str	r3, [sp, #12]
 1157              		.loc 7 288 0
 1158 0020 059B     		ldr	r3, [sp, #20]
 1159 0022 03F4F013 		and	r3, r3, #1966080
 1160 0026 B3F5C02F 		cmp	r3, #393216
 1161 002a 66D0     		beq	.L66
 1162 002c B3F5C02F 		cmp	r3, #393216
 1163 0030 06D8     		bhi	.L60
 1164 0032 B3F5003F 		cmp	r3, #131072
 1165 0036 62D0     		beq	.L67
 1166 0038 B3F5802F 		cmp	r3, #262144
 1167 003c 17D0     		beq	.L62
 1168              		.loc 7 309 0
 1169 003e 61E0     		b	.L65
 1170              	.L60:
 1171              		.loc 7 288 0
 1172 0040 B3F5002F 		cmp	r3, #524288
 1173 0044 5DD0     		beq	.L68
 1174 0046 B3F5402F 		cmp	r3, #786432
 1175 004a 00D0     		beq	.L64
 1176              		.loc 7 309 0
 1177 004c 5AE0     		b	.L65
 1178              	.L64:
 1179              		.loc 7 290 0
 1180 004e 019B     		ldr	r3, [sp, #4]
 1181 0050 DB6E     		ldr	r3, [r3, #108]
 1182 0052 03F58050 		add	r0, r3, #4096
 1183 0056 019A     		ldr	r2, [sp, #4]
 1184 0058 039B     		ldr	r3, [sp, #12]
 1185 005a 0233     		adds	r3, r3, #2
 1186 005c 9B00     		lsls	r3, r3, #2
 1187 005e 1344     		add	r3, r3, r2
 1188 0060 5B68     		ldr	r3, [r3, #4]
ARM GAS  /tmp/ccDE0Mq0.s 			page 22


 1189 0062 196A     		ldr	r1, [r3, #32]
 1190 0064 0823     		movs	r3, #8
 1191 0066 049A     		ldr	r2, [sp, #16]
 1192 0068 FFF7FEFF 		bl	otg_fifo_read_to_buffer
 1193              		.loc 7 292 0
 1194 006c 4AE0     		b	.L65
 1195              	.L62:
 1196              		.loc 7 296 0
 1197 006e 019B     		ldr	r3, [sp, #4]
 1198 0070 DB6E     		ldr	r3, [r3, #108]
 1199 0072 03F58050 		add	r0, r3, #4096
 1200              		.loc 7 297 0
 1201 0076 019A     		ldr	r2, [sp, #4]
 1202 0078 039B     		ldr	r3, [sp, #12]
 1203 007a 0233     		adds	r3, r3, #2
 1204 007c 9B00     		lsls	r3, r3, #2
 1205 007e 1344     		add	r3, r3, r2
 1206 0080 5B68     		ldr	r3, [r3, #4]
 1207 0082 9B69     		ldr	r3, [r3, #24]
 1208              		.loc 7 296 0
 1209 0084 9C68     		ldr	r4, [r3, #8]
 1210              		.loc 7 299 0
 1211 0086 019A     		ldr	r2, [sp, #4]
 1212 0088 039B     		ldr	r3, [sp, #12]
 1213 008a 0233     		adds	r3, r3, #2
 1214 008c 9B00     		lsls	r3, r3, #2
 1215 008e 1344     		add	r3, r3, r2
 1216 0090 5B68     		ldr	r3, [r3, #4]
 1217 0092 9B69     		ldr	r3, [r3, #24]
 1218 0094 1A68     		ldr	r2, [r3]
 1219              		.loc 7 300 0
 1220 0096 0199     		ldr	r1, [sp, #4]
 1221 0098 039B     		ldr	r3, [sp, #12]
 1222 009a 0233     		adds	r3, r3, #2
 1223 009c 9B00     		lsls	r3, r3, #2
 1224 009e 0B44     		add	r3, r3, r1
 1225 00a0 5B68     		ldr	r3, [r3, #4]
 1226 00a2 9B69     		ldr	r3, [r3, #24]
 1227 00a4 5B68     		ldr	r3, [r3, #4]
 1228              		.loc 7 296 0
 1229 00a6 D31A     		subs	r3, r2, r3
 1230 00a8 049A     		ldr	r2, [sp, #16]
 1231 00aa 2146     		mov	r1, r4
 1232 00ac FFF7FEFF 		bl	otg_fifo_read_to_buffer
 1233              		.loc 7 301 0
 1234 00b0 019A     		ldr	r2, [sp, #4]
 1235 00b2 039B     		ldr	r3, [sp, #12]
 1236 00b4 0233     		adds	r3, r3, #2
 1237 00b6 9B00     		lsls	r3, r3, #2
 1238 00b8 1344     		add	r3, r3, r2
 1239 00ba 5B68     		ldr	r3, [r3, #4]
 1240 00bc 9A69     		ldr	r2, [r3, #24]
 1241 00be 0199     		ldr	r1, [sp, #4]
 1242 00c0 039B     		ldr	r3, [sp, #12]
 1243 00c2 0233     		adds	r3, r3, #2
 1244 00c4 9B00     		lsls	r3, r3, #2
 1245 00c6 0B44     		add	r3, r3, r1
ARM GAS  /tmp/ccDE0Mq0.s 			page 23


 1246 00c8 5B68     		ldr	r3, [r3, #4]
 1247 00ca 9B69     		ldr	r3, [r3, #24]
 1248 00cc 9968     		ldr	r1, [r3, #8]
 1249 00ce 049B     		ldr	r3, [sp, #16]
 1250 00d0 0B44     		add	r3, r3, r1
 1251 00d2 9360     		str	r3, [r2, #8]
 1252              		.loc 7 302 0
 1253 00d4 019A     		ldr	r2, [sp, #4]
 1254 00d6 039B     		ldr	r3, [sp, #12]
 1255 00d8 0233     		adds	r3, r3, #2
 1256 00da 9B00     		lsls	r3, r3, #2
 1257 00dc 1344     		add	r3, r3, r2
 1258 00de 5B68     		ldr	r3, [r3, #4]
 1259 00e0 9A69     		ldr	r2, [r3, #24]
 1260 00e2 0199     		ldr	r1, [sp, #4]
 1261 00e4 039B     		ldr	r3, [sp, #12]
 1262 00e6 0233     		adds	r3, r3, #2
 1263 00e8 9B00     		lsls	r3, r3, #2
 1264 00ea 0B44     		add	r3, r3, r1
 1265 00ec 5B68     		ldr	r3, [r3, #4]
 1266 00ee 9B69     		ldr	r3, [r3, #24]
 1267 00f0 5968     		ldr	r1, [r3, #4]
 1268 00f2 049B     		ldr	r3, [sp, #16]
 1269 00f4 0B44     		add	r3, r3, r1
 1270 00f6 5360     		str	r3, [r2, #4]
 1271              		.loc 7 303 0
 1272 00f8 04E0     		b	.L65
 1273              	.L66:
 1274              		.loc 7 305 0
 1275 00fa 00BF     		nop
 1276 00fc 02E0     		b	.L65
 1277              	.L67:
 1278              		.loc 7 307 0
 1279 00fe 00BF     		nop
 1280 0100 00E0     		b	.L65
 1281              	.L68:
 1282              		.loc 7 294 0
 1283 0102 00BF     		nop
 1284              	.L65:
 1285              		.loc 7 311 0
 1286 0104 00BF     		nop
 1287 0106 06B0     		add	sp, sp, #24
 1288              		.cfi_def_cfa_offset 8
 1289              		@ sp needed
 1290 0108 10BD     		pop	{r4, pc}
 1291              		.cfi_endproc
 1292              	.LFE276:
 1293              		.size	otg_rxfifo_handler, .-otg_rxfifo_handler
 1294 010a 00BF     		.section	.text.otg_txfifo_handler,"ax",%progbits
 1295              		.align	1
 1296              		.p2align 4,,15
 1297              		.syntax unified
 1298              		.thumb
 1299              		.thumb_func
 1300              		.fpu fpv4-sp-d16
 1301              		.type	otg_txfifo_handler, %function
 1302              	otg_txfifo_handler:
ARM GAS  /tmp/ccDE0Mq0.s 			page 24


 1303              	.LFB277:
 1304              		.loc 7 321 0
 1305              		.cfi_startproc
 1306              		@ args = 0, pretend = 0, frame = 16
 1307              		@ frame_needed = 0, uses_anonymous_args = 0
 1308 0000 00B5     		push	{lr}
 1309              		.cfi_def_cfa_offset 4
 1310              		.cfi_offset 14, -4
 1311 0002 85B0     		sub	sp, sp, #20
 1312              		.cfi_def_cfa_offset 24
 1313 0004 0190     		str	r0, [sp, #4]
 1314 0006 0B46     		mov	r3, r1
 1315 0008 8DF80330 		strb	r3, [sp, #3]
 1316              	.L74:
 1317              	.LBB10:
 1318              		.loc 7 328 0
 1319 000c 9DF80330 		ldrb	r3, [sp, #3]	@ zero_extendqisi2
 1320 0010 019A     		ldr	r2, [sp, #4]
 1321 0012 0233     		adds	r3, r3, #2
 1322 0014 9B00     		lsls	r3, r3, #2
 1323 0016 1344     		add	r3, r3, r2
 1324 0018 5B68     		ldr	r3, [r3, #4]
 1325 001a 5B69     		ldr	r3, [r3, #20]
 1326 001c 5A68     		ldr	r2, [r3, #4]
 1327 001e 9DF80330 		ldrb	r3, [sp, #3]	@ zero_extendqisi2
 1328 0022 0199     		ldr	r1, [sp, #4]
 1329 0024 0233     		adds	r3, r3, #2
 1330 0026 9B00     		lsls	r3, r3, #2
 1331 0028 0B44     		add	r3, r3, r1
 1332 002a 5B68     		ldr	r3, [r3, #4]
 1333 002c 5B69     		ldr	r3, [r3, #20]
 1334 002e 1B68     		ldr	r3, [r3]
 1335 0030 9A42     		cmp	r2, r3
 1336 0032 01D3     		bcc	.L70
 1337              		.loc 7 329 0
 1338 0034 0123     		movs	r3, #1
 1339 0036 75E0     		b	.L71
 1340              	.L70:
 1341              		.loc 7 332 0
 1342 0038 9DF80330 		ldrb	r3, [sp, #3]	@ zero_extendqisi2
 1343 003c 019A     		ldr	r2, [sp, #4]
 1344 003e 0233     		adds	r3, r3, #2
 1345 0040 9B00     		lsls	r3, r3, #2
 1346 0042 1344     		add	r3, r3, r2
 1347 0044 5B68     		ldr	r3, [r3, #4]
 1348 0046 5B69     		ldr	r3, [r3, #20]
 1349 0048 1A68     		ldr	r2, [r3]
 1350 004a 9DF80330 		ldrb	r3, [sp, #3]	@ zero_extendqisi2
 1351 004e 0199     		ldr	r1, [sp, #4]
 1352 0050 0233     		adds	r3, r3, #2
 1353 0052 9B00     		lsls	r3, r3, #2
 1354 0054 0B44     		add	r3, r3, r1
 1355 0056 5B68     		ldr	r3, [r3, #4]
 1356 0058 5B69     		ldr	r3, [r3, #20]
 1357 005a 5B68     		ldr	r3, [r3, #4]
 1358 005c D31A     		subs	r3, r2, r3
 1359 005e 0393     		str	r3, [sp, #12]
ARM GAS  /tmp/ccDE0Mq0.s 			page 25


 1360              		.loc 7 333 0
 1361 0060 9DF80330 		ldrb	r3, [sp, #3]	@ zero_extendqisi2
 1362 0064 019A     		ldr	r2, [sp, #4]
 1363 0066 0233     		adds	r3, r3, #2
 1364 0068 9B00     		lsls	r3, r3, #2
 1365 006a 1344     		add	r3, r3, r2
 1366 006c 5B68     		ldr	r3, [r3, #4]
 1367 006e 1B8A     		ldrh	r3, [r3, #16]
 1368 0070 1A46     		mov	r2, r3
 1369 0072 039B     		ldr	r3, [sp, #12]
 1370 0074 9A42     		cmp	r2, r3
 1371 0076 08D2     		bcs	.L72
 1372              		.loc 7 334 0
 1373 0078 9DF80330 		ldrb	r3, [sp, #3]	@ zero_extendqisi2
 1374 007c 019A     		ldr	r2, [sp, #4]
 1375 007e 0233     		adds	r3, r3, #2
 1376 0080 9B00     		lsls	r3, r3, #2
 1377 0082 1344     		add	r3, r3, r2
 1378 0084 5B68     		ldr	r3, [r3, #4]
 1379 0086 1B8A     		ldrh	r3, [r3, #16]
 1380 0088 0393     		str	r3, [sp, #12]
 1381              	.L72:
 1382              		.loc 7 338 0
 1383 008a 019B     		ldr	r3, [sp, #4]
 1384 008c DA6E     		ldr	r2, [r3, #108]
 1385 008e 9DF80330 		ldrb	r3, [sp, #3]	@ zero_extendqisi2
 1386 0092 5B01     		lsls	r3, r3, #5
 1387 0094 1344     		add	r3, r3, r2
 1388 0096 03F61813 		addw	r3, r3, #2328
 1389 009a 1B68     		ldr	r3, [r3]
 1390 009c 9BB2     		uxth	r3, r3
 1391 009e 9A00     		lsls	r2, r3, #2
 1392 00a0 039B     		ldr	r3, [sp, #12]
 1393 00a2 9A42     		cmp	r2, r3
 1394 00a4 01D2     		bcs	.L73
 1395              		.loc 7 339 0
 1396 00a6 0023     		movs	r3, #0
 1397 00a8 3CE0     		b	.L71
 1398              	.L73:
 1399              		.loc 7 344 0
 1400 00aa 019B     		ldr	r3, [sp, #4]
 1401 00ac DA6E     		ldr	r2, [r3, #108]
 1402 00ae 9DF80330 		ldrb	r3, [sp, #3]	@ zero_extendqisi2
 1403 00b2 0133     		adds	r3, r3, #1
 1404 00b4 1B03     		lsls	r3, r3, #12
 1405 00b6 D018     		adds	r0, r2, r3
 1406              		.loc 7 345 0
 1407 00b8 9DF80330 		ldrb	r3, [sp, #3]	@ zero_extendqisi2
 1408 00bc 019A     		ldr	r2, [sp, #4]
 1409 00be 0233     		adds	r3, r3, #2
 1410 00c0 9B00     		lsls	r3, r3, #2
 1411 00c2 1344     		add	r3, r3, r2
 1412 00c4 5B68     		ldr	r3, [r3, #4]
 1413 00c6 5B69     		ldr	r3, [r3, #20]
 1414              		.loc 7 344 0
 1415 00c8 9B68     		ldr	r3, [r3, #8]
 1416 00ca 039A     		ldr	r2, [sp, #12]
ARM GAS  /tmp/ccDE0Mq0.s 			page 26


 1417 00cc 1946     		mov	r1, r3
 1418 00ce FFF7FEFF 		bl	otg_fifo_write_from_buffer
 1419              		.loc 7 347 0
 1420 00d2 9DF80330 		ldrb	r3, [sp, #3]	@ zero_extendqisi2
 1421 00d6 019A     		ldr	r2, [sp, #4]
 1422 00d8 0233     		adds	r3, r3, #2
 1423 00da 9B00     		lsls	r3, r3, #2
 1424 00dc 1344     		add	r3, r3, r2
 1425 00de 5B68     		ldr	r3, [r3, #4]
 1426 00e0 5A69     		ldr	r2, [r3, #20]
 1427 00e2 9DF80330 		ldrb	r3, [sp, #3]	@ zero_extendqisi2
 1428 00e6 0199     		ldr	r1, [sp, #4]
 1429 00e8 0233     		adds	r3, r3, #2
 1430 00ea 9B00     		lsls	r3, r3, #2
 1431 00ec 0B44     		add	r3, r3, r1
 1432 00ee 5B68     		ldr	r3, [r3, #4]
 1433 00f0 5B69     		ldr	r3, [r3, #20]
 1434 00f2 9968     		ldr	r1, [r3, #8]
 1435 00f4 039B     		ldr	r3, [sp, #12]
 1436 00f6 0B44     		add	r3, r3, r1
 1437 00f8 9360     		str	r3, [r2, #8]
 1438              		.loc 7 351 0
 1439 00fa 9DF80330 		ldrb	r3, [sp, #3]	@ zero_extendqisi2
 1440 00fe 019A     		ldr	r2, [sp, #4]
 1441 0100 0233     		adds	r3, r3, #2
 1442 0102 9B00     		lsls	r3, r3, #2
 1443 0104 1344     		add	r3, r3, r2
 1444 0106 5B68     		ldr	r3, [r3, #4]
 1445 0108 5A69     		ldr	r2, [r3, #20]
 1446 010a 9DF80330 		ldrb	r3, [sp, #3]	@ zero_extendqisi2
 1447 010e 0199     		ldr	r1, [sp, #4]
 1448 0110 0233     		adds	r3, r3, #2
 1449 0112 9B00     		lsls	r3, r3, #2
 1450 0114 0B44     		add	r3, r3, r1
 1451 0116 5B68     		ldr	r3, [r3, #4]
 1452 0118 5B69     		ldr	r3, [r3, #20]
 1453 011a 5968     		ldr	r1, [r3, #4]
 1454 011c 039B     		ldr	r3, [sp, #12]
 1455 011e 0B44     		add	r3, r3, r1
 1456 0120 5360     		str	r3, [r2, #4]
 1457              	.LBE10:
 1458              		.loc 7 324 0
 1459 0122 73E7     		b	.L74
 1460              	.L71:
 1461              		.loc 7 353 0
 1462 0124 1846     		mov	r0, r3
 1463 0126 05B0     		add	sp, sp, #20
 1464              		.cfi_def_cfa_offset 4
 1465              		@ sp needed
 1466 0128 5DF804FB 		ldr	pc, [sp], #4
 1467              		.cfi_endproc
 1468              	.LFE277:
 1469              		.size	otg_txfifo_handler, .-otg_txfifo_handler
 1470              		.section	.text.otg_epin_handler,"ax",%progbits
 1471              		.align	1
 1472              		.p2align 4,,15
 1473              		.syntax unified
ARM GAS  /tmp/ccDE0Mq0.s 			page 27


 1474              		.thumb
 1475              		.thumb_func
 1476              		.fpu fpv4-sp-d16
 1477              		.type	otg_epin_handler, %function
 1478              	otg_epin_handler:
 1479              	.LFB278:
 1480              		.loc 7 363 0
 1481              		.cfi_startproc
 1482              		@ args = 0, pretend = 0, frame = 24
 1483              		@ frame_needed = 0, uses_anonymous_args = 0
 1484 0000 00B5     		push	{lr}
 1485              		.cfi_def_cfa_offset 4
 1486              		.cfi_offset 14, -4
 1487 0002 87B0     		sub	sp, sp, #28
 1488              		.cfi_def_cfa_offset 32
 1489 0004 0190     		str	r0, [sp, #4]
 1490 0006 0B46     		mov	r3, r1
 1491 0008 8DF80330 		strb	r3, [sp, #3]
 1492              		.loc 7 364 0
 1493 000c 019B     		ldr	r3, [sp, #4]
 1494 000e DB6E     		ldr	r3, [r3, #108]
 1495 0010 0593     		str	r3, [sp, #20]
 1496              		.loc 7 365 0
 1497 0012 9DF80330 		ldrb	r3, [sp, #3]	@ zero_extendqisi2
 1498 0016 059A     		ldr	r2, [sp, #20]
 1499 0018 5B01     		lsls	r3, r3, #5
 1500 001a 1344     		add	r3, r3, r2
 1501 001c 03F60813 		addw	r3, r3, #2312
 1502 0020 1B68     		ldr	r3, [r3]
 1503 0022 0493     		str	r3, [sp, #16]
 1504              		.loc 7 367 0
 1505 0024 9DF80330 		ldrb	r3, [sp, #3]	@ zero_extendqisi2
 1506 0028 059A     		ldr	r2, [sp, #20]
 1507 002a 5B01     		lsls	r3, r3, #5
 1508 002c 1344     		add	r3, r3, r2
 1509 002e 03F60813 		addw	r3, r3, #2312
 1510 0032 049A     		ldr	r2, [sp, #16]
 1511 0034 1A60     		str	r2, [r3]
 1512              		.loc 7 372 0
 1513 0036 049B     		ldr	r3, [sp, #16]
 1514 0038 03F00103 		and	r3, r3, #1
 1515 003c 002B     		cmp	r3, #0
 1516 003e 62D0     		beq	.L76
 1517              		.loc 7 372 0 is_stmt 0 discriminator 1
 1518 0040 059B     		ldr	r3, [sp, #20]
 1519 0042 D3F81038 		ldr	r3, [r3, #2064]
 1520 0046 03F00103 		and	r3, r3, #1
 1521 004a 002B     		cmp	r3, #0
 1522 004c 5BD0     		beq	.L76
 1523              	.LBB11:
 1524              		.loc 7 374 0 is_stmt 1
 1525 004e 9DF80330 		ldrb	r3, [sp, #3]	@ zero_extendqisi2
 1526 0052 019A     		ldr	r2, [sp, #4]
 1527 0054 0233     		adds	r3, r3, #2
 1528 0056 9B00     		lsls	r3, r3, #2
 1529 0058 1344     		add	r3, r3, r2
 1530 005a 5B68     		ldr	r3, [r3, #4]
ARM GAS  /tmp/ccDE0Mq0.s 			page 28


 1531 005c 5B69     		ldr	r3, [r3, #20]
 1532 005e 0393     		str	r3, [sp, #12]
 1533              		.loc 7 376 0
 1534 0060 039B     		ldr	r3, [sp, #12]
 1535 0062 1A68     		ldr	r2, [r3]
 1536 0064 039B     		ldr	r3, [sp, #12]
 1537 0066 1B69     		ldr	r3, [r3, #16]
 1538 0068 9A42     		cmp	r2, r3
 1539 006a 14D2     		bcs	.L77
 1540              		.loc 7 380 0
 1541 006c 039B     		ldr	r3, [sp, #12]
 1542 006e 1A69     		ldr	r2, [r3, #16]
 1543 0070 039B     		ldr	r3, [sp, #12]
 1544 0072 1B68     		ldr	r3, [r3]
 1545 0074 D21A     		subs	r2, r2, r3
 1546 0076 039B     		ldr	r3, [sp, #12]
 1547 0078 1A60     		str	r2, [r3]
 1548              		.loc 7 381 0
 1549 007a 039B     		ldr	r3, [sp, #12]
 1550 007c 0022     		movs	r2, #0
 1551 007e 5A60     		str	r2, [r3, #4]
 1552              		.loc 7 382 0
 1553 0080 FFF7FEFF 		bl	osalSysLockFromISR
 1554              		.loc 7 383 0
 1555 0084 9DF80330 		ldrb	r3, [sp, #3]	@ zero_extendqisi2
 1556 0088 1946     		mov	r1, r3
 1557 008a 0198     		ldr	r0, [sp, #4]
 1558 008c FFF7FEFF 		bl	usb_lld_start_in
 1559              		.loc 7 384 0
 1560 0090 FFF7FEFF 		bl	osalSysUnlockFromISR
 1561 0094 37E0     		b	.L76
 1562              	.L77:
 1563              		.loc 7 388 0
 1564 0096 019B     		ldr	r3, [sp, #4]
 1565 0098 1B89     		ldrh	r3, [r3, #8]
 1566 009a 1AB2     		sxth	r2, r3
 1567 009c 9DF80330 		ldrb	r3, [sp, #3]	@ zero_extendqisi2
 1568 00a0 0121     		movs	r1, #1
 1569 00a2 01FA03F3 		lsl	r3, r1, r3
 1570 00a6 1BB2     		sxth	r3, r3
 1571 00a8 DB43     		mvns	r3, r3
 1572 00aa 1BB2     		sxth	r3, r3
 1573 00ac 1340     		ands	r3, r3, r2
 1574 00ae 1BB2     		sxth	r3, r3
 1575 00b0 9AB2     		uxth	r2, r3
 1576 00b2 019B     		ldr	r3, [sp, #4]
 1577 00b4 1A81     		strh	r2, [r3, #8]	@ movhi
 1578 00b6 9DF80330 		ldrb	r3, [sp, #3]	@ zero_extendqisi2
 1579 00ba 019A     		ldr	r2, [sp, #4]
 1580 00bc 0233     		adds	r3, r3, #2
 1581 00be 9B00     		lsls	r3, r3, #2
 1582 00c0 1344     		add	r3, r3, r2
 1583 00c2 5B68     		ldr	r3, [r3, #4]
 1584 00c4 9B68     		ldr	r3, [r3, #8]
 1585 00c6 002B     		cmp	r3, #0
 1586 00c8 0CD0     		beq	.L78
 1587              		.loc 7 388 0 is_stmt 0 discriminator 1
ARM GAS  /tmp/ccDE0Mq0.s 			page 29


 1588 00ca 9DF80330 		ldrb	r3, [sp, #3]	@ zero_extendqisi2
 1589 00ce 019A     		ldr	r2, [sp, #4]
 1590 00d0 0233     		adds	r3, r3, #2
 1591 00d2 9B00     		lsls	r3, r3, #2
 1592 00d4 1344     		add	r3, r3, r2
 1593 00d6 5B68     		ldr	r3, [r3, #4]
 1594 00d8 9B68     		ldr	r3, [r3, #8]
 1595 00da 9DF80320 		ldrb	r2, [sp, #3]	@ zero_extendqisi2
 1596 00de 1146     		mov	r1, r2
 1597 00e0 0198     		ldr	r0, [sp, #4]
 1598 00e2 9847     		blx	r3
 1599              	.LVL0:
 1600              	.L78:
 1601              		.loc 7 388 0 discriminator 3
 1602 00e4 FFF7FEFF 		bl	osalSysLockFromISR
 1603 00e8 9DF80330 		ldrb	r3, [sp, #3]	@ zero_extendqisi2
 1604 00ec 019A     		ldr	r2, [sp, #4]
 1605 00ee 0233     		adds	r3, r3, #2
 1606 00f0 9B00     		lsls	r3, r3, #2
 1607 00f2 1344     		add	r3, r3, r2
 1608 00f4 5B68     		ldr	r3, [r3, #4]
 1609 00f6 5B69     		ldr	r3, [r3, #20]
 1610 00f8 0C33     		adds	r3, r3, #12
 1611 00fa 0021     		movs	r1, #0
 1612 00fc 1846     		mov	r0, r3
 1613 00fe FFF7FEFF 		bl	osalThreadResumeI
 1614 0102 FFF7FEFF 		bl	osalSysUnlockFromISR
 1615              	.L76:
 1616              	.LBE11:
 1617              		.loc 7 391 0 is_stmt 1
 1618 0106 049B     		ldr	r3, [sp, #16]
 1619 0108 03F08003 		and	r3, r3, #128
 1620 010c 002B     		cmp	r3, #0
 1621 010e 2BD0     		beq	.L80
 1622              		.loc 7 392 0 discriminator 1
 1623 0110 059B     		ldr	r3, [sp, #20]
 1624 0112 D3F83428 		ldr	r2, [r3, #2100]
 1625 0116 9DF80330 		ldrb	r3, [sp, #3]	@ zero_extendqisi2
 1626 011a 0121     		movs	r1, #1
 1627 011c 01FA03F3 		lsl	r3, r1, r3
 1628 0120 1340     		ands	r3, r3, r2
 1629              		.loc 7 391 0 discriminator 1
 1630 0122 002B     		cmp	r3, #0
 1631 0124 20D0     		beq	.L80
 1632              		.loc 7 394 0
 1633 0126 FFF7FEFF 		bl	osalSysLockFromISR
 1634              		.loc 7 395 0
 1635 012a 019B     		ldr	r3, [sp, #4]
 1636 012c 9B6F     		ldr	r3, [r3, #120]
 1637 012e 9DF80320 		ldrb	r2, [sp, #3]	@ zero_extendqisi2
 1638 0132 0121     		movs	r1, #1
 1639 0134 01FA02F2 		lsl	r2, r1, r2
 1640 0138 1A43     		orrs	r2, r2, r3
 1641 013a 019B     		ldr	r3, [sp, #4]
 1642 013c 9A67     		str	r2, [r3, #120]
 1643              		.loc 7 396 0
 1644 013e 059B     		ldr	r3, [sp, #20]
ARM GAS  /tmp/ccDE0Mq0.s 			page 30


 1645 0140 D3F83438 		ldr	r3, [r3, #2100]
 1646 0144 9DF80320 		ldrb	r2, [sp, #3]	@ zero_extendqisi2
 1647 0148 0121     		movs	r1, #1
 1648 014a 01FA02F2 		lsl	r2, r1, r2
 1649 014e D243     		mvns	r2, r2
 1650 0150 1A40     		ands	r2, r2, r3
 1651 0152 059B     		ldr	r3, [sp, #20]
 1652 0154 C3F83428 		str	r2, [r3, #2100]
 1653              		.loc 7 397 0
 1654 0158 019B     		ldr	r3, [sp, #4]
 1655 015a 7C33     		adds	r3, r3, #124
 1656 015c 0021     		movs	r1, #0
 1657 015e 1846     		mov	r0, r3
 1658 0160 FFF7FEFF 		bl	osalThreadResumeI
 1659              		.loc 7 398 0
 1660 0164 FFF7FEFF 		bl	osalSysUnlockFromISR
 1661              	.L80:
 1662              		.loc 7 400 0
 1663 0168 00BF     		nop
 1664 016a 07B0     		add	sp, sp, #28
 1665              		.cfi_def_cfa_offset 4
 1666              		@ sp needed
 1667 016c 5DF804FB 		ldr	pc, [sp], #4
 1668              		.cfi_endproc
 1669              	.LFE278:
 1670              		.size	otg_epin_handler, .-otg_epin_handler
 1671              		.section	.text.otg_epout_handler,"ax",%progbits
 1672              		.align	1
 1673              		.p2align 4,,15
 1674              		.syntax unified
 1675              		.thumb
 1676              		.thumb_func
 1677              		.fpu fpv4-sp-d16
 1678              		.type	otg_epout_handler, %function
 1679              	otg_epout_handler:
 1680              	.LFB279:
 1681              		.loc 7 410 0
 1682              		.cfi_startproc
 1683              		@ args = 0, pretend = 0, frame = 24
 1684              		@ frame_needed = 0, uses_anonymous_args = 0
 1685 0000 00B5     		push	{lr}
 1686              		.cfi_def_cfa_offset 4
 1687              		.cfi_offset 14, -4
 1688 0002 87B0     		sub	sp, sp, #28
 1689              		.cfi_def_cfa_offset 32
 1690 0004 0190     		str	r0, [sp, #4]
 1691 0006 0B46     		mov	r3, r1
 1692 0008 8DF80330 		strb	r3, [sp, #3]
 1693              		.loc 7 411 0
 1694 000c 019B     		ldr	r3, [sp, #4]
 1695 000e DB6E     		ldr	r3, [r3, #108]
 1696 0010 0593     		str	r3, [sp, #20]
 1697              		.loc 7 412 0
 1698 0012 9DF80330 		ldrb	r3, [sp, #3]	@ zero_extendqisi2
 1699 0016 059A     		ldr	r2, [sp, #20]
 1700 0018 5B01     		lsls	r3, r3, #5
 1701 001a 1344     		add	r3, r3, r2
ARM GAS  /tmp/ccDE0Mq0.s 			page 31


 1702 001c 03F60833 		addw	r3, r3, #2824
 1703 0020 1B68     		ldr	r3, [r3]
 1704 0022 0493     		str	r3, [sp, #16]
 1705              		.loc 7 415 0
 1706 0024 9DF80330 		ldrb	r3, [sp, #3]	@ zero_extendqisi2
 1707 0028 059A     		ldr	r2, [sp, #20]
 1708 002a 5B01     		lsls	r3, r3, #5
 1709 002c 1344     		add	r3, r3, r2
 1710 002e 03F60833 		addw	r3, r3, #2824
 1711 0032 049A     		ldr	r2, [sp, #16]
 1712 0034 1A60     		str	r2, [r3]
 1713              		.loc 7 417 0
 1714 0036 049B     		ldr	r3, [sp, #16]
 1715 0038 03F00803 		and	r3, r3, #8
 1716 003c 002B     		cmp	r3, #0
 1717 003e 13D0     		beq	.L82
 1718              		.loc 7 417 0 is_stmt 0 discriminator 1
 1719 0040 059B     		ldr	r3, [sp, #20]
 1720 0042 D3F81438 		ldr	r3, [r3, #2068]
 1721 0046 03F00803 		and	r3, r3, #8
 1722 004a 002B     		cmp	r3, #0
 1723 004c 0CD0     		beq	.L82
 1724              		.loc 7 420 0 is_stmt 1
 1725 004e 9DF80330 		ldrb	r3, [sp, #3]	@ zero_extendqisi2
 1726 0052 019A     		ldr	r2, [sp, #4]
 1727 0054 0233     		adds	r3, r3, #2
 1728 0056 9B00     		lsls	r3, r3, #2
 1729 0058 1344     		add	r3, r3, r2
 1730 005a 5B68     		ldr	r3, [r3, #4]
 1731 005c 5B68     		ldr	r3, [r3, #4]
 1732 005e 9DF80320 		ldrb	r2, [sp, #3]	@ zero_extendqisi2
 1733 0062 1146     		mov	r1, r2
 1734 0064 0198     		ldr	r0, [sp, #4]
 1735 0066 9847     		blx	r3
 1736              	.LVL1:
 1737              	.L82:
 1738              		.loc 7 423 0
 1739 0068 049B     		ldr	r3, [sp, #16]
 1740 006a 03F00103 		and	r3, r3, #1
 1741 006e 002B     		cmp	r3, #0
 1742 0070 00F08180 		beq	.L81
 1743              		.loc 7 423 0 is_stmt 0 discriminator 1
 1744 0074 059B     		ldr	r3, [sp, #20]
 1745 0076 D3F81438 		ldr	r3, [r3, #2068]
 1746 007a 03F00103 		and	r3, r3, #1
 1747 007e 002B     		cmp	r3, #0
 1748 0080 79D0     		beq	.L81
 1749              	.LBB12:
 1750              		.loc 7 427 0 is_stmt 1
 1751 0082 9DF80330 		ldrb	r3, [sp, #3]	@ zero_extendqisi2
 1752 0086 019A     		ldr	r2, [sp, #4]
 1753 0088 0233     		adds	r3, r3, #2
 1754 008a 9B00     		lsls	r3, r3, #2
 1755 008c 1344     		add	r3, r3, r2
 1756 008e 5B68     		ldr	r3, [r3, #4]
 1757 0090 9B69     		ldr	r3, [r3, #24]
 1758 0092 0393     		str	r3, [sp, #12]
ARM GAS  /tmp/ccDE0Mq0.s 			page 32


 1759              		.loc 7 430 0
 1760 0094 9DF80330 		ldrb	r3, [sp, #3]	@ zero_extendqisi2
 1761 0098 002B     		cmp	r3, #0
 1762 009a 2BD1     		bne	.L84
 1763              		.loc 7 444 0
 1764 009c 039B     		ldr	r3, [sp, #12]
 1765 009e 5A68     		ldr	r2, [r3, #4]
 1766 00a0 9DF80330 		ldrb	r3, [sp, #3]	@ zero_extendqisi2
 1767 00a4 0199     		ldr	r1, [sp, #4]
 1768 00a6 0233     		adds	r3, r3, #2
 1769 00a8 9B00     		lsls	r3, r3, #2
 1770 00aa 0B44     		add	r3, r3, r1
 1771 00ac 5B68     		ldr	r3, [r3, #4]
 1772 00ae 5B8A     		ldrh	r3, [r3, #18]
 1773 00b0 B2FBF3F1 		udiv	r1, r2, r3
 1774 00b4 03FB01F3 		mul	r3, r3, r1
 1775 00b8 D31A     		subs	r3, r2, r3
 1776 00ba 002B     		cmp	r3, #0
 1777 00bc 1AD1     		bne	.L84
 1778              		.loc 7 445 0 discriminator 1
 1779 00be 039B     		ldr	r3, [sp, #12]
 1780 00c0 1A68     		ldr	r2, [r3]
 1781 00c2 039B     		ldr	r3, [sp, #12]
 1782 00c4 1B69     		ldr	r3, [r3, #16]
 1783              		.loc 7 444 0 discriminator 1
 1784 00c6 9A42     		cmp	r2, r3
 1785 00c8 14D2     		bcs	.L84
 1786              		.loc 7 446 0
 1787 00ca 039B     		ldr	r3, [sp, #12]
 1788 00cc 1A69     		ldr	r2, [r3, #16]
 1789 00ce 039B     		ldr	r3, [sp, #12]
 1790 00d0 1B68     		ldr	r3, [r3]
 1791 00d2 D21A     		subs	r2, r2, r3
 1792 00d4 039B     		ldr	r3, [sp, #12]
 1793 00d6 1A60     		str	r2, [r3]
 1794              		.loc 7 447 0
 1795 00d8 039B     		ldr	r3, [sp, #12]
 1796 00da 0022     		movs	r2, #0
 1797 00dc 5A60     		str	r2, [r3, #4]
 1798              		.loc 7 448 0
 1799 00de FFF7FEFF 		bl	osalSysLockFromISR
 1800              		.loc 7 449 0
 1801 00e2 9DF80330 		ldrb	r3, [sp, #3]	@ zero_extendqisi2
 1802 00e6 1946     		mov	r1, r3
 1803 00e8 0198     		ldr	r0, [sp, #4]
 1804 00ea FFF7FEFF 		bl	usb_lld_start_out
 1805              		.loc 7 450 0
 1806 00ee FFF7FEFF 		bl	osalSysUnlockFromISR
 1807              		.loc 7 451 0
 1808 00f2 40E0     		b	.L81
 1809              	.L84:
 1810              		.loc 7 456 0
 1811 00f4 019B     		ldr	r3, [sp, #4]
 1812 00f6 5B89     		ldrh	r3, [r3, #10]
 1813 00f8 1AB2     		sxth	r2, r3
 1814 00fa 9DF80330 		ldrb	r3, [sp, #3]	@ zero_extendqisi2
 1815 00fe 0121     		movs	r1, #1
ARM GAS  /tmp/ccDE0Mq0.s 			page 33


 1816 0100 01FA03F3 		lsl	r3, r1, r3
 1817 0104 1BB2     		sxth	r3, r3
 1818 0106 DB43     		mvns	r3, r3
 1819 0108 1BB2     		sxth	r3, r3
 1820 010a 1340     		ands	r3, r3, r2
 1821 010c 1BB2     		sxth	r3, r3
 1822 010e 9AB2     		uxth	r2, r3
 1823 0110 019B     		ldr	r3, [sp, #4]
 1824 0112 5A81     		strh	r2, [r3, #10]	@ movhi
 1825 0114 9DF80330 		ldrb	r3, [sp, #3]	@ zero_extendqisi2
 1826 0118 019A     		ldr	r2, [sp, #4]
 1827 011a 0233     		adds	r3, r3, #2
 1828 011c 9B00     		lsls	r3, r3, #2
 1829 011e 1344     		add	r3, r3, r2
 1830 0120 5B68     		ldr	r3, [r3, #4]
 1831 0122 DB68     		ldr	r3, [r3, #12]
 1832 0124 002B     		cmp	r3, #0
 1833 0126 0CD0     		beq	.L85
 1834              		.loc 7 456 0 is_stmt 0 discriminator 1
 1835 0128 9DF80330 		ldrb	r3, [sp, #3]	@ zero_extendqisi2
 1836 012c 019A     		ldr	r2, [sp, #4]
 1837 012e 0233     		adds	r3, r3, #2
 1838 0130 9B00     		lsls	r3, r3, #2
 1839 0132 1344     		add	r3, r3, r2
 1840 0134 5B68     		ldr	r3, [r3, #4]
 1841 0136 DB68     		ldr	r3, [r3, #12]
 1842 0138 9DF80320 		ldrb	r2, [sp, #3]	@ zero_extendqisi2
 1843 013c 1146     		mov	r1, r2
 1844 013e 0198     		ldr	r0, [sp, #4]
 1845 0140 9847     		blx	r3
 1846              	.LVL2:
 1847              	.L85:
 1848              		.loc 7 456 0 discriminator 3
 1849 0142 FFF7FEFF 		bl	osalSysLockFromISR
 1850 0146 9DF80330 		ldrb	r3, [sp, #3]	@ zero_extendqisi2
 1851 014a 019A     		ldr	r2, [sp, #4]
 1852 014c 0233     		adds	r3, r3, #2
 1853 014e 9B00     		lsls	r3, r3, #2
 1854 0150 1344     		add	r3, r3, r2
 1855 0152 5B68     		ldr	r3, [r3, #4]
 1856 0154 9B69     		ldr	r3, [r3, #24]
 1857 0156 03F10C00 		add	r0, r3, #12
 1858 015a 9DF80330 		ldrb	r3, [sp, #3]	@ zero_extendqisi2
 1859 015e 019A     		ldr	r2, [sp, #4]
 1860 0160 0233     		adds	r3, r3, #2
 1861 0162 9B00     		lsls	r3, r3, #2
 1862 0164 1344     		add	r3, r3, r2
 1863 0166 5B68     		ldr	r3, [r3, #4]
 1864 0168 9B69     		ldr	r3, [r3, #24]
 1865 016a 5B68     		ldr	r3, [r3, #4]
 1866 016c 1946     		mov	r1, r3
 1867 016e FFF7FEFF 		bl	osalThreadResumeI
 1868 0172 FFF7FEFF 		bl	osalSysUnlockFromISR
 1869              	.L81:
 1870              	.LBE12:
 1871              		.loc 7 458 0 is_stmt 1
 1872 0176 07B0     		add	sp, sp, #28
ARM GAS  /tmp/ccDE0Mq0.s 			page 34


 1873              		.cfi_def_cfa_offset 4
 1874              		@ sp needed
 1875 0178 5DF804FB 		ldr	pc, [sp], #4
 1876              		.cfi_endproc
 1877              	.LFE279:
 1878              		.size	otg_epout_handler, .-otg_epout_handler
 1879              		.section	.text.otg_isoc_in_failed_handler,"ax",%progbits
 1880              		.align	1
 1881              		.p2align 4,,15
 1882              		.syntax unified
 1883              		.thumb
 1884              		.thumb_func
 1885              		.fpu fpv4-sp-d16
 1886              		.type	otg_isoc_in_failed_handler, %function
 1887              	otg_isoc_in_failed_handler:
 1888              	.LFB280:
 1889              		.loc 7 467 0
 1890              		.cfi_startproc
 1891              		@ args = 0, pretend = 0, frame = 16
 1892              		@ frame_needed = 0, uses_anonymous_args = 0
 1893 0000 00B5     		push	{lr}
 1894              		.cfi_def_cfa_offset 4
 1895              		.cfi_offset 14, -4
 1896 0002 85B0     		sub	sp, sp, #20
 1897              		.cfi_def_cfa_offset 24
 1898 0004 0190     		str	r0, [sp, #4]
 1899              		.loc 7 469 0
 1900 0006 019B     		ldr	r3, [sp, #4]
 1901 0008 DB6E     		ldr	r3, [r3, #108]
 1902 000a 0293     		str	r3, [sp, #8]
 1903              		.loc 7 471 0
 1904 000c 0023     		movs	r3, #0
 1905 000e 8DF80F30 		strb	r3, [sp, #15]
 1906 0012 93E0     		b	.L87
 1907              	.L91:
 1908              		.loc 7 472 0
 1909 0014 9DF80F30 		ldrb	r3, [sp, #15]	@ zero_extendqisi2
 1910 0018 029A     		ldr	r2, [sp, #8]
 1911 001a 4833     		adds	r3, r3, #72
 1912 001c 5B01     		lsls	r3, r3, #5
 1913 001e 1344     		add	r3, r3, r2
 1914 0020 1B68     		ldr	r3, [r3]
 1915 0022 03F44023 		and	r3, r3, #786432
 1916 0026 B3F5802F 		cmp	r3, #262144
 1917 002a 40F08280 		bne	.L88
 1918              		.loc 7 473 0 discriminator 1
 1919 002e 9DF80F30 		ldrb	r3, [sp, #15]	@ zero_extendqisi2
 1920 0032 029A     		ldr	r2, [sp, #8]
 1921 0034 4833     		adds	r3, r3, #72
 1922 0036 5B01     		lsls	r3, r3, #5
 1923 0038 1344     		add	r3, r3, r2
 1924 003a 1B68     		ldr	r3, [r3]
 1925              		.loc 7 472 0 discriminator 1
 1926 003c 002B     		cmp	r3, #0
 1927 003e 78DA     		bge	.L88
 1928              		.loc 7 476 0
 1929 0040 9DF80F30 		ldrb	r3, [sp, #15]	@ zero_extendqisi2
ARM GAS  /tmp/ccDE0Mq0.s 			page 35


 1930 0044 9DF80F20 		ldrb	r2, [sp, #15]	@ zero_extendqisi2
 1931 0048 0299     		ldr	r1, [sp, #8]
 1932 004a 4832     		adds	r2, r2, #72
 1933 004c 5201     		lsls	r2, r2, #5
 1934 004e 0A44     		add	r2, r2, r1
 1935 0050 1268     		ldr	r2, [r2]
 1936 0052 42F09042 		orr	r2, r2, #1207959552
 1937 0056 0299     		ldr	r1, [sp, #8]
 1938 0058 4833     		adds	r3, r3, #72
 1939 005a 5B01     		lsls	r3, r3, #5
 1940 005c 0B44     		add	r3, r3, r1
 1941 005e 1A60     		str	r2, [r3]
 1942              		.loc 7 477 0
 1943 0060 00BF     		nop
 1944              	.L89:
 1945              		.loc 7 477 0 is_stmt 0 discriminator 1
 1946 0062 9DF80F30 		ldrb	r3, [sp, #15]	@ zero_extendqisi2
 1947 0066 029A     		ldr	r2, [sp, #8]
 1948 0068 4833     		adds	r3, r3, #72
 1949 006a 5B01     		lsls	r3, r3, #5
 1950 006c 1344     		add	r3, r3, r2
 1951 006e 1B68     		ldr	r3, [r3]
 1952 0070 002B     		cmp	r3, #0
 1953 0072 F6DB     		blt	.L89
 1954              		.loc 7 481 0 is_stmt 1
 1955 0074 9DF80F30 		ldrb	r3, [sp, #15]	@ zero_extendqisi2
 1956 0078 1946     		mov	r1, r3
 1957 007a 0198     		ldr	r0, [sp, #4]
 1958 007c FFF7FEFF 		bl	otg_txfifo_flush
 1959              		.loc 7 484 0
 1960 0080 019B     		ldr	r3, [sp, #4]
 1961 0082 1B89     		ldrh	r3, [r3, #8]
 1962 0084 1AB2     		sxth	r2, r3
 1963 0086 9DF80F30 		ldrb	r3, [sp, #15]	@ zero_extendqisi2
 1964 008a 0121     		movs	r1, #1
 1965 008c 01FA03F3 		lsl	r3, r1, r3
 1966 0090 1BB2     		sxth	r3, r3
 1967 0092 DB43     		mvns	r3, r3
 1968 0094 1BB2     		sxth	r3, r3
 1969 0096 1340     		ands	r3, r3, r2
 1970 0098 1BB2     		sxth	r3, r3
 1971 009a 9AB2     		uxth	r2, r3
 1972 009c 019B     		ldr	r3, [sp, #4]
 1973 009e 1A81     		strh	r2, [r3, #8]	@ movhi
 1974 00a0 9DF80F30 		ldrb	r3, [sp, #15]	@ zero_extendqisi2
 1975 00a4 019A     		ldr	r2, [sp, #4]
 1976 00a6 0233     		adds	r3, r3, #2
 1977 00a8 9B00     		lsls	r3, r3, #2
 1978 00aa 1344     		add	r3, r3, r2
 1979 00ac 5B68     		ldr	r3, [r3, #4]
 1980 00ae 9B68     		ldr	r3, [r3, #8]
 1981 00b0 002B     		cmp	r3, #0
 1982 00b2 0CD0     		beq	.L90
 1983              		.loc 7 484 0 is_stmt 0 discriminator 1
 1984 00b4 9DF80F30 		ldrb	r3, [sp, #15]	@ zero_extendqisi2
 1985 00b8 019A     		ldr	r2, [sp, #4]
 1986 00ba 0233     		adds	r3, r3, #2
ARM GAS  /tmp/ccDE0Mq0.s 			page 36


 1987 00bc 9B00     		lsls	r3, r3, #2
 1988 00be 1344     		add	r3, r3, r2
 1989 00c0 5B68     		ldr	r3, [r3, #4]
 1990 00c2 9B68     		ldr	r3, [r3, #8]
 1991 00c4 9DF80F20 		ldrb	r2, [sp, #15]	@ zero_extendqisi2
 1992 00c8 1146     		mov	r1, r2
 1993 00ca 0198     		ldr	r0, [sp, #4]
 1994 00cc 9847     		blx	r3
 1995              	.LVL3:
 1996              	.L90:
 1997              		.loc 7 484 0 discriminator 3
 1998 00ce FFF7FEFF 		bl	osalSysLockFromISR
 1999 00d2 9DF80F30 		ldrb	r3, [sp, #15]	@ zero_extendqisi2
 2000 00d6 019A     		ldr	r2, [sp, #4]
 2001 00d8 0233     		adds	r3, r3, #2
 2002 00da 9B00     		lsls	r3, r3, #2
 2003 00dc 1344     		add	r3, r3, r2
 2004 00de 5B68     		ldr	r3, [r3, #4]
 2005 00e0 5B69     		ldr	r3, [r3, #20]
 2006 00e2 0C33     		adds	r3, r3, #12
 2007 00e4 0021     		movs	r1, #0
 2008 00e6 1846     		mov	r0, r3
 2009 00e8 FFF7FEFF 		bl	osalThreadResumeI
 2010 00ec FFF7FEFF 		bl	osalSysUnlockFromISR
 2011              		.loc 7 487 0 is_stmt 1 discriminator 3
 2012 00f0 FFF7FEFF 		bl	osalSysLockFromISR
 2013              		.loc 7 488 0 discriminator 3
 2014 00f4 029B     		ldr	r3, [sp, #8]
 2015 00f6 D3F83438 		ldr	r3, [r3, #2100]
 2016 00fa 9DF80F20 		ldrb	r2, [sp, #15]	@ zero_extendqisi2
 2017 00fe 0121     		movs	r1, #1
 2018 0100 01FA02F2 		lsl	r2, r1, r2
 2019 0104 D243     		mvns	r2, r2
 2020 0106 1A40     		ands	r2, r2, r3
 2021 0108 029B     		ldr	r3, [sp, #8]
 2022 010a C3F83428 		str	r2, [r3, #2100]
 2023              		.loc 7 489 0 discriminator 3
 2024 010e 019B     		ldr	r3, [sp, #4]
 2025 0110 9B6F     		ldr	r3, [r3, #120]
 2026 0112 9DF80F20 		ldrb	r2, [sp, #15]	@ zero_extendqisi2
 2027 0116 0121     		movs	r1, #1
 2028 0118 01FA02F2 		lsl	r2, r1, r2
 2029 011c 1A43     		orrs	r2, r2, r3
 2030 011e 019B     		ldr	r3, [sp, #4]
 2031 0120 9A67     		str	r2, [r3, #120]
 2032              		.loc 7 490 0 discriminator 3
 2033 0122 019B     		ldr	r3, [sp, #4]
 2034 0124 7C33     		adds	r3, r3, #124
 2035 0126 0021     		movs	r1, #0
 2036 0128 1846     		mov	r0, r3
 2037 012a FFF7FEFF 		bl	osalThreadResumeI
 2038              		.loc 7 491 0 discriminator 3
 2039 012e FFF7FEFF 		bl	osalSysUnlockFromISR
 2040              	.L88:
 2041              		.loc 7 471 0 discriminator 2
 2042 0132 9DF80F30 		ldrb	r3, [sp, #15]	@ zero_extendqisi2
 2043 0136 0133     		adds	r3, r3, #1
ARM GAS  /tmp/ccDE0Mq0.s 			page 37


 2044 0138 8DF80F30 		strb	r3, [sp, #15]
 2045              	.L87:
 2046              		.loc 7 471 0 is_stmt 0 discriminator 1
 2047 013c 9DF80F20 		ldrb	r2, [sp, #15]	@ zero_extendqisi2
 2048 0140 019B     		ldr	r3, [sp, #4]
 2049 0142 1B6F     		ldr	r3, [r3, #112]
 2050 0144 9B68     		ldr	r3, [r3, #8]
 2051 0146 9A42     		cmp	r2, r3
 2052 0148 7FF664AF 		bls	.L91
 2053              		.loc 7 494 0 is_stmt 1
 2054 014c 00BF     		nop
 2055 014e 05B0     		add	sp, sp, #20
 2056              		.cfi_def_cfa_offset 4
 2057              		@ sp needed
 2058 0150 5DF804FB 		ldr	pc, [sp], #4
 2059              		.cfi_endproc
 2060              	.LFE280:
 2061              		.size	otg_isoc_in_failed_handler, .-otg_isoc_in_failed_handler
 2062              		.section	.text.otg_isoc_out_failed_handler,"ax",%progbits
 2063              		.align	1
 2064              		.p2align 4,,15
 2065              		.syntax unified
 2066              		.thumb
 2067              		.thumb_func
 2068              		.fpu fpv4-sp-d16
 2069              		.type	otg_isoc_out_failed_handler, %function
 2070              	otg_isoc_out_failed_handler:
 2071              	.LFB281:
 2072              		.loc 7 503 0
 2073              		.cfi_startproc
 2074              		@ args = 0, pretend = 0, frame = 16
 2075              		@ frame_needed = 0, uses_anonymous_args = 0
 2076 0000 00B5     		push	{lr}
 2077              		.cfi_def_cfa_offset 4
 2078              		.cfi_offset 14, -4
 2079 0002 85B0     		sub	sp, sp, #20
 2080              		.cfi_def_cfa_offset 24
 2081 0004 0190     		str	r0, [sp, #4]
 2082              		.loc 7 505 0
 2083 0006 019B     		ldr	r3, [sp, #4]
 2084 0008 DB6E     		ldr	r3, [r3, #108]
 2085 000a 0293     		str	r3, [sp, #8]
 2086              		.loc 7 507 0
 2087 000c 0023     		movs	r3, #0
 2088 000e 8DF80F30 		strb	r3, [sp, #15]
 2089 0012 5AE0     		b	.L93
 2090              	.L96:
 2091              		.loc 7 508 0
 2092 0014 9DF80F30 		ldrb	r3, [sp, #15]	@ zero_extendqisi2
 2093 0018 029A     		ldr	r2, [sp, #8]
 2094 001a 5833     		adds	r3, r3, #88
 2095 001c 5B01     		lsls	r3, r3, #5
 2096 001e 1344     		add	r3, r3, r2
 2097 0020 1B68     		ldr	r3, [r3]
 2098 0022 03F44023 		and	r3, r3, #786432
 2099 0026 B3F5802F 		cmp	r3, #262144
 2100 002a 49D1     		bne	.L94
ARM GAS  /tmp/ccDE0Mq0.s 			page 38


 2101              		.loc 7 509 0 discriminator 1
 2102 002c 9DF80F30 		ldrb	r3, [sp, #15]	@ zero_extendqisi2
 2103 0030 029A     		ldr	r2, [sp, #8]
 2104 0032 5833     		adds	r3, r3, #88
 2105 0034 5B01     		lsls	r3, r3, #5
 2106 0036 1344     		add	r3, r3, r2
 2107 0038 1B68     		ldr	r3, [r3]
 2108              		.loc 7 508 0 discriminator 1
 2109 003a 002B     		cmp	r3, #0
 2110 003c 40DA     		bge	.L94
 2111              		.loc 7 517 0
 2112 003e 019B     		ldr	r3, [sp, #4]
 2113 0040 5B89     		ldrh	r3, [r3, #10]
 2114 0042 1AB2     		sxth	r2, r3
 2115 0044 9DF80F30 		ldrb	r3, [sp, #15]	@ zero_extendqisi2
 2116 0048 0121     		movs	r1, #1
 2117 004a 01FA03F3 		lsl	r3, r1, r3
 2118 004e 1BB2     		sxth	r3, r3
 2119 0050 DB43     		mvns	r3, r3
 2120 0052 1BB2     		sxth	r3, r3
 2121 0054 1340     		ands	r3, r3, r2
 2122 0056 1BB2     		sxth	r3, r3
 2123 0058 9AB2     		uxth	r2, r3
 2124 005a 019B     		ldr	r3, [sp, #4]
 2125 005c 5A81     		strh	r2, [r3, #10]	@ movhi
 2126 005e 9DF80F30 		ldrb	r3, [sp, #15]	@ zero_extendqisi2
 2127 0062 019A     		ldr	r2, [sp, #4]
 2128 0064 0233     		adds	r3, r3, #2
 2129 0066 9B00     		lsls	r3, r3, #2
 2130 0068 1344     		add	r3, r3, r2
 2131 006a 5B68     		ldr	r3, [r3, #4]
 2132 006c DB68     		ldr	r3, [r3, #12]
 2133 006e 002B     		cmp	r3, #0
 2134 0070 0CD0     		beq	.L95
 2135              		.loc 7 517 0 is_stmt 0 discriminator 1
 2136 0072 9DF80F30 		ldrb	r3, [sp, #15]	@ zero_extendqisi2
 2137 0076 019A     		ldr	r2, [sp, #4]
 2138 0078 0233     		adds	r3, r3, #2
 2139 007a 9B00     		lsls	r3, r3, #2
 2140 007c 1344     		add	r3, r3, r2
 2141 007e 5B68     		ldr	r3, [r3, #4]
 2142 0080 DB68     		ldr	r3, [r3, #12]
 2143 0082 9DF80F20 		ldrb	r2, [sp, #15]	@ zero_extendqisi2
 2144 0086 1146     		mov	r1, r2
 2145 0088 0198     		ldr	r0, [sp, #4]
 2146 008a 9847     		blx	r3
 2147              	.LVL4:
 2148              	.L95:
 2149              		.loc 7 517 0 discriminator 3
 2150 008c FFF7FEFF 		bl	osalSysLockFromISR
 2151 0090 9DF80F30 		ldrb	r3, [sp, #15]	@ zero_extendqisi2
 2152 0094 019A     		ldr	r2, [sp, #4]
 2153 0096 0233     		adds	r3, r3, #2
 2154 0098 9B00     		lsls	r3, r3, #2
 2155 009a 1344     		add	r3, r3, r2
 2156 009c 5B68     		ldr	r3, [r3, #4]
 2157 009e 9B69     		ldr	r3, [r3, #24]
ARM GAS  /tmp/ccDE0Mq0.s 			page 39


 2158 00a0 03F10C00 		add	r0, r3, #12
 2159 00a4 9DF80F30 		ldrb	r3, [sp, #15]	@ zero_extendqisi2
 2160 00a8 019A     		ldr	r2, [sp, #4]
 2161 00aa 0233     		adds	r3, r3, #2
 2162 00ac 9B00     		lsls	r3, r3, #2
 2163 00ae 1344     		add	r3, r3, r2
 2164 00b0 5B68     		ldr	r3, [r3, #4]
 2165 00b2 9B69     		ldr	r3, [r3, #24]
 2166 00b4 5B68     		ldr	r3, [r3, #4]
 2167 00b6 1946     		mov	r1, r3
 2168 00b8 FFF7FEFF 		bl	osalThreadResumeI
 2169 00bc FFF7FEFF 		bl	osalSysUnlockFromISR
 2170              	.L94:
 2171              		.loc 7 507 0 is_stmt 1 discriminator 2
 2172 00c0 9DF80F30 		ldrb	r3, [sp, #15]	@ zero_extendqisi2
 2173 00c4 0133     		adds	r3, r3, #1
 2174 00c6 8DF80F30 		strb	r3, [sp, #15]
 2175              	.L93:
 2176              		.loc 7 507 0 is_stmt 0 discriminator 1
 2177 00ca 9DF80F20 		ldrb	r2, [sp, #15]	@ zero_extendqisi2
 2178 00ce 019B     		ldr	r3, [sp, #4]
 2179 00d0 1B6F     		ldr	r3, [r3, #112]
 2180 00d2 9B68     		ldr	r3, [r3, #8]
 2181 00d4 9A42     		cmp	r2, r3
 2182 00d6 9DD9     		bls	.L96
 2183              		.loc 7 520 0 is_stmt 1
 2184 00d8 00BF     		nop
 2185 00da 05B0     		add	sp, sp, #20
 2186              		.cfi_def_cfa_offset 4
 2187              		@ sp needed
 2188 00dc 5DF804FB 		ldr	pc, [sp], #4
 2189              		.cfi_endproc
 2190              	.LFE281:
 2191              		.size	otg_isoc_out_failed_handler, .-otg_isoc_out_failed_handler
 2192              		.section	.text.usb_lld_serve_interrupt,"ax",%progbits
 2193              		.align	1
 2194              		.p2align 4,,15
 2195              		.syntax unified
 2196              		.thumb
 2197              		.thumb_func
 2198              		.fpu fpv4-sp-d16
 2199              		.type	usb_lld_serve_interrupt, %function
 2200              	usb_lld_serve_interrupt:
 2201              	.LFB282:
 2202              		.loc 7 529 0
 2203              		.cfi_startproc
 2204              		@ args = 0, pretend = 0, frame = 24
 2205              		@ frame_needed = 0, uses_anonymous_args = 0
 2206 0000 00B5     		push	{lr}
 2207              		.cfi_def_cfa_offset 4
 2208              		.cfi_offset 14, -4
 2209 0002 87B0     		sub	sp, sp, #28
 2210              		.cfi_def_cfa_offset 32
 2211 0004 0190     		str	r0, [sp, #4]
 2212              		.loc 7 530 0
 2213 0006 019B     		ldr	r3, [sp, #4]
 2214 0008 DB6E     		ldr	r3, [r3, #108]
ARM GAS  /tmp/ccDE0Mq0.s 			page 40


 2215 000a 0593     		str	r3, [sp, #20]
 2216              		.loc 7 533 0
 2217 000c 059B     		ldr	r3, [sp, #20]
 2218 000e 5B69     		ldr	r3, [r3, #20]
 2219 0010 0493     		str	r3, [sp, #16]
 2220              		.loc 7 534 0
 2221 0012 059B     		ldr	r3, [sp, #20]
 2222 0014 9B69     		ldr	r3, [r3, #24]
 2223 0016 049A     		ldr	r2, [sp, #16]
 2224 0018 1340     		ands	r3, r3, r2
 2225 001a 0493     		str	r3, [sp, #16]
 2226              		.loc 7 535 0
 2227 001c 059B     		ldr	r3, [sp, #20]
 2228 001e 049A     		ldr	r2, [sp, #16]
 2229 0020 5A61     		str	r2, [r3, #20]
 2230              		.loc 7 538 0
 2231 0022 049B     		ldr	r3, [sp, #16]
 2232 0024 03F48053 		and	r3, r3, #4096
 2233 0028 002B     		cmp	r3, #0
 2234 002a 06D0     		beq	.L98
 2235              		.loc 7 541 0
 2236 002c 019B     		ldr	r3, [sp, #4]
 2237 002e 0022     		movs	r2, #0
 2238 0030 9A67     		str	r2, [r3, #120]
 2239              		.loc 7 544 0
 2240 0032 0198     		ldr	r0, [sp, #4]
 2241 0034 FFF7FEFF 		bl	_usb_reset
 2242              		.loc 7 547 0
 2243 0038 F2E0     		b	.L97
 2244              	.L98:
 2245              		.loc 7 551 0
 2246 003a 049B     		ldr	r3, [sp, #16]
 2247 003c 002B     		cmp	r3, #0
 2248 003e 19DA     		bge	.L100
 2249              		.loc 7 554 0
 2250 0040 059B     		ldr	r3, [sp, #20]
 2251 0042 D3F8003E 		ldr	r3, [r3, #3584]
 2252 0046 03F00303 		and	r3, r3, #3
 2253 004a 002B     		cmp	r3, #0
 2254 004c 07D0     		beq	.L101
 2255              		.loc 7 556 0
 2256 004e 059B     		ldr	r3, [sp, #20]
 2257 0050 D3F8003E 		ldr	r3, [r3, #3584]
 2258 0054 23F00302 		bic	r2, r3, #3
 2259 0058 059B     		ldr	r3, [sp, #20]
 2260 005a C3F8002E 		str	r2, [r3, #3584]
 2261              	.L101:
 2262              		.loc 7 560 0
 2263 005e 059B     		ldr	r3, [sp, #20]
 2264 0060 D3F80438 		ldr	r3, [r3, #2052]
 2265 0064 43F00102 		orr	r2, r3, #1
 2266 0068 059B     		ldr	r3, [sp, #20]
 2267 006a C3F80428 		str	r2, [r3, #2052]
 2268              		.loc 7 562 0
 2269 006e 0198     		ldr	r0, [sp, #4]
 2270 0070 FFF7FEFF 		bl	_usb_wakeup
 2271              	.L100:
ARM GAS  /tmp/ccDE0Mq0.s 			page 41


 2272              		.loc 7 566 0
 2273 0074 049B     		ldr	r3, [sp, #16]
 2274 0076 03F40063 		and	r3, r3, #2048
 2275 007a 002B     		cmp	r3, #0
 2276 007c 05D0     		beq	.L102
 2277              		.loc 7 569 0
 2278 007e 019B     		ldr	r3, [sp, #4]
 2279 0080 0022     		movs	r2, #0
 2280 0082 9A67     		str	r2, [r3, #120]
 2281              		.loc 7 572 0
 2282 0084 0198     		ldr	r0, [sp, #4]
 2283 0086 FFF7FEFF 		bl	_usb_suspend
 2284              	.L102:
 2285              		.loc 7 576 0
 2286 008a 049B     		ldr	r3, [sp, #16]
 2287 008c 03F40053 		and	r3, r3, #8192
 2288 0090 002B     		cmp	r3, #0
 2289 0092 17D0     		beq	.L103
 2290              		.loc 7 578 0
 2291 0094 059B     		ldr	r3, [sp, #20]
 2292 0096 D3F80838 		ldr	r3, [r3, #2056]
 2293 009a 03F00603 		and	r3, r3, #6
 2294 009e 002B     		cmp	r3, #0
 2295 00a0 08D1     		bne	.L104
 2296              		.loc 7 579 0
 2297 00a2 059B     		ldr	r3, [sp, #20]
 2298 00a4 DB68     		ldr	r3, [r3, #12]
 2299 00a6 23F47053 		bic	r3, r3, #15360
 2300 00aa 43F41052 		orr	r2, r3, #9216
 2301 00ae 059B     		ldr	r3, [sp, #20]
 2302 00b0 DA60     		str	r2, [r3, #12]
 2303 00b2 07E0     		b	.L103
 2304              	.L104:
 2305              		.loc 7 583 0
 2306 00b4 059B     		ldr	r3, [sp, #20]
 2307 00b6 DB68     		ldr	r3, [r3, #12]
 2308 00b8 23F47053 		bic	r3, r3, #15360
 2309 00bc 43F4A052 		orr	r2, r3, #5120
 2310 00c0 059B     		ldr	r3, [sp, #20]
 2311 00c2 DA60     		str	r2, [r3, #12]
 2312              	.L103:
 2313              		.loc 7 589 0
 2314 00c4 049B     		ldr	r3, [sp, #16]
 2315 00c6 03F00803 		and	r3, r3, #8
 2316 00ca 002B     		cmp	r3, #0
 2317 00cc 09D0     		beq	.L105
 2318              		.loc 7 590 0
 2319 00ce 019B     		ldr	r3, [sp, #4]
 2320 00d0 5B68     		ldr	r3, [r3, #4]
 2321 00d2 DB68     		ldr	r3, [r3, #12]
 2322 00d4 002B     		cmp	r3, #0
 2323 00d6 04D0     		beq	.L105
 2324              		.loc 7 590 0 is_stmt 0 discriminator 1
 2325 00d8 019B     		ldr	r3, [sp, #4]
 2326 00da 5B68     		ldr	r3, [r3, #4]
 2327 00dc DB68     		ldr	r3, [r3, #12]
 2328 00de 0198     		ldr	r0, [sp, #4]
ARM GAS  /tmp/ccDE0Mq0.s 			page 42


 2329 00e0 9847     		blx	r3
 2330              	.LVL5:
 2331              	.L105:
 2332              		.loc 7 594 0 is_stmt 1
 2333 00e2 049B     		ldr	r3, [sp, #16]
 2334 00e4 03F48013 		and	r3, r3, #1048576
 2335 00e8 002B     		cmp	r3, #0
 2336 00ea 02D0     		beq	.L106
 2337              		.loc 7 595 0
 2338 00ec 0198     		ldr	r0, [sp, #4]
 2339 00ee FFF7FEFF 		bl	otg_isoc_in_failed_handler
 2340              	.L106:
 2341              		.loc 7 599 0
 2342 00f2 049B     		ldr	r3, [sp, #16]
 2343 00f4 03F40013 		and	r3, r3, #2097152
 2344 00f8 002B     		cmp	r3, #0
 2345 00fa 02D0     		beq	.L107
 2346              		.loc 7 600 0
 2347 00fc 0198     		ldr	r0, [sp, #4]
 2348 00fe FFF7FEFF 		bl	otg_isoc_out_failed_handler
 2349              	.L107:
 2350              		.loc 7 604 0
 2351 0102 049B     		ldr	r3, [sp, #16]
 2352 0104 03F01003 		and	r3, r3, #16
 2353 0108 002B     		cmp	r3, #0
 2354 010a 0FD0     		beq	.L108
 2355              		.loc 7 607 0
 2356 010c FFF7FEFF 		bl	osalSysLockFromISR
 2357              		.loc 7 608 0
 2358 0110 059B     		ldr	r3, [sp, #20]
 2359 0112 9B69     		ldr	r3, [r3, #24]
 2360 0114 23F01002 		bic	r2, r3, #16
 2361 0118 059B     		ldr	r3, [sp, #20]
 2362 011a 9A61     		str	r2, [r3, #24]
 2363              		.loc 7 609 0
 2364 011c 019B     		ldr	r3, [sp, #4]
 2365 011e 7C33     		adds	r3, r3, #124
 2366 0120 0021     		movs	r1, #0
 2367 0122 1846     		mov	r0, r3
 2368 0124 FFF7FEFF 		bl	osalThreadResumeI
 2369              		.loc 7 610 0
 2370 0128 FFF7FEFF 		bl	osalSysUnlockFromISR
 2371              	.L108:
 2372              		.loc 7 614 0
 2373 012c 059B     		ldr	r3, [sp, #20]
 2374 012e D3F81838 		ldr	r3, [r3, #2072]
 2375 0132 0393     		str	r3, [sp, #12]
 2376              		.loc 7 615 0
 2377 0134 049B     		ldr	r3, [sp, #16]
 2378 0136 03F40023 		and	r3, r3, #524288
 2379 013a 002B     		cmp	r3, #0
 2380 013c 35D0     		beq	.L109
 2381              		.loc 7 616 0
 2382 013e 039B     		ldr	r3, [sp, #12]
 2383 0140 03F48033 		and	r3, r3, #65536
 2384 0144 002B     		cmp	r3, #0
 2385 0146 03D0     		beq	.L110
ARM GAS  /tmp/ccDE0Mq0.s 			page 43


 2386              		.loc 7 617 0
 2387 0148 0021     		movs	r1, #0
 2388 014a 0198     		ldr	r0, [sp, #4]
 2389 014c FFF7FEFF 		bl	otg_epout_handler
 2390              	.L110:
 2391              		.loc 7 618 0
 2392 0150 039B     		ldr	r3, [sp, #12]
 2393 0152 03F40033 		and	r3, r3, #131072
 2394 0156 002B     		cmp	r3, #0
 2395 0158 03D0     		beq	.L111
 2396              		.loc 7 619 0
 2397 015a 0121     		movs	r1, #1
 2398 015c 0198     		ldr	r0, [sp, #4]
 2399 015e FFF7FEFF 		bl	otg_epout_handler
 2400              	.L111:
 2401              		.loc 7 620 0
 2402 0162 039B     		ldr	r3, [sp, #12]
 2403 0164 03F48023 		and	r3, r3, #262144
 2404 0168 002B     		cmp	r3, #0
 2405 016a 03D0     		beq	.L112
 2406              		.loc 7 621 0
 2407 016c 0221     		movs	r1, #2
 2408 016e 0198     		ldr	r0, [sp, #4]
 2409 0170 FFF7FEFF 		bl	otg_epout_handler
 2410              	.L112:
 2411              		.loc 7 622 0
 2412 0174 039B     		ldr	r3, [sp, #12]
 2413 0176 03F40023 		and	r3, r3, #524288
 2414 017a 002B     		cmp	r3, #0
 2415 017c 03D0     		beq	.L113
 2416              		.loc 7 623 0
 2417 017e 0321     		movs	r1, #3
 2418 0180 0198     		ldr	r0, [sp, #4]
 2419 0182 FFF7FEFF 		bl	otg_epout_handler
 2420              	.L113:
 2421              		.loc 7 625 0
 2422 0186 039B     		ldr	r3, [sp, #12]
 2423 0188 03F48013 		and	r3, r3, #1048576
 2424 018c 002B     		cmp	r3, #0
 2425 018e 03D0     		beq	.L114
 2426              		.loc 7 626 0
 2427 0190 0421     		movs	r1, #4
 2428 0192 0198     		ldr	r0, [sp, #4]
 2429 0194 FFF7FEFF 		bl	otg_epout_handler
 2430              	.L114:
 2431              		.loc 7 629 0
 2432 0198 039B     		ldr	r3, [sp, #12]
 2433 019a 03F40013 		and	r3, r3, #2097152
 2434 019e 002B     		cmp	r3, #0
 2435 01a0 03D0     		beq	.L109
 2436              		.loc 7 630 0
 2437 01a2 0521     		movs	r1, #5
 2438 01a4 0198     		ldr	r0, [sp, #4]
 2439 01a6 FFF7FEFF 		bl	otg_epout_handler
 2440              	.L109:
 2441              		.loc 7 645 0
 2442 01aa 049B     		ldr	r3, [sp, #16]
ARM GAS  /tmp/ccDE0Mq0.s 			page 44


 2443 01ac 03F48023 		and	r3, r3, #262144
 2444 01b0 002B     		cmp	r3, #0
 2445 01b2 35D0     		beq	.L97
 2446              		.loc 7 646 0
 2447 01b4 039B     		ldr	r3, [sp, #12]
 2448 01b6 03F00103 		and	r3, r3, #1
 2449 01ba 002B     		cmp	r3, #0
 2450 01bc 03D0     		beq	.L115
 2451              		.loc 7 647 0
 2452 01be 0021     		movs	r1, #0
 2453 01c0 0198     		ldr	r0, [sp, #4]
 2454 01c2 FFF7FEFF 		bl	otg_epin_handler
 2455              	.L115:
 2456              		.loc 7 648 0
 2457 01c6 039B     		ldr	r3, [sp, #12]
 2458 01c8 03F00203 		and	r3, r3, #2
 2459 01cc 002B     		cmp	r3, #0
 2460 01ce 03D0     		beq	.L116
 2461              		.loc 7 649 0
 2462 01d0 0121     		movs	r1, #1
 2463 01d2 0198     		ldr	r0, [sp, #4]
 2464 01d4 FFF7FEFF 		bl	otg_epin_handler
 2465              	.L116:
 2466              		.loc 7 650 0
 2467 01d8 039B     		ldr	r3, [sp, #12]
 2468 01da 03F00403 		and	r3, r3, #4
 2469 01de 002B     		cmp	r3, #0
 2470 01e0 03D0     		beq	.L117
 2471              		.loc 7 651 0
 2472 01e2 0221     		movs	r1, #2
 2473 01e4 0198     		ldr	r0, [sp, #4]
 2474 01e6 FFF7FEFF 		bl	otg_epin_handler
 2475              	.L117:
 2476              		.loc 7 652 0
 2477 01ea 039B     		ldr	r3, [sp, #12]
 2478 01ec 03F00803 		and	r3, r3, #8
 2479 01f0 002B     		cmp	r3, #0
 2480 01f2 03D0     		beq	.L118
 2481              		.loc 7 653 0
 2482 01f4 0321     		movs	r1, #3
 2483 01f6 0198     		ldr	r0, [sp, #4]
 2484 01f8 FFF7FEFF 		bl	otg_epin_handler
 2485              	.L118:
 2486              		.loc 7 655 0
 2487 01fc 039B     		ldr	r3, [sp, #12]
 2488 01fe 03F01003 		and	r3, r3, #16
 2489 0202 002B     		cmp	r3, #0
 2490 0204 03D0     		beq	.L119
 2491              		.loc 7 656 0
 2492 0206 0421     		movs	r1, #4
 2493 0208 0198     		ldr	r0, [sp, #4]
 2494 020a FFF7FEFF 		bl	otg_epin_handler
 2495              	.L119:
 2496              		.loc 7 659 0
 2497 020e 039B     		ldr	r3, [sp, #12]
 2498 0210 03F02003 		and	r3, r3, #32
 2499 0214 002B     		cmp	r3, #0
ARM GAS  /tmp/ccDE0Mq0.s 			page 45


 2500 0216 03D0     		beq	.L97
 2501              		.loc 7 660 0
 2502 0218 0521     		movs	r1, #5
 2503 021a 0198     		ldr	r0, [sp, #4]
 2504 021c FFF7FEFF 		bl	otg_epin_handler
 2505              	.L97:
 2506              		.loc 7 675 0
 2507 0220 07B0     		add	sp, sp, #28
 2508              		.cfi_def_cfa_offset 4
 2509              		@ sp needed
 2510 0222 5DF804FB 		ldr	pc, [sp], #4
 2511              		.cfi_endproc
 2512              	.LFE282:
 2513              		.size	usb_lld_serve_interrupt, .-usb_lld_serve_interrupt
 2514 0226 00BF     		.section	.text.Vector174,"ax",%progbits
 2515              		.align	1
 2516              		.p2align 4,,15
 2517              		.global	Vector174
 2518              		.syntax unified
 2519              		.thumb
 2520              		.thumb_func
 2521              		.fpu fpv4-sp-d16
 2522              		.type	Vector174, %function
 2523              	Vector174:
 2524              	.LFB283:
 2525              		.loc 7 703 0
 2526              		.cfi_startproc
 2527              		@ args = 0, pretend = 0, frame = 0
 2528              		@ frame_needed = 0, uses_anonymous_args = 0
 2529 0000 08B5     		push	{r3, lr}
 2530              		.cfi_def_cfa_offset 8
 2531              		.cfi_offset 3, -8
 2532              		.cfi_offset 14, -4
 2533              		.loc 7 705 0
 2534 0002 FFF7FEFF 		bl	_stats_increase_irq
 2535 0006 FFF7FEFF 		bl	_dbg_check_enter_isr
 2536              		.loc 7 707 0
 2537 000a 0448     		ldr	r0, .L121
 2538 000c FFF7FEFF 		bl	usb_lld_serve_interrupt
 2539              		.loc 7 709 0
 2540 0010 FFF7FEFF 		bl	_dbg_check_leave_isr
 2541 0014 FFF7FEFF 		bl	_port_irq_epilogue
 2542              		.loc 7 710 0
 2543 0018 00BF     		nop
 2544 001a 08BD     		pop	{r3, pc}
 2545              	.L122:
 2546              		.align	2
 2547              	.L121:
 2548 001c 00000000 		.word	USBD2
 2549              		.cfi_endproc
 2550              	.LFE283:
 2551              		.size	Vector174, .-Vector174
 2552              		.section	.text.usb_lld_init,"ax",%progbits
 2553              		.align	1
 2554              		.p2align 4,,15
 2555              		.global	usb_lld_init
 2556              		.syntax unified
ARM GAS  /tmp/ccDE0Mq0.s 			page 46


 2557              		.thumb
 2558              		.thumb_func
 2559              		.fpu fpv4-sp-d16
 2560              		.type	usb_lld_init, %function
 2561              	usb_lld_init:
 2562              	.LFB284:
 2563              		.loc 7 722 0
 2564              		.cfi_startproc
 2565              		@ args = 0, pretend = 0, frame = 8
 2566              		@ frame_needed = 0, uses_anonymous_args = 0
 2567 0000 00B5     		push	{lr}
 2568              		.cfi_def_cfa_offset 4
 2569              		.cfi_offset 14, -4
 2570 0002 83B0     		sub	sp, sp, #12
 2571              		.cfi_def_cfa_offset 16
 2572              		.loc 7 750 0
 2573 0004 1348     		ldr	r0, .L124
 2574 0006 FFF7FEFF 		bl	usbObjectInit
 2575              		.loc 7 751 0
 2576 000a 124B     		ldr	r3, .L124
 2577 000c 0022     		movs	r2, #0
 2578 000e DA67     		str	r2, [r3, #124]
 2579              		.loc 7 752 0
 2580 0010 104B     		ldr	r3, .L124
 2581 0012 114A     		ldr	r2, .L124+4
 2582 0014 DA66     		str	r2, [r3, #108]
 2583              		.loc 7 753 0
 2584 0016 0F4B     		ldr	r3, .L124
 2585 0018 104A     		ldr	r2, .L124+8
 2586 001a 1A67     		str	r2, [r3, #112]
 2587              		.loc 7 756 0
 2588 001c 0D4B     		ldr	r3, .L124
 2589 001e 0022     		movs	r2, #0
 2590 0020 C3F88020 		str	r2, [r3, #128]
 2591              	.LBB13:
 2592              		.loc 7 761 0
 2593 0024 0E4B     		ldr	r3, .L124+12
 2594 0026 0193     		str	r3, [sp, #4]
 2595              		.loc 7 762 0
 2596 0028 019B     		ldr	r3, [sp, #4]
 2597 002a 6033     		adds	r3, r3, #96
 2598 002c FF22     		movs	r2, #255
 2599 002e 1946     		mov	r1, r3
 2600 0030 0198     		ldr	r0, [sp, #4]
 2601 0032 FFF7FEFF 		bl	_thread_memfill
 2602              		.loc 7 765 0
 2603 0036 019B     		ldr	r3, [sp, #4]
 2604 0038 03F16000 		add	r0, r3, #96
 2605 003c 019B     		ldr	r3, [sp, #4]
 2606 003e 03F5F873 		add	r3, r3, #496
 2607 0042 5522     		movs	r2, #85
 2608 0044 1946     		mov	r1, r3
 2609 0046 FFF7FEFF 		bl	_thread_memfill
 2610              	.LBE13:
 2611              		.loc 7 772 0
 2612 004a 00BF     		nop
 2613 004c 03B0     		add	sp, sp, #12
ARM GAS  /tmp/ccDE0Mq0.s 			page 47


 2614              		.cfi_def_cfa_offset 4
 2615              		@ sp needed
 2616 004e 5DF804FB 		ldr	pc, [sp], #4
 2617              	.L125:
 2618 0052 00BF     		.align	2
 2619              	.L124:
 2620 0054 00000000 		.word	USBD2
 2621 0058 00000440 		.word	1074003968
 2622 005c 00000000 		.word	hsparams
 2623 0060 88000000 		.word	USBD2+136
 2624              		.cfi_endproc
 2625              	.LFE284:
 2626              		.size	usb_lld_init, .-usb_lld_init
 2627              		.section	.text.usb_lld_start,"ax",%progbits
 2628              		.align	1
 2629              		.p2align 4,,15
 2630              		.global	usb_lld_start
 2631              		.syntax unified
 2632              		.thumb
 2633              		.thumb_func
 2634              		.fpu fpv4-sp-d16
 2635              		.type	usb_lld_start, %function
 2636              	usb_lld_start:
 2637              	.LFB285:
 2638              		.loc 7 784 0
 2639              		.cfi_startproc
 2640              		@ args = 0, pretend = 0, frame = 16
 2641              		@ frame_needed = 0, uses_anonymous_args = 0
 2642 0000 00B5     		push	{lr}
 2643              		.cfi_def_cfa_offset 4
 2644              		.cfi_offset 14, -4
 2645 0002 87B0     		sub	sp, sp, #28
 2646              		.cfi_def_cfa_offset 32
 2647 0004 0390     		str	r0, [sp, #12]
 2648              		.loc 7 785 0
 2649 0006 039B     		ldr	r3, [sp, #12]
 2650 0008 DB6E     		ldr	r3, [r3, #108]
 2651 000a 0593     		str	r3, [sp, #20]
 2652              		.loc 7 787 0
 2653 000c 039B     		ldr	r3, [sp, #12]
 2654 000e 1B78     		ldrb	r3, [r3]	@ zero_extendqisi2
 2655 0010 012B     		cmp	r3, #1
 2656 0012 7ED1     		bne	.L132
 2657              		.loc 7 811 0
 2658 0014 039B     		ldr	r3, [sp, #12]
 2659 0016 414A     		ldr	r2, .L133
 2660 0018 9342     		cmp	r3, r2
 2661 001a 25D1     		bne	.L128
 2662              		.loc 7 813 0
 2663 001c 404A     		ldr	r2, .L133+4
 2664 001e 404B     		ldr	r3, .L133+4
 2665 0020 1B6B     		ldr	r3, [r3, #48]
 2666 0022 43F00053 		orr	r3, r3, #536870912
 2667 0026 1363     		str	r3, [r2, #48]
 2668              		.loc 7 814 0
 2669 0028 3D4A     		ldr	r2, .L133+4
 2670 002a 3D4B     		ldr	r3, .L133+4
ARM GAS  /tmp/ccDE0Mq0.s 			page 48


 2671 002c 1B69     		ldr	r3, [r3, #16]
 2672 002e 43F00053 		orr	r3, r3, #536870912
 2673 0032 1361     		str	r3, [r2, #16]
 2674 0034 3A4B     		ldr	r3, .L133+4
 2675 0036 0022     		movs	r2, #0
 2676 0038 1A61     		str	r2, [r3, #16]
 2677              		.loc 7 823 0
 2678 003a 394A     		ldr	r2, .L133+4
 2679 003c 384B     		ldr	r3, .L133+4
 2680 003e 1B6B     		ldr	r3, [r3, #48]
 2681 0040 23F08043 		bic	r3, r3, #1073741824
 2682 0044 1363     		str	r3, [r2, #48]
 2683 0046 364A     		ldr	r2, .L133+4
 2684 0048 354B     		ldr	r3, .L133+4
 2685 004a 1B6D     		ldr	r3, [r3, #80]
 2686 004c 23F08043 		bic	r3, r3, #1073741824
 2687 0050 1365     		str	r3, [r2, #80]
 2688              		.loc 7 827 0
 2689 0052 0E21     		movs	r1, #14
 2690 0054 4D20     		movs	r0, #77
 2691 0056 FFF7FEFF 		bl	nvicEnableVector
 2692              		.loc 7 836 0
 2693 005a 059B     		ldr	r3, [sp, #20]
 2694 005c 314A     		ldr	r2, .L133+8
 2695 005e DA60     		str	r2, [r3, #12]
 2696              		.loc 7 850 0
 2697 0060 059B     		ldr	r3, [sp, #20]
 2698 0062 314A     		ldr	r2, .L133+12
 2699 0064 C3F80028 		str	r2, [r3, #2048]
 2700              	.L128:
 2701              		.loc 7 856 0
 2702 0068 039B     		ldr	r3, [sp, #12]
 2703 006a 0022     		movs	r2, #0
 2704 006c 9A67     		str	r2, [r3, #120]
 2705              		.loc 7 859 0
 2706 006e 059B     		ldr	r3, [sp, #20]
 2707 0070 0022     		movs	r2, #0
 2708 0072 C3F8002E 		str	r2, [r3, #3584]
 2709              		.loc 7 862 0
 2710 0076 059B     		ldr	r3, [sp, #20]
 2711 0078 C022     		movs	r2, #192
 2712 007a 1A60     		str	r2, [r3]
 2713              		.loc 7 877 0
 2714 007c 059B     		ldr	r3, [sp, #20]
 2715 007e 4FF45022 		mov	r2, #851968
 2716 0082 9A63     		str	r2, [r3, #56]
 2717              		.loc 7 881 0
 2718 0084 0398     		ldr	r0, [sp, #12]
 2719 0086 FFF7FEFF 		bl	otg_core_reset
 2720              		.loc 7 884 0
 2721 008a 059B     		ldr	r3, [sp, #20]
 2722 008c 0022     		movs	r2, #0
 2723 008e 9A60     		str	r2, [r3, #8]
 2724              		.loc 7 887 0
 2725 0090 0398     		ldr	r0, [sp, #12]
 2726 0092 FFF7FEFF 		bl	otg_disable_ep
 2727              		.loc 7 891 0
ARM GAS  /tmp/ccDE0Mq0.s 			page 49


 2728 0096 059B     		ldr	r3, [sp, #20]
 2729 0098 0022     		movs	r2, #0
 2730 009a C3F81028 		str	r2, [r3, #2064]
 2731              		.loc 7 892 0
 2732 009e 059B     		ldr	r3, [sp, #20]
 2733 00a0 0022     		movs	r2, #0
 2734 00a2 C3F81428 		str	r2, [r3, #2068]
 2735              		.loc 7 893 0
 2736 00a6 059B     		ldr	r3, [sp, #20]
 2737 00a8 0022     		movs	r2, #0
 2738 00aa C3F81C28 		str	r2, [r3, #2076]
 2739              		.loc 7 894 0
 2740 00ae 039B     		ldr	r3, [sp, #12]
 2741 00b0 5B68     		ldr	r3, [r3, #4]
 2742 00b2 DB68     		ldr	r3, [r3, #12]
 2743 00b4 002B     		cmp	r3, #0
 2744 00b6 03D1     		bne	.L129
 2745              		.loc 7 895 0
 2746 00b8 059B     		ldr	r3, [sp, #20]
 2747 00ba 1C4A     		ldr	r2, .L133+16
 2748 00bc 9A61     		str	r2, [r3, #24]
 2749 00be 02E0     		b	.L130
 2750              	.L129:
 2751              		.loc 7 899 0
 2752 00c0 059B     		ldr	r3, [sp, #20]
 2753 00c2 1B4A     		ldr	r2, .L133+20
 2754 00c4 9A61     		str	r2, [r3, #24]
 2755              	.L130:
 2756              		.loc 7 905 0
 2757 00c6 059B     		ldr	r3, [sp, #20]
 2758 00c8 4FF0FF32 		mov	r2, #-1
 2759 00cc 5A61     		str	r2, [r3, #20]
 2760              		.loc 7 909 0
 2761 00ce 039B     		ldr	r3, [sp, #12]
 2762 00d0 D3F88030 		ldr	r3, [r3, #128]
 2763 00d4 002B     		cmp	r3, #0
 2764 00d6 16D1     		bne	.L131
 2765              		.loc 7 910 0
 2766 00d8 039B     		ldr	r3, [sp, #12]
 2767 00da 03F18800 		add	r0, r3, #136
 2768 00de 039B     		ldr	r3, [sp, #12]
 2769 00e0 0093     		str	r3, [sp]
 2770 00e2 144B     		ldr	r3, .L133+24
 2771 00e4 0222     		movs	r2, #2
 2772 00e6 4FF4F871 		mov	r1, #496
 2773 00ea FFF7FEFF 		bl	chThdCreateI
 2774 00ee 0246     		mov	r2, r0
 2775 00f0 039B     		ldr	r3, [sp, #12]
 2776 00f2 C3F88020 		str	r2, [r3, #128]
 2777              		.loc 7 913 0
 2778 00f6 039B     		ldr	r3, [sp, #12]
 2779 00f8 D3F88030 		ldr	r3, [r3, #128]
 2780 00fc 1846     		mov	r0, r3
 2781 00fe FFF7FEFF 		bl	chThdStartI
 2782              		.loc 7 914 0
 2783 0102 FFF7FEFF 		bl	chSchRescheduleS
 2784              	.L131:
ARM GAS  /tmp/ccDE0Mq0.s 			page 50


 2785              		.loc 7 919 0
 2786 0106 059B     		ldr	r3, [sp, #20]
 2787 0108 9B68     		ldr	r3, [r3, #8]
 2788 010a 43F00102 		orr	r2, r3, #1
 2789 010e 059B     		ldr	r3, [sp, #20]
 2790 0110 9A60     		str	r2, [r3, #8]
 2791              	.L132:
 2792              		.loc 7 921 0
 2793 0112 00BF     		nop
 2794 0114 07B0     		add	sp, sp, #28
 2795              		.cfi_def_cfa_offset 4
 2796              		@ sp needed
 2797 0116 5DF804FB 		ldr	pc, [sp], #4
 2798              	.L134:
 2799 011a 00BF     		.align	2
 2800              	.L133:
 2801 011c 00000000 		.word	USBD2
 2802 0120 00380240 		.word	1073887232
 2803 0124 40140040 		.word	1073747008
 2804 0128 03002002 		.word	35651587
 2805 012c 003C30C0 		.word	-1070580736
 2806 0130 083C30C0 		.word	-1070580728
 2807 0134 00000000 		.word	usb_lld_pump
 2808              		.cfi_endproc
 2809              	.LFE285:
 2810              		.size	usb_lld_start, .-usb_lld_start
 2811              		.section	.text.usb_lld_stop,"ax",%progbits
 2812              		.align	1
 2813              		.p2align 4,,15
 2814              		.global	usb_lld_stop
 2815              		.syntax unified
 2816              		.thumb
 2817              		.thumb_func
 2818              		.fpu fpv4-sp-d16
 2819              		.type	usb_lld_stop, %function
 2820              	usb_lld_stop:
 2821              	.LFB286:
 2822              		.loc 7 930 0
 2823              		.cfi_startproc
 2824              		@ args = 0, pretend = 0, frame = 16
 2825              		@ frame_needed = 0, uses_anonymous_args = 0
 2826 0000 00B5     		push	{lr}
 2827              		.cfi_def_cfa_offset 4
 2828              		.cfi_offset 14, -4
 2829 0002 85B0     		sub	sp, sp, #20
 2830              		.cfi_def_cfa_offset 24
 2831 0004 0190     		str	r0, [sp, #4]
 2832              		.loc 7 931 0
 2833 0006 019B     		ldr	r3, [sp, #4]
 2834 0008 DB6E     		ldr	r3, [r3, #108]
 2835 000a 0393     		str	r3, [sp, #12]
 2836              		.loc 7 934 0
 2837 000c 019B     		ldr	r3, [sp, #4]
 2838 000e 1B78     		ldrb	r3, [r3]	@ zero_extendqisi2
 2839 0010 012B     		cmp	r3, #1
 2840 0012 1CD0     		beq	.L137
 2841              		.loc 7 938 0
ARM GAS  /tmp/ccDE0Mq0.s 			page 51


 2842 0014 0198     		ldr	r0, [sp, #4]
 2843 0016 FFF7FEFF 		bl	otg_disable_ep
 2844              		.loc 7 940 0
 2845 001a 019B     		ldr	r3, [sp, #4]
 2846 001c 0022     		movs	r2, #0
 2847 001e 9A67     		str	r2, [r3, #120]
 2848              		.loc 7 942 0
 2849 0020 039B     		ldr	r3, [sp, #12]
 2850 0022 0022     		movs	r2, #0
 2851 0024 C3F81C28 		str	r2, [r3, #2076]
 2852              		.loc 7 943 0
 2853 0028 039B     		ldr	r3, [sp, #12]
 2854 002a 0022     		movs	r2, #0
 2855 002c 9A60     		str	r2, [r3, #8]
 2856              		.loc 7 944 0
 2857 002e 039B     		ldr	r3, [sp, #12]
 2858 0030 0022     		movs	r2, #0
 2859 0032 9A63     		str	r2, [r3, #56]
 2860              		.loc 7 954 0
 2861 0034 019B     		ldr	r3, [sp, #4]
 2862 0036 084A     		ldr	r2, .L138
 2863 0038 9342     		cmp	r3, r2
 2864 003a 08D1     		bne	.L137
 2865              		.loc 7 955 0
 2866 003c 4D20     		movs	r0, #77
 2867 003e FFF7FEFF 		bl	nvicDisableVector
 2868              		.loc 7 956 0
 2869 0042 064A     		ldr	r2, .L138+4
 2870 0044 054B     		ldr	r3, .L138+4
 2871 0046 1B6B     		ldr	r3, [r3, #48]
 2872 0048 23F00053 		bic	r3, r3, #536870912
 2873 004c 1363     		str	r3, [r2, #48]
 2874              	.L137:
 2875              		.loc 7 963 0
 2876 004e 00BF     		nop
 2877 0050 05B0     		add	sp, sp, #20
 2878              		.cfi_def_cfa_offset 4
 2879              		@ sp needed
 2880 0052 5DF804FB 		ldr	pc, [sp], #4
 2881              	.L139:
 2882 0056 00BF     		.align	2
 2883              	.L138:
 2884 0058 00000000 		.word	USBD2
 2885 005c 00380240 		.word	1073887232
 2886              		.cfi_endproc
 2887              	.LFE286:
 2888              		.size	usb_lld_stop, .-usb_lld_stop
 2889              		.section	.text.usb_lld_reset,"ax",%progbits
 2890              		.align	1
 2891              		.p2align 4,,15
 2892              		.global	usb_lld_reset
 2893              		.syntax unified
 2894              		.thumb
 2895              		.thumb_func
 2896              		.fpu fpv4-sp-d16
 2897              		.type	usb_lld_reset, %function
 2898              	usb_lld_reset:
ARM GAS  /tmp/ccDE0Mq0.s 			page 52


 2899              	.LFB287:
 2900              		.loc 7 972 0
 2901              		.cfi_startproc
 2902              		@ args = 0, pretend = 0, frame = 16
 2903              		@ frame_needed = 0, uses_anonymous_args = 0
 2904 0000 10B5     		push	{r4, lr}
 2905              		.cfi_def_cfa_offset 8
 2906              		.cfi_offset 4, -8
 2907              		.cfi_offset 14, -4
 2908 0002 84B0     		sub	sp, sp, #16
 2909              		.cfi_def_cfa_offset 24
 2910 0004 0190     		str	r0, [sp, #4]
 2911              		.loc 7 974 0
 2912 0006 019B     		ldr	r3, [sp, #4]
 2913 0008 DB6E     		ldr	r3, [r3, #108]
 2914 000a 0293     		str	r3, [sp, #8]
 2915              		.loc 7 977 0
 2916 000c 0021     		movs	r1, #0
 2917 000e 0198     		ldr	r0, [sp, #4]
 2918 0010 FFF7FEFF 		bl	otg_txfifo_flush
 2919              		.loc 7 980 0
 2920 0014 029B     		ldr	r3, [sp, #8]
 2921 0016 0022     		movs	r2, #0
 2922 0018 C3F83428 		str	r2, [r3, #2100]
 2923              		.loc 7 981 0
 2924 001c 029B     		ldr	r3, [sp, #8]
 2925 001e 4FF00112 		mov	r2, #65537
 2926 0022 C3F81C28 		str	r2, [r3, #2076]
 2927              		.loc 7 984 0
 2928 0026 0023     		movs	r3, #0
 2929 0028 0393     		str	r3, [sp, #12]
 2930 002a 24E0     		b	.L141
 2931              	.L142:
 2932              		.loc 7 985 0 discriminator 3
 2933 002c 029A     		ldr	r2, [sp, #8]
 2934 002e 039B     		ldr	r3, [sp, #12]
 2935 0030 4833     		adds	r3, r3, #72
 2936 0032 5B01     		lsls	r3, r3, #5
 2937 0034 1344     		add	r3, r3, r2
 2938 0036 4FF00062 		mov	r2, #134217728
 2939 003a 1A60     		str	r2, [r3]
 2940              		.loc 7 986 0 discriminator 3
 2941 003c 029A     		ldr	r2, [sp, #8]
 2942 003e 039B     		ldr	r3, [sp, #12]
 2943 0040 5833     		adds	r3, r3, #88
 2944 0042 5B01     		lsls	r3, r3, #5
 2945 0044 1344     		add	r3, r3, r2
 2946 0046 4FF00062 		mov	r2, #134217728
 2947 004a 1A60     		str	r2, [r3]
 2948              		.loc 7 987 0 discriminator 3
 2949 004c 029A     		ldr	r2, [sp, #8]
 2950 004e 039B     		ldr	r3, [sp, #12]
 2951 0050 5B01     		lsls	r3, r3, #5
 2952 0052 1344     		add	r3, r3, r2
 2953 0054 03F60813 		addw	r3, r3, #2312
 2954 0058 4FF0FF32 		mov	r2, #-1
 2955 005c 1A60     		str	r2, [r3]
ARM GAS  /tmp/ccDE0Mq0.s 			page 53


 2956              		.loc 7 988 0 discriminator 3
 2957 005e 029A     		ldr	r2, [sp, #8]
 2958 0060 039B     		ldr	r3, [sp, #12]
 2959 0062 5B01     		lsls	r3, r3, #5
 2960 0064 1344     		add	r3, r3, r2
 2961 0066 03F60833 		addw	r3, r3, #2824
 2962 006a 4FF0FF32 		mov	r2, #-1
 2963 006e 1A60     		str	r2, [r3]
 2964              		.loc 7 984 0 discriminator 3
 2965 0070 039B     		ldr	r3, [sp, #12]
 2966 0072 0133     		adds	r3, r3, #1
 2967 0074 0393     		str	r3, [sp, #12]
 2968              	.L141:
 2969              		.loc 7 984 0 is_stmt 0 discriminator 1
 2970 0076 019B     		ldr	r3, [sp, #4]
 2971 0078 1B6F     		ldr	r3, [r3, #112]
 2972 007a 9A68     		ldr	r2, [r3, #8]
 2973 007c 039B     		ldr	r3, [sp, #12]
 2974 007e 9A42     		cmp	r2, r3
 2975 0080 D4D2     		bcs	.L142
 2976              		.loc 7 992 0 is_stmt 1
 2977 0082 0198     		ldr	r0, [sp, #4]
 2978 0084 FFF7FEFF 		bl	otg_ram_reset
 2979              		.loc 7 995 0
 2980 0088 019B     		ldr	r3, [sp, #4]
 2981 008a 1B6F     		ldr	r3, [r3, #112]
 2982 008c 1A68     		ldr	r2, [r3]
 2983 008e 029B     		ldr	r3, [sp, #8]
 2984 0090 5A62     		str	r2, [r3, #36]
 2985              		.loc 7 996 0
 2986 0092 0198     		ldr	r0, [sp, #4]
 2987 0094 FFF7FEFF 		bl	otg_rxfifo_flush
 2988              		.loc 7 999 0
 2989 0098 029B     		ldr	r3, [sp, #8]
 2990 009a D3F80038 		ldr	r3, [r3, #2048]
 2991 009e 23F4FE62 		bic	r2, r3, #2032
 2992 00a2 029B     		ldr	r3, [sp, #8]
 2993 00a4 C3F80028 		str	r2, [r3, #2048]
 2994              		.loc 7 1002 0
 2995 00a8 029B     		ldr	r3, [sp, #8]
 2996 00aa 9B69     		ldr	r3, [r3, #24]
 2997 00ac 43F44023 		orr	r3, r3, #786432
 2998 00b0 43F01003 		orr	r3, r3, #16
 2999 00b4 029A     		ldr	r2, [sp, #8]
 3000 00b6 9361     		str	r3, [r2, #24]
 3001              		.loc 7 1003 0
 3002 00b8 029B     		ldr	r3, [sp, #8]
 3003 00ba 0922     		movs	r2, #9
 3004 00bc C3F81028 		str	r2, [r3, #2064]
 3005              		.loc 7 1004 0
 3006 00c0 029B     		ldr	r3, [sp, #8]
 3007 00c2 0922     		movs	r2, #9
 3008 00c4 C3F81428 		str	r2, [r3, #2068]
 3009              		.loc 7 1007 0
 3010 00c8 019B     		ldr	r3, [sp, #4]
 3011 00ca 174A     		ldr	r2, .L143
 3012 00cc DA60     		str	r2, [r3, #12]
ARM GAS  /tmp/ccDE0Mq0.s 			page 54


 3013              		.loc 7 1008 0
 3014 00ce 029B     		ldr	r3, [sp, #8]
 3015 00d0 4FF0C042 		mov	r2, #1610612736
 3016 00d4 C3F8102B 		str	r2, [r3, #2832]
 3017              		.loc 7 1010 0
 3018 00d8 4023     		movs	r3, #64
 3019              		.loc 7 1009 0
 3020 00da 43F08053 		orr	r3, r3, #268435456
 3021 00de 43F40043 		orr	r3, r3, #32768
 3022 00e2 029A     		ldr	r2, [sp, #8]
 3023 00e4 C2F8003B 		str	r3, [r2, #2816]
 3024              		.loc 7 1011 0
 3025 00e8 029B     		ldr	r3, [sp, #8]
 3026 00ea 0022     		movs	r2, #0
 3027 00ec C3F81029 		str	r2, [r3, #2320]
 3028              		.loc 7 1013 0
 3029 00f0 4023     		movs	r3, #64
 3030 00f2 43F08053 		orr	r3, r3, #268435456
 3031 00f6 43F40043 		orr	r3, r3, #32768
 3032              		.loc 7 1012 0
 3033 00fa 029A     		ldr	r2, [sp, #8]
 3034 00fc C2F80039 		str	r3, [r2, #2304]
 3035              		.loc 7 1014 0
 3036 0100 4023     		movs	r3, #64
 3037 0102 9B08     		lsrs	r3, r3, #2
 3038 0104 9BB2     		uxth	r3, r3
 3039 0106 1B04     		lsls	r3, r3, #16
 3040 0108 1C46     		mov	r4, r3
 3041              		.loc 7 1015 0
 3042 010a 4023     		movs	r3, #64
 3043 010c 9B08     		lsrs	r3, r3, #2
 3044 010e 9BB2     		uxth	r3, r3
 3045 0110 1946     		mov	r1, r3
 3046 0112 0198     		ldr	r0, [sp, #4]
 3047 0114 FFF7FEFF 		bl	otg_ram_alloc
 3048 0118 0346     		mov	r3, r0
 3049              		.loc 7 1014 0
 3050 011a 44EA0302 		orr	r2, r4, r3
 3051 011e 029B     		ldr	r3, [sp, #8]
 3052 0120 9A62     		str	r2, [r3, #40]
 3053              		.loc 7 1017 0
 3054 0122 00BF     		nop
 3055 0124 04B0     		add	sp, sp, #16
 3056              		.cfi_def_cfa_offset 8
 3057              		@ sp needed
 3058 0126 10BD     		pop	{r4, pc}
 3059              	.L144:
 3060              		.align	2
 3061              	.L143:
 3062 0128 00000000 		.word	ep0config
 3063              		.cfi_endproc
 3064              	.LFE287:
 3065              		.size	usb_lld_reset, .-usb_lld_reset
 3066              		.section	.text.usb_lld_set_address,"ax",%progbits
 3067              		.align	1
 3068              		.p2align 4,,15
 3069              		.global	usb_lld_set_address
ARM GAS  /tmp/ccDE0Mq0.s 			page 55


 3070              		.syntax unified
 3071              		.thumb
 3072              		.thumb_func
 3073              		.fpu fpv4-sp-d16
 3074              		.type	usb_lld_set_address, %function
 3075              	usb_lld_set_address:
 3076              	.LFB288:
 3077              		.loc 7 1026 0
 3078              		.cfi_startproc
 3079              		@ args = 0, pretend = 0, frame = 16
 3080              		@ frame_needed = 0, uses_anonymous_args = 0
 3081              		@ link register save eliminated.
 3082 0000 84B0     		sub	sp, sp, #16
 3083              		.cfi_def_cfa_offset 16
 3084 0002 0190     		str	r0, [sp, #4]
 3085              		.loc 7 1027 0
 3086 0004 019B     		ldr	r3, [sp, #4]
 3087 0006 DB6E     		ldr	r3, [r3, #108]
 3088 0008 0393     		str	r3, [sp, #12]
 3089              		.loc 7 1029 0
 3090 000a 039B     		ldr	r3, [sp, #12]
 3091 000c D3F80038 		ldr	r3, [r3, #2048]
 3092 0010 23F4FE63 		bic	r3, r3, #2032
 3093 0014 019A     		ldr	r2, [sp, #4]
 3094 0016 92F86620 		ldrb	r2, [r2, #102]	@ zero_extendqisi2
 3095 001a 1201     		lsls	r2, r2, #4
 3096 001c 1A43     		orrs	r2, r2, r3
 3097 001e 039B     		ldr	r3, [sp, #12]
 3098 0020 C3F80028 		str	r2, [r3, #2048]
 3099              		.loc 7 1030 0
 3100 0024 00BF     		nop
 3101 0026 04B0     		add	sp, sp, #16
 3102              		.cfi_def_cfa_offset 0
 3103              		@ sp needed
 3104 0028 7047     		bx	lr
 3105              		.cfi_endproc
 3106              	.LFE288:
 3107              		.size	usb_lld_set_address, .-usb_lld_set_address
 3108 002a 00BF     		.section	.text.usb_lld_init_endpoint,"ax",%progbits
 3109              		.align	1
 3110              		.p2align 4,,15
 3111              		.global	usb_lld_init_endpoint
 3112              		.syntax unified
 3113              		.thumb
 3114              		.thumb_func
 3115              		.fpu fpv4-sp-d16
 3116              		.type	usb_lld_init_endpoint, %function
 3117              	usb_lld_init_endpoint:
 3118              	.LFB289:
 3119              		.loc 7 1040 0
 3120              		.cfi_startproc
 3121              		@ args = 0, pretend = 0, frame = 24
 3122              		@ frame_needed = 0, uses_anonymous_args = 0
 3123 0000 30B5     		push	{r4, r5, lr}
 3124              		.cfi_def_cfa_offset 12
 3125              		.cfi_offset 4, -12
 3126              		.cfi_offset 5, -8
ARM GAS  /tmp/ccDE0Mq0.s 			page 56


 3127              		.cfi_offset 14, -4
 3128 0002 87B0     		sub	sp, sp, #28
 3129              		.cfi_def_cfa_offset 40
 3130 0004 0190     		str	r0, [sp, #4]
 3131 0006 0B46     		mov	r3, r1
 3132 0008 8DF80330 		strb	r3, [sp, #3]
 3133              		.loc 7 1042 0
 3134 000c 019B     		ldr	r3, [sp, #4]
 3135 000e DB6E     		ldr	r3, [r3, #108]
 3136 0010 0393     		str	r3, [sp, #12]
 3137              		.loc 7 1045 0
 3138 0012 9DF80330 		ldrb	r3, [sp, #3]	@ zero_extendqisi2
 3139 0016 019A     		ldr	r2, [sp, #4]
 3140 0018 0233     		adds	r3, r3, #2
 3141 001a 9B00     		lsls	r3, r3, #2
 3142 001c 1344     		add	r3, r3, r2
 3143 001e 5B68     		ldr	r3, [r3, #4]
 3144 0020 1B68     		ldr	r3, [r3]
 3145 0022 03F00303 		and	r3, r3, #3
 3146 0026 032B     		cmp	r3, #3
 3147 0028 00F20881 		bhi	.L159
 3148 002c 01A2     		adr	r2, .L149
 3149 002e 52F823F0 		ldr	pc, [r2, r3, lsl #2]
 3150 0032 00BF     		.p2align 2
 3151              	.L149:
 3152 0034 45000000 		.word	.L148+1
 3153 0038 4B000000 		.word	.L150+1
 3154 003c 51000000 		.word	.L151+1
 3155 0040 57000000 		.word	.L152+1
 3156              		.p2align 1
 3157              	.L148:
 3158              		.loc 7 1047 0
 3159 0044 7F4B     		ldr	r3, .L160
 3160 0046 0593     		str	r3, [sp, #20]
 3161              		.loc 7 1048 0
 3162 0048 08E0     		b	.L153
 3163              	.L150:
 3164              		.loc 7 1050 0
 3165 004a 7F4B     		ldr	r3, .L160+4
 3166 004c 0593     		str	r3, [sp, #20]
 3167              		.loc 7 1051 0
 3168 004e 05E0     		b	.L153
 3169              	.L151:
 3170              		.loc 7 1053 0
 3171 0050 7E4B     		ldr	r3, .L160+8
 3172 0052 0593     		str	r3, [sp, #20]
 3173              		.loc 7 1054 0
 3174 0054 02E0     		b	.L153
 3175              	.L152:
 3176              		.loc 7 1056 0
 3177 0056 7E4B     		ldr	r3, .L160+12
 3178 0058 0593     		str	r3, [sp, #20]
 3179              		.loc 7 1057 0
 3180 005a 00BF     		nop
 3181              	.L153:
 3182              		.loc 7 1063 0
 3183 005c 9DF80330 		ldrb	r3, [sp, #3]	@ zero_extendqisi2
ARM GAS  /tmp/ccDE0Mq0.s 			page 57


 3184 0060 039A     		ldr	r2, [sp, #12]
 3185 0062 5B01     		lsls	r3, r3, #5
 3186 0064 1344     		add	r3, r3, r2
 3187 0066 03F53163 		add	r3, r3, #2832
 3188 006a 0022     		movs	r2, #0
 3189 006c 1A60     		str	r2, [r3]
 3190              		.loc 7 1064 0
 3191 006e 9DF80330 		ldrb	r3, [sp, #3]	@ zero_extendqisi2
 3192 0072 019A     		ldr	r2, [sp, #4]
 3193 0074 0233     		adds	r3, r3, #2
 3194 0076 9B00     		lsls	r3, r3, #2
 3195 0078 1344     		add	r3, r3, r2
 3196 007a 5B68     		ldr	r3, [r3, #4]
 3197 007c 9B69     		ldr	r3, [r3, #24]
 3198 007e 002B     		cmp	r3, #0
 3199 0080 20D0     		beq	.L155
 3200              		.loc 7 1065 0
 3201 0082 9DF80300 		ldrb	r0, [sp, #3]	@ zero_extendqisi2
 3202 0086 9DF80330 		ldrb	r3, [sp, #3]	@ zero_extendqisi2
 3203 008a 019A     		ldr	r2, [sp, #4]
 3204 008c 0233     		adds	r3, r3, #2
 3205 008e 9B00     		lsls	r3, r3, #2
 3206 0090 1344     		add	r3, r3, r2
 3207 0092 5B68     		ldr	r3, [r3, #4]
 3208 0094 5B8A     		ldrh	r3, [r3, #18]
 3209 0096 1A46     		mov	r2, r3
 3210 0098 059B     		ldr	r3, [sp, #20]
 3211 009a 1A43     		orrs	r2, r2, r3
 3212 009c 0399     		ldr	r1, [sp, #12]
 3213 009e 00F15803 		add	r3, r0, #88
 3214 00a2 5B01     		lsls	r3, r3, #5
 3215 00a4 0B44     		add	r3, r3, r1
 3216 00a6 1A60     		str	r2, [r3]
 3217              		.loc 7 1066 0
 3218 00a8 039B     		ldr	r3, [sp, #12]
 3219 00aa D3F81C28 		ldr	r2, [r3, #2076]
 3220 00ae 9DF80330 		ldrb	r3, [sp, #3]	@ zero_extendqisi2
 3221 00b2 1033     		adds	r3, r3, #16
 3222 00b4 0121     		movs	r1, #1
 3223 00b6 01FA03F3 		lsl	r3, r1, r3
 3224 00ba 1A43     		orrs	r2, r2, r3
 3225 00bc 039B     		ldr	r3, [sp, #12]
 3226 00be C3F81C28 		str	r2, [r3, #2076]
 3227 00c2 1DE0     		b	.L156
 3228              	.L155:
 3229              		.loc 7 1069 0
 3230 00c4 9DF80330 		ldrb	r3, [sp, #3]	@ zero_extendqisi2
 3231 00c8 9DF80320 		ldrb	r2, [sp, #3]	@ zero_extendqisi2
 3232 00cc 0399     		ldr	r1, [sp, #12]
 3233 00ce 5832     		adds	r2, r2, #88
 3234 00d0 5201     		lsls	r2, r2, #5
 3235 00d2 0A44     		add	r2, r2, r1
 3236 00d4 1268     		ldr	r2, [r2]
 3237 00d6 22F40042 		bic	r2, r2, #32768
 3238 00da 0399     		ldr	r1, [sp, #12]
 3239 00dc 5833     		adds	r3, r3, #88
 3240 00de 5B01     		lsls	r3, r3, #5
ARM GAS  /tmp/ccDE0Mq0.s 			page 58


 3241 00e0 0B44     		add	r3, r3, r1
 3242 00e2 1A60     		str	r2, [r3]
 3243              		.loc 7 1070 0
 3244 00e4 039B     		ldr	r3, [sp, #12]
 3245 00e6 D3F81C28 		ldr	r2, [r3, #2076]
 3246 00ea 9DF80330 		ldrb	r3, [sp, #3]	@ zero_extendqisi2
 3247 00ee 1033     		adds	r3, r3, #16
 3248 00f0 0121     		movs	r1, #1
 3249 00f2 01FA03F3 		lsl	r3, r1, r3
 3250 00f6 DB43     		mvns	r3, r3
 3251 00f8 1A40     		ands	r2, r2, r3
 3252 00fa 039B     		ldr	r3, [sp, #12]
 3253 00fc C3F81C28 		str	r2, [r3, #2076]
 3254              	.L156:
 3255              		.loc 7 1074 0
 3256 0100 9DF80330 		ldrb	r3, [sp, #3]	@ zero_extendqisi2
 3257 0104 039A     		ldr	r2, [sp, #12]
 3258 0106 5B01     		lsls	r3, r3, #5
 3259 0108 1344     		add	r3, r3, r2
 3260 010a 03F51163 		add	r3, r3, #2320
 3261 010e 0022     		movs	r2, #0
 3262 0110 1A60     		str	r2, [r3]
 3263              		.loc 7 1075 0
 3264 0112 9DF80330 		ldrb	r3, [sp, #3]	@ zero_extendqisi2
 3265 0116 019A     		ldr	r2, [sp, #4]
 3266 0118 0233     		adds	r3, r3, #2
 3267 011a 9B00     		lsls	r3, r3, #2
 3268 011c 1344     		add	r3, r3, r2
 3269 011e 5B68     		ldr	r3, [r3, #4]
 3270 0120 5B69     		ldr	r3, [r3, #20]
 3271 0122 002B     		cmp	r3, #0
 3272 0124 5DD0     		beq	.L157
 3273              		.loc 7 1077 0
 3274 0126 9DF80330 		ldrb	r3, [sp, #3]	@ zero_extendqisi2
 3275 012a 019A     		ldr	r2, [sp, #4]
 3276 012c 0233     		adds	r3, r3, #2
 3277 012e 9B00     		lsls	r3, r3, #2
 3278 0130 1344     		add	r3, r3, r2
 3279 0132 5B68     		ldr	r3, [r3, #4]
 3280 0134 1B8A     		ldrh	r3, [r3, #16]
 3281 0136 9B08     		lsrs	r3, r3, #2
 3282 0138 9BB2     		uxth	r3, r3
 3283 013a 0493     		str	r3, [sp, #16]
 3284              		.loc 7 1078 0
 3285 013c 9DF80330 		ldrb	r3, [sp, #3]	@ zero_extendqisi2
 3286 0140 019A     		ldr	r2, [sp, #4]
 3287 0142 0233     		adds	r3, r3, #2
 3288 0144 9B00     		lsls	r3, r3, #2
 3289 0146 1344     		add	r3, r3, r2
 3290 0148 5B68     		ldr	r3, [r3, #4]
 3291 014a 9B8B     		ldrh	r3, [r3, #28]
 3292 014c 012B     		cmp	r3, #1
 3293 014e 0CD9     		bls	.L158
 3294              		.loc 7 1079 0
 3295 0150 9DF80330 		ldrb	r3, [sp, #3]	@ zero_extendqisi2
 3296 0154 019A     		ldr	r2, [sp, #4]
 3297 0156 0233     		adds	r3, r3, #2
ARM GAS  /tmp/ccDE0Mq0.s 			page 59


 3298 0158 9B00     		lsls	r3, r3, #2
 3299 015a 1344     		add	r3, r3, r2
 3300 015c 5B68     		ldr	r3, [r3, #4]
 3301 015e 9B8B     		ldrh	r3, [r3, #28]
 3302 0160 1A46     		mov	r2, r3
 3303 0162 049B     		ldr	r3, [sp, #16]
 3304 0164 02FB03F3 		mul	r3, r2, r3
 3305 0168 0493     		str	r3, [sp, #16]
 3306              	.L158:
 3307              		.loc 7 1080 0
 3308 016a 9DF80330 		ldrb	r3, [sp, #3]	@ zero_extendqisi2
 3309 016e 5C1E     		subs	r4, r3, #1
 3310 0170 049B     		ldr	r3, [sp, #16]
 3311 0172 1D04     		lsls	r5, r3, #16
 3312              		.loc 7 1081 0
 3313 0174 0499     		ldr	r1, [sp, #16]
 3314 0176 0198     		ldr	r0, [sp, #4]
 3315 0178 FFF7FEFF 		bl	otg_ram_alloc
 3316 017c 0346     		mov	r3, r0
 3317              		.loc 7 1080 0
 3318 017e 45EA0302 		orr	r2, r5, r3
 3319 0182 0399     		ldr	r1, [sp, #12]
 3320 0184 04F14003 		add	r3, r4, #64
 3321 0188 9B00     		lsls	r3, r3, #2
 3322 018a 0B44     		add	r3, r3, r1
 3323 018c 5A60     		str	r2, [r3, #4]
 3324              		.loc 7 1082 0
 3325 018e 9DF80330 		ldrb	r3, [sp, #3]	@ zero_extendqisi2
 3326 0192 1946     		mov	r1, r3
 3327 0194 0198     		ldr	r0, [sp, #4]
 3328 0196 FFF7FEFF 		bl	otg_txfifo_flush
 3329              		.loc 7 1084 0
 3330 019a 9DF80300 		ldrb	r0, [sp, #3]	@ zero_extendqisi2
 3331              		.loc 7 1085 0
 3332 019e 9DF80330 		ldrb	r3, [sp, #3]	@ zero_extendqisi2
 3333 01a2 9B05     		lsls	r3, r3, #22
 3334 01a4 1A46     		mov	r2, r3
 3335              		.loc 7 1084 0
 3336 01a6 059B     		ldr	r3, [sp, #20]
 3337 01a8 1A43     		orrs	r2, r2, r3
 3338              		.loc 7 1086 0
 3339 01aa 9DF80330 		ldrb	r3, [sp, #3]	@ zero_extendqisi2
 3340 01ae 0199     		ldr	r1, [sp, #4]
 3341 01b0 0233     		adds	r3, r3, #2
 3342 01b2 9B00     		lsls	r3, r3, #2
 3343 01b4 0B44     		add	r3, r3, r1
 3344 01b6 5B68     		ldr	r3, [r3, #4]
 3345 01b8 1B8A     		ldrh	r3, [r3, #16]
 3346              		.loc 7 1085 0
 3347 01ba 1A43     		orrs	r2, r2, r3
 3348              		.loc 7 1084 0
 3349 01bc 0399     		ldr	r1, [sp, #12]
 3350 01be 00F14803 		add	r3, r0, #72
 3351 01c2 5B01     		lsls	r3, r3, #5
 3352 01c4 0B44     		add	r3, r3, r1
 3353 01c6 1A60     		str	r2, [r3]
 3354              		.loc 7 1087 0
ARM GAS  /tmp/ccDE0Mq0.s 			page 60


 3355 01c8 039B     		ldr	r3, [sp, #12]
 3356 01ca D3F81C28 		ldr	r2, [r3, #2076]
 3357 01ce 9DF80330 		ldrb	r3, [sp, #3]	@ zero_extendqisi2
 3358 01d2 0121     		movs	r1, #1
 3359 01d4 01FA03F3 		lsl	r3, r1, r3
 3360 01d8 1A43     		orrs	r2, r2, r3
 3361 01da 039B     		ldr	r3, [sp, #12]
 3362 01dc C3F81C28 		str	r2, [r3, #2076]
 3363 01e0 2DE0     		b	.L146
 3364              	.L157:
 3365              		.loc 7 1090 0
 3366 01e2 9DF80330 		ldrb	r3, [sp, #3]	@ zero_extendqisi2
 3367 01e6 013B     		subs	r3, r3, #1
 3368 01e8 039A     		ldr	r2, [sp, #12]
 3369 01ea 4033     		adds	r3, r3, #64
 3370 01ec 9B00     		lsls	r3, r3, #2
 3371 01ee 1344     		add	r3, r3, r2
 3372 01f0 184A     		ldr	r2, .L160+16
 3373 01f2 5A60     		str	r2, [r3, #4]
 3374              		.loc 7 1091 0
 3375 01f4 9DF80330 		ldrb	r3, [sp, #3]	@ zero_extendqisi2
 3376 01f8 1946     		mov	r1, r3
 3377 01fa 0198     		ldr	r0, [sp, #4]
 3378 01fc FFF7FEFF 		bl	otg_txfifo_flush
 3379              		.loc 7 1092 0
 3380 0200 9DF80330 		ldrb	r3, [sp, #3]	@ zero_extendqisi2
 3381 0204 9DF80320 		ldrb	r2, [sp, #3]	@ zero_extendqisi2
 3382 0208 0399     		ldr	r1, [sp, #12]
 3383 020a 4832     		adds	r2, r2, #72
 3384 020c 5201     		lsls	r2, r2, #5
 3385 020e 0A44     		add	r2, r2, r1
 3386 0210 1268     		ldr	r2, [r2]
 3387 0212 22F40042 		bic	r2, r2, #32768
 3388 0216 0399     		ldr	r1, [sp, #12]
 3389 0218 4833     		adds	r3, r3, #72
 3390 021a 5B01     		lsls	r3, r3, #5
 3391 021c 0B44     		add	r3, r3, r1
 3392 021e 1A60     		str	r2, [r3]
 3393              		.loc 7 1093 0
 3394 0220 039B     		ldr	r3, [sp, #12]
 3395 0222 D3F81C28 		ldr	r2, [r3, #2076]
 3396 0226 9DF80330 		ldrb	r3, [sp, #3]	@ zero_extendqisi2
 3397 022a 0121     		movs	r1, #1
 3398 022c 01FA03F3 		lsl	r3, r1, r3
 3399 0230 DB43     		mvns	r3, r3
 3400 0232 1A40     		ands	r2, r2, r3
 3401 0234 039B     		ldr	r3, [sp, #12]
 3402 0236 C3F81C28 		str	r2, [r3, #2076]
 3403 023a 00E0     		b	.L146
 3404              	.L159:
 3405              		.loc 7 1059 0
 3406 023c 00BF     		nop
 3407              	.L146:
 3408              		.loc 7 1095 0
 3409 023e 07B0     		add	sp, sp, #28
 3410              		.cfi_def_cfa_offset 12
 3411              		@ sp needed
ARM GAS  /tmp/ccDE0Mq0.s 			page 61


 3412 0240 30BD     		pop	{r4, r5, pc}
 3413              	.L161:
 3414 0242 00BF     		.align	2
 3415              	.L160:
 3416 0244 00800010 		.word	268468224
 3417 0248 00800410 		.word	268730368
 3418 024c 00800810 		.word	268992512
 3419 0250 00800C10 		.word	269254656
 3420 0254 00040002 		.word	33555456
 3421              		.cfi_endproc
 3422              	.LFE289:
 3423              		.size	usb_lld_init_endpoint, .-usb_lld_init_endpoint
 3424              		.section	.text.usb_lld_disable_endpoints,"ax",%progbits
 3425              		.align	1
 3426              		.p2align 4,,15
 3427              		.global	usb_lld_disable_endpoints
 3428              		.syntax unified
 3429              		.thumb
 3430              		.thumb_func
 3431              		.fpu fpv4-sp-d16
 3432              		.type	usb_lld_disable_endpoints, %function
 3433              	usb_lld_disable_endpoints:
 3434              	.LFB290:
 3435              		.loc 7 1104 0
 3436              		.cfi_startproc
 3437              		@ args = 0, pretend = 0, frame = 8
 3438              		@ frame_needed = 0, uses_anonymous_args = 0
 3439 0000 00B5     		push	{lr}
 3440              		.cfi_def_cfa_offset 4
 3441              		.cfi_offset 14, -4
 3442 0002 83B0     		sub	sp, sp, #12
 3443              		.cfi_def_cfa_offset 16
 3444 0004 0190     		str	r0, [sp, #4]
 3445              		.loc 7 1107 0
 3446 0006 0198     		ldr	r0, [sp, #4]
 3447 0008 FFF7FEFF 		bl	otg_ram_reset
 3448              		.loc 7 1110 0
 3449 000c 0198     		ldr	r0, [sp, #4]
 3450 000e FFF7FEFF 		bl	otg_disable_ep
 3451              		.loc 7 1111 0
 3452 0012 00BF     		nop
 3453 0014 03B0     		add	sp, sp, #12
 3454              		.cfi_def_cfa_offset 4
 3455              		@ sp needed
 3456 0016 5DF804FB 		ldr	pc, [sp], #4
 3457              		.cfi_endproc
 3458              	.LFE290:
 3459              		.size	usb_lld_disable_endpoints, .-usb_lld_disable_endpoints
 3460 001a 00BF     		.section	.text.usb_lld_get_status_out,"ax",%progbits
 3461              		.align	1
 3462              		.p2align 4,,15
 3463              		.global	usb_lld_get_status_out
 3464              		.syntax unified
 3465              		.thumb
 3466              		.thumb_func
 3467              		.fpu fpv4-sp-d16
 3468              		.type	usb_lld_get_status_out, %function
ARM GAS  /tmp/ccDE0Mq0.s 			page 62


 3469              	usb_lld_get_status_out:
 3470              	.LFB291:
 3471              		.loc 7 1125 0
 3472              		.cfi_startproc
 3473              		@ args = 0, pretend = 0, frame = 16
 3474              		@ frame_needed = 0, uses_anonymous_args = 0
 3475              		@ link register save eliminated.
 3476 0000 84B0     		sub	sp, sp, #16
 3477              		.cfi_def_cfa_offset 16
 3478 0002 0190     		str	r0, [sp, #4]
 3479 0004 0B46     		mov	r3, r1
 3480 0006 8DF80330 		strb	r3, [sp, #3]
 3481              		.loc 7 1130 0
 3482 000a 019B     		ldr	r3, [sp, #4]
 3483 000c DA6E     		ldr	r2, [r3, #108]
 3484 000e 9DF80330 		ldrb	r3, [sp, #3]	@ zero_extendqisi2
 3485 0012 5833     		adds	r3, r3, #88
 3486 0014 5B01     		lsls	r3, r3, #5
 3487 0016 1344     		add	r3, r3, r2
 3488 0018 1B68     		ldr	r3, [r3]
 3489 001a 0393     		str	r3, [sp, #12]
 3490              		.loc 7 1131 0
 3491 001c 039B     		ldr	r3, [sp, #12]
 3492 001e 03F40043 		and	r3, r3, #32768
 3493 0022 002B     		cmp	r3, #0
 3494 0024 01D1     		bne	.L164
 3495              		.loc 7 1132 0
 3496 0026 0023     		movs	r3, #0
 3497 0028 07E0     		b	.L165
 3498              	.L164:
 3499              		.loc 7 1133 0
 3500 002a 039B     		ldr	r3, [sp, #12]
 3501 002c 03F40013 		and	r3, r3, #2097152
 3502 0030 002B     		cmp	r3, #0
 3503 0032 01D0     		beq	.L166
 3504              		.loc 7 1134 0
 3505 0034 0123     		movs	r3, #1
 3506 0036 00E0     		b	.L165
 3507              	.L166:
 3508              		.loc 7 1135 0
 3509 0038 0223     		movs	r3, #2
 3510              	.L165:
 3511              		.loc 7 1136 0
 3512 003a 1846     		mov	r0, r3
 3513 003c 04B0     		add	sp, sp, #16
 3514              		.cfi_def_cfa_offset 0
 3515              		@ sp needed
 3516 003e 7047     		bx	lr
 3517              		.cfi_endproc
 3518              	.LFE291:
 3519              		.size	usb_lld_get_status_out, .-usb_lld_get_status_out
 3520              		.section	.text.usb_lld_get_status_in,"ax",%progbits
 3521              		.align	1
 3522              		.p2align 4,,15
 3523              		.global	usb_lld_get_status_in
 3524              		.syntax unified
 3525              		.thumb
ARM GAS  /tmp/ccDE0Mq0.s 			page 63


 3526              		.thumb_func
 3527              		.fpu fpv4-sp-d16
 3528              		.type	usb_lld_get_status_in, %function
 3529              	usb_lld_get_status_in:
 3530              	.LFB292:
 3531              		.loc 7 1150 0
 3532              		.cfi_startproc
 3533              		@ args = 0, pretend = 0, frame = 16
 3534              		@ frame_needed = 0, uses_anonymous_args = 0
 3535              		@ link register save eliminated.
 3536 0000 84B0     		sub	sp, sp, #16
 3537              		.cfi_def_cfa_offset 16
 3538 0002 0190     		str	r0, [sp, #4]
 3539 0004 0B46     		mov	r3, r1
 3540 0006 8DF80330 		strb	r3, [sp, #3]
 3541              		.loc 7 1155 0
 3542 000a 019B     		ldr	r3, [sp, #4]
 3543 000c DA6E     		ldr	r2, [r3, #108]
 3544 000e 9DF80330 		ldrb	r3, [sp, #3]	@ zero_extendqisi2
 3545 0012 4833     		adds	r3, r3, #72
 3546 0014 5B01     		lsls	r3, r3, #5
 3547 0016 1344     		add	r3, r3, r2
 3548 0018 1B68     		ldr	r3, [r3]
 3549 001a 0393     		str	r3, [sp, #12]
 3550              		.loc 7 1156 0
 3551 001c 039B     		ldr	r3, [sp, #12]
 3552 001e 03F40043 		and	r3, r3, #32768
 3553 0022 002B     		cmp	r3, #0
 3554 0024 01D1     		bne	.L168
 3555              		.loc 7 1157 0
 3556 0026 0023     		movs	r3, #0
 3557 0028 07E0     		b	.L169
 3558              	.L168:
 3559              		.loc 7 1158 0
 3560 002a 039B     		ldr	r3, [sp, #12]
 3561 002c 03F40013 		and	r3, r3, #2097152
 3562 0030 002B     		cmp	r3, #0
 3563 0032 01D0     		beq	.L170
 3564              		.loc 7 1159 0
 3565 0034 0123     		movs	r3, #1
 3566 0036 00E0     		b	.L169
 3567              	.L170:
 3568              		.loc 7 1160 0
 3569 0038 0223     		movs	r3, #2
 3570              	.L169:
 3571              		.loc 7 1161 0
 3572 003a 1846     		mov	r0, r3
 3573 003c 04B0     		add	sp, sp, #16
 3574              		.cfi_def_cfa_offset 0
 3575              		@ sp needed
 3576 003e 7047     		bx	lr
 3577              		.cfi_endproc
 3578              	.LFE292:
 3579              		.size	usb_lld_get_status_in, .-usb_lld_get_status_in
 3580              		.section	.text.usb_lld_read_setup,"ax",%progbits
 3581              		.align	1
 3582              		.p2align 4,,15
ARM GAS  /tmp/ccDE0Mq0.s 			page 64


 3583              		.global	usb_lld_read_setup
 3584              		.syntax unified
 3585              		.thumb
 3586              		.thumb_func
 3587              		.fpu fpv4-sp-d16
 3588              		.type	usb_lld_read_setup, %function
 3589              	usb_lld_read_setup:
 3590              	.LFB293:
 3591              		.loc 7 1177 0
 3592              		.cfi_startproc
 3593              		@ args = 0, pretend = 0, frame = 16
 3594              		@ frame_needed = 0, uses_anonymous_args = 0
 3595 0000 00B5     		push	{lr}
 3596              		.cfi_def_cfa_offset 4
 3597              		.cfi_offset 14, -4
 3598 0002 85B0     		sub	sp, sp, #20
 3599              		.cfi_def_cfa_offset 24
 3600 0004 0390     		str	r0, [sp, #12]
 3601 0006 0B46     		mov	r3, r1
 3602 0008 0192     		str	r2, [sp, #4]
 3603 000a 8DF80B30 		strb	r3, [sp, #11]
 3604              		.loc 7 1179 0
 3605 000e 9DF80B30 		ldrb	r3, [sp, #11]	@ zero_extendqisi2
 3606 0012 039A     		ldr	r2, [sp, #12]
 3607 0014 0233     		adds	r3, r3, #2
 3608 0016 9B00     		lsls	r3, r3, #2
 3609 0018 1344     		add	r3, r3, r2
 3610 001a 5B68     		ldr	r3, [r3, #4]
 3611 001c 1B6A     		ldr	r3, [r3, #32]
 3612 001e 0822     		movs	r2, #8
 3613 0020 1946     		mov	r1, r3
 3614 0022 0198     		ldr	r0, [sp, #4]
 3615 0024 FFF7FEFF 		bl	memcpy
 3616              		.loc 7 1180 0
 3617 0028 00BF     		nop
 3618 002a 05B0     		add	sp, sp, #20
 3619              		.cfi_def_cfa_offset 4
 3620              		@ sp needed
 3621 002c 5DF804FB 		ldr	pc, [sp], #4
 3622              		.cfi_endproc
 3623              	.LFE293:
 3624              		.size	usb_lld_read_setup, .-usb_lld_read_setup
 3625              		.section	.text.usb_lld_start_out,"ax",%progbits
 3626              		.align	1
 3627              		.p2align 4,,15
 3628              		.global	usb_lld_start_out
 3629              		.syntax unified
 3630              		.thumb
 3631              		.thumb_func
 3632              		.fpu fpv4-sp-d16
 3633              		.type	usb_lld_start_out, %function
 3634              	usb_lld_start_out:
 3635              	.LFB294:
 3636              		.loc 7 1190 0
 3637              		.cfi_startproc
 3638              		@ args = 0, pretend = 0, frame = 24
 3639              		@ frame_needed = 0, uses_anonymous_args = 0
ARM GAS  /tmp/ccDE0Mq0.s 			page 65


 3640              		@ link register save eliminated.
 3641 0000 86B0     		sub	sp, sp, #24
 3642              		.cfi_def_cfa_offset 24
 3643 0002 0190     		str	r0, [sp, #4]
 3644 0004 0B46     		mov	r3, r1
 3645 0006 8DF80330 		strb	r3, [sp, #3]
 3646              		.loc 7 1192 0
 3647 000a 9DF80330 		ldrb	r3, [sp, #3]	@ zero_extendqisi2
 3648 000e 019A     		ldr	r2, [sp, #4]
 3649 0010 0233     		adds	r3, r3, #2
 3650 0012 9B00     		lsls	r3, r3, #2
 3651 0014 1344     		add	r3, r3, r2
 3652 0016 5B68     		ldr	r3, [r3, #4]
 3653 0018 9B69     		ldr	r3, [r3, #24]
 3654 001a 0593     		str	r3, [sp, #20]
 3655              		.loc 7 1195 0
 3656 001c 059B     		ldr	r3, [sp, #20]
 3657 001e 1A68     		ldr	r2, [r3]
 3658 0020 059B     		ldr	r3, [sp, #20]
 3659 0022 1A61     		str	r2, [r3, #16]
 3660              		.loc 7 1196 0
 3661 0024 9DF80330 		ldrb	r3, [sp, #3]	@ zero_extendqisi2
 3662 0028 002B     		cmp	r3, #0
 3663 002a 06D1     		bne	.L173
 3664              		.loc 7 1196 0 is_stmt 0 discriminator 1
 3665 002c 059B     		ldr	r3, [sp, #20]
 3666 002e 1B68     		ldr	r3, [r3]
 3667 0030 402B     		cmp	r3, #64
 3668 0032 02D9     		bls	.L173
 3669              		.loc 7 1197 0 is_stmt 1
 3670 0034 059B     		ldr	r3, [sp, #20]
 3671 0036 4022     		movs	r2, #64
 3672 0038 1A60     		str	r2, [r3]
 3673              	.L173:
 3674              		.loc 7 1204 0
 3675 003a 059B     		ldr	r3, [sp, #20]
 3676 003c 1A68     		ldr	r2, [r3]
 3677 003e 9DF80330 		ldrb	r3, [sp, #3]	@ zero_extendqisi2
 3678 0042 0199     		ldr	r1, [sp, #4]
 3679 0044 0233     		adds	r3, r3, #2
 3680 0046 9B00     		lsls	r3, r3, #2
 3681 0048 0B44     		add	r3, r3, r1
 3682 004a 5B68     		ldr	r3, [r3, #4]
 3683 004c 5B8A     		ldrh	r3, [r3, #18]
 3684 004e 1344     		add	r3, r3, r2
 3685 0050 5A1E     		subs	r2, r3, #1
 3686              		.loc 7 1205 0
 3687 0052 9DF80330 		ldrb	r3, [sp, #3]	@ zero_extendqisi2
 3688 0056 0199     		ldr	r1, [sp, #4]
 3689 0058 0233     		adds	r3, r3, #2
 3690 005a 9B00     		lsls	r3, r3, #2
 3691 005c 0B44     		add	r3, r3, r1
 3692 005e 5B68     		ldr	r3, [r3, #4]
 3693 0060 5B8A     		ldrh	r3, [r3, #18]
 3694              		.loc 7 1204 0
 3695 0062 B2FBF3F3 		udiv	r3, r2, r3
 3696 0066 0493     		str	r3, [sp, #16]
ARM GAS  /tmp/ccDE0Mq0.s 			page 66


 3697              		.loc 7 1206 0
 3698 0068 9DF80330 		ldrb	r3, [sp, #3]	@ zero_extendqisi2
 3699 006c 019A     		ldr	r2, [sp, #4]
 3700 006e 0233     		adds	r3, r3, #2
 3701 0070 9B00     		lsls	r3, r3, #2
 3702 0072 1344     		add	r3, r3, r2
 3703 0074 5B68     		ldr	r3, [r3, #4]
 3704 0076 5B8A     		ldrh	r3, [r3, #18]
 3705 0078 1A46     		mov	r2, r3
 3706 007a 049B     		ldr	r3, [sp, #16]
 3707 007c 03FB02F3 		mul	r3, r3, r2
 3708 0080 0333     		adds	r3, r3, #3
 3709 0082 23F00303 		bic	r3, r3, #3
 3710 0086 0393     		str	r3, [sp, #12]
 3711              		.loc 7 1209 0
 3712 0088 019B     		ldr	r3, [sp, #4]
 3713 008a D96E     		ldr	r1, [r3, #108]
 3714 008c 9DF80330 		ldrb	r3, [sp, #3]	@ zero_extendqisi2
 3715 0090 049A     		ldr	r2, [sp, #16]
 3716 0092 D004     		lsls	r0, r2, #19
 3717 0094 039A     		ldr	r2, [sp, #12]
 3718 0096 0243     		orrs	r2, r2, r0
 3719 0098 42F0C042 		orr	r2, r2, #1610612736
 3720 009c 5B01     		lsls	r3, r3, #5
 3721 009e 0B44     		add	r3, r3, r1
 3722 00a0 03F53163 		add	r3, r3, #2832
 3723 00a4 1A60     		str	r2, [r3]
 3724              		.loc 7 1213 0
 3725 00a6 9DF80330 		ldrb	r3, [sp, #3]	@ zero_extendqisi2
 3726 00aa 019A     		ldr	r2, [sp, #4]
 3727 00ac 0233     		adds	r3, r3, #2
 3728 00ae 9B00     		lsls	r3, r3, #2
 3729 00b0 1344     		add	r3, r3, r2
 3730 00b2 5B68     		ldr	r3, [r3, #4]
 3731 00b4 1B68     		ldr	r3, [r3]
 3732 00b6 03F00303 		and	r3, r3, #3
 3733 00ba 012B     		cmp	r3, #1
 3734 00bc 2CD1     		bne	.L174
 3735              		.loc 7 1215 0
 3736 00be 019B     		ldr	r3, [sp, #4]
 3737 00c0 DB6E     		ldr	r3, [r3, #108]
 3738 00c2 D3F80838 		ldr	r3, [r3, #2056]
 3739 00c6 03F48073 		and	r3, r3, #256
 3740 00ca 002B     		cmp	r3, #0
 3741 00cc 12D0     		beq	.L175
 3742              		.loc 7 1216 0
 3743 00ce 019B     		ldr	r3, [sp, #4]
 3744 00d0 D96E     		ldr	r1, [r3, #108]
 3745 00d2 9DF80330 		ldrb	r3, [sp, #3]	@ zero_extendqisi2
 3746 00d6 019A     		ldr	r2, [sp, #4]
 3747 00d8 D06E     		ldr	r0, [r2, #108]
 3748 00da 9DF80320 		ldrb	r2, [sp, #3]	@ zero_extendqisi2
 3749 00de 5832     		adds	r2, r2, #88
 3750 00e0 5201     		lsls	r2, r2, #5
 3751 00e2 0244     		add	r2, r2, r0
 3752 00e4 1268     		ldr	r2, [r2]
 3753 00e6 42F08052 		orr	r2, r2, #268435456
ARM GAS  /tmp/ccDE0Mq0.s 			page 67


 3754 00ea 5833     		adds	r3, r3, #88
 3755 00ec 5B01     		lsls	r3, r3, #5
 3756 00ee 0B44     		add	r3, r3, r1
 3757 00f0 1A60     		str	r2, [r3]
 3758 00f2 11E0     		b	.L174
 3759              	.L175:
 3760              		.loc 7 1218 0
 3761 00f4 019B     		ldr	r3, [sp, #4]
 3762 00f6 D96E     		ldr	r1, [r3, #108]
 3763 00f8 9DF80330 		ldrb	r3, [sp, #3]	@ zero_extendqisi2
 3764 00fc 019A     		ldr	r2, [sp, #4]
 3765 00fe D06E     		ldr	r0, [r2, #108]
 3766 0100 9DF80320 		ldrb	r2, [sp, #3]	@ zero_extendqisi2
 3767 0104 5832     		adds	r2, r2, #88
 3768 0106 5201     		lsls	r2, r2, #5
 3769 0108 0244     		add	r2, r2, r0
 3770 010a 1268     		ldr	r2, [r2]
 3771 010c 42F00052 		orr	r2, r2, #536870912
 3772 0110 5833     		adds	r3, r3, #88
 3773 0112 5B01     		lsls	r3, r3, #5
 3774 0114 0B44     		add	r3, r3, r1
 3775 0116 1A60     		str	r2, [r3]
 3776              	.L174:
 3777              		.loc 7 1222 0
 3778 0118 019B     		ldr	r3, [sp, #4]
 3779 011a D96E     		ldr	r1, [r3, #108]
 3780 011c 9DF80330 		ldrb	r3, [sp, #3]	@ zero_extendqisi2
 3781 0120 019A     		ldr	r2, [sp, #4]
 3782 0122 D06E     		ldr	r0, [r2, #108]
 3783 0124 9DF80320 		ldrb	r2, [sp, #3]	@ zero_extendqisi2
 3784 0128 5832     		adds	r2, r2, #88
 3785 012a 5201     		lsls	r2, r2, #5
 3786 012c 0244     		add	r2, r2, r0
 3787 012e 1268     		ldr	r2, [r2]
 3788 0130 42F00442 		orr	r2, r2, #-2080374784
 3789 0134 5833     		adds	r3, r3, #88
 3790 0136 5B01     		lsls	r3, r3, #5
 3791 0138 0B44     		add	r3, r3, r1
 3792 013a 1A60     		str	r2, [r3]
 3793              		.loc 7 1223 0
 3794 013c 00BF     		nop
 3795 013e 06B0     		add	sp, sp, #24
 3796              		.cfi_def_cfa_offset 0
 3797              		@ sp needed
 3798 0140 7047     		bx	lr
 3799              		.cfi_endproc
 3800              	.LFE294:
 3801              		.size	usb_lld_start_out, .-usb_lld_start_out
 3802 0142 00BF     		.section	.text.usb_lld_start_in,"ax",%progbits
 3803              		.align	1
 3804              		.p2align 4,,15
 3805              		.global	usb_lld_start_in
 3806              		.syntax unified
 3807              		.thumb
 3808              		.thumb_func
 3809              		.fpu fpv4-sp-d16
 3810              		.type	usb_lld_start_in, %function
ARM GAS  /tmp/ccDE0Mq0.s 			page 68


 3811              	usb_lld_start_in:
 3812              	.LFB295:
 3813              		.loc 7 1233 0
 3814              		.cfi_startproc
 3815              		@ args = 0, pretend = 0, frame = 16
 3816              		@ frame_needed = 0, uses_anonymous_args = 0
 3817              		@ link register save eliminated.
 3818 0000 84B0     		sub	sp, sp, #16
 3819              		.cfi_def_cfa_offset 16
 3820 0002 0190     		str	r0, [sp, #4]
 3821 0004 0B46     		mov	r3, r1
 3822 0006 8DF80330 		strb	r3, [sp, #3]
 3823              		.loc 7 1234 0
 3824 000a 9DF80330 		ldrb	r3, [sp, #3]	@ zero_extendqisi2
 3825 000e 019A     		ldr	r2, [sp, #4]
 3826 0010 0233     		adds	r3, r3, #2
 3827 0012 9B00     		lsls	r3, r3, #2
 3828 0014 1344     		add	r3, r3, r2
 3829 0016 5B68     		ldr	r3, [r3, #4]
 3830 0018 5B69     		ldr	r3, [r3, #20]
 3831 001a 0393     		str	r3, [sp, #12]
 3832              		.loc 7 1237 0
 3833 001c 039B     		ldr	r3, [sp, #12]
 3834 001e 1A68     		ldr	r2, [r3]
 3835 0020 039B     		ldr	r3, [sp, #12]
 3836 0022 1A61     		str	r2, [r3, #16]
 3837              		.loc 7 1238 0
 3838 0024 039B     		ldr	r3, [sp, #12]
 3839 0026 1B68     		ldr	r3, [r3]
 3840 0028 002B     		cmp	r3, #0
 3841 002a 0BD1     		bne	.L177
 3842              		.loc 7 1240 0
 3843 002c 019B     		ldr	r3, [sp, #4]
 3844 002e DA6E     		ldr	r2, [r3, #108]
 3845 0030 9DF80330 		ldrb	r3, [sp, #3]	@ zero_extendqisi2
 3846 0034 5B01     		lsls	r3, r3, #5
 3847 0036 1344     		add	r3, r3, r2
 3848 0038 03F51163 		add	r3, r3, #2320
 3849 003c 4FF40022 		mov	r2, #524288
 3850 0040 1A60     		str	r2, [r3]
 3851 0042 31E0     		b	.L178
 3852              	.L177:
 3853              	.LBB14:
 3854              		.loc 7 1243 0
 3855 0044 9DF80330 		ldrb	r3, [sp, #3]	@ zero_extendqisi2
 3856 0048 002B     		cmp	r3, #0
 3857 004a 06D1     		bne	.L179
 3858              		.loc 7 1243 0 is_stmt 0 discriminator 1
 3859 004c 039B     		ldr	r3, [sp, #12]
 3860 004e 1B68     		ldr	r3, [r3]
 3861 0050 402B     		cmp	r3, #64
 3862 0052 02D9     		bls	.L179
 3863              		.loc 7 1244 0 is_stmt 1
 3864 0054 039B     		ldr	r3, [sp, #12]
 3865 0056 4022     		movs	r2, #64
 3866 0058 1A60     		str	r2, [r3]
 3867              	.L179:
ARM GAS  /tmp/ccDE0Mq0.s 			page 69


 3868              		.loc 7 1247 0
 3869 005a 039B     		ldr	r3, [sp, #12]
 3870 005c 1A68     		ldr	r2, [r3]
 3871 005e 9DF80330 		ldrb	r3, [sp, #3]	@ zero_extendqisi2
 3872 0062 0199     		ldr	r1, [sp, #4]
 3873 0064 0233     		adds	r3, r3, #2
 3874 0066 9B00     		lsls	r3, r3, #2
 3875 0068 0B44     		add	r3, r3, r1
 3876 006a 5B68     		ldr	r3, [r3, #4]
 3877 006c 1B8A     		ldrh	r3, [r3, #16]
 3878 006e 1344     		add	r3, r3, r2
 3879 0070 5A1E     		subs	r2, r3, #1
 3880              		.loc 7 1248 0
 3881 0072 9DF80330 		ldrb	r3, [sp, #3]	@ zero_extendqisi2
 3882 0076 0199     		ldr	r1, [sp, #4]
 3883 0078 0233     		adds	r3, r3, #2
 3884 007a 9B00     		lsls	r3, r3, #2
 3885 007c 0B44     		add	r3, r3, r1
 3886 007e 5B68     		ldr	r3, [r3, #4]
 3887 0080 1B8A     		ldrh	r3, [r3, #16]
 3888              		.loc 7 1247 0
 3889 0082 B2FBF3F3 		udiv	r3, r2, r3
 3890 0086 0293     		str	r3, [sp, #8]
 3891              		.loc 7 1250 0
 3892 0088 019B     		ldr	r3, [sp, #4]
 3893 008a D96E     		ldr	r1, [r3, #108]
 3894 008c 9DF80330 		ldrb	r3, [sp, #3]	@ zero_extendqisi2
 3895 0090 029A     		ldr	r2, [sp, #8]
 3896 0092 D004     		lsls	r0, r2, #19
 3897              		.loc 7 1251 0
 3898 0094 039A     		ldr	r2, [sp, #12]
 3899 0096 1268     		ldr	r2, [r2]
 3900              		.loc 7 1250 0
 3901 0098 0243     		orrs	r2, r2, r0
 3902 009a 42F00052 		orr	r2, r2, #536870912
 3903 009e 5B01     		lsls	r3, r3, #5
 3904 00a0 0B44     		add	r3, r3, r1
 3905 00a2 03F51163 		add	r3, r3, #2320
 3906 00a6 1A60     		str	r2, [r3]
 3907              	.L178:
 3908              	.LBE14:
 3909              		.loc 7 1255 0
 3910 00a8 9DF80330 		ldrb	r3, [sp, #3]	@ zero_extendqisi2
 3911 00ac 019A     		ldr	r2, [sp, #4]
 3912 00ae 0233     		adds	r3, r3, #2
 3913 00b0 9B00     		lsls	r3, r3, #2
 3914 00b2 1344     		add	r3, r3, r2
 3915 00b4 5B68     		ldr	r3, [r3, #4]
 3916 00b6 1B68     		ldr	r3, [r3]
 3917 00b8 03F00303 		and	r3, r3, #3
 3918 00bc 012B     		cmp	r3, #1
 3919 00be 2CD1     		bne	.L180
 3920              		.loc 7 1257 0
 3921 00c0 019B     		ldr	r3, [sp, #4]
 3922 00c2 DB6E     		ldr	r3, [r3, #108]
 3923 00c4 D3F80838 		ldr	r3, [r3, #2056]
 3924 00c8 03F48073 		and	r3, r3, #256
ARM GAS  /tmp/ccDE0Mq0.s 			page 70


 3925 00cc 002B     		cmp	r3, #0
 3926 00ce 12D0     		beq	.L181
 3927              		.loc 7 1258 0
 3928 00d0 019B     		ldr	r3, [sp, #4]
 3929 00d2 D96E     		ldr	r1, [r3, #108]
 3930 00d4 9DF80330 		ldrb	r3, [sp, #3]	@ zero_extendqisi2
 3931 00d8 019A     		ldr	r2, [sp, #4]
 3932 00da D06E     		ldr	r0, [r2, #108]
 3933 00dc 9DF80320 		ldrb	r2, [sp, #3]	@ zero_extendqisi2
 3934 00e0 4832     		adds	r2, r2, #72
 3935 00e2 5201     		lsls	r2, r2, #5
 3936 00e4 0244     		add	r2, r2, r0
 3937 00e6 1268     		ldr	r2, [r2]
 3938 00e8 42F08052 		orr	r2, r2, #268435456
 3939 00ec 4833     		adds	r3, r3, #72
 3940 00ee 5B01     		lsls	r3, r3, #5
 3941 00f0 0B44     		add	r3, r3, r1
 3942 00f2 1A60     		str	r2, [r3]
 3943 00f4 11E0     		b	.L180
 3944              	.L181:
 3945              		.loc 7 1260 0
 3946 00f6 019B     		ldr	r3, [sp, #4]
 3947 00f8 D96E     		ldr	r1, [r3, #108]
 3948 00fa 9DF80330 		ldrb	r3, [sp, #3]	@ zero_extendqisi2
 3949 00fe 019A     		ldr	r2, [sp, #4]
 3950 0100 D06E     		ldr	r0, [r2, #108]
 3951 0102 9DF80320 		ldrb	r2, [sp, #3]	@ zero_extendqisi2
 3952 0106 4832     		adds	r2, r2, #72
 3953 0108 5201     		lsls	r2, r2, #5
 3954 010a 0244     		add	r2, r2, r0
 3955 010c 1268     		ldr	r2, [r2]
 3956 010e 42F00052 		orr	r2, r2, #536870912
 3957 0112 4833     		adds	r3, r3, #72
 3958 0114 5B01     		lsls	r3, r3, #5
 3959 0116 0B44     		add	r3, r3, r1
 3960 0118 1A60     		str	r2, [r3]
 3961              	.L180:
 3962              		.loc 7 1264 0
 3963 011a 019B     		ldr	r3, [sp, #4]
 3964 011c D96E     		ldr	r1, [r3, #108]
 3965 011e 9DF80330 		ldrb	r3, [sp, #3]	@ zero_extendqisi2
 3966 0122 019A     		ldr	r2, [sp, #4]
 3967 0124 D06E     		ldr	r0, [r2, #108]
 3968 0126 9DF80320 		ldrb	r2, [sp, #3]	@ zero_extendqisi2
 3969 012a 4832     		adds	r2, r2, #72
 3970 012c 5201     		lsls	r2, r2, #5
 3971 012e 0244     		add	r2, r2, r0
 3972 0130 1268     		ldr	r2, [r2]
 3973 0132 42F00442 		orr	r2, r2, #-2080374784
 3974 0136 4833     		adds	r3, r3, #72
 3975 0138 5B01     		lsls	r3, r3, #5
 3976 013a 0B44     		add	r3, r3, r1
 3977 013c 1A60     		str	r2, [r3]
 3978              		.loc 7 1265 0
 3979 013e 019B     		ldr	r3, [sp, #4]
 3980 0140 DB6E     		ldr	r3, [r3, #108]
 3981 0142 019A     		ldr	r2, [sp, #4]
ARM GAS  /tmp/ccDE0Mq0.s 			page 71


 3982 0144 D26E     		ldr	r2, [r2, #108]
 3983 0146 D2F83418 		ldr	r1, [r2, #2100]
 3984 014a 9DF80320 		ldrb	r2, [sp, #3]	@ zero_extendqisi2
 3985 014e 0120     		movs	r0, #1
 3986 0150 00FA02F2 		lsl	r2, r0, r2
 3987 0154 0A43     		orrs	r2, r2, r1
 3988 0156 C3F83428 		str	r2, [r3, #2100]
 3989              		.loc 7 1266 0
 3990 015a 00BF     		nop
 3991 015c 04B0     		add	sp, sp, #16
 3992              		.cfi_def_cfa_offset 0
 3993              		@ sp needed
 3994 015e 7047     		bx	lr
 3995              		.cfi_endproc
 3996              	.LFE295:
 3997              		.size	usb_lld_start_in, .-usb_lld_start_in
 3998              		.section	.text.usb_lld_stall_out,"ax",%progbits
 3999              		.align	1
 4000              		.p2align 4,,15
 4001              		.global	usb_lld_stall_out
 4002              		.syntax unified
 4003              		.thumb
 4004              		.thumb_func
 4005              		.fpu fpv4-sp-d16
 4006              		.type	usb_lld_stall_out, %function
 4007              	usb_lld_stall_out:
 4008              	.LFB296:
 4009              		.loc 7 1276 0
 4010              		.cfi_startproc
 4011              		@ args = 0, pretend = 0, frame = 8
 4012              		@ frame_needed = 0, uses_anonymous_args = 0
 4013              		@ link register save eliminated.
 4014 0000 82B0     		sub	sp, sp, #8
 4015              		.cfi_def_cfa_offset 8
 4016 0002 0190     		str	r0, [sp, #4]
 4017 0004 0B46     		mov	r3, r1
 4018 0006 8DF80330 		strb	r3, [sp, #3]
 4019              		.loc 7 1278 0
 4020 000a 019B     		ldr	r3, [sp, #4]
 4021 000c D96E     		ldr	r1, [r3, #108]
 4022 000e 9DF80330 		ldrb	r3, [sp, #3]	@ zero_extendqisi2
 4023 0012 019A     		ldr	r2, [sp, #4]
 4024 0014 D06E     		ldr	r0, [r2, #108]
 4025 0016 9DF80320 		ldrb	r2, [sp, #3]	@ zero_extendqisi2
 4026 001a 5832     		adds	r2, r2, #88
 4027 001c 5201     		lsls	r2, r2, #5
 4028 001e 0244     		add	r2, r2, r0
 4029 0020 1268     		ldr	r2, [r2]
 4030 0022 42F40012 		orr	r2, r2, #2097152
 4031 0026 5833     		adds	r3, r3, #88
 4032 0028 5B01     		lsls	r3, r3, #5
 4033 002a 0B44     		add	r3, r3, r1
 4034 002c 1A60     		str	r2, [r3]
 4035              		.loc 7 1279 0
 4036 002e 00BF     		nop
 4037 0030 02B0     		add	sp, sp, #8
 4038              		.cfi_def_cfa_offset 0
ARM GAS  /tmp/ccDE0Mq0.s 			page 72


 4039              		@ sp needed
 4040 0032 7047     		bx	lr
 4041              		.cfi_endproc
 4042              	.LFE296:
 4043              		.size	usb_lld_stall_out, .-usb_lld_stall_out
 4044              		.section	.text.usb_lld_stall_in,"ax",%progbits
 4045              		.align	1
 4046              		.p2align 4,,15
 4047              		.global	usb_lld_stall_in
 4048              		.syntax unified
 4049              		.thumb
 4050              		.thumb_func
 4051              		.fpu fpv4-sp-d16
 4052              		.type	usb_lld_stall_in, %function
 4053              	usb_lld_stall_in:
 4054              	.LFB297:
 4055              		.loc 7 1289 0
 4056              		.cfi_startproc
 4057              		@ args = 0, pretend = 0, frame = 8
 4058              		@ frame_needed = 0, uses_anonymous_args = 0
 4059              		@ link register save eliminated.
 4060 0000 82B0     		sub	sp, sp, #8
 4061              		.cfi_def_cfa_offset 8
 4062 0002 0190     		str	r0, [sp, #4]
 4063 0004 0B46     		mov	r3, r1
 4064 0006 8DF80330 		strb	r3, [sp, #3]
 4065              		.loc 7 1291 0
 4066 000a 019B     		ldr	r3, [sp, #4]
 4067 000c D96E     		ldr	r1, [r3, #108]
 4068 000e 9DF80330 		ldrb	r3, [sp, #3]	@ zero_extendqisi2
 4069 0012 019A     		ldr	r2, [sp, #4]
 4070 0014 D06E     		ldr	r0, [r2, #108]
 4071 0016 9DF80320 		ldrb	r2, [sp, #3]	@ zero_extendqisi2
 4072 001a 4832     		adds	r2, r2, #72
 4073 001c 5201     		lsls	r2, r2, #5
 4074 001e 0244     		add	r2, r2, r0
 4075 0020 1268     		ldr	r2, [r2]
 4076 0022 42F40012 		orr	r2, r2, #2097152
 4077 0026 4833     		adds	r3, r3, #72
 4078 0028 5B01     		lsls	r3, r3, #5
 4079 002a 0B44     		add	r3, r3, r1
 4080 002c 1A60     		str	r2, [r3]
 4081              		.loc 7 1292 0
 4082 002e 00BF     		nop
 4083 0030 02B0     		add	sp, sp, #8
 4084              		.cfi_def_cfa_offset 0
 4085              		@ sp needed
 4086 0032 7047     		bx	lr
 4087              		.cfi_endproc
 4088              	.LFE297:
 4089              		.size	usb_lld_stall_in, .-usb_lld_stall_in
 4090              		.section	.text.usb_lld_clear_out,"ax",%progbits
 4091              		.align	1
 4092              		.p2align 4,,15
 4093              		.global	usb_lld_clear_out
 4094              		.syntax unified
 4095              		.thumb
ARM GAS  /tmp/ccDE0Mq0.s 			page 73


 4096              		.thumb_func
 4097              		.fpu fpv4-sp-d16
 4098              		.type	usb_lld_clear_out, %function
 4099              	usb_lld_clear_out:
 4100              	.LFB298:
 4101              		.loc 7 1302 0
 4102              		.cfi_startproc
 4103              		@ args = 0, pretend = 0, frame = 8
 4104              		@ frame_needed = 0, uses_anonymous_args = 0
 4105              		@ link register save eliminated.
 4106 0000 82B0     		sub	sp, sp, #8
 4107              		.cfi_def_cfa_offset 8
 4108 0002 0190     		str	r0, [sp, #4]
 4109 0004 0B46     		mov	r3, r1
 4110 0006 8DF80330 		strb	r3, [sp, #3]
 4111              		.loc 7 1304 0
 4112 000a 019B     		ldr	r3, [sp, #4]
 4113 000c D96E     		ldr	r1, [r3, #108]
 4114 000e 9DF80330 		ldrb	r3, [sp, #3]	@ zero_extendqisi2
 4115 0012 019A     		ldr	r2, [sp, #4]
 4116 0014 D06E     		ldr	r0, [r2, #108]
 4117 0016 9DF80320 		ldrb	r2, [sp, #3]	@ zero_extendqisi2
 4118 001a 5832     		adds	r2, r2, #88
 4119 001c 5201     		lsls	r2, r2, #5
 4120 001e 0244     		add	r2, r2, r0
 4121 0020 1268     		ldr	r2, [r2]
 4122 0022 22F40012 		bic	r2, r2, #2097152
 4123 0026 5833     		adds	r3, r3, #88
 4124 0028 5B01     		lsls	r3, r3, #5
 4125 002a 0B44     		add	r3, r3, r1
 4126 002c 1A60     		str	r2, [r3]
 4127              		.loc 7 1305 0
 4128 002e 00BF     		nop
 4129 0030 02B0     		add	sp, sp, #8
 4130              		.cfi_def_cfa_offset 0
 4131              		@ sp needed
 4132 0032 7047     		bx	lr
 4133              		.cfi_endproc
 4134              	.LFE298:
 4135              		.size	usb_lld_clear_out, .-usb_lld_clear_out
 4136              		.section	.text.usb_lld_clear_in,"ax",%progbits
 4137              		.align	1
 4138              		.p2align 4,,15
 4139              		.global	usb_lld_clear_in
 4140              		.syntax unified
 4141              		.thumb
 4142              		.thumb_func
 4143              		.fpu fpv4-sp-d16
 4144              		.type	usb_lld_clear_in, %function
 4145              	usb_lld_clear_in:
 4146              	.LFB299:
 4147              		.loc 7 1315 0
 4148              		.cfi_startproc
 4149              		@ args = 0, pretend = 0, frame = 8
 4150              		@ frame_needed = 0, uses_anonymous_args = 0
 4151              		@ link register save eliminated.
 4152 0000 82B0     		sub	sp, sp, #8
ARM GAS  /tmp/ccDE0Mq0.s 			page 74


 4153              		.cfi_def_cfa_offset 8
 4154 0002 0190     		str	r0, [sp, #4]
 4155 0004 0B46     		mov	r3, r1
 4156 0006 8DF80330 		strb	r3, [sp, #3]
 4157              		.loc 7 1317 0
 4158 000a 019B     		ldr	r3, [sp, #4]
 4159 000c D96E     		ldr	r1, [r3, #108]
 4160 000e 9DF80330 		ldrb	r3, [sp, #3]	@ zero_extendqisi2
 4161 0012 019A     		ldr	r2, [sp, #4]
 4162 0014 D06E     		ldr	r0, [r2, #108]
 4163 0016 9DF80320 		ldrb	r2, [sp, #3]	@ zero_extendqisi2
 4164 001a 4832     		adds	r2, r2, #72
 4165 001c 5201     		lsls	r2, r2, #5
 4166 001e 0244     		add	r2, r2, r0
 4167 0020 1268     		ldr	r2, [r2]
 4168 0022 22F40012 		bic	r2, r2, #2097152
 4169 0026 4833     		adds	r3, r3, #72
 4170 0028 5B01     		lsls	r3, r3, #5
 4171 002a 0B44     		add	r3, r3, r1
 4172 002c 1A60     		str	r2, [r3]
 4173              		.loc 7 1318 0
 4174 002e 00BF     		nop
 4175 0030 02B0     		add	sp, sp, #8
 4176              		.cfi_def_cfa_offset 0
 4177              		@ sp needed
 4178 0032 7047     		bx	lr
 4179              		.cfi_endproc
 4180              	.LFE299:
 4181              		.size	usb_lld_clear_in, .-usb_lld_clear_in
 4182              		.section	.rodata
 4183              		.align	2
 4184              	.LC0:
 4185 0000 7573625F 		.ascii	"usb_lld_pump\000"
 4185      6C6C645F 
 4185      70756D70 
 4185      00
 4186              		.section	.text.usb_lld_pump,"ax",%progbits
 4187              		.align	1
 4188              		.p2align 4,,15
 4189              		.global	usb_lld_pump
 4190              		.syntax unified
 4191              		.thumb
 4192              		.thumb_func
 4193              		.fpu fpv4-sp-d16
 4194              		.type	usb_lld_pump, %function
 4195              	usb_lld_pump:
 4196              	.LFB300:
 4197              		.loc 7 1331 0
 4198              		.cfi_startproc
 4199              		@ args = 0, pretend = 0, frame = 32
 4200              		@ frame_needed = 0, uses_anonymous_args = 0
 4201 0000 00B5     		push	{lr}
 4202              		.cfi_def_cfa_offset 4
 4203              		.cfi_offset 14, -4
 4204 0002 89B0     		sub	sp, sp, #36
 4205              		.cfi_def_cfa_offset 40
 4206 0004 0190     		str	r0, [sp, #4]
ARM GAS  /tmp/ccDE0Mq0.s 			page 75


 4207              		.loc 7 1332 0
 4208 0006 019B     		ldr	r3, [sp, #4]
 4209 0008 0693     		str	r3, [sp, #24]
 4210              		.loc 7 1333 0
 4211 000a 069B     		ldr	r3, [sp, #24]
 4212 000c DB6E     		ldr	r3, [r3, #108]
 4213 000e 0593     		str	r3, [sp, #20]
 4214              		.loc 7 1336 0
 4215 0010 3D48     		ldr	r0, .L196
 4216 0012 FFF7FEFF 		bl	chRegSetThreadName
 4217              		.loc 7 1338 0
 4218 0016 FFF7FEFF 		bl	osalSysLock
 4219              	.L195:
 4220              	.LBB15:
 4221              		.loc 7 1344 0
 4222 001a 069B     		ldr	r3, [sp, #24]
 4223 001c 1B78     		ldrb	r3, [r3]	@ zero_extendqisi2
 4224 001e 012B     		cmp	r3, #1
 4225 0020 09D0     		beq	.L187
 4226              		.loc 7 1345 0 discriminator 1
 4227 0022 069B     		ldr	r3, [sp, #24]
 4228 0024 9B6F     		ldr	r3, [r3, #120]
 4229              		.loc 7 1344 0 discriminator 1
 4230 0026 002B     		cmp	r3, #0
 4231 0028 10D1     		bne	.L188
 4232              		.loc 7 1345 0
 4233 002a 059B     		ldr	r3, [sp, #20]
 4234 002c 5B69     		ldr	r3, [r3, #20]
 4235 002e 03F01003 		and	r3, r3, #16
 4236 0032 002B     		cmp	r3, #0
 4237 0034 0AD1     		bne	.L188
 4238              	.L187:
 4239              		.loc 7 1346 0
 4240 0036 059B     		ldr	r3, [sp, #20]
 4241 0038 9B69     		ldr	r3, [r3, #24]
 4242 003a 43F01002 		orr	r2, r3, #16
 4243 003e 059B     		ldr	r3, [sp, #20]
 4244 0040 9A61     		str	r2, [r3, #24]
 4245              		.loc 7 1347 0
 4246 0042 069B     		ldr	r3, [sp, #24]
 4247 0044 7C33     		adds	r3, r3, #124
 4248 0046 1846     		mov	r0, r3
 4249 0048 FFF7FEFF 		bl	osalThreadSuspendS
 4250              	.L188:
 4251              		.loc 7 1349 0
 4252 004c FFF7FEFF 		bl	osalSysUnlock
 4253              		.loc 7 1352 0
 4254 0050 0023     		movs	r3, #0
 4255 0052 8DF81F30 		strb	r3, [sp, #31]
 4256 0056 4CE0     		b	.L189
 4257              	.L191:
 4258              		.loc 7 1356 0
 4259 0058 0698     		ldr	r0, [sp, #24]
 4260 005a FFF7FEFF 		bl	otg_rxfifo_handler
 4261              	.L190:
 4262              		.loc 7 1355 0
 4263 005e 059B     		ldr	r3, [sp, #20]
ARM GAS  /tmp/ccDE0Mq0.s 			page 76


 4264 0060 5B69     		ldr	r3, [r3, #20]
 4265 0062 03F01003 		and	r3, r3, #16
 4266 0066 002B     		cmp	r3, #0
 4267 0068 F6D1     		bne	.L191
 4268              		.loc 7 1359 0
 4269 006a 9DF81F30 		ldrb	r3, [sp, #31]	@ zero_extendqisi2
 4270 006e 0122     		movs	r2, #1
 4271 0070 02FA03F3 		lsl	r3, r2, r3
 4272 0074 0493     		str	r3, [sp, #16]
 4273              		.loc 7 1360 0
 4274 0076 069B     		ldr	r3, [sp, #24]
 4275 0078 9A6F     		ldr	r2, [r3, #120]
 4276 007a 049B     		ldr	r3, [sp, #16]
 4277 007c 1340     		ands	r3, r3, r2
 4278 007e 002B     		cmp	r3, #0
 4279 0080 32D0     		beq	.L192
 4280              	.LBB16:
 4281              		.loc 7 1363 0
 4282 0082 FFF7FEFF 		bl	osalSysLock
 4283              		.loc 7 1371 0
 4284 0086 059B     		ldr	r3, [sp, #20]
 4285 0088 9B68     		ldr	r3, [r3, #8]
 4286 008a 23F00102 		bic	r2, r3, #1
 4287 008e 059B     		ldr	r3, [sp, #20]
 4288 0090 9A60     		str	r2, [r3, #8]
 4289              		.loc 7 1372 0
 4290 0092 069B     		ldr	r3, [sp, #24]
 4291 0094 9A6F     		ldr	r2, [r3, #120]
 4292 0096 049B     		ldr	r3, [sp, #16]
 4293 0098 DB43     		mvns	r3, r3
 4294 009a 1A40     		ands	r2, r2, r3
 4295 009c 069B     		ldr	r3, [sp, #24]
 4296 009e 9A67     		str	r2, [r3, #120]
 4297              		.loc 7 1373 0
 4298 00a0 FFF7FEFF 		bl	osalSysUnlock
 4299              		.loc 7 1375 0
 4300 00a4 9DF81F30 		ldrb	r3, [sp, #31]	@ zero_extendqisi2
 4301 00a8 1946     		mov	r1, r3
 4302 00aa 0698     		ldr	r0, [sp, #24]
 4303 00ac FFF7FEFF 		bl	otg_txfifo_handler
 4304 00b0 0346     		mov	r3, r0
 4305 00b2 8DF80F30 		strb	r3, [sp, #15]
 4306              		.loc 7 1377 0
 4307 00b6 FFF7FEFF 		bl	osalSysLock
 4308              		.loc 7 1378 0
 4309 00ba 059B     		ldr	r3, [sp, #20]
 4310 00bc 9B68     		ldr	r3, [r3, #8]
 4311 00be 43F00102 		orr	r2, r3, #1
 4312 00c2 059B     		ldr	r3, [sp, #20]
 4313 00c4 9A60     		str	r2, [r3, #8]
 4314              		.loc 7 1379 0
 4315 00c6 9DF80F30 		ldrb	r3, [sp, #15]
 4316 00ca 83F00103 		eor	r3, r3, #1
 4317 00ce DBB2     		uxtb	r3, r3
 4318 00d0 002B     		cmp	r3, #0
 4319 00d2 07D0     		beq	.L193
 4320              		.loc 7 1380 0
ARM GAS  /tmp/ccDE0Mq0.s 			page 77


 4321 00d4 059B     		ldr	r3, [sp, #20]
 4322 00d6 D3F83428 		ldr	r2, [r3, #2100]
 4323 00da 049B     		ldr	r3, [sp, #16]
 4324 00dc 1A43     		orrs	r2, r2, r3
 4325 00de 059B     		ldr	r3, [sp, #20]
 4326 00e0 C3F83428 		str	r2, [r3, #2100]
 4327              	.L193:
 4328              		.loc 7 1381 0
 4329 00e4 FFF7FEFF 		bl	osalSysUnlock
 4330              	.L192:
 4331              	.LBE16:
 4332              		.loc 7 1352 0 discriminator 2
 4333 00e8 9DF81F30 		ldrb	r3, [sp, #31]	@ zero_extendqisi2
 4334 00ec 0133     		adds	r3, r3, #1
 4335 00ee 8DF81F30 		strb	r3, [sp, #31]
 4336              	.L189:
 4337              		.loc 7 1352 0 is_stmt 0 discriminator 1
 4338 00f2 9DF81F20 		ldrb	r2, [sp, #31]	@ zero_extendqisi2
 4339 00f6 069B     		ldr	r3, [sp, #24]
 4340 00f8 1B6F     		ldr	r3, [r3, #112]
 4341 00fa 9B68     		ldr	r3, [r3, #8]
 4342 00fc 9A42     		cmp	r2, r3
 4343 00fe AED9     		bls	.L190
 4344              		.loc 7 1384 0 is_stmt 1
 4345 0100 FFF7FEFF 		bl	osalSysLock
 4346              	.LBE15:
 4347              		.loc 7 1339 0
 4348 0104 89E7     		b	.L195
 4349              	.L197:
 4350 0106 00BF     		.align	2
 4351              	.L196:
 4352 0108 00000000 		.word	.LC0
 4353              		.cfi_endproc
 4354              	.LFE300:
 4355              		.size	usb_lld_pump, .-usb_lld_pump
 4356              		.section	.rodata.__func__.9451,"a",%progbits
 4357              		.align	2
 4358              		.type	__func__.9451, %object
 4359              		.size	__func__.9451, 14
 4360              	__func__.9451:
 4361 0000 6F74675F 		.ascii	"otg_ram_alloc\000"
 4361      72616D5F 
 4361      616C6C6F 
 4361      6300
 4362              		.section	.rodata.__func__.9457,"a",%progbits
 4363              		.align	2
 4364              		.type	__func__.9457, %object
 4365              		.size	__func__.9457, 27
 4366              	__func__.9457:
 4367 0000 6F74675F 		.ascii	"otg_fifo_write_from_buffer\000"
 4367      6669666F 
 4367      5F777269 
 4367      74655F66 
 4367      726F6D5F 
 4368              		.section	.rodata.__func__.7702,"a",%progbits
 4369              		.align	2
 4370              		.type	__func__.7702, %object
ARM GAS  /tmp/ccDE0Mq0.s 			page 78


 4371              		.size	__func__.7702, 12
 4372              	__func__.7702:
 4373 0000 63685468 		.ascii	"chThdStartI\000"
 4373      64537461 
 4373      72744900 
 4374              		.section	.rodata.__func__.7535,"a",%progbits
 4375              		.align	2
 4376              		.type	__func__.7535, %object
 4377              		.size	__func__.7535, 12
 4378              	__func__.7535:
 4379 0000 63685379 		.ascii	"chSysUnlock\000"
 4379      73556E6C 
 4379      6F636B00 
 4380              		.text
 4381              	.Letext0:
 4382              		.file 8 "/usr/lib/gcc/arm-none-eabi/6.3.1/include/stddef.h"
 4383              		.file 9 "/usr/arm-none-eabi/include/machine/_default_types.h"
 4384              		.file 10 "/usr/arm-none-eabi/include/sys/lock.h"
 4385              		.file 11 "/usr/arm-none-eabi/include/sys/_types.h"
 4386              		.file 12 "/usr/arm-none-eabi/include/sys/reent.h"
 4387              		.file 13 "/usr/arm-none-eabi/include/sys/_stdint.h"
 4388              		.file 14 "../ChibiOS/os/rt/ports/ARMCMx/compilers/GCC/chtypes.h"
 4389              		.file 15 "../ChibiOS/os/rt/include/chsystypes.h"
 4390              		.file 16 "../ChibiOS/os/rt/include/chschd.h"
 4391              		.file 17 "../ChibiOS/os/ext/CMSIS/include/core_cm4.h"
 4392              		.file 18 "../ChibiOS/os/ext/CMSIS/ST/STM32F4xx/system_stm32f4xx.h"
 4393              		.file 19 "../ChibiOS/os/ext/CMSIS/ST/STM32F4xx/stm32f437xx.h"
 4394              		.file 20 "../ChibiOS/os/rt/ports/ARMCMx/chcore.h"
 4395              		.file 21 "../ChibiOS/os/rt/include/chtm.h"
 4396              		.file 22 "../ChibiOS/os/rt/include/chstats.h"
 4397              		.file 23 "../ChibiOS/os/rt/include/chsem.h"
 4398              		.file 24 "../ChibiOS/os/rt/include/chmtx.h"
 4399              		.file 25 "../ChibiOS/os/rt/include/chevents.h"
 4400              		.file 26 "../ChibiOS/os/rt/include/chqueues.h"
 4401              		.file 27 "../ChibiOS/os/hal/ports/STM32/LLD/DMAv2/stm32_dma.h"
 4402              		.file 28 "../ChibiOS/os/hal/ports/STM32/LLD/GPIOv2/pal_lld.h"
 4403              		.file 29 "../ChibiOS/os/hal/include/ext.h"
 4404              		.file 30 "../ChibiOS/os/hal/ports/STM32/LLD/EXTIv1/ext_lld.h"
 4405              		.file 31 "../ChibiOS/os/hal/include/gpt.h"
 4406              		.file 32 "../ChibiOS/os/hal/ports/STM32/LLD/TIMv1/gpt_lld.h"
 4407              		.file 33 "../ChibiOS/os/hal/ports/STM32/LLD/TIMv1/stm32_tim.h"
 4408              		.file 34 "../ChibiOS/os/hal/include/pwm.h"
 4409              		.file 35 "../ChibiOS/os/hal/ports/STM32/LLD/TIMv1/pwm_lld.h"
 4410              		.file 36 "../ChibiOS/os/hal/include/serial.h"
 4411              		.file 37 "../ChibiOS/os/hal/ports/STM32/LLD/USARTv1/serial_lld.h"
 4412              		.file 38 "../ChibiOS/os/hal/include/usb.h"
 4413              		.file 39 "../ChibiOS/os/hal/ports/STM32/LLD/OTGv1/usb_lld.h"
 4414              		.file 40 "../ChibiOS/os/hal/ports/STM32/LLD/OTGv1/stm32_otg.h"
 4415              		.section	.debug_info,"",%progbits
 4416              	.Ldebug_info0:
 4417 0000 54340000 		.4byte	0x3454
 4418 0004 0400     		.2byte	0x4
 4419 0006 00000000 		.4byte	.Ldebug_abbrev0
 4420 000a 04       		.byte	0x4
 4421 000b 01       		.uleb128 0x1
 4422 000c C20B0000 		.4byte	.LASF638
 4423 0010 0C       		.byte	0xc
ARM GAS  /tmp/ccDE0Mq0.s 			page 79


 4424 0011 FD120000 		.4byte	.LASF639
 4425 0015 09000000 		.4byte	.LASF640
 4426 0019 00000000 		.4byte	.Ldebug_ranges0+0
 4427 001d 00000000 		.4byte	0
 4428 0021 00000000 		.4byte	.Ldebug_line0
 4429 0025 02       		.uleb128 0x2
 4430 0026 04       		.byte	0x4
 4431 0027 05       		.byte	0x5
 4432 0028 696E7400 		.ascii	"int\000"
 4433 002c 03       		.uleb128 0x3
 4434 002d 3C090000 		.4byte	.LASF4
 4435 0031 08       		.byte	0x8
 4436 0032 D8       		.byte	0xd8
 4437 0033 3C000000 		.4byte	0x3c
 4438 0037 04       		.uleb128 0x4
 4439 0038 2C000000 		.4byte	0x2c
 4440 003c 05       		.uleb128 0x5
 4441 003d 04       		.byte	0x4
 4442 003e 07       		.byte	0x7
 4443 003f 8B1A0000 		.4byte	.LASF0
 4444 0043 05       		.uleb128 0x5
 4445 0044 08       		.byte	0x8
 4446 0045 05       		.byte	0x5
 4447 0046 D3180000 		.4byte	.LASF1
 4448 004a 05       		.uleb128 0x5
 4449 004b 08       		.byte	0x8
 4450 004c 04       		.byte	0x4
 4451 004d 82120000 		.4byte	.LASF2
 4452 0051 05       		.uleb128 0x5
 4453 0052 01       		.byte	0x1
 4454 0053 06       		.byte	0x6
 4455 0054 D50F0000 		.4byte	.LASF3
 4456 0058 03       		.uleb128 0x3
 4457 0059 E4000000 		.4byte	.LASF5
 4458 005d 09       		.byte	0x9
 4459 005e 2B       		.byte	0x2b
 4460 005f 63000000 		.4byte	0x63
 4461 0063 05       		.uleb128 0x5
 4462 0064 01       		.byte	0x1
 4463 0065 08       		.byte	0x8
 4464 0066 B2060000 		.4byte	.LASF6
 4465 006a 05       		.uleb128 0x5
 4466 006b 02       		.byte	0x2
 4467 006c 05       		.byte	0x5
 4468 006d CC1A0000 		.4byte	.LASF7
 4469 0071 03       		.uleb128 0x3
 4470 0072 A2050000 		.4byte	.LASF8
 4471 0076 09       		.byte	0x9
 4472 0077 39       		.byte	0x39
 4473 0078 7C000000 		.4byte	0x7c
 4474 007c 05       		.uleb128 0x5
 4475 007d 02       		.byte	0x2
 4476 007e 07       		.byte	0x7
 4477 007f C20F0000 		.4byte	.LASF9
 4478 0083 03       		.uleb128 0x3
 4479 0084 C6150000 		.4byte	.LASF10
 4480 0088 09       		.byte	0x9
ARM GAS  /tmp/ccDE0Mq0.s 			page 80


 4481 0089 4D       		.byte	0x4d
 4482 008a 8E000000 		.4byte	0x8e
 4483 008e 05       		.uleb128 0x5
 4484 008f 04       		.byte	0x4
 4485 0090 05       		.byte	0x5
 4486 0091 89110000 		.4byte	.LASF11
 4487 0095 03       		.uleb128 0x3
 4488 0096 D0150000 		.4byte	.LASF12
 4489 009a 09       		.byte	0x9
 4490 009b 4F       		.byte	0x4f
 4491 009c A0000000 		.4byte	0xa0
 4492 00a0 05       		.uleb128 0x5
 4493 00a1 04       		.byte	0x4
 4494 00a2 07       		.byte	0x7
 4495 00a3 C0120000 		.4byte	.LASF13
 4496 00a7 03       		.uleb128 0x3
 4497 00a8 E20C0000 		.4byte	.LASF14
 4498 00ac 09       		.byte	0x9
 4499 00ad 69       		.byte	0x69
 4500 00ae B2000000 		.4byte	0xb2
 4501 00b2 05       		.uleb128 0x5
 4502 00b3 08       		.byte	0x8
 4503 00b4 07       		.byte	0x7
 4504 00b5 F4160000 		.4byte	.LASF15
 4505 00b9 03       		.uleb128 0x3
 4506 00ba 6F050000 		.4byte	.LASF16
 4507 00be 0A       		.byte	0xa
 4508 00bf 22       		.byte	0x22
 4509 00c0 C4000000 		.4byte	0xc4
 4510 00c4 06       		.uleb128 0x6
 4511 00c5 04       		.byte	0x4
 4512 00c6 CA000000 		.4byte	0xca
 4513 00ca 07       		.uleb128 0x7
 4514 00cb 56040000 		.4byte	.LASF124
 4515 00cf 03       		.uleb128 0x3
 4516 00d0 26090000 		.4byte	.LASF17
 4517 00d4 0B       		.byte	0xb
 4518 00d5 2C       		.byte	0x2c
 4519 00d6 8E000000 		.4byte	0x8e
 4520 00da 03       		.uleb128 0x3
 4521 00db 35150000 		.4byte	.LASF18
 4522 00df 0B       		.byte	0xb
 4523 00e0 72       		.byte	0x72
 4524 00e1 8E000000 		.4byte	0x8e
 4525 00e5 08       		.uleb128 0x8
 4526 00e6 EB0A0000 		.4byte	.LASF19
 4527 00ea 08       		.byte	0x8
 4528 00eb 6501     		.2byte	0x165
 4529 00ed 3C000000 		.4byte	0x3c
 4530 00f1 09       		.uleb128 0x9
 4531 00f2 04       		.byte	0x4
 4532 00f3 0B       		.byte	0xb
 4533 00f4 A6       		.byte	0xa6
 4534 00f5 10010000 		.4byte	0x110
 4535 00f9 0A       		.uleb128 0xa
 4536 00fa 1B110000 		.4byte	.LASF20
 4537 00fe 0B       		.byte	0xb
ARM GAS  /tmp/ccDE0Mq0.s 			page 81


 4538 00ff A8       		.byte	0xa8
 4539 0100 E5000000 		.4byte	0xe5
 4540 0104 0A       		.uleb128 0xa
 4541 0105 900A0000 		.4byte	.LASF21
 4542 0109 0B       		.byte	0xb
 4543 010a A9       		.byte	0xa9
 4544 010b 10010000 		.4byte	0x110
 4545 010f 00       		.byte	0
 4546 0110 0B       		.uleb128 0xb
 4547 0111 63000000 		.4byte	0x63
 4548 0115 20010000 		.4byte	0x120
 4549 0119 0C       		.uleb128 0xc
 4550 011a 20010000 		.4byte	0x120
 4551 011e 03       		.byte	0x3
 4552 011f 00       		.byte	0
 4553 0120 05       		.uleb128 0x5
 4554 0121 04       		.byte	0x4
 4555 0122 07       		.byte	0x7
 4556 0123 740F0000 		.4byte	.LASF22
 4557 0127 0D       		.uleb128 0xd
 4558 0128 08       		.byte	0x8
 4559 0129 0B       		.byte	0xb
 4560 012a A3       		.byte	0xa3
 4561 012b 48010000 		.4byte	0x148
 4562 012f 0E       		.uleb128 0xe
 4563 0130 6C090000 		.4byte	.LASF23
 4564 0134 0B       		.byte	0xb
 4565 0135 A5       		.byte	0xa5
 4566 0136 25000000 		.4byte	0x25
 4567 013a 00       		.byte	0
 4568 013b 0E       		.uleb128 0xe
 4569 013c FE150000 		.4byte	.LASF24
 4570 0140 0B       		.byte	0xb
 4571 0141 AA       		.byte	0xaa
 4572 0142 F1000000 		.4byte	0xf1
 4573 0146 04       		.byte	0x4
 4574 0147 00       		.byte	0
 4575 0148 03       		.uleb128 0x3
 4576 0149 88150000 		.4byte	.LASF25
 4577 014d 0B       		.byte	0xb
 4578 014e AB       		.byte	0xab
 4579 014f 27010000 		.4byte	0x127
 4580 0153 03       		.uleb128 0x3
 4581 0154 78180000 		.4byte	.LASF26
 4582 0158 0B       		.byte	0xb
 4583 0159 AF       		.byte	0xaf
 4584 015a B9000000 		.4byte	0xb9
 4585 015e 0F       		.uleb128 0xf
 4586 015f 04       		.byte	0x4
 4587 0160 06       		.uleb128 0x6
 4588 0161 04       		.byte	0x4
 4589 0162 66010000 		.4byte	0x166
 4590 0166 05       		.uleb128 0x5
 4591 0167 01       		.byte	0x1
 4592 0168 08       		.byte	0x8
 4593 0169 46130000 		.4byte	.LASF27
 4594 016d 10       		.uleb128 0x10
ARM GAS  /tmp/ccDE0Mq0.s 			page 82


 4595 016e 66010000 		.4byte	0x166
 4596 0172 03       		.uleb128 0x3
 4597 0173 8C0E0000 		.4byte	.LASF28
 4598 0177 0C       		.byte	0xc
 4599 0178 16       		.byte	0x16
 4600 0179 A0000000 		.4byte	0xa0
 4601 017d 11       		.uleb128 0x11
 4602 017e A2130000 		.4byte	.LASF33
 4603 0182 18       		.byte	0x18
 4604 0183 0C       		.byte	0xc
 4605 0184 2F       		.byte	0x2f
 4606 0185 D0010000 		.4byte	0x1d0
 4607 0189 0E       		.uleb128 0xe
 4608 018a FE0C0000 		.4byte	.LASF29
 4609 018e 0C       		.byte	0xc
 4610 018f 31       		.byte	0x31
 4611 0190 D0010000 		.4byte	0x1d0
 4612 0194 00       		.byte	0
 4613 0195 12       		.uleb128 0x12
 4614 0196 5F6B00   		.ascii	"_k\000"
 4615 0199 0C       		.byte	0xc
 4616 019a 32       		.byte	0x32
 4617 019b 25000000 		.4byte	0x25
 4618 019f 04       		.byte	0x4
 4619 01a0 0E       		.uleb128 0xe
 4620 01a1 4D120000 		.4byte	.LASF30
 4621 01a5 0C       		.byte	0xc
 4622 01a6 32       		.byte	0x32
 4623 01a7 25000000 		.4byte	0x25
 4624 01ab 08       		.byte	0x8
 4625 01ac 0E       		.uleb128 0xe
 4626 01ad 4B1A0000 		.4byte	.LASF31
 4627 01b1 0C       		.byte	0xc
 4628 01b2 32       		.byte	0x32
 4629 01b3 25000000 		.4byte	0x25
 4630 01b7 0C       		.byte	0xc
 4631 01b8 0E       		.uleb128 0xe
 4632 01b9 19070000 		.4byte	.LASF32
 4633 01bd 0C       		.byte	0xc
 4634 01be 32       		.byte	0x32
 4635 01bf 25000000 		.4byte	0x25
 4636 01c3 10       		.byte	0x10
 4637 01c4 12       		.uleb128 0x12
 4638 01c5 5F7800   		.ascii	"_x\000"
 4639 01c8 0C       		.byte	0xc
 4640 01c9 33       		.byte	0x33
 4641 01ca D6010000 		.4byte	0x1d6
 4642 01ce 14       		.byte	0x14
 4643 01cf 00       		.byte	0
 4644 01d0 06       		.uleb128 0x6
 4645 01d1 04       		.byte	0x4
 4646 01d2 7D010000 		.4byte	0x17d
 4647 01d6 0B       		.uleb128 0xb
 4648 01d7 72010000 		.4byte	0x172
 4649 01db E6010000 		.4byte	0x1e6
 4650 01df 0C       		.uleb128 0xc
 4651 01e0 20010000 		.4byte	0x120
ARM GAS  /tmp/ccDE0Mq0.s 			page 83


 4652 01e4 00       		.byte	0
 4653 01e5 00       		.byte	0
 4654 01e6 11       		.uleb128 0x11
 4655 01e7 11050000 		.4byte	.LASF34
 4656 01eb 24       		.byte	0x24
 4657 01ec 0C       		.byte	0xc
 4658 01ed 37       		.byte	0x37
 4659 01ee 5F020000 		.4byte	0x25f
 4660 01f2 0E       		.uleb128 0xe
 4661 01f3 D60D0000 		.4byte	.LASF35
 4662 01f7 0C       		.byte	0xc
 4663 01f8 39       		.byte	0x39
 4664 01f9 25000000 		.4byte	0x25
 4665 01fd 00       		.byte	0
 4666 01fe 0E       		.uleb128 0xe
 4667 01ff 5A1A0000 		.4byte	.LASF36
 4668 0203 0C       		.byte	0xc
 4669 0204 3A       		.byte	0x3a
 4670 0205 25000000 		.4byte	0x25
 4671 0209 04       		.byte	0x4
 4672 020a 0E       		.uleb128 0xe
 4673 020b B40A0000 		.4byte	.LASF37
 4674 020f 0C       		.byte	0xc
 4675 0210 3B       		.byte	0x3b
 4676 0211 25000000 		.4byte	0x25
 4677 0215 08       		.byte	0x8
 4678 0216 0E       		.uleb128 0xe
 4679 0217 630B0000 		.4byte	.LASF38
 4680 021b 0C       		.byte	0xc
 4681 021c 3C       		.byte	0x3c
 4682 021d 25000000 		.4byte	0x25
 4683 0221 0C       		.byte	0xc
 4684 0222 0E       		.uleb128 0xe
 4685 0223 4E010000 		.4byte	.LASF39
 4686 0227 0C       		.byte	0xc
 4687 0228 3D       		.byte	0x3d
 4688 0229 25000000 		.4byte	0x25
 4689 022d 10       		.byte	0x10
 4690 022e 0E       		.uleb128 0xe
 4691 022f E2070000 		.4byte	.LASF40
 4692 0233 0C       		.byte	0xc
 4693 0234 3E       		.byte	0x3e
 4694 0235 25000000 		.4byte	0x25
 4695 0239 14       		.byte	0x14
 4696 023a 0E       		.uleb128 0xe
 4697 023b 74060000 		.4byte	.LASF41
 4698 023f 0C       		.byte	0xc
 4699 0240 3F       		.byte	0x3f
 4700 0241 25000000 		.4byte	0x25
 4701 0245 18       		.byte	0x18
 4702 0246 0E       		.uleb128 0xe
 4703 0247 48050000 		.4byte	.LASF42
 4704 024b 0C       		.byte	0xc
 4705 024c 40       		.byte	0x40
 4706 024d 25000000 		.4byte	0x25
 4707 0251 1C       		.byte	0x1c
 4708 0252 0E       		.uleb128 0xe
ARM GAS  /tmp/ccDE0Mq0.s 			page 84


 4709 0253 7E060000 		.4byte	.LASF43
 4710 0257 0C       		.byte	0xc
 4711 0258 41       		.byte	0x41
 4712 0259 25000000 		.4byte	0x25
 4713 025d 20       		.byte	0x20
 4714 025e 00       		.byte	0
 4715 025f 13       		.uleb128 0x13
 4716 0260 ED0D0000 		.4byte	.LASF44
 4717 0264 0801     		.2byte	0x108
 4718 0266 0C       		.byte	0xc
 4719 0267 4A       		.byte	0x4a
 4720 0268 9F020000 		.4byte	0x29f
 4721 026c 0E       		.uleb128 0xe
 4722 026d 850B0000 		.4byte	.LASF45
 4723 0271 0C       		.byte	0xc
 4724 0272 4B       		.byte	0x4b
 4725 0273 9F020000 		.4byte	0x29f
 4726 0277 00       		.byte	0
 4727 0278 0E       		.uleb128 0xe
 4728 0279 5E060000 		.4byte	.LASF46
 4729 027d 0C       		.byte	0xc
 4730 027e 4C       		.byte	0x4c
 4731 027f 9F020000 		.4byte	0x29f
 4732 0283 80       		.byte	0x80
 4733 0284 14       		.uleb128 0x14
 4734 0285 57010000 		.4byte	.LASF47
 4735 0289 0C       		.byte	0xc
 4736 028a 4E       		.byte	0x4e
 4737 028b 72010000 		.4byte	0x172
 4738 028f 0001     		.2byte	0x100
 4739 0291 14       		.uleb128 0x14
 4740 0292 06160000 		.4byte	.LASF48
 4741 0296 0C       		.byte	0xc
 4742 0297 51       		.byte	0x51
 4743 0298 72010000 		.4byte	0x172
 4744 029c 0401     		.2byte	0x104
 4745 029e 00       		.byte	0
 4746 029f 0B       		.uleb128 0xb
 4747 02a0 5E010000 		.4byte	0x15e
 4748 02a4 AF020000 		.4byte	0x2af
 4749 02a8 0C       		.uleb128 0xc
 4750 02a9 20010000 		.4byte	0x120
 4751 02ad 1F       		.byte	0x1f
 4752 02ae 00       		.byte	0
 4753 02af 13       		.uleb128 0x13
 4754 02b0 04010000 		.4byte	.LASF49
 4755 02b4 9001     		.2byte	0x190
 4756 02b6 0C       		.byte	0xc
 4757 02b7 5D       		.byte	0x5d
 4758 02b8 ED020000 		.4byte	0x2ed
 4759 02bc 0E       		.uleb128 0xe
 4760 02bd FE0C0000 		.4byte	.LASF29
 4761 02c1 0C       		.byte	0xc
 4762 02c2 5E       		.byte	0x5e
 4763 02c3 ED020000 		.4byte	0x2ed
 4764 02c7 00       		.byte	0
 4765 02c8 0E       		.uleb128 0xe
ARM GAS  /tmp/ccDE0Mq0.s 			page 85


 4766 02c9 73010000 		.4byte	.LASF50
 4767 02cd 0C       		.byte	0xc
 4768 02ce 5F       		.byte	0x5f
 4769 02cf 25000000 		.4byte	0x25
 4770 02d3 04       		.byte	0x4
 4771 02d4 0E       		.uleb128 0xe
 4772 02d5 66150000 		.4byte	.LASF51
 4773 02d9 0C       		.byte	0xc
 4774 02da 61       		.byte	0x61
 4775 02db F3020000 		.4byte	0x2f3
 4776 02df 08       		.byte	0x8
 4777 02e0 0E       		.uleb128 0xe
 4778 02e1 ED0D0000 		.4byte	.LASF44
 4779 02e5 0C       		.byte	0xc
 4780 02e6 62       		.byte	0x62
 4781 02e7 5F020000 		.4byte	0x25f
 4782 02eb 88       		.byte	0x88
 4783 02ec 00       		.byte	0
 4784 02ed 06       		.uleb128 0x6
 4785 02ee 04       		.byte	0x4
 4786 02ef AF020000 		.4byte	0x2af
 4787 02f3 0B       		.uleb128 0xb
 4788 02f4 03030000 		.4byte	0x303
 4789 02f8 03030000 		.4byte	0x303
 4790 02fc 0C       		.uleb128 0xc
 4791 02fd 20010000 		.4byte	0x120
 4792 0301 1F       		.byte	0x1f
 4793 0302 00       		.byte	0
 4794 0303 06       		.uleb128 0x6
 4795 0304 04       		.byte	0x4
 4796 0305 09030000 		.4byte	0x309
 4797 0309 15       		.uleb128 0x15
 4798 030a 11       		.uleb128 0x11
 4799 030b 8F100000 		.4byte	.LASF52
 4800 030f 08       		.byte	0x8
 4801 0310 0C       		.byte	0xc
 4802 0311 75       		.byte	0x75
 4803 0312 2F030000 		.4byte	0x32f
 4804 0316 0E       		.uleb128 0xe
 4805 0317 9F040000 		.4byte	.LASF53
 4806 031b 0C       		.byte	0xc
 4807 031c 76       		.byte	0x76
 4808 031d 2F030000 		.4byte	0x32f
 4809 0321 00       		.byte	0
 4810 0322 0E       		.uleb128 0xe
 4811 0323 29070000 		.4byte	.LASF54
 4812 0327 0C       		.byte	0xc
 4813 0328 77       		.byte	0x77
 4814 0329 25000000 		.4byte	0x25
 4815 032d 04       		.byte	0x4
 4816 032e 00       		.byte	0
 4817 032f 06       		.uleb128 0x6
 4818 0330 04       		.byte	0x4
 4819 0331 63000000 		.4byte	0x63
 4820 0335 11       		.uleb128 0x11
 4821 0336 5E150000 		.4byte	.LASF55
 4822 033a 68       		.byte	0x68
ARM GAS  /tmp/ccDE0Mq0.s 			page 86


 4823 033b 0C       		.byte	0xc
 4824 033c B5       		.byte	0xb5
 4825 033d 5F040000 		.4byte	0x45f
 4826 0341 12       		.uleb128 0x12
 4827 0342 5F7000   		.ascii	"_p\000"
 4828 0345 0C       		.byte	0xc
 4829 0346 B6       		.byte	0xb6
 4830 0347 2F030000 		.4byte	0x32f
 4831 034b 00       		.byte	0
 4832 034c 12       		.uleb128 0x12
 4833 034d 5F7200   		.ascii	"_r\000"
 4834 0350 0C       		.byte	0xc
 4835 0351 B7       		.byte	0xb7
 4836 0352 25000000 		.4byte	0x25
 4837 0356 04       		.byte	0x4
 4838 0357 12       		.uleb128 0x12
 4839 0358 5F7700   		.ascii	"_w\000"
 4840 035b 0C       		.byte	0xc
 4841 035c B8       		.byte	0xb8
 4842 035d 25000000 		.4byte	0x25
 4843 0361 08       		.byte	0x8
 4844 0362 0E       		.uleb128 0xe
 4845 0363 B5010000 		.4byte	.LASF56
 4846 0367 0C       		.byte	0xc
 4847 0368 B9       		.byte	0xb9
 4848 0369 6A000000 		.4byte	0x6a
 4849 036d 0C       		.byte	0xc
 4850 036e 0E       		.uleb128 0xe
 4851 036f 3D150000 		.4byte	.LASF57
 4852 0373 0C       		.byte	0xc
 4853 0374 BA       		.byte	0xba
 4854 0375 6A000000 		.4byte	0x6a
 4855 0379 0E       		.byte	0xe
 4856 037a 12       		.uleb128 0x12
 4857 037b 5F626600 		.ascii	"_bf\000"
 4858 037f 0C       		.byte	0xc
 4859 0380 BB       		.byte	0xbb
 4860 0381 0A030000 		.4byte	0x30a
 4861 0385 10       		.byte	0x10
 4862 0386 0E       		.uleb128 0xe
 4863 0387 A3030000 		.4byte	.LASF58
 4864 038b 0C       		.byte	0xc
 4865 038c BC       		.byte	0xbc
 4866 038d 25000000 		.4byte	0x25
 4867 0391 18       		.byte	0x18
 4868 0392 0E       		.uleb128 0xe
 4869 0393 260D0000 		.4byte	.LASF59
 4870 0397 0C       		.byte	0xc
 4871 0398 C3       		.byte	0xc3
 4872 0399 5E010000 		.4byte	0x15e
 4873 039d 1C       		.byte	0x1c
 4874 039e 0E       		.uleb128 0xe
 4875 039f E41A0000 		.4byte	.LASF60
 4876 03a3 0C       		.byte	0xc
 4877 03a4 C5       		.byte	0xc5
 4878 03a5 BA050000 		.4byte	0x5ba
 4879 03a9 20       		.byte	0x20
ARM GAS  /tmp/ccDE0Mq0.s 			page 87


 4880 03aa 0E       		.uleb128 0xe
 4881 03ab 62070000 		.4byte	.LASF61
 4882 03af 0C       		.byte	0xc
 4883 03b0 C7       		.byte	0xc7
 4884 03b1 E9050000 		.4byte	0x5e9
 4885 03b5 24       		.byte	0x24
 4886 03b6 0E       		.uleb128 0xe
 4887 03b7 990F0000 		.4byte	.LASF62
 4888 03bb 0C       		.byte	0xc
 4889 03bc CA       		.byte	0xca
 4890 03bd 0D060000 		.4byte	0x60d
 4891 03c1 28       		.byte	0x28
 4892 03c2 0E       		.uleb128 0xe
 4893 03c3 3A130000 		.4byte	.LASF63
 4894 03c7 0C       		.byte	0xc
 4895 03c8 CB       		.byte	0xcb
 4896 03c9 27060000 		.4byte	0x627
 4897 03cd 2C       		.byte	0x2c
 4898 03ce 12       		.uleb128 0x12
 4899 03cf 5F756200 		.ascii	"_ub\000"
 4900 03d3 0C       		.byte	0xc
 4901 03d4 CE       		.byte	0xce
 4902 03d5 0A030000 		.4byte	0x30a
 4903 03d9 30       		.byte	0x30
 4904 03da 12       		.uleb128 0x12
 4905 03db 5F757000 		.ascii	"_up\000"
 4906 03df 0C       		.byte	0xc
 4907 03e0 CF       		.byte	0xcf
 4908 03e1 2F030000 		.4byte	0x32f
 4909 03e5 38       		.byte	0x38
 4910 03e6 12       		.uleb128 0x12
 4911 03e7 5F757200 		.ascii	"_ur\000"
 4912 03eb 0C       		.byte	0xc
 4913 03ec D0       		.byte	0xd0
 4914 03ed 25000000 		.4byte	0x25
 4915 03f1 3C       		.byte	0x3c
 4916 03f2 0E       		.uleb128 0xe
 4917 03f3 D8140000 		.4byte	.LASF64
 4918 03f7 0C       		.byte	0xc
 4919 03f8 D3       		.byte	0xd3
 4920 03f9 2D060000 		.4byte	0x62d
 4921 03fd 40       		.byte	0x40
 4922 03fe 0E       		.uleb128 0xe
 4923 03ff 5F020000 		.4byte	.LASF65
 4924 0403 0C       		.byte	0xc
 4925 0404 D4       		.byte	0xd4
 4926 0405 3D060000 		.4byte	0x63d
 4927 0409 43       		.byte	0x43
 4928 040a 12       		.uleb128 0x12
 4929 040b 5F6C6200 		.ascii	"_lb\000"
 4930 040f 0C       		.byte	0xc
 4931 0410 D7       		.byte	0xd7
 4932 0411 0A030000 		.4byte	0x30a
 4933 0415 44       		.byte	0x44
 4934 0416 0E       		.uleb128 0xe
 4935 0417 C6140000 		.4byte	.LASF66
 4936 041b 0C       		.byte	0xc
ARM GAS  /tmp/ccDE0Mq0.s 			page 88


 4937 041c DA       		.byte	0xda
 4938 041d 25000000 		.4byte	0x25
 4939 0421 4C       		.byte	0x4c
 4940 0422 0E       		.uleb128 0xe
 4941 0423 66100000 		.4byte	.LASF67
 4942 0427 0C       		.byte	0xc
 4943 0428 DB       		.byte	0xdb
 4944 0429 CF000000 		.4byte	0xcf
 4945 042d 50       		.byte	0x50
 4946 042e 0E       		.uleb128 0xe
 4947 042f E9030000 		.4byte	.LASF68
 4948 0433 0C       		.byte	0xc
 4949 0434 DE       		.byte	0xde
 4950 0435 7D040000 		.4byte	0x47d
 4951 0439 54       		.byte	0x54
 4952 043a 0E       		.uleb128 0xe
 4953 043b 59020000 		.4byte	.LASF69
 4954 043f 0C       		.byte	0xc
 4955 0440 E2       		.byte	0xe2
 4956 0441 53010000 		.4byte	0x153
 4957 0445 58       		.byte	0x58
 4958 0446 0E       		.uleb128 0xe
 4959 0447 FB000000 		.4byte	.LASF70
 4960 044b 0C       		.byte	0xc
 4961 044c E4       		.byte	0xe4
 4962 044d 48010000 		.4byte	0x148
 4963 0451 5C       		.byte	0x5c
 4964 0452 0E       		.uleb128 0xe
 4965 0453 08190000 		.4byte	.LASF71
 4966 0457 0C       		.byte	0xc
 4967 0458 E5       		.byte	0xe5
 4968 0459 25000000 		.4byte	0x25
 4969 045d 64       		.byte	0x64
 4970 045e 00       		.byte	0
 4971 045f 16       		.uleb128 0x16
 4972 0460 25000000 		.4byte	0x25
 4973 0464 7D040000 		.4byte	0x47d
 4974 0468 17       		.uleb128 0x17
 4975 0469 7D040000 		.4byte	0x47d
 4976 046d 17       		.uleb128 0x17
 4977 046e 5E010000 		.4byte	0x15e
 4978 0472 17       		.uleb128 0x17
 4979 0473 60010000 		.4byte	0x160
 4980 0477 17       		.uleb128 0x17
 4981 0478 25000000 		.4byte	0x25
 4982 047c 00       		.byte	0
 4983 047d 06       		.uleb128 0x6
 4984 047e 04       		.byte	0x4
 4985 047f 88040000 		.4byte	0x488
 4986 0483 10       		.uleb128 0x10
 4987 0484 7D040000 		.4byte	0x47d
 4988 0488 18       		.uleb128 0x18
 4989 0489 5D040000 		.4byte	.LASF72
 4990 048d 2804     		.2byte	0x428
 4991 048f 0C       		.byte	0xc
 4992 0490 3902     		.2byte	0x239
 4993 0492 BA050000 		.4byte	0x5ba
ARM GAS  /tmp/ccDE0Mq0.s 			page 89


 4994 0496 19       		.uleb128 0x19
 4995 0497 530B0000 		.4byte	.LASF73
 4996 049b 0C       		.byte	0xc
 4997 049c 3B02     		.2byte	0x23b
 4998 049e 25000000 		.4byte	0x25
 4999 04a2 00       		.byte	0
 5000 04a3 19       		.uleb128 0x19
 5001 04a4 BF080000 		.4byte	.LASF74
 5002 04a8 0C       		.byte	0xc
 5003 04a9 4002     		.2byte	0x240
 5004 04ab 94060000 		.4byte	0x694
 5005 04af 04       		.byte	0x4
 5006 04b0 19       		.uleb128 0x19
 5007 04b1 C0060000 		.4byte	.LASF75
 5008 04b5 0C       		.byte	0xc
 5009 04b6 4002     		.2byte	0x240
 5010 04b8 94060000 		.4byte	0x694
 5011 04bc 08       		.byte	0x8
 5012 04bd 19       		.uleb128 0x19
 5013 04be 44060000 		.4byte	.LASF76
 5014 04c2 0C       		.byte	0xc
 5015 04c3 4002     		.2byte	0x240
 5016 04c5 94060000 		.4byte	0x694
 5017 04c9 0C       		.byte	0xc
 5018 04ca 19       		.uleb128 0x19
 5019 04cb 6E010000 		.4byte	.LASF77
 5020 04cf 0C       		.byte	0xc
 5021 04d0 4202     		.2byte	0x242
 5022 04d2 25000000 		.4byte	0x25
 5023 04d6 10       		.byte	0x10
 5024 04d7 19       		.uleb128 0x19
 5025 04d8 EA110000 		.4byte	.LASF78
 5026 04dc 0C       		.byte	0xc
 5027 04dd 4302     		.2byte	0x243
 5028 04df 76080000 		.4byte	0x876
 5029 04e3 14       		.byte	0x14
 5030 04e4 19       		.uleb128 0x19
 5031 04e5 E7170000 		.4byte	.LASF79
 5032 04e9 0C       		.byte	0xc
 5033 04ea 4602     		.2byte	0x246
 5034 04ec 25000000 		.4byte	0x25
 5035 04f0 30       		.byte	0x30
 5036 04f1 19       		.uleb128 0x19
 5037 04f2 5D190000 		.4byte	.LASF80
 5038 04f6 0C       		.byte	0xc
 5039 04f7 4702     		.2byte	0x247
 5040 04f9 8B080000 		.4byte	0x88b
 5041 04fd 34       		.byte	0x34
 5042 04fe 19       		.uleb128 0x19
 5043 04ff 3A180000 		.4byte	.LASF81
 5044 0503 0C       		.byte	0xc
 5045 0504 4902     		.2byte	0x249
 5046 0506 25000000 		.4byte	0x25
 5047 050a 38       		.byte	0x38
 5048 050b 19       		.uleb128 0x19
 5049 050c 05150000 		.4byte	.LASF82
 5050 0510 0C       		.byte	0xc
ARM GAS  /tmp/ccDE0Mq0.s 			page 90


 5051 0511 4B02     		.2byte	0x24b
 5052 0513 9C080000 		.4byte	0x89c
 5053 0517 3C       		.byte	0x3c
 5054 0518 19       		.uleb128 0x19
 5055 0519 4C060000 		.4byte	.LASF83
 5056 051d 0C       		.byte	0xc
 5057 051e 4E02     		.2byte	0x24e
 5058 0520 D0010000 		.4byte	0x1d0
 5059 0524 40       		.byte	0x40
 5060 0525 19       		.uleb128 0x19
 5061 0526 35060000 		.4byte	.LASF84
 5062 052a 0C       		.byte	0xc
 5063 052b 4F02     		.2byte	0x24f
 5064 052d 25000000 		.4byte	0x25
 5065 0531 44       		.byte	0x44
 5066 0532 19       		.uleb128 0x19
 5067 0533 2A160000 		.4byte	.LASF85
 5068 0537 0C       		.byte	0xc
 5069 0538 5002     		.2byte	0x250
 5070 053a D0010000 		.4byte	0x1d0
 5071 053e 48       		.byte	0x48
 5072 053f 19       		.uleb128 0x19
 5073 0540 30100000 		.4byte	.LASF86
 5074 0544 0C       		.byte	0xc
 5075 0545 5102     		.2byte	0x251
 5076 0547 A2080000 		.4byte	0x8a2
 5077 054b 4C       		.byte	0x4c
 5078 054c 19       		.uleb128 0x19
 5079 054d FA010000 		.4byte	.LASF87
 5080 0551 0C       		.byte	0xc
 5081 0552 5402     		.2byte	0x254
 5082 0554 25000000 		.4byte	0x25
 5083 0558 50       		.byte	0x50
 5084 0559 19       		.uleb128 0x19
 5085 055a 280A0000 		.4byte	.LASF88
 5086 055e 0C       		.byte	0xc
 5087 055f 5502     		.2byte	0x255
 5088 0561 60010000 		.4byte	0x160
 5089 0565 54       		.byte	0x54
 5090 0566 19       		.uleb128 0x19
 5091 0567 F20A0000 		.4byte	.LASF89
 5092 056b 0C       		.byte	0xc
 5093 056c 7802     		.2byte	0x278
 5094 056e 54080000 		.4byte	0x854
 5095 0572 58       		.byte	0x58
 5096 0573 1A       		.uleb128 0x1a
 5097 0574 04010000 		.4byte	.LASF49
 5098 0578 0C       		.byte	0xc
 5099 0579 7C02     		.2byte	0x27c
 5100 057b ED020000 		.4byte	0x2ed
 5101 057f 4801     		.2byte	0x148
 5102 0581 1A       		.uleb128 0x1a
 5103 0582 E9130000 		.4byte	.LASF90
 5104 0586 0C       		.byte	0xc
 5105 0587 7D02     		.2byte	0x27d
 5106 0589 AF020000 		.4byte	0x2af
 5107 058d 4C01     		.2byte	0x14c
ARM GAS  /tmp/ccDE0Mq0.s 			page 91


 5108 058f 1A       		.uleb128 0x1a
 5109 0590 2F020000 		.4byte	.LASF91
 5110 0594 0C       		.byte	0xc
 5111 0595 8102     		.2byte	0x281
 5112 0597 B3080000 		.4byte	0x8b3
 5113 059b DC02     		.2byte	0x2dc
 5114 059d 1A       		.uleb128 0x1a
 5115 059e F2140000 		.4byte	.LASF92
 5116 05a2 0C       		.byte	0xc
 5117 05a3 8602     		.2byte	0x286
 5118 05a5 59060000 		.4byte	0x659
 5119 05a9 E002     		.2byte	0x2e0
 5120 05ab 1A       		.uleb128 0x1a
 5121 05ac 91040000 		.4byte	.LASF93
 5122 05b0 0C       		.byte	0xc
 5123 05b1 8702     		.2byte	0x287
 5124 05b3 BF080000 		.4byte	0x8bf
 5125 05b7 EC02     		.2byte	0x2ec
 5126 05b9 00       		.byte	0
 5127 05ba 06       		.uleb128 0x6
 5128 05bb 04       		.byte	0x4
 5129 05bc 5F040000 		.4byte	0x45f
 5130 05c0 16       		.uleb128 0x16
 5131 05c1 25000000 		.4byte	0x25
 5132 05c5 DE050000 		.4byte	0x5de
 5133 05c9 17       		.uleb128 0x17
 5134 05ca 7D040000 		.4byte	0x47d
 5135 05ce 17       		.uleb128 0x17
 5136 05cf 5E010000 		.4byte	0x15e
 5137 05d3 17       		.uleb128 0x17
 5138 05d4 DE050000 		.4byte	0x5de
 5139 05d8 17       		.uleb128 0x17
 5140 05d9 25000000 		.4byte	0x25
 5141 05dd 00       		.byte	0
 5142 05de 06       		.uleb128 0x6
 5143 05df 04       		.byte	0x4
 5144 05e0 6D010000 		.4byte	0x16d
 5145 05e4 04       		.uleb128 0x4
 5146 05e5 DE050000 		.4byte	0x5de
 5147 05e9 06       		.uleb128 0x6
 5148 05ea 04       		.byte	0x4
 5149 05eb C0050000 		.4byte	0x5c0
 5150 05ef 16       		.uleb128 0x16
 5151 05f0 DA000000 		.4byte	0xda
 5152 05f4 0D060000 		.4byte	0x60d
 5153 05f8 17       		.uleb128 0x17
 5154 05f9 7D040000 		.4byte	0x47d
 5155 05fd 17       		.uleb128 0x17
 5156 05fe 5E010000 		.4byte	0x15e
 5157 0602 17       		.uleb128 0x17
 5158 0603 DA000000 		.4byte	0xda
 5159 0607 17       		.uleb128 0x17
 5160 0608 25000000 		.4byte	0x25
 5161 060c 00       		.byte	0
 5162 060d 06       		.uleb128 0x6
 5163 060e 04       		.byte	0x4
 5164 060f EF050000 		.4byte	0x5ef
ARM GAS  /tmp/ccDE0Mq0.s 			page 92


 5165 0613 16       		.uleb128 0x16
 5166 0614 25000000 		.4byte	0x25
 5167 0618 27060000 		.4byte	0x627
 5168 061c 17       		.uleb128 0x17
 5169 061d 7D040000 		.4byte	0x47d
 5170 0621 17       		.uleb128 0x17
 5171 0622 5E010000 		.4byte	0x15e
 5172 0626 00       		.byte	0
 5173 0627 06       		.uleb128 0x6
 5174 0628 04       		.byte	0x4
 5175 0629 13060000 		.4byte	0x613
 5176 062d 0B       		.uleb128 0xb
 5177 062e 63000000 		.4byte	0x63
 5178 0632 3D060000 		.4byte	0x63d
 5179 0636 0C       		.uleb128 0xc
 5180 0637 20010000 		.4byte	0x120
 5181 063b 02       		.byte	0x2
 5182 063c 00       		.byte	0
 5183 063d 0B       		.uleb128 0xb
 5184 063e 63000000 		.4byte	0x63
 5185 0642 4D060000 		.4byte	0x64d
 5186 0646 0C       		.uleb128 0xc
 5187 0647 20010000 		.4byte	0x120
 5188 064b 00       		.byte	0
 5189 064c 00       		.byte	0
 5190 064d 08       		.uleb128 0x8
 5191 064e 1E1A0000 		.4byte	.LASF94
 5192 0652 0C       		.byte	0xc
 5193 0653 1F01     		.2byte	0x11f
 5194 0655 35030000 		.4byte	0x335
 5195 0659 1B       		.uleb128 0x1b
 5196 065a 5A130000 		.4byte	.LASF95
 5197 065e 0C       		.byte	0xc
 5198 065f 0C       		.byte	0xc
 5199 0660 2301     		.2byte	0x123
 5200 0662 8E060000 		.4byte	0x68e
 5201 0666 19       		.uleb128 0x19
 5202 0667 FE0C0000 		.4byte	.LASF29
 5203 066b 0C       		.byte	0xc
 5204 066c 2501     		.2byte	0x125
 5205 066e 8E060000 		.4byte	0x68e
 5206 0672 00       		.byte	0
 5207 0673 19       		.uleb128 0x19
 5208 0674 160B0000 		.4byte	.LASF96
 5209 0678 0C       		.byte	0xc
 5210 0679 2601     		.2byte	0x126
 5211 067b 25000000 		.4byte	0x25
 5212 067f 04       		.byte	0x4
 5213 0680 19       		.uleb128 0x19
 5214 0681 E4110000 		.4byte	.LASF97
 5215 0685 0C       		.byte	0xc
 5216 0686 2701     		.2byte	0x127
 5217 0688 94060000 		.4byte	0x694
 5218 068c 08       		.byte	0x8
 5219 068d 00       		.byte	0
 5220 068e 06       		.uleb128 0x6
 5221 068f 04       		.byte	0x4
ARM GAS  /tmp/ccDE0Mq0.s 			page 93


 5222 0690 59060000 		.4byte	0x659
 5223 0694 06       		.uleb128 0x6
 5224 0695 04       		.byte	0x4
 5225 0696 4D060000 		.4byte	0x64d
 5226 069a 1B       		.uleb128 0x1b
 5227 069b 0F1B0000 		.4byte	.LASF98
 5228 069f 0E       		.byte	0xe
 5229 06a0 0C       		.byte	0xc
 5230 06a1 3F01     		.2byte	0x13f
 5231 06a3 CF060000 		.4byte	0x6cf
 5232 06a7 19       		.uleb128 0x19
 5233 06a8 930F0000 		.4byte	.LASF99
 5234 06ac 0C       		.byte	0xc
 5235 06ad 4001     		.2byte	0x140
 5236 06af CF060000 		.4byte	0x6cf
 5237 06b3 00       		.byte	0
 5238 06b4 19       		.uleb128 0x19
 5239 06b5 2A080000 		.4byte	.LASF100
 5240 06b9 0C       		.byte	0xc
 5241 06ba 4101     		.2byte	0x141
 5242 06bc CF060000 		.4byte	0x6cf
 5243 06c0 06       		.byte	0x6
 5244 06c1 19       		.uleb128 0x19
 5245 06c2 1B030000 		.4byte	.LASF101
 5246 06c6 0C       		.byte	0xc
 5247 06c7 4201     		.2byte	0x142
 5248 06c9 7C000000 		.4byte	0x7c
 5249 06cd 0C       		.byte	0xc
 5250 06ce 00       		.byte	0
 5251 06cf 0B       		.uleb128 0xb
 5252 06d0 7C000000 		.4byte	0x7c
 5253 06d4 DF060000 		.4byte	0x6df
 5254 06d8 0C       		.uleb128 0xc
 5255 06d9 20010000 		.4byte	0x120
 5256 06dd 02       		.byte	0x2
 5257 06de 00       		.byte	0
 5258 06df 1C       		.uleb128 0x1c
 5259 06e0 D0       		.byte	0xd0
 5260 06e1 0C       		.byte	0xc
 5261 06e2 5902     		.2byte	0x259
 5262 06e4 E0070000 		.4byte	0x7e0
 5263 06e8 19       		.uleb128 0x19
 5264 06e9 C2050000 		.4byte	.LASF102
 5265 06ed 0C       		.byte	0xc
 5266 06ee 5B02     		.2byte	0x25b
 5267 06f0 3C000000 		.4byte	0x3c
 5268 06f4 00       		.byte	0
 5269 06f5 19       		.uleb128 0x19
 5270 06f6 1F0F0000 		.4byte	.LASF103
 5271 06fa 0C       		.byte	0xc
 5272 06fb 5C02     		.2byte	0x25c
 5273 06fd 60010000 		.4byte	0x160
 5274 0701 04       		.byte	0x4
 5275 0702 19       		.uleb128 0x19
 5276 0703 EB100000 		.4byte	.LASF104
 5277 0707 0C       		.byte	0xc
 5278 0708 5D02     		.2byte	0x25d
ARM GAS  /tmp/ccDE0Mq0.s 			page 94


 5279 070a E0070000 		.4byte	0x7e0
 5280 070e 08       		.byte	0x8
 5281 070f 19       		.uleb128 0x19
 5282 0710 43090000 		.4byte	.LASF105
 5283 0714 0C       		.byte	0xc
 5284 0715 5E02     		.2byte	0x25e
 5285 0717 E6010000 		.4byte	0x1e6
 5286 071b 24       		.byte	0x24
 5287 071c 19       		.uleb128 0x19
 5288 071d 3C170000 		.4byte	.LASF106
 5289 0721 0C       		.byte	0xc
 5290 0722 5F02     		.2byte	0x25f
 5291 0724 25000000 		.4byte	0x25
 5292 0728 48       		.byte	0x48
 5293 0729 19       		.uleb128 0x19
 5294 072a 15120000 		.4byte	.LASF107
 5295 072e 0C       		.byte	0xc
 5296 072f 6002     		.2byte	0x260
 5297 0731 B2000000 		.4byte	0xb2
 5298 0735 50       		.byte	0x50
 5299 0736 19       		.uleb128 0x19
 5300 0737 981A0000 		.4byte	.LASF108
 5301 073b 0C       		.byte	0xc
 5302 073c 6102     		.2byte	0x261
 5303 073e 9A060000 		.4byte	0x69a
 5304 0742 58       		.byte	0x58
 5305 0743 19       		.uleb128 0x19
 5306 0744 E5140000 		.4byte	.LASF109
 5307 0748 0C       		.byte	0xc
 5308 0749 6202     		.2byte	0x262
 5309 074b 48010000 		.4byte	0x148
 5310 074f 68       		.byte	0x68
 5311 0750 19       		.uleb128 0x19
 5312 0751 AF040000 		.4byte	.LASF110
 5313 0755 0C       		.byte	0xc
 5314 0756 6302     		.2byte	0x263
 5315 0758 48010000 		.4byte	0x148
 5316 075c 70       		.byte	0x70
 5317 075d 19       		.uleb128 0x19
 5318 075e A2110000 		.4byte	.LASF111
 5319 0762 0C       		.byte	0xc
 5320 0763 6402     		.2byte	0x264
 5321 0765 48010000 		.4byte	0x148
 5322 0769 78       		.byte	0x78
 5323 076a 19       		.uleb128 0x19
 5324 076b B1100000 		.4byte	.LASF112
 5325 076f 0C       		.byte	0xc
 5326 0770 6502     		.2byte	0x265
 5327 0772 F0070000 		.4byte	0x7f0
 5328 0776 80       		.byte	0x80
 5329 0777 19       		.uleb128 0x19
 5330 0778 120D0000 		.4byte	.LASF113
 5331 077c 0C       		.byte	0xc
 5332 077d 6602     		.2byte	0x266
 5333 077f 00080000 		.4byte	0x800
 5334 0783 88       		.byte	0x88
 5335 0784 19       		.uleb128 0x19
ARM GAS  /tmp/ccDE0Mq0.s 			page 95


 5336 0785 22140000 		.4byte	.LASF114
 5337 0789 0C       		.byte	0xc
 5338 078a 6702     		.2byte	0x267
 5339 078c 25000000 		.4byte	0x25
 5340 0790 A0       		.byte	0xa0
 5341 0791 19       		.uleb128 0x19
 5342 0792 62080000 		.4byte	.LASF115
 5343 0796 0C       		.byte	0xc
 5344 0797 6802     		.2byte	0x268
 5345 0799 48010000 		.4byte	0x148
 5346 079d A4       		.byte	0xa4
 5347 079e 19       		.uleb128 0x19
 5348 079f 970A0000 		.4byte	.LASF116
 5349 07a3 0C       		.byte	0xc
 5350 07a4 6902     		.2byte	0x269
 5351 07a6 48010000 		.4byte	0x148
 5352 07aa AC       		.byte	0xac
 5353 07ab 19       		.uleb128 0x19
 5354 07ac EE060000 		.4byte	.LASF117
 5355 07b0 0C       		.byte	0xc
 5356 07b1 6A02     		.2byte	0x26a
 5357 07b3 48010000 		.4byte	0x148
 5358 07b7 B4       		.byte	0xb4
 5359 07b8 19       		.uleb128 0x19
 5360 07b9 3C0E0000 		.4byte	.LASF118
 5361 07bd 0C       		.byte	0xc
 5362 07be 6B02     		.2byte	0x26b
 5363 07c0 48010000 		.4byte	0x148
 5364 07c4 BC       		.byte	0xbc
 5365 07c5 19       		.uleb128 0x19
 5366 07c6 2E110000 		.4byte	.LASF119
 5367 07ca 0C       		.byte	0xc
 5368 07cb 6C02     		.2byte	0x26c
 5369 07cd 48010000 		.4byte	0x148
 5370 07d1 C4       		.byte	0xc4
 5371 07d2 19       		.uleb128 0x19
 5372 07d3 93150000 		.4byte	.LASF120
 5373 07d7 0C       		.byte	0xc
 5374 07d8 6D02     		.2byte	0x26d
 5375 07da 25000000 		.4byte	0x25
 5376 07de CC       		.byte	0xcc
 5377 07df 00       		.byte	0
 5378 07e0 0B       		.uleb128 0xb
 5379 07e1 66010000 		.4byte	0x166
 5380 07e5 F0070000 		.4byte	0x7f0
 5381 07e9 0C       		.uleb128 0xc
 5382 07ea 20010000 		.4byte	0x120
 5383 07ee 19       		.byte	0x19
 5384 07ef 00       		.byte	0
 5385 07f0 0B       		.uleb128 0xb
 5386 07f1 66010000 		.4byte	0x166
 5387 07f5 00080000 		.4byte	0x800
 5388 07f9 0C       		.uleb128 0xc
 5389 07fa 20010000 		.4byte	0x120
 5390 07fe 07       		.byte	0x7
 5391 07ff 00       		.byte	0
 5392 0800 0B       		.uleb128 0xb
ARM GAS  /tmp/ccDE0Mq0.s 			page 96


 5393 0801 66010000 		.4byte	0x166
 5394 0805 10080000 		.4byte	0x810
 5395 0809 0C       		.uleb128 0xc
 5396 080a 20010000 		.4byte	0x120
 5397 080e 17       		.byte	0x17
 5398 080f 00       		.byte	0
 5399 0810 1C       		.uleb128 0x1c
 5400 0811 F0       		.byte	0xf0
 5401 0812 0C       		.byte	0xc
 5402 0813 7202     		.2byte	0x272
 5403 0815 34080000 		.4byte	0x834
 5404 0819 19       		.uleb128 0x19
 5405 081a 08120000 		.4byte	.LASF121
 5406 081e 0C       		.byte	0xc
 5407 081f 7502     		.2byte	0x275
 5408 0821 34080000 		.4byte	0x834
 5409 0825 00       		.byte	0
 5410 0826 19       		.uleb128 0x19
 5411 0827 C6080000 		.4byte	.LASF122
 5412 082b 0C       		.byte	0xc
 5413 082c 7602     		.2byte	0x276
 5414 082e 44080000 		.4byte	0x844
 5415 0832 78       		.byte	0x78
 5416 0833 00       		.byte	0
 5417 0834 0B       		.uleb128 0xb
 5418 0835 2F030000 		.4byte	0x32f
 5419 0839 44080000 		.4byte	0x844
 5420 083d 0C       		.uleb128 0xc
 5421 083e 20010000 		.4byte	0x120
 5422 0842 1D       		.byte	0x1d
 5423 0843 00       		.byte	0
 5424 0844 0B       		.uleb128 0xb
 5425 0845 3C000000 		.4byte	0x3c
 5426 0849 54080000 		.4byte	0x854
 5427 084d 0C       		.uleb128 0xc
 5428 084e 20010000 		.4byte	0x120
 5429 0852 1D       		.byte	0x1d
 5430 0853 00       		.byte	0
 5431 0854 1D       		.uleb128 0x1d
 5432 0855 F0       		.byte	0xf0
 5433 0856 0C       		.byte	0xc
 5434 0857 5702     		.2byte	0x257
 5435 0859 76080000 		.4byte	0x876
 5436 085d 1E       		.uleb128 0x1e
 5437 085e 5D040000 		.4byte	.LASF72
 5438 0862 0C       		.byte	0xc
 5439 0863 6E02     		.2byte	0x26e
 5440 0865 DF060000 		.4byte	0x6df
 5441 0869 1E       		.uleb128 0x1e
 5442 086a 6C020000 		.4byte	.LASF123
 5443 086e 0C       		.byte	0xc
 5444 086f 7702     		.2byte	0x277
 5445 0871 10080000 		.4byte	0x810
 5446 0875 00       		.byte	0
 5447 0876 0B       		.uleb128 0xb
 5448 0877 66010000 		.4byte	0x166
 5449 087b 86080000 		.4byte	0x886
ARM GAS  /tmp/ccDE0Mq0.s 			page 97


 5450 087f 0C       		.uleb128 0xc
 5451 0880 20010000 		.4byte	0x120
 5452 0884 18       		.byte	0x18
 5453 0885 00       		.byte	0
 5454 0886 07       		.uleb128 0x7
 5455 0887 FA140000 		.4byte	.LASF125
 5456 088b 06       		.uleb128 0x6
 5457 088c 04       		.byte	0x4
 5458 088d 86080000 		.4byte	0x886
 5459 0891 1F       		.uleb128 0x1f
 5460 0892 9C080000 		.4byte	0x89c
 5461 0896 17       		.uleb128 0x17
 5462 0897 7D040000 		.4byte	0x47d
 5463 089b 00       		.byte	0
 5464 089c 06       		.uleb128 0x6
 5465 089d 04       		.byte	0x4
 5466 089e 91080000 		.4byte	0x891
 5467 08a2 06       		.uleb128 0x6
 5468 08a3 04       		.byte	0x4
 5469 08a4 D0010000 		.4byte	0x1d0
 5470 08a8 1F       		.uleb128 0x1f
 5471 08a9 B3080000 		.4byte	0x8b3
 5472 08ad 17       		.uleb128 0x17
 5473 08ae 25000000 		.4byte	0x25
 5474 08b2 00       		.byte	0
 5475 08b3 06       		.uleb128 0x6
 5476 08b4 04       		.byte	0x4
 5477 08b5 B9080000 		.4byte	0x8b9
 5478 08b9 06       		.uleb128 0x6
 5479 08ba 04       		.byte	0x4
 5480 08bb A8080000 		.4byte	0x8a8
 5481 08bf 0B       		.uleb128 0xb
 5482 08c0 4D060000 		.4byte	0x64d
 5483 08c4 CF080000 		.4byte	0x8cf
 5484 08c8 0C       		.uleb128 0xc
 5485 08c9 20010000 		.4byte	0x120
 5486 08cd 02       		.byte	0x2
 5487 08ce 00       		.byte	0
 5488 08cf 20       		.uleb128 0x20
 5489 08d0 AB140000 		.4byte	.LASF126
 5490 08d4 0C       		.byte	0xc
 5491 08d5 FE02     		.2byte	0x2fe
 5492 08d7 7D040000 		.4byte	0x47d
 5493 08db 20       		.uleb128 0x20
 5494 08dc CE170000 		.4byte	.LASF127
 5495 08e0 0C       		.byte	0xc
 5496 08e1 FF02     		.2byte	0x2ff
 5497 08e3 83040000 		.4byte	0x483
 5498 08e7 03       		.uleb128 0x3
 5499 08e8 74090000 		.4byte	.LASF128
 5500 08ec 0D       		.byte	0xd
 5501 08ed 18       		.byte	0x18
 5502 08ee 58000000 		.4byte	0x58
 5503 08f2 10       		.uleb128 0x10
 5504 08f3 E7080000 		.4byte	0x8e7
 5505 08f7 03       		.uleb128 0x3
 5506 08f8 9A010000 		.4byte	.LASF129
ARM GAS  /tmp/ccDE0Mq0.s 			page 98


 5507 08fc 0D       		.byte	0xd
 5508 08fd 24       		.byte	0x24
 5509 08fe 71000000 		.4byte	0x71
 5510 0902 03       		.uleb128 0x3
 5511 0903 09030000 		.4byte	.LASF130
 5512 0907 0D       		.byte	0xd
 5513 0908 2C       		.byte	0x2c
 5514 0909 83000000 		.4byte	0x83
 5515 090d 04       		.uleb128 0x4
 5516 090e 02090000 		.4byte	0x902
 5517 0912 03       		.uleb128 0x3
 5518 0913 44120000 		.4byte	.LASF131
 5519 0917 0D       		.byte	0xd
 5520 0918 30       		.byte	0x30
 5521 0919 95000000 		.4byte	0x95
 5522 091d 04       		.uleb128 0x4
 5523 091e 12090000 		.4byte	0x912
 5524 0922 03       		.uleb128 0x3
 5525 0923 8E070000 		.4byte	.LASF132
 5526 0927 0D       		.byte	0xd
 5527 0928 3C       		.byte	0x3c
 5528 0929 A7000000 		.4byte	0xa7
 5529 092d 03       		.uleb128 0x3
 5530 092e 04090000 		.4byte	.LASF133
 5531 0932 0E       		.byte	0xe
 5532 0933 39       		.byte	0x39
 5533 0934 12090000 		.4byte	0x912
 5534 0938 03       		.uleb128 0x3
 5535 0939 71040000 		.4byte	.LASF134
 5536 093d 0E       		.byte	0xe
 5537 093e 3A       		.byte	0x3a
 5538 093f 22090000 		.4byte	0x922
 5539 0943 03       		.uleb128 0x3
 5540 0944 030E0000 		.4byte	.LASF135
 5541 0948 0E       		.byte	0xe
 5542 0949 3C       		.byte	0x3c
 5543 094a E7080000 		.4byte	0x8e7
 5544 094e 03       		.uleb128 0x3
 5545 094f C5170000 		.4byte	.LASF136
 5546 0953 0E       		.byte	0xe
 5547 0954 3D       		.byte	0x3d
 5548 0955 E7080000 		.4byte	0x8e7
 5549 0959 03       		.uleb128 0x3
 5550 095a B50D0000 		.4byte	.LASF137
 5551 095e 0E       		.byte	0xe
 5552 095f 3E       		.byte	0x3e
 5553 0960 E7080000 		.4byte	0x8e7
 5554 0964 03       		.uleb128 0x3
 5555 0965 E6040000 		.4byte	.LASF138
 5556 0969 0E       		.byte	0xe
 5557 096a 40       		.byte	0x40
 5558 096b 12090000 		.4byte	0x912
 5559 096f 03       		.uleb128 0x3
 5560 0970 73000000 		.4byte	.LASF139
 5561 0974 0E       		.byte	0xe
 5562 0975 41       		.byte	0x41
 5563 0976 02090000 		.4byte	0x902
ARM GAS  /tmp/ccDE0Mq0.s 			page 99


 5564 097a 03       		.uleb128 0x3
 5565 097b 97120000 		.4byte	.LASF140
 5566 097f 0E       		.byte	0xe
 5567 0980 43       		.byte	0x43
 5568 0981 12090000 		.4byte	0x912
 5569 0985 03       		.uleb128 0x3
 5570 0986 65190000 		.4byte	.LASF141
 5571 098a 0E       		.byte	0xe
 5572 098b 44       		.byte	0x44
 5573 098c 12090000 		.4byte	0x912
 5574 0990 03       		.uleb128 0x3
 5575 0991 4C140000 		.4byte	.LASF142
 5576 0995 0E       		.byte	0xe
 5577 0996 45       		.byte	0x45
 5578 0997 02090000 		.4byte	0x902
 5579 099b 03       		.uleb128 0x3
 5580 099c F30F0000 		.4byte	.LASF143
 5581 09a0 0E       		.byte	0xe
 5582 09a1 46       		.byte	0x46
 5583 09a2 12090000 		.4byte	0x912
 5584 09a6 03       		.uleb128 0x3
 5585 09a7 11030000 		.4byte	.LASF144
 5586 09ab 0F       		.byte	0xf
 5587 09ac 33       		.byte	0x33
 5588 09ad 12090000 		.4byte	0x912
 5589 09b1 04       		.uleb128 0x4
 5590 09b2 A6090000 		.4byte	0x9a6
 5591 09b6 03       		.uleb128 0x3
 5592 09b7 C5020000 		.4byte	.LASF145
 5593 09bb 0F       		.byte	0xf
 5594 09bc 3F       		.byte	0x3f
 5595 09bd C1090000 		.4byte	0x9c1
 5596 09c1 11       		.uleb128 0x11
 5597 09c2 E4060000 		.4byte	.LASF146
 5598 09c6 60       		.byte	0x60
 5599 09c7 10       		.byte	0x10
 5600 09c8 C2       		.byte	0xc2
 5601 09c9 C70A0000 		.4byte	0xac7
 5602 09cd 0E       		.uleb128 0xe
 5603 09ce 5C0D0000 		.4byte	.LASF147
 5604 09d2 10       		.byte	0x10
 5605 09d3 C3       		.byte	0xc3
 5606 09d4 D20A0000 		.4byte	0xad2
 5607 09d8 00       		.byte	0
 5608 09d9 0E       		.uleb128 0xe
 5609 09da 94090000 		.4byte	.LASF148
 5610 09de 10       		.byte	0x10
 5611 09df C5       		.byte	0xc5
 5612 09e0 D20A0000 		.4byte	0xad2
 5613 09e4 04       		.byte	0x4
 5614 09e5 0E       		.uleb128 0xe
 5615 09e6 B20B0000 		.4byte	.LASF149
 5616 09ea 10       		.byte	0x10
 5617 09eb C7       		.byte	0xc7
 5618 09ec 64090000 		.4byte	0x964
 5619 09f0 08       		.byte	0x8
 5620 09f1 0E       		.uleb128 0xe
ARM GAS  /tmp/ccDE0Mq0.s 			page 100


 5621 09f2 4D070000 		.4byte	.LASF150
 5622 09f6 10       		.byte	0x10
 5623 09f7 C8       		.byte	0xc8
 5624 09f8 0D100000 		.4byte	0x100d
 5625 09fc 0C       		.byte	0xc
 5626 09fd 0E       		.uleb128 0xe
 5627 09fe 39020000 		.4byte	.LASF151
 5628 0a02 10       		.byte	0x10
 5629 0a03 CA       		.byte	0xca
 5630 0a04 D20A0000 		.4byte	0xad2
 5631 0a08 10       		.byte	0x10
 5632 0a09 0E       		.uleb128 0xe
 5633 0a0a CD190000 		.4byte	.LASF152
 5634 0a0e 10       		.byte	0x10
 5635 0a0f CB       		.byte	0xcb
 5636 0a10 D20A0000 		.4byte	0xad2
 5637 0a14 14       		.byte	0x14
 5638 0a15 0E       		.uleb128 0xe
 5639 0a16 33180000 		.4byte	.LASF153
 5640 0a1a 10       		.byte	0x10
 5641 0a1b D2       		.byte	0xd2
 5642 0a1c DE050000 		.4byte	0x5de
 5643 0a20 18       		.byte	0x18
 5644 0a21 0E       		.uleb128 0xe
 5645 0a22 41140000 		.4byte	.LASF154
 5646 0a26 10       		.byte	0x10
 5647 0a27 D8       		.byte	0xd8
 5648 0a28 ED120000 		.4byte	0x12ed
 5649 0a2c 1C       		.byte	0x1c
 5650 0a2d 0E       		.uleb128 0xe
 5651 0a2e 691B0000 		.4byte	.LASF155
 5652 0a32 10       		.byte	0x10
 5653 0a33 DD       		.byte	0xdd
 5654 0a34 4E090000 		.4byte	0x94e
 5655 0a38 20       		.byte	0x20
 5656 0a39 0E       		.uleb128 0xe
 5657 0a3a 96170000 		.4byte	.LASF156
 5658 0a3e 10       		.byte	0x10
 5659 0a3f E1       		.byte	0xe1
 5660 0a40 43090000 		.4byte	0x943
 5661 0a44 21       		.byte	0x21
 5662 0a45 0E       		.uleb128 0xe
 5663 0a46 6D110000 		.4byte	.LASF157
 5664 0a4a 10       		.byte	0x10
 5665 0a4b E6       		.byte	0xe6
 5666 0a4c 59090000 		.4byte	0x959
 5667 0a50 22       		.byte	0x22
 5668 0a51 21       		.uleb128 0x21
 5669 0a52 705F7500 		.ascii	"p_u\000"
 5670 0a56 10       		.byte	0x10
 5671 0a57 3101     		.2byte	0x131
 5672 0a59 28120000 		.4byte	0x1228
 5673 0a5d 24       		.byte	0x24
 5674 0a5e 19       		.uleb128 0x19
 5675 0a5f FF030000 		.4byte	.LASF158
 5676 0a63 10       		.byte	0x10
 5677 0a64 3601     		.2byte	0x136
ARM GAS  /tmp/ccDE0Mq0.s 			page 101


 5678 0a66 D80A0000 		.4byte	0xad8
 5679 0a6a 28       		.byte	0x28
 5680 0a6b 19       		.uleb128 0x19
 5681 0a6c 3A100000 		.4byte	.LASF159
 5682 0a70 10       		.byte	0x10
 5683 0a71 3C01     		.2byte	0x13c
 5684 0a73 FC0A0000 		.4byte	0xafc
 5685 0a77 2C       		.byte	0x2c
 5686 0a78 19       		.uleb128 0x19
 5687 0a79 BC050000 		.4byte	.LASF160
 5688 0a7d 10       		.byte	0x10
 5689 0a7e 4001     		.2byte	0x140
 5690 0a80 6F090000 		.4byte	0x96f
 5691 0a84 34       		.byte	0x34
 5692 0a85 19       		.uleb128 0x19
 5693 0a86 2F160000 		.4byte	.LASF161
 5694 0a8a 10       		.byte	0x10
 5695 0a8b 4601     		.2byte	0x146
 5696 0a8d 7A090000 		.4byte	0x97a
 5697 0a91 38       		.byte	0x38
 5698 0a92 19       		.uleb128 0x19
 5699 0a93 BB170000 		.4byte	.LASF162
 5700 0a97 10       		.byte	0x10
 5701 0a98 4D01     		.2byte	0x14d
 5702 0a9a E7120000 		.4byte	0x12e7
 5703 0a9e 3C       		.byte	0x3c
 5704 0a9f 19       		.uleb128 0x19
 5705 0aa0 43150000 		.4byte	.LASF163
 5706 0aa4 10       		.byte	0x10
 5707 0aa5 5101     		.2byte	0x151
 5708 0aa7 64090000 		.4byte	0x964
 5709 0aab 40       		.byte	0x40
 5710 0aac 19       		.uleb128 0x19
 5711 0aad BD0D0000 		.4byte	.LASF164
 5712 0ab1 10       		.byte	0x10
 5713 0ab2 5801     		.2byte	0x158
 5714 0ab4 5E010000 		.4byte	0x15e
 5715 0ab8 44       		.byte	0x44
 5716 0ab9 19       		.uleb128 0x19
 5717 0aba 811B0000 		.4byte	.LASF165
 5718 0abe 10       		.byte	0x10
 5719 0abf 5E01     		.2byte	0x15e
 5720 0ac1 D9110000 		.4byte	0x11d9
 5721 0ac5 48       		.byte	0x48
 5722 0ac6 00       		.byte	0
 5723 0ac7 03       		.uleb128 0x3
 5724 0ac8 F4190000 		.4byte	.LASF166
 5725 0acc 0F       		.byte	0xf
 5726 0acd 44       		.byte	0x44
 5727 0ace D20A0000 		.4byte	0xad2
 5728 0ad2 06       		.uleb128 0x6
 5729 0ad3 04       		.byte	0x4
 5730 0ad4 B6090000 		.4byte	0x9b6
 5731 0ad8 03       		.uleb128 0x3
 5732 0ad9 28040000 		.4byte	.LASF167
 5733 0add 0F       		.byte	0xf
 5734 0ade 49       		.byte	0x49
ARM GAS  /tmp/ccDE0Mq0.s 			page 102


 5735 0adf E30A0000 		.4byte	0xae3
 5736 0ae3 11       		.uleb128 0x11
 5737 0ae4 711B0000 		.4byte	.LASF168
 5738 0ae8 04       		.byte	0x4
 5739 0ae9 10       		.byte	0x10
 5740 0aea B0       		.byte	0xb0
 5741 0aeb FC0A0000 		.4byte	0xafc
 5742 0aef 0E       		.uleb128 0xe
 5743 0af0 5C0D0000 		.4byte	.LASF147
 5744 0af4 10       		.byte	0x10
 5745 0af5 B1       		.byte	0xb1
 5746 0af6 D20A0000 		.4byte	0xad2
 5747 0afa 00       		.byte	0
 5748 0afb 00       		.byte	0
 5749 0afc 03       		.uleb128 0x3
 5750 0afd 54110000 		.4byte	.LASF169
 5751 0b01 0F       		.byte	0xf
 5752 0b02 50       		.byte	0x50
 5753 0b03 070B0000 		.4byte	0xb07
 5754 0b07 11       		.uleb128 0x11
 5755 0b08 11020000 		.4byte	.LASF170
 5756 0b0c 08       		.byte	0x8
 5757 0b0d 10       		.byte	0x10
 5758 0b0e B7       		.byte	0xb7
 5759 0b0f 2C0B0000 		.4byte	0xb2c
 5760 0b13 0E       		.uleb128 0xe
 5761 0b14 5C0D0000 		.4byte	.LASF147
 5762 0b18 10       		.byte	0x10
 5763 0b19 B8       		.byte	0xb8
 5764 0b1a D20A0000 		.4byte	0xad2
 5765 0b1e 00       		.byte	0
 5766 0b1f 0E       		.uleb128 0xe
 5767 0b20 94090000 		.4byte	.LASF148
 5768 0b24 10       		.byte	0x10
 5769 0b25 B9       		.byte	0xb9
 5770 0b26 D20A0000 		.4byte	0xad2
 5771 0b2a 04       		.byte	0x4
 5772 0b2b 00       		.byte	0
 5773 0b2c 03       		.uleb128 0x3
 5774 0b2d D7060000 		.4byte	.LASF171
 5775 0b31 0F       		.byte	0xf
 5776 0b32 57       		.byte	0x57
 5777 0b33 370B0000 		.4byte	0xb37
 5778 0b37 1B       		.uleb128 0x1b
 5779 0b38 B8150000 		.4byte	.LASF172
 5780 0b3c 1C       		.byte	0x1c
 5781 0b3d 10       		.byte	0x10
 5782 0b3e 9001     		.2byte	0x190
 5783 0b40 930B0000 		.4byte	0xb93
 5784 0b44 19       		.uleb128 0x19
 5785 0b45 52130000 		.4byte	.LASF173
 5786 0b49 10       		.byte	0x10
 5787 0b4a 9101     		.2byte	0x191
 5788 0b4c FC0A0000 		.4byte	0xafc
 5789 0b50 00       		.byte	0
 5790 0b51 19       		.uleb128 0x19
 5791 0b52 D9160000 		.4byte	.LASF174
ARM GAS  /tmp/ccDE0Mq0.s 			page 103


 5792 0b56 10       		.byte	0x10
 5793 0b57 9201     		.2byte	0x192
 5794 0b59 64090000 		.4byte	0x964
 5795 0b5d 08       		.byte	0x8
 5796 0b5e 19       		.uleb128 0x19
 5797 0b5f ED080000 		.4byte	.LASF175
 5798 0b63 10       		.byte	0x10
 5799 0b64 9401     		.2byte	0x194
 5800 0b66 0D100000 		.4byte	0x100d
 5801 0b6a 0C       		.byte	0xc
 5802 0b6b 19       		.uleb128 0x19
 5803 0b6c 9E0E0000 		.4byte	.LASF176
 5804 0b70 10       		.byte	0x10
 5805 0b71 9701     		.2byte	0x197
 5806 0b73 D20A0000 		.4byte	0xad2
 5807 0b77 10       		.byte	0x10
 5808 0b78 19       		.uleb128 0x19
 5809 0b79 8C090000 		.4byte	.LASF177
 5810 0b7d 10       		.byte	0x10
 5811 0b7e 9801     		.2byte	0x198
 5812 0b80 D20A0000 		.4byte	0xad2
 5813 0b84 14       		.byte	0x14
 5814 0b85 19       		.uleb128 0x19
 5815 0b86 490B0000 		.4byte	.LASF178
 5816 0b8a 10       		.byte	0x10
 5817 0b8b 9B01     		.2byte	0x19b
 5818 0b8d D20A0000 		.4byte	0xad2
 5819 0b91 18       		.byte	0x18
 5820 0b92 00       		.byte	0
 5821 0b93 03       		.uleb128 0x3
 5822 0b94 25150000 		.4byte	.LASF179
 5823 0b98 0F       		.byte	0xf
 5824 0b99 5C       		.byte	0x5c
 5825 0b9a 9E0B0000 		.4byte	0xb9e
 5826 0b9e 06       		.uleb128 0x6
 5827 0b9f 04       		.byte	0x4
 5828 0ba0 A40B0000 		.4byte	0xba4
 5829 0ba4 1F       		.uleb128 0x1f
 5830 0ba5 AF0B0000 		.4byte	0xbaf
 5831 0ba9 17       		.uleb128 0x17
 5832 0baa 5E010000 		.4byte	0x15e
 5833 0bae 00       		.byte	0
 5834 0baf 03       		.uleb128 0x3
 5835 0bb0 DD080000 		.4byte	.LASF180
 5836 0bb4 0F       		.byte	0xf
 5837 0bb5 61       		.byte	0x61
 5838 0bb6 BA0B0000 		.4byte	0xbba
 5839 0bba 1B       		.uleb128 0x1b
 5840 0bbb 85170000 		.4byte	.LASF181
 5841 0bbf 14       		.byte	0x14
 5842 0bc0 10       		.byte	0x10
 5843 0bc1 6B01     		.2byte	0x16b
 5844 0bc3 090C0000 		.4byte	0xc09
 5845 0bc7 19       		.uleb128 0x19
 5846 0bc8 F3080000 		.4byte	.LASF182
 5847 0bcc 10       		.byte	0x10
 5848 0bcd 6C01     		.2byte	0x16c
ARM GAS  /tmp/ccDE0Mq0.s 			page 104


 5849 0bcf F3120000 		.4byte	0x12f3
 5850 0bd3 00       		.byte	0
 5851 0bd4 19       		.uleb128 0x19
 5852 0bd5 A1060000 		.4byte	.LASF183
 5853 0bd9 10       		.byte	0x10
 5854 0bda 6D01     		.2byte	0x16d
 5855 0bdc F3120000 		.4byte	0x12f3
 5856 0be0 04       		.byte	0x4
 5857 0be1 19       		.uleb128 0x19
 5858 0be2 6B0F0000 		.4byte	.LASF184
 5859 0be6 10       		.byte	0x10
 5860 0be7 6E01     		.2byte	0x16e
 5861 0be9 A6090000 		.4byte	0x9a6
 5862 0bed 08       		.byte	0x8
 5863 0bee 19       		.uleb128 0x19
 5864 0bef 62170000 		.4byte	.LASF185
 5865 0bf3 10       		.byte	0x10
 5866 0bf4 6F01     		.2byte	0x16f
 5867 0bf6 930B0000 		.4byte	0xb93
 5868 0bfa 0C       		.byte	0xc
 5869 0bfb 19       		.uleb128 0x19
 5870 0bfc 53070000 		.4byte	.LASF186
 5871 0c00 10       		.byte	0x10
 5872 0c01 7101     		.2byte	0x171
 5873 0c03 5E010000 		.4byte	0x15e
 5874 0c07 10       		.byte	0x10
 5875 0c08 00       		.byte	0
 5876 0c09 03       		.uleb128 0x3
 5877 0c0a 81180000 		.4byte	.LASF187
 5878 0c0e 0F       		.byte	0xf
 5879 0c0f 66       		.byte	0x66
 5880 0c10 140C0000 		.4byte	0xc14
 5881 0c14 1B       		.uleb128 0x1b
 5882 0c15 E3020000 		.4byte	.LASF188
 5883 0c19 10       		.byte	0x10
 5884 0c1a 10       		.byte	0x10
 5885 0c1b 7B01     		.2byte	0x17b
 5886 0c1d 560C0000 		.4byte	0xc56
 5887 0c21 19       		.uleb128 0x19
 5888 0c22 F3080000 		.4byte	.LASF182
 5889 0c26 10       		.byte	0x10
 5890 0c27 7C01     		.2byte	0x17c
 5891 0c29 F3120000 		.4byte	0x12f3
 5892 0c2d 00       		.byte	0
 5893 0c2e 19       		.uleb128 0x19
 5894 0c2f A1060000 		.4byte	.LASF183
 5895 0c33 10       		.byte	0x10
 5896 0c34 7E01     		.2byte	0x17e
 5897 0c36 F3120000 		.4byte	0x12f3
 5898 0c3a 04       		.byte	0x4
 5899 0c3b 19       		.uleb128 0x19
 5900 0c3c 6B0F0000 		.4byte	.LASF184
 5901 0c40 10       		.byte	0x10
 5902 0c41 8001     		.2byte	0x180
 5903 0c43 A6090000 		.4byte	0x9a6
 5904 0c47 08       		.byte	0x8
 5905 0c48 19       		.uleb128 0x19
ARM GAS  /tmp/ccDE0Mq0.s 			page 105


 5906 0c49 32010000 		.4byte	.LASF189
 5907 0c4d 10       		.byte	0x10
 5908 0c4e 8201     		.2byte	0x182
 5909 0c50 B1090000 		.4byte	0x9b1
 5910 0c54 0C       		.byte	0xc
 5911 0c55 00       		.byte	0
 5912 0c56 03       		.uleb128 0x3
 5913 0c57 2F070000 		.4byte	.LASF190
 5914 0c5b 0F       		.byte	0xf
 5915 0c5c 6B       		.byte	0x6b
 5916 0c5d 610C0000 		.4byte	0xc61
 5917 0c61 1B       		.uleb128 0x1b
 5918 0c62 DB150000 		.4byte	.LASF191
 5919 0c66 0C       		.byte	0xc
 5920 0c67 10       		.byte	0x10
 5921 0c68 A201     		.2byte	0x1a2
 5922 0c6a 960C0000 		.4byte	0xc96
 5923 0c6e 19       		.uleb128 0x19
 5924 0c6f 940E0000 		.4byte	.LASF192
 5925 0c73 10       		.byte	0x10
 5926 0c74 AA01     		.2byte	0x1aa
 5927 0c76 E4050000 		.4byte	0x5e4
 5928 0c7a 00       		.byte	0
 5929 0c7b 19       		.uleb128 0x19
 5930 0c7c 610E0000 		.4byte	.LASF193
 5931 0c80 10       		.byte	0x10
 5932 0c81 AF01     		.2byte	0x1af
 5933 0c83 90090000 		.4byte	0x990
 5934 0c87 04       		.byte	0x4
 5935 0c88 19       		.uleb128 0x19
 5936 0c89 02020000 		.4byte	.LASF194
 5937 0c8d 10       		.byte	0x10
 5938 0c8e B301     		.2byte	0x1b3
 5939 0c90 90090000 		.4byte	0x990
 5940 0c94 08       		.byte	0x8
 5941 0c95 00       		.byte	0
 5942 0c96 03       		.uleb128 0x3
 5943 0c97 D8000000 		.4byte	.LASF195
 5944 0c9b 0F       		.byte	0xf
 5945 0c9c 70       		.byte	0x70
 5946 0c9d A10C0000 		.4byte	0xca1
 5947 0ca1 18       		.uleb128 0x18
 5948 0ca2 D6100000 		.4byte	.LASF196
 5949 0ca6 5802     		.2byte	0x258
 5950 0ca8 10       		.byte	0x10
 5951 0ca9 C201     		.2byte	0x1c2
 5952 0cab 0A0D0000 		.4byte	0xd0a
 5953 0caf 19       		.uleb128 0x19
 5954 0cb0 22040000 		.4byte	.LASF197
 5955 0cb4 10       		.byte	0x10
 5956 0cb5 C601     		.2byte	0x1c6
 5957 0cb7 2C0B0000 		.4byte	0xb2c
 5958 0cbb 00       		.byte	0
 5959 0cbc 19       		.uleb128 0x19
 5960 0cbd EF030000 		.4byte	.LASF198
 5961 0cc1 10       		.byte	0x10
 5962 0cc2 CA01     		.2byte	0x1ca
ARM GAS  /tmp/ccDE0Mq0.s 			page 106


 5963 0cc4 090C0000 		.4byte	0xc09
 5964 0cc8 1C       		.byte	0x1c
 5965 0cc9 21       		.uleb128 0x21
 5966 0cca 64626700 		.ascii	"dbg\000"
 5967 0cce 10       		.byte	0x10
 5968 0ccf CE01     		.2byte	0x1ce
 5969 0cd1 560C0000 		.4byte	0xc56
 5970 0cd5 2C       		.byte	0x2c
 5971 0cd6 19       		.uleb128 0x19
 5972 0cd7 92110000 		.4byte	.LASF199
 5973 0cdb 10       		.byte	0x10
 5974 0cdc D201     		.2byte	0x1d2
 5975 0cde B6090000 		.4byte	0x9b6
 5976 0ce2 38       		.byte	0x38
 5977 0ce3 21       		.uleb128 0x21
 5978 0ce4 746D00   		.ascii	"tm\000"
 5979 0ce7 10       		.byte	0x10
 5980 0ce8 D701     		.2byte	0x1d7
 5981 0cea 8B110000 		.4byte	0x118b
 5982 0cee 98       		.byte	0x98
 5983 0cef 19       		.uleb128 0x19
 5984 0cf0 2F140000 		.4byte	.LASF200
 5985 0cf4 10       		.byte	0x10
 5986 0cf5 DD01     		.2byte	0x1dd
 5987 0cf7 1D120000 		.4byte	0x121d
 5988 0cfb A0       		.byte	0xa0
 5989 0cfc 19       		.uleb128 0x19
 5990 0cfd 4B170000 		.4byte	.LASF201
 5991 0d01 10       		.byte	0x10
 5992 0d02 E301     		.2byte	0x1e3
 5993 0d04 F9120000 		.4byte	0x12f9
 5994 0d08 D8       		.byte	0xd8
 5995 0d09 00       		.byte	0
 5996 0d0a 0B       		.uleb128 0xb
 5997 0d0b 12090000 		.4byte	0x912
 5998 0d0f 1A0D0000 		.4byte	0xd1a
 5999 0d13 0C       		.uleb128 0xc
 6000 0d14 20010000 		.4byte	0x120
 6001 0d18 01       		.byte	0x1
 6002 0d19 00       		.byte	0
 6003 0d1a 20       		.uleb128 0x20
 6004 0d1b E7160000 		.4byte	.LASF202
 6005 0d1f 11       		.byte	0x11
 6006 0d20 FA06     		.2byte	0x6fa
 6007 0d22 0D090000 		.4byte	0x90d
 6008 0d26 22       		.uleb128 0x22
 6009 0d27 6E100000 		.4byte	.LASF203
 6010 0d2b 12       		.byte	0x12
 6011 0d2c 4C       		.byte	0x4c
 6012 0d2d 12090000 		.4byte	0x912
 6013 0d31 1C       		.uleb128 0x1c
 6014 0d32 18       		.byte	0x18
 6015 0d33 13       		.byte	0x13
 6016 0d34 7201     		.2byte	0x172
 6017 0d36 880D0000 		.4byte	0xd88
 6018 0d3a 21       		.uleb128 0x21
 6019 0d3b 435200   		.ascii	"CR\000"
ARM GAS  /tmp/ccDE0Mq0.s 			page 107


 6020 0d3e 13       		.byte	0x13
 6021 0d3f 7401     		.2byte	0x174
 6022 0d41 1D090000 		.4byte	0x91d
 6023 0d45 00       		.byte	0
 6024 0d46 19       		.uleb128 0x19
 6025 0d47 2F170000 		.4byte	.LASF204
 6026 0d4b 13       		.byte	0x13
 6027 0d4c 7501     		.2byte	0x175
 6028 0d4e 1D090000 		.4byte	0x91d
 6029 0d52 04       		.byte	0x4
 6030 0d53 21       		.uleb128 0x21
 6031 0d54 50415200 		.ascii	"PAR\000"
 6032 0d58 13       		.byte	0x13
 6033 0d59 7601     		.2byte	0x176
 6034 0d5b 1D090000 		.4byte	0x91d
 6035 0d5f 08       		.byte	0x8
 6036 0d60 19       		.uleb128 0x19
 6037 0d61 20030000 		.4byte	.LASF205
 6038 0d65 13       		.byte	0x13
 6039 0d66 7701     		.2byte	0x177
 6040 0d68 1D090000 		.4byte	0x91d
 6041 0d6c 0C       		.byte	0xc
 6042 0d6d 19       		.uleb128 0x19
 6043 0d6e F2050000 		.4byte	.LASF206
 6044 0d72 13       		.byte	0x13
 6045 0d73 7801     		.2byte	0x178
 6046 0d75 1D090000 		.4byte	0x91d
 6047 0d79 10       		.byte	0x10
 6048 0d7a 21       		.uleb128 0x21
 6049 0d7b 46435200 		.ascii	"FCR\000"
 6050 0d7f 13       		.byte	0x13
 6051 0d80 7901     		.2byte	0x179
 6052 0d82 1D090000 		.4byte	0x91d
 6053 0d86 14       		.byte	0x14
 6054 0d87 00       		.byte	0
 6055 0d88 08       		.uleb128 0x8
 6056 0d89 FC050000 		.4byte	.LASF207
 6057 0d8d 13       		.byte	0x13
 6058 0d8e 7A01     		.2byte	0x17a
 6059 0d90 310D0000 		.4byte	0xd31
 6060 0d94 0B       		.uleb128 0xb
 6061 0d95 1D090000 		.4byte	0x91d
 6062 0d99 A40D0000 		.4byte	0xda4
 6063 0d9d 0C       		.uleb128 0xc
 6064 0d9e 20010000 		.4byte	0x120
 6065 0da2 01       		.byte	0x1
 6066 0da3 00       		.byte	0
 6067 0da4 04       		.uleb128 0x4
 6068 0da5 940D0000 		.4byte	0xd94
 6069 0da9 0B       		.uleb128 0xb
 6070 0daa 1D090000 		.4byte	0x91d
 6071 0dae B90D0000 		.4byte	0xdb9
 6072 0db2 0C       		.uleb128 0xc
 6073 0db3 20010000 		.4byte	0x120
 6074 0db7 03       		.byte	0x3
 6075 0db8 00       		.byte	0
 6076 0db9 04       		.uleb128 0x4
ARM GAS  /tmp/ccDE0Mq0.s 			page 108


 6077 0dba A90D0000 		.4byte	0xda9
 6078 0dbe 1C       		.uleb128 0x1c
 6079 0dbf 90       		.byte	0x90
 6080 0dc0 13       		.byte	0x13
 6081 0dc1 9702     		.2byte	0x297
 6082 0dc3 670F0000 		.4byte	0xf67
 6083 0dc7 21       		.uleb128 0x21
 6084 0dc8 435200   		.ascii	"CR\000"
 6085 0dcb 13       		.byte	0x13
 6086 0dcc 9902     		.2byte	0x299
 6087 0dce 1D090000 		.4byte	0x91d
 6088 0dd2 00       		.byte	0
 6089 0dd3 19       		.uleb128 0x19
 6090 0dd4 0F150000 		.4byte	.LASF208
 6091 0dd8 13       		.byte	0x13
 6092 0dd9 9A02     		.2byte	0x29a
 6093 0ddb 1D090000 		.4byte	0x91d
 6094 0ddf 04       		.byte	0x4
 6095 0de0 19       		.uleb128 0x19
 6096 0de1 460F0000 		.4byte	.LASF209
 6097 0de5 13       		.byte	0x13
 6098 0de6 9B02     		.2byte	0x29b
 6099 0de8 1D090000 		.4byte	0x91d
 6100 0dec 08       		.byte	0x8
 6101 0ded 21       		.uleb128 0x21
 6102 0dee 43495200 		.ascii	"CIR\000"
 6103 0df2 13       		.byte	0x13
 6104 0df3 9C02     		.2byte	0x29c
 6105 0df5 1D090000 		.4byte	0x91d
 6106 0df9 0C       		.byte	0xc
 6107 0dfa 19       		.uleb128 0x19
 6108 0dfb 451B0000 		.4byte	.LASF210
 6109 0dff 13       		.byte	0x13
 6110 0e00 9D02     		.2byte	0x29d
 6111 0e02 1D090000 		.4byte	0x91d
 6112 0e06 10       		.byte	0x10
 6113 0e07 19       		.uleb128 0x19
 6114 0e08 3E080000 		.4byte	.LASF211
 6115 0e0c 13       		.byte	0x13
 6116 0e0d 9E02     		.2byte	0x29e
 6117 0e0f 1D090000 		.4byte	0x91d
 6118 0e13 14       		.byte	0x14
 6119 0e14 19       		.uleb128 0x19
 6120 0e15 BA110000 		.4byte	.LASF212
 6121 0e19 13       		.byte	0x13
 6122 0e1a 9F02     		.2byte	0x29f
 6123 0e1c 1D090000 		.4byte	0x91d
 6124 0e20 18       		.byte	0x18
 6125 0e21 19       		.uleb128 0x19
 6126 0e22 4D160000 		.4byte	.LASF213
 6127 0e26 13       		.byte	0x13
 6128 0e27 A002     		.2byte	0x2a0
 6129 0e29 12090000 		.4byte	0x912
 6130 0e2d 1C       		.byte	0x1c
 6131 0e2e 19       		.uleb128 0x19
 6132 0e2f 66030000 		.4byte	.LASF214
 6133 0e33 13       		.byte	0x13
ARM GAS  /tmp/ccDE0Mq0.s 			page 109


 6134 0e34 A102     		.2byte	0x2a1
 6135 0e36 1D090000 		.4byte	0x91d
 6136 0e3a 20       		.byte	0x20
 6137 0e3b 19       		.uleb128 0x19
 6138 0e3c 530D0000 		.4byte	.LASF215
 6139 0e40 13       		.byte	0x13
 6140 0e41 A202     		.2byte	0x2a2
 6141 0e43 1D090000 		.4byte	0x91d
 6142 0e47 24       		.byte	0x24
 6143 0e48 19       		.uleb128 0x19
 6144 0e49 57160000 		.4byte	.LASF216
 6145 0e4d 13       		.byte	0x13
 6146 0e4e A302     		.2byte	0x2a3
 6147 0e50 0A0D0000 		.4byte	0xd0a
 6148 0e54 28       		.byte	0x28
 6149 0e55 19       		.uleb128 0x19
 6150 0e56 B80E0000 		.4byte	.LASF217
 6151 0e5a 13       		.byte	0x13
 6152 0e5b A402     		.2byte	0x2a4
 6153 0e5d 1D090000 		.4byte	0x91d
 6154 0e61 30       		.byte	0x30
 6155 0e62 19       		.uleb128 0x19
 6156 0e63 3D1B0000 		.4byte	.LASF218
 6157 0e67 13       		.byte	0x13
 6158 0e68 A502     		.2byte	0x2a5
 6159 0e6a 1D090000 		.4byte	0x91d
 6160 0e6e 34       		.byte	0x34
 6161 0e6f 19       		.uleb128 0x19
 6162 0e70 0B0E0000 		.4byte	.LASF219
 6163 0e74 13       		.byte	0x13
 6164 0e75 A602     		.2byte	0x2a6
 6165 0e77 1D090000 		.4byte	0x91d
 6166 0e7b 38       		.byte	0x38
 6167 0e7c 19       		.uleb128 0x19
 6168 0e7d 61160000 		.4byte	.LASF220
 6169 0e81 13       		.byte	0x13
 6170 0e82 A702     		.2byte	0x2a7
 6171 0e84 12090000 		.4byte	0x912
 6172 0e88 3C       		.byte	0x3c
 6173 0e89 19       		.uleb128 0x19
 6174 0e8a BB130000 		.4byte	.LASF221
 6175 0e8e 13       		.byte	0x13
 6176 0e8f A802     		.2byte	0x2a8
 6177 0e91 1D090000 		.4byte	0x91d
 6178 0e95 40       		.byte	0x40
 6179 0e96 19       		.uleb128 0x19
 6180 0e97 00050000 		.4byte	.LASF222
 6181 0e9b 13       		.byte	0x13
 6182 0e9c A902     		.2byte	0x2a9
 6183 0e9e 1D090000 		.4byte	0x91d
 6184 0ea2 44       		.byte	0x44
 6185 0ea3 19       		.uleb128 0x19
 6186 0ea4 6B160000 		.4byte	.LASF223
 6187 0ea8 13       		.byte	0x13
 6188 0ea9 AA02     		.2byte	0x2aa
 6189 0eab 0A0D0000 		.4byte	0xd0a
 6190 0eaf 48       		.byte	0x48
ARM GAS  /tmp/ccDE0Mq0.s 			page 110


 6191 0eb0 19       		.uleb128 0x19
 6192 0eb1 12170000 		.4byte	.LASF224
 6193 0eb5 13       		.byte	0x13
 6194 0eb6 AB02     		.2byte	0x2ab
 6195 0eb8 1D090000 		.4byte	0x91d
 6196 0ebc 50       		.byte	0x50
 6197 0ebd 19       		.uleb128 0x19
 6198 0ebe 43070000 		.4byte	.LASF225
 6199 0ec2 13       		.byte	0x13
 6200 0ec3 AC02     		.2byte	0x2ac
 6201 0ec5 1D090000 		.4byte	0x91d
 6202 0ec9 54       		.byte	0x54
 6203 0eca 19       		.uleb128 0x19
 6204 0ecb 0F070000 		.4byte	.LASF226
 6205 0ecf 13       		.byte	0x13
 6206 0ed0 AD02     		.2byte	0x2ad
 6207 0ed2 1D090000 		.4byte	0x91d
 6208 0ed6 58       		.byte	0x58
 6209 0ed7 19       		.uleb128 0x19
 6210 0ed8 75160000 		.4byte	.LASF227
 6211 0edc 13       		.byte	0x13
 6212 0edd AE02     		.2byte	0x2ae
 6213 0edf 12090000 		.4byte	0x912
 6214 0ee3 5C       		.byte	0x5c
 6215 0ee4 19       		.uleb128 0x19
 6216 0ee5 A40D0000 		.4byte	.LASF228
 6217 0ee9 13       		.byte	0x13
 6218 0eea AF02     		.2byte	0x2af
 6219 0eec 1D090000 		.4byte	0x91d
 6220 0ef0 60       		.byte	0x60
 6221 0ef1 19       		.uleb128 0x19
 6222 0ef2 5E180000 		.4byte	.LASF229
 6223 0ef6 13       		.byte	0x13
 6224 0ef7 B002     		.2byte	0x2b0
 6225 0ef9 1D090000 		.4byte	0x91d
 6226 0efd 64       		.byte	0x64
 6227 0efe 19       		.uleb128 0x19
 6228 0eff 7F160000 		.4byte	.LASF230
 6229 0f03 13       		.byte	0x13
 6230 0f04 B102     		.2byte	0x2b1
 6231 0f06 0A0D0000 		.4byte	0xd0a
 6232 0f0a 68       		.byte	0x68
 6233 0f0b 19       		.uleb128 0x19
 6234 0f0c B3150000 		.4byte	.LASF231
 6235 0f10 13       		.byte	0x13
 6236 0f11 B202     		.2byte	0x2b2
 6237 0f13 1D090000 		.4byte	0x91d
 6238 0f17 70       		.byte	0x70
 6239 0f18 21       		.uleb128 0x21
 6240 0f19 43535200 		.ascii	"CSR\000"
 6241 0f1d 13       		.byte	0x13
 6242 0f1e B302     		.2byte	0x2b3
 6243 0f20 1D090000 		.4byte	0x91d
 6244 0f24 74       		.byte	0x74
 6245 0f25 19       		.uleb128 0x19
 6246 0f26 89160000 		.4byte	.LASF232
 6247 0f2a 13       		.byte	0x13
ARM GAS  /tmp/ccDE0Mq0.s 			page 111


 6248 0f2b B402     		.2byte	0x2b4
 6249 0f2d 0A0D0000 		.4byte	0xd0a
 6250 0f31 78       		.byte	0x78
 6251 0f32 19       		.uleb128 0x19
 6252 0f33 0B100000 		.4byte	.LASF233
 6253 0f37 13       		.byte	0x13
 6254 0f38 B502     		.2byte	0x2b5
 6255 0f3a 1D090000 		.4byte	0x91d
 6256 0f3e 80       		.byte	0x80
 6257 0f3f 19       		.uleb128 0x19
 6258 0f40 E0100000 		.4byte	.LASF234
 6259 0f44 13       		.byte	0x13
 6260 0f45 B602     		.2byte	0x2b6
 6261 0f47 1D090000 		.4byte	0x91d
 6262 0f4b 84       		.byte	0x84
 6263 0f4c 19       		.uleb128 0x19
 6264 0f4d 11100000 		.4byte	.LASF235
 6265 0f51 13       		.byte	0x13
 6266 0f52 B702     		.2byte	0x2b7
 6267 0f54 1D090000 		.4byte	0x91d
 6268 0f58 88       		.byte	0x88
 6269 0f59 19       		.uleb128 0x19
 6270 0f5a 5A070000 		.4byte	.LASF236
 6271 0f5e 13       		.byte	0x13
 6272 0f5f B802     		.2byte	0x2b8
 6273 0f61 1D090000 		.4byte	0x91d
 6274 0f65 8C       		.byte	0x8c
 6275 0f66 00       		.byte	0
 6276 0f67 08       		.uleb128 0x8
 6277 0f68 42010000 		.4byte	.LASF237
 6278 0f6c 13       		.byte	0x13
 6279 0f6d BA02     		.2byte	0x2ba
 6280 0f6f BE0D0000 		.4byte	0xdbe
 6281 0f73 1C       		.uleb128 0x1c
 6282 0f74 1C       		.byte	0x1c
 6283 0f75 13       		.byte	0x13
 6284 0f76 4F03     		.2byte	0x34f
 6285 0f78 D60F0000 		.4byte	0xfd6
 6286 0f7c 21       		.uleb128 0x21
 6287 0f7d 535200   		.ascii	"SR\000"
 6288 0f80 13       		.byte	0x13
 6289 0f81 5103     		.2byte	0x351
 6290 0f83 1D090000 		.4byte	0x91d
 6291 0f87 00       		.byte	0
 6292 0f88 21       		.uleb128 0x21
 6293 0f89 445200   		.ascii	"DR\000"
 6294 0f8c 13       		.byte	0x13
 6295 0f8d 5203     		.2byte	0x352
 6296 0f8f 1D090000 		.4byte	0x91d
 6297 0f93 04       		.byte	0x4
 6298 0f94 21       		.uleb128 0x21
 6299 0f95 42525200 		.ascii	"BRR\000"
 6300 0f99 13       		.byte	0x13
 6301 0f9a 5303     		.2byte	0x353
 6302 0f9c 1D090000 		.4byte	0x91d
 6303 0fa0 08       		.byte	0x8
 6304 0fa1 21       		.uleb128 0x21
ARM GAS  /tmp/ccDE0Mq0.s 			page 112


 6305 0fa2 43523100 		.ascii	"CR1\000"
 6306 0fa6 13       		.byte	0x13
 6307 0fa7 5403     		.2byte	0x354
 6308 0fa9 1D090000 		.4byte	0x91d
 6309 0fad 0C       		.byte	0xc
 6310 0fae 21       		.uleb128 0x21
 6311 0faf 43523200 		.ascii	"CR2\000"
 6312 0fb3 13       		.byte	0x13
 6313 0fb4 5503     		.2byte	0x355
 6314 0fb6 1D090000 		.4byte	0x91d
 6315 0fba 10       		.byte	0x10
 6316 0fbb 21       		.uleb128 0x21
 6317 0fbc 43523300 		.ascii	"CR3\000"
 6318 0fc0 13       		.byte	0x13
 6319 0fc1 5603     		.2byte	0x356
 6320 0fc3 1D090000 		.4byte	0x91d
 6321 0fc7 14       		.byte	0x14
 6322 0fc8 19       		.uleb128 0x19
 6323 0fc9 720A0000 		.4byte	.LASF238
 6324 0fcd 13       		.byte	0x13
 6325 0fce 5703     		.2byte	0x357
 6326 0fd0 1D090000 		.4byte	0x91d
 6327 0fd4 18       		.byte	0x18
 6328 0fd5 00       		.byte	0
 6329 0fd6 08       		.uleb128 0x8
 6330 0fd7 F21A0000 		.4byte	.LASF239
 6331 0fdb 13       		.byte	0x13
 6332 0fdc 5803     		.2byte	0x358
 6333 0fde 730F0000 		.4byte	0xf73
 6334 0fe2 0B       		.uleb128 0xb
 6335 0fe3 1D090000 		.4byte	0x91d
 6336 0fe7 F20F0000 		.4byte	0xff2
 6337 0feb 0C       		.uleb128 0xc
 6338 0fec 20010000 		.4byte	0x120
 6339 0ff0 0E       		.byte	0xe
 6340 0ff1 00       		.byte	0
 6341 0ff2 04       		.uleb128 0x4
 6342 0ff3 E20F0000 		.4byte	0xfe2
 6343 0ff7 03       		.uleb128 0x3
 6344 0ff8 8E120000 		.4byte	.LASF240
 6345 0ffc 14       		.byte	0x14
 6346 0ffd 65       		.byte	0x65
 6347 0ffe 5E010000 		.4byte	0x15e
 6348 1002 03       		.uleb128 0x3
 6349 1003 89060000 		.4byte	.LASF241
 6350 1007 14       		.byte	0x14
 6351 1008 6D       		.byte	0x6d
 6352 1009 22090000 		.4byte	0x922
 6353 100d 11       		.uleb128 0x11
 6354 100e FB0D0000 		.4byte	.LASF242
 6355 1012 04       		.byte	0x4
 6356 1013 14       		.byte	0x14
 6357 1014 89       		.byte	0x89
 6358 1015 26100000 		.4byte	0x1026
 6359 1019 12       		.uleb128 0x12
 6360 101a 72313300 		.ascii	"r13\000"
 6361 101e 14       		.byte	0x14
ARM GAS  /tmp/ccDE0Mq0.s 			page 113


 6362 101f 8A       		.byte	0x8a
 6363 1020 70110000 		.4byte	0x1170
 6364 1024 00       		.byte	0
 6365 1025 00       		.byte	0
 6366 1026 11       		.uleb128 0x11
 6367 1027 4D000000 		.4byte	.LASF243
 6368 102b 64       		.byte	0x64
 6369 102c 01       		.byte	0x1
 6370 102d FD       		.byte	0xfd
 6371 102e 70110000 		.4byte	0x1170
 6372 1032 12       		.uleb128 0x12
 6373 1033 73313600 		.ascii	"s16\000"
 6374 1037 01       		.byte	0x1
 6375 1038 FF       		.byte	0xff
 6376 1039 F70F0000 		.4byte	0xff7
 6377 103d 00       		.byte	0
 6378 103e 21       		.uleb128 0x21
 6379 103f 73313700 		.ascii	"s17\000"
 6380 1043 01       		.byte	0x1
 6381 1044 0001     		.2byte	0x100
 6382 1046 F70F0000 		.4byte	0xff7
 6383 104a 04       		.byte	0x4
 6384 104b 21       		.uleb128 0x21
 6385 104c 73313800 		.ascii	"s18\000"
 6386 1050 01       		.byte	0x1
 6387 1051 0101     		.2byte	0x101
 6388 1053 F70F0000 		.4byte	0xff7
 6389 1057 08       		.byte	0x8
 6390 1058 21       		.uleb128 0x21
 6391 1059 73313900 		.ascii	"s19\000"
 6392 105d 01       		.byte	0x1
 6393 105e 0201     		.2byte	0x102
 6394 1060 F70F0000 		.4byte	0xff7
 6395 1064 0C       		.byte	0xc
 6396 1065 21       		.uleb128 0x21
 6397 1066 73323000 		.ascii	"s20\000"
 6398 106a 01       		.byte	0x1
 6399 106b 0301     		.2byte	0x103
 6400 106d F70F0000 		.4byte	0xff7
 6401 1071 10       		.byte	0x10
 6402 1072 21       		.uleb128 0x21
 6403 1073 73323100 		.ascii	"s21\000"
 6404 1077 01       		.byte	0x1
 6405 1078 0401     		.2byte	0x104
 6406 107a F70F0000 		.4byte	0xff7
 6407 107e 14       		.byte	0x14
 6408 107f 21       		.uleb128 0x21
 6409 1080 73323200 		.ascii	"s22\000"
 6410 1084 01       		.byte	0x1
 6411 1085 0501     		.2byte	0x105
 6412 1087 F70F0000 		.4byte	0xff7
 6413 108b 18       		.byte	0x18
 6414 108c 21       		.uleb128 0x21
 6415 108d 73323300 		.ascii	"s23\000"
 6416 1091 01       		.byte	0x1
 6417 1092 0601     		.2byte	0x106
 6418 1094 F70F0000 		.4byte	0xff7
ARM GAS  /tmp/ccDE0Mq0.s 			page 114


 6419 1098 1C       		.byte	0x1c
 6420 1099 21       		.uleb128 0x21
 6421 109a 73323400 		.ascii	"s24\000"
 6422 109e 01       		.byte	0x1
 6423 109f 0701     		.2byte	0x107
 6424 10a1 F70F0000 		.4byte	0xff7
 6425 10a5 20       		.byte	0x20
 6426 10a6 21       		.uleb128 0x21
 6427 10a7 73323500 		.ascii	"s25\000"
 6428 10ab 01       		.byte	0x1
 6429 10ac 0801     		.2byte	0x108
 6430 10ae F70F0000 		.4byte	0xff7
 6431 10b2 24       		.byte	0x24
 6432 10b3 21       		.uleb128 0x21
 6433 10b4 73323600 		.ascii	"s26\000"
 6434 10b8 01       		.byte	0x1
 6435 10b9 0901     		.2byte	0x109
 6436 10bb F70F0000 		.4byte	0xff7
 6437 10bf 28       		.byte	0x28
 6438 10c0 21       		.uleb128 0x21
 6439 10c1 73323700 		.ascii	"s27\000"
 6440 10c5 01       		.byte	0x1
 6441 10c6 0A01     		.2byte	0x10a
 6442 10c8 F70F0000 		.4byte	0xff7
 6443 10cc 2C       		.byte	0x2c
 6444 10cd 21       		.uleb128 0x21
 6445 10ce 73323800 		.ascii	"s28\000"
 6446 10d2 01       		.byte	0x1
 6447 10d3 0B01     		.2byte	0x10b
 6448 10d5 F70F0000 		.4byte	0xff7
 6449 10d9 30       		.byte	0x30
 6450 10da 21       		.uleb128 0x21
 6451 10db 73323900 		.ascii	"s29\000"
 6452 10df 01       		.byte	0x1
 6453 10e0 0C01     		.2byte	0x10c
 6454 10e2 F70F0000 		.4byte	0xff7
 6455 10e6 34       		.byte	0x34
 6456 10e7 21       		.uleb128 0x21
 6457 10e8 73333000 		.ascii	"s30\000"
 6458 10ec 01       		.byte	0x1
 6459 10ed 0D01     		.2byte	0x10d
 6460 10ef F70F0000 		.4byte	0xff7
 6461 10f3 38       		.byte	0x38
 6462 10f4 21       		.uleb128 0x21
 6463 10f5 73333100 		.ascii	"s31\000"
 6464 10f9 01       		.byte	0x1
 6465 10fa 0E01     		.2byte	0x10e
 6466 10fc F70F0000 		.4byte	0xff7
 6467 1100 3C       		.byte	0x3c
 6468 1101 21       		.uleb128 0x21
 6469 1102 723400   		.ascii	"r4\000"
 6470 1105 01       		.byte	0x1
 6471 1106 1001     		.2byte	0x110
 6472 1108 F70F0000 		.4byte	0xff7
 6473 110c 40       		.byte	0x40
 6474 110d 21       		.uleb128 0x21
 6475 110e 723500   		.ascii	"r5\000"
ARM GAS  /tmp/ccDE0Mq0.s 			page 115


 6476 1111 01       		.byte	0x1
 6477 1112 1101     		.2byte	0x111
 6478 1114 F70F0000 		.4byte	0xff7
 6479 1118 44       		.byte	0x44
 6480 1119 21       		.uleb128 0x21
 6481 111a 723600   		.ascii	"r6\000"
 6482 111d 01       		.byte	0x1
 6483 111e 1201     		.2byte	0x112
 6484 1120 F70F0000 		.4byte	0xff7
 6485 1124 48       		.byte	0x48
 6486 1125 21       		.uleb128 0x21
 6487 1126 723700   		.ascii	"r7\000"
 6488 1129 01       		.byte	0x1
 6489 112a 1301     		.2byte	0x113
 6490 112c F70F0000 		.4byte	0xff7
 6491 1130 4C       		.byte	0x4c
 6492 1131 21       		.uleb128 0x21
 6493 1132 723800   		.ascii	"r8\000"
 6494 1135 01       		.byte	0x1
 6495 1136 1401     		.2byte	0x114
 6496 1138 F70F0000 		.4byte	0xff7
 6497 113c 50       		.byte	0x50
 6498 113d 21       		.uleb128 0x21
 6499 113e 723900   		.ascii	"r9\000"
 6500 1141 01       		.byte	0x1
 6501 1142 1501     		.2byte	0x115
 6502 1144 F70F0000 		.4byte	0xff7
 6503 1148 54       		.byte	0x54
 6504 1149 21       		.uleb128 0x21
 6505 114a 72313000 		.ascii	"r10\000"
 6506 114e 01       		.byte	0x1
 6507 114f 1601     		.2byte	0x116
 6508 1151 F70F0000 		.4byte	0xff7
 6509 1155 58       		.byte	0x58
 6510 1156 21       		.uleb128 0x21
 6511 1157 72313100 		.ascii	"r11\000"
 6512 115b 01       		.byte	0x1
 6513 115c 1701     		.2byte	0x117
 6514 115e F70F0000 		.4byte	0xff7
 6515 1162 5C       		.byte	0x5c
 6516 1163 21       		.uleb128 0x21
 6517 1164 6C7200   		.ascii	"lr\000"
 6518 1167 01       		.byte	0x1
 6519 1168 1801     		.2byte	0x118
 6520 116a F70F0000 		.4byte	0xff7
 6521 116e 60       		.byte	0x60
 6522 116f 00       		.byte	0
 6523 1170 06       		.uleb128 0x6
 6524 1171 04       		.byte	0x4
 6525 1172 26100000 		.4byte	0x1026
 6526 1176 0D       		.uleb128 0xd
 6527 1177 04       		.byte	0x4
 6528 1178 15       		.byte	0x15
 6529 1179 38       		.byte	0x38
 6530 117a 8B110000 		.4byte	0x118b
 6531 117e 0E       		.uleb128 0xe
 6532 117f 0B170000 		.4byte	.LASF244
ARM GAS  /tmp/ccDE0Mq0.s 			page 116


 6533 1183 15       		.byte	0x15
 6534 1184 3C       		.byte	0x3c
 6535 1185 2D090000 		.4byte	0x92d
 6536 1189 00       		.byte	0
 6537 118a 00       		.byte	0
 6538 118b 03       		.uleb128 0x3
 6539 118c 37040000 		.4byte	.LASF245
 6540 1190 15       		.byte	0x15
 6541 1191 3D       		.byte	0x3d
 6542 1192 76110000 		.4byte	0x1176
 6543 1196 0D       		.uleb128 0xd
 6544 1197 18       		.byte	0x18
 6545 1198 15       		.byte	0x15
 6546 1199 48       		.byte	0x48
 6547 119a D9110000 		.4byte	0x11d9
 6548 119e 0E       		.uleb128 0xe
 6549 119f 62050000 		.4byte	.LASF246
 6550 11a3 15       		.byte	0x15
 6551 11a4 49       		.byte	0x49
 6552 11a5 2D090000 		.4byte	0x92d
 6553 11a9 00       		.byte	0
 6554 11aa 0E       		.uleb128 0xe
 6555 11ab 2C010000 		.4byte	.LASF247
 6556 11af 15       		.byte	0x15
 6557 11b0 4A       		.byte	0x4a
 6558 11b1 2D090000 		.4byte	0x92d
 6559 11b5 04       		.byte	0x4
 6560 11b6 0E       		.uleb128 0xe
 6561 11b7 35120000 		.4byte	.LASF248
 6562 11bb 15       		.byte	0x15
 6563 11bc 4B       		.byte	0x4b
 6564 11bd 2D090000 		.4byte	0x92d
 6565 11c1 08       		.byte	0x8
 6566 11c2 12       		.uleb128 0x12
 6567 11c3 6E00     		.ascii	"n\000"
 6568 11c5 15       		.byte	0x15
 6569 11c6 4C       		.byte	0x4c
 6570 11c7 9B090000 		.4byte	0x99b
 6571 11cb 0C       		.byte	0xc
 6572 11cc 0E       		.uleb128 0xe
 6573 11cd D9110000 		.4byte	.LASF249
 6574 11d1 15       		.byte	0x15
 6575 11d2 4D       		.byte	0x4d
 6576 11d3 38090000 		.4byte	0x938
 6577 11d7 10       		.byte	0x10
 6578 11d8 00       		.byte	0
 6579 11d9 03       		.uleb128 0x3
 6580 11da 21190000 		.4byte	.LASF250
 6581 11de 15       		.byte	0x15
 6582 11df 4E       		.byte	0x4e
 6583 11e0 96110000 		.4byte	0x1196
 6584 11e4 0D       		.uleb128 0xd
 6585 11e5 38       		.byte	0x38
 6586 11e6 16       		.byte	0x16
 6587 11e7 38       		.byte	0x38
 6588 11e8 1D120000 		.4byte	0x121d
 6589 11ec 0E       		.uleb128 0xe
ARM GAS  /tmp/ccDE0Mq0.s 			page 117


 6590 11ed EE040000 		.4byte	.LASF251
 6591 11f1 16       		.byte	0x16
 6592 11f2 39       		.byte	0x39
 6593 11f3 9B090000 		.4byte	0x99b
 6594 11f7 00       		.byte	0
 6595 11f8 0E       		.uleb128 0xe
 6596 11f9 97070000 		.4byte	.LASF252
 6597 11fd 16       		.byte	0x16
 6598 11fe 3A       		.byte	0x3a
 6599 11ff 9B090000 		.4byte	0x99b
 6600 1203 04       		.byte	0x4
 6601 1204 0E       		.uleb128 0xe
 6602 1205 B3180000 		.4byte	.LASF253
 6603 1209 16       		.byte	0x16
 6604 120a 3B       		.byte	0x3b
 6605 120b D9110000 		.4byte	0x11d9
 6606 120f 08       		.byte	0x8
 6607 1210 0E       		.uleb128 0xe
 6608 1211 79000000 		.4byte	.LASF254
 6609 1215 16       		.byte	0x16
 6610 1216 3D       		.byte	0x3d
 6611 1217 D9110000 		.4byte	0x11d9
 6612 121b 20       		.byte	0x20
 6613 121c 00       		.byte	0
 6614 121d 03       		.uleb128 0x3
 6615 121e 09040000 		.4byte	.LASF255
 6616 1222 16       		.byte	0x16
 6617 1223 3F       		.byte	0x3f
 6618 1224 E4110000 		.4byte	0x11e4
 6619 1228 09       		.uleb128 0x9
 6620 1229 04       		.byte	0x4
 6621 122a 10       		.byte	0x10
 6622 122b FA       		.byte	0xfa
 6623 122c 85120000 		.4byte	0x1285
 6624 1230 1E       		.uleb128 0x1e
 6625 1231 7E0B0000 		.4byte	.LASF256
 6626 1235 10       		.byte	0x10
 6627 1236 0101     		.2byte	0x101
 6628 1238 6F090000 		.4byte	0x96f
 6629 123c 1E       		.uleb128 0x1e
 6630 123d F1090000 		.4byte	.LASF257
 6631 1241 10       		.byte	0x10
 6632 1242 0801     		.2byte	0x108
 6633 1244 6F090000 		.4byte	0x96f
 6634 1248 1E       		.uleb128 0x1e
 6635 1249 2E150000 		.4byte	.LASF258
 6636 124d 10       		.byte	0x10
 6637 124e 0F01     		.2byte	0x10f
 6638 1250 5E010000 		.4byte	0x15e
 6639 1254 1E       		.uleb128 0x1e
 6640 1255 FA110000 		.4byte	.LASF259
 6641 1259 10       		.byte	0x10
 6642 125a 1601     		.2byte	0x116
 6643 125c 85120000 		.4byte	0x1285
 6644 1260 1E       		.uleb128 0x1e
 6645 1261 EE000000 		.4byte	.LASF260
 6646 1265 10       		.byte	0x10
ARM GAS  /tmp/ccDE0Mq0.s 			page 118


 6647 1266 1E01     		.2byte	0x11e
 6648 1268 B0120000 		.4byte	0x12b0
 6649 126c 1E       		.uleb128 0x1e
 6650 126d 57150000 		.4byte	.LASF261
 6651 1271 10       		.byte	0x10
 6652 1272 2701     		.2byte	0x127
 6653 1274 E7120000 		.4byte	0x12e7
 6654 1278 1E       		.uleb128 0x1e
 6655 1279 9E170000 		.4byte	.LASF262
 6656 127d 10       		.byte	0x10
 6657 127e 2F01     		.2byte	0x12f
 6658 1280 7A090000 		.4byte	0x97a
 6659 1284 00       		.byte	0
 6660 1285 06       		.uleb128 0x6
 6661 1286 04       		.byte	0x4
 6662 1287 C70A0000 		.4byte	0xac7
 6663 128b 11       		.uleb128 0x11
 6664 128c 21110000 		.4byte	.LASF263
 6665 1290 0C       		.byte	0xc
 6666 1291 17       		.byte	0x17
 6667 1292 34       		.byte	0x34
 6668 1293 B0120000 		.4byte	0x12b0
 6669 1297 0E       		.uleb128 0xe
 6670 1298 AB180000 		.4byte	.LASF264
 6671 129c 17       		.byte	0x17
 6672 129d 35       		.byte	0x35
 6673 129e FC0A0000 		.4byte	0xafc
 6674 12a2 00       		.byte	0
 6675 12a3 0E       		.uleb128 0xe
 6676 12a4 ED0F0000 		.4byte	.LASF265
 6677 12a8 17       		.byte	0x17
 6678 12a9 37       		.byte	0x37
 6679 12aa 90090000 		.4byte	0x990
 6680 12ae 08       		.byte	0x8
 6681 12af 00       		.byte	0
 6682 12b0 06       		.uleb128 0x6
 6683 12b1 04       		.byte	0x4
 6684 12b2 8B120000 		.4byte	0x128b
 6685 12b6 11       		.uleb128 0x11
 6686 12b7 30080000 		.4byte	.LASF266
 6687 12bb 10       		.byte	0x10
 6688 12bc 18       		.byte	0x18
 6689 12bd 39       		.byte	0x39
 6690 12be E7120000 		.4byte	0x12e7
 6691 12c2 0E       		.uleb128 0xe
 6692 12c3 590E0000 		.4byte	.LASF267
 6693 12c7 18       		.byte	0x18
 6694 12c8 3A       		.byte	0x3a
 6695 12c9 FC0A0000 		.4byte	0xafc
 6696 12cd 00       		.byte	0
 6697 12ce 0E       		.uleb128 0xe
 6698 12cf 5E100000 		.4byte	.LASF268
 6699 12d3 18       		.byte	0x18
 6700 12d4 3C       		.byte	0x3c
 6701 12d5 D20A0000 		.4byte	0xad2
 6702 12d9 08       		.byte	0x8
 6703 12da 0E       		.uleb128 0xe
ARM GAS  /tmp/ccDE0Mq0.s 			page 119


 6704 12db 60010000 		.4byte	.LASF269
 6705 12df 18       		.byte	0x18
 6706 12e0 3E       		.byte	0x3e
 6707 12e1 2B140000 		.4byte	0x142b
 6708 12e5 0C       		.byte	0xc
 6709 12e6 00       		.byte	0
 6710 12e7 06       		.uleb128 0x6
 6711 12e8 04       		.byte	0x4
 6712 12e9 B6120000 		.4byte	0x12b6
 6713 12ed 06       		.uleb128 0x6
 6714 12ee 04       		.byte	0x4
 6715 12ef 02100000 		.4byte	0x1002
 6716 12f3 06       		.uleb128 0x6
 6717 12f4 04       		.byte	0x4
 6718 12f5 AF0B0000 		.4byte	0xbaf
 6719 12f9 0B       		.uleb128 0xb
 6720 12fa 02100000 		.4byte	0x1002
 6721 12fe 09130000 		.4byte	0x1309
 6722 1302 0C       		.uleb128 0xc
 6723 1303 20010000 		.4byte	0x120
 6724 1307 2F       		.byte	0x2f
 6725 1308 00       		.byte	0
 6726 1309 23       		.uleb128 0x23
 6727 130a 636800   		.ascii	"ch\000"
 6728 130d 10       		.byte	0x10
 6729 130e 0902     		.2byte	0x209
 6730 1310 960C0000 		.4byte	0xc96
 6731 1314 0D       		.uleb128 0xd
 6732 1315 16       		.byte	0x16
 6733 1316 05       		.byte	0x5
 6734 1317 34       		.byte	0x34
 6735 1318 F5130000 		.4byte	0x13f5
 6736 131c 0E       		.uleb128 0xe
 6737 131d BE180000 		.4byte	.LASF270
 6738 1321 05       		.byte	0x5
 6739 1322 35       		.byte	0x35
 6740 1323 F5130000 		.4byte	0x13f5
 6741 1327 00       		.byte	0
 6742 1328 0E       		.uleb128 0xe
 6743 1329 631A0000 		.4byte	.LASF271
 6744 132d 05       		.byte	0x5
 6745 132e 36       		.byte	0x36
 6746 132f E7080000 		.4byte	0x8e7
 6747 1333 04       		.byte	0x4
 6748 1334 0E       		.uleb128 0xe
 6749 1335 85020000 		.4byte	.LASF272
 6750 1339 05       		.byte	0x5
 6751 133a 37       		.byte	0x37
 6752 133b E7080000 		.4byte	0x8e7
 6753 133f 05       		.byte	0x5
 6754 1340 0E       		.uleb128 0xe
 6755 1341 84100000 		.4byte	.LASF273
 6756 1345 05       		.byte	0x5
 6757 1346 38       		.byte	0x38
 6758 1347 F7080000 		.4byte	0x8f7
 6759 134b 06       		.byte	0x6
 6760 134c 0E       		.uleb128 0xe
ARM GAS  /tmp/ccDE0Mq0.s 			page 120


 6761 134d 59000000 		.4byte	.LASF274
 6762 1351 05       		.byte	0x5
 6763 1352 39       		.byte	0x39
 6764 1353 E7080000 		.4byte	0x8e7
 6765 1357 08       		.byte	0x8
 6766 1358 0E       		.uleb128 0xe
 6767 1359 2C0F0000 		.4byte	.LASF275
 6768 135d 05       		.byte	0x5
 6769 135e 3A       		.byte	0x3a
 6770 135f E7080000 		.4byte	0x8e7
 6771 1363 09       		.byte	0x9
 6772 1364 0E       		.uleb128 0xe
 6773 1365 6B1A0000 		.4byte	.LASF276
 6774 1369 05       		.byte	0x5
 6775 136a 3B       		.byte	0x3b
 6776 136b E7080000 		.4byte	0x8e7
 6777 136f 0A       		.byte	0xa
 6778 1370 0E       		.uleb128 0xe
 6779 1371 FC180000 		.4byte	.LASF277
 6780 1375 05       		.byte	0x5
 6781 1376 3C       		.byte	0x3c
 6782 1377 E7080000 		.4byte	0x8e7
 6783 137b 0B       		.byte	0xb
 6784 137c 0E       		.uleb128 0xe
 6785 137d 68180000 		.4byte	.LASF278
 6786 1381 05       		.byte	0x5
 6787 1382 3D       		.byte	0x3d
 6788 1383 E7080000 		.4byte	0x8e7
 6789 1387 0C       		.byte	0xc
 6790 1388 0E       		.uleb128 0xe
 6791 1389 76080000 		.4byte	.LASF279
 6792 138d 05       		.byte	0x5
 6793 138e 3E       		.byte	0x3e
 6794 138f E7080000 		.4byte	0x8e7
 6795 1393 0D       		.byte	0xd
 6796 1394 0E       		.uleb128 0xe
 6797 1395 64040000 		.4byte	.LASF280
 6798 1399 05       		.byte	0x5
 6799 139a 3F       		.byte	0x3f
 6800 139b E7080000 		.4byte	0x8e7
 6801 139f 0E       		.byte	0xe
 6802 13a0 0E       		.uleb128 0xe
 6803 13a1 9B090000 		.4byte	.LASF281
 6804 13a5 05       		.byte	0x5
 6805 13a6 40       		.byte	0x40
 6806 13a7 E7080000 		.4byte	0x8e7
 6807 13ab 0F       		.byte	0xf
 6808 13ac 0E       		.uleb128 0xe
 6809 13ad 1D0B0000 		.4byte	.LASF282
 6810 13b1 05       		.byte	0x5
 6811 13b2 41       		.byte	0x41
 6812 13b3 E7080000 		.4byte	0x8e7
 6813 13b7 10       		.byte	0x10
 6814 13b8 0E       		.uleb128 0xe
 6815 13b9 51100000 		.4byte	.LASF283
 6816 13bd 05       		.byte	0x5
 6817 13be 43       		.byte	0x43
ARM GAS  /tmp/ccDE0Mq0.s 			page 121


 6818 13bf E7080000 		.4byte	0x8e7
 6819 13c3 11       		.byte	0x11
 6820 13c4 0E       		.uleb128 0xe
 6821 13c5 4C020000 		.4byte	.LASF284
 6822 13c9 05       		.byte	0x5
 6823 13ca 44       		.byte	0x44
 6824 13cb E7080000 		.4byte	0x8e7
 6825 13cf 12       		.byte	0x12
 6826 13d0 0E       		.uleb128 0xe
 6827 13d1 45100000 		.4byte	.LASF285
 6828 13d5 05       		.byte	0x5
 6829 13d6 45       		.byte	0x45
 6830 13d7 E7080000 		.4byte	0x8e7
 6831 13db 13       		.byte	0x13
 6832 13dc 0E       		.uleb128 0xe
 6833 13dd B7140000 		.4byte	.LASF286
 6834 13e1 05       		.byte	0x5
 6835 13e2 46       		.byte	0x46
 6836 13e3 E7080000 		.4byte	0x8e7
 6837 13e7 14       		.byte	0x14
 6838 13e8 0E       		.uleb128 0xe
 6839 13e9 CC000000 		.4byte	.LASF287
 6840 13ed 05       		.byte	0x5
 6841 13ee 48       		.byte	0x48
 6842 13ef E7080000 		.4byte	0x8e7
 6843 13f3 15       		.byte	0x15
 6844 13f4 00       		.byte	0
 6845 13f5 0B       		.uleb128 0xb
 6846 13f6 66010000 		.4byte	0x166
 6847 13fa 05140000 		.4byte	0x1405
 6848 13fe 0C       		.uleb128 0xc
 6849 13ff 20010000 		.4byte	0x120
 6850 1403 03       		.byte	0x3
 6851 1404 00       		.byte	0
 6852 1405 03       		.uleb128 0x3
 6853 1406 C00E0000 		.4byte	.LASF288
 6854 140a 05       		.byte	0x5
 6855 140b 49       		.byte	0x49
 6856 140c 14130000 		.4byte	0x1314
 6857 1410 10       		.uleb128 0x10
 6858 1411 05140000 		.4byte	0x1405
 6859 1415 22       		.uleb128 0x22
 6860 1416 A0070000 		.4byte	.LASF289
 6861 141a 05       		.byte	0x5
 6862 141b 6E       		.byte	0x6e
 6863 141c 10140000 		.4byte	0x1410
 6864 1420 03       		.uleb128 0x3
 6865 1421 22160000 		.4byte	.LASF290
 6866 1425 18       		.byte	0x18
 6867 1426 34       		.byte	0x34
 6868 1427 B6120000 		.4byte	0x12b6
 6869 142b 06       		.uleb128 0x6
 6870 142c 04       		.byte	0x4
 6871 142d 20140000 		.4byte	0x1420
 6872 1431 03       		.uleb128 0x3
 6873 1432 52090000 		.4byte	.LASF291
 6874 1436 19       		.byte	0x19
ARM GAS  /tmp/ccDE0Mq0.s 			page 122


 6875 1437 34       		.byte	0x34
 6876 1438 3C140000 		.4byte	0x143c
 6877 143c 11       		.uleb128 0x11
 6878 143d C8060000 		.4byte	.LASF292
 6879 1441 14       		.byte	0x14
 6880 1442 19       		.byte	0x19
 6881 1443 39       		.byte	0x39
 6882 1444 85140000 		.4byte	0x1485
 6883 1448 0E       		.uleb128 0xe
 6884 1449 D1010000 		.4byte	.LASF293
 6885 144d 19       		.byte	0x19
 6886 144e 3A       		.byte	0x3a
 6887 144f 85140000 		.4byte	0x1485
 6888 1453 00       		.byte	0
 6889 1454 0E       		.uleb128 0xe
 6890 1455 C1160000 		.4byte	.LASF294
 6891 1459 19       		.byte	0x19
 6892 145a 3D       		.byte	0x3d
 6893 145b D20A0000 		.4byte	0xad2
 6894 145f 04       		.byte	0x4
 6895 1460 0E       		.uleb128 0xe
 6896 1461 CE020000 		.4byte	.LASF295
 6897 1465 19       		.byte	0x19
 6898 1466 3F       		.byte	0x3f
 6899 1467 7A090000 		.4byte	0x97a
 6900 146b 08       		.byte	0x8
 6901 146c 0E       		.uleb128 0xe
 6902 146d A5170000 		.4byte	.LASF296
 6903 1471 19       		.byte	0x19
 6904 1472 41       		.byte	0x41
 6905 1473 85090000 		.4byte	0x985
 6906 1477 0C       		.byte	0xc
 6907 1478 0E       		.uleb128 0xe
 6908 1479 DD090000 		.4byte	.LASF297
 6909 147d 19       		.byte	0x19
 6910 147e 43       		.byte	0x43
 6911 147f 85090000 		.4byte	0x985
 6912 1483 10       		.byte	0x10
 6913 1484 00       		.byte	0
 6914 1485 06       		.uleb128 0x6
 6915 1486 04       		.byte	0x4
 6916 1487 31140000 		.4byte	0x1431
 6917 148b 11       		.uleb128 0x11
 6918 148c AE170000 		.4byte	.LASF298
 6919 1490 04       		.byte	0x4
 6920 1491 19       		.byte	0x19
 6921 1492 4A       		.byte	0x4a
 6922 1493 A4140000 		.4byte	0x14a4
 6923 1497 0E       		.uleb128 0xe
 6924 1498 34170000 		.4byte	.LASF299
 6925 149c 19       		.byte	0x19
 6926 149d 4B       		.byte	0x4b
 6927 149e 85140000 		.4byte	0x1485
 6928 14a2 00       		.byte	0
 6929 14a3 00       		.byte	0
 6930 14a4 03       		.uleb128 0x3
 6931 14a5 530F0000 		.4byte	.LASF300
ARM GAS  /tmp/ccDE0Mq0.s 			page 123


 6932 14a9 19       		.byte	0x19
 6933 14aa 4E       		.byte	0x4e
 6934 14ab 8B140000 		.4byte	0x148b
 6935 14af 05       		.uleb128 0x5
 6936 14b0 01       		.byte	0x1
 6937 14b1 02       		.byte	0x2
 6938 14b2 F5000000 		.4byte	.LASF301
 6939 14b6 03       		.uleb128 0x3
 6940 14b7 3A0A0000 		.4byte	.LASF302
 6941 14bb 1A       		.byte	0x1a
 6942 14bc 3F       		.byte	0x3f
 6943 14bd C1140000 		.4byte	0x14c1
 6944 14c1 11       		.uleb128 0x11
 6945 14c2 B90B0000 		.4byte	.LASF303
 6946 14c6 24       		.byte	0x24
 6947 14c7 1A       		.byte	0x1a
 6948 14c8 4D       		.byte	0x4d
 6949 14c9 2E150000 		.4byte	0x152e
 6950 14cd 0E       		.uleb128 0xe
 6951 14ce 18040000 		.4byte	.LASF304
 6952 14d2 1A       		.byte	0x1a
 6953 14d3 4E       		.byte	0x4e
 6954 14d4 FC0A0000 		.4byte	0xafc
 6955 14d8 00       		.byte	0
 6956 14d9 0E       		.uleb128 0xe
 6957 14da C3110000 		.4byte	.LASF305
 6958 14de 1A       		.byte	0x1a
 6959 14df 4F       		.byte	0x4f
 6960 14e0 37000000 		.4byte	0x37
 6961 14e4 08       		.byte	0x8
 6962 14e5 0E       		.uleb128 0xe
 6963 14e6 4A0D0000 		.4byte	.LASF306
 6964 14ea 1A       		.byte	0x1a
 6965 14eb 50       		.byte	0x50
 6966 14ec 50150000 		.4byte	0x1550
 6967 14f0 0C       		.byte	0xc
 6968 14f1 0E       		.uleb128 0xe
 6969 14f2 9D030000 		.4byte	.LASF307
 6970 14f6 1A       		.byte	0x1a
 6971 14f7 51       		.byte	0x51
 6972 14f8 50150000 		.4byte	0x1550
 6973 14fc 10       		.byte	0x10
 6974 14fd 0E       		.uleb128 0xe
 6975 14fe E3120000 		.4byte	.LASF308
 6976 1502 1A       		.byte	0x1a
 6977 1503 53       		.byte	0x53
 6978 1504 50150000 		.4byte	0x1550
 6979 1508 14       		.byte	0x14
 6980 1509 0E       		.uleb128 0xe
 6981 150a 00120000 		.4byte	.LASF309
 6982 150e 1A       		.byte	0x1a
 6983 150f 54       		.byte	0x54
 6984 1510 50150000 		.4byte	0x1550
 6985 1514 18       		.byte	0x18
 6986 1515 0E       		.uleb128 0xe
 6987 1516 4E150000 		.4byte	.LASF310
 6988 151a 1A       		.byte	0x1a
ARM GAS  /tmp/ccDE0Mq0.s 			page 124


 6989 151b 55       		.byte	0x55
 6990 151c 2E150000 		.4byte	0x152e
 6991 1520 1C       		.byte	0x1c
 6992 1521 0E       		.uleb128 0xe
 6993 1522 89130000 		.4byte	.LASF311
 6994 1526 1A       		.byte	0x1a
 6995 1527 56       		.byte	0x56
 6996 1528 5E010000 		.4byte	0x15e
 6997 152c 20       		.byte	0x20
 6998 152d 00       		.byte	0
 6999 152e 03       		.uleb128 0x3
 7000 152f 5C030000 		.4byte	.LASF312
 7001 1533 1A       		.byte	0x1a
 7002 1534 42       		.byte	0x42
 7003 1535 39150000 		.4byte	0x1539
 7004 1539 06       		.uleb128 0x6
 7005 153a 04       		.byte	0x4
 7006 153b 3F150000 		.4byte	0x153f
 7007 153f 1F       		.uleb128 0x1f
 7008 1540 4A150000 		.4byte	0x154a
 7009 1544 17       		.uleb128 0x17
 7010 1545 4A150000 		.4byte	0x154a
 7011 1549 00       		.byte	0
 7012 154a 06       		.uleb128 0x6
 7013 154b 04       		.byte	0x4
 7014 154c B6140000 		.4byte	0x14b6
 7015 1550 06       		.uleb128 0x6
 7016 1551 04       		.byte	0x4
 7017 1552 E7080000 		.4byte	0x8e7
 7018 1556 03       		.uleb128 0x3
 7019 1557 48040000 		.4byte	.LASF313
 7020 155b 1A       		.byte	0x1a
 7021 155c 64       		.byte	0x64
 7022 155d B6140000 		.4byte	0x14b6
 7023 1561 03       		.uleb128 0x3
 7024 1562 001B0000 		.4byte	.LASF314
 7025 1566 1A       		.byte	0x1a
 7026 1567 71       		.byte	0x71
 7027 1568 B6140000 		.4byte	0x14b6
 7028 156c 16       		.uleb128 0x16
 7029 156d 2C000000 		.4byte	0x2c
 7030 1571 85150000 		.4byte	0x1585
 7031 1575 17       		.uleb128 0x17
 7032 1576 5E010000 		.4byte	0x15e
 7033 157a 17       		.uleb128 0x17
 7034 157b 85150000 		.4byte	0x1585
 7035 157f 17       		.uleb128 0x17
 7036 1580 2C000000 		.4byte	0x2c
 7037 1584 00       		.byte	0
 7038 1585 06       		.uleb128 0x6
 7039 1586 04       		.byte	0x4
 7040 1587 F2080000 		.4byte	0x8f2
 7041 158b 06       		.uleb128 0x6
 7042 158c 04       		.byte	0x4
 7043 158d 6C150000 		.4byte	0x156c
 7044 1591 16       		.uleb128 0x16
 7045 1592 2C000000 		.4byte	0x2c
ARM GAS  /tmp/ccDE0Mq0.s 			page 125


 7046 1596 AA150000 		.4byte	0x15aa
 7047 159a 17       		.uleb128 0x17
 7048 159b 5E010000 		.4byte	0x15e
 7049 159f 17       		.uleb128 0x17
 7050 15a0 50150000 		.4byte	0x1550
 7051 15a4 17       		.uleb128 0x17
 7052 15a5 2C000000 		.4byte	0x2c
 7053 15a9 00       		.byte	0
 7054 15aa 06       		.uleb128 0x6
 7055 15ab 04       		.byte	0x4
 7056 15ac 91150000 		.4byte	0x1591
 7057 15b0 16       		.uleb128 0x16
 7058 15b1 6F090000 		.4byte	0x96f
 7059 15b5 C4150000 		.4byte	0x15c4
 7060 15b9 17       		.uleb128 0x17
 7061 15ba 5E010000 		.4byte	0x15e
 7062 15be 17       		.uleb128 0x17
 7063 15bf E7080000 		.4byte	0x8e7
 7064 15c3 00       		.byte	0
 7065 15c4 06       		.uleb128 0x6
 7066 15c5 04       		.byte	0x4
 7067 15c6 B0150000 		.4byte	0x15b0
 7068 15ca 16       		.uleb128 0x16
 7069 15cb 6F090000 		.4byte	0x96f
 7070 15cf D9150000 		.4byte	0x15d9
 7071 15d3 17       		.uleb128 0x17
 7072 15d4 5E010000 		.4byte	0x15e
 7073 15d8 00       		.byte	0
 7074 15d9 06       		.uleb128 0x6
 7075 15da 04       		.byte	0x4
 7076 15db CA150000 		.4byte	0x15ca
 7077 15df 1C       		.uleb128 0x1c
 7078 15e0 0C       		.byte	0xc
 7079 15e1 1B       		.byte	0x1b
 7080 15e2 6D01     		.2byte	0x16d
 7081 15e4 2A160000 		.4byte	0x162a
 7082 15e8 19       		.uleb128 0x19
 7083 15e9 AD1A0000 		.4byte	.LASF315
 7084 15ed 1B       		.byte	0x1b
 7085 15ee 6E01     		.2byte	0x16e
 7086 15f0 2A160000 		.4byte	0x162a
 7087 15f4 00       		.byte	0
 7088 15f5 19       		.uleb128 0x19
 7089 15f6 6D0B0000 		.4byte	.LASF316
 7090 15fa 1B       		.byte	0x1b
 7091 15fb 6F01     		.2byte	0x16f
 7092 15fd 30160000 		.4byte	0x1630
 7093 1601 04       		.byte	0x4
 7094 1602 19       		.uleb128 0x19
 7095 1603 6F030000 		.4byte	.LASF317
 7096 1607 1B       		.byte	0x1b
 7097 1608 7001     		.2byte	0x170
 7098 160a E7080000 		.4byte	0x8e7
 7099 160e 08       		.byte	0x8
 7100 160f 19       		.uleb128 0x19
 7101 1610 18160000 		.4byte	.LASF318
 7102 1614 1B       		.byte	0x1b
ARM GAS  /tmp/ccDE0Mq0.s 			page 126


 7103 1615 7201     		.2byte	0x172
 7104 1617 E7080000 		.4byte	0x8e7
 7105 161b 09       		.byte	0x9
 7106 161c 19       		.uleb128 0x19
 7107 161d FA020000 		.4byte	.LASF319
 7108 1621 1B       		.byte	0x1b
 7109 1622 7301     		.2byte	0x173
 7110 1624 E7080000 		.4byte	0x8e7
 7111 1628 0A       		.byte	0xa
 7112 1629 00       		.byte	0
 7113 162a 06       		.uleb128 0x6
 7114 162b 04       		.byte	0x4
 7115 162c 880D0000 		.4byte	0xd88
 7116 1630 06       		.uleb128 0x6
 7117 1631 04       		.byte	0x4
 7118 1632 1D090000 		.4byte	0x91d
 7119 1636 08       		.uleb128 0x8
 7120 1637 180E0000 		.4byte	.LASF320
 7121 163b 1B       		.byte	0x1b
 7122 163c 7401     		.2byte	0x174
 7123 163e DF150000 		.4byte	0x15df
 7124 1642 10       		.uleb128 0x10
 7125 1643 36160000 		.4byte	0x1636
 7126 1647 0B       		.uleb128 0xb
 7127 1648 42160000 		.4byte	0x1642
 7128 164c 57160000 		.4byte	0x1657
 7129 1650 0C       		.uleb128 0xc
 7130 1651 20010000 		.4byte	0x120
 7131 1655 0F       		.byte	0xf
 7132 1656 00       		.byte	0
 7133 1657 10       		.uleb128 0x10
 7134 1658 47160000 		.4byte	0x1647
 7135 165c 20       		.uleb128 0x20
 7136 165d 0F140000 		.4byte	.LASF321
 7137 1661 1B       		.byte	0x1b
 7138 1662 9202     		.2byte	0x292
 7139 1664 57160000 		.4byte	0x1657
 7140 1668 16       		.uleb128 0x16
 7141 1669 6F090000 		.4byte	0x96f
 7142 166d 81160000 		.4byte	0x1681
 7143 1671 17       		.uleb128 0x17
 7144 1672 5E010000 		.4byte	0x15e
 7145 1676 17       		.uleb128 0x17
 7146 1677 E7080000 		.4byte	0x8e7
 7147 167b 17       		.uleb128 0x17
 7148 167c A6090000 		.4byte	0x9a6
 7149 1680 00       		.byte	0
 7150 1681 06       		.uleb128 0x6
 7151 1682 04       		.byte	0x4
 7152 1683 68160000 		.4byte	0x1668
 7153 1687 16       		.uleb128 0x16
 7154 1688 6F090000 		.4byte	0x96f
 7155 168c 9B160000 		.4byte	0x169b
 7156 1690 17       		.uleb128 0x17
 7157 1691 5E010000 		.4byte	0x15e
 7158 1695 17       		.uleb128 0x17
 7159 1696 A6090000 		.4byte	0x9a6
ARM GAS  /tmp/ccDE0Mq0.s 			page 127


 7160 169a 00       		.byte	0
 7161 169b 06       		.uleb128 0x6
 7162 169c 04       		.byte	0x4
 7163 169d 87160000 		.4byte	0x1687
 7164 16a1 16       		.uleb128 0x16
 7165 16a2 2C000000 		.4byte	0x2c
 7166 16a6 BF160000 		.4byte	0x16bf
 7167 16aa 17       		.uleb128 0x17
 7168 16ab 5E010000 		.4byte	0x15e
 7169 16af 17       		.uleb128 0x17
 7170 16b0 85150000 		.4byte	0x1585
 7171 16b4 17       		.uleb128 0x17
 7172 16b5 2C000000 		.4byte	0x2c
 7173 16b9 17       		.uleb128 0x17
 7174 16ba A6090000 		.4byte	0x9a6
 7175 16be 00       		.byte	0
 7176 16bf 06       		.uleb128 0x6
 7177 16c0 04       		.byte	0x4
 7178 16c1 A1160000 		.4byte	0x16a1
 7179 16c5 16       		.uleb128 0x16
 7180 16c6 2C000000 		.4byte	0x2c
 7181 16ca E3160000 		.4byte	0x16e3
 7182 16ce 17       		.uleb128 0x17
 7183 16cf 5E010000 		.4byte	0x15e
 7184 16d3 17       		.uleb128 0x17
 7185 16d4 50150000 		.4byte	0x1550
 7186 16d8 17       		.uleb128 0x17
 7187 16d9 2C000000 		.4byte	0x2c
 7188 16dd 17       		.uleb128 0x17
 7189 16de A6090000 		.4byte	0x9a6
 7190 16e2 00       		.byte	0
 7191 16e3 06       		.uleb128 0x6
 7192 16e4 04       		.byte	0x4
 7193 16e5 C5160000 		.4byte	0x16c5
 7194 16e9 0D       		.uleb128 0xd
 7195 16ea 1C       		.byte	0x1c
 7196 16eb 1C       		.byte	0x1c
 7197 16ec F5       		.byte	0xf5
 7198 16ed 48170000 		.4byte	0x1748
 7199 16f1 0E       		.uleb128 0xe
 7200 16f2 A5180000 		.4byte	.LASF322
 7201 16f6 1C       		.byte	0x1c
 7202 16f7 F7       		.byte	0xf7
 7203 16f8 12090000 		.4byte	0x912
 7204 16fc 00       		.byte	0
 7205 16fd 0E       		.uleb128 0xe
 7206 16fe 95020000 		.4byte	.LASF323
 7207 1702 1C       		.byte	0x1c
 7208 1703 F9       		.byte	0xf9
 7209 1704 12090000 		.4byte	0x912
 7210 1708 04       		.byte	0x4
 7211 1709 0E       		.uleb128 0xe
 7212 170a C1010000 		.4byte	.LASF324
 7213 170e 1C       		.byte	0x1c
 7214 170f FB       		.byte	0xfb
 7215 1710 12090000 		.4byte	0x912
 7216 1714 08       		.byte	0x8
ARM GAS  /tmp/ccDE0Mq0.s 			page 128


 7217 1715 0E       		.uleb128 0xe
 7218 1716 00180000 		.4byte	.LASF325
 7219 171a 1C       		.byte	0x1c
 7220 171b FD       		.byte	0xfd
 7221 171c 12090000 		.4byte	0x912
 7222 1720 0C       		.byte	0xc
 7223 1721 12       		.uleb128 0x12
 7224 1722 6F647200 		.ascii	"odr\000"
 7225 1726 1C       		.byte	0x1c
 7226 1727 FF       		.byte	0xff
 7227 1728 12090000 		.4byte	0x912
 7228 172c 10       		.byte	0x10
 7229 172d 19       		.uleb128 0x19
 7230 172e 13160000 		.4byte	.LASF326
 7231 1732 1C       		.byte	0x1c
 7232 1733 0101     		.2byte	0x101
 7233 1735 12090000 		.4byte	0x912
 7234 1739 14       		.byte	0x14
 7235 173a 19       		.uleb128 0x19
 7236 173b 0E160000 		.4byte	.LASF327
 7237 173f 1C       		.byte	0x1c
 7238 1740 0301     		.2byte	0x103
 7239 1742 12090000 		.4byte	0x912
 7240 1746 18       		.byte	0x18
 7241 1747 00       		.byte	0
 7242 1748 08       		.uleb128 0x8
 7243 1749 F2130000 		.4byte	.LASF328
 7244 174d 1C       		.byte	0x1c
 7245 174e 0401     		.2byte	0x104
 7246 1750 E9160000 		.4byte	0x16e9
 7247 1754 1C       		.uleb128 0x1c
 7248 1755 FC       		.byte	0xfc
 7249 1756 1C       		.byte	0x1c
 7250 1757 0D01     		.2byte	0x10d
 7251 1759 D3170000 		.4byte	0x17d3
 7252 175d 19       		.uleb128 0x19
 7253 175e DB0C0000 		.4byte	.LASF329
 7254 1762 1C       		.byte	0x1c
 7255 1763 1001     		.2byte	0x110
 7256 1765 48170000 		.4byte	0x1748
 7257 1769 00       		.byte	0
 7258 176a 19       		.uleb128 0x19
 7259 176b 74020000 		.4byte	.LASF330
 7260 176f 1C       		.byte	0x1c
 7261 1770 1401     		.2byte	0x114
 7262 1772 48170000 		.4byte	0x1748
 7263 1776 1C       		.byte	0x1c
 7264 1777 19       		.uleb128 0x19
 7265 1778 67010000 		.4byte	.LASF331
 7266 177c 1C       		.byte	0x1c
 7267 177d 1801     		.2byte	0x118
 7268 177f 48170000 		.4byte	0x1748
 7269 1783 38       		.byte	0x38
 7270 1784 19       		.uleb128 0x19
 7271 1785 FA090000 		.4byte	.LASF332
 7272 1789 1C       		.byte	0x1c
 7273 178a 1C01     		.2byte	0x11c
ARM GAS  /tmp/ccDE0Mq0.s 			page 129


 7274 178c 48170000 		.4byte	0x1748
 7275 1790 54       		.byte	0x54
 7276 1791 19       		.uleb128 0x19
 7277 1792 4B130000 		.4byte	.LASF333
 7278 1796 1C       		.byte	0x1c
 7279 1797 2001     		.2byte	0x120
 7280 1799 48170000 		.4byte	0x1748
 7281 179d 70       		.byte	0x70
 7282 179e 19       		.uleb128 0x19
 7283 179f 591B0000 		.4byte	.LASF334
 7284 17a3 1C       		.byte	0x1c
 7285 17a4 2401     		.2byte	0x124
 7286 17a6 48170000 		.4byte	0x1748
 7287 17aa 8C       		.byte	0x8c
 7288 17ab 19       		.uleb128 0x19
 7289 17ac 51080000 		.4byte	.LASF335
 7290 17b0 1C       		.byte	0x1c
 7291 17b1 2801     		.2byte	0x128
 7292 17b3 48170000 		.4byte	0x1748
 7293 17b7 A8       		.byte	0xa8
 7294 17b8 19       		.uleb128 0x19
 7295 17b9 CD110000 		.4byte	.LASF336
 7296 17bd 1C       		.byte	0x1c
 7297 17be 2C01     		.2byte	0x12c
 7298 17c0 48170000 		.4byte	0x1748
 7299 17c4 C4       		.byte	0xc4
 7300 17c5 19       		.uleb128 0x19
 7301 17c6 D5190000 		.4byte	.LASF337
 7302 17ca 1C       		.byte	0x1c
 7303 17cb 3001     		.2byte	0x130
 7304 17cd 48170000 		.4byte	0x1748
 7305 17d1 E0       		.byte	0xe0
 7306 17d2 00       		.byte	0
 7307 17d3 08       		.uleb128 0x8
 7308 17d4 CB070000 		.4byte	.LASF338
 7309 17d8 1C       		.byte	0x1c
 7310 17d9 3A01     		.2byte	0x13a
 7311 17db 54170000 		.4byte	0x1754
 7312 17df 10       		.uleb128 0x10
 7313 17e0 D3170000 		.4byte	0x17d3
 7314 17e4 20       		.uleb128 0x20
 7315 17e5 AE160000 		.4byte	.LASF339
 7316 17e9 1C       		.byte	0x1c
 7317 17ea 1E02     		.2byte	0x21e
 7318 17ec DF170000 		.4byte	0x17df
 7319 17f0 24       		.uleb128 0x24
 7320 17f1 01       		.byte	0x1
 7321 17f2 63000000 		.4byte	0x63
 7322 17f6 1D       		.byte	0x1d
 7323 17f7 3F       		.byte	0x3f
 7324 17f8 0F180000 		.4byte	0x180f
 7325 17fc 25       		.uleb128 0x25
 7326 17fd 1E070000 		.4byte	.LASF340
 7327 1801 00       		.byte	0
 7328 1802 25       		.uleb128 0x25
 7329 1803 601B0000 		.4byte	.LASF341
 7330 1807 01       		.byte	0x1
ARM GAS  /tmp/ccDE0Mq0.s 			page 130


 7331 1808 25       		.uleb128 0x25
 7332 1809 AA010000 		.4byte	.LASF342
 7333 180d 02       		.byte	0x2
 7334 180e 00       		.byte	0
 7335 180f 03       		.uleb128 0x3
 7336 1810 52140000 		.4byte	.LASF343
 7337 1814 1D       		.byte	0x1d
 7338 1815 43       		.byte	0x43
 7339 1816 F0170000 		.4byte	0x17f0
 7340 181a 03       		.uleb128 0x3
 7341 181b 54060000 		.4byte	.LASF344
 7342 181f 1D       		.byte	0x1d
 7343 1820 48       		.byte	0x48
 7344 1821 25180000 		.4byte	0x1825
 7345 1825 11       		.uleb128 0x11
 7346 1826 54060000 		.4byte	.LASF344
 7347 182a 08       		.byte	0x8
 7348 182b 1E       		.byte	0x1e
 7349 182c 73       		.byte	0x73
 7350 182d 4A180000 		.4byte	0x184a
 7351 1831 0E       		.uleb128 0xe
 7352 1832 7E100000 		.4byte	.LASF345
 7353 1836 1E       		.byte	0x1e
 7354 1837 77       		.byte	0x77
 7355 1838 0F180000 		.4byte	0x180f
 7356 183c 00       		.byte	0
 7357 183d 0E       		.uleb128 0xe
 7358 183e DE140000 		.4byte	.LASF346
 7359 1842 1E       		.byte	0x1e
 7360 1843 7B       		.byte	0x7b
 7361 1844 DC180000 		.4byte	0x18dc
 7362 1848 04       		.byte	0x4
 7363 1849 00       		.byte	0
 7364 184a 03       		.uleb128 0x3
 7365 184b 071A0000 		.4byte	.LASF347
 7366 184f 1E       		.byte	0x1e
 7367 1850 49       		.byte	0x49
 7368 1851 12090000 		.4byte	0x912
 7369 1855 03       		.uleb128 0x3
 7370 1856 17150000 		.4byte	.LASF348
 7371 185a 1E       		.byte	0x1e
 7372 185b 51       		.byte	0x51
 7373 185c 60180000 		.4byte	0x1860
 7374 1860 06       		.uleb128 0x6
 7375 1861 04       		.byte	0x4
 7376 1862 66180000 		.4byte	0x1866
 7377 1866 1F       		.uleb128 0x1f
 7378 1867 76180000 		.4byte	0x1876
 7379 186b 17       		.uleb128 0x17
 7380 186c 76180000 		.4byte	0x1876
 7381 1870 17       		.uleb128 0x17
 7382 1871 4A180000 		.4byte	0x184a
 7383 1875 00       		.byte	0
 7384 1876 06       		.uleb128 0x6
 7385 1877 04       		.byte	0x4
 7386 1878 1A180000 		.4byte	0x181a
 7387 187c 0D       		.uleb128 0xd
ARM GAS  /tmp/ccDE0Mq0.s 			page 131


 7388 187d 08       		.byte	0x8
 7389 187e 1E       		.byte	0x1e
 7390 187f 56       		.byte	0x56
 7391 1880 9C180000 		.4byte	0x189c
 7392 1884 0E       		.uleb128 0xe
 7393 1885 3F060000 		.4byte	.LASF349
 7394 1889 1E       		.byte	0x1e
 7395 188a 5A       		.byte	0x5a
 7396 188b 12090000 		.4byte	0x912
 7397 188f 00       		.byte	0
 7398 1890 12       		.uleb128 0x12
 7399 1891 636200   		.ascii	"cb\000"
 7400 1894 1E       		.byte	0x1e
 7401 1895 61       		.byte	0x61
 7402 1896 55180000 		.4byte	0x1855
 7403 189a 04       		.byte	0x4
 7404 189b 00       		.byte	0
 7405 189c 03       		.uleb128 0x3
 7406 189d 770A0000 		.4byte	.LASF350
 7407 18a1 1E       		.byte	0x1e
 7408 18a2 62       		.byte	0x62
 7409 18a3 7C180000 		.4byte	0x187c
 7410 18a7 0D       		.uleb128 0xd
 7411 18a8 B8       		.byte	0xb8
 7412 18a9 1E       		.byte	0x1e
 7413 18aa 68       		.byte	0x68
 7414 18ab BC180000 		.4byte	0x18bc
 7415 18af 0E       		.uleb128 0xe
 7416 18b0 13180000 		.4byte	.LASF351
 7417 18b4 1E       		.byte	0x1e
 7418 18b5 6C       		.byte	0x6c
 7419 18b6 BC180000 		.4byte	0x18bc
 7420 18ba 00       		.byte	0
 7421 18bb 00       		.byte	0
 7422 18bc 0B       		.uleb128 0xb
 7423 18bd 9C180000 		.4byte	0x189c
 7424 18c1 CC180000 		.4byte	0x18cc
 7425 18c5 0C       		.uleb128 0xc
 7426 18c6 20010000 		.4byte	0x120
 7427 18ca 16       		.byte	0x16
 7428 18cb 00       		.byte	0
 7429 18cc 03       		.uleb128 0x3
 7430 18cd F4150000 		.4byte	.LASF352
 7431 18d1 1E       		.byte	0x1e
 7432 18d2 6E       		.byte	0x6e
 7433 18d3 A7180000 		.4byte	0x18a7
 7434 18d7 10       		.uleb128 0x10
 7435 18d8 CC180000 		.4byte	0x18cc
 7436 18dc 06       		.uleb128 0x6
 7437 18dd 04       		.byte	0x4
 7438 18de D7180000 		.4byte	0x18d7
 7439 18e2 22       		.uleb128 0x22
 7440 18e3 7A040000 		.4byte	.LASF353
 7441 18e7 1E       		.byte	0x1e
 7442 18e8 88       		.byte	0x88
 7443 18e9 1A180000 		.4byte	0x181a
 7444 18ed 24       		.uleb128 0x24
ARM GAS  /tmp/ccDE0Mq0.s 			page 132


 7445 18ee 01       		.byte	0x1
 7446 18ef 63000000 		.4byte	0x63
 7447 18f3 1F       		.byte	0x1f
 7448 18f4 31       		.byte	0x31
 7449 18f5 18190000 		.4byte	0x1918
 7450 18f9 25       		.uleb128 0x25
 7451 18fa F8100000 		.4byte	.LASF354
 7452 18fe 00       		.byte	0
 7453 18ff 25       		.uleb128 0x25
 7454 1900 B10F0000 		.4byte	.LASF355
 7455 1904 01       		.byte	0x1
 7456 1905 25       		.uleb128 0x25
 7457 1906 D2120000 		.4byte	.LASF356
 7458 190a 02       		.byte	0x2
 7459 190b 25       		.uleb128 0x25
 7460 190c AD050000 		.4byte	.LASF357
 7461 1910 03       		.byte	0x3
 7462 1911 25       		.uleb128 0x25
 7463 1912 91030000 		.4byte	.LASF358
 7464 1916 04       		.byte	0x4
 7465 1917 00       		.byte	0
 7466 1918 03       		.uleb128 0x3
 7467 1919 810E0000 		.4byte	.LASF359
 7468 191d 1F       		.byte	0x1f
 7469 191e 37       		.byte	0x37
 7470 191f ED180000 		.4byte	0x18ed
 7471 1923 03       		.uleb128 0x3
 7472 1924 B0110000 		.4byte	.LASF360
 7473 1928 1F       		.byte	0x1f
 7474 1929 3C       		.byte	0x3c
 7475 192a 2E190000 		.4byte	0x192e
 7476 192e 1B       		.uleb128 0x1b
 7477 192f B0110000 		.4byte	.LASF360
 7478 1933 10       		.byte	0x10
 7479 1934 20       		.byte	0x20
 7480 1935 F901     		.2byte	0x1f9
 7481 1937 70190000 		.4byte	0x1970
 7482 193b 19       		.uleb128 0x19
 7483 193c 7E100000 		.4byte	.LASF345
 7484 1940 20       		.byte	0x20
 7485 1941 FD01     		.2byte	0x1fd
 7486 1943 18190000 		.4byte	0x1918
 7487 1947 00       		.byte	0
 7488 1948 19       		.uleb128 0x19
 7489 1949 DE140000 		.4byte	.LASF346
 7490 194d 20       		.byte	0x20
 7491 194e 0102     		.2byte	0x201
 7492 1950 051B0000 		.4byte	0x1b05
 7493 1954 04       		.byte	0x4
 7494 1955 19       		.uleb128 0x19
 7495 1956 1B090000 		.4byte	.LASF361
 7496 195a 20       		.byte	0x20
 7497 195b 0902     		.2byte	0x209
 7498 195d 12090000 		.4byte	0x912
 7499 1961 08       		.byte	0x8
 7500 1962 21       		.uleb128 0x21
 7501 1963 74696D00 		.ascii	"tim\000"
ARM GAS  /tmp/ccDE0Mq0.s 			page 133


 7502 1967 20       		.byte	0x20
 7503 1968 0D02     		.2byte	0x20d
 7504 196a 0B1B0000 		.4byte	0x1b0b
 7505 196e 0C       		.byte	0xc
 7506 196f 00       		.byte	0
 7507 1970 03       		.uleb128 0x3
 7508 1971 3C0D0000 		.4byte	.LASF362
 7509 1975 1F       		.byte	0x1f
 7510 1976 43       		.byte	0x43
 7511 1977 7B190000 		.4byte	0x197b
 7512 197b 06       		.uleb128 0x6
 7513 197c 04       		.byte	0x4
 7514 197d 81190000 		.4byte	0x1981
 7515 1981 1F       		.uleb128 0x1f
 7516 1982 8C190000 		.4byte	0x198c
 7517 1986 17       		.uleb128 0x17
 7518 1987 8C190000 		.4byte	0x198c
 7519 198b 00       		.byte	0
 7520 198c 06       		.uleb128 0x6
 7521 198d 04       		.byte	0x4
 7522 198e 23190000 		.4byte	0x1923
 7523 1992 1C       		.uleb128 0x1c
 7524 1993 60       		.byte	0x60
 7525 1994 21       		.byte	0x21
 7526 1995 A101     		.2byte	0x1a1
 7527 1997 9E1A0000 		.4byte	0x1a9e
 7528 199b 21       		.uleb128 0x21
 7529 199c 43523100 		.ascii	"CR1\000"
 7530 19a0 21       		.byte	0x21
 7531 19a1 A201     		.2byte	0x1a2
 7532 19a3 1D090000 		.4byte	0x91d
 7533 19a7 00       		.byte	0
 7534 19a8 21       		.uleb128 0x21
 7535 19a9 43523200 		.ascii	"CR2\000"
 7536 19ad 21       		.byte	0x21
 7537 19ae A301     		.2byte	0x1a3
 7538 19b0 1D090000 		.4byte	0x91d
 7539 19b4 04       		.byte	0x4
 7540 19b5 19       		.uleb128 0x19
 7541 19b6 6A170000 		.4byte	.LASF363
 7542 19ba 21       		.byte	0x21
 7543 19bb A401     		.2byte	0x1a4
 7544 19bd 1D090000 		.4byte	0x91d
 7545 19c1 08       		.byte	0x8
 7546 19c2 19       		.uleb128 0x19
 7547 19c3 3E070000 		.4byte	.LASF364
 7548 19c7 21       		.byte	0x21
 7549 19c8 A501     		.2byte	0x1a5
 7550 19ca 1D090000 		.4byte	0x91d
 7551 19ce 0C       		.byte	0xc
 7552 19cf 21       		.uleb128 0x21
 7553 19d0 535200   		.ascii	"SR\000"
 7554 19d3 21       		.byte	0x21
 7555 19d4 A601     		.2byte	0x1a6
 7556 19d6 1D090000 		.4byte	0x91d
 7557 19da 10       		.byte	0x10
 7558 19db 21       		.uleb128 0x21
ARM GAS  /tmp/ccDE0Mq0.s 			page 134


 7559 19dc 45475200 		.ascii	"EGR\000"
 7560 19e0 21       		.byte	0x21
 7561 19e1 A701     		.2byte	0x1a7
 7562 19e3 1D090000 		.4byte	0x91d
 7563 19e7 14       		.byte	0x14
 7564 19e8 19       		.uleb128 0x19
 7565 19e9 791A0000 		.4byte	.LASF365
 7566 19ed 21       		.byte	0x21
 7567 19ee A801     		.2byte	0x1a8
 7568 19f0 1D090000 		.4byte	0x91d
 7569 19f4 18       		.byte	0x18
 7570 19f5 19       		.uleb128 0x19
 7571 19f6 7F1A0000 		.4byte	.LASF366
 7572 19fa 21       		.byte	0x21
 7573 19fb A901     		.2byte	0x1a9
 7574 19fd 1D090000 		.4byte	0x91d
 7575 1a01 1C       		.byte	0x1c
 7576 1a02 19       		.uleb128 0x19
 7577 1a03 52050000 		.4byte	.LASF367
 7578 1a07 21       		.byte	0x21
 7579 1a08 AA01     		.2byte	0x1aa
 7580 1a0a 1D090000 		.4byte	0x91d
 7581 1a0e 20       		.byte	0x20
 7582 1a0f 21       		.uleb128 0x21
 7583 1a10 434E5400 		.ascii	"CNT\000"
 7584 1a14 21       		.byte	0x21
 7585 1a15 AB01     		.2byte	0x1ab
 7586 1a17 1D090000 		.4byte	0x91d
 7587 1a1b 24       		.byte	0x24
 7588 1a1c 21       		.uleb128 0x21
 7589 1a1d 50534300 		.ascii	"PSC\000"
 7590 1a21 21       		.byte	0x21
 7591 1a22 AC01     		.2byte	0x1ac
 7592 1a24 1D090000 		.4byte	0x91d
 7593 1a28 28       		.byte	0x28
 7594 1a29 21       		.uleb128 0x21
 7595 1a2a 41525200 		.ascii	"ARR\000"
 7596 1a2e 21       		.byte	0x21
 7597 1a2f AD01     		.2byte	0x1ad
 7598 1a31 1D090000 		.4byte	0x91d
 7599 1a35 2C       		.byte	0x2c
 7600 1a36 21       		.uleb128 0x21
 7601 1a37 52435200 		.ascii	"RCR\000"
 7602 1a3b 21       		.byte	0x21
 7603 1a3c AE01     		.2byte	0x1ae
 7604 1a3e 1D090000 		.4byte	0x91d
 7605 1a42 30       		.byte	0x30
 7606 1a43 21       		.uleb128 0x21
 7607 1a44 43435200 		.ascii	"CCR\000"
 7608 1a48 21       		.byte	0x21
 7609 1a49 AF01     		.2byte	0x1af
 7610 1a4b B90D0000 		.4byte	0xdb9
 7611 1a4f 34       		.byte	0x34
 7612 1a50 19       		.uleb128 0x19
 7613 1a51 83010000 		.4byte	.LASF368
 7614 1a55 21       		.byte	0x21
 7615 1a56 B001     		.2byte	0x1b0
ARM GAS  /tmp/ccDE0Mq0.s 			page 135


 7616 1a58 1D090000 		.4byte	0x91d
 7617 1a5c 44       		.byte	0x44
 7618 1a5d 21       		.uleb128 0x21
 7619 1a5e 44435200 		.ascii	"DCR\000"
 7620 1a62 21       		.byte	0x21
 7621 1a63 B101     		.2byte	0x1b1
 7622 1a65 1D090000 		.4byte	0x91d
 7623 1a69 48       		.byte	0x48
 7624 1a6a 19       		.uleb128 0x19
 7625 1a6b C8100000 		.4byte	.LASF369
 7626 1a6f 21       		.byte	0x21
 7627 1a70 B201     		.2byte	0x1b2
 7628 1a72 1D090000 		.4byte	0x91d
 7629 1a76 4C       		.byte	0x4c
 7630 1a77 21       		.uleb128 0x21
 7631 1a78 4F5200   		.ascii	"OR\000"
 7632 1a7b 21       		.byte	0x21
 7633 1a7c B301     		.2byte	0x1b3
 7634 1a7e 1D090000 		.4byte	0x91d
 7635 1a82 50       		.byte	0x50
 7636 1a83 19       		.uleb128 0x19
 7637 1a84 851A0000 		.4byte	.LASF370
 7638 1a88 21       		.byte	0x21
 7639 1a89 B401     		.2byte	0x1b4
 7640 1a8b 1D090000 		.4byte	0x91d
 7641 1a8f 54       		.byte	0x54
 7642 1a90 19       		.uleb128 0x19
 7643 1a91 21090000 		.4byte	.LASF371
 7644 1a95 21       		.byte	0x21
 7645 1a96 B501     		.2byte	0x1b5
 7646 1a98 A40D0000 		.4byte	0xda4
 7647 1a9c 58       		.byte	0x58
 7648 1a9d 00       		.byte	0
 7649 1a9e 08       		.uleb128 0x8
 7650 1a9f CD160000 		.4byte	.LASF372
 7651 1aa3 21       		.byte	0x21
 7652 1aa4 B601     		.2byte	0x1b6
 7653 1aa6 92190000 		.4byte	0x1992
 7654 1aaa 08       		.uleb128 0x8
 7655 1aab 6A060000 		.4byte	.LASF373
 7656 1aaf 20       		.byte	0x20
 7657 1ab0 CF01     		.2byte	0x1cf
 7658 1ab2 12090000 		.4byte	0x912
 7659 1ab6 1C       		.uleb128 0x1c
 7660 1ab7 10       		.byte	0x10
 7661 1ab8 20       		.byte	0x20
 7662 1ab9 DA01     		.2byte	0x1da
 7663 1abb F41A0000 		.4byte	0x1af4
 7664 1abf 19       		.uleb128 0x19
 7665 1ac0 2D1A0000 		.4byte	.LASF374
 7666 1ac4 20       		.byte	0x20
 7667 1ac5 E001     		.2byte	0x1e0
 7668 1ac7 AA1A0000 		.4byte	0x1aaa
 7669 1acb 00       		.byte	0
 7670 1acc 19       		.uleb128 0x19
 7671 1acd CD100000 		.4byte	.LASF375
 7672 1ad1 20       		.byte	0x20
ARM GAS  /tmp/ccDE0Mq0.s 			page 136


 7673 1ad2 E701     		.2byte	0x1e7
 7674 1ad4 70190000 		.4byte	0x1970
 7675 1ad8 04       		.byte	0x4
 7676 1ad9 21       		.uleb128 0x21
 7677 1ada 63723200 		.ascii	"cr2\000"
 7678 1ade 20       		.byte	0x20
 7679 1adf ED01     		.2byte	0x1ed
 7680 1ae1 12090000 		.4byte	0x912
 7681 1ae5 08       		.byte	0x8
 7682 1ae6 19       		.uleb128 0x19
 7683 1ae7 CF080000 		.4byte	.LASF376
 7684 1aeb 20       		.byte	0x20
 7685 1aec F301     		.2byte	0x1f3
 7686 1aee 12090000 		.4byte	0x912
 7687 1af2 0C       		.byte	0xc
 7688 1af3 00       		.byte	0
 7689 1af4 08       		.uleb128 0x8
 7690 1af5 D2040000 		.4byte	.LASF377
 7691 1af9 20       		.byte	0x20
 7692 1afa F401     		.2byte	0x1f4
 7693 1afc B61A0000 		.4byte	0x1ab6
 7694 1b00 10       		.uleb128 0x10
 7695 1b01 F41A0000 		.4byte	0x1af4
 7696 1b05 06       		.uleb128 0x6
 7697 1b06 04       		.byte	0x4
 7698 1b07 001B0000 		.4byte	0x1b00
 7699 1b0b 06       		.uleb128 0x6
 7700 1b0c 04       		.byte	0x4
 7701 1b0d 9E1A0000 		.4byte	0x1a9e
 7702 1b11 20       		.uleb128 0x20
 7703 1b12 EE190000 		.4byte	.LASF378
 7704 1b16 20       		.byte	0x20
 7705 1b17 5002     		.2byte	0x250
 7706 1b19 23190000 		.4byte	0x1923
 7707 1b1d 24       		.uleb128 0x24
 7708 1b1e 01       		.byte	0x1
 7709 1b1f 63000000 		.4byte	0x63
 7710 1b23 22       		.byte	0x22
 7711 1b24 4A       		.byte	0x4a
 7712 1b25 3C1B0000 		.4byte	0x1b3c
 7713 1b29 25       		.uleb128 0x25
 7714 1b2a 57050000 		.4byte	.LASF379
 7715 1b2e 00       		.byte	0
 7716 1b2f 25       		.uleb128 0x25
 7717 1b30 FB080000 		.4byte	.LASF380
 7718 1b34 01       		.byte	0x1
 7719 1b35 25       		.uleb128 0x25
 7720 1b36 8D0B0000 		.4byte	.LASF381
 7721 1b3a 02       		.byte	0x2
 7722 1b3b 00       		.byte	0
 7723 1b3c 03       		.uleb128 0x3
 7724 1b3d D8020000 		.4byte	.LASF382
 7725 1b41 22       		.byte	0x22
 7726 1b42 4E       		.byte	0x4e
 7727 1b43 1D1B0000 		.4byte	0x1b1d
 7728 1b47 03       		.uleb128 0x3
 7729 1b48 47080000 		.4byte	.LASF383
ARM GAS  /tmp/ccDE0Mq0.s 			page 137


 7730 1b4c 22       		.byte	0x22
 7731 1b4d 53       		.byte	0x53
 7732 1b4e 521B0000 		.4byte	0x1b52
 7733 1b52 1B       		.uleb128 0x1b
 7734 1b53 47080000 		.4byte	.LASF383
 7735 1b57 1C       		.byte	0x1c
 7736 1b58 23       		.byte	0x23
 7737 1b59 B301     		.2byte	0x1b3
 7738 1b5b BB1B0000 		.4byte	0x1bbb
 7739 1b5f 19       		.uleb128 0x19
 7740 1b60 7E100000 		.4byte	.LASF345
 7741 1b64 23       		.byte	0x23
 7742 1b65 B701     		.2byte	0x1b7
 7743 1b67 3C1B0000 		.4byte	0x1b3c
 7744 1b6b 00       		.byte	0
 7745 1b6c 19       		.uleb128 0x19
 7746 1b6d DE140000 		.4byte	.LASF346
 7747 1b71 23       		.byte	0x23
 7748 1b72 BB01     		.2byte	0x1bb
 7749 1b74 B61C0000 		.4byte	0x1cb6
 7750 1b78 04       		.byte	0x4
 7751 1b79 19       		.uleb128 0x19
 7752 1b7a 520E0000 		.4byte	.LASF384
 7753 1b7e 23       		.byte	0x23
 7754 1b7f BF01     		.2byte	0x1bf
 7755 1b81 011C0000 		.4byte	0x1c01
 7756 1b85 08       		.byte	0x8
 7757 1b86 19       		.uleb128 0x19
 7758 1b87 73130000 		.4byte	.LASF385
 7759 1b8b 23       		.byte	0x23
 7760 1b8c C301     		.2byte	0x1c3
 7761 1b8e F51B0000 		.4byte	0x1bf5
 7762 1b92 0C       		.byte	0xc
 7763 1b93 19       		.uleb128 0x19
 7764 1b94 13180000 		.4byte	.LASF351
 7765 1b98 23       		.byte	0x23
 7766 1b99 C701     		.2byte	0x1c7
 7767 1b9b E91B0000 		.4byte	0x1be9
 7768 1b9f 10       		.byte	0x10
 7769 1ba0 19       		.uleb128 0x19
 7770 1ba1 1B090000 		.4byte	.LASF361
 7771 1ba5 23       		.byte	0x23
 7772 1ba6 CF01     		.2byte	0x1cf
 7773 1ba8 12090000 		.4byte	0x912
 7774 1bac 14       		.byte	0x14
 7775 1bad 21       		.uleb128 0x21
 7776 1bae 74696D00 		.ascii	"tim\000"
 7777 1bb2 23       		.byte	0x23
 7778 1bb3 D301     		.2byte	0x1d3
 7779 1bb5 0B1B0000 		.4byte	0x1b0b
 7780 1bb9 18       		.byte	0x18
 7781 1bba 00       		.byte	0
 7782 1bbb 03       		.uleb128 0x3
 7783 1bbc 040D0000 		.4byte	.LASF386
 7784 1bc0 22       		.byte	0x22
 7785 1bc1 5A       		.byte	0x5a
 7786 1bc2 C61B0000 		.4byte	0x1bc6
ARM GAS  /tmp/ccDE0Mq0.s 			page 138


 7787 1bc6 06       		.uleb128 0x6
 7788 1bc7 04       		.byte	0x4
 7789 1bc8 CC1B0000 		.4byte	0x1bcc
 7790 1bcc 1F       		.uleb128 0x1f
 7791 1bcd D71B0000 		.4byte	0x1bd7
 7792 1bd1 17       		.uleb128 0x17
 7793 1bd2 D71B0000 		.4byte	0x1bd7
 7794 1bd6 00       		.byte	0
 7795 1bd7 06       		.uleb128 0x6
 7796 1bd8 04       		.byte	0x4
 7797 1bd9 471B0000 		.4byte	0x1b47
 7798 1bdd 08       		.uleb128 0x8
 7799 1bde FA0F0000 		.4byte	.LASF387
 7800 1be2 23       		.byte	0x23
 7801 1be3 5F01     		.2byte	0x15f
 7802 1be5 12090000 		.4byte	0x912
 7803 1be9 08       		.uleb128 0x8
 7804 1bea 7C110000 		.4byte	.LASF388
 7805 1bee 23       		.byte	0x23
 7806 1bef 6401     		.2byte	0x164
 7807 1bf1 E7080000 		.4byte	0x8e7
 7808 1bf5 08       		.uleb128 0x8
 7809 1bf6 E10F0000 		.4byte	.LASF389
 7810 1bfa 23       		.byte	0x23
 7811 1bfb 6901     		.2byte	0x169
 7812 1bfd 12090000 		.4byte	0x912
 7813 1c01 08       		.uleb128 0x8
 7814 1c02 64110000 		.4byte	.LASF390
 7815 1c06 23       		.byte	0x23
 7816 1c07 6E01     		.2byte	0x16e
 7817 1c09 12090000 		.4byte	0x912
 7818 1c0d 1C       		.uleb128 0x1c
 7819 1c0e 08       		.byte	0x8
 7820 1c0f 23       		.byte	0x23
 7821 1c10 7301     		.2byte	0x173
 7822 1c12 311C0000 		.4byte	0x1c31
 7823 1c16 19       		.uleb128 0x19
 7824 1c17 3F060000 		.4byte	.LASF349
 7825 1c1b 23       		.byte	0x23
 7826 1c1c 7701     		.2byte	0x177
 7827 1c1e DD1B0000 		.4byte	0x1bdd
 7828 1c22 00       		.byte	0
 7829 1c23 19       		.uleb128 0x19
 7830 1c24 CD100000 		.4byte	.LASF375
 7831 1c28 23       		.byte	0x23
 7832 1c29 7D01     		.2byte	0x17d
 7833 1c2b BB1B0000 		.4byte	0x1bbb
 7834 1c2f 04       		.byte	0x4
 7835 1c30 00       		.byte	0
 7836 1c31 08       		.uleb128 0x8
 7837 1c32 A7090000 		.4byte	.LASF391
 7838 1c36 23       		.byte	0x23
 7839 1c37 7F01     		.2byte	0x17f
 7840 1c39 0D1C0000 		.4byte	0x1c0d
 7841 1c3d 1C       		.uleb128 0x1c
 7842 1c3e 34       		.byte	0x34
 7843 1c3f 23       		.byte	0x23
ARM GAS  /tmp/ccDE0Mq0.s 			page 139


 7844 1c40 8401     		.2byte	0x184
 7845 1c42 951C0000 		.4byte	0x1c95
 7846 1c46 19       		.uleb128 0x19
 7847 1c47 2D1A0000 		.4byte	.LASF374
 7848 1c4b 23       		.byte	0x23
 7849 1c4c 8A01     		.2byte	0x18a
 7850 1c4e 12090000 		.4byte	0x912
 7851 1c52 00       		.byte	0
 7852 1c53 19       		.uleb128 0x19
 7853 1c54 520E0000 		.4byte	.LASF384
 7854 1c58 23       		.byte	0x23
 7855 1c59 9001     		.2byte	0x190
 7856 1c5b 011C0000 		.4byte	0x1c01
 7857 1c5f 04       		.byte	0x4
 7858 1c60 19       		.uleb128 0x19
 7859 1c61 CD100000 		.4byte	.LASF375
 7860 1c65 23       		.byte	0x23
 7861 1c66 9601     		.2byte	0x196
 7862 1c68 BB1B0000 		.4byte	0x1bbb
 7863 1c6c 08       		.byte	0x8
 7864 1c6d 19       		.uleb128 0x19
 7865 1c6e 13180000 		.4byte	.LASF351
 7866 1c72 23       		.byte	0x23
 7867 1c73 9A01     		.2byte	0x19a
 7868 1c75 951C0000 		.4byte	0x1c95
 7869 1c79 0C       		.byte	0xc
 7870 1c7a 21       		.uleb128 0x21
 7871 1c7b 63723200 		.ascii	"cr2\000"
 7872 1c7f 23       		.byte	0x23
 7873 1c80 A001     		.2byte	0x1a0
 7874 1c82 12090000 		.4byte	0x912
 7875 1c86 2C       		.byte	0x2c
 7876 1c87 19       		.uleb128 0x19
 7877 1c88 CF080000 		.4byte	.LASF376
 7878 1c8c 23       		.byte	0x23
 7879 1c8d AD01     		.2byte	0x1ad
 7880 1c8f 12090000 		.4byte	0x912
 7881 1c93 30       		.byte	0x30
 7882 1c94 00       		.byte	0
 7883 1c95 0B       		.uleb128 0xb
 7884 1c96 311C0000 		.4byte	0x1c31
 7885 1c9a A51C0000 		.4byte	0x1ca5
 7886 1c9e 0C       		.uleb128 0xc
 7887 1c9f 20010000 		.4byte	0x120
 7888 1ca3 03       		.byte	0x3
 7889 1ca4 00       		.byte	0
 7890 1ca5 08       		.uleb128 0x8
 7891 1ca6 58080000 		.4byte	.LASF392
 7892 1caa 23       		.byte	0x23
 7893 1cab AE01     		.2byte	0x1ae
 7894 1cad 3D1C0000 		.4byte	0x1c3d
 7895 1cb1 10       		.uleb128 0x10
 7896 1cb2 A51C0000 		.4byte	0x1ca5
 7897 1cb6 06       		.uleb128 0x6
 7898 1cb7 04       		.byte	0x4
 7899 1cb8 B11C0000 		.4byte	0x1cb1
 7900 1cbc 20       		.uleb128 0x20
ARM GAS  /tmp/ccDE0Mq0.s 			page 140


 7901 1cbd 8E0D0000 		.4byte	.LASF393
 7902 1cc1 23       		.byte	0x23
 7903 1cc2 F201     		.2byte	0x1f2
 7904 1cc4 471B0000 		.4byte	0x1b47
 7905 1cc8 24       		.uleb128 0x24
 7906 1cc9 01       		.byte	0x1
 7907 1cca 63000000 		.4byte	0x63
 7908 1cce 24       		.byte	0x24
 7909 1ccf 55       		.byte	0x55
 7910 1cd0 E71C0000 		.4byte	0x1ce7
 7911 1cd4 25       		.uleb128 0x25
 7912 1cd5 DC040000 		.4byte	.LASF394
 7913 1cd9 00       		.byte	0
 7914 1cda 25       		.uleb128 0x25
 7915 1cdb 2D090000 		.4byte	.LASF395
 7916 1cdf 01       		.byte	0x1
 7917 1ce0 25       		.uleb128 0x25
 7918 1ce1 2D0B0000 		.4byte	.LASF396
 7919 1ce5 02       		.byte	0x2
 7920 1ce6 00       		.byte	0
 7921 1ce7 03       		.uleb128 0x3
 7922 1ce8 3A120000 		.4byte	.LASF397
 7923 1cec 24       		.byte	0x24
 7924 1ced 59       		.byte	0x59
 7925 1cee C81C0000 		.4byte	0x1cc8
 7926 1cf2 03       		.uleb128 0x3
 7927 1cf3 BF000000 		.4byte	.LASF398
 7928 1cf7 24       		.byte	0x24
 7929 1cf8 5E       		.byte	0x5e
 7930 1cf9 FD1C0000 		.4byte	0x1cfd
 7931 1cfd 13       		.uleb128 0x13
 7932 1cfe BF000000 		.4byte	.LASF398
 7933 1d02 5802     		.2byte	0x258
 7934 1d04 24       		.byte	0x24
 7935 1d05 78       		.byte	0x78
 7936 1d06 6B1D0000 		.4byte	0x1d6b
 7937 1d0a 12       		.uleb128 0x12
 7938 1d0b 766D7400 		.ascii	"vmt\000"
 7939 1d0f 24       		.byte	0x24
 7940 1d10 7A       		.byte	0x7a
 7941 1d11 E91D0000 		.4byte	0x1de9
 7942 1d15 00       		.byte	0
 7943 1d16 0E       		.uleb128 0xe
 7944 1d17 64000000 		.4byte	.LASF399
 7945 1d1b 24       		.byte	0x24
 7946 1d1c 7B       		.byte	0x7b
 7947 1d1d A4140000 		.4byte	0x14a4
 7948 1d21 04       		.byte	0x4
 7949 1d22 0E       		.uleb128 0xe
 7950 1d23 7E100000 		.4byte	.LASF345
 7951 1d27 24       		.byte	0x24
 7952 1d28 7B       		.byte	0x7b
 7953 1d29 E71C0000 		.4byte	0x1ce7
 7954 1d2d 08       		.byte	0x8
 7955 1d2e 0E       		.uleb128 0xe
 7956 1d2f 20120000 		.4byte	.LASF400
 7957 1d33 24       		.byte	0x24
ARM GAS  /tmp/ccDE0Mq0.s 			page 141


 7958 1d34 7B       		.byte	0x7b
 7959 1d35 56150000 		.4byte	0x1556
 7960 1d39 0C       		.byte	0xc
 7961 1d3a 0E       		.uleb128 0xe
 7962 1d3b AE0D0000 		.4byte	.LASF401
 7963 1d3f 24       		.byte	0x24
 7964 1d40 7B       		.byte	0x7b
 7965 1d41 61150000 		.4byte	0x1561
 7966 1d45 30       		.byte	0x30
 7967 1d46 12       		.uleb128 0x12
 7968 1d47 696200   		.ascii	"ib\000"
 7969 1d4a 24       		.byte	0x24
 7970 1d4b 7B       		.byte	0x7b
 7971 1d4c EF1D0000 		.4byte	0x1def
 7972 1d50 54       		.byte	0x54
 7973 1d51 26       		.uleb128 0x26
 7974 1d52 6F6200   		.ascii	"ob\000"
 7975 1d55 24       		.byte	0x24
 7976 1d56 7B       		.byte	0x7b
 7977 1d57 EF1D0000 		.4byte	0x1def
 7978 1d5b 5401     		.2byte	0x154
 7979 1d5d 14       		.uleb128 0x14
 7980 1d5e 83130000 		.4byte	.LASF402
 7981 1d62 24       		.byte	0x24
 7982 1d63 7B       		.byte	0x7b
 7983 1d64 FF1D0000 		.4byte	0x1dff
 7984 1d68 5402     		.2byte	0x254
 7985 1d6a 00       		.byte	0
 7986 1d6b 23       		.uleb128 0x23
 7987 1d6c 53443100 		.ascii	"SD1\000"
 7988 1d70 25       		.byte	0x25
 7989 1d71 4201     		.2byte	0x142
 7990 1d73 F21C0000 		.4byte	0x1cf2
 7991 1d77 11       		.uleb128 0x11
 7992 1d78 BE0A0000 		.4byte	.LASF403
 7993 1d7c 20       		.byte	0x20
 7994 1d7d 24       		.byte	0x24
 7995 1d7e 6D       		.byte	0x6d
 7996 1d7f E41D0000 		.4byte	0x1de4
 7997 1d83 0E       		.uleb128 0xe
 7998 1d84 0F120000 		.4byte	.LASF404
 7999 1d88 24       		.byte	0x24
 8000 1d89 6E       		.byte	0x6e
 8001 1d8a 8B150000 		.4byte	0x158b
 8002 1d8e 00       		.byte	0
 8003 1d8f 0E       		.uleb128 0xe
 8004 1d90 78010000 		.4byte	.LASF405
 8005 1d94 24       		.byte	0x24
 8006 1d95 6E       		.byte	0x6e
 8007 1d96 AA150000 		.4byte	0x15aa
 8008 1d9a 04       		.byte	0x4
 8009 1d9b 12       		.uleb128 0x12
 8010 1d9c 70757400 		.ascii	"put\000"
 8011 1da0 24       		.byte	0x24
 8012 1da1 6E       		.byte	0x6e
 8013 1da2 C4150000 		.4byte	0x15c4
 8014 1da6 08       		.byte	0x8
ARM GAS  /tmp/ccDE0Mq0.s 			page 142


 8015 1da7 12       		.uleb128 0x12
 8016 1da8 67657400 		.ascii	"get\000"
 8017 1dac 24       		.byte	0x24
 8018 1dad 6E       		.byte	0x6e
 8019 1dae D9150000 		.4byte	0x15d9
 8020 1db2 0C       		.byte	0xc
 8021 1db3 0E       		.uleb128 0xe
 8022 1db4 1A0F0000 		.4byte	.LASF406
 8023 1db8 24       		.byte	0x24
 8024 1db9 6E       		.byte	0x6e
 8025 1dba 81160000 		.4byte	0x1681
 8026 1dbe 10       		.byte	0x10
 8027 1dbf 0E       		.uleb128 0xe
 8028 1dc0 F5110000 		.4byte	.LASF407
 8029 1dc4 24       		.byte	0x24
 8030 1dc5 6E       		.byte	0x6e
 8031 1dc6 9B160000 		.4byte	0x169b
 8032 1dca 14       		.byte	0x14
 8033 1dcb 0E       		.uleb128 0xe
 8034 1dcc CC180000 		.4byte	.LASF408
 8035 1dd0 24       		.byte	0x24
 8036 1dd1 6E       		.byte	0x6e
 8037 1dd2 BF160000 		.4byte	0x16bf
 8038 1dd6 18       		.byte	0x18
 8039 1dd7 0E       		.uleb128 0xe
 8040 1dd8 730E0000 		.4byte	.LASF409
 8041 1ddc 24       		.byte	0x24
 8042 1ddd 6E       		.byte	0x6e
 8043 1dde E3160000 		.4byte	0x16e3
 8044 1de2 1C       		.byte	0x1c
 8045 1de3 00       		.byte	0
 8046 1de4 10       		.uleb128 0x10
 8047 1de5 771D0000 		.4byte	0x1d77
 8048 1de9 06       		.uleb128 0x6
 8049 1dea 04       		.byte	0x4
 8050 1deb E41D0000 		.4byte	0x1de4
 8051 1def 0B       		.uleb128 0xb
 8052 1df0 E7080000 		.4byte	0x8e7
 8053 1df4 FF1D0000 		.4byte	0x1dff
 8054 1df8 0C       		.uleb128 0xc
 8055 1df9 20010000 		.4byte	0x120
 8056 1dfd FF       		.byte	0xff
 8057 1dfe 00       		.byte	0
 8058 1dff 06       		.uleb128 0x6
 8059 1e00 04       		.byte	0x4
 8060 1e01 D60F0000 		.4byte	0xfd6
 8061 1e05 08       		.uleb128 0x8
 8062 1e06 6A0D0000 		.4byte	.LASF410
 8063 1e0a 26       		.byte	0x26
 8064 1e0b 0301     		.2byte	0x103
 8065 1e0d 111E0000 		.4byte	0x1e11
 8066 1e11 18       		.uleb128 0x18
 8067 1e12 6A0D0000 		.4byte	.LASF410
 8068 1e16 7802     		.2byte	0x278
 8069 1e18 27       		.byte	0x27
 8070 1e19 9D01     		.2byte	0x19d
 8071 1e1b 4A1F0000 		.4byte	0x1f4a
ARM GAS  /tmp/ccDE0Mq0.s 			page 143


 8072 1e1f 19       		.uleb128 0x19
 8073 1e20 7E100000 		.4byte	.LASF345
 8074 1e24 27       		.byte	0x27
 8075 1e25 A101     		.2byte	0x1a1
 8076 1e27 881F0000 		.4byte	0x1f88
 8077 1e2b 00       		.byte	0
 8078 1e2c 19       		.uleb128 0x19
 8079 1e2d DE140000 		.4byte	.LASF346
 8080 1e31 27       		.byte	0x27
 8081 1e32 A501     		.2byte	0x1a5
 8082 1e34 42280000 		.4byte	0x2842
 8083 1e38 04       		.byte	0x4
 8084 1e39 19       		.uleb128 0x19
 8085 1e3a 06180000 		.4byte	.LASF411
 8086 1e3e 27       		.byte	0x27
 8087 1e3f A901     		.2byte	0x1a9
 8088 1e41 F7080000 		.4byte	0x8f7
 8089 1e45 08       		.byte	0x8
 8090 1e46 19       		.uleb128 0x19
 8091 1e47 141A0000 		.4byte	.LASF412
 8092 1e4b 27       		.byte	0x27
 8093 1e4c AD01     		.2byte	0x1ad
 8094 1e4e F7080000 		.4byte	0x8f7
 8095 1e52 0A       		.byte	0xa
 8096 1e53 21       		.uleb128 0x21
 8097 1e54 65706300 		.ascii	"epc\000"
 8098 1e58 27       		.byte	0x27
 8099 1e59 B101     		.2byte	0x1b1
 8100 1e5b 48280000 		.4byte	0x2848
 8101 1e5f 0C       		.byte	0xc
 8102 1e60 19       		.uleb128 0x19
 8103 1e61 D9010000 		.4byte	.LASF413
 8104 1e65 27       		.byte	0x27
 8105 1e66 B801     		.2byte	0x1b8
 8106 1e68 5E280000 		.4byte	0x285e
 8107 1e6c 24       		.byte	0x24
 8108 1e6d 19       		.uleb128 0x19
 8109 1e6e A3080000 		.4byte	.LASF414
 8110 1e72 27       		.byte	0x27
 8111 1e73 BF01     		.2byte	0x1bf
 8112 1e75 5E280000 		.4byte	0x285e
 8113 1e79 38       		.byte	0x38
 8114 1e7a 19       		.uleb128 0x19
 8115 1e7b 5A0B0000 		.4byte	.LASF415
 8116 1e7f 27       		.byte	0x27
 8117 1e80 C301     		.2byte	0x1c3
 8118 1e82 F81F0000 		.4byte	0x1ff8
 8119 1e86 4C       		.byte	0x4c
 8120 1e87 19       		.uleb128 0x19
 8121 1e88 5D140000 		.4byte	.LASF416
 8122 1e8c 27       		.byte	0x27
 8123 1e8d C701     		.2byte	0x1c7
 8124 1e8f 50150000 		.4byte	0x1550
 8125 1e93 50       		.byte	0x50
 8126 1e94 19       		.uleb128 0x19
 8127 1e95 9D110000 		.4byte	.LASF417
 8128 1e99 27       		.byte	0x27
ARM GAS  /tmp/ccDE0Mq0.s 			page 144


 8129 1e9a CB01     		.2byte	0x1cb
 8130 1e9c 2C000000 		.4byte	0x2c
 8131 1ea0 54       		.byte	0x54
 8132 1ea1 19       		.uleb128 0x19
 8133 1ea2 B6030000 		.4byte	.LASF418
 8134 1ea6 27       		.byte	0x27
 8135 1ea7 CF01     		.2byte	0x1cf
 8136 1ea9 7D200000 		.4byte	0x207d
 8137 1ead 58       		.byte	0x58
 8138 1eae 19       		.uleb128 0x19
 8139 1eaf 3A050000 		.4byte	.LASF419
 8140 1eb3 27       		.byte	0x27
 8141 1eb4 D301     		.2byte	0x1d3
 8142 1eb6 6E280000 		.4byte	0x286e
 8143 1eba 5C       		.byte	0x5c
 8144 1ebb 19       		.uleb128 0x19
 8145 1ebc 04100000 		.4byte	.LASF420
 8146 1ec0 27       		.byte	0x27
 8147 1ec1 D701     		.2byte	0x1d7
 8148 1ec3 F7080000 		.4byte	0x8f7
 8149 1ec7 64       		.byte	0x64
 8150 1ec8 19       		.uleb128 0x19
 8151 1ec9 1E0D0000 		.4byte	.LASF421
 8152 1ecd 27       		.byte	0x27
 8153 1ece DB01     		.2byte	0x1db
 8154 1ed0 E7080000 		.4byte	0x8e7
 8155 1ed4 66       		.byte	0x66
 8156 1ed5 19       		.uleb128 0x19
 8157 1ed6 C3130000 		.4byte	.LASF422
 8158 1eda 27       		.byte	0x27
 8159 1edb DF01     		.2byte	0x1df
 8160 1edd E7080000 		.4byte	0x8e7
 8161 1ee1 67       		.byte	0x67
 8162 1ee2 19       		.uleb128 0x19
 8163 1ee3 F4040000 		.4byte	.LASF423
 8164 1ee7 27       		.byte	0x27
 8165 1ee8 E301     		.2byte	0x1e3
 8166 1eea 881F0000 		.4byte	0x1f88
 8167 1eee 68       		.byte	0x68
 8168 1eef 21       		.uleb128 0x21
 8169 1ef0 6F746700 		.ascii	"otg\000"
 8170 1ef4 27       		.byte	0x27
 8171 1ef5 EB01     		.2byte	0x1eb
 8172 1ef7 7E280000 		.4byte	0x287e
 8173 1efb 6C       		.byte	0x6c
 8174 1efc 19       		.uleb128 0x19
 8175 1efd E7090000 		.4byte	.LASF424
 8176 1f01 27       		.byte	0x27
 8177 1f02 EF01     		.2byte	0x1ef
 8178 1f04 84280000 		.4byte	0x2884
 8179 1f08 70       		.byte	0x70
 8180 1f09 19       		.uleb128 0x19
 8181 1f0a E0160000 		.4byte	.LASF425
 8182 1f0e 27       		.byte	0x27
 8183 1f0f F301     		.2byte	0x1f3
 8184 1f11 12090000 		.4byte	0x912
 8185 1f15 74       		.byte	0x74
ARM GAS  /tmp/ccDE0Mq0.s 			page 145


 8186 1f16 19       		.uleb128 0x19
 8187 1f17 11090000 		.4byte	.LASF426
 8188 1f1b 27       		.byte	0x27
 8189 1f1c F701     		.2byte	0x1f7
 8190 1f1e 12090000 		.4byte	0x912
 8191 1f22 78       		.byte	0x78
 8192 1f23 19       		.uleb128 0x19
 8193 1f24 F7050000 		.4byte	.LASF427
 8194 1f28 27       		.byte	0x27
 8195 1f29 FB01     		.2byte	0x1fb
 8196 1f2b C70A0000 		.4byte	0xac7
 8197 1f2f 7C       		.byte	0x7c
 8198 1f30 21       		.uleb128 0x21
 8199 1f31 747200   		.ascii	"tr\000"
 8200 1f34 27       		.byte	0x27
 8201 1f35 0002     		.2byte	0x200
 8202 1f37 C70A0000 		.4byte	0xac7
 8203 1f3b 80       		.byte	0x80
 8204 1f3c 19       		.uleb128 0x19
 8205 1f3d 4B0F0000 		.4byte	.LASF428
 8206 1f41 27       		.byte	0x27
 8207 1f42 0402     		.2byte	0x204
 8208 1f44 8A280000 		.4byte	0x288a
 8209 1f48 88       		.byte	0x88
 8210 1f49 00       		.byte	0
 8211 1f4a 08       		.uleb128 0x8
 8212 1f4b 251A0000 		.4byte	.LASF429
 8213 1f4f 26       		.byte	0x26
 8214 1f50 0801     		.2byte	0x108
 8215 1f52 E7080000 		.4byte	0x8e7
 8216 1f56 27       		.uleb128 0x27
 8217 1f57 01       		.byte	0x1
 8218 1f58 63000000 		.4byte	0x63
 8219 1f5c 26       		.byte	0x26
 8220 1f5d 0D01     		.2byte	0x10d
 8221 1f5f 881F0000 		.4byte	0x1f88
 8222 1f63 25       		.uleb128 0x25
 8223 1f64 A21A0000 		.4byte	.LASF430
 8224 1f68 00       		.byte	0
 8225 1f69 25       		.uleb128 0x25
 8226 1f6a 00000000 		.4byte	.LASF431
 8227 1f6e 01       		.byte	0x1
 8228 1f6f 25       		.uleb128 0x25
 8229 1f70 690E0000 		.4byte	.LASF432
 8230 1f74 02       		.byte	0x2
 8231 1f75 25       		.uleb128 0x25
 8232 1f76 B3120000 		.4byte	.LASF433
 8233 1f7a 03       		.byte	0x3
 8234 1f7b 25       		.uleb128 0x25
 8235 1f7c 0F060000 		.4byte	.LASF434
 8236 1f80 04       		.byte	0x4
 8237 1f81 25       		.uleb128 0x25
 8238 1f82 97180000 		.4byte	.LASF435
 8239 1f86 05       		.byte	0x5
 8240 1f87 00       		.byte	0
 8241 1f88 08       		.uleb128 0x8
 8242 1f89 4A180000 		.4byte	.LASF436
ARM GAS  /tmp/ccDE0Mq0.s 			page 146


 8243 1f8d 26       		.byte	0x26
 8244 1f8e 1401     		.2byte	0x114
 8245 1f90 561F0000 		.4byte	0x1f56
 8246 1f94 27       		.uleb128 0x27
 8247 1f95 01       		.byte	0x1
 8248 1f96 63000000 		.4byte	0x63
 8249 1f9a 26       		.byte	0x26
 8250 1f9b 1901     		.2byte	0x119
 8251 1f9d B41F0000 		.4byte	0x1fb4
 8252 1fa1 25       		.uleb128 0x25
 8253 1fa2 3A160000 		.4byte	.LASF437
 8254 1fa6 00       		.byte	0
 8255 1fa7 25       		.uleb128 0x25
 8256 1fa8 C3090000 		.4byte	.LASF438
 8257 1fac 01       		.byte	0x1
 8258 1fad 25       		.uleb128 0x25
 8259 1fae 33030000 		.4byte	.LASF439
 8260 1fb2 02       		.byte	0x2
 8261 1fb3 00       		.byte	0
 8262 1fb4 08       		.uleb128 0x8
 8263 1fb5 9C020000 		.4byte	.LASF440
 8264 1fb9 26       		.byte	0x26
 8265 1fba 1D01     		.2byte	0x11d
 8266 1fbc 941F0000 		.4byte	0x1f94
 8267 1fc0 27       		.uleb128 0x27
 8268 1fc1 01       		.byte	0x1
 8269 1fc2 63000000 		.4byte	0x63
 8270 1fc6 26       		.byte	0x26
 8271 1fc7 2201     		.2byte	0x122
 8272 1fc9 F81F0000 		.4byte	0x1ff8
 8273 1fcd 25       		.uleb128 0x25
 8274 1fce 8B140000 		.4byte	.LASF441
 8275 1fd2 00       		.byte	0
 8276 1fd3 25       		.uleb128 0x25
 8277 1fd4 72190000 		.4byte	.LASF442
 8278 1fd8 09       		.byte	0x9
 8279 1fd9 25       		.uleb128 0x25
 8280 1fda E3010000 		.4byte	.LASF443
 8281 1fde 0A       		.byte	0xa
 8282 1fdf 25       		.uleb128 0x25
 8283 1fe0 9C150000 		.4byte	.LASF444
 8284 1fe4 0B       		.byte	0xb
 8285 1fe5 25       		.uleb128 0x25
 8286 1fe6 D1130000 		.4byte	.LASF445
 8287 1fea 14       		.byte	0x14
 8288 1feb 25       		.uleb128 0x25
 8289 1fec DC0A0000 		.4byte	.LASF446
 8290 1ff0 15       		.byte	0x15
 8291 1ff1 25       		.uleb128 0x25
 8292 1ff2 CE0A0000 		.4byte	.LASF447
 8293 1ff6 06       		.byte	0x6
 8294 1ff7 00       		.byte	0
 8295 1ff8 08       		.uleb128 0x8
 8296 1ff9 2E0D0000 		.4byte	.LASF448
 8297 1ffd 26       		.byte	0x26
 8298 1ffe 2A01     		.2byte	0x12a
 8299 2000 C01F0000 		.4byte	0x1fc0
ARM GAS  /tmp/ccDE0Mq0.s 			page 147


 8300 2004 27       		.uleb128 0x27
 8301 2005 01       		.byte	0x1
 8302 2006 63000000 		.4byte	0x63
 8303 200a 26       		.byte	0x26
 8304 200b 2F01     		.2byte	0x12f
 8305 200d 3C200000 		.4byte	0x203c
 8306 2011 25       		.uleb128 0x25
 8307 2012 A3120000 		.4byte	.LASF449
 8308 2016 00       		.byte	0
 8309 2017 25       		.uleb128 0x25
 8310 2018 EB120000 		.4byte	.LASF450
 8311 201c 01       		.byte	0x1
 8312 201d 25       		.uleb128 0x25
 8313 201e 050F0000 		.4byte	.LASF451
 8314 2022 02       		.byte	0x2
 8315 2023 25       		.uleb128 0x25
 8316 2024 99000000 		.4byte	.LASF452
 8317 2028 03       		.byte	0x3
 8318 2029 25       		.uleb128 0x25
 8319 202a 9F0F0000 		.4byte	.LASF453
 8320 202e 04       		.byte	0x4
 8321 202f 25       		.uleb128 0x25
 8322 2030 AE190000 		.4byte	.LASF454
 8323 2034 05       		.byte	0x5
 8324 2035 25       		.uleb128 0x25
 8325 2036 A60E0000 		.4byte	.LASF455
 8326 203a 06       		.byte	0x6
 8327 203b 00       		.byte	0
 8328 203c 08       		.uleb128 0x8
 8329 203d 2F130000 		.4byte	.LASF456
 8330 2041 26       		.byte	0x26
 8331 2042 3701     		.2byte	0x137
 8332 2044 04200000 		.4byte	0x2004
 8333 2048 1C       		.uleb128 0x1c
 8334 2049 08       		.byte	0x8
 8335 204a 26       		.byte	0x26
 8336 204b 3C01     		.2byte	0x13c
 8337 204d 6C200000 		.4byte	0x206c
 8338 2051 19       		.uleb128 0x19
 8339 2052 351B0000 		.4byte	.LASF457
 8340 2056 26       		.byte	0x26
 8341 2057 4001     		.2byte	0x140
 8342 2059 2C000000 		.4byte	0x2c
 8343 205d 00       		.byte	0
 8344 205e 19       		.uleb128 0x19
 8345 205f AC030000 		.4byte	.LASF458
 8346 2063 26       		.byte	0x26
 8347 2064 4401     		.2byte	0x144
 8348 2066 85150000 		.4byte	0x1585
 8349 206a 04       		.byte	0x4
 8350 206b 00       		.byte	0
 8351 206c 08       		.uleb128 0x8
 8352 206d 1C100000 		.4byte	.LASF459
 8353 2071 26       		.byte	0x26
 8354 2072 4501     		.2byte	0x145
 8355 2074 48200000 		.4byte	0x2048
 8356 2078 10       		.uleb128 0x10
ARM GAS  /tmp/ccDE0Mq0.s 			page 148


 8357 2079 6C200000 		.4byte	0x206c
 8358 207d 08       		.uleb128 0x8
 8359 207e D61A0000 		.4byte	.LASF460
 8360 2082 26       		.byte	0x26
 8361 2083 4D01     		.2byte	0x14d
 8362 2085 89200000 		.4byte	0x2089
 8363 2089 06       		.uleb128 0x6
 8364 208a 04       		.byte	0x4
 8365 208b 8F200000 		.4byte	0x208f
 8366 208f 1F       		.uleb128 0x1f
 8367 2090 9A200000 		.4byte	0x209a
 8368 2094 17       		.uleb128 0x17
 8369 2095 9A200000 		.4byte	0x209a
 8370 2099 00       		.byte	0
 8371 209a 06       		.uleb128 0x6
 8372 209b 04       		.byte	0x4
 8373 209c 051E0000 		.4byte	0x1e05
 8374 20a0 08       		.uleb128 0x8
 8375 20a1 D9030000 		.4byte	.LASF461
 8376 20a5 26       		.byte	0x26
 8377 20a6 5601     		.2byte	0x156
 8378 20a8 AC200000 		.4byte	0x20ac
 8379 20ac 06       		.uleb128 0x6
 8380 20ad 04       		.byte	0x4
 8381 20ae B2200000 		.4byte	0x20b2
 8382 20b2 1F       		.uleb128 0x1f
 8383 20b3 C2200000 		.4byte	0x20c2
 8384 20b7 17       		.uleb128 0x17
 8385 20b8 9A200000 		.4byte	0x209a
 8386 20bc 17       		.uleb128 0x17
 8387 20bd 4A1F0000 		.4byte	0x1f4a
 8388 20c1 00       		.byte	0
 8389 20c2 08       		.uleb128 0x8
 8390 20c3 D5070000 		.4byte	.LASF462
 8391 20c7 26       		.byte	0x26
 8392 20c8 5F01     		.2byte	0x15f
 8393 20ca CE200000 		.4byte	0x20ce
 8394 20ce 06       		.uleb128 0x6
 8395 20cf 04       		.byte	0x4
 8396 20d0 D4200000 		.4byte	0x20d4
 8397 20d4 1F       		.uleb128 0x1f
 8398 20d5 E4200000 		.4byte	0x20e4
 8399 20d9 17       		.uleb128 0x17
 8400 20da 9A200000 		.4byte	0x209a
 8401 20de 17       		.uleb128 0x17
 8402 20df 3C200000 		.4byte	0x203c
 8403 20e3 00       		.byte	0
 8404 20e4 08       		.uleb128 0x8
 8405 20e5 55120000 		.4byte	.LASF463
 8406 20e9 26       		.byte	0x26
 8407 20ea 6B01     		.2byte	0x16b
 8408 20ec F0200000 		.4byte	0x20f0
 8409 20f0 06       		.uleb128 0x6
 8410 20f1 04       		.byte	0x4
 8411 20f2 F6200000 		.4byte	0x20f6
 8412 20f6 16       		.uleb128 0x16
 8413 20f7 AF140000 		.4byte	0x14af
ARM GAS  /tmp/ccDE0Mq0.s 			page 149


 8414 20fb 05210000 		.4byte	0x2105
 8415 20ff 17       		.uleb128 0x17
 8416 2100 9A200000 		.4byte	0x209a
 8417 2104 00       		.byte	0
 8418 2105 08       		.uleb128 0x8
 8419 2106 360B0000 		.4byte	.LASF464
 8420 210a 26       		.byte	0x26
 8421 210b 7001     		.2byte	0x170
 8422 210d 11210000 		.4byte	0x2111
 8423 2111 06       		.uleb128 0x6
 8424 2112 04       		.byte	0x4
 8425 2113 17210000 		.4byte	0x2117
 8426 2117 16       		.uleb128 0x16
 8427 2118 35210000 		.4byte	0x2135
 8428 211c 35210000 		.4byte	0x2135
 8429 2120 17       		.uleb128 0x17
 8430 2121 9A200000 		.4byte	0x209a
 8431 2125 17       		.uleb128 0x17
 8432 2126 E7080000 		.4byte	0x8e7
 8433 212a 17       		.uleb128 0x17
 8434 212b E7080000 		.4byte	0x8e7
 8435 212f 17       		.uleb128 0x17
 8436 2130 F7080000 		.4byte	0x8f7
 8437 2134 00       		.byte	0
 8438 2135 06       		.uleb128 0x6
 8439 2136 04       		.byte	0x4
 8440 2137 78200000 		.4byte	0x2078
 8441 213b 0D       		.uleb128 0xd
 8442 213c 20       		.byte	0x20
 8443 213d 28       		.byte	0x28
 8444 213e 29       		.byte	0x29
 8445 213f A4210000 		.4byte	0x21a4
 8446 2143 0E       		.uleb128 0xe
 8447 2144 BE020000 		.4byte	.LASF465
 8448 2148 28       		.byte	0x28
 8449 2149 2A       		.byte	0x2a
 8450 214a 1D090000 		.4byte	0x91d
 8451 214e 00       		.byte	0
 8452 214f 0E       		.uleb128 0xe
 8453 2150 35090000 		.4byte	.LASF466
 8454 2154 28       		.byte	0x28
 8455 2155 2C       		.byte	0x2c
 8456 2156 1D090000 		.4byte	0x91d
 8457 215a 04       		.byte	0x4
 8458 215b 0E       		.uleb128 0xe
 8459 215c 46020000 		.4byte	.LASF467
 8460 2160 28       		.byte	0x28
 8461 2161 2D       		.byte	0x2d
 8462 2162 1D090000 		.4byte	0x91d
 8463 2166 08       		.byte	0x8
 8464 2167 0E       		.uleb128 0xe
 8465 2168 CF140000 		.4byte	.LASF468
 8466 216c 28       		.byte	0x28
 8467 216d 2E       		.byte	0x2e
 8468 216e 1D090000 		.4byte	0x91d
 8469 2172 0C       		.byte	0xc
 8470 2173 0E       		.uleb128 0xe
ARM GAS  /tmp/ccDE0Mq0.s 			page 150


 8471 2174 FE0E0000 		.4byte	.LASF469
 8472 2178 28       		.byte	0x28
 8473 2179 30       		.byte	0x30
 8474 217a 1D090000 		.4byte	0x91d
 8475 217e 10       		.byte	0x10
 8476 217f 0E       		.uleb128 0xe
 8477 2180 7C090000 		.4byte	.LASF470
 8478 2184 28       		.byte	0x28
 8479 2185 32       		.byte	0x32
 8480 2186 1D090000 		.4byte	0x91d
 8481 218a 14       		.byte	0x14
 8482 218b 0E       		.uleb128 0xe
 8483 218c 84090000 		.4byte	.LASF471
 8484 2190 28       		.byte	0x28
 8485 2191 33       		.byte	0x33
 8486 2192 1D090000 		.4byte	0x91d
 8487 2196 18       		.byte	0x18
 8488 2197 0E       		.uleb128 0xe
 8489 2198 25030000 		.4byte	.LASF472
 8490 219c 28       		.byte	0x28
 8491 219d 34       		.byte	0x34
 8492 219e 1D090000 		.4byte	0x91d
 8493 21a2 1C       		.byte	0x1c
 8494 21a3 00       		.byte	0
 8495 21a4 03       		.uleb128 0x3
 8496 21a5 65140000 		.4byte	.LASF473
 8497 21a9 28       		.byte	0x28
 8498 21aa 35       		.byte	0x35
 8499 21ab 3B210000 		.4byte	0x213b
 8500 21af 0D       		.uleb128 0xd
 8501 21b0 20       		.byte	0x20
 8502 21b1 28       		.byte	0x28
 8503 21b2 3A       		.byte	0x3a
 8504 21b3 18220000 		.4byte	0x2218
 8505 21b7 0E       		.uleb128 0xe
 8506 21b8 D5090000 		.4byte	.LASF474
 8507 21bc 28       		.byte	0x28
 8508 21bd 3B       		.byte	0x3b
 8509 21be 1D090000 		.4byte	0x91d
 8510 21c2 00       		.byte	0
 8511 21c3 0E       		.uleb128 0xe
 8512 21c4 630D0000 		.4byte	.LASF475
 8513 21c8 28       		.byte	0x28
 8514 21c9 3D       		.byte	0x3d
 8515 21ca 1D090000 		.4byte	0x91d
 8516 21ce 04       		.byte	0x4
 8517 21cf 0E       		.uleb128 0xe
 8518 21d0 5A170000 		.4byte	.LASF476
 8519 21d4 28       		.byte	0x28
 8520 21d5 3E       		.byte	0x3e
 8521 21d6 1D090000 		.4byte	0x91d
 8522 21da 08       		.byte	0x8
 8523 21db 0E       		.uleb128 0xe
 8524 21dc 870D0000 		.4byte	.LASF477
 8525 21e0 28       		.byte	0x28
 8526 21e1 40       		.byte	0x40
 8527 21e2 1D090000 		.4byte	0x91d
ARM GAS  /tmp/ccDE0Mq0.s 			page 151


 8528 21e6 0C       		.byte	0xc
 8529 21e7 0E       		.uleb128 0xe
 8530 21e8 3F110000 		.4byte	.LASF478
 8531 21ec 28       		.byte	0x28
 8532 21ed 41       		.byte	0x41
 8533 21ee 1D090000 		.4byte	0x91d
 8534 21f2 10       		.byte	0x10
 8535 21f3 0E       		.uleb128 0xe
 8536 21f4 7C090000 		.4byte	.LASF470
 8537 21f8 28       		.byte	0x28
 8538 21f9 43       		.byte	0x43
 8539 21fa 1D090000 		.4byte	0x91d
 8540 21fe 14       		.byte	0x14
 8541 21ff 0E       		.uleb128 0xe
 8542 2200 40050000 		.4byte	.LASF479
 8543 2204 28       		.byte	0x28
 8544 2205 44       		.byte	0x44
 8545 2206 1D090000 		.4byte	0x91d
 8546 220a 18       		.byte	0x18
 8547 220b 0E       		.uleb128 0xe
 8548 220c AA020000 		.4byte	.LASF480
 8549 2210 28       		.byte	0x28
 8550 2211 46       		.byte	0x46
 8551 2212 1D090000 		.4byte	0x91d
 8552 2216 1C       		.byte	0x1c
 8553 2217 00       		.byte	0
 8554 2218 03       		.uleb128 0x3
 8555 2219 23060000 		.4byte	.LASF481
 8556 221d 28       		.byte	0x28
 8557 221e 47       		.byte	0x47
 8558 221f AF210000 		.4byte	0x21af
 8559 2223 0D       		.uleb128 0xd
 8560 2224 20       		.byte	0x20
 8561 2225 28       		.byte	0x28
 8562 2226 4C       		.byte	0x4c
 8563 2227 8C220000 		.4byte	0x228c
 8564 222b 0E       		.uleb128 0xe
 8565 222c BA0F0000 		.4byte	.LASF482
 8566 2230 28       		.byte	0x28
 8567 2231 4D       		.byte	0x4d
 8568 2232 1D090000 		.4byte	0x91d
 8569 2236 00       		.byte	0
 8570 2237 0E       		.uleb128 0xe
 8571 2238 630D0000 		.4byte	.LASF475
 8572 223c 28       		.byte	0x28
 8573 223d 4F       		.byte	0x4f
 8574 223e 1D090000 		.4byte	0x91d
 8575 2242 04       		.byte	0x4
 8576 2243 0E       		.uleb128 0xe
 8577 2244 2D120000 		.4byte	.LASF483
 8578 2248 28       		.byte	0x28
 8579 2249 50       		.byte	0x50
 8580 224a 1D090000 		.4byte	0x91d
 8581 224e 08       		.byte	0x8
 8582 224f 0E       		.uleb128 0xe
 8583 2250 870D0000 		.4byte	.LASF477
 8584 2254 28       		.byte	0x28
ARM GAS  /tmp/ccDE0Mq0.s 			page 152


 8585 2255 52       		.byte	0x52
 8586 2256 1D090000 		.4byte	0x91d
 8587 225a 0C       		.byte	0xc
 8588 225b 0E       		.uleb128 0xe
 8589 225c 55180000 		.4byte	.LASF484
 8590 2260 28       		.byte	0x28
 8591 2261 53       		.byte	0x53
 8592 2262 1D090000 		.4byte	0x91d
 8593 2266 10       		.byte	0x10
 8594 2267 0E       		.uleb128 0xe
 8595 2268 7C090000 		.4byte	.LASF470
 8596 226c 28       		.byte	0x28
 8597 226d 55       		.byte	0x55
 8598 226e 1D090000 		.4byte	0x91d
 8599 2272 14       		.byte	0x14
 8600 2273 0E       		.uleb128 0xe
 8601 2274 84090000 		.4byte	.LASF471
 8602 2278 28       		.byte	0x28
 8603 2279 56       		.byte	0x56
 8604 227a 1D090000 		.4byte	0x91d
 8605 227e 18       		.byte	0x18
 8606 227f 0E       		.uleb128 0xe
 8607 2280 AA020000 		.4byte	.LASF480
 8608 2284 28       		.byte	0x28
 8609 2285 57       		.byte	0x57
 8610 2286 1D090000 		.4byte	0x91d
 8611 228a 1C       		.byte	0x1c
 8612 228b 00       		.byte	0
 8613 228c 03       		.uleb128 0x3
 8614 228d CF050000 		.4byte	.LASF485
 8615 2291 28       		.byte	0x28
 8616 2292 58       		.byte	0x58
 8617 2293 23220000 		.4byte	0x2223
 8618 2297 28       		.uleb128 0x28
 8619 2298 00100100 		.4byte	0x11000
 8620 229c 28       		.byte	0x28
 8621 229d 5D       		.byte	0x5d
 8622 229e 74250000 		.4byte	0x2574
 8623 22a2 0E       		.uleb128 0xe
 8624 22a3 D1030000 		.4byte	.LASF486
 8625 22a7 28       		.byte	0x28
 8626 22a8 5E       		.byte	0x5e
 8627 22a9 1D090000 		.4byte	0x91d
 8628 22ad 00       		.byte	0
 8629 22ae 0E       		.uleb128 0xe
 8630 22af 8B080000 		.4byte	.LASF487
 8631 22b3 28       		.byte	0x28
 8632 22b4 5F       		.byte	0x5f
 8633 22b5 1D090000 		.4byte	0x91d
 8634 22b9 04       		.byte	0x4
 8635 22ba 0E       		.uleb128 0xe
 8636 22bb 67050000 		.4byte	.LASF488
 8637 22bf 28       		.byte	0x28
 8638 22c0 60       		.byte	0x60
 8639 22c1 1D090000 		.4byte	0x91d
 8640 22c5 08       		.byte	0x8
 8641 22c6 0E       		.uleb128 0xe
ARM GAS  /tmp/ccDE0Mq0.s 			page 153


 8642 22c7 EA1A0000 		.4byte	.LASF489
 8643 22cb 28       		.byte	0x28
 8644 22cc 61       		.byte	0x61
 8645 22cd 1D090000 		.4byte	0x91d
 8646 22d1 0C       		.byte	0xc
 8647 22d2 0E       		.uleb128 0xe
 8648 22d3 790E0000 		.4byte	.LASF490
 8649 22d7 28       		.byte	0x28
 8650 22d8 62       		.byte	0x62
 8651 22d9 1D090000 		.4byte	0x91d
 8652 22dd 10       		.byte	0x10
 8653 22de 0E       		.uleb128 0xe
 8654 22df 01030000 		.4byte	.LASF491
 8655 22e3 28       		.byte	0x28
 8656 22e4 63       		.byte	0x63
 8657 22e5 1D090000 		.4byte	0x91d
 8658 22e9 14       		.byte	0x14
 8659 22ea 0E       		.uleb128 0xe
 8660 22eb AA130000 		.4byte	.LASF492
 8661 22ef 28       		.byte	0x28
 8662 22f0 64       		.byte	0x64
 8663 22f1 1D090000 		.4byte	0x91d
 8664 22f5 18       		.byte	0x18
 8665 22f6 0E       		.uleb128 0xe
 8666 22f7 EA050000 		.4byte	.LASF493
 8667 22fb 28       		.byte	0x28
 8668 22fc 65       		.byte	0x65
 8669 22fd 1D090000 		.4byte	0x91d
 8670 2301 1C       		.byte	0x1c
 8671 2302 0E       		.uleb128 0xe
 8672 2303 E2050000 		.4byte	.LASF494
 8673 2307 28       		.byte	0x28
 8674 2308 67       		.byte	0x67
 8675 2309 1D090000 		.4byte	0x91d
 8676 230d 20       		.byte	0x20
 8677 230e 0E       		.uleb128 0xe
 8678 230f 7B130000 		.4byte	.LASF495
 8679 2313 28       		.byte	0x28
 8680 2314 69       		.byte	0x69
 8681 2315 1D090000 		.4byte	0x91d
 8682 2319 24       		.byte	0x24
 8683 231a 0E       		.uleb128 0xe
 8684 231b B0000000 		.4byte	.LASF496
 8685 231f 28       		.byte	0x28
 8686 2320 6A       		.byte	0x6a
 8687 2321 1D090000 		.4byte	0x91d
 8688 2325 28       		.byte	0x28
 8689 2326 0E       		.uleb128 0xe
 8690 2327 B2130000 		.4byte	.LASF497
 8691 232b 28       		.byte	0x28
 8692 232c 6C       		.byte	0x6c
 8693 232d 1D090000 		.4byte	0x91d
 8694 2331 2C       		.byte	0x2c
 8695 2332 0E       		.uleb128 0xe
 8696 2333 880A0000 		.4byte	.LASF498
 8697 2337 28       		.byte	0x28
 8698 2338 6E       		.byte	0x6e
ARM GAS  /tmp/ccDE0Mq0.s 			page 154


 8699 2339 1D090000 		.4byte	0x91d
 8700 233d 30       		.byte	0x30
 8701 233e 0E       		.uleb128 0xe
 8702 233f E6190000 		.4byte	.LASF499
 8703 2343 28       		.byte	0x28
 8704 2344 6F       		.byte	0x6f
 8705 2345 1D090000 		.4byte	0x91d
 8706 2349 34       		.byte	0x34
 8707 234a 0E       		.uleb128 0xe
 8708 234b 7D010000 		.4byte	.LASF500
 8709 234f 28       		.byte	0x28
 8710 2350 70       		.byte	0x70
 8711 2351 1D090000 		.4byte	0x91d
 8712 2355 38       		.byte	0x38
 8713 2356 12       		.uleb128 0x12
 8714 2357 43494400 		.ascii	"CID\000"
 8715 235b 28       		.byte	0x28
 8716 235c 71       		.byte	0x71
 8717 235d 1D090000 		.4byte	0x91d
 8718 2361 3C       		.byte	0x3c
 8719 2362 0E       		.uleb128 0xe
 8720 2363 970B0000 		.4byte	.LASF501
 8721 2367 28       		.byte	0x28
 8722 2368 72       		.byte	0x72
 8723 2369 84250000 		.4byte	0x2584
 8724 236d 40       		.byte	0x40
 8725 236e 14       		.uleb128 0x14
 8726 236f E1180000 		.4byte	.LASF502
 8727 2373 28       		.byte	0x28
 8728 2374 73       		.byte	0x73
 8729 2375 1D090000 		.4byte	0x91d
 8730 2379 0001     		.2byte	0x100
 8731 237b 14       		.uleb128 0x14
 8732 237c C9010000 		.4byte	.LASF503
 8733 2380 28       		.byte	0x28
 8734 2381 75       		.byte	0x75
 8735 2382 F20F0000 		.4byte	0xff2
 8736 2386 0401     		.2byte	0x104
 8737 2388 14       		.uleb128 0x14
 8738 2389 620F0000 		.4byte	.LASF504
 8739 238d 28       		.byte	0x28
 8740 238e 77       		.byte	0x77
 8741 238f 99250000 		.4byte	0x2599
 8742 2393 4001     		.2byte	0x140
 8743 2395 14       		.uleb128 0x14
 8744 2396 D4110000 		.4byte	.LASF505
 8745 239a 28       		.byte	0x28
 8746 239b 78       		.byte	0x78
 8747 239c 1D090000 		.4byte	0x91d
 8748 23a0 0004     		.2byte	0x400
 8749 23a2 14       		.uleb128 0x14
 8750 23a3 9D1A0000 		.4byte	.LASF506
 8751 23a7 28       		.byte	0x28
 8752 23a8 79       		.byte	0x79
 8753 23a9 1D090000 		.4byte	0x91d
 8754 23ad 0404     		.2byte	0x404
 8755 23af 14       		.uleb128 0x14
ARM GAS  /tmp/ccDE0Mq0.s 			page 155


 8756 23b0 56030000 		.4byte	.LASF507
 8757 23b4 28       		.byte	0x28
 8758 23b5 7A       		.byte	0x7a
 8759 23b6 1D090000 		.4byte	0x91d
 8760 23ba 0804     		.2byte	0x408
 8761 23bc 14       		.uleb128 0x14
 8762 23bd D4080000 		.4byte	.LASF508
 8763 23c1 28       		.byte	0x28
 8764 23c2 7C       		.byte	0x7c
 8765 23c3 1D090000 		.4byte	0x91d
 8766 23c7 0C04     		.2byte	0x40c
 8767 23c9 14       		.uleb128 0x14
 8768 23ca 8D020000 		.4byte	.LASF509
 8769 23ce 28       		.byte	0x28
 8770 23cf 7D       		.byte	0x7d
 8771 23d0 1D090000 		.4byte	0x91d
 8772 23d4 1004     		.2byte	0x410
 8773 23d6 14       		.uleb128 0x14
 8774 23d7 2D030000 		.4byte	.LASF510
 8775 23db 28       		.byte	0x28
 8776 23dc 7F       		.byte	0x7f
 8777 23dd 1D090000 		.4byte	0x91d
 8778 23e1 1404     		.2byte	0x414
 8779 23e3 14       		.uleb128 0x14
 8780 23e4 9A080000 		.4byte	.LASF511
 8781 23e8 28       		.byte	0x28
 8782 23e9 81       		.byte	0x81
 8783 23ea 1D090000 		.4byte	0x91d
 8784 23ee 1804     		.2byte	0x418
 8785 23f0 14       		.uleb128 0x14
 8786 23f1 7F150000 		.4byte	.LASF512
 8787 23f5 28       		.byte	0x28
 8788 23f6 83       		.byte	0x83
 8789 23f7 AE250000 		.4byte	0x25ae
 8790 23fb 1C04     		.2byte	0x41c
 8791 23fd 14       		.uleb128 0x14
 8792 23fe 41020000 		.4byte	.LASF513
 8793 2402 28       		.byte	0x28
 8794 2403 84       		.byte	0x84
 8795 2404 1D090000 		.4byte	0x91d
 8796 2408 4004     		.2byte	0x440
 8797 240a 14       		.uleb128 0x14
 8798 240b A5160000 		.4byte	.LASF514
 8799 240f 28       		.byte	0x28
 8800 2410 86       		.byte	0x86
 8801 2411 C3250000 		.4byte	0x25c3
 8802 2415 4404     		.2byte	0x444
 8803 2417 26       		.uleb128 0x26
 8804 2418 686300   		.ascii	"hc\000"
 8805 241b 28       		.byte	0x28
 8806 241c 87       		.byte	0x87
 8807 241d C8250000 		.4byte	0x25c8
 8808 2421 0005     		.2byte	0x500
 8809 2423 14       		.uleb128 0x14
 8810 2424 1A010000 		.4byte	.LASF515
 8811 2428 28       		.byte	0x28
 8812 2429 88       		.byte	0x88
ARM GAS  /tmp/ccDE0Mq0.s 			page 156


 8813 242a E8250000 		.4byte	0x25e8
 8814 242e 0007     		.2byte	0x700
 8815 2430 14       		.uleb128 0x14
 8816 2431 90130000 		.4byte	.LASF516
 8817 2435 28       		.byte	0x28
 8818 2436 89       		.byte	0x89
 8819 2437 1D090000 		.4byte	0x91d
 8820 243b 0008     		.2byte	0x800
 8821 243d 14       		.uleb128 0x14
 8822 243e 9B190000 		.4byte	.LASF517
 8823 2442 28       		.byte	0x28
 8824 2443 8A       		.byte	0x8a
 8825 2444 1D090000 		.4byte	0x91d
 8826 2448 0408     		.2byte	0x804
 8827 244a 14       		.uleb128 0x14
 8828 244b 130E0000 		.4byte	.LASF518
 8829 244f 28       		.byte	0x28
 8830 2450 8B       		.byte	0x8b
 8831 2451 1D090000 		.4byte	0x91d
 8832 2455 0808     		.2byte	0x808
 8833 2457 14       		.uleb128 0x14
 8834 2458 BF030000 		.4byte	.LASF519
 8835 245c 28       		.byte	0x28
 8836 245d 8C       		.byte	0x8c
 8837 245e 1D090000 		.4byte	0x91d
 8838 2462 0C08     		.2byte	0x80c
 8839 2464 14       		.uleb128 0x14
 8840 2465 83080000 		.4byte	.LASF520
 8841 2469 28       		.byte	0x28
 8842 246a 8D       		.byte	0x8d
 8843 246b 1D090000 		.4byte	0x91d
 8844 246f 1008     		.2byte	0x810
 8845 2471 14       		.uleb128 0x14
 8846 2472 6F170000 		.4byte	.LASF521
 8847 2476 28       		.byte	0x28
 8848 2477 8F       		.byte	0x8f
 8849 2478 1D090000 		.4byte	0x91d
 8850 247c 1408     		.2byte	0x814
 8851 247e 14       		.uleb128 0x14
 8852 247f E1170000 		.4byte	.LASF522
 8853 2483 28       		.byte	0x28
 8854 2484 91       		.byte	0x91
 8855 2485 1D090000 		.4byte	0x91d
 8856 2489 1808     		.2byte	0x818
 8857 248b 14       		.uleb128 0x14
 8858 248c EB150000 		.4byte	.LASF523
 8859 2490 28       		.byte	0x28
 8860 2491 93       		.byte	0x93
 8861 2492 1D090000 		.4byte	0x91d
 8862 2496 1C08     		.2byte	0x81c
 8863 2498 14       		.uleb128 0x14
 8864 2499 96040000 		.4byte	.LASF524
 8865 249d 28       		.byte	0x28
 8866 249e 95       		.byte	0x95
 8867 249f 1D090000 		.4byte	0x91d
 8868 24a3 2008     		.2byte	0x820
 8869 24a5 14       		.uleb128 0x14
ARM GAS  /tmp/ccDE0Mq0.s 			page 157


 8870 24a6 F6030000 		.4byte	.LASF525
 8871 24aa 28       		.byte	0x28
 8872 24ab 96       		.byte	0x96
 8873 24ac 1D090000 		.4byte	0x91d
 8874 24b0 2408     		.2byte	0x824
 8875 24b2 14       		.uleb128 0x14
 8876 24b3 23010000 		.4byte	.LASF526
 8877 24b7 28       		.byte	0x28
 8878 24b8 97       		.byte	0x97
 8879 24b9 1D090000 		.4byte	0x91d
 8880 24bd 2808     		.2byte	0x828
 8881 24bf 14       		.uleb128 0x14
 8882 24c0 2F050000 		.4byte	.LASF527
 8883 24c4 28       		.byte	0x28
 8884 24c5 99       		.byte	0x99
 8885 24c6 1D090000 		.4byte	0x91d
 8886 24ca 2C08     		.2byte	0x82c
 8887 24cc 14       		.uleb128 0x14
 8888 24cd 08050000 		.4byte	.LASF528
 8889 24d1 28       		.byte	0x28
 8890 24d2 9B       		.byte	0x9b
 8891 24d3 1D090000 		.4byte	0x91d
 8892 24d7 3008     		.2byte	0x830
 8893 24d9 14       		.uleb128 0x14
 8894 24da B8090000 		.4byte	.LASF529
 8895 24de 28       		.byte	0x28
 8896 24df 9C       		.byte	0x9c
 8897 24e0 1D090000 		.4byte	0x91d
 8898 24e4 3408     		.2byte	0x834
 8899 24e6 14       		.uleb128 0x14
 8900 24e7 16050000 		.4byte	.LASF530
 8901 24eb 28       		.byte	0x28
 8902 24ec 9E       		.byte	0x9e
 8903 24ed 1D090000 		.4byte	0x91d
 8904 24f1 3808     		.2byte	0x838
 8905 24f3 14       		.uleb128 0x14
 8906 24f4 1F050000 		.4byte	.LASF531
 8907 24f8 28       		.byte	0x28
 8908 24f9 9F       		.byte	0x9f
 8909 24fa 1D090000 		.4byte	0x91d
 8910 24fe 3C08     		.2byte	0x83c
 8911 2500 14       		.uleb128 0x14
 8912 2501 77050000 		.4byte	.LASF532
 8913 2505 28       		.byte	0x28
 8914 2506 A0       		.byte	0xa0
 8915 2507 FD250000 		.4byte	0x25fd
 8916 250b 4008     		.2byte	0x840
 8917 250d 14       		.uleb128 0x14
 8918 250e 63090000 		.4byte	.LASF533
 8919 2512 28       		.byte	0x28
 8920 2513 A1       		.byte	0xa1
 8921 2514 FD250000 		.4byte	0x25fd
 8922 2518 8008     		.2byte	0x880
 8923 251a 14       		.uleb128 0x14
 8924 251b 740D0000 		.4byte	.LASF534
 8925 251f 28       		.byte	0x28
 8926 2520 A2       		.byte	0xa2
ARM GAS  /tmp/ccDE0Mq0.s 			page 158


 8927 2521 FD250000 		.4byte	0x25fd
 8928 2525 C008     		.2byte	0x8c0
 8929 2527 26       		.uleb128 0x26
 8930 2528 696500   		.ascii	"ie\000"
 8931 252b 28       		.byte	0x28
 8932 252c A3       		.byte	0xa3
 8933 252d 02260000 		.4byte	0x2602
 8934 2531 0009     		.2byte	0x900
 8935 2533 26       		.uleb128 0x26
 8936 2534 6F6500   		.ascii	"oe\000"
 8937 2537 28       		.byte	0x28
 8938 2538 A4       		.byte	0xa4
 8939 2539 12260000 		.4byte	0x2612
 8940 253d 000B     		.2byte	0xb00
 8941 253f 14       		.uleb128 0x14
 8942 2540 1B080000 		.4byte	.LASF535
 8943 2544 28       		.byte	0x28
 8944 2545 A5       		.byte	0xa5
 8945 2546 E8250000 		.4byte	0x25e8
 8946 254a 000D     		.2byte	0xd00
 8947 254c 14       		.uleb128 0x14
 8948 254d A6190000 		.4byte	.LASF536
 8949 2551 28       		.byte	0x28
 8950 2552 A6       		.byte	0xa6
 8951 2553 1D090000 		.4byte	0x91d
 8952 2557 000E     		.2byte	0xe00
 8953 2559 14       		.uleb128 0x14
 8954 255a F70A0000 		.4byte	.LASF537
 8955 255e 28       		.byte	0x28
 8956 255f A8       		.byte	0xa8
 8957 2560 32260000 		.4byte	0x2632
 8958 2564 040E     		.2byte	0xe04
 8959 2566 14       		.uleb128 0x14
 8960 2567 96190000 		.4byte	.LASF538
 8961 256b 28       		.byte	0x28
 8962 256c A9       		.byte	0xa9
 8963 256d 4E260000 		.4byte	0x264e
 8964 2571 0010     		.2byte	0x1000
 8965 2573 00       		.byte	0
 8966 2574 0B       		.uleb128 0xb
 8967 2575 1D090000 		.4byte	0x91d
 8968 2579 84250000 		.4byte	0x2584
 8969 257d 0C       		.uleb128 0xc
 8970 257e 20010000 		.4byte	0x120
 8971 2582 2F       		.byte	0x2f
 8972 2583 00       		.byte	0
 8973 2584 04       		.uleb128 0x4
 8974 2585 74250000 		.4byte	0x2574
 8975 2589 0B       		.uleb128 0xb
 8976 258a 1D090000 		.4byte	0x91d
 8977 258e 99250000 		.4byte	0x2599
 8978 2592 0C       		.uleb128 0xc
 8979 2593 20010000 		.4byte	0x120
 8980 2597 AF       		.byte	0xaf
 8981 2598 00       		.byte	0
 8982 2599 04       		.uleb128 0x4
 8983 259a 89250000 		.4byte	0x2589
ARM GAS  /tmp/ccDE0Mq0.s 			page 159


 8984 259e 0B       		.uleb128 0xb
 8985 259f 1D090000 		.4byte	0x91d
 8986 25a3 AE250000 		.4byte	0x25ae
 8987 25a7 0C       		.uleb128 0xc
 8988 25a8 20010000 		.4byte	0x120
 8989 25ac 08       		.byte	0x8
 8990 25ad 00       		.byte	0
 8991 25ae 04       		.uleb128 0x4
 8992 25af 9E250000 		.4byte	0x259e
 8993 25b3 0B       		.uleb128 0xb
 8994 25b4 1D090000 		.4byte	0x91d
 8995 25b8 C3250000 		.4byte	0x25c3
 8996 25bc 0C       		.uleb128 0xc
 8997 25bd 20010000 		.4byte	0x120
 8998 25c1 2E       		.byte	0x2e
 8999 25c2 00       		.byte	0
 9000 25c3 04       		.uleb128 0x4
 9001 25c4 B3250000 		.4byte	0x25b3
 9002 25c8 0B       		.uleb128 0xb
 9003 25c9 A4210000 		.4byte	0x21a4
 9004 25cd D8250000 		.4byte	0x25d8
 9005 25d1 0C       		.uleb128 0xc
 9006 25d2 20010000 		.4byte	0x120
 9007 25d6 0F       		.byte	0xf
 9008 25d7 00       		.byte	0
 9009 25d8 0B       		.uleb128 0xb
 9010 25d9 1D090000 		.4byte	0x91d
 9011 25dd E8250000 		.4byte	0x25e8
 9012 25e1 0C       		.uleb128 0xc
 9013 25e2 20010000 		.4byte	0x120
 9014 25e6 3F       		.byte	0x3f
 9015 25e7 00       		.byte	0
 9016 25e8 04       		.uleb128 0x4
 9017 25e9 D8250000 		.4byte	0x25d8
 9018 25ed 0B       		.uleb128 0xb
 9019 25ee 1D090000 		.4byte	0x91d
 9020 25f2 FD250000 		.4byte	0x25fd
 9021 25f6 0C       		.uleb128 0xc
 9022 25f7 20010000 		.4byte	0x120
 9023 25fb 0F       		.byte	0xf
 9024 25fc 00       		.byte	0
 9025 25fd 04       		.uleb128 0x4
 9026 25fe ED250000 		.4byte	0x25ed
 9027 2602 0B       		.uleb128 0xb
 9028 2603 18220000 		.4byte	0x2218
 9029 2607 12260000 		.4byte	0x2612
 9030 260b 0C       		.uleb128 0xc
 9031 260c 20010000 		.4byte	0x120
 9032 2610 0F       		.byte	0xf
 9033 2611 00       		.byte	0
 9034 2612 0B       		.uleb128 0xb
 9035 2613 8C220000 		.4byte	0x228c
 9036 2617 22260000 		.4byte	0x2622
 9037 261b 0C       		.uleb128 0xc
 9038 261c 20010000 		.4byte	0x120
 9039 2620 0F       		.byte	0xf
 9040 2621 00       		.byte	0
ARM GAS  /tmp/ccDE0Mq0.s 			page 160


 9041 2622 0B       		.uleb128 0xb
 9042 2623 1D090000 		.4byte	0x91d
 9043 2627 32260000 		.4byte	0x2632
 9044 262b 0C       		.uleb128 0xc
 9045 262c 20010000 		.4byte	0x120
 9046 2630 7E       		.byte	0x7e
 9047 2631 00       		.byte	0
 9048 2632 04       		.uleb128 0x4
 9049 2633 22260000 		.4byte	0x2622
 9050 2637 0B       		.uleb128 0xb
 9051 2638 1D090000 		.4byte	0x91d
 9052 263c 4E260000 		.4byte	0x264e
 9053 2640 0C       		.uleb128 0xc
 9054 2641 20010000 		.4byte	0x120
 9055 2645 0F       		.byte	0xf
 9056 2646 29       		.uleb128 0x29
 9057 2647 20010000 		.4byte	0x120
 9058 264b FF03     		.2byte	0x3ff
 9059 264d 00       		.byte	0
 9060 264e 04       		.uleb128 0x4
 9061 264f 37260000 		.4byte	0x2637
 9062 2653 03       		.uleb128 0x3
 9063 2654 171B0000 		.4byte	.LASF539
 9064 2658 28       		.byte	0x28
 9065 2659 AA       		.byte	0xaa
 9066 265a 97220000 		.4byte	0x2297
 9067 265e 0D       		.uleb128 0xd
 9068 265f 0C       		.byte	0xc
 9069 2660 27       		.byte	0x27
 9070 2661 FC       		.byte	0xfc
 9071 2662 8B260000 		.4byte	0x268b
 9072 2666 0E       		.uleb128 0xe
 9073 2667 94060000 		.4byte	.LASF540
 9074 266b 27       		.byte	0x27
 9075 266c FD       		.byte	0xfd
 9076 266d 12090000 		.4byte	0x912
 9077 2671 00       		.byte	0
 9078 2672 0E       		.uleb128 0xe
 9079 2673 EC070000 		.4byte	.LASF541
 9080 2677 27       		.byte	0x27
 9081 2678 FE       		.byte	0xfe
 9082 2679 12090000 		.4byte	0x912
 9083 267d 04       		.byte	0x4
 9084 267e 0E       		.uleb128 0xe
 9085 267f 000B0000 		.4byte	.LASF542
 9086 2683 27       		.byte	0x27
 9087 2684 FF       		.byte	0xff
 9088 2685 12090000 		.4byte	0x912
 9089 2689 08       		.byte	0x8
 9090 268a 00       		.byte	0
 9091 268b 08       		.uleb128 0x8
 9092 268c 08080000 		.4byte	.LASF543
 9093 2690 27       		.byte	0x27
 9094 2691 0001     		.2byte	0x100
 9095 2693 5E260000 		.4byte	0x265e
 9096 2697 10       		.uleb128 0x10
 9097 2698 8B260000 		.4byte	0x268b
ARM GAS  /tmp/ccDE0Mq0.s 			page 161


 9098 269c 1C       		.uleb128 0x1c
 9099 269d 14       		.byte	0x14
 9100 269e 27       		.byte	0x27
 9101 269f 0501     		.2byte	0x105
 9102 26a1 E7260000 		.4byte	0x26e7
 9103 26a5 19       		.uleb128 0x19
 9104 26a6 4B0E0000 		.4byte	.LASF544
 9105 26aa 27       		.byte	0x27
 9106 26ab 0901     		.2byte	0x109
 9107 26ad 2C000000 		.4byte	0x2c
 9108 26b1 00       		.byte	0
 9109 26b2 19       		.uleb128 0x19
 9110 26b3 34190000 		.4byte	.LASF545
 9111 26b7 27       		.byte	0x27
 9112 26b8 0D01     		.2byte	0x10d
 9113 26ba 2C000000 		.4byte	0x2c
 9114 26be 04       		.byte	0x4
 9115 26bf 19       		.uleb128 0x19
 9116 26c0 A0190000 		.4byte	.LASF546
 9117 26c4 27       		.byte	0x27
 9118 26c5 1101     		.2byte	0x111
 9119 26c7 85150000 		.4byte	0x1585
 9120 26cb 08       		.byte	0x8
 9121 26cc 19       		.uleb128 0x19
 9122 26cd 28050000 		.4byte	.LASF547
 9123 26d1 27       		.byte	0x27
 9124 26d2 1601     		.2byte	0x116
 9125 26d4 C70A0000 		.4byte	0xac7
 9126 26d8 0C       		.byte	0xc
 9127 26d9 19       		.uleb128 0x19
 9128 26da 0E0B0000 		.4byte	.LASF548
 9129 26de 27       		.byte	0x27
 9130 26df 1C01     		.2byte	0x11c
 9131 26e1 2C000000 		.4byte	0x2c
 9132 26e5 10       		.byte	0x10
 9133 26e6 00       		.byte	0
 9134 26e7 08       		.uleb128 0x8
 9135 26e8 9F0B0000 		.4byte	.LASF549
 9136 26ec 27       		.byte	0x27
 9137 26ed 1D01     		.2byte	0x11d
 9138 26ef 9C260000 		.4byte	0x269c
 9139 26f3 1C       		.uleb128 0x1c
 9140 26f4 14       		.byte	0x14
 9141 26f5 27       		.byte	0x27
 9142 26f6 2201     		.2byte	0x122
 9143 26f8 3E270000 		.4byte	0x273e
 9144 26fc 19       		.uleb128 0x19
 9145 26fd DD0E0000 		.4byte	.LASF550
 9146 2701 27       		.byte	0x27
 9147 2702 2601     		.2byte	0x126
 9148 2704 2C000000 		.4byte	0x2c
 9149 2708 00       		.byte	0
 9150 2709 19       		.uleb128 0x19
 9151 270a A9070000 		.4byte	.LASF551
 9152 270e 27       		.byte	0x27
 9153 270f 2A01     		.2byte	0x12a
 9154 2711 2C000000 		.4byte	0x2c
ARM GAS  /tmp/ccDE0Mq0.s 			page 162


 9155 2715 04       		.byte	0x4
 9156 2716 19       		.uleb128 0x19
 9157 2717 24080000 		.4byte	.LASF552
 9158 271b 27       		.byte	0x27
 9159 271c 2E01     		.2byte	0x12e
 9160 271e 50150000 		.4byte	0x1550
 9161 2722 08       		.byte	0x8
 9162 2723 19       		.uleb128 0x19
 9163 2724 28050000 		.4byte	.LASF547
 9164 2728 27       		.byte	0x27
 9165 2729 3301     		.2byte	0x133
 9166 272b C70A0000 		.4byte	0xac7
 9167 272f 0C       		.byte	0xc
 9168 2730 19       		.uleb128 0x19
 9169 2731 0E0B0000 		.4byte	.LASF548
 9170 2735 27       		.byte	0x27
 9171 2736 3901     		.2byte	0x139
 9172 2738 2C000000 		.4byte	0x2c
 9173 273c 10       		.byte	0x10
 9174 273d 00       		.byte	0
 9175 273e 08       		.uleb128 0x8
 9176 273f 6B150000 		.4byte	.LASF553
 9177 2743 27       		.byte	0x27
 9178 2744 3A01     		.2byte	0x13a
 9179 2746 F3260000 		.4byte	0x26f3
 9180 274a 1C       		.uleb128 0x1c
 9181 274b 24       		.byte	0x24
 9182 274c 27       		.byte	0x27
 9183 274d 4001     		.2byte	0x140
 9184 274f D6270000 		.4byte	0x27d6
 9185 2753 19       		.uleb128 0x19
 9186 2754 74110000 		.4byte	.LASF554
 9187 2758 27       		.byte	0x27
 9188 2759 4401     		.2byte	0x144
 9189 275b 12090000 		.4byte	0x912
 9190 275f 00       		.byte	0
 9191 2760 19       		.uleb128 0x19
 9192 2761 A9060000 		.4byte	.LASF555
 9193 2765 27       		.byte	0x27
 9194 2766 4F01     		.2byte	0x14f
 9195 2768 A0200000 		.4byte	0x20a0
 9196 276c 04       		.byte	0x4
 9197 276d 19       		.uleb128 0x19
 9198 276e 27120000 		.4byte	.LASF556
 9199 2772 27       		.byte	0x27
 9200 2773 5401     		.2byte	0x154
 9201 2775 A0200000 		.4byte	0x20a0
 9202 2779 08       		.byte	0x8
 9203 277a 19       		.uleb128 0x19
 9204 277b 93080000 		.4byte	.LASF557
 9205 277f 27       		.byte	0x27
 9206 2780 5901     		.2byte	0x159
 9207 2782 A0200000 		.4byte	0x20a0
 9208 2786 0C       		.byte	0xc
 9209 2787 19       		.uleb128 0x19
 9210 2788 4E1B0000 		.4byte	.LASF558
 9211 278c 27       		.byte	0x27
ARM GAS  /tmp/ccDE0Mq0.s 			page 163


 9212 278d 5E01     		.2byte	0x15e
 9213 278f F7080000 		.4byte	0x8f7
 9214 2793 10       		.byte	0x10
 9215 2794 19       		.uleb128 0x19
 9216 2795 720B0000 		.4byte	.LASF559
 9217 2799 27       		.byte	0x27
 9218 279a 6301     		.2byte	0x163
 9219 279c F7080000 		.4byte	0x8f7
 9220 27a0 12       		.byte	0x12
 9221 27a1 19       		.uleb128 0x19
 9222 27a2 511A0000 		.4byte	.LASF560
 9223 27a6 27       		.byte	0x27
 9224 27a7 6901     		.2byte	0x169
 9225 27a9 D6270000 		.4byte	0x27d6
 9226 27ad 14       		.byte	0x14
 9227 27ae 19       		.uleb128 0x19
 9228 27af 300A0000 		.4byte	.LASF561
 9229 27b3 27       		.byte	0x27
 9230 27b4 6F01     		.2byte	0x16f
 9231 27b6 DC270000 		.4byte	0x27dc
 9232 27ba 18       		.byte	0x18
 9233 27bb 19       		.uleb128 0x19
 9234 27bc DF0D0000 		.4byte	.LASF562
 9235 27c0 27       		.byte	0x27
 9236 27c1 7601     		.2byte	0x176
 9237 27c3 F7080000 		.4byte	0x8f7
 9238 27c7 1C       		.byte	0x1c
 9239 27c8 19       		.uleb128 0x19
 9240 27c9 DC190000 		.4byte	.LASF563
 9241 27cd 27       		.byte	0x27
 9242 27ce 7C01     		.2byte	0x17c
 9243 27d0 50150000 		.4byte	0x1550
 9244 27d4 20       		.byte	0x20
 9245 27d5 00       		.byte	0
 9246 27d6 06       		.uleb128 0x6
 9247 27d7 04       		.byte	0x4
 9248 27d8 E7260000 		.4byte	0x26e7
 9249 27dc 06       		.uleb128 0x6
 9250 27dd 04       		.byte	0x4
 9251 27de 3E270000 		.4byte	0x273e
 9252 27e2 08       		.uleb128 0x8
 9253 27e3 93160000 		.4byte	.LASF564
 9254 27e7 27       		.byte	0x27
 9255 27e8 7D01     		.2byte	0x17d
 9256 27ea 4A270000 		.4byte	0x274a
 9257 27ee 10       		.uleb128 0x10
 9258 27ef E2270000 		.4byte	0x27e2
 9259 27f3 1C       		.uleb128 0x1c
 9260 27f4 10       		.byte	0x10
 9261 27f5 27       		.byte	0x27
 9262 27f6 8201     		.2byte	0x182
 9263 27f8 31280000 		.4byte	0x2831
 9264 27fc 19       		.uleb128 0x19
 9265 27fd C8030000 		.4byte	.LASF565
 9266 2801 27       		.byte	0x27
 9267 2802 8701     		.2byte	0x187
 9268 2804 C2200000 		.4byte	0x20c2
ARM GAS  /tmp/ccDE0Mq0.s 			page 164


 9269 2808 00       		.byte	0
 9270 2809 19       		.uleb128 0x19
 9271 280a 4B190000 		.4byte	.LASF566
 9272 280e 27       		.byte	0x27
 9273 280f 8C01     		.2byte	0x18c
 9274 2811 05210000 		.4byte	0x2105
 9275 2815 04       		.byte	0x4
 9276 2816 19       		.uleb128 0x19
 9277 2817 2B0E0000 		.4byte	.LASF567
 9278 281b 27       		.byte	0x27
 9279 281c 9201     		.2byte	0x192
 9280 281e E4200000 		.4byte	0x20e4
 9281 2822 08       		.byte	0x8
 9282 2823 19       		.uleb128 0x19
 9283 2824 A3010000 		.4byte	.LASF568
 9284 2828 27       		.byte	0x27
 9285 2829 9601     		.2byte	0x196
 9286 282b 7D200000 		.4byte	0x207d
 9287 282f 0C       		.byte	0xc
 9288 2830 00       		.byte	0
 9289 2831 08       		.uleb128 0x8
 9290 2832 7D0D0000 		.4byte	.LASF569
 9291 2836 27       		.byte	0x27
 9292 2837 9801     		.2byte	0x198
 9293 2839 F3270000 		.4byte	0x27f3
 9294 283d 10       		.uleb128 0x10
 9295 283e 31280000 		.4byte	0x2831
 9296 2842 06       		.uleb128 0x6
 9297 2843 04       		.byte	0x4
 9298 2844 3D280000 		.4byte	0x283d
 9299 2848 0B       		.uleb128 0xb
 9300 2849 58280000 		.4byte	0x2858
 9301 284d 58280000 		.4byte	0x2858
 9302 2851 0C       		.uleb128 0xc
 9303 2852 20010000 		.4byte	0x120
 9304 2856 05       		.byte	0x5
 9305 2857 00       		.byte	0
 9306 2858 06       		.uleb128 0x6
 9307 2859 04       		.byte	0x4
 9308 285a EE270000 		.4byte	0x27ee
 9309 285e 0B       		.uleb128 0xb
 9310 285f 5E010000 		.4byte	0x15e
 9311 2863 6E280000 		.4byte	0x286e
 9312 2867 0C       		.uleb128 0xc
 9313 2868 20010000 		.4byte	0x120
 9314 286c 04       		.byte	0x4
 9315 286d 00       		.byte	0
 9316 286e 0B       		.uleb128 0xb
 9317 286f E7080000 		.4byte	0x8e7
 9318 2873 7E280000 		.4byte	0x287e
 9319 2877 0C       		.uleb128 0xc
 9320 2878 20010000 		.4byte	0x120
 9321 287c 07       		.byte	0x7
 9322 287d 00       		.byte	0
 9323 287e 06       		.uleb128 0x6
 9324 287f 04       		.byte	0x4
 9325 2880 53260000 		.4byte	0x2653
ARM GAS  /tmp/ccDE0Mq0.s 			page 165


 9326 2884 06       		.uleb128 0x6
 9327 2885 04       		.byte	0x4
 9328 2886 97260000 		.4byte	0x2697
 9329 288a 0B       		.uleb128 0xb
 9330 288b 02100000 		.4byte	0x1002
 9331 288f 9A280000 		.4byte	0x289a
 9332 2893 0C       		.uleb128 0xc
 9333 2894 20010000 		.4byte	0x120
 9334 2898 3D       		.byte	0x3d
 9335 2899 00       		.byte	0
 9336 289a 20       		.uleb128 0x20
 9337 289b B9000000 		.4byte	.LASF570
 9338 289f 27       		.byte	0x27
 9339 28a0 3C02     		.2byte	0x23c
 9340 28a2 051E0000 		.4byte	0x1e05
 9341 28a6 2A       		.uleb128 0x2a
 9342 28a7 9A280000 		.4byte	0x289a
 9343 28ab 07       		.byte	0x7
 9344 28ac 46       		.byte	0x46
 9345 28ad 05       		.uleb128 0x5
 9346 28ae 03       		.byte	0x3
 9347 28af 00000000 		.4byte	USBD2
 9348 28b3 09       		.uleb128 0x9
 9349 28b4 14       		.byte	0x14
 9350 28b5 07       		.byte	0x7
 9351 28b6 52       		.byte	0x52
 9352 28b7 D1280000 		.4byte	0x28d1
 9353 28bb 2B       		.uleb128 0x2b
 9354 28bc 696E00   		.ascii	"in\000"
 9355 28bf 07       		.byte	0x7
 9356 28c0 56       		.byte	0x56
 9357 28c1 E7260000 		.4byte	0x26e7
 9358 28c5 2B       		.uleb128 0x2b
 9359 28c6 6F757400 		.ascii	"out\000"
 9360 28ca 07       		.byte	0x7
 9361 28cb 5A       		.byte	0x5a
 9362 28cc 3E270000 		.4byte	0x273e
 9363 28d0 00       		.byte	0
 9364 28d1 2C       		.uleb128 0x2c
 9365 28d2 05140000 		.4byte	.LASF571
 9366 28d6 07       		.byte	0x7
 9367 28d7 5B       		.byte	0x5b
 9368 28d8 B3280000 		.4byte	0x28b3
 9369 28dc 05       		.uleb128 0x5
 9370 28dd 03       		.byte	0x3
 9371 28de 00000000 		.4byte	ep0_state
 9372 28e2 2C       		.uleb128 0x2c
 9373 28e3 FF060000 		.4byte	.LASF572
 9374 28e7 07       		.byte	0x7
 9375 28e8 60       		.byte	0x60
 9376 28e9 6E280000 		.4byte	0x286e
 9377 28ed 05       		.uleb128 0x5
 9378 28ee 03       		.byte	0x3
 9379 28ef 00000000 		.4byte	ep0setup_buffer
 9380 28f3 2C       		.uleb128 0x2c
 9381 28f4 7B020000 		.4byte	.LASF573
 9382 28f8 07       		.byte	0x7
ARM GAS  /tmp/ccDE0Mq0.s 			page 166


 9383 28f9 65       		.byte	0x65
 9384 28fa EE270000 		.4byte	0x27ee
 9385 28fe 05       		.uleb128 0x5
 9386 28ff 03       		.byte	0x3
 9387 2900 00000000 		.4byte	ep0config
 9388 2904 2C       		.uleb128 0x2c
 9389 2905 1A060000 		.4byte	.LASF574
 9390 2909 07       		.byte	0x7
 9391 290a 7B       		.byte	0x7b
 9392 290b 97260000 		.4byte	0x2697
 9393 290f 05       		.uleb128 0x5
 9394 2910 03       		.byte	0x3
 9395 2911 00000000 		.4byte	hsparams
 9396 2915 2D       		.uleb128 0x2d
 9397 2916 95130000 		.4byte	.LASF579
 9398 291a 07       		.byte	0x7
 9399 291b 3305     		.2byte	0x533
 9400 291d 00000000 		.4byte	.LFB300
 9401 2921 0C010000 		.4byte	.LFE300-.LFB300
 9402 2925 01       		.uleb128 0x1
 9403 2926 9C       		.byte	0x9c
 9404 2927 97290000 		.4byte	0x2997
 9405 292b 2E       		.uleb128 0x2e
 9406 292c 7000     		.ascii	"p\000"
 9407 292e 07       		.byte	0x7
 9408 292f 3305     		.2byte	0x533
 9409 2931 5E010000 		.4byte	0x15e
 9410 2935 02       		.uleb128 0x2
 9411 2936 91       		.byte	0x91
 9412 2937 5C       		.sleb128 -36
 9413 2938 2F       		.uleb128 0x2f
 9414 2939 45180000 		.4byte	.LASF575
 9415 293d 07       		.byte	0x7
 9416 293e 3405     		.2byte	0x534
 9417 2940 9A200000 		.4byte	0x209a
 9418 2944 02       		.uleb128 0x2
 9419 2945 91       		.byte	0x91
 9420 2946 70       		.sleb128 -16
 9421 2947 2F       		.uleb128 0x2f
 9422 2948 3C140000 		.4byte	.LASF576
 9423 294c 07       		.byte	0x7
 9424 294d 3505     		.2byte	0x535
 9425 294f 7E280000 		.4byte	0x287e
 9426 2953 02       		.uleb128 0x2
 9427 2954 91       		.byte	0x91
 9428 2955 6C       		.sleb128 -20
 9429 2956 30       		.uleb128 0x30
 9430 2957 1A000000 		.4byte	.LBB15
 9431 295b EA000000 		.4byte	.LBE15-.LBB15
 9432 295f 31       		.uleb128 0x31
 9433 2960 657000   		.ascii	"ep\000"
 9434 2963 07       		.byte	0x7
 9435 2964 3C05     		.2byte	0x53c
 9436 2966 4A1F0000 		.4byte	0x1f4a
 9437 296a 02       		.uleb128 0x2
 9438 296b 91       		.byte	0x91
 9439 296c 77       		.sleb128 -9
ARM GAS  /tmp/ccDE0Mq0.s 			page 167


 9440 296d 2F       		.uleb128 0x2f
 9441 296e DC120000 		.4byte	.LASF577
 9442 2972 07       		.byte	0x7
 9443 2973 3D05     		.2byte	0x53d
 9444 2975 12090000 		.4byte	0x912
 9445 2979 02       		.uleb128 0x2
 9446 297a 91       		.byte	0x91
 9447 297b 68       		.sleb128 -24
 9448 297c 30       		.uleb128 0x30
 9449 297d 82000000 		.4byte	.LBB16
 9450 2981 66000000 		.4byte	.LBE16-.LBB16
 9451 2985 2F       		.uleb128 0x2f
 9452 2986 3D010000 		.4byte	.LASF578
 9453 298a 07       		.byte	0x7
 9454 298b 5105     		.2byte	0x551
 9455 298d AF140000 		.4byte	0x14af
 9456 2991 02       		.uleb128 0x2
 9457 2992 91       		.byte	0x91
 9458 2993 67       		.sleb128 -25
 9459 2994 00       		.byte	0
 9460 2995 00       		.byte	0
 9461 2996 00       		.byte	0
 9462 2997 32       		.uleb128 0x32
 9463 2998 AE080000 		.4byte	.LASF580
 9464 299c 07       		.byte	0x7
 9465 299d 2305     		.2byte	0x523
 9466 299f 00000000 		.4byte	.LFB299
 9467 29a3 34000000 		.4byte	.LFE299-.LFB299
 9468 29a7 01       		.uleb128 0x1
 9469 29a8 9C       		.byte	0x9c
 9470 29a9 CB290000 		.4byte	0x29cb
 9471 29ad 33       		.uleb128 0x33
 9472 29ae 45180000 		.4byte	.LASF575
 9473 29b2 07       		.byte	0x7
 9474 29b3 2305     		.2byte	0x523
 9475 29b5 9A200000 		.4byte	0x209a
 9476 29b9 02       		.uleb128 0x2
 9477 29ba 91       		.byte	0x91
 9478 29bb 7C       		.sleb128 -4
 9479 29bc 2E       		.uleb128 0x2e
 9480 29bd 657000   		.ascii	"ep\000"
 9481 29c0 07       		.byte	0x7
 9482 29c1 2305     		.2byte	0x523
 9483 29c3 4A1F0000 		.4byte	0x1f4a
 9484 29c7 02       		.uleb128 0x2
 9485 29c8 91       		.byte	0x91
 9486 29c9 7B       		.sleb128 -5
 9487 29ca 00       		.byte	0
 9488 29cb 32       		.uleb128 0x32
 9489 29cc EA180000 		.4byte	.LASF581
 9490 29d0 07       		.byte	0x7
 9491 29d1 1605     		.2byte	0x516
 9492 29d3 00000000 		.4byte	.LFB298
 9493 29d7 34000000 		.4byte	.LFE298-.LFB298
 9494 29db 01       		.uleb128 0x1
 9495 29dc 9C       		.byte	0x9c
 9496 29dd FF290000 		.4byte	0x29ff
ARM GAS  /tmp/ccDE0Mq0.s 			page 168


 9497 29e1 33       		.uleb128 0x33
 9498 29e2 45180000 		.4byte	.LASF575
 9499 29e6 07       		.byte	0x7
 9500 29e7 1605     		.2byte	0x516
 9501 29e9 9A200000 		.4byte	0x209a
 9502 29ed 02       		.uleb128 0x2
 9503 29ee 91       		.byte	0x91
 9504 29ef 7C       		.sleb128 -4
 9505 29f0 2E       		.uleb128 0x2e
 9506 29f1 657000   		.ascii	"ep\000"
 9507 29f4 07       		.byte	0x7
 9508 29f5 1605     		.2byte	0x516
 9509 29f7 4A1F0000 		.4byte	0x1f4a
 9510 29fb 02       		.uleb128 0x2
 9511 29fc 91       		.byte	0x91
 9512 29fd 7B       		.sleb128 -5
 9513 29fe 00       		.byte	0
 9514 29ff 32       		.uleb128 0x32
 9515 2a00 ED0C0000 		.4byte	.LASF582
 9516 2a04 07       		.byte	0x7
 9517 2a05 0905     		.2byte	0x509
 9518 2a07 00000000 		.4byte	.LFB297
 9519 2a0b 34000000 		.4byte	.LFE297-.LFB297
 9520 2a0f 01       		.uleb128 0x1
 9521 2a10 9C       		.byte	0x9c
 9522 2a11 332A0000 		.4byte	0x2a33
 9523 2a15 33       		.uleb128 0x33
 9524 2a16 45180000 		.4byte	.LASF575
 9525 2a1a 07       		.byte	0x7
 9526 2a1b 0905     		.2byte	0x509
 9527 2a1d 9A200000 		.4byte	0x209a
 9528 2a21 02       		.uleb128 0x2
 9529 2a22 91       		.byte	0x91
 9530 2a23 7C       		.sleb128 -4
 9531 2a24 2E       		.uleb128 0x2e
 9532 2a25 657000   		.ascii	"ep\000"
 9533 2a28 07       		.byte	0x7
 9534 2a29 0905     		.2byte	0x509
 9535 2a2b 4A1F0000 		.4byte	0x1f4a
 9536 2a2f 02       		.uleb128 0x2
 9537 2a30 91       		.byte	0x91
 9538 2a31 7B       		.sleb128 -5
 9539 2a32 00       		.byte	0
 9540 2a33 32       		.uleb128 0x32
 9541 2a34 231B0000 		.4byte	.LASF583
 9542 2a38 07       		.byte	0x7
 9543 2a39 FC04     		.2byte	0x4fc
 9544 2a3b 00000000 		.4byte	.LFB296
 9545 2a3f 34000000 		.4byte	.LFE296-.LFB296
 9546 2a43 01       		.uleb128 0x1
 9547 2a44 9C       		.byte	0x9c
 9548 2a45 672A0000 		.4byte	0x2a67
 9549 2a49 33       		.uleb128 0x33
 9550 2a4a 45180000 		.4byte	.LASF575
 9551 2a4e 07       		.byte	0x7
 9552 2a4f FC04     		.2byte	0x4fc
 9553 2a51 9A200000 		.4byte	0x209a
ARM GAS  /tmp/ccDE0Mq0.s 			page 169


 9554 2a55 02       		.uleb128 0x2
 9555 2a56 91       		.byte	0x91
 9556 2a57 7C       		.sleb128 -4
 9557 2a58 2E       		.uleb128 0x2e
 9558 2a59 657000   		.ascii	"ep\000"
 9559 2a5c 07       		.byte	0x7
 9560 2a5d FC04     		.2byte	0x4fc
 9561 2a5f 4A1F0000 		.4byte	0x1f4a
 9562 2a63 02       		.uleb128 0x2
 9563 2a64 91       		.byte	0x91
 9564 2a65 7B       		.sleb128 -5
 9565 2a66 00       		.byte	0
 9566 2a67 32       		.uleb128 0x32
 9567 2a68 80040000 		.4byte	.LASF584
 9568 2a6c 07       		.byte	0x7
 9569 2a6d D104     		.2byte	0x4d1
 9570 2a6f 00000000 		.4byte	.LFB295
 9571 2a73 60010000 		.4byte	.LFE295-.LFB295
 9572 2a77 01       		.uleb128 0x1
 9573 2a78 9C       		.byte	0x9c
 9574 2a79 C32A0000 		.4byte	0x2ac3
 9575 2a7d 33       		.uleb128 0x33
 9576 2a7e 45180000 		.4byte	.LASF575
 9577 2a82 07       		.byte	0x7
 9578 2a83 D104     		.2byte	0x4d1
 9579 2a85 9A200000 		.4byte	0x209a
 9580 2a89 02       		.uleb128 0x2
 9581 2a8a 91       		.byte	0x91
 9582 2a8b 74       		.sleb128 -12
 9583 2a8c 2E       		.uleb128 0x2e
 9584 2a8d 657000   		.ascii	"ep\000"
 9585 2a90 07       		.byte	0x7
 9586 2a91 D104     		.2byte	0x4d1
 9587 2a93 4A1F0000 		.4byte	0x1f4a
 9588 2a97 02       		.uleb128 0x2
 9589 2a98 91       		.byte	0x91
 9590 2a99 73       		.sleb128 -13
 9591 2a9a 31       		.uleb128 0x31
 9592 2a9b 69737000 		.ascii	"isp\000"
 9593 2a9f 07       		.byte	0x7
 9594 2aa0 D204     		.2byte	0x4d2
 9595 2aa2 D6270000 		.4byte	0x27d6
 9596 2aa6 02       		.uleb128 0x2
 9597 2aa7 91       		.byte	0x91
 9598 2aa8 7C       		.sleb128 -4
 9599 2aa9 30       		.uleb128 0x30
 9600 2aaa 44000000 		.4byte	.LBB14
 9601 2aae 64000000 		.4byte	.LBE14-.LBB14
 9602 2ab2 2F       		.uleb128 0x2f
 9603 2ab3 41130000 		.4byte	.LASF585
 9604 2ab7 07       		.byte	0x7
 9605 2ab8 DF04     		.2byte	0x4df
 9606 2aba 12090000 		.4byte	0x912
 9607 2abe 02       		.uleb128 0x2
 9608 2abf 91       		.byte	0x91
 9609 2ac0 78       		.sleb128 -8
 9610 2ac1 00       		.byte	0
ARM GAS  /tmp/ccDE0Mq0.s 			page 170


 9611 2ac2 00       		.byte	0
 9612 2ac3 32       		.uleb128 0x32
 9613 2ac4 7C070000 		.4byte	.LASF586
 9614 2ac8 07       		.byte	0x7
 9615 2ac9 A604     		.2byte	0x4a6
 9616 2acb 00000000 		.4byte	.LFB294
 9617 2acf 42010000 		.4byte	.LFE294-.LFB294
 9618 2ad3 01       		.uleb128 0x1
 9619 2ad4 9C       		.byte	0x9c
 9620 2ad5 242B0000 		.4byte	0x2b24
 9621 2ad9 33       		.uleb128 0x33
 9622 2ada 45180000 		.4byte	.LASF575
 9623 2ade 07       		.byte	0x7
 9624 2adf A604     		.2byte	0x4a6
 9625 2ae1 9A200000 		.4byte	0x209a
 9626 2ae5 02       		.uleb128 0x2
 9627 2ae6 91       		.byte	0x91
 9628 2ae7 6C       		.sleb128 -20
 9629 2ae8 2E       		.uleb128 0x2e
 9630 2ae9 657000   		.ascii	"ep\000"
 9631 2aec 07       		.byte	0x7
 9632 2aed A604     		.2byte	0x4a6
 9633 2aef 4A1F0000 		.4byte	0x1f4a
 9634 2af3 02       		.uleb128 0x2
 9635 2af4 91       		.byte	0x91
 9636 2af5 6B       		.sleb128 -21
 9637 2af6 2F       		.uleb128 0x2f
 9638 2af7 41130000 		.4byte	.LASF585
 9639 2afb 07       		.byte	0x7
 9640 2afc A704     		.2byte	0x4a7
 9641 2afe 12090000 		.4byte	0x912
 9642 2b02 02       		.uleb128 0x2
 9643 2b03 91       		.byte	0x91
 9644 2b04 78       		.sleb128 -8
 9645 2b05 2F       		.uleb128 0x2f
 9646 2b06 DD0E0000 		.4byte	.LASF550
 9647 2b0a 07       		.byte	0x7
 9648 2b0b A704     		.2byte	0x4a7
 9649 2b0d 12090000 		.4byte	0x912
 9650 2b11 02       		.uleb128 0x2
 9651 2b12 91       		.byte	0x91
 9652 2b13 74       		.sleb128 -12
 9653 2b14 31       		.uleb128 0x31
 9654 2b15 6F737000 		.ascii	"osp\000"
 9655 2b19 07       		.byte	0x7
 9656 2b1a A804     		.2byte	0x4a8
 9657 2b1c DC270000 		.4byte	0x27dc
 9658 2b20 02       		.uleb128 0x2
 9659 2b21 91       		.byte	0x91
 9660 2b22 7C       		.sleb128 -4
 9661 2b23 00       		.byte	0
 9662 2b24 2D       		.uleb128 0x2d
 9663 2b25 69070000 		.4byte	.LASF587
 9664 2b29 07       		.byte	0x7
 9665 2b2a 9904     		.2byte	0x499
 9666 2b2c 00000000 		.4byte	.LFB293
 9667 2b30 30000000 		.4byte	.LFE293-.LFB293
ARM GAS  /tmp/ccDE0Mq0.s 			page 171


 9668 2b34 01       		.uleb128 0x1
 9669 2b35 9C       		.byte	0x9c
 9670 2b36 672B0000 		.4byte	0x2b67
 9671 2b3a 33       		.uleb128 0x33
 9672 2b3b 45180000 		.4byte	.LASF575
 9673 2b3f 07       		.byte	0x7
 9674 2b40 9904     		.2byte	0x499
 9675 2b42 9A200000 		.4byte	0x209a
 9676 2b46 02       		.uleb128 0x2
 9677 2b47 91       		.byte	0x91
 9678 2b48 74       		.sleb128 -12
 9679 2b49 2E       		.uleb128 0x2e
 9680 2b4a 657000   		.ascii	"ep\000"
 9681 2b4d 07       		.byte	0x7
 9682 2b4e 9904     		.2byte	0x499
 9683 2b50 4A1F0000 		.4byte	0x1f4a
 9684 2b54 02       		.uleb128 0x2
 9685 2b55 91       		.byte	0x91
 9686 2b56 73       		.sleb128 -13
 9687 2b57 2E       		.uleb128 0x2e
 9688 2b58 62756600 		.ascii	"buf\000"
 9689 2b5c 07       		.byte	0x7
 9690 2b5d 9904     		.2byte	0x499
 9691 2b5f 50150000 		.4byte	0x1550
 9692 2b63 02       		.uleb128 0x2
 9693 2b64 91       		.byte	0x91
 9694 2b65 6C       		.sleb128 -20
 9695 2b66 00       		.byte	0
 9696 2b67 34       		.uleb128 0x34
 9697 2b68 7D0F0000 		.4byte	.LASF588
 9698 2b6c 07       		.byte	0x7
 9699 2b6d 7E04     		.2byte	0x47e
 9700 2b6f B41F0000 		.4byte	0x1fb4
 9701 2b73 00000000 		.4byte	.LFB292
 9702 2b77 40000000 		.4byte	.LFE292-.LFB292
 9703 2b7b 01       		.uleb128 0x1
 9704 2b7c 9C       		.byte	0x9c
 9705 2b7d AE2B0000 		.4byte	0x2bae
 9706 2b81 33       		.uleb128 0x33
 9707 2b82 45180000 		.4byte	.LASF575
 9708 2b86 07       		.byte	0x7
 9709 2b87 7E04     		.2byte	0x47e
 9710 2b89 9A200000 		.4byte	0x209a
 9711 2b8d 02       		.uleb128 0x2
 9712 2b8e 91       		.byte	0x91
 9713 2b8f 74       		.sleb128 -12
 9714 2b90 2E       		.uleb128 0x2e
 9715 2b91 657000   		.ascii	"ep\000"
 9716 2b94 07       		.byte	0x7
 9717 2b95 7E04     		.2byte	0x47e
 9718 2b97 4A1F0000 		.4byte	0x1f4a
 9719 2b9b 02       		.uleb128 0x2
 9720 2b9c 91       		.byte	0x91
 9721 2b9d 73       		.sleb128 -13
 9722 2b9e 31       		.uleb128 0x31
 9723 2b9f 63746C00 		.ascii	"ctl\000"
 9724 2ba3 07       		.byte	0x7
ARM GAS  /tmp/ccDE0Mq0.s 			page 172


 9725 2ba4 7F04     		.2byte	0x47f
 9726 2ba6 12090000 		.4byte	0x912
 9727 2baa 02       		.uleb128 0x2
 9728 2bab 91       		.byte	0x91
 9729 2bac 7C       		.sleb128 -4
 9730 2bad 00       		.byte	0
 9731 2bae 34       		.uleb128 0x34
 9732 2baf 1C180000 		.4byte	.LASF589
 9733 2bb3 07       		.byte	0x7
 9734 2bb4 6504     		.2byte	0x465
 9735 2bb6 B41F0000 		.4byte	0x1fb4
 9736 2bba 00000000 		.4byte	.LFB291
 9737 2bbe 40000000 		.4byte	.LFE291-.LFB291
 9738 2bc2 01       		.uleb128 0x1
 9739 2bc3 9C       		.byte	0x9c
 9740 2bc4 F52B0000 		.4byte	0x2bf5
 9741 2bc8 33       		.uleb128 0x33
 9742 2bc9 45180000 		.4byte	.LASF575
 9743 2bcd 07       		.byte	0x7
 9744 2bce 6504     		.2byte	0x465
 9745 2bd0 9A200000 		.4byte	0x209a
 9746 2bd4 02       		.uleb128 0x2
 9747 2bd5 91       		.byte	0x91
 9748 2bd6 74       		.sleb128 -12
 9749 2bd7 2E       		.uleb128 0x2e
 9750 2bd8 657000   		.ascii	"ep\000"
 9751 2bdb 07       		.byte	0x7
 9752 2bdc 6504     		.2byte	0x465
 9753 2bde 4A1F0000 		.4byte	0x1f4a
 9754 2be2 02       		.uleb128 0x2
 9755 2be3 91       		.byte	0x91
 9756 2be4 73       		.sleb128 -13
 9757 2be5 31       		.uleb128 0x31
 9758 2be6 63746C00 		.ascii	"ctl\000"
 9759 2bea 07       		.byte	0x7
 9760 2beb 6604     		.2byte	0x466
 9761 2bed 12090000 		.4byte	0x912
 9762 2bf1 02       		.uleb128 0x2
 9763 2bf2 91       		.byte	0x91
 9764 2bf3 7C       		.sleb128 -4
 9765 2bf4 00       		.byte	0
 9766 2bf5 2D       		.uleb128 0x2d
 9767 2bf6 E40E0000 		.4byte	.LASF590
 9768 2bfa 07       		.byte	0x7
 9769 2bfb 5004     		.2byte	0x450
 9770 2bfd 00000000 		.4byte	.LFB290
 9771 2c01 1A000000 		.4byte	.LFE290-.LFB290
 9772 2c05 01       		.uleb128 0x1
 9773 2c06 9C       		.byte	0x9c
 9774 2c07 1B2C0000 		.4byte	0x2c1b
 9775 2c0b 33       		.uleb128 0x33
 9776 2c0c 45180000 		.4byte	.LASF575
 9777 2c10 07       		.byte	0x7
 9778 2c11 5004     		.2byte	0x450
 9779 2c13 9A200000 		.4byte	0x209a
 9780 2c17 02       		.uleb128 0x2
 9781 2c18 91       		.byte	0x91
ARM GAS  /tmp/ccDE0Mq0.s 			page 173


 9782 2c19 74       		.sleb128 -12
 9783 2c1a 00       		.byte	0
 9784 2c1b 2D       		.uleb128 0x2d
 9785 2c1c 80190000 		.4byte	.LASF591
 9786 2c20 07       		.byte	0x7
 9787 2c21 1004     		.2byte	0x410
 9788 2c23 00000000 		.4byte	.LFB289
 9789 2c27 58020000 		.4byte	.LFE289-.LFB289
 9790 2c2b 01       		.uleb128 0x1
 9791 2c2c 9C       		.byte	0x9c
 9792 2c2d 7C2C0000 		.4byte	0x2c7c
 9793 2c31 33       		.uleb128 0x33
 9794 2c32 45180000 		.4byte	.LASF575
 9795 2c36 07       		.byte	0x7
 9796 2c37 1004     		.2byte	0x410
 9797 2c39 9A200000 		.4byte	0x209a
 9798 2c3d 02       		.uleb128 0x2
 9799 2c3e 91       		.byte	0x91
 9800 2c3f 5C       		.sleb128 -36
 9801 2c40 2E       		.uleb128 0x2e
 9802 2c41 657000   		.ascii	"ep\000"
 9803 2c44 07       		.byte	0x7
 9804 2c45 1004     		.2byte	0x410
 9805 2c47 4A1F0000 		.4byte	0x1f4a
 9806 2c4b 02       		.uleb128 0x2
 9807 2c4c 91       		.byte	0x91
 9808 2c4d 5B       		.sleb128 -37
 9809 2c4e 31       		.uleb128 0x31
 9810 2c4f 63746C00 		.ascii	"ctl\000"
 9811 2c53 07       		.byte	0x7
 9812 2c54 1104     		.2byte	0x411
 9813 2c56 12090000 		.4byte	0x912
 9814 2c5a 02       		.uleb128 0x2
 9815 2c5b 91       		.byte	0x91
 9816 2c5c 6C       		.sleb128 -20
 9817 2c5d 2F       		.uleb128 0x2f
 9818 2c5e 940D0000 		.4byte	.LASF592
 9819 2c62 07       		.byte	0x7
 9820 2c63 1104     		.2byte	0x411
 9821 2c65 12090000 		.4byte	0x912
 9822 2c69 02       		.uleb128 0x2
 9823 2c6a 91       		.byte	0x91
 9824 2c6b 68       		.sleb128 -24
 9825 2c6c 2F       		.uleb128 0x2f
 9826 2c6d 3C140000 		.4byte	.LASF576
 9827 2c71 07       		.byte	0x7
 9828 2c72 1204     		.2byte	0x412
 9829 2c74 7E280000 		.4byte	0x287e
 9830 2c78 02       		.uleb128 0x2
 9831 2c79 91       		.byte	0x91
 9832 2c7a 64       		.sleb128 -28
 9833 2c7b 00       		.byte	0
 9834 2c7c 32       		.uleb128 0x32
 9835 2c7d 010A0000 		.4byte	.LASF593
 9836 2c81 07       		.byte	0x7
 9837 2c82 0204     		.2byte	0x402
 9838 2c84 00000000 		.4byte	.LFB288
ARM GAS  /tmp/ccDE0Mq0.s 			page 174


 9839 2c88 2A000000 		.4byte	.LFE288-.LFB288
 9840 2c8c 01       		.uleb128 0x1
 9841 2c8d 9C       		.byte	0x9c
 9842 2c8e B12C0000 		.4byte	0x2cb1
 9843 2c92 33       		.uleb128 0x33
 9844 2c93 45180000 		.4byte	.LASF575
 9845 2c97 07       		.byte	0x7
 9846 2c98 0204     		.2byte	0x402
 9847 2c9a 9A200000 		.4byte	0x209a
 9848 2c9e 02       		.uleb128 0x2
 9849 2c9f 91       		.byte	0x91
 9850 2ca0 74       		.sleb128 -12
 9851 2ca1 2F       		.uleb128 0x2f
 9852 2ca2 3C140000 		.4byte	.LASF576
 9853 2ca6 07       		.byte	0x7
 9854 2ca7 0304     		.2byte	0x403
 9855 2ca9 7E280000 		.4byte	0x287e
 9856 2cad 02       		.uleb128 0x2
 9857 2cae 91       		.byte	0x91
 9858 2caf 7C       		.sleb128 -4
 9859 2cb0 00       		.byte	0
 9860 2cb1 2D       		.uleb128 0x2d
 9861 2cb2 380F0000 		.4byte	.LASF594
 9862 2cb6 07       		.byte	0x7
 9863 2cb7 CC03     		.2byte	0x3cc
 9864 2cb9 00000000 		.4byte	.LFB287
 9865 2cbd 2C010000 		.4byte	.LFE287-.LFB287
 9866 2cc1 01       		.uleb128 0x1
 9867 2cc2 9C       		.byte	0x9c
 9868 2cc3 F32C0000 		.4byte	0x2cf3
 9869 2cc7 33       		.uleb128 0x33
 9870 2cc8 45180000 		.4byte	.LASF575
 9871 2ccc 07       		.byte	0x7
 9872 2ccd CC03     		.2byte	0x3cc
 9873 2ccf 9A200000 		.4byte	0x209a
 9874 2cd3 02       		.uleb128 0x2
 9875 2cd4 91       		.byte	0x91
 9876 2cd5 6C       		.sleb128 -20
 9877 2cd6 31       		.uleb128 0x31
 9878 2cd7 6900     		.ascii	"i\000"
 9879 2cd9 07       		.byte	0x7
 9880 2cda CD03     		.2byte	0x3cd
 9881 2cdc 3C000000 		.4byte	0x3c
 9882 2ce0 02       		.uleb128 0x2
 9883 2ce1 91       		.byte	0x91
 9884 2ce2 74       		.sleb128 -12
 9885 2ce3 2F       		.uleb128 0x2f
 9886 2ce4 3C140000 		.4byte	.LASF576
 9887 2ce8 07       		.byte	0x7
 9888 2ce9 CE03     		.2byte	0x3ce
 9889 2ceb 7E280000 		.4byte	0x287e
 9890 2cef 02       		.uleb128 0x2
 9891 2cf0 91       		.byte	0x91
 9892 2cf1 70       		.sleb128 -16
 9893 2cf2 00       		.byte	0
 9894 2cf3 2D       		.uleb128 0x2d
 9895 2cf4 22020000 		.4byte	.LASF595
ARM GAS  /tmp/ccDE0Mq0.s 			page 175


 9896 2cf8 07       		.byte	0x7
 9897 2cf9 A203     		.2byte	0x3a2
 9898 2cfb 00000000 		.4byte	.LFB286
 9899 2cff 60000000 		.4byte	.LFE286-.LFB286
 9900 2d03 01       		.uleb128 0x1
 9901 2d04 9C       		.byte	0x9c
 9902 2d05 282D0000 		.4byte	0x2d28
 9903 2d09 33       		.uleb128 0x33
 9904 2d0a 45180000 		.4byte	.LASF575
 9905 2d0e 07       		.byte	0x7
 9906 2d0f A203     		.2byte	0x3a2
 9907 2d11 9A200000 		.4byte	0x209a
 9908 2d15 02       		.uleb128 0x2
 9909 2d16 91       		.byte	0x91
 9910 2d17 6C       		.sleb128 -20
 9911 2d18 2F       		.uleb128 0x2f
 9912 2d19 3C140000 		.4byte	.LASF576
 9913 2d1d 07       		.byte	0x7
 9914 2d1e A303     		.2byte	0x3a3
 9915 2d20 7E280000 		.4byte	0x287e
 9916 2d24 02       		.uleb128 0x2
 9917 2d25 91       		.byte	0x91
 9918 2d26 74       		.sleb128 -12
 9919 2d27 00       		.byte	0
 9920 2d28 2D       		.uleb128 0x2d
 9921 2d29 450A0000 		.4byte	.LASF596
 9922 2d2d 07       		.byte	0x7
 9923 2d2e 1003     		.2byte	0x310
 9924 2d30 00000000 		.4byte	.LFB285
 9925 2d34 38010000 		.4byte	.LFE285-.LFB285
 9926 2d38 01       		.uleb128 0x1
 9927 2d39 9C       		.byte	0x9c
 9928 2d3a 5D2D0000 		.4byte	0x2d5d
 9929 2d3e 33       		.uleb128 0x33
 9930 2d3f 45180000 		.4byte	.LASF575
 9931 2d43 07       		.byte	0x7
 9932 2d44 1003     		.2byte	0x310
 9933 2d46 9A200000 		.4byte	0x209a
 9934 2d4a 02       		.uleb128 0x2
 9935 2d4b 91       		.byte	0x91
 9936 2d4c 6C       		.sleb128 -20
 9937 2d4d 2F       		.uleb128 0x2f
 9938 2d4e 3C140000 		.4byte	.LASF576
 9939 2d52 07       		.byte	0x7
 9940 2d53 1103     		.2byte	0x311
 9941 2d55 7E280000 		.4byte	0x287e
 9942 2d59 02       		.uleb128 0x2
 9943 2d5a 91       		.byte	0x91
 9944 2d5b 74       		.sleb128 -12
 9945 2d5c 00       		.byte	0
 9946 2d5d 2D       		.uleb128 0x2d
 9947 2d5e BB100000 		.4byte	.LASF597
 9948 2d62 07       		.byte	0x7
 9949 2d63 D202     		.2byte	0x2d2
 9950 2d65 00000000 		.4byte	.LFB284
 9951 2d69 64000000 		.4byte	.LFE284-.LFB284
 9952 2d6d 01       		.uleb128 0x1
ARM GAS  /tmp/ccDE0Mq0.s 			page 176


 9953 2d6e 9C       		.byte	0x9c
 9954 2d6f 8D2D0000 		.4byte	0x2d8d
 9955 2d73 30       		.uleb128 0x30
 9956 2d74 24000000 		.4byte	.LBB13
 9957 2d78 26000000 		.4byte	.LBE13-.LBB13
 9958 2d7c 31       		.uleb128 0x31
 9959 2d7d 77737000 		.ascii	"wsp\000"
 9960 2d81 07       		.byte	0x7
 9961 2d82 F902     		.2byte	0x2f9
 9962 2d84 5E010000 		.4byte	0x15e
 9963 2d88 02       		.uleb128 0x2
 9964 2d89 91       		.byte	0x91
 9965 2d8a 74       		.sleb128 -12
 9966 2d8b 00       		.byte	0
 9967 2d8c 00       		.byte	0
 9968 2d8d 35       		.uleb128 0x35
 9969 2d8e 9A0D0000 		.4byte	.LASF641
 9970 2d92 07       		.byte	0x7
 9971 2d93 BF02     		.2byte	0x2bf
 9972 2d95 00000000 		.4byte	.LFB283
 9973 2d99 20000000 		.4byte	.LFE283-.LFB283
 9974 2d9d 01       		.uleb128 0x1
 9975 2d9e 9C       		.byte	0x9c
 9976 2d9f 36       		.uleb128 0x36
 9977 2da0 03110000 		.4byte	.LASF598
 9978 2da4 07       		.byte	0x7
 9979 2da5 1102     		.2byte	0x211
 9980 2da7 00000000 		.4byte	.LFB282
 9981 2dab 26020000 		.4byte	.LFE282-.LFB282
 9982 2daf 01       		.uleb128 0x1
 9983 2db0 9C       		.byte	0x9c
 9984 2db1 F22D0000 		.4byte	0x2df2
 9985 2db5 33       		.uleb128 0x33
 9986 2db6 45180000 		.4byte	.LASF575
 9987 2dba 07       		.byte	0x7
 9988 2dbb 1102     		.2byte	0x211
 9989 2dbd 9A200000 		.4byte	0x209a
 9990 2dc1 02       		.uleb128 0x2
 9991 2dc2 91       		.byte	0x91
 9992 2dc3 64       		.sleb128 -28
 9993 2dc4 2F       		.uleb128 0x2f
 9994 2dc5 3C140000 		.4byte	.LASF576
 9995 2dc9 07       		.byte	0x7
 9996 2dca 1202     		.2byte	0x212
 9997 2dcc 7E280000 		.4byte	0x287e
 9998 2dd0 02       		.uleb128 0x2
 9999 2dd1 91       		.byte	0x91
 10000 2dd2 74       		.sleb128 -12
 10001 2dd3 31       		.uleb128 0x31
 10002 2dd4 73747300 		.ascii	"sts\000"
 10003 2dd8 07       		.byte	0x7
 10004 2dd9 1302     		.2byte	0x213
 10005 2ddb 12090000 		.4byte	0x912
 10006 2ddf 02       		.uleb128 0x2
 10007 2de0 91       		.byte	0x91
 10008 2de1 70       		.sleb128 -16
 10009 2de2 31       		.uleb128 0x31
ARM GAS  /tmp/ccDE0Mq0.s 			page 177


 10010 2de3 73726300 		.ascii	"src\000"
 10011 2de7 07       		.byte	0x7
 10012 2de8 1302     		.2byte	0x213
 10013 2dea 12090000 		.4byte	0x912
 10014 2dee 02       		.uleb128 0x2
 10015 2def 91       		.byte	0x91
 10016 2df0 6C       		.sleb128 -20
 10017 2df1 00       		.byte	0
 10018 2df2 36       		.uleb128 0x36
 10019 2df3 AF070000 		.4byte	.LASF599
 10020 2df7 07       		.byte	0x7
 10021 2df8 F701     		.2byte	0x1f7
 10022 2dfa 00000000 		.4byte	.LFB281
 10023 2dfe E0000000 		.4byte	.LFE281-.LFB281
 10024 2e02 01       		.uleb128 0x1
 10025 2e03 9C       		.byte	0x9c
 10026 2e04 352E0000 		.4byte	0x2e35
 10027 2e08 33       		.uleb128 0x33
 10028 2e09 45180000 		.4byte	.LASF575
 10029 2e0d 07       		.byte	0x7
 10030 2e0e F701     		.2byte	0x1f7
 10031 2e10 9A200000 		.4byte	0x209a
 10032 2e14 02       		.uleb128 0x2
 10033 2e15 91       		.byte	0x91
 10034 2e16 6C       		.sleb128 -20
 10035 2e17 31       		.uleb128 0x31
 10036 2e18 657000   		.ascii	"ep\000"
 10037 2e1b 07       		.byte	0x7
 10038 2e1c F801     		.2byte	0x1f8
 10039 2e1e 4A1F0000 		.4byte	0x1f4a
 10040 2e22 02       		.uleb128 0x2
 10041 2e23 91       		.byte	0x91
 10042 2e24 77       		.sleb128 -9
 10043 2e25 2F       		.uleb128 0x2f
 10044 2e26 3C140000 		.4byte	.LASF576
 10045 2e2a 07       		.byte	0x7
 10046 2e2b F901     		.2byte	0x1f9
 10047 2e2d 7E280000 		.4byte	0x287e
 10048 2e31 02       		.uleb128 0x2
 10049 2e32 91       		.byte	0x91
 10050 2e33 70       		.sleb128 -16
 10051 2e34 00       		.byte	0
 10052 2e35 36       		.uleb128 0x36
 10053 2e36 96100000 		.4byte	.LASF600
 10054 2e3a 07       		.byte	0x7
 10055 2e3b D301     		.2byte	0x1d3
 10056 2e3d 00000000 		.4byte	.LFB280
 10057 2e41 54010000 		.4byte	.LFE280-.LFB280
 10058 2e45 01       		.uleb128 0x1
 10059 2e46 9C       		.byte	0x9c
 10060 2e47 782E0000 		.4byte	0x2e78
 10061 2e4b 33       		.uleb128 0x33
 10062 2e4c 45180000 		.4byte	.LASF575
 10063 2e50 07       		.byte	0x7
 10064 2e51 D301     		.2byte	0x1d3
 10065 2e53 9A200000 		.4byte	0x209a
 10066 2e57 02       		.uleb128 0x2
ARM GAS  /tmp/ccDE0Mq0.s 			page 178


 10067 2e58 91       		.byte	0x91
 10068 2e59 6C       		.sleb128 -20
 10069 2e5a 31       		.uleb128 0x31
 10070 2e5b 657000   		.ascii	"ep\000"
 10071 2e5e 07       		.byte	0x7
 10072 2e5f D401     		.2byte	0x1d4
 10073 2e61 4A1F0000 		.4byte	0x1f4a
 10074 2e65 02       		.uleb128 0x2
 10075 2e66 91       		.byte	0x91
 10076 2e67 77       		.sleb128 -9
 10077 2e68 2F       		.uleb128 0x2f
 10078 2e69 3C140000 		.4byte	.LASF576
 10079 2e6d 07       		.byte	0x7
 10080 2e6e D501     		.2byte	0x1d5
 10081 2e70 7E280000 		.4byte	0x287e
 10082 2e74 02       		.uleb128 0x2
 10083 2e75 91       		.byte	0x91
 10084 2e76 70       		.sleb128 -16
 10085 2e77 00       		.byte	0
 10086 2e78 36       		.uleb128 0x36
 10087 2e79 88010000 		.4byte	.LASF601
 10088 2e7d 07       		.byte	0x7
 10089 2e7e 9A01     		.2byte	0x19a
 10090 2e80 00000000 		.4byte	.LFB279
 10091 2e84 7C010000 		.4byte	.LFE279-.LFB279
 10092 2e88 01       		.uleb128 0x1
 10093 2e89 9C       		.byte	0x9c
 10094 2e8a E32E0000 		.4byte	0x2ee3
 10095 2e8e 33       		.uleb128 0x33
 10096 2e8f 45180000 		.4byte	.LASF575
 10097 2e93 07       		.byte	0x7
 10098 2e94 9A01     		.2byte	0x19a
 10099 2e96 9A200000 		.4byte	0x209a
 10100 2e9a 02       		.uleb128 0x2
 10101 2e9b 91       		.byte	0x91
 10102 2e9c 64       		.sleb128 -28
 10103 2e9d 2E       		.uleb128 0x2e
 10104 2e9e 657000   		.ascii	"ep\000"
 10105 2ea1 07       		.byte	0x7
 10106 2ea2 9A01     		.2byte	0x19a
 10107 2ea4 4A1F0000 		.4byte	0x1f4a
 10108 2ea8 02       		.uleb128 0x2
 10109 2ea9 91       		.byte	0x91
 10110 2eaa 63       		.sleb128 -29
 10111 2eab 2F       		.uleb128 0x2f
 10112 2eac 3C140000 		.4byte	.LASF576
 10113 2eb0 07       		.byte	0x7
 10114 2eb1 9B01     		.2byte	0x19b
 10115 2eb3 7E280000 		.4byte	0x287e
 10116 2eb7 02       		.uleb128 0x2
 10117 2eb8 91       		.byte	0x91
 10118 2eb9 74       		.sleb128 -12
 10119 2eba 2F       		.uleb128 0x2f
 10120 2ebb 0B020000 		.4byte	.LASF602
 10121 2ebf 07       		.byte	0x7
 10122 2ec0 9C01     		.2byte	0x19c
 10123 2ec2 12090000 		.4byte	0x912
ARM GAS  /tmp/ccDE0Mq0.s 			page 179


 10124 2ec6 02       		.uleb128 0x2
 10125 2ec7 91       		.byte	0x91
 10126 2ec8 70       		.sleb128 -16
 10127 2ec9 30       		.uleb128 0x30
 10128 2eca 82000000 		.4byte	.LBB12
 10129 2ece F4000000 		.4byte	.LBE12-.LBB12
 10130 2ed2 31       		.uleb128 0x31
 10131 2ed3 6F737000 		.ascii	"osp\000"
 10132 2ed7 07       		.byte	0x7
 10133 2ed8 A801     		.2byte	0x1a8
 10134 2eda DC270000 		.4byte	0x27dc
 10135 2ede 02       		.uleb128 0x2
 10136 2edf 91       		.byte	0x91
 10137 2ee0 6C       		.sleb128 -20
 10138 2ee1 00       		.byte	0
 10139 2ee2 00       		.byte	0
 10140 2ee3 36       		.uleb128 0x36
 10141 2ee4 7A140000 		.4byte	.LASF603
 10142 2ee8 07       		.byte	0x7
 10143 2ee9 6B01     		.2byte	0x16b
 10144 2eeb 00000000 		.4byte	.LFB278
 10145 2eef 70010000 		.4byte	.LFE278-.LFB278
 10146 2ef3 01       		.uleb128 0x1
 10147 2ef4 9C       		.byte	0x9c
 10148 2ef5 4E2F0000 		.4byte	0x2f4e
 10149 2ef9 33       		.uleb128 0x33
 10150 2efa 45180000 		.4byte	.LASF575
 10151 2efe 07       		.byte	0x7
 10152 2eff 6B01     		.2byte	0x16b
 10153 2f01 9A200000 		.4byte	0x209a
 10154 2f05 02       		.uleb128 0x2
 10155 2f06 91       		.byte	0x91
 10156 2f07 64       		.sleb128 -28
 10157 2f08 2E       		.uleb128 0x2e
 10158 2f09 657000   		.ascii	"ep\000"
 10159 2f0c 07       		.byte	0x7
 10160 2f0d 6B01     		.2byte	0x16b
 10161 2f0f 4A1F0000 		.4byte	0x1f4a
 10162 2f13 02       		.uleb128 0x2
 10163 2f14 91       		.byte	0x91
 10164 2f15 63       		.sleb128 -29
 10165 2f16 2F       		.uleb128 0x2f
 10166 2f17 3C140000 		.4byte	.LASF576
 10167 2f1b 07       		.byte	0x7
 10168 2f1c 6C01     		.2byte	0x16c
 10169 2f1e 7E280000 		.4byte	0x287e
 10170 2f22 02       		.uleb128 0x2
 10171 2f23 91       		.byte	0x91
 10172 2f24 74       		.sleb128 -12
 10173 2f25 2F       		.uleb128 0x2f
 10174 2f26 0B020000 		.4byte	.LASF602
 10175 2f2a 07       		.byte	0x7
 10176 2f2b 6D01     		.2byte	0x16d
 10177 2f2d 12090000 		.4byte	0x912
 10178 2f31 02       		.uleb128 0x2
 10179 2f32 91       		.byte	0x91
 10180 2f33 70       		.sleb128 -16
ARM GAS  /tmp/ccDE0Mq0.s 			page 180


 10181 2f34 30       		.uleb128 0x30
 10182 2f35 4E000000 		.4byte	.LBB11
 10183 2f39 B8000000 		.4byte	.LBE11-.LBB11
 10184 2f3d 31       		.uleb128 0x31
 10185 2f3e 69737000 		.ascii	"isp\000"
 10186 2f42 07       		.byte	0x7
 10187 2f43 7601     		.2byte	0x176
 10188 2f45 D6270000 		.4byte	0x27d6
 10189 2f49 02       		.uleb128 0x2
 10190 2f4a 91       		.byte	0x91
 10191 2f4b 6C       		.sleb128 -20
 10192 2f4c 00       		.byte	0
 10193 2f4d 00       		.byte	0
 10194 2f4e 37       		.uleb128 0x37
 10195 2f4f 150A0000 		.4byte	.LASF608
 10196 2f53 07       		.byte	0x7
 10197 2f54 4101     		.2byte	0x141
 10198 2f56 AF140000 		.4byte	0x14af
 10199 2f5a 00000000 		.4byte	.LFB277
 10200 2f5e 2C010000 		.4byte	.LFE277-.LFB277
 10201 2f62 01       		.uleb128 0x1
 10202 2f63 9C       		.byte	0x9c
 10203 2f64 9D2F0000 		.4byte	0x2f9d
 10204 2f68 33       		.uleb128 0x33
 10205 2f69 45180000 		.4byte	.LASF575
 10206 2f6d 07       		.byte	0x7
 10207 2f6e 4101     		.2byte	0x141
 10208 2f70 9A200000 		.4byte	0x209a
 10209 2f74 02       		.uleb128 0x2
 10210 2f75 91       		.byte	0x91
 10211 2f76 6C       		.sleb128 -20
 10212 2f77 2E       		.uleb128 0x2e
 10213 2f78 657000   		.ascii	"ep\000"
 10214 2f7b 07       		.byte	0x7
 10215 2f7c 4101     		.2byte	0x141
 10216 2f7e 4A1F0000 		.4byte	0x1f4a
 10217 2f82 02       		.uleb128 0x2
 10218 2f83 91       		.byte	0x91
 10219 2f84 6B       		.sleb128 -21
 10220 2f85 30       		.uleb128 0x30
 10221 2f86 0C000000 		.4byte	.LBB10
 10222 2f8a 16010000 		.4byte	.LBE10-.LBB10
 10223 2f8e 31       		.uleb128 0x31
 10224 2f8f 6E00     		.ascii	"n\000"
 10225 2f91 07       		.byte	0x7
 10226 2f92 4501     		.2byte	0x145
 10227 2f94 12090000 		.4byte	0x912
 10228 2f98 02       		.uleb128 0x2
 10229 2f99 91       		.byte	0x91
 10230 2f9a 74       		.sleb128 -12
 10231 2f9b 00       		.byte	0
 10232 2f9c 00       		.byte	0
 10233 2f9d 36       		.uleb128 0x36
 10234 2f9e 8F050000 		.4byte	.LASF604
 10235 2fa2 07       		.byte	0x7
 10236 2fa3 1601     		.2byte	0x116
 10237 2fa5 00000000 		.4byte	.LFB276
ARM GAS  /tmp/ccDE0Mq0.s 			page 181


 10238 2fa9 0A010000 		.4byte	.LFE276-.LFB276
 10239 2fad 01       		.uleb128 0x1
 10240 2fae 9C       		.byte	0x9c
 10241 2faf EF2F0000 		.4byte	0x2fef
 10242 2fb3 33       		.uleb128 0x33
 10243 2fb4 45180000 		.4byte	.LASF575
 10244 2fb8 07       		.byte	0x7
 10245 2fb9 1601     		.2byte	0x116
 10246 2fbb 9A200000 		.4byte	0x209a
 10247 2fbf 02       		.uleb128 0x2
 10248 2fc0 91       		.byte	0x91
 10249 2fc1 64       		.sleb128 -28
 10250 2fc2 31       		.uleb128 0x31
 10251 2fc3 73747300 		.ascii	"sts\000"
 10252 2fc7 07       		.byte	0x7
 10253 2fc8 1701     		.2byte	0x117
 10254 2fca 12090000 		.4byte	0x912
 10255 2fce 02       		.uleb128 0x2
 10256 2fcf 91       		.byte	0x91
 10257 2fd0 74       		.sleb128 -12
 10258 2fd1 31       		.uleb128 0x31
 10259 2fd2 636E7400 		.ascii	"cnt\000"
 10260 2fd6 07       		.byte	0x7
 10261 2fd7 1701     		.2byte	0x117
 10262 2fd9 12090000 		.4byte	0x912
 10263 2fdd 02       		.uleb128 0x2
 10264 2fde 91       		.byte	0x91
 10265 2fdf 70       		.sleb128 -16
 10266 2fe0 31       		.uleb128 0x31
 10267 2fe1 657000   		.ascii	"ep\000"
 10268 2fe4 07       		.byte	0x7
 10269 2fe5 1701     		.2byte	0x117
 10270 2fe7 12090000 		.4byte	0x912
 10271 2feb 02       		.uleb128 0x2
 10272 2fec 91       		.byte	0x91
 10273 2fed 6C       		.sleb128 -20
 10274 2fee 00       		.byte	0
 10275 2fef 38       		.uleb128 0x38
 10276 2ff0 B41A0000 		.4byte	.LASF605
 10277 2ff4 07       		.byte	0x7
 10278 2ff5 FC       		.byte	0xfc
 10279 2ff6 00000000 		.4byte	.LFB275
 10280 2ffa 52000000 		.4byte	.LFE275-.LFB275
 10281 2ffe 01       		.uleb128 0x1
 10282 2fff 9C       		.byte	0x9c
 10283 3000 55300000 		.4byte	0x3055
 10284 3004 39       		.uleb128 0x39
 10285 3005 2A100000 		.4byte	.LASF606
 10286 3009 07       		.byte	0x7
 10287 300a FC       		.byte	0xfc
 10288 300b 30160000 		.4byte	0x1630
 10289 300f 02       		.uleb128 0x2
 10290 3010 91       		.byte	0x91
 10291 3011 74       		.sleb128 -12
 10292 3012 3A       		.uleb128 0x3a
 10293 3013 62756600 		.ascii	"buf\000"
 10294 3017 07       		.byte	0x7
ARM GAS  /tmp/ccDE0Mq0.s 			page 182


 10295 3018 FD       		.byte	0xfd
 10296 3019 50150000 		.4byte	0x1550
 10297 301d 02       		.uleb128 0x2
 10298 301e 91       		.byte	0x91
 10299 301f 70       		.sleb128 -16
 10300 3020 3A       		.uleb128 0x3a
 10301 3021 6E00     		.ascii	"n\000"
 10302 3023 07       		.byte	0x7
 10303 3024 FE       		.byte	0xfe
 10304 3025 2C000000 		.4byte	0x2c
 10305 3029 02       		.uleb128 0x2
 10306 302a 91       		.byte	0x91
 10307 302b 6C       		.sleb128 -20
 10308 302c 3A       		.uleb128 0x3a
 10309 302d 6D617800 		.ascii	"max\000"
 10310 3031 07       		.byte	0x7
 10311 3032 FF       		.byte	0xff
 10312 3033 2C000000 		.4byte	0x2c
 10313 3037 02       		.uleb128 0x2
 10314 3038 91       		.byte	0x91
 10315 3039 68       		.sleb128 -24
 10316 303a 31       		.uleb128 0x31
 10317 303b 7700     		.ascii	"w\000"
 10318 303d 07       		.byte	0x7
 10319 303e 0001     		.2byte	0x100
 10320 3040 12090000 		.4byte	0x912
 10321 3044 02       		.uleb128 0x2
 10322 3045 91       		.byte	0x91
 10323 3046 7C       		.sleb128 -4
 10324 3047 31       		.uleb128 0x31
 10325 3048 6900     		.ascii	"i\000"
 10326 304a 07       		.byte	0x7
 10327 304b 0101     		.2byte	0x101
 10328 304d 2C000000 		.4byte	0x2c
 10329 3051 02       		.uleb128 0x2
 10330 3052 91       		.byte	0x91
 10331 3053 78       		.sleb128 -8
 10332 3054 00       		.byte	0
 10333 3055 3B       		.uleb128 0x3b
 10334 3056 76030000 		.4byte	.LASF607
 10335 305a 07       		.byte	0x7
 10336 305b E2       		.byte	0xe2
 10337 305c 00000000 		.4byte	.LFB274
 10338 3060 40000000 		.4byte	.LFE274-.LFB274
 10339 3064 01       		.uleb128 0x1
 10340 3065 9C       		.byte	0x9c
 10341 3066 A2300000 		.4byte	0x30a2
 10342 306a 39       		.uleb128 0x39
 10343 306b 2A100000 		.4byte	.LASF606
 10344 306f 07       		.byte	0x7
 10345 3070 E2       		.byte	0xe2
 10346 3071 30160000 		.4byte	0x1630
 10347 3075 02       		.uleb128 0x2
 10348 3076 91       		.byte	0x91
 10349 3077 74       		.sleb128 -12
 10350 3078 3A       		.uleb128 0x3a
 10351 3079 62756600 		.ascii	"buf\000"
ARM GAS  /tmp/ccDE0Mq0.s 			page 183


 10352 307d 07       		.byte	0x7
 10353 307e E3       		.byte	0xe3
 10354 307f 85150000 		.4byte	0x1585
 10355 3083 02       		.uleb128 0x2
 10356 3084 91       		.byte	0x91
 10357 3085 70       		.sleb128 -16
 10358 3086 3A       		.uleb128 0x3a
 10359 3087 6E00     		.ascii	"n\000"
 10360 3089 07       		.byte	0x7
 10361 308a E4       		.byte	0xe4
 10362 308b 2C000000 		.4byte	0x2c
 10363 308f 02       		.uleb128 0x2
 10364 3090 91       		.byte	0x91
 10365 3091 6C       		.sleb128 -20
 10366 3092 3C       		.uleb128 0x3c
 10367 3093 6A000000 		.4byte	.LASF612
 10368 3097 B2300000 		.4byte	0x30b2
 10369 309b 05       		.uleb128 0x5
 10370 309c 03       		.byte	0x3
 10371 309d 00000000 		.4byte	__func__.9457
 10372 30a1 00       		.byte	0
 10373 30a2 0B       		.uleb128 0xb
 10374 30a3 6D010000 		.4byte	0x16d
 10375 30a7 B2300000 		.4byte	0x30b2
 10376 30ab 0C       		.uleb128 0xc
 10377 30ac 20010000 		.4byte	0x120
 10378 30b0 1A       		.byte	0x1a
 10379 30b1 00       		.byte	0
 10380 30b2 10       		.uleb128 0x10
 10381 30b3 A2300000 		.4byte	0x30a2
 10382 30b7 3D       		.uleb128 0x3d
 10383 30b8 A60A0000 		.4byte	.LASF609
 10384 30bc 07       		.byte	0x7
 10385 30bd CF       		.byte	0xcf
 10386 30be 12090000 		.4byte	0x912
 10387 30c2 00000000 		.4byte	.LFB273
 10388 30c6 3C000000 		.4byte	.LFE273-.LFB273
 10389 30ca 01       		.uleb128 0x1
 10390 30cb 9C       		.byte	0x9c
 10391 30cc 0A310000 		.4byte	0x310a
 10392 30d0 39       		.uleb128 0x39
 10393 30d1 45180000 		.4byte	.LASF575
 10394 30d5 07       		.byte	0x7
 10395 30d6 CF       		.byte	0xcf
 10396 30d7 9A200000 		.4byte	0x209a
 10397 30db 02       		.uleb128 0x2
 10398 30dc 91       		.byte	0x91
 10399 30dd 6C       		.sleb128 -20
 10400 30de 39       		.uleb128 0x39
 10401 30df 0C090000 		.4byte	.LASF610
 10402 30e3 07       		.byte	0x7
 10403 30e4 CF       		.byte	0xcf
 10404 30e5 2C000000 		.4byte	0x2c
 10405 30e9 02       		.uleb128 0x2
 10406 30ea 91       		.byte	0x91
 10407 30eb 68       		.sleb128 -24
 10408 30ec 2C       		.uleb128 0x2c
ARM GAS  /tmp/ccDE0Mq0.s 			page 184


 10409 30ed BC010000 		.4byte	.LASF611
 10410 30f1 07       		.byte	0x7
 10411 30f2 D0       		.byte	0xd0
 10412 30f3 12090000 		.4byte	0x912
 10413 30f7 02       		.uleb128 0x2
 10414 30f8 91       		.byte	0x91
 10415 30f9 74       		.sleb128 -12
 10416 30fa 3C       		.uleb128 0x3c
 10417 30fb 6A000000 		.4byte	.LASF612
 10418 30ff 1A310000 		.4byte	0x311a
 10419 3103 05       		.uleb128 0x5
 10420 3104 03       		.byte	0x3
 10421 3105 00000000 		.4byte	__func__.9451
 10422 3109 00       		.byte	0
 10423 310a 0B       		.uleb128 0xb
 10424 310b 6D010000 		.4byte	0x16d
 10425 310f 1A310000 		.4byte	0x311a
 10426 3113 0C       		.uleb128 0xc
 10427 3114 20010000 		.4byte	0x120
 10428 3118 0D       		.byte	0xd
 10429 3119 00       		.byte	0
 10430 311a 10       		.uleb128 0x10
 10431 311b 0A310000 		.4byte	0x310a
 10432 311f 38       		.uleb128 0x38
 10433 3120 77170000 		.4byte	.LASF613
 10434 3124 07       		.byte	0x7
 10435 3125 C2       		.byte	0xc2
 10436 3126 00000000 		.4byte	.LFB272
 10437 312a 14000000 		.4byte	.LFE272-.LFB272
 10438 312e 01       		.uleb128 0x1
 10439 312f 9C       		.byte	0x9c
 10440 3130 43310000 		.4byte	0x3143
 10441 3134 39       		.uleb128 0x39
 10442 3135 45180000 		.4byte	.LASF575
 10443 3139 07       		.byte	0x7
 10444 313a C2       		.byte	0xc2
 10445 313b 9A200000 		.4byte	0x209a
 10446 313f 02       		.uleb128 0x2
 10447 3140 91       		.byte	0x91
 10448 3141 7C       		.sleb128 -4
 10449 3142 00       		.byte	0
 10450 3143 3B       		.uleb128 0x3b
 10451 3144 C50D0000 		.4byte	.LASF614
 10452 3148 07       		.byte	0x7
 10453 3149 B1       		.byte	0xb1
 10454 314a 00000000 		.4byte	.LFB271
 10455 314e 36000000 		.4byte	.LFE271-.LFB271
 10456 3152 01       		.uleb128 0x1
 10457 3153 9C       		.byte	0x9c
 10458 3154 83310000 		.4byte	0x3183
 10459 3158 39       		.uleb128 0x39
 10460 3159 45180000 		.4byte	.LASF575
 10461 315d 07       		.byte	0x7
 10462 315e B1       		.byte	0xb1
 10463 315f 9A200000 		.4byte	0x209a
 10464 3163 02       		.uleb128 0x2
 10465 3164 91       		.byte	0x91
ARM GAS  /tmp/ccDE0Mq0.s 			page 185


 10466 3165 6C       		.sleb128 -20
 10467 3166 39       		.uleb128 0x39
 10468 3167 39080000 		.4byte	.LASF615
 10469 316b 07       		.byte	0x7
 10470 316c B1       		.byte	0xb1
 10471 316d 12090000 		.4byte	0x912
 10472 3171 02       		.uleb128 0x2
 10473 3172 91       		.byte	0x91
 10474 3173 68       		.sleb128 -24
 10475 3174 2C       		.uleb128 0x2c
 10476 3175 3C140000 		.4byte	.LASF576
 10477 3179 07       		.byte	0x7
 10478 317a B2       		.byte	0xb2
 10479 317b 7E280000 		.4byte	0x287e
 10480 317f 02       		.uleb128 0x2
 10481 3180 91       		.byte	0x91
 10482 3181 74       		.sleb128 -12
 10483 3182 00       		.byte	0
 10484 3183 3B       		.uleb128 0x3b
 10485 3184 3A190000 		.4byte	.LASF616
 10486 3188 07       		.byte	0x7
 10487 3189 A7       		.byte	0xa7
 10488 318a 00000000 		.4byte	.LFB270
 10489 318e 2E000000 		.4byte	.LFE270-.LFB270
 10490 3192 01       		.uleb128 0x1
 10491 3193 9C       		.byte	0x9c
 10492 3194 B5310000 		.4byte	0x31b5
 10493 3198 39       		.uleb128 0x39
 10494 3199 45180000 		.4byte	.LASF575
 10495 319d 07       		.byte	0x7
 10496 319e A7       		.byte	0xa7
 10497 319f 9A200000 		.4byte	0x209a
 10498 31a3 02       		.uleb128 0x2
 10499 31a4 91       		.byte	0x91
 10500 31a5 6C       		.sleb128 -20
 10501 31a6 2C       		.uleb128 0x2c
 10502 31a7 3C140000 		.4byte	.LASF576
 10503 31ab 07       		.byte	0x7
 10504 31ac A8       		.byte	0xa8
 10505 31ad 7E280000 		.4byte	0x287e
 10506 31b1 02       		.uleb128 0x2
 10507 31b2 91       		.byte	0x91
 10508 31b3 74       		.sleb128 -12
 10509 31b4 00       		.byte	0
 10510 31b5 38       		.uleb128 0x38
 10511 31b6 80050000 		.4byte	.LASF617
 10512 31ba 07       		.byte	0x7
 10513 31bb 97       		.byte	0x97
 10514 31bc 00000000 		.4byte	.LFB269
 10515 31c0 92000000 		.4byte	.LFE269-.LFB269
 10516 31c4 01       		.uleb128 0x1
 10517 31c5 9C       		.byte	0x9c
 10518 31c6 F3310000 		.4byte	0x31f3
 10519 31ca 39       		.uleb128 0x39
 10520 31cb 45180000 		.4byte	.LASF575
 10521 31cf 07       		.byte	0x7
 10522 31d0 97       		.byte	0x97
ARM GAS  /tmp/ccDE0Mq0.s 			page 186


 10523 31d1 9A200000 		.4byte	0x209a
 10524 31d5 02       		.uleb128 0x2
 10525 31d6 91       		.byte	0x91
 10526 31d7 74       		.sleb128 -12
 10527 31d8 2C       		.uleb128 0x2c
 10528 31d9 3C140000 		.4byte	.LASF576
 10529 31dd 07       		.byte	0x7
 10530 31de 98       		.byte	0x98
 10531 31df 7E280000 		.4byte	0x287e
 10532 31e3 02       		.uleb128 0x2
 10533 31e4 91       		.byte	0x91
 10534 31e5 78       		.sleb128 -8
 10535 31e6 3E       		.uleb128 0x3e
 10536 31e7 6900     		.ascii	"i\000"
 10537 31e9 07       		.byte	0x7
 10538 31ea 99       		.byte	0x99
 10539 31eb 3C000000 		.4byte	0x3c
 10540 31ef 02       		.uleb128 0x2
 10541 31f0 91       		.byte	0x91
 10542 31f1 7C       		.sleb128 -4
 10543 31f2 00       		.byte	0
 10544 31f3 3B       		.uleb128 0x3b
 10545 31f4 F9070000 		.4byte	.LASF618
 10546 31f8 07       		.byte	0x7
 10547 31f9 86       		.byte	0x86
 10548 31fa 00000000 		.4byte	.LFB268
 10549 31fe 3E000000 		.4byte	.LFE268-.LFB268
 10550 3202 01       		.uleb128 0x1
 10551 3203 9C       		.byte	0x9c
 10552 3204 25320000 		.4byte	0x3225
 10553 3208 39       		.uleb128 0x39
 10554 3209 45180000 		.4byte	.LASF575
 10555 320d 07       		.byte	0x7
 10556 320e 86       		.byte	0x86
 10557 320f 9A200000 		.4byte	0x209a
 10558 3213 02       		.uleb128 0x2
 10559 3214 91       		.byte	0x91
 10560 3215 6C       		.sleb128 -20
 10561 3216 2C       		.uleb128 0x2c
 10562 3217 3C140000 		.4byte	.LASF576
 10563 321b 07       		.byte	0x7
 10564 321c 87       		.byte	0x87
 10565 321d 7E280000 		.4byte	0x287e
 10566 3221 02       		.uleb128 0x2
 10567 3222 91       		.byte	0x91
 10568 3223 74       		.sleb128 -12
 10569 3224 00       		.byte	0
 10570 3225 36       		.uleb128 0x36
 10571 3226 44030000 		.4byte	.LASF619
 10572 322a 06       		.byte	0x6
 10573 322b D602     		.2byte	0x2d6
 10574 322d 00000000 		.4byte	.LFB250
 10575 3231 18000000 		.4byte	.LFE250-.LFB250
 10576 3235 01       		.uleb128 0x1
 10577 3236 9C       		.byte	0x9c
 10578 3237 5A320000 		.4byte	0x325a
 10579 323b 2E       		.uleb128 0x2e
ARM GAS  /tmp/ccDE0Mq0.s 			page 187


 10580 323c 74727000 		.ascii	"trp\000"
 10581 3240 06       		.byte	0x6
 10582 3241 D602     		.2byte	0x2d6
 10583 3243 85120000 		.4byte	0x1285
 10584 3247 02       		.uleb128 0x2
 10585 3248 91       		.byte	0x91
 10586 3249 74       		.sleb128 -12
 10587 324a 2E       		.uleb128 0x2e
 10588 324b 6D736700 		.ascii	"msg\000"
 10589 324f 06       		.byte	0x6
 10590 3250 D602     		.2byte	0x2d6
 10591 3252 6F090000 		.4byte	0x96f
 10592 3256 02       		.uleb128 0x2
 10593 3257 91       		.byte	0x91
 10594 3258 70       		.sleb128 -16
 10595 3259 00       		.byte	0
 10596 325a 37       		.uleb128 0x37
 10597 325b 530A0000 		.4byte	.LASF620
 10598 325f 06       		.byte	0x6
 10599 3260 AE02     		.2byte	0x2ae
 10600 3262 6F090000 		.4byte	0x96f
 10601 3266 00000000 		.4byte	.LFB248
 10602 326a 16000000 		.4byte	.LFE248-.LFB248
 10603 326e 01       		.uleb128 0x1
 10604 326f 9C       		.byte	0x9c
 10605 3270 84320000 		.4byte	0x3284
 10606 3274 2E       		.uleb128 0x2e
 10607 3275 74727000 		.ascii	"trp\000"
 10608 3279 06       		.byte	0x6
 10609 327a AE02     		.2byte	0x2ae
 10610 327c 85120000 		.4byte	0x1285
 10611 3280 02       		.uleb128 0x2
 10612 3281 91       		.byte	0x91
 10613 3282 74       		.sleb128 -12
 10614 3283 00       		.byte	0
 10615 3284 36       		.uleb128 0x36
 10616 3285 371A0000 		.4byte	.LASF621
 10617 3289 06       		.byte	0x6
 10618 328a 3B02     		.2byte	0x23b
 10619 328c 00000000 		.4byte	.LFB241
 10620 3290 14000000 		.4byte	.LFE241-.LFB241
 10621 3294 01       		.uleb128 0x1
 10622 3295 9C       		.byte	0x9c
 10623 3296 AA320000 		.4byte	0x32aa
 10624 329a 33       		.uleb128 0x33
 10625 329b 65020000 		.4byte	.LASF622
 10626 329f 06       		.byte	0x6
 10627 32a0 3B02     		.2byte	0x23b
 10628 32a2 2D090000 		.4byte	0x92d
 10629 32a6 02       		.uleb128 0x2
 10630 32a7 91       		.byte	0x91
 10631 32a8 74       		.sleb128 -12
 10632 32a9 00       		.byte	0
 10633 32aa 3F       		.uleb128 0x3f
 10634 32ab BD040000 		.4byte	.LASF623
 10635 32af 06       		.byte	0x6
 10636 32b0 0C02     		.2byte	0x20c
ARM GAS  /tmp/ccDE0Mq0.s 			page 188


 10637 32b2 00000000 		.4byte	.LFB238
 10638 32b6 0A000000 		.4byte	.LFE238-.LFB238
 10639 32ba 01       		.uleb128 0x1
 10640 32bb 9C       		.byte	0x9c
 10641 32bc 3F       		.uleb128 0x3f
 10642 32bd 65120000 		.4byte	.LASF624
 10643 32c1 06       		.byte	0x6
 10644 32c2 0102     		.2byte	0x201
 10645 32c4 00000000 		.4byte	.LFB237
 10646 32c8 0A000000 		.4byte	.LFE237-.LFB237
 10647 32cc 01       		.uleb128 0x1
 10648 32cd 9C       		.byte	0x9c
 10649 32ce 3F       		.uleb128 0x3f
 10650 32cf 0C010000 		.4byte	.LASF625
 10651 32d3 06       		.byte	0x6
 10652 32d4 F601     		.2byte	0x1f6
 10653 32d6 00000000 		.4byte	.LFB236
 10654 32da 0A000000 		.4byte	.LFE236-.LFB236
 10655 32de 01       		.uleb128 0x1
 10656 32df 9C       		.byte	0x9c
 10657 32e0 3F       		.uleb128 0x3f
 10658 32e1 9F140000 		.4byte	.LASF626
 10659 32e5 06       		.byte	0x6
 10660 32e6 EB01     		.2byte	0x1eb
 10661 32e8 00000000 		.4byte	.LFB235
 10662 32ec 0A000000 		.4byte	.LFE235-.LFB235
 10663 32f0 01       		.uleb128 0x1
 10664 32f1 9C       		.byte	0x9c
 10665 32f2 38       		.uleb128 0x38
 10666 32f3 1C170000 		.4byte	.LASF627
 10667 32f7 05       		.byte	0x5
 10668 32f8 84       		.byte	0x84
 10669 32f9 00000000 		.4byte	.LFB187
 10670 32fd 18000000 		.4byte	.LFE187-.LFB187
 10671 3301 01       		.uleb128 0x1
 10672 3302 9C       		.byte	0x9c
 10673 3303 16330000 		.4byte	0x3316
 10674 3307 39       		.uleb128 0x39
 10675 3308 73180000 		.4byte	.LASF628
 10676 330c 05       		.byte	0x5
 10677 330d 84       		.byte	0x84
 10678 330e DE050000 		.4byte	0x5de
 10679 3312 02       		.uleb128 0x2
 10680 3313 91       		.byte	0x91
 10681 3314 7C       		.sleb128 -4
 10682 3315 00       		.byte	0
 10683 3316 3D       		.uleb128 0x3d
 10684 3317 660A0000 		.4byte	.LASF629
 10685 331b 04       		.byte	0x4
 10686 331c F5       		.byte	0xf5
 10687 331d D20A0000 		.4byte	0xad2
 10688 3321 00000000 		.4byte	.LFB182
 10689 3325 2C000000 		.4byte	.LFE182-.LFB182
 10690 3329 01       		.uleb128 0x1
 10691 332a 9C       		.byte	0x9c
 10692 332b 4C330000 		.4byte	0x334c
 10693 332f 3A       		.uleb128 0x3a
ARM GAS  /tmp/ccDE0Mq0.s 			page 189


 10694 3330 747000   		.ascii	"tp\000"
 10695 3333 04       		.byte	0x4
 10696 3334 F5       		.byte	0xf5
 10697 3335 D20A0000 		.4byte	0xad2
 10698 3339 02       		.uleb128 0x2
 10699 333a 91       		.byte	0x91
 10700 333b 74       		.sleb128 -12
 10701 333c 3C       		.uleb128 0x3c
 10702 333d 6A000000 		.4byte	.LASF612
 10703 3341 5C330000 		.4byte	0x335c
 10704 3345 05       		.uleb128 0x5
 10705 3346 03       		.byte	0x3
 10706 3347 00000000 		.4byte	__func__.7702
 10707 334b 00       		.byte	0
 10708 334c 0B       		.uleb128 0xb
 10709 334d 6D010000 		.4byte	0x16d
 10710 3351 5C330000 		.4byte	0x335c
 10711 3355 0C       		.uleb128 0xc
 10712 3356 20010000 		.4byte	0x120
 10713 335a 0B       		.byte	0xb
 10714 335b 00       		.byte	0
 10715 335c 10       		.uleb128 0x10
 10716 335d 4C330000 		.4byte	0x334c
 10717 3361 3F       		.uleb128 0x3f
 10718 3362 60130000 		.4byte	.LASF630
 10719 3366 03       		.byte	0x3
 10720 3367 9601     		.2byte	0x196
 10721 3369 00000000 		.4byte	.LFB159
 10722 336d 12000000 		.4byte	.LFE159-.LFB159
 10723 3371 01       		.uleb128 0x1
 10724 3372 9C       		.byte	0x9c
 10725 3373 3F       		.uleb128 0x3f
 10726 3374 10190000 		.4byte	.LASF631
 10727 3378 03       		.byte	0x3
 10728 3379 8201     		.2byte	0x182
 10729 337b 00000000 		.4byte	.LFB158
 10730 337f 12000000 		.4byte	.LFE158-.LFB158
 10731 3383 01       		.uleb128 0x1
 10732 3384 9C       		.byte	0x9c
 10733 3385 36       		.uleb128 0x36
 10734 3386 B2020000 		.4byte	.LASF632
 10735 338a 03       		.byte	0x3
 10736 338b 6601     		.2byte	0x166
 10737 338d 00000000 		.4byte	.LFB157
 10738 3391 3C000000 		.4byte	.LFE157-.LFB157
 10739 3395 01       		.uleb128 0x1
 10740 3396 9C       		.byte	0x9c
 10741 3397 AB330000 		.4byte	0x33ab
 10742 339b 3C       		.uleb128 0x3c
 10743 339c 6A000000 		.4byte	.LASF612
 10744 33a0 5C330000 		.4byte	0x335c
 10745 33a4 05       		.uleb128 0x5
 10746 33a5 03       		.byte	0x3
 10747 33a6 00000000 		.4byte	__func__.7535
 10748 33aa 00       		.byte	0
 10749 33ab 3F       		.uleb128 0x3f
 10750 33ac A5040000 		.4byte	.LASF633
ARM GAS  /tmp/ccDE0Mq0.s 			page 190


 10751 33b0 03       		.byte	0x3
 10752 33b1 5A01     		.2byte	0x15a
 10753 33b3 00000000 		.4byte	.LFB156
 10754 33b7 12000000 		.4byte	.LFE156-.LFB156
 10755 33bb 01       		.uleb128 0x1
 10756 33bc 9C       		.byte	0x9c
 10757 33bd 3F       		.uleb128 0x3f
 10758 33be 84000000 		.4byte	.LASF634
 10759 33c2 01       		.byte	0x1
 10760 33c3 FA01     		.2byte	0x1fa
 10761 33c5 00000000 		.4byte	.LFB130
 10762 33c9 0A000000 		.4byte	.LFE130-.LFB130
 10763 33cd 01       		.uleb128 0x1
 10764 33ce 9C       		.byte	0x9c
 10765 33cf 3F       		.uleb128 0x3f
 10766 33d0 CA0E0000 		.4byte	.LASF635
 10767 33d4 01       		.byte	0x1
 10768 33d5 EF01     		.2byte	0x1ef
 10769 33d7 00000000 		.4byte	.LFB129
 10770 33db 0A000000 		.4byte	.LFE129-.LFB129
 10771 33df 01       		.uleb128 0x1
 10772 33e0 9C       		.byte	0x9c
 10773 33e1 40       		.uleb128 0x40
 10774 33e2 48110000 		.4byte	.LASF636
 10775 33e6 01       		.byte	0x1
 10776 33e7 E001     		.2byte	0x1e0
 10777 33e9 00000000 		.4byte	.LFB128
 10778 33ed 12000000 		.4byte	.LFE128-.LFB128
 10779 33f1 01       		.uleb128 0x1
 10780 33f2 9C       		.byte	0x9c
 10781 33f3 11340000 		.4byte	0x3411
 10782 33f7 41       		.uleb128 0x41
 10783 33f8 41340000 		.4byte	0x3441
 10784 33fc 06000000 		.4byte	.LBB8
 10785 3400 06000000 		.4byte	.LBE8-.LBB8
 10786 3404 01       		.byte	0x1
 10787 3405 E301     		.2byte	0x1e3
 10788 3407 42       		.uleb128 0x42
 10789 3408 4A340000 		.4byte	0x344a
 10790 340c 02       		.uleb128 0x2
 10791 340d 91       		.byte	0x91
 10792 340e 7C       		.sleb128 -4
 10793 340f 00       		.byte	0
 10794 3410 00       		.byte	0
 10795 3411 40       		.uleb128 0x40
 10796 3412 78120000 		.4byte	.LASF637
 10797 3416 01       		.byte	0x1
 10798 3417 C801     		.2byte	0x1c8
 10799 3419 00000000 		.4byte	.LFB127
 10800 341d 12000000 		.4byte	.LFE127-.LFB127
 10801 3421 01       		.uleb128 0x1
 10802 3422 9C       		.byte	0x9c
 10803 3423 41340000 		.4byte	0x3441
 10804 3427 41       		.uleb128 0x41
 10805 3428 41340000 		.4byte	0x3441
 10806 342c 06000000 		.4byte	.LBB6
 10807 3430 06000000 		.4byte	.LBE6-.LBB6
ARM GAS  /tmp/ccDE0Mq0.s 			page 191


 10808 3434 01       		.byte	0x1
 10809 3435 D001     		.2byte	0x1d0
 10810 3437 42       		.uleb128 0x42
 10811 3438 4A340000 		.4byte	0x344a
 10812 343c 02       		.uleb128 0x2
 10813 343d 91       		.byte	0x91
 10814 343e 7C       		.sleb128 -4
 10815 343f 00       		.byte	0
 10816 3440 00       		.byte	0
 10817 3441 43       		.uleb128 0x43
 10818 3442 BF190000 		.4byte	.LASF642
 10819 3446 02       		.byte	0x2
 10820 3447 2202     		.2byte	0x222
 10821 3449 03       		.byte	0x3
 10822 344a 44       		.uleb128 0x44
 10823 344b 70080000 		.4byte	.LASF643
 10824 344f 02       		.byte	0x2
 10825 3450 2202     		.2byte	0x222
 10826 3452 12090000 		.4byte	0x912
 10827 3456 00       		.byte	0
 10828 3457 00       		.byte	0
 10829              		.section	.debug_abbrev,"",%progbits
 10830              	.Ldebug_abbrev0:
 10831 0000 01       		.uleb128 0x1
 10832 0001 11       		.uleb128 0x11
 10833 0002 01       		.byte	0x1
 10834 0003 25       		.uleb128 0x25
 10835 0004 0E       		.uleb128 0xe
 10836 0005 13       		.uleb128 0x13
 10837 0006 0B       		.uleb128 0xb
 10838 0007 03       		.uleb128 0x3
 10839 0008 0E       		.uleb128 0xe
 10840 0009 1B       		.uleb128 0x1b
 10841 000a 0E       		.uleb128 0xe
 10842 000b 55       		.uleb128 0x55
 10843 000c 17       		.uleb128 0x17
 10844 000d 11       		.uleb128 0x11
 10845 000e 01       		.uleb128 0x1
 10846 000f 10       		.uleb128 0x10
 10847 0010 17       		.uleb128 0x17
 10848 0011 00       		.byte	0
 10849 0012 00       		.byte	0
 10850 0013 02       		.uleb128 0x2
 10851 0014 24       		.uleb128 0x24
 10852 0015 00       		.byte	0
 10853 0016 0B       		.uleb128 0xb
 10854 0017 0B       		.uleb128 0xb
 10855 0018 3E       		.uleb128 0x3e
 10856 0019 0B       		.uleb128 0xb
 10857 001a 03       		.uleb128 0x3
 10858 001b 08       		.uleb128 0x8
 10859 001c 00       		.byte	0
 10860 001d 00       		.byte	0
 10861 001e 03       		.uleb128 0x3
 10862 001f 16       		.uleb128 0x16
 10863 0020 00       		.byte	0
 10864 0021 03       		.uleb128 0x3
ARM GAS  /tmp/ccDE0Mq0.s 			page 192


 10865 0022 0E       		.uleb128 0xe
 10866 0023 3A       		.uleb128 0x3a
 10867 0024 0B       		.uleb128 0xb
 10868 0025 3B       		.uleb128 0x3b
 10869 0026 0B       		.uleb128 0xb
 10870 0027 49       		.uleb128 0x49
 10871 0028 13       		.uleb128 0x13
 10872 0029 00       		.byte	0
 10873 002a 00       		.byte	0
 10874 002b 04       		.uleb128 0x4
 10875 002c 35       		.uleb128 0x35
 10876 002d 00       		.byte	0
 10877 002e 49       		.uleb128 0x49
 10878 002f 13       		.uleb128 0x13
 10879 0030 00       		.byte	0
 10880 0031 00       		.byte	0
 10881 0032 05       		.uleb128 0x5
 10882 0033 24       		.uleb128 0x24
 10883 0034 00       		.byte	0
 10884 0035 0B       		.uleb128 0xb
 10885 0036 0B       		.uleb128 0xb
 10886 0037 3E       		.uleb128 0x3e
 10887 0038 0B       		.uleb128 0xb
 10888 0039 03       		.uleb128 0x3
 10889 003a 0E       		.uleb128 0xe
 10890 003b 00       		.byte	0
 10891 003c 00       		.byte	0
 10892 003d 06       		.uleb128 0x6
 10893 003e 0F       		.uleb128 0xf
 10894 003f 00       		.byte	0
 10895 0040 0B       		.uleb128 0xb
 10896 0041 0B       		.uleb128 0xb
 10897 0042 49       		.uleb128 0x49
 10898 0043 13       		.uleb128 0x13
 10899 0044 00       		.byte	0
 10900 0045 00       		.byte	0
 10901 0046 07       		.uleb128 0x7
 10902 0047 13       		.uleb128 0x13
 10903 0048 00       		.byte	0
 10904 0049 03       		.uleb128 0x3
 10905 004a 0E       		.uleb128 0xe
 10906 004b 3C       		.uleb128 0x3c
 10907 004c 19       		.uleb128 0x19
 10908 004d 00       		.byte	0
 10909 004e 00       		.byte	0
 10910 004f 08       		.uleb128 0x8
 10911 0050 16       		.uleb128 0x16
 10912 0051 00       		.byte	0
 10913 0052 03       		.uleb128 0x3
 10914 0053 0E       		.uleb128 0xe
 10915 0054 3A       		.uleb128 0x3a
 10916 0055 0B       		.uleb128 0xb
 10917 0056 3B       		.uleb128 0x3b
 10918 0057 05       		.uleb128 0x5
 10919 0058 49       		.uleb128 0x49
 10920 0059 13       		.uleb128 0x13
 10921 005a 00       		.byte	0
ARM GAS  /tmp/ccDE0Mq0.s 			page 193


 10922 005b 00       		.byte	0
 10923 005c 09       		.uleb128 0x9
 10924 005d 17       		.uleb128 0x17
 10925 005e 01       		.byte	0x1
 10926 005f 0B       		.uleb128 0xb
 10927 0060 0B       		.uleb128 0xb
 10928 0061 3A       		.uleb128 0x3a
 10929 0062 0B       		.uleb128 0xb
 10930 0063 3B       		.uleb128 0x3b
 10931 0064 0B       		.uleb128 0xb
 10932 0065 01       		.uleb128 0x1
 10933 0066 13       		.uleb128 0x13
 10934 0067 00       		.byte	0
 10935 0068 00       		.byte	0
 10936 0069 0A       		.uleb128 0xa
 10937 006a 0D       		.uleb128 0xd
 10938 006b 00       		.byte	0
 10939 006c 03       		.uleb128 0x3
 10940 006d 0E       		.uleb128 0xe
 10941 006e 3A       		.uleb128 0x3a
 10942 006f 0B       		.uleb128 0xb
 10943 0070 3B       		.uleb128 0x3b
 10944 0071 0B       		.uleb128 0xb
 10945 0072 49       		.uleb128 0x49
 10946 0073 13       		.uleb128 0x13
 10947 0074 00       		.byte	0
 10948 0075 00       		.byte	0
 10949 0076 0B       		.uleb128 0xb
 10950 0077 01       		.uleb128 0x1
 10951 0078 01       		.byte	0x1
 10952 0079 49       		.uleb128 0x49
 10953 007a 13       		.uleb128 0x13
 10954 007b 01       		.uleb128 0x1
 10955 007c 13       		.uleb128 0x13
 10956 007d 00       		.byte	0
 10957 007e 00       		.byte	0
 10958 007f 0C       		.uleb128 0xc
 10959 0080 21       		.uleb128 0x21
 10960 0081 00       		.byte	0
 10961 0082 49       		.uleb128 0x49
 10962 0083 13       		.uleb128 0x13
 10963 0084 2F       		.uleb128 0x2f
 10964 0085 0B       		.uleb128 0xb
 10965 0086 00       		.byte	0
 10966 0087 00       		.byte	0
 10967 0088 0D       		.uleb128 0xd
 10968 0089 13       		.uleb128 0x13
 10969 008a 01       		.byte	0x1
 10970 008b 0B       		.uleb128 0xb
 10971 008c 0B       		.uleb128 0xb
 10972 008d 3A       		.uleb128 0x3a
 10973 008e 0B       		.uleb128 0xb
 10974 008f 3B       		.uleb128 0x3b
 10975 0090 0B       		.uleb128 0xb
 10976 0091 01       		.uleb128 0x1
 10977 0092 13       		.uleb128 0x13
 10978 0093 00       		.byte	0
ARM GAS  /tmp/ccDE0Mq0.s 			page 194


 10979 0094 00       		.byte	0
 10980 0095 0E       		.uleb128 0xe
 10981 0096 0D       		.uleb128 0xd
 10982 0097 00       		.byte	0
 10983 0098 03       		.uleb128 0x3
 10984 0099 0E       		.uleb128 0xe
 10985 009a 3A       		.uleb128 0x3a
 10986 009b 0B       		.uleb128 0xb
 10987 009c 3B       		.uleb128 0x3b
 10988 009d 0B       		.uleb128 0xb
 10989 009e 49       		.uleb128 0x49
 10990 009f 13       		.uleb128 0x13
 10991 00a0 38       		.uleb128 0x38
 10992 00a1 0B       		.uleb128 0xb
 10993 00a2 00       		.byte	0
 10994 00a3 00       		.byte	0
 10995 00a4 0F       		.uleb128 0xf
 10996 00a5 0F       		.uleb128 0xf
 10997 00a6 00       		.byte	0
 10998 00a7 0B       		.uleb128 0xb
 10999 00a8 0B       		.uleb128 0xb
 11000 00a9 00       		.byte	0
 11001 00aa 00       		.byte	0
 11002 00ab 10       		.uleb128 0x10
 11003 00ac 26       		.uleb128 0x26
 11004 00ad 00       		.byte	0
 11005 00ae 49       		.uleb128 0x49
 11006 00af 13       		.uleb128 0x13
 11007 00b0 00       		.byte	0
 11008 00b1 00       		.byte	0
 11009 00b2 11       		.uleb128 0x11
 11010 00b3 13       		.uleb128 0x13
 11011 00b4 01       		.byte	0x1
 11012 00b5 03       		.uleb128 0x3
 11013 00b6 0E       		.uleb128 0xe
 11014 00b7 0B       		.uleb128 0xb
 11015 00b8 0B       		.uleb128 0xb
 11016 00b9 3A       		.uleb128 0x3a
 11017 00ba 0B       		.uleb128 0xb
 11018 00bb 3B       		.uleb128 0x3b
 11019 00bc 0B       		.uleb128 0xb
 11020 00bd 01       		.uleb128 0x1
 11021 00be 13       		.uleb128 0x13
 11022 00bf 00       		.byte	0
 11023 00c0 00       		.byte	0
 11024 00c1 12       		.uleb128 0x12
 11025 00c2 0D       		.uleb128 0xd
 11026 00c3 00       		.byte	0
 11027 00c4 03       		.uleb128 0x3
 11028 00c5 08       		.uleb128 0x8
 11029 00c6 3A       		.uleb128 0x3a
 11030 00c7 0B       		.uleb128 0xb
 11031 00c8 3B       		.uleb128 0x3b
 11032 00c9 0B       		.uleb128 0xb
 11033 00ca 49       		.uleb128 0x49
 11034 00cb 13       		.uleb128 0x13
 11035 00cc 38       		.uleb128 0x38
ARM GAS  /tmp/ccDE0Mq0.s 			page 195


 11036 00cd 0B       		.uleb128 0xb
 11037 00ce 00       		.byte	0
 11038 00cf 00       		.byte	0
 11039 00d0 13       		.uleb128 0x13
 11040 00d1 13       		.uleb128 0x13
 11041 00d2 01       		.byte	0x1
 11042 00d3 03       		.uleb128 0x3
 11043 00d4 0E       		.uleb128 0xe
 11044 00d5 0B       		.uleb128 0xb
 11045 00d6 05       		.uleb128 0x5
 11046 00d7 3A       		.uleb128 0x3a
 11047 00d8 0B       		.uleb128 0xb
 11048 00d9 3B       		.uleb128 0x3b
 11049 00da 0B       		.uleb128 0xb
 11050 00db 01       		.uleb128 0x1
 11051 00dc 13       		.uleb128 0x13
 11052 00dd 00       		.byte	0
 11053 00de 00       		.byte	0
 11054 00df 14       		.uleb128 0x14
 11055 00e0 0D       		.uleb128 0xd
 11056 00e1 00       		.byte	0
 11057 00e2 03       		.uleb128 0x3
 11058 00e3 0E       		.uleb128 0xe
 11059 00e4 3A       		.uleb128 0x3a
 11060 00e5 0B       		.uleb128 0xb
 11061 00e6 3B       		.uleb128 0x3b
 11062 00e7 0B       		.uleb128 0xb
 11063 00e8 49       		.uleb128 0x49
 11064 00e9 13       		.uleb128 0x13
 11065 00ea 38       		.uleb128 0x38
 11066 00eb 05       		.uleb128 0x5
 11067 00ec 00       		.byte	0
 11068 00ed 00       		.byte	0
 11069 00ee 15       		.uleb128 0x15
 11070 00ef 15       		.uleb128 0x15
 11071 00f0 00       		.byte	0
 11072 00f1 27       		.uleb128 0x27
 11073 00f2 19       		.uleb128 0x19
 11074 00f3 00       		.byte	0
 11075 00f4 00       		.byte	0
 11076 00f5 16       		.uleb128 0x16
 11077 00f6 15       		.uleb128 0x15
 11078 00f7 01       		.byte	0x1
 11079 00f8 27       		.uleb128 0x27
 11080 00f9 19       		.uleb128 0x19
 11081 00fa 49       		.uleb128 0x49
 11082 00fb 13       		.uleb128 0x13
 11083 00fc 01       		.uleb128 0x1
 11084 00fd 13       		.uleb128 0x13
 11085 00fe 00       		.byte	0
 11086 00ff 00       		.byte	0
 11087 0100 17       		.uleb128 0x17
 11088 0101 05       		.uleb128 0x5
 11089 0102 00       		.byte	0
 11090 0103 49       		.uleb128 0x49
 11091 0104 13       		.uleb128 0x13
 11092 0105 00       		.byte	0
ARM GAS  /tmp/ccDE0Mq0.s 			page 196


 11093 0106 00       		.byte	0
 11094 0107 18       		.uleb128 0x18
 11095 0108 13       		.uleb128 0x13
 11096 0109 01       		.byte	0x1
 11097 010a 03       		.uleb128 0x3
 11098 010b 0E       		.uleb128 0xe
 11099 010c 0B       		.uleb128 0xb
 11100 010d 05       		.uleb128 0x5
 11101 010e 3A       		.uleb128 0x3a
 11102 010f 0B       		.uleb128 0xb
 11103 0110 3B       		.uleb128 0x3b
 11104 0111 05       		.uleb128 0x5
 11105 0112 01       		.uleb128 0x1
 11106 0113 13       		.uleb128 0x13
 11107 0114 00       		.byte	0
 11108 0115 00       		.byte	0
 11109 0116 19       		.uleb128 0x19
 11110 0117 0D       		.uleb128 0xd
 11111 0118 00       		.byte	0
 11112 0119 03       		.uleb128 0x3
 11113 011a 0E       		.uleb128 0xe
 11114 011b 3A       		.uleb128 0x3a
 11115 011c 0B       		.uleb128 0xb
 11116 011d 3B       		.uleb128 0x3b
 11117 011e 05       		.uleb128 0x5
 11118 011f 49       		.uleb128 0x49
 11119 0120 13       		.uleb128 0x13
 11120 0121 38       		.uleb128 0x38
 11121 0122 0B       		.uleb128 0xb
 11122 0123 00       		.byte	0
 11123 0124 00       		.byte	0
 11124 0125 1A       		.uleb128 0x1a
 11125 0126 0D       		.uleb128 0xd
 11126 0127 00       		.byte	0
 11127 0128 03       		.uleb128 0x3
 11128 0129 0E       		.uleb128 0xe
 11129 012a 3A       		.uleb128 0x3a
 11130 012b 0B       		.uleb128 0xb
 11131 012c 3B       		.uleb128 0x3b
 11132 012d 05       		.uleb128 0x5
 11133 012e 49       		.uleb128 0x49
 11134 012f 13       		.uleb128 0x13
 11135 0130 38       		.uleb128 0x38
 11136 0131 05       		.uleb128 0x5
 11137 0132 00       		.byte	0
 11138 0133 00       		.byte	0
 11139 0134 1B       		.uleb128 0x1b
 11140 0135 13       		.uleb128 0x13
 11141 0136 01       		.byte	0x1
 11142 0137 03       		.uleb128 0x3
 11143 0138 0E       		.uleb128 0xe
 11144 0139 0B       		.uleb128 0xb
 11145 013a 0B       		.uleb128 0xb
 11146 013b 3A       		.uleb128 0x3a
 11147 013c 0B       		.uleb128 0xb
 11148 013d 3B       		.uleb128 0x3b
 11149 013e 05       		.uleb128 0x5
ARM GAS  /tmp/ccDE0Mq0.s 			page 197


 11150 013f 01       		.uleb128 0x1
 11151 0140 13       		.uleb128 0x13
 11152 0141 00       		.byte	0
 11153 0142 00       		.byte	0
 11154 0143 1C       		.uleb128 0x1c
 11155 0144 13       		.uleb128 0x13
 11156 0145 01       		.byte	0x1
 11157 0146 0B       		.uleb128 0xb
 11158 0147 0B       		.uleb128 0xb
 11159 0148 3A       		.uleb128 0x3a
 11160 0149 0B       		.uleb128 0xb
 11161 014a 3B       		.uleb128 0x3b
 11162 014b 05       		.uleb128 0x5
 11163 014c 01       		.uleb128 0x1
 11164 014d 13       		.uleb128 0x13
 11165 014e 00       		.byte	0
 11166 014f 00       		.byte	0
 11167 0150 1D       		.uleb128 0x1d
 11168 0151 17       		.uleb128 0x17
 11169 0152 01       		.byte	0x1
 11170 0153 0B       		.uleb128 0xb
 11171 0154 0B       		.uleb128 0xb
 11172 0155 3A       		.uleb128 0x3a
 11173 0156 0B       		.uleb128 0xb
 11174 0157 3B       		.uleb128 0x3b
 11175 0158 05       		.uleb128 0x5
 11176 0159 01       		.uleb128 0x1
 11177 015a 13       		.uleb128 0x13
 11178 015b 00       		.byte	0
 11179 015c 00       		.byte	0
 11180 015d 1E       		.uleb128 0x1e
 11181 015e 0D       		.uleb128 0xd
 11182 015f 00       		.byte	0
 11183 0160 03       		.uleb128 0x3
 11184 0161 0E       		.uleb128 0xe
 11185 0162 3A       		.uleb128 0x3a
 11186 0163 0B       		.uleb128 0xb
 11187 0164 3B       		.uleb128 0x3b
 11188 0165 05       		.uleb128 0x5
 11189 0166 49       		.uleb128 0x49
 11190 0167 13       		.uleb128 0x13
 11191 0168 00       		.byte	0
 11192 0169 00       		.byte	0
 11193 016a 1F       		.uleb128 0x1f
 11194 016b 15       		.uleb128 0x15
 11195 016c 01       		.byte	0x1
 11196 016d 27       		.uleb128 0x27
 11197 016e 19       		.uleb128 0x19
 11198 016f 01       		.uleb128 0x1
 11199 0170 13       		.uleb128 0x13
 11200 0171 00       		.byte	0
 11201 0172 00       		.byte	0
 11202 0173 20       		.uleb128 0x20
 11203 0174 34       		.uleb128 0x34
 11204 0175 00       		.byte	0
 11205 0176 03       		.uleb128 0x3
 11206 0177 0E       		.uleb128 0xe
ARM GAS  /tmp/ccDE0Mq0.s 			page 198


 11207 0178 3A       		.uleb128 0x3a
 11208 0179 0B       		.uleb128 0xb
 11209 017a 3B       		.uleb128 0x3b
 11210 017b 05       		.uleb128 0x5
 11211 017c 49       		.uleb128 0x49
 11212 017d 13       		.uleb128 0x13
 11213 017e 3F       		.uleb128 0x3f
 11214 017f 19       		.uleb128 0x19
 11215 0180 3C       		.uleb128 0x3c
 11216 0181 19       		.uleb128 0x19
 11217 0182 00       		.byte	0
 11218 0183 00       		.byte	0
 11219 0184 21       		.uleb128 0x21
 11220 0185 0D       		.uleb128 0xd
 11221 0186 00       		.byte	0
 11222 0187 03       		.uleb128 0x3
 11223 0188 08       		.uleb128 0x8
 11224 0189 3A       		.uleb128 0x3a
 11225 018a 0B       		.uleb128 0xb
 11226 018b 3B       		.uleb128 0x3b
 11227 018c 05       		.uleb128 0x5
 11228 018d 49       		.uleb128 0x49
 11229 018e 13       		.uleb128 0x13
 11230 018f 38       		.uleb128 0x38
 11231 0190 0B       		.uleb128 0xb
 11232 0191 00       		.byte	0
 11233 0192 00       		.byte	0
 11234 0193 22       		.uleb128 0x22
 11235 0194 34       		.uleb128 0x34
 11236 0195 00       		.byte	0
 11237 0196 03       		.uleb128 0x3
 11238 0197 0E       		.uleb128 0xe
 11239 0198 3A       		.uleb128 0x3a
 11240 0199 0B       		.uleb128 0xb
 11241 019a 3B       		.uleb128 0x3b
 11242 019b 0B       		.uleb128 0xb
 11243 019c 49       		.uleb128 0x49
 11244 019d 13       		.uleb128 0x13
 11245 019e 3F       		.uleb128 0x3f
 11246 019f 19       		.uleb128 0x19
 11247 01a0 3C       		.uleb128 0x3c
 11248 01a1 19       		.uleb128 0x19
 11249 01a2 00       		.byte	0
 11250 01a3 00       		.byte	0
 11251 01a4 23       		.uleb128 0x23
 11252 01a5 34       		.uleb128 0x34
 11253 01a6 00       		.byte	0
 11254 01a7 03       		.uleb128 0x3
 11255 01a8 08       		.uleb128 0x8
 11256 01a9 3A       		.uleb128 0x3a
 11257 01aa 0B       		.uleb128 0xb
 11258 01ab 3B       		.uleb128 0x3b
 11259 01ac 05       		.uleb128 0x5
 11260 01ad 49       		.uleb128 0x49
 11261 01ae 13       		.uleb128 0x13
 11262 01af 3F       		.uleb128 0x3f
 11263 01b0 19       		.uleb128 0x19
ARM GAS  /tmp/ccDE0Mq0.s 			page 199


 11264 01b1 3C       		.uleb128 0x3c
 11265 01b2 19       		.uleb128 0x19
 11266 01b3 00       		.byte	0
 11267 01b4 00       		.byte	0
 11268 01b5 24       		.uleb128 0x24
 11269 01b6 04       		.uleb128 0x4
 11270 01b7 01       		.byte	0x1
 11271 01b8 0B       		.uleb128 0xb
 11272 01b9 0B       		.uleb128 0xb
 11273 01ba 49       		.uleb128 0x49
 11274 01bb 13       		.uleb128 0x13
 11275 01bc 3A       		.uleb128 0x3a
 11276 01bd 0B       		.uleb128 0xb
 11277 01be 3B       		.uleb128 0x3b
 11278 01bf 0B       		.uleb128 0xb
 11279 01c0 01       		.uleb128 0x1
 11280 01c1 13       		.uleb128 0x13
 11281 01c2 00       		.byte	0
 11282 01c3 00       		.byte	0
 11283 01c4 25       		.uleb128 0x25
 11284 01c5 28       		.uleb128 0x28
 11285 01c6 00       		.byte	0
 11286 01c7 03       		.uleb128 0x3
 11287 01c8 0E       		.uleb128 0xe
 11288 01c9 1C       		.uleb128 0x1c
 11289 01ca 0B       		.uleb128 0xb
 11290 01cb 00       		.byte	0
 11291 01cc 00       		.byte	0
 11292 01cd 26       		.uleb128 0x26
 11293 01ce 0D       		.uleb128 0xd
 11294 01cf 00       		.byte	0
 11295 01d0 03       		.uleb128 0x3
 11296 01d1 08       		.uleb128 0x8
 11297 01d2 3A       		.uleb128 0x3a
 11298 01d3 0B       		.uleb128 0xb
 11299 01d4 3B       		.uleb128 0x3b
 11300 01d5 0B       		.uleb128 0xb
 11301 01d6 49       		.uleb128 0x49
 11302 01d7 13       		.uleb128 0x13
 11303 01d8 38       		.uleb128 0x38
 11304 01d9 05       		.uleb128 0x5
 11305 01da 00       		.byte	0
 11306 01db 00       		.byte	0
 11307 01dc 27       		.uleb128 0x27
 11308 01dd 04       		.uleb128 0x4
 11309 01de 01       		.byte	0x1
 11310 01df 0B       		.uleb128 0xb
 11311 01e0 0B       		.uleb128 0xb
 11312 01e1 49       		.uleb128 0x49
 11313 01e2 13       		.uleb128 0x13
 11314 01e3 3A       		.uleb128 0x3a
 11315 01e4 0B       		.uleb128 0xb
 11316 01e5 3B       		.uleb128 0x3b
 11317 01e6 05       		.uleb128 0x5
 11318 01e7 01       		.uleb128 0x1
 11319 01e8 13       		.uleb128 0x13
 11320 01e9 00       		.byte	0
ARM GAS  /tmp/ccDE0Mq0.s 			page 200


 11321 01ea 00       		.byte	0
 11322 01eb 28       		.uleb128 0x28
 11323 01ec 13       		.uleb128 0x13
 11324 01ed 01       		.byte	0x1
 11325 01ee 0B       		.uleb128 0xb
 11326 01ef 06       		.uleb128 0x6
 11327 01f0 3A       		.uleb128 0x3a
 11328 01f1 0B       		.uleb128 0xb
 11329 01f2 3B       		.uleb128 0x3b
 11330 01f3 0B       		.uleb128 0xb
 11331 01f4 01       		.uleb128 0x1
 11332 01f5 13       		.uleb128 0x13
 11333 01f6 00       		.byte	0
 11334 01f7 00       		.byte	0
 11335 01f8 29       		.uleb128 0x29
 11336 01f9 21       		.uleb128 0x21
 11337 01fa 00       		.byte	0
 11338 01fb 49       		.uleb128 0x49
 11339 01fc 13       		.uleb128 0x13
 11340 01fd 2F       		.uleb128 0x2f
 11341 01fe 05       		.uleb128 0x5
 11342 01ff 00       		.byte	0
 11343 0200 00       		.byte	0
 11344 0201 2A       		.uleb128 0x2a
 11345 0202 34       		.uleb128 0x34
 11346 0203 00       		.byte	0
 11347 0204 47       		.uleb128 0x47
 11348 0205 13       		.uleb128 0x13
 11349 0206 3A       		.uleb128 0x3a
 11350 0207 0B       		.uleb128 0xb
 11351 0208 3B       		.uleb128 0x3b
 11352 0209 0B       		.uleb128 0xb
 11353 020a 02       		.uleb128 0x2
 11354 020b 18       		.uleb128 0x18
 11355 020c 00       		.byte	0
 11356 020d 00       		.byte	0
 11357 020e 2B       		.uleb128 0x2b
 11358 020f 0D       		.uleb128 0xd
 11359 0210 00       		.byte	0
 11360 0211 03       		.uleb128 0x3
 11361 0212 08       		.uleb128 0x8
 11362 0213 3A       		.uleb128 0x3a
 11363 0214 0B       		.uleb128 0xb
 11364 0215 3B       		.uleb128 0x3b
 11365 0216 0B       		.uleb128 0xb
 11366 0217 49       		.uleb128 0x49
 11367 0218 13       		.uleb128 0x13
 11368 0219 00       		.byte	0
 11369 021a 00       		.byte	0
 11370 021b 2C       		.uleb128 0x2c
 11371 021c 34       		.uleb128 0x34
 11372 021d 00       		.byte	0
 11373 021e 03       		.uleb128 0x3
 11374 021f 0E       		.uleb128 0xe
 11375 0220 3A       		.uleb128 0x3a
 11376 0221 0B       		.uleb128 0xb
 11377 0222 3B       		.uleb128 0x3b
ARM GAS  /tmp/ccDE0Mq0.s 			page 201


 11378 0223 0B       		.uleb128 0xb
 11379 0224 49       		.uleb128 0x49
 11380 0225 13       		.uleb128 0x13
 11381 0226 02       		.uleb128 0x2
 11382 0227 18       		.uleb128 0x18
 11383 0228 00       		.byte	0
 11384 0229 00       		.byte	0
 11385 022a 2D       		.uleb128 0x2d
 11386 022b 2E       		.uleb128 0x2e
 11387 022c 01       		.byte	0x1
 11388 022d 3F       		.uleb128 0x3f
 11389 022e 19       		.uleb128 0x19
 11390 022f 03       		.uleb128 0x3
 11391 0230 0E       		.uleb128 0xe
 11392 0231 3A       		.uleb128 0x3a
 11393 0232 0B       		.uleb128 0xb
 11394 0233 3B       		.uleb128 0x3b
 11395 0234 05       		.uleb128 0x5
 11396 0235 27       		.uleb128 0x27
 11397 0236 19       		.uleb128 0x19
 11398 0237 11       		.uleb128 0x11
 11399 0238 01       		.uleb128 0x1
 11400 0239 12       		.uleb128 0x12
 11401 023a 06       		.uleb128 0x6
 11402 023b 40       		.uleb128 0x40
 11403 023c 18       		.uleb128 0x18
 11404 023d 9642     		.uleb128 0x2116
 11405 023f 19       		.uleb128 0x19
 11406 0240 01       		.uleb128 0x1
 11407 0241 13       		.uleb128 0x13
 11408 0242 00       		.byte	0
 11409 0243 00       		.byte	0
 11410 0244 2E       		.uleb128 0x2e
 11411 0245 05       		.uleb128 0x5
 11412 0246 00       		.byte	0
 11413 0247 03       		.uleb128 0x3
 11414 0248 08       		.uleb128 0x8
 11415 0249 3A       		.uleb128 0x3a
 11416 024a 0B       		.uleb128 0xb
 11417 024b 3B       		.uleb128 0x3b
 11418 024c 05       		.uleb128 0x5
 11419 024d 49       		.uleb128 0x49
 11420 024e 13       		.uleb128 0x13
 11421 024f 02       		.uleb128 0x2
 11422 0250 18       		.uleb128 0x18
 11423 0251 00       		.byte	0
 11424 0252 00       		.byte	0
 11425 0253 2F       		.uleb128 0x2f
 11426 0254 34       		.uleb128 0x34
 11427 0255 00       		.byte	0
 11428 0256 03       		.uleb128 0x3
 11429 0257 0E       		.uleb128 0xe
 11430 0258 3A       		.uleb128 0x3a
 11431 0259 0B       		.uleb128 0xb
 11432 025a 3B       		.uleb128 0x3b
 11433 025b 05       		.uleb128 0x5
 11434 025c 49       		.uleb128 0x49
ARM GAS  /tmp/ccDE0Mq0.s 			page 202


 11435 025d 13       		.uleb128 0x13
 11436 025e 02       		.uleb128 0x2
 11437 025f 18       		.uleb128 0x18
 11438 0260 00       		.byte	0
 11439 0261 00       		.byte	0
 11440 0262 30       		.uleb128 0x30
 11441 0263 0B       		.uleb128 0xb
 11442 0264 01       		.byte	0x1
 11443 0265 11       		.uleb128 0x11
 11444 0266 01       		.uleb128 0x1
 11445 0267 12       		.uleb128 0x12
 11446 0268 06       		.uleb128 0x6
 11447 0269 00       		.byte	0
 11448 026a 00       		.byte	0
 11449 026b 31       		.uleb128 0x31
 11450 026c 34       		.uleb128 0x34
 11451 026d 00       		.byte	0
 11452 026e 03       		.uleb128 0x3
 11453 026f 08       		.uleb128 0x8
 11454 0270 3A       		.uleb128 0x3a
 11455 0271 0B       		.uleb128 0xb
 11456 0272 3B       		.uleb128 0x3b
 11457 0273 05       		.uleb128 0x5
 11458 0274 49       		.uleb128 0x49
 11459 0275 13       		.uleb128 0x13
 11460 0276 02       		.uleb128 0x2
 11461 0277 18       		.uleb128 0x18
 11462 0278 00       		.byte	0
 11463 0279 00       		.byte	0
 11464 027a 32       		.uleb128 0x32
 11465 027b 2E       		.uleb128 0x2e
 11466 027c 01       		.byte	0x1
 11467 027d 3F       		.uleb128 0x3f
 11468 027e 19       		.uleb128 0x19
 11469 027f 03       		.uleb128 0x3
 11470 0280 0E       		.uleb128 0xe
 11471 0281 3A       		.uleb128 0x3a
 11472 0282 0B       		.uleb128 0xb
 11473 0283 3B       		.uleb128 0x3b
 11474 0284 05       		.uleb128 0x5
 11475 0285 27       		.uleb128 0x27
 11476 0286 19       		.uleb128 0x19
 11477 0287 11       		.uleb128 0x11
 11478 0288 01       		.uleb128 0x1
 11479 0289 12       		.uleb128 0x12
 11480 028a 06       		.uleb128 0x6
 11481 028b 40       		.uleb128 0x40
 11482 028c 18       		.uleb128 0x18
 11483 028d 9742     		.uleb128 0x2117
 11484 028f 19       		.uleb128 0x19
 11485 0290 01       		.uleb128 0x1
 11486 0291 13       		.uleb128 0x13
 11487 0292 00       		.byte	0
 11488 0293 00       		.byte	0
 11489 0294 33       		.uleb128 0x33
 11490 0295 05       		.uleb128 0x5
 11491 0296 00       		.byte	0
ARM GAS  /tmp/ccDE0Mq0.s 			page 203


 11492 0297 03       		.uleb128 0x3
 11493 0298 0E       		.uleb128 0xe
 11494 0299 3A       		.uleb128 0x3a
 11495 029a 0B       		.uleb128 0xb
 11496 029b 3B       		.uleb128 0x3b
 11497 029c 05       		.uleb128 0x5
 11498 029d 49       		.uleb128 0x49
 11499 029e 13       		.uleb128 0x13
 11500 029f 02       		.uleb128 0x2
 11501 02a0 18       		.uleb128 0x18
 11502 02a1 00       		.byte	0
 11503 02a2 00       		.byte	0
 11504 02a3 34       		.uleb128 0x34
 11505 02a4 2E       		.uleb128 0x2e
 11506 02a5 01       		.byte	0x1
 11507 02a6 3F       		.uleb128 0x3f
 11508 02a7 19       		.uleb128 0x19
 11509 02a8 03       		.uleb128 0x3
 11510 02a9 0E       		.uleb128 0xe
 11511 02aa 3A       		.uleb128 0x3a
 11512 02ab 0B       		.uleb128 0xb
 11513 02ac 3B       		.uleb128 0x3b
 11514 02ad 05       		.uleb128 0x5
 11515 02ae 27       		.uleb128 0x27
 11516 02af 19       		.uleb128 0x19
 11517 02b0 49       		.uleb128 0x49
 11518 02b1 13       		.uleb128 0x13
 11519 02b2 11       		.uleb128 0x11
 11520 02b3 01       		.uleb128 0x1
 11521 02b4 12       		.uleb128 0x12
 11522 02b5 06       		.uleb128 0x6
 11523 02b6 40       		.uleb128 0x40
 11524 02b7 18       		.uleb128 0x18
 11525 02b8 9742     		.uleb128 0x2117
 11526 02ba 19       		.uleb128 0x19
 11527 02bb 01       		.uleb128 0x1
 11528 02bc 13       		.uleb128 0x13
 11529 02bd 00       		.byte	0
 11530 02be 00       		.byte	0
 11531 02bf 35       		.uleb128 0x35
 11532 02c0 2E       		.uleb128 0x2e
 11533 02c1 00       		.byte	0
 11534 02c2 3F       		.uleb128 0x3f
 11535 02c3 19       		.uleb128 0x19
 11536 02c4 03       		.uleb128 0x3
 11537 02c5 0E       		.uleb128 0xe
 11538 02c6 3A       		.uleb128 0x3a
 11539 02c7 0B       		.uleb128 0xb
 11540 02c8 3B       		.uleb128 0x3b
 11541 02c9 05       		.uleb128 0x5
 11542 02ca 27       		.uleb128 0x27
 11543 02cb 19       		.uleb128 0x19
 11544 02cc 11       		.uleb128 0x11
 11545 02cd 01       		.uleb128 0x1
 11546 02ce 12       		.uleb128 0x12
 11547 02cf 06       		.uleb128 0x6
 11548 02d0 40       		.uleb128 0x40
ARM GAS  /tmp/ccDE0Mq0.s 			page 204


 11549 02d1 18       		.uleb128 0x18
 11550 02d2 9642     		.uleb128 0x2116
 11551 02d4 19       		.uleb128 0x19
 11552 02d5 00       		.byte	0
 11553 02d6 00       		.byte	0
 11554 02d7 36       		.uleb128 0x36
 11555 02d8 2E       		.uleb128 0x2e
 11556 02d9 01       		.byte	0x1
 11557 02da 03       		.uleb128 0x3
 11558 02db 0E       		.uleb128 0xe
 11559 02dc 3A       		.uleb128 0x3a
 11560 02dd 0B       		.uleb128 0xb
 11561 02de 3B       		.uleb128 0x3b
 11562 02df 05       		.uleb128 0x5
 11563 02e0 27       		.uleb128 0x27
 11564 02e1 19       		.uleb128 0x19
 11565 02e2 11       		.uleb128 0x11
 11566 02e3 01       		.uleb128 0x1
 11567 02e4 12       		.uleb128 0x12
 11568 02e5 06       		.uleb128 0x6
 11569 02e6 40       		.uleb128 0x40
 11570 02e7 18       		.uleb128 0x18
 11571 02e8 9642     		.uleb128 0x2116
 11572 02ea 19       		.uleb128 0x19
 11573 02eb 01       		.uleb128 0x1
 11574 02ec 13       		.uleb128 0x13
 11575 02ed 00       		.byte	0
 11576 02ee 00       		.byte	0
 11577 02ef 37       		.uleb128 0x37
 11578 02f0 2E       		.uleb128 0x2e
 11579 02f1 01       		.byte	0x1
 11580 02f2 03       		.uleb128 0x3
 11581 02f3 0E       		.uleb128 0xe
 11582 02f4 3A       		.uleb128 0x3a
 11583 02f5 0B       		.uleb128 0xb
 11584 02f6 3B       		.uleb128 0x3b
 11585 02f7 05       		.uleb128 0x5
 11586 02f8 27       		.uleb128 0x27
 11587 02f9 19       		.uleb128 0x19
 11588 02fa 49       		.uleb128 0x49
 11589 02fb 13       		.uleb128 0x13
 11590 02fc 11       		.uleb128 0x11
 11591 02fd 01       		.uleb128 0x1
 11592 02fe 12       		.uleb128 0x12
 11593 02ff 06       		.uleb128 0x6
 11594 0300 40       		.uleb128 0x40
 11595 0301 18       		.uleb128 0x18
 11596 0302 9642     		.uleb128 0x2116
 11597 0304 19       		.uleb128 0x19
 11598 0305 01       		.uleb128 0x1
 11599 0306 13       		.uleb128 0x13
 11600 0307 00       		.byte	0
 11601 0308 00       		.byte	0
 11602 0309 38       		.uleb128 0x38
 11603 030a 2E       		.uleb128 0x2e
 11604 030b 01       		.byte	0x1
 11605 030c 03       		.uleb128 0x3
ARM GAS  /tmp/ccDE0Mq0.s 			page 205


 11606 030d 0E       		.uleb128 0xe
 11607 030e 3A       		.uleb128 0x3a
 11608 030f 0B       		.uleb128 0xb
 11609 0310 3B       		.uleb128 0x3b
 11610 0311 0B       		.uleb128 0xb
 11611 0312 27       		.uleb128 0x27
 11612 0313 19       		.uleb128 0x19
 11613 0314 11       		.uleb128 0x11
 11614 0315 01       		.uleb128 0x1
 11615 0316 12       		.uleb128 0x12
 11616 0317 06       		.uleb128 0x6
 11617 0318 40       		.uleb128 0x40
 11618 0319 18       		.uleb128 0x18
 11619 031a 9742     		.uleb128 0x2117
 11620 031c 19       		.uleb128 0x19
 11621 031d 01       		.uleb128 0x1
 11622 031e 13       		.uleb128 0x13
 11623 031f 00       		.byte	0
 11624 0320 00       		.byte	0
 11625 0321 39       		.uleb128 0x39
 11626 0322 05       		.uleb128 0x5
 11627 0323 00       		.byte	0
 11628 0324 03       		.uleb128 0x3
 11629 0325 0E       		.uleb128 0xe
 11630 0326 3A       		.uleb128 0x3a
 11631 0327 0B       		.uleb128 0xb
 11632 0328 3B       		.uleb128 0x3b
 11633 0329 0B       		.uleb128 0xb
 11634 032a 49       		.uleb128 0x49
 11635 032b 13       		.uleb128 0x13
 11636 032c 02       		.uleb128 0x2
 11637 032d 18       		.uleb128 0x18
 11638 032e 00       		.byte	0
 11639 032f 00       		.byte	0
 11640 0330 3A       		.uleb128 0x3a
 11641 0331 05       		.uleb128 0x5
 11642 0332 00       		.byte	0
 11643 0333 03       		.uleb128 0x3
 11644 0334 08       		.uleb128 0x8
 11645 0335 3A       		.uleb128 0x3a
 11646 0336 0B       		.uleb128 0xb
 11647 0337 3B       		.uleb128 0x3b
 11648 0338 0B       		.uleb128 0xb
 11649 0339 49       		.uleb128 0x49
 11650 033a 13       		.uleb128 0x13
 11651 033b 02       		.uleb128 0x2
 11652 033c 18       		.uleb128 0x18
 11653 033d 00       		.byte	0
 11654 033e 00       		.byte	0
 11655 033f 3B       		.uleb128 0x3b
 11656 0340 2E       		.uleb128 0x2e
 11657 0341 01       		.byte	0x1
 11658 0342 03       		.uleb128 0x3
 11659 0343 0E       		.uleb128 0xe
 11660 0344 3A       		.uleb128 0x3a
 11661 0345 0B       		.uleb128 0xb
 11662 0346 3B       		.uleb128 0x3b
ARM GAS  /tmp/ccDE0Mq0.s 			page 206


 11663 0347 0B       		.uleb128 0xb
 11664 0348 27       		.uleb128 0x27
 11665 0349 19       		.uleb128 0x19
 11666 034a 11       		.uleb128 0x11
 11667 034b 01       		.uleb128 0x1
 11668 034c 12       		.uleb128 0x12
 11669 034d 06       		.uleb128 0x6
 11670 034e 40       		.uleb128 0x40
 11671 034f 18       		.uleb128 0x18
 11672 0350 9642     		.uleb128 0x2116
 11673 0352 19       		.uleb128 0x19
 11674 0353 01       		.uleb128 0x1
 11675 0354 13       		.uleb128 0x13
 11676 0355 00       		.byte	0
 11677 0356 00       		.byte	0
 11678 0357 3C       		.uleb128 0x3c
 11679 0358 34       		.uleb128 0x34
 11680 0359 00       		.byte	0
 11681 035a 03       		.uleb128 0x3
 11682 035b 0E       		.uleb128 0xe
 11683 035c 49       		.uleb128 0x49
 11684 035d 13       		.uleb128 0x13
 11685 035e 34       		.uleb128 0x34
 11686 035f 19       		.uleb128 0x19
 11687 0360 02       		.uleb128 0x2
 11688 0361 18       		.uleb128 0x18
 11689 0362 00       		.byte	0
 11690 0363 00       		.byte	0
 11691 0364 3D       		.uleb128 0x3d
 11692 0365 2E       		.uleb128 0x2e
 11693 0366 01       		.byte	0x1
 11694 0367 03       		.uleb128 0x3
 11695 0368 0E       		.uleb128 0xe
 11696 0369 3A       		.uleb128 0x3a
 11697 036a 0B       		.uleb128 0xb
 11698 036b 3B       		.uleb128 0x3b
 11699 036c 0B       		.uleb128 0xb
 11700 036d 27       		.uleb128 0x27
 11701 036e 19       		.uleb128 0x19
 11702 036f 49       		.uleb128 0x49
 11703 0370 13       		.uleb128 0x13
 11704 0371 11       		.uleb128 0x11
 11705 0372 01       		.uleb128 0x1
 11706 0373 12       		.uleb128 0x12
 11707 0374 06       		.uleb128 0x6
 11708 0375 40       		.uleb128 0x40
 11709 0376 18       		.uleb128 0x18
 11710 0377 9642     		.uleb128 0x2116
 11711 0379 19       		.uleb128 0x19
 11712 037a 01       		.uleb128 0x1
 11713 037b 13       		.uleb128 0x13
 11714 037c 00       		.byte	0
 11715 037d 00       		.byte	0
 11716 037e 3E       		.uleb128 0x3e
 11717 037f 34       		.uleb128 0x34
 11718 0380 00       		.byte	0
 11719 0381 03       		.uleb128 0x3
ARM GAS  /tmp/ccDE0Mq0.s 			page 207


 11720 0382 08       		.uleb128 0x8
 11721 0383 3A       		.uleb128 0x3a
 11722 0384 0B       		.uleb128 0xb
 11723 0385 3B       		.uleb128 0x3b
 11724 0386 0B       		.uleb128 0xb
 11725 0387 49       		.uleb128 0x49
 11726 0388 13       		.uleb128 0x13
 11727 0389 02       		.uleb128 0x2
 11728 038a 18       		.uleb128 0x18
 11729 038b 00       		.byte	0
 11730 038c 00       		.byte	0
 11731 038d 3F       		.uleb128 0x3f
 11732 038e 2E       		.uleb128 0x2e
 11733 038f 00       		.byte	0
 11734 0390 03       		.uleb128 0x3
 11735 0391 0E       		.uleb128 0xe
 11736 0392 3A       		.uleb128 0x3a
 11737 0393 0B       		.uleb128 0xb
 11738 0394 3B       		.uleb128 0x3b
 11739 0395 05       		.uleb128 0x5
 11740 0396 27       		.uleb128 0x27
 11741 0397 19       		.uleb128 0x19
 11742 0398 11       		.uleb128 0x11
 11743 0399 01       		.uleb128 0x1
 11744 039a 12       		.uleb128 0x12
 11745 039b 06       		.uleb128 0x6
 11746 039c 40       		.uleb128 0x40
 11747 039d 18       		.uleb128 0x18
 11748 039e 9642     		.uleb128 0x2116
 11749 03a0 19       		.uleb128 0x19
 11750 03a1 00       		.byte	0
 11751 03a2 00       		.byte	0
 11752 03a3 40       		.uleb128 0x40
 11753 03a4 2E       		.uleb128 0x2e
 11754 03a5 01       		.byte	0x1
 11755 03a6 03       		.uleb128 0x3
 11756 03a7 0E       		.uleb128 0xe
 11757 03a8 3A       		.uleb128 0x3a
 11758 03a9 0B       		.uleb128 0xb
 11759 03aa 3B       		.uleb128 0x3b
 11760 03ab 05       		.uleb128 0x5
 11761 03ac 27       		.uleb128 0x27
 11762 03ad 19       		.uleb128 0x19
 11763 03ae 11       		.uleb128 0x11
 11764 03af 01       		.uleb128 0x1
 11765 03b0 12       		.uleb128 0x12
 11766 03b1 06       		.uleb128 0x6
 11767 03b2 40       		.uleb128 0x40
 11768 03b3 18       		.uleb128 0x18
 11769 03b4 9742     		.uleb128 0x2117
 11770 03b6 19       		.uleb128 0x19
 11771 03b7 01       		.uleb128 0x1
 11772 03b8 13       		.uleb128 0x13
 11773 03b9 00       		.byte	0
 11774 03ba 00       		.byte	0
 11775 03bb 41       		.uleb128 0x41
 11776 03bc 1D       		.uleb128 0x1d
ARM GAS  /tmp/ccDE0Mq0.s 			page 208


 11777 03bd 01       		.byte	0x1
 11778 03be 31       		.uleb128 0x31
 11779 03bf 13       		.uleb128 0x13
 11780 03c0 11       		.uleb128 0x11
 11781 03c1 01       		.uleb128 0x1
 11782 03c2 12       		.uleb128 0x12
 11783 03c3 06       		.uleb128 0x6
 11784 03c4 58       		.uleb128 0x58
 11785 03c5 0B       		.uleb128 0xb
 11786 03c6 59       		.uleb128 0x59
 11787 03c7 05       		.uleb128 0x5
 11788 03c8 00       		.byte	0
 11789 03c9 00       		.byte	0
 11790 03ca 42       		.uleb128 0x42
 11791 03cb 05       		.uleb128 0x5
 11792 03cc 00       		.byte	0
 11793 03cd 31       		.uleb128 0x31
 11794 03ce 13       		.uleb128 0x13
 11795 03cf 02       		.uleb128 0x2
 11796 03d0 18       		.uleb128 0x18
 11797 03d1 00       		.byte	0
 11798 03d2 00       		.byte	0
 11799 03d3 43       		.uleb128 0x43
 11800 03d4 2E       		.uleb128 0x2e
 11801 03d5 01       		.byte	0x1
 11802 03d6 03       		.uleb128 0x3
 11803 03d7 0E       		.uleb128 0xe
 11804 03d8 3A       		.uleb128 0x3a
 11805 03d9 0B       		.uleb128 0xb
 11806 03da 3B       		.uleb128 0x3b
 11807 03db 05       		.uleb128 0x5
 11808 03dc 27       		.uleb128 0x27
 11809 03dd 19       		.uleb128 0x19
 11810 03de 20       		.uleb128 0x20
 11811 03df 0B       		.uleb128 0xb
 11812 03e0 00       		.byte	0
 11813 03e1 00       		.byte	0
 11814 03e2 44       		.uleb128 0x44
 11815 03e3 05       		.uleb128 0x5
 11816 03e4 00       		.byte	0
 11817 03e5 03       		.uleb128 0x3
 11818 03e6 0E       		.uleb128 0xe
 11819 03e7 3A       		.uleb128 0x3a
 11820 03e8 0B       		.uleb128 0xb
 11821 03e9 3B       		.uleb128 0x3b
 11822 03ea 05       		.uleb128 0x5
 11823 03eb 49       		.uleb128 0x49
 11824 03ec 13       		.uleb128 0x13
 11825 03ed 00       		.byte	0
 11826 03ee 00       		.byte	0
 11827 03ef 00       		.byte	0
 11828              		.section	.debug_aranges,"",%progbits
 11829 0000 A4010000 		.4byte	0x1a4
 11830 0004 0200     		.2byte	0x2
 11831 0006 00000000 		.4byte	.Ldebug_info0
 11832 000a 04       		.byte	0x4
 11833 000b 00       		.byte	0
ARM GAS  /tmp/ccDE0Mq0.s 			page 209


 11834 000c 0000     		.2byte	0
 11835 000e 0000     		.2byte	0
 11836 0010 00000000 		.4byte	.LFB127
 11837 0014 12000000 		.4byte	.LFE127-.LFB127
 11838 0018 00000000 		.4byte	.LFB128
 11839 001c 12000000 		.4byte	.LFE128-.LFB128
 11840 0020 00000000 		.4byte	.LFB129
 11841 0024 0A000000 		.4byte	.LFE129-.LFB129
 11842 0028 00000000 		.4byte	.LFB130
 11843 002c 0A000000 		.4byte	.LFE130-.LFB130
 11844 0030 00000000 		.4byte	.LFB156
 11845 0034 12000000 		.4byte	.LFE156-.LFB156
 11846 0038 00000000 		.4byte	.LFB157
 11847 003c 3C000000 		.4byte	.LFE157-.LFB157
 11848 0040 00000000 		.4byte	.LFB158
 11849 0044 12000000 		.4byte	.LFE158-.LFB158
 11850 0048 00000000 		.4byte	.LFB159
 11851 004c 12000000 		.4byte	.LFE159-.LFB159
 11852 0050 00000000 		.4byte	.LFB182
 11853 0054 2C000000 		.4byte	.LFE182-.LFB182
 11854 0058 00000000 		.4byte	.LFB187
 11855 005c 18000000 		.4byte	.LFE187-.LFB187
 11856 0060 00000000 		.4byte	.LFB235
 11857 0064 0A000000 		.4byte	.LFE235-.LFB235
 11858 0068 00000000 		.4byte	.LFB236
 11859 006c 0A000000 		.4byte	.LFE236-.LFB236
 11860 0070 00000000 		.4byte	.LFB237
 11861 0074 0A000000 		.4byte	.LFE237-.LFB237
 11862 0078 00000000 		.4byte	.LFB238
 11863 007c 0A000000 		.4byte	.LFE238-.LFB238
 11864 0080 00000000 		.4byte	.LFB241
 11865 0084 14000000 		.4byte	.LFE241-.LFB241
 11866 0088 00000000 		.4byte	.LFB248
 11867 008c 16000000 		.4byte	.LFE248-.LFB248
 11868 0090 00000000 		.4byte	.LFB250
 11869 0094 18000000 		.4byte	.LFE250-.LFB250
 11870 0098 00000000 		.4byte	.LFB268
 11871 009c 3E000000 		.4byte	.LFE268-.LFB268
 11872 00a0 00000000 		.4byte	.LFB269
 11873 00a4 92000000 		.4byte	.LFE269-.LFB269
 11874 00a8 00000000 		.4byte	.LFB270
 11875 00ac 2E000000 		.4byte	.LFE270-.LFB270
 11876 00b0 00000000 		.4byte	.LFB271
 11877 00b4 36000000 		.4byte	.LFE271-.LFB271
 11878 00b8 00000000 		.4byte	.LFB272
 11879 00bc 14000000 		.4byte	.LFE272-.LFB272
 11880 00c0 00000000 		.4byte	.LFB273
 11881 00c4 3C000000 		.4byte	.LFE273-.LFB273
 11882 00c8 00000000 		.4byte	.LFB274
 11883 00cc 40000000 		.4byte	.LFE274-.LFB274
 11884 00d0 00000000 		.4byte	.LFB275
 11885 00d4 52000000 		.4byte	.LFE275-.LFB275
 11886 00d8 00000000 		.4byte	.LFB276
 11887 00dc 0A010000 		.4byte	.LFE276-.LFB276
 11888 00e0 00000000 		.4byte	.LFB277
 11889 00e4 2C010000 		.4byte	.LFE277-.LFB277
 11890 00e8 00000000 		.4byte	.LFB278
ARM GAS  /tmp/ccDE0Mq0.s 			page 210


 11891 00ec 70010000 		.4byte	.LFE278-.LFB278
 11892 00f0 00000000 		.4byte	.LFB279
 11893 00f4 7C010000 		.4byte	.LFE279-.LFB279
 11894 00f8 00000000 		.4byte	.LFB280
 11895 00fc 54010000 		.4byte	.LFE280-.LFB280
 11896 0100 00000000 		.4byte	.LFB281
 11897 0104 E0000000 		.4byte	.LFE281-.LFB281
 11898 0108 00000000 		.4byte	.LFB282
 11899 010c 26020000 		.4byte	.LFE282-.LFB282
 11900 0110 00000000 		.4byte	.LFB283
 11901 0114 20000000 		.4byte	.LFE283-.LFB283
 11902 0118 00000000 		.4byte	.LFB284
 11903 011c 64000000 		.4byte	.LFE284-.LFB284
 11904 0120 00000000 		.4byte	.LFB285
 11905 0124 38010000 		.4byte	.LFE285-.LFB285
 11906 0128 00000000 		.4byte	.LFB286
 11907 012c 60000000 		.4byte	.LFE286-.LFB286
 11908 0130 00000000 		.4byte	.LFB287
 11909 0134 2C010000 		.4byte	.LFE287-.LFB287
 11910 0138 00000000 		.4byte	.LFB288
 11911 013c 2A000000 		.4byte	.LFE288-.LFB288
 11912 0140 00000000 		.4byte	.LFB289
 11913 0144 58020000 		.4byte	.LFE289-.LFB289
 11914 0148 00000000 		.4byte	.LFB290
 11915 014c 1A000000 		.4byte	.LFE290-.LFB290
 11916 0150 00000000 		.4byte	.LFB291
 11917 0154 40000000 		.4byte	.LFE291-.LFB291
 11918 0158 00000000 		.4byte	.LFB292
 11919 015c 40000000 		.4byte	.LFE292-.LFB292
 11920 0160 00000000 		.4byte	.LFB293
 11921 0164 30000000 		.4byte	.LFE293-.LFB293
 11922 0168 00000000 		.4byte	.LFB294
 11923 016c 42010000 		.4byte	.LFE294-.LFB294
 11924 0170 00000000 		.4byte	.LFB295
 11925 0174 60010000 		.4byte	.LFE295-.LFB295
 11926 0178 00000000 		.4byte	.LFB296
 11927 017c 34000000 		.4byte	.LFE296-.LFB296
 11928 0180 00000000 		.4byte	.LFB297
 11929 0184 34000000 		.4byte	.LFE297-.LFB297
 11930 0188 00000000 		.4byte	.LFB298
 11931 018c 34000000 		.4byte	.LFE298-.LFB298
 11932 0190 00000000 		.4byte	.LFB299
 11933 0194 34000000 		.4byte	.LFE299-.LFB299
 11934 0198 00000000 		.4byte	.LFB300
 11935 019c 0C010000 		.4byte	.LFE300-.LFB300
 11936 01a0 00000000 		.4byte	0
 11937 01a4 00000000 		.4byte	0
 11938              		.section	.debug_ranges,"",%progbits
 11939              	.Ldebug_ranges0:
 11940 0000 00000000 		.4byte	.LFB127
 11941 0004 12000000 		.4byte	.LFE127
 11942 0008 00000000 		.4byte	.LFB128
 11943 000c 12000000 		.4byte	.LFE128
 11944 0010 00000000 		.4byte	.LFB129
 11945 0014 0A000000 		.4byte	.LFE129
 11946 0018 00000000 		.4byte	.LFB130
 11947 001c 0A000000 		.4byte	.LFE130
ARM GAS  /tmp/ccDE0Mq0.s 			page 211


 11948 0020 00000000 		.4byte	.LFB156
 11949 0024 12000000 		.4byte	.LFE156
 11950 0028 00000000 		.4byte	.LFB157
 11951 002c 3C000000 		.4byte	.LFE157
 11952 0030 00000000 		.4byte	.LFB158
 11953 0034 12000000 		.4byte	.LFE158
 11954 0038 00000000 		.4byte	.LFB159
 11955 003c 12000000 		.4byte	.LFE159
 11956 0040 00000000 		.4byte	.LFB182
 11957 0044 2C000000 		.4byte	.LFE182
 11958 0048 00000000 		.4byte	.LFB187
 11959 004c 18000000 		.4byte	.LFE187
 11960 0050 00000000 		.4byte	.LFB235
 11961 0054 0A000000 		.4byte	.LFE235
 11962 0058 00000000 		.4byte	.LFB236
 11963 005c 0A000000 		.4byte	.LFE236
 11964 0060 00000000 		.4byte	.LFB237
 11965 0064 0A000000 		.4byte	.LFE237
 11966 0068 00000000 		.4byte	.LFB238
 11967 006c 0A000000 		.4byte	.LFE238
 11968 0070 00000000 		.4byte	.LFB241
 11969 0074 14000000 		.4byte	.LFE241
 11970 0078 00000000 		.4byte	.LFB248
 11971 007c 16000000 		.4byte	.LFE248
 11972 0080 00000000 		.4byte	.LFB250
 11973 0084 18000000 		.4byte	.LFE250
 11974 0088 00000000 		.4byte	.LFB268
 11975 008c 3E000000 		.4byte	.LFE268
 11976 0090 00000000 		.4byte	.LFB269
 11977 0094 92000000 		.4byte	.LFE269
 11978 0098 00000000 		.4byte	.LFB270
 11979 009c 2E000000 		.4byte	.LFE270
 11980 00a0 00000000 		.4byte	.LFB271
 11981 00a4 36000000 		.4byte	.LFE271
 11982 00a8 00000000 		.4byte	.LFB272
 11983 00ac 14000000 		.4byte	.LFE272
 11984 00b0 00000000 		.4byte	.LFB273
 11985 00b4 3C000000 		.4byte	.LFE273
 11986 00b8 00000000 		.4byte	.LFB274
 11987 00bc 40000000 		.4byte	.LFE274
 11988 00c0 00000000 		.4byte	.LFB275
 11989 00c4 52000000 		.4byte	.LFE275
 11990 00c8 00000000 		.4byte	.LFB276
 11991 00cc 0A010000 		.4byte	.LFE276
 11992 00d0 00000000 		.4byte	.LFB277
 11993 00d4 2C010000 		.4byte	.LFE277
 11994 00d8 00000000 		.4byte	.LFB278
 11995 00dc 70010000 		.4byte	.LFE278
 11996 00e0 00000000 		.4byte	.LFB279
 11997 00e4 7C010000 		.4byte	.LFE279
 11998 00e8 00000000 		.4byte	.LFB280
 11999 00ec 54010000 		.4byte	.LFE280
 12000 00f0 00000000 		.4byte	.LFB281
 12001 00f4 E0000000 		.4byte	.LFE281
 12002 00f8 00000000 		.4byte	.LFB282
 12003 00fc 26020000 		.4byte	.LFE282
 12004 0100 00000000 		.4byte	.LFB283
ARM GAS  /tmp/ccDE0Mq0.s 			page 212


 12005 0104 20000000 		.4byte	.LFE283
 12006 0108 00000000 		.4byte	.LFB284
 12007 010c 64000000 		.4byte	.LFE284
 12008 0110 00000000 		.4byte	.LFB285
 12009 0114 38010000 		.4byte	.LFE285
 12010 0118 00000000 		.4byte	.LFB286
 12011 011c 60000000 		.4byte	.LFE286
 12012 0120 00000000 		.4byte	.LFB287
 12013 0124 2C010000 		.4byte	.LFE287
 12014 0128 00000000 		.4byte	.LFB288
 12015 012c 2A000000 		.4byte	.LFE288
 12016 0130 00000000 		.4byte	.LFB289
 12017 0134 58020000 		.4byte	.LFE289
 12018 0138 00000000 		.4byte	.LFB290
 12019 013c 1A000000 		.4byte	.LFE290
 12020 0140 00000000 		.4byte	.LFB291
 12021 0144 40000000 		.4byte	.LFE291
 12022 0148 00000000 		.4byte	.LFB292
 12023 014c 40000000 		.4byte	.LFE292
 12024 0150 00000000 		.4byte	.LFB293
 12025 0154 30000000 		.4byte	.LFE293
 12026 0158 00000000 		.4byte	.LFB294
 12027 015c 42010000 		.4byte	.LFE294
 12028 0160 00000000 		.4byte	.LFB295
 12029 0164 60010000 		.4byte	.LFE295
 12030 0168 00000000 		.4byte	.LFB296
 12031 016c 34000000 		.4byte	.LFE296
 12032 0170 00000000 		.4byte	.LFB297
 12033 0174 34000000 		.4byte	.LFE297
 12034 0178 00000000 		.4byte	.LFB298
 12035 017c 34000000 		.4byte	.LFE298
 12036 0180 00000000 		.4byte	.LFB299
 12037 0184 34000000 		.4byte	.LFE299
 12038 0188 00000000 		.4byte	.LFB300
 12039 018c 0C010000 		.4byte	.LFE300
 12040 0190 00000000 		.4byte	0
 12041 0194 00000000 		.4byte	0
 12042              		.section	.debug_line,"",%progbits
 12043              	.Ldebug_line0:
 12044 0000 5D0B0000 		.section	.debug_str,"MS",%progbits,1
 12044      02005F04 
 12044      00000201 
 12044      FB0E0D00 
 12044      01010101 
 12045              	.LASF431:
 12046 0000 5553425F 		.ascii	"USB_STOP\000"
 12046      53544F50 
 12046      00
 12047              	.LASF640:
 12048 0009 2F686F6D 		.ascii	"/home/matt/Documents/fibre-link/header-detection/pc"
 12048      652F6D61 
 12048      74742F44 
 12048      6F63756D 
 12048      656E7473 
 12049 003c 622F7374 		.ascii	"b/stm32/firmware\000"
 12049      6D33322F 
 12049      6669726D 
ARM GAS  /tmp/ccDE0Mq0.s 			page 213


 12049      77617265 
 12049      00
 12050              	.LASF243:
 12051 004d 706F7274 		.ascii	"port_intctx\000"
 12051      5F696E74 
 12051      63747800 
 12052              	.LASF274:
 12053 0059 63685F70 		.ascii	"ch_ptrsize\000"
 12053      74727369 
 12053      7A6500
 12054              	.LASF399:
 12055 0064 6576656E 		.ascii	"event\000"
 12055      7400
 12056              	.LASF612:
 12057 006a 5F5F6675 		.ascii	"__func__\000"
 12057      6E635F5F 
 12057      00
 12058              	.LASF139:
 12059 0073 6D73675F 		.ascii	"msg_t\000"
 12059      7400
 12060              	.LASF254:
 12061 0079 6D5F6372 		.ascii	"m_crit_isr\000"
 12061      69745F69 
 12061      737200
 12062              	.LASF634:
 12063 0084 706F7274 		.ascii	"port_unlock_from_isr\000"
 12063      5F756E6C 
 12063      6F636B5F 
 12063      66726F6D 
 12063      5F697372 
 12064              	.LASF452:
 12065 0099 5553425F 		.ascii	"USB_EVENT_UNCONFIGURED\000"
 12065      4556454E 
 12065      545F554E 
 12065      434F4E46 
 12065      49475552 
 12066              	.LASF496:
 12067 00b0 44494550 		.ascii	"DIEPTXF0\000"
 12067      54584630 
 12067      00
 12068              	.LASF570:
 12069 00b9 55534244 		.ascii	"USBD2\000"
 12069      3200
 12070              	.LASF398:
 12071 00bf 53657269 		.ascii	"SerialDriver\000"
 12071      616C4472 
 12071      69766572 
 12071      00
 12072              	.LASF287:
 12073 00cc 63665F6F 		.ascii	"cf_off_time\000"
 12073      66665F74 
 12073      696D6500 
 12074              	.LASF195:
 12075 00d8 63685F73 		.ascii	"ch_system_t\000"
 12075      79737465 
 12075      6D5F7400 
 12076              	.LASF5:
ARM GAS  /tmp/ccDE0Mq0.s 			page 214


 12077 00e4 5F5F7569 		.ascii	"__uint8_t\000"
 12077      6E74385F 
 12077      7400
 12078              	.LASF260:
 12079 00ee 77747365 		.ascii	"wtsemp\000"
 12079      6D7000
 12080              	.LASF301:
 12081 00f5 5F426F6F 		.ascii	"_Bool\000"
 12081      6C00
 12082              	.LASF70:
 12083 00fb 5F6D6273 		.ascii	"_mbstate\000"
 12083      74617465 
 12083      00
 12084              	.LASF49:
 12085 0104 5F617465 		.ascii	"_atexit\000"
 12085      78697400 
 12086              	.LASF625:
 12087 010c 6F73616C 		.ascii	"osalSysUnlock\000"
 12087      53797355 
 12087      6E6C6F63 
 12087      6B00
 12088              	.LASF515:
 12089 011a 72657376 		.ascii	"resvd700\000"
 12089      64373030 
 12089      00
 12090              	.LASF526:
 12091 0123 44564255 		.ascii	"DVBUSDIS\000"
 12091      53444953 
 12091      00
 12092              	.LASF247:
 12093 012c 776F7273 		.ascii	"worst\000"
 12093      7400
 12094              	.LASF189:
 12095 0132 76745F73 		.ascii	"vt_systime\000"
 12095      79737469 
 12095      6D6500
 12096              	.LASF578:
 12097 013d 646F6E65 		.ascii	"done\000"
 12097      00
 12098              	.LASF237:
 12099 0142 5243435F 		.ascii	"RCC_TypeDef\000"
 12099      54797065 
 12099      44656600 
 12100              	.LASF39:
 12101 014e 5F5F746D 		.ascii	"__tm_mon\000"
 12101      5F6D6F6E 
 12101      00
 12102              	.LASF47:
 12103 0157 5F666E74 		.ascii	"_fntypes\000"
 12103      79706573 
 12103      00
 12104              	.LASF269:
 12105 0160 6D5F6E65 		.ascii	"m_next\000"
 12105      787400
 12106              	.LASF331:
 12107 0167 50434461 		.ascii	"PCData\000"
 12107      746100
ARM GAS  /tmp/ccDE0Mq0.s 			page 215


 12108              	.LASF77:
 12109 016e 5F696E63 		.ascii	"_inc\000"
 12109      00
 12110              	.LASF50:
 12111 0173 5F696E64 		.ascii	"_ind\000"
 12111      00
 12112              	.LASF405:
 12113 0178 72656164 		.ascii	"read\000"
 12113      00
 12114              	.LASF500:
 12115 017d 47434346 		.ascii	"GCCFG\000"
 12115      4700
 12116              	.LASF368:
 12117 0183 42445452 		.ascii	"BDTR\000"
 12117      00
 12118              	.LASF601:
 12119 0188 6F74675F 		.ascii	"otg_epout_handler\000"
 12119      65706F75 
 12119      745F6861 
 12119      6E646C65 
 12119      7200
 12120              	.LASF129:
 12121 019a 75696E74 		.ascii	"uint16_t\000"
 12121      31365F74 
 12121      00
 12122              	.LASF568:
 12123 01a3 736F665F 		.ascii	"sof_cb\000"
 12123      636200
 12124              	.LASF342:
 12125 01aa 4558545F 		.ascii	"EXT_ACTIVE\000"
 12125      41435449 
 12125      564500
 12126              	.LASF56:
 12127 01b5 5F666C61 		.ascii	"_flags\000"
 12127      677300
 12128              	.LASF611:
 12129 01bc 6E657874 		.ascii	"next\000"
 12129      00
 12130              	.LASF324:
 12131 01c1 6F737065 		.ascii	"ospeedr\000"
 12131      65647200 
 12132              	.LASF503:
 12133 01c9 44494550 		.ascii	"DIEPTXF\000"
 12133      54584600 
 12134              	.LASF293:
 12135 01d1 656C5F6E 		.ascii	"el_next\000"
 12135      65787400 
 12136              	.LASF413:
 12137 01d9 696E5F70 		.ascii	"in_params\000"
 12137      6172616D 
 12137      7300
 12138              	.LASF443:
 12139 01e3 5553425F 		.ascii	"USB_EP0_IN_WAITING_TX0\000"
 12139      4550305F 
 12139      494E5F57 
 12139      41495449 
 12139      4E475F54 
ARM GAS  /tmp/ccDE0Mq0.s 			page 216


 12140              	.LASF87:
 12141 01fa 5F637674 		.ascii	"_cvtlen\000"
 12141      6C656E00 
 12142              	.LASF194:
 12143 0202 6C6F636B 		.ascii	"lock_cnt\000"
 12143      5F636E74 
 12143      00
 12144              	.LASF602:
 12145 020b 6570696E 		.ascii	"epint\000"
 12145      7400
 12146              	.LASF170:
 12147 0211 63685F74 		.ascii	"ch_threads_queue\000"
 12147      68726561 
 12147      64735F71 
 12147      75657565 
 12147      00
 12148              	.LASF595:
 12149 0222 7573625F 		.ascii	"usb_lld_stop\000"
 12149      6C6C645F 
 12149      73746F70 
 12149      00
 12150              	.LASF91:
 12151 022f 5F736967 		.ascii	"_sig_func\000"
 12151      5F66756E 
 12151      6300
 12152              	.LASF151:
 12153 0239 705F6E65 		.ascii	"p_newer\000"
 12153      77657200 
 12154              	.LASF513:
 12155 0241 48505254 		.ascii	"HPRT\000"
 12155      00
 12156              	.LASF467:
 12157 0246 4843494E 		.ascii	"HCINT\000"
 12157      5400
 12158              	.LASF284:
 12159 024c 63665F6F 		.ascii	"cf_off_flags\000"
 12159      66665F66 
 12159      6C616773 
 12159      00
 12160              	.LASF69:
 12161 0259 5F6C6F63 		.ascii	"_lock\000"
 12161      6B00
 12162              	.LASF65:
 12163 025f 5F6E6275 		.ascii	"_nbuf\000"
 12163      6600
 12164              	.LASF622:
 12165 0265 6379636C 		.ascii	"cycles\000"
 12165      657300
 12166              	.LASF123:
 12167 026c 5F756E75 		.ascii	"_unused\000"
 12167      73656400 
 12168              	.LASF330:
 12169 0274 50424461 		.ascii	"PBData\000"
 12169      746100
 12170              	.LASF573:
 12171 027b 65703063 		.ascii	"ep0config\000"
 12171      6F6E6669 
ARM GAS  /tmp/ccDE0Mq0.s 			page 217


 12171      6700
 12172              	.LASF272:
 12173 0285 63685F73 		.ascii	"ch_size\000"
 12173      697A6500 
 12174              	.LASF509:
 12175 028d 48505458 		.ascii	"HPTXSTS\000"
 12175      53545300 
 12176              	.LASF323:
 12177 0295 6F747970 		.ascii	"otyper\000"
 12177      657200
 12178              	.LASF440:
 12179 029c 75736265 		.ascii	"usbepstatus_t\000"
 12179      70737461 
 12179      7475735F 
 12179      7400
 12180              	.LASF480:
 12181 02aa 72657376 		.ascii	"resvd1C\000"
 12181      64314300 
 12182              	.LASF632:
 12183 02b2 63685379 		.ascii	"chSysUnlock\000"
 12183      73556E6C 
 12183      6F636B00 
 12184              	.LASF465:
 12185 02be 48434348 		.ascii	"HCCHAR\000"
 12185      415200
 12186              	.LASF145:
 12187 02c5 74687265 		.ascii	"thread_t\000"
 12187      61645F74 
 12187      00
 12188              	.LASF295:
 12189 02ce 656C5F65 		.ascii	"el_events\000"
 12189      76656E74 
 12189      7300
 12190              	.LASF382:
 12191 02d8 70776D73 		.ascii	"pwmstate_t\000"
 12191      74617465 
 12191      5F7400
 12192              	.LASF188:
 12193 02e3 63685F76 		.ascii	"ch_virtual_timers_list\000"
 12193      69727475 
 12193      616C5F74 
 12193      696D6572 
 12193      735F6C69 
 12194              	.LASF319:
 12195 02fa 76656374 		.ascii	"vector\000"
 12195      6F7200
 12196              	.LASF491:
 12197 0301 47494E54 		.ascii	"GINTSTS\000"
 12197      53545300 
 12198              	.LASF130:
 12199 0309 696E7433 		.ascii	"int32_t\000"
 12199      325F7400 
 12200              	.LASF144:
 12201 0311 73797374 		.ascii	"systime_t\000"
 12201      696D655F 
 12201      7400
 12202              	.LASF101:
ARM GAS  /tmp/ccDE0Mq0.s 			page 218


 12203 031b 5F616464 		.ascii	"_add\000"
 12203      00
 12204              	.LASF205:
 12205 0320 4D304152 		.ascii	"M0AR\000"
 12205      00
 12206              	.LASF472:
 12207 0325 72657376 		.ascii	"resvd1c\000"
 12207      64316300 
 12208              	.LASF510:
 12209 032d 4841494E 		.ascii	"HAINT\000"
 12209      5400
 12210              	.LASF439:
 12211 0333 45505F53 		.ascii	"EP_STATUS_ACTIVE\000"
 12211      54415455 
 12211      535F4143 
 12211      54495645 
 12211      00
 12212              	.LASF619:
 12213 0344 6F73616C 		.ascii	"osalThreadResumeI\000"
 12213      54687265 
 12213      61645265 
 12213      73756D65 
 12213      4900
 12214              	.LASF507:
 12215 0356 48464E55 		.ascii	"HFNUM\000"
 12215      4D00
 12216              	.LASF312:
 12217 035c 716E6F74 		.ascii	"qnotify_t\000"
 12217      6966795F 
 12217      7400
 12218              	.LASF214:
 12219 0366 41504231 		.ascii	"APB1RSTR\000"
 12219      52535452 
 12219      00
 12220              	.LASF317:
 12221 036f 69736869 		.ascii	"ishift\000"
 12221      667400
 12222              	.LASF607:
 12223 0376 6F74675F 		.ascii	"otg_fifo_write_from_buffer\000"
 12223      6669666F 
 12223      5F777269 
 12223      74655F66 
 12223      726F6D5F 
 12224              	.LASF358:
 12225 0391 4750545F 		.ascii	"GPT_ONESHOT\000"
 12225      4F4E4553 
 12225      484F5400 
 12226              	.LASF307:
 12227 039d 715F746F 		.ascii	"q_top\000"
 12227      7000
 12228              	.LASF58:
 12229 03a3 5F6C6266 		.ascii	"_lbfsize\000"
 12229      73697A65 
 12229      00
 12230              	.LASF458:
 12231 03ac 75645F73 		.ascii	"ud_string\000"
 12231      7472696E 
ARM GAS  /tmp/ccDE0Mq0.s 			page 219


 12231      6700
 12232              	.LASF418:
 12233 03b6 65703065 		.ascii	"ep0endcb\000"
 12233      6E646362 
 12233      00
 12234              	.LASF519:
 12235 03bf 72657376 		.ascii	"resvd80C\000"
 12235      64383043 
 12235      00
 12236              	.LASF565:
 12237 03c8 6576656E 		.ascii	"event_cb\000"
 12237      745F6362 
 12237      00
 12238              	.LASF486:
 12239 03d1 474F5447 		.ascii	"GOTGCTL\000"
 12239      43544C00 
 12240              	.LASF461:
 12241 03d9 75736265 		.ascii	"usbepcallback_t\000"
 12241      7063616C 
 12241      6C626163 
 12241      6B5F7400 
 12242              	.LASF68:
 12243 03e9 5F646174 		.ascii	"_data\000"
 12243      6100
 12244              	.LASF198:
 12245 03ef 76746C69 		.ascii	"vtlist\000"
 12245      737400
 12246              	.LASF525:
 12247 03f6 72657376 		.ascii	"resvd824\000"
 12247      64383234 
 12247      00
 12248              	.LASF158:
 12249 03ff 705F7761 		.ascii	"p_waiting\000"
 12249      6974696E 
 12249      6700
 12250              	.LASF255:
 12251 0409 6B65726E 		.ascii	"kernel_stats_t\000"
 12251      656C5F73 
 12251      74617473 
 12251      5F7400
 12252              	.LASF304:
 12253 0418 715F7761 		.ascii	"q_waiting\000"
 12253      6974696E 
 12253      6700
 12254              	.LASF197:
 12255 0422 726C6973 		.ascii	"rlist\000"
 12255      7400
 12256              	.LASF167:
 12257 0428 74687265 		.ascii	"threads_list_t\000"
 12257      6164735F 
 12257      6C697374 
 12257      5F7400
 12258              	.LASF245:
 12259 0437 746D5F63 		.ascii	"tm_calibration_t\000"
 12259      616C6962 
 12259      72617469 
 12259      6F6E5F74 
ARM GAS  /tmp/ccDE0Mq0.s 			page 220


 12259      00
 12260              	.LASF313:
 12261 0448 696E7075 		.ascii	"input_queue_t\000"
 12261      745F7175 
 12261      6575655F 
 12261      7400
 12262              	.LASF124:
 12263 0456 5F5F6C6F 		.ascii	"__lock\000"
 12263      636B00
 12264              	.LASF72:
 12265 045d 5F726565 		.ascii	"_reent\000"
 12265      6E7400
 12266              	.LASF280:
 12267 0464 63665F6F 		.ascii	"cf_off_older\000"
 12267      66665F6F 
 12267      6C646572 
 12267      00
 12268              	.LASF134:
 12269 0471 72747469 		.ascii	"rttime_t\000"
 12269      6D655F74 
 12269      00
 12270              	.LASF353:
 12271 047a 45585444 		.ascii	"EXTD1\000"
 12271      3100
 12272              	.LASF584:
 12273 0480 7573625F 		.ascii	"usb_lld_start_in\000"
 12273      6C6C645F 
 12273      73746172 
 12273      745F696E 
 12273      00
 12274              	.LASF93:
 12275 0491 5F5F7366 		.ascii	"__sf\000"
 12275      00
 12276              	.LASF524:
 12277 0496 72657376 		.ascii	"resvd820\000"
 12277      64383230 
 12277      00
 12278              	.LASF53:
 12279 049f 5F626173 		.ascii	"_base\000"
 12279      6500
 12280              	.LASF633:
 12281 04a5 63685379 		.ascii	"chSysLock\000"
 12281      734C6F63 
 12281      6B00
 12282              	.LASF110:
 12283 04af 5F6D6274 		.ascii	"_mbtowc_state\000"
 12283      6F77635F 
 12283      73746174 
 12283      6500
 12284              	.LASF623:
 12285 04bd 6F73616C 		.ascii	"osalSysUnlockFromISR\000"
 12285      53797355 
 12285      6E6C6F63 
 12285      6B46726F 
 12285      6D495352 
 12286              	.LASF377:
 12287 04d2 47505443 		.ascii	"GPTConfig\000"
ARM GAS  /tmp/ccDE0Mq0.s 			page 221


 12287      6F6E6669 
 12287      6700
 12288              	.LASF394:
 12289 04dc 53445F55 		.ascii	"SD_UNINIT\000"
 12289      4E494E49 
 12289      5400
 12290              	.LASF138:
 12291 04e6 74707269 		.ascii	"tprio_t\000"
 12291      6F5F7400 
 12292              	.LASF251:
 12293 04ee 6E5F6972 		.ascii	"n_irq\000"
 12293      7100
 12294              	.LASF423:
 12295 04f4 73617665 		.ascii	"saved_state\000"
 12295      645F7374 
 12295      61746500 
 12296              	.LASF222:
 12297 0500 41504232 		.ascii	"APB2ENR\000"
 12297      454E5200 
 12298              	.LASF528:
 12299 0508 72657376 		.ascii	"resvd830\000"
 12299      64383330 
 12299      00
 12300              	.LASF34:
 12301 0511 5F5F746D 		.ascii	"__tm\000"
 12301      00
 12302              	.LASF530:
 12303 0516 72657376 		.ascii	"resvd838\000"
 12303      64383338 
 12303      00
 12304              	.LASF531:
 12305 051f 72657376 		.ascii	"resvd83C\000"
 12305      64383343 
 12305      00
 12306              	.LASF547:
 12307 0528 74687265 		.ascii	"thread\000"
 12307      616400
 12308              	.LASF527:
 12309 052f 44564255 		.ascii	"DVBUSPULSE\000"
 12309      5350554C 
 12309      534500
 12310              	.LASF419:
 12311 053a 73657475 		.ascii	"setup\000"
 12311      7000
 12312              	.LASF479:
 12313 0540 44545846 		.ascii	"DTXFSTS\000"
 12313      53545300 
 12314              	.LASF42:
 12315 0548 5F5F746D 		.ascii	"__tm_yday\000"
 12315      5F796461 
 12315      7900
 12316              	.LASF367:
 12317 0552 43434552 		.ascii	"CCER\000"
 12317      00
 12318              	.LASF379:
 12319 0557 50574D5F 		.ascii	"PWM_UNINIT\000"
 12319      554E494E 
ARM GAS  /tmp/ccDE0Mq0.s 			page 222


 12319      495400
 12320              	.LASF246:
 12321 0562 62657374 		.ascii	"best\000"
 12321      00
 12322              	.LASF488:
 12323 0567 47414842 		.ascii	"GAHBCFG\000"
 12323      43464700 
 12324              	.LASF16:
 12325 056f 5F4C4F43 		.ascii	"_LOCK_T\000"
 12325      4B5F5400 
 12326              	.LASF532:
 12327 0577 72657376 		.ascii	"resvd840\000"
 12327      64383430 
 12327      00
 12328              	.LASF617:
 12329 0580 6F74675F 		.ascii	"otg_disable_ep\000"
 12329      64697361 
 12329      626C655F 
 12329      657000
 12330              	.LASF604:
 12331 058f 6F74675F 		.ascii	"otg_rxfifo_handler\000"
 12331      72786669 
 12331      666F5F68 
 12331      616E646C 
 12331      657200
 12332              	.LASF8:
 12333 05a2 5F5F7569 		.ascii	"__uint16_t\000"
 12333      6E743136 
 12333      5F7400
 12334              	.LASF357:
 12335 05ad 4750545F 		.ascii	"GPT_CONTINUOUS\000"
 12335      434F4E54 
 12335      494E554F 
 12335      555300
 12336              	.LASF160:
 12337 05bc 705F6D73 		.ascii	"p_msg\000"
 12337      6700
 12338              	.LASF102:
 12339 05c2 5F756E75 		.ascii	"_unused_rand\000"
 12339      7365645F 
 12339      72616E64 
 12339      00
 12340              	.LASF485:
 12341 05cf 73746D33 		.ascii	"stm32_otg_out_ep_t\000"
 12341      325F6F74 
 12341      675F6F75 
 12341      745F6570 
 12341      5F7400
 12342              	.LASF494:
 12343 05e2 47525853 		.ascii	"GRXSTSP\000"
 12343      54535000 
 12344              	.LASF493:
 12345 05ea 47525853 		.ascii	"GRXSTSR\000"
 12345      54535200 
 12346              	.LASF206:
 12347 05f2 4D314152 		.ascii	"M1AR\000"
 12347      00
ARM GAS  /tmp/ccDE0Mq0.s 			page 223


 12348              	.LASF427:
 12349 05f7 77616974 		.ascii	"wait\000"
 12349      00
 12350              	.LASF207:
 12351 05fc 444D415F 		.ascii	"DMA_Stream_TypeDef\000"
 12351      53747265 
 12351      616D5F54 
 12351      79706544 
 12351      656600
 12352              	.LASF434:
 12353 060f 5553425F 		.ascii	"USB_ACTIVE\000"
 12353      41435449 
 12353      564500
 12354              	.LASF574:
 12355 061a 68737061 		.ascii	"hsparams\000"
 12355      72616D73 
 12355      00
 12356              	.LASF481:
 12357 0623 73746D33 		.ascii	"stm32_otg_in_ep_t\000"
 12357      325F6F74 
 12357      675F696E 
 12357      5F65705F 
 12357      7400
 12358              	.LASF84:
 12359 0635 5F726573 		.ascii	"_result_k\000"
 12359      756C745F 
 12359      6B00
 12360              	.LASF349:
 12361 063f 6D6F6465 		.ascii	"mode\000"
 12361      00
 12362              	.LASF76:
 12363 0644 5F737464 		.ascii	"_stderr\000"
 12363      65727200 
 12364              	.LASF83:
 12365 064c 5F726573 		.ascii	"_result\000"
 12365      756C7400 
 12366              	.LASF344:
 12367 0654 45585444 		.ascii	"EXTDriver\000"
 12367      72697665 
 12367      7200
 12368              	.LASF46:
 12369 065e 5F64736F 		.ascii	"_dso_handle\000"
 12369      5F68616E 
 12369      646C6500 
 12370              	.LASF373:
 12371 066a 67707466 		.ascii	"gptfreq_t\000"
 12371      7265715F 
 12371      7400
 12372              	.LASF41:
 12373 0674 5F5F746D 		.ascii	"__tm_wday\000"
 12373      5F776461 
 12373      7900
 12374              	.LASF43:
 12375 067e 5F5F746D 		.ascii	"__tm_isdst\000"
 12375      5F697364 
 12375      737400
 12376              	.LASF241:
ARM GAS  /tmp/ccDE0Mq0.s 			page 224


 12377 0689 73746B61 		.ascii	"stkalign_t\000"
 12377      6C69676E 
 12377      5F7400
 12378              	.LASF540:
 12379 0694 72785F66 		.ascii	"rx_fifo_size\000"
 12379      69666F5F 
 12379      73697A65 
 12379      00
 12380              	.LASF183:
 12381 06a1 76745F70 		.ascii	"vt_prev\000"
 12381      72657600 
 12382              	.LASF555:
 12383 06a9 73657475 		.ascii	"setup_cb\000"
 12383      705F6362 
 12383      00
 12384              	.LASF6:
 12385 06b2 756E7369 		.ascii	"unsigned char\000"
 12385      676E6564 
 12385      20636861 
 12385      7200
 12386              	.LASF75:
 12387 06c0 5F737464 		.ascii	"_stdout\000"
 12387      6F757400 
 12388              	.LASF292:
 12389 06c8 6576656E 		.ascii	"event_listener\000"
 12389      745F6C69 
 12389      7374656E 
 12389      657200
 12390              	.LASF171:
 12391 06d7 72656164 		.ascii	"ready_list_t\000"
 12391      795F6C69 
 12391      73745F74 
 12391      00
 12392              	.LASF146:
 12393 06e4 63685F74 		.ascii	"ch_thread\000"
 12393      68726561 
 12393      6400
 12394              	.LASF117:
 12395 06ee 5F6D6273 		.ascii	"_mbsrtowcs_state\000"
 12395      72746F77 
 12395      63735F73 
 12395      74617465 
 12395      00
 12396              	.LASF572:
 12397 06ff 65703073 		.ascii	"ep0setup_buffer\000"
 12397      65747570 
 12397      5F627566 
 12397      66657200 
 12398              	.LASF226:
 12399 070f 41484233 		.ascii	"AHB3LPENR\000"
 12399      4C50454E 
 12399      5200
 12400              	.LASF32:
 12401 0719 5F776473 		.ascii	"_wds\000"
 12401      00
 12402              	.LASF340:
 12403 071e 4558545F 		.ascii	"EXT_UNINIT\000"
ARM GAS  /tmp/ccDE0Mq0.s 			page 225


 12403      554E494E 
 12403      495400
 12404              	.LASF54:
 12405 0729 5F73697A 		.ascii	"_size\000"
 12405      6500
 12406              	.LASF190:
 12407 072f 73797374 		.ascii	"system_debug_t\000"
 12407      656D5F64 
 12407      65627567 
 12407      5F7400
 12408              	.LASF364:
 12409 073e 44494552 		.ascii	"DIER\000"
 12409      00
 12410              	.LASF225:
 12411 0743 41484232 		.ascii	"AHB2LPENR\000"
 12411      4C50454E 
 12411      5200
 12412              	.LASF150:
 12413 074d 705F6374 		.ascii	"p_ctx\000"
 12413      7800
 12414              	.LASF186:
 12415 0753 76745F70 		.ascii	"vt_par\000"
 12415      617200
 12416              	.LASF236:
 12417 075a 44434B43 		.ascii	"DCKCFGR\000"
 12417      46475200 
 12418              	.LASF61:
 12419 0762 5F777269 		.ascii	"_write\000"
 12419      746500
 12420              	.LASF587:
 12421 0769 7573625F 		.ascii	"usb_lld_read_setup\000"
 12421      6C6C645F 
 12421      72656164 
 12421      5F736574 
 12421      757000
 12422              	.LASF586:
 12423 077c 7573625F 		.ascii	"usb_lld_start_out\000"
 12423      6C6C645F 
 12423      73746172 
 12423      745F6F75 
 12423      7400
 12424              	.LASF132:
 12425 078e 75696E74 		.ascii	"uint64_t\000"
 12425      36345F74 
 12425      00
 12426              	.LASF252:
 12427 0797 6E5F6374 		.ascii	"n_ctxswc\000"
 12427      78737763 
 12427      00
 12428              	.LASF289:
 12429 07a0 63685F64 		.ascii	"ch_debug\000"
 12429      65627567 
 12429      00
 12430              	.LASF551:
 12431 07a9 7278636E 		.ascii	"rxcnt\000"
 12431      7400
 12432              	.LASF599:
ARM GAS  /tmp/ccDE0Mq0.s 			page 226


 12433 07af 6F74675F 		.ascii	"otg_isoc_out_failed_handler\000"
 12433      69736F63 
 12433      5F6F7574 
 12433      5F666169 
 12433      6C65645F 
 12434              	.LASF338:
 12435 07cb 50414C43 		.ascii	"PALConfig\000"
 12435      6F6E6669 
 12435      6700
 12436              	.LASF462:
 12437 07d5 75736265 		.ascii	"usbeventcb_t\000"
 12437      76656E74 
 12437      63625F74 
 12437      00
 12438              	.LASF40:
 12439 07e2 5F5F746D 		.ascii	"__tm_year\000"
 12439      5F796561 
 12439      7200
 12440              	.LASF541:
 12441 07ec 6F74675F 		.ascii	"otg_ram_size\000"
 12441      72616D5F 
 12441      73697A65 
 12441      00
 12442              	.LASF618:
 12443 07f9 6F74675F 		.ascii	"otg_core_reset\000"
 12443      636F7265 
 12443      5F726573 
 12443      657400
 12444              	.LASF543:
 12445 0808 73746D33 		.ascii	"stm32_otg_params_t\000"
 12445      325F6F74 
 12445      675F7061 
 12445      72616D73 
 12445      5F7400
 12446              	.LASF535:
 12447 081b 72657376 		.ascii	"resvdD00\000"
 12447      64443030 
 12447      00
 12448              	.LASF552:
 12449 0824 72786275 		.ascii	"rxbuf\000"
 12449      6600
 12450              	.LASF100:
 12451 082a 5F6D756C 		.ascii	"_mult\000"
 12451      7400
 12452              	.LASF266:
 12453 0830 63685F6D 		.ascii	"ch_mutex\000"
 12453      75746578 
 12453      00
 12454              	.LASF615:
 12455 0839 6669666F 		.ascii	"fifo\000"
 12455      00
 12456              	.LASF211:
 12457 083e 41484232 		.ascii	"AHB2RSTR\000"
 12457      52535452 
 12457      00
 12458              	.LASF383:
 12459 0847 50574D44 		.ascii	"PWMDriver\000"
ARM GAS  /tmp/ccDE0Mq0.s 			page 227


 12459      72697665 
 12459      7200
 12460              	.LASF335:
 12461 0851 50474461 		.ascii	"PGData\000"
 12461      746100
 12462              	.LASF392:
 12463 0858 50574D43 		.ascii	"PWMConfig\000"
 12463      6F6E6669 
 12463      6700
 12464              	.LASF115:
 12465 0862 5F6D6272 		.ascii	"_mbrlen_state\000"
 12465      6C656E5F 
 12465      73746174 
 12465      6500
 12466              	.LASF643:
 12467 0870 76616C75 		.ascii	"value\000"
 12467      6500
 12468              	.LASF279:
 12469 0876 63665F6F 		.ascii	"cf_off_newer\000"
 12469      66665F6E 
 12469      65776572 
 12469      00
 12470              	.LASF520:
 12471 0883 44494550 		.ascii	"DIEPMSK\000"
 12471      4D534B00 
 12472              	.LASF487:
 12473 088b 474F5447 		.ascii	"GOTGINT\000"
 12473      494E5400 
 12474              	.LASF557:
 12475 0893 6F75745F 		.ascii	"out_cb\000"
 12475      636200
 12476              	.LASF511:
 12477 089a 4841494E 		.ascii	"HAINTMSK\000"
 12477      544D534B 
 12477      00
 12478              	.LASF414:
 12479 08a3 6F75745F 		.ascii	"out_params\000"
 12479      70617261 
 12479      6D7300
 12480              	.LASF580:
 12481 08ae 7573625F 		.ascii	"usb_lld_clear_in\000"
 12481      6C6C645F 
 12481      636C6561 
 12481      725F696E 
 12481      00
 12482              	.LASF74:
 12483 08bf 5F737464 		.ascii	"_stdin\000"
 12483      696E00
 12484              	.LASF122:
 12485 08c6 5F6E6D61 		.ascii	"_nmalloc\000"
 12485      6C6C6F63 
 12485      00
 12486              	.LASF376:
 12487 08cf 64696572 		.ascii	"dier\000"
 12487      00
 12488              	.LASF508:
 12489 08d4 72657376 		.ascii	"resvd40C\000"
ARM GAS  /tmp/ccDE0Mq0.s 			page 228


 12489      64343043 
 12489      00
 12490              	.LASF180:
 12491 08dd 76697274 		.ascii	"virtual_timer_t\000"
 12491      75616C5F 
 12491      74696D65 
 12491      725F7400 
 12492              	.LASF175:
 12493 08ed 725F6374 		.ascii	"r_ctx\000"
 12493      7800
 12494              	.LASF182:
 12495 08f3 76745F6E 		.ascii	"vt_next\000"
 12495      65787400 
 12496              	.LASF380:
 12497 08fb 50574D5F 		.ascii	"PWM_STOP\000"
 12497      53544F50 
 12497      00
 12498              	.LASF133:
 12499 0904 7274636E 		.ascii	"rtcnt_t\000"
 12499      745F7400 
 12500              	.LASF610:
 12501 090c 73697A65 		.ascii	"size\000"
 12501      00
 12502              	.LASF426:
 12503 0911 74787065 		.ascii	"txpending\000"
 12503      6E64696E 
 12503      6700
 12504              	.LASF361:
 12505 091b 636C6F63 		.ascii	"clock\000"
 12505      6B00
 12506              	.LASF371:
 12507 0921 43435852 		.ascii	"CCXR\000"
 12507      00
 12508              	.LASF17:
 12509 0926 5F6F6666 		.ascii	"_off_t\000"
 12509      5F7400
 12510              	.LASF395:
 12511 092d 53445F53 		.ascii	"SD_STOP\000"
 12511      544F5000 
 12512              	.LASF466:
 12513 0935 72657376 		.ascii	"resvd8\000"
 12513      643800
 12514              	.LASF4:
 12515 093c 73697A65 		.ascii	"size_t\000"
 12515      5F7400
 12516              	.LASF105:
 12517 0943 5F6C6F63 		.ascii	"_localtime_buf\000"
 12517      616C7469 
 12517      6D655F62 
 12517      756600
 12518              	.LASF291:
 12519 0952 6576656E 		.ascii	"event_listener_t\000"
 12519      745F6C69 
 12519      7374656E 
 12519      65725F74 
 12519      00
 12520              	.LASF533:
ARM GAS  /tmp/ccDE0Mq0.s 			page 229


 12521 0963 72657376 		.ascii	"resvd880\000"
 12521      64383830 
 12521      00
 12522              	.LASF23:
 12523 096c 5F5F636F 		.ascii	"__count\000"
 12523      756E7400 
 12524              	.LASF128:
 12525 0974 75696E74 		.ascii	"uint8_t\000"
 12525      385F7400 
 12526              	.LASF470:
 12527 097c 72657376 		.ascii	"resvd14\000"
 12527      64313400 
 12528              	.LASF471:
 12529 0984 72657376 		.ascii	"resvd18\000"
 12529      64313800 
 12530              	.LASF177:
 12531 098c 725F6F6C 		.ascii	"r_older\000"
 12531      64657200 
 12532              	.LASF148:
 12533 0994 705F7072 		.ascii	"p_prev\000"
 12533      657600
 12534              	.LASF281:
 12535 099b 63665F6F 		.ascii	"cf_off_name\000"
 12535      66665F6E 
 12535      616D6500 
 12536              	.LASF391:
 12537 09a7 50574D43 		.ascii	"PWMChannelConfig\000"
 12537      68616E6E 
 12537      656C436F 
 12537      6E666967 
 12537      00
 12538              	.LASF529:
 12539 09b8 44494550 		.ascii	"DIEPEMPMSK\000"
 12539      454D504D 
 12539      534B00
 12540              	.LASF438:
 12541 09c3 45505F53 		.ascii	"EP_STATUS_STALLED\000"
 12541      54415455 
 12541      535F5354 
 12541      414C4C45 
 12541      4400
 12542              	.LASF474:
 12543 09d5 44494550 		.ascii	"DIEPCTL\000"
 12543      43544C00 
 12544              	.LASF297:
 12545 09dd 656C5F77 		.ascii	"el_wflags\000"
 12545      666C6167 
 12545      7300
 12546              	.LASF424:
 12547 09e7 6F746770 		.ascii	"otgparams\000"
 12547      6172616D 
 12547      7300
 12548              	.LASF257:
 12549 09f1 65786974 		.ascii	"exitcode\000"
 12549      636F6465 
 12549      00
 12550              	.LASF332:
ARM GAS  /tmp/ccDE0Mq0.s 			page 230


 12551 09fa 50444461 		.ascii	"PDData\000"
 12551      746100
 12552              	.LASF593:
 12553 0a01 7573625F 		.ascii	"usb_lld_set_address\000"
 12553      6C6C645F 
 12553      7365745F 
 12553      61646472 
 12553      65737300 
 12554              	.LASF608:
 12555 0a15 6F74675F 		.ascii	"otg_txfifo_handler\000"
 12555      74786669 
 12555      666F5F68 
 12555      616E646C 
 12555      657200
 12556              	.LASF88:
 12557 0a28 5F637674 		.ascii	"_cvtbuf\000"
 12557      62756600 
 12558              	.LASF561:
 12559 0a30 6F75745F 		.ascii	"out_state\000"
 12559      73746174 
 12559      6500
 12560              	.LASF302:
 12561 0a3a 696F5F71 		.ascii	"io_queue_t\000"
 12561      75657565 
 12561      5F7400
 12562              	.LASF596:
 12563 0a45 7573625F 		.ascii	"usb_lld_start\000"
 12563      6C6C645F 
 12563      73746172 
 12563      7400
 12564              	.LASF620:
 12565 0a53 6F73616C 		.ascii	"osalThreadSuspendS\000"
 12565      54687265 
 12565      61645375 
 12565      7370656E 
 12565      645300
 12566              	.LASF629:
 12567 0a66 63685468 		.ascii	"chThdStartI\000"
 12567      64537461 
 12567      72744900 
 12568              	.LASF238:
 12569 0a72 47545052 		.ascii	"GTPR\000"
 12569      00
 12570              	.LASF350:
 12571 0a77 45585443 		.ascii	"EXTChannelConfig\000"
 12571      68616E6E 
 12571      656C436F 
 12571      6E666967 
 12571      00
 12572              	.LASF498:
 12573 0a88 72657376 		.ascii	"resvd30\000"
 12573      64333000 
 12574              	.LASF21:
 12575 0a90 5F5F7763 		.ascii	"__wchb\000"
 12575      686200
 12576              	.LASF116:
 12577 0a97 5F6D6272 		.ascii	"_mbrtowc_state\000"
ARM GAS  /tmp/ccDE0Mq0.s 			page 231


 12577      746F7763 
 12577      5F737461 
 12577      746500
 12578              	.LASF609:
 12579 0aa6 6F74675F 		.ascii	"otg_ram_alloc\000"
 12579      72616D5F 
 12579      616C6C6F 
 12579      6300
 12580              	.LASF37:
 12581 0ab4 5F5F746D 		.ascii	"__tm_hour\000"
 12581      5F686F75 
 12581      7200
 12582              	.LASF403:
 12583 0abe 53657269 		.ascii	"SerialDriverVMT\000"
 12583      616C4472 
 12583      69766572 
 12583      564D5400 
 12584              	.LASF447:
 12585 0ace 5553425F 		.ascii	"USB_EP0_ERROR\000"
 12585      4550305F 
 12585      4552524F 
 12585      5200
 12586              	.LASF446:
 12587 0adc 5553425F 		.ascii	"USB_EP0_OUT_RX\000"
 12587      4550305F 
 12587      4F55545F 
 12587      525800
 12588              	.LASF19:
 12589 0aeb 77696E74 		.ascii	"wint_t\000"
 12589      5F7400
 12590              	.LASF89:
 12591 0af2 5F6E6577 		.ascii	"_new\000"
 12591      00
 12592              	.LASF537:
 12593 0af7 72657376 		.ascii	"resvdE04\000"
 12593      64453034 
 12593      00
 12594              	.LASF542:
 12595 0b00 6E756D5F 		.ascii	"num_endpoints\000"
 12595      656E6470 
 12595      6F696E74 
 12595      7300
 12596              	.LASF548:
 12597 0b0e 746F7473 		.ascii	"totsize\000"
 12597      697A6500 
 12598              	.LASF96:
 12599 0b16 5F6E696F 		.ascii	"_niobs\000"
 12599      627300
 12600              	.LASF282:
 12601 0b1d 63665F6F 		.ascii	"cf_off_stklimit\000"
 12601      66665F73 
 12601      746B6C69 
 12601      6D697400 
 12602              	.LASF396:
 12603 0b2d 53445F52 		.ascii	"SD_READY\000"
 12603      45414459 
 12603      00
ARM GAS  /tmp/ccDE0Mq0.s 			page 232


 12604              	.LASF464:
 12605 0b36 75736267 		.ascii	"usbgetdescriptor_t\000"
 12605      65746465 
 12605      73637269 
 12605      70746F72 
 12605      5F7400
 12606              	.LASF178:
 12607 0b49 725F6375 		.ascii	"r_current\000"
 12607      7272656E 
 12607      7400
 12608              	.LASF73:
 12609 0b53 5F657272 		.ascii	"_errno\000"
 12609      6E6F00
 12610              	.LASF415:
 12611 0b5a 65703073 		.ascii	"ep0state\000"
 12611      74617465 
 12611      00
 12612              	.LASF38:
 12613 0b63 5F5F746D 		.ascii	"__tm_mday\000"
 12613      5F6D6461 
 12613      7900
 12614              	.LASF316:
 12615 0b6d 69666372 		.ascii	"ifcr\000"
 12615      00
 12616              	.LASF559:
 12617 0b72 6F75745F 		.ascii	"out_maxsize\000"
 12617      6D617873 
 12617      697A6500 
 12618              	.LASF256:
 12619 0b7e 7264796D 		.ascii	"rdymsg\000"
 12619      736700
 12620              	.LASF45:
 12621 0b85 5F666E61 		.ascii	"_fnargs\000"
 12621      72677300 
 12622              	.LASF381:
 12623 0b8d 50574D5F 		.ascii	"PWM_READY\000"
 12623      52454144 
 12623      5900
 12624              	.LASF501:
 12625 0b97 72657376 		.ascii	"resvd58\000"
 12625      64353800 
 12626              	.LASF549:
 12627 0b9f 55534249 		.ascii	"USBInEndpointState\000"
 12627      6E456E64 
 12627      706F696E 
 12627      74537461 
 12627      746500
 12628              	.LASF149:
 12629 0bb2 705F7072 		.ascii	"p_prio\000"
 12629      696F00
 12630              	.LASF303:
 12631 0bb9 696F5F71 		.ascii	"io_queue\000"
 12631      75657565 
 12631      00
 12632              	.LASF638:
 12633 0bc2 474E5520 		.ascii	"GNU C11 6.3.1 20170620 (release) [ARM/embedded-6-br"
 12633      43313120 
ARM GAS  /tmp/ccDE0Mq0.s 			page 233


 12633      362E332E 
 12633      31203230 
 12633      31373036 
 12634 0bf5 616E6368 		.ascii	"anch revision 249437] -mcpu=cortex-m4 -mfloat-abi=h"
 12634      20726576 
 12634      6973696F 
 12634      6E203234 
 12634      39343337 
 12635 0c28 61726420 		.ascii	"ard -mfpu=fpv4-sp-d16 -mno-thumb-interwork -mthumb "
 12635      2D6D6670 
 12635      753D6670 
 12635      76342D73 
 12635      702D6431 
 12636 0c5b 2D676764 		.ascii	"-ggdb -O0 -fomit-frame-pointer -falign-functions=16"
 12636      62202D4F 
 12636      30202D66 
 12636      6F6D6974 
 12636      2D667261 
 12637 0c8e 202D6666 		.ascii	" -ffunction-sections -fdata-sections -fno-common -f"
 12637      756E6374 
 12637      696F6E2D 
 12637      73656374 
 12637      696F6E73 
 12638 0cc1 73696E67 		.ascii	"single-precision-constant\000"
 12638      6C652D70 
 12638      72656369 
 12638      73696F6E 
 12638      2D636F6E 
 12639              	.LASF329:
 12640 0cdb 50414461 		.ascii	"PAData\000"
 12640      746100
 12641              	.LASF14:
 12642 0ce2 5F5F7569 		.ascii	"__uint64_t\000"
 12642      6E743634 
 12642      5F7400
 12643              	.LASF582:
 12644 0ced 7573625F 		.ascii	"usb_lld_stall_in\000"
 12644      6C6C645F 
 12644      7374616C 
 12644      6C5F696E 
 12644      00
 12645              	.LASF29:
 12646 0cfe 5F6E6578 		.ascii	"_next\000"
 12646      7400
 12647              	.LASF386:
 12648 0d04 70776D63 		.ascii	"pwmcallback_t\000"
 12648      616C6C62 
 12648      61636B5F 
 12648      7400
 12649              	.LASF113:
 12650 0d12 5F736967 		.ascii	"_signal_buf\000"
 12650      6E616C5F 
 12650      62756600 
 12651              	.LASF421:
 12652 0d1e 61646472 		.ascii	"address\000"
 12652      65737300 
 12653              	.LASF59:
ARM GAS  /tmp/ccDE0Mq0.s 			page 234


 12654 0d26 5F636F6F 		.ascii	"_cookie\000"
 12654      6B696500 
 12655              	.LASF448:
 12656 0d2e 75736265 		.ascii	"usbep0state_t\000"
 12656      70307374 
 12656      6174655F 
 12656      7400
 12657              	.LASF362:
 12658 0d3c 67707463 		.ascii	"gptcallback_t\000"
 12658      616C6C62 
 12658      61636B5F 
 12658      7400
 12659              	.LASF306:
 12660 0d4a 715F6275 		.ascii	"q_buffer\000"
 12660      66666572 
 12660      00
 12661              	.LASF215:
 12662 0d53 41504232 		.ascii	"APB2RSTR\000"
 12662      52535452 
 12662      00
 12663              	.LASF147:
 12664 0d5c 705F6E65 		.ascii	"p_next\000"
 12664      787400
 12665              	.LASF475:
 12666 0d63 72657376 		.ascii	"resvd4\000"
 12666      643400
 12667              	.LASF410:
 12668 0d6a 55534244 		.ascii	"USBDriver\000"
 12668      72697665 
 12668      7200
 12669              	.LASF534:
 12670 0d74 72657376 		.ascii	"resvd8C0\000"
 12670      64384330 
 12670      00
 12671              	.LASF569:
 12672 0d7d 55534243 		.ascii	"USBConfig\000"
 12672      6F6E6669 
 12672      6700
 12673              	.LASF477:
 12674 0d87 72657376 		.ascii	"resvdC\000"
 12674      644300
 12675              	.LASF393:
 12676 0d8e 50574D44 		.ascii	"PWMD1\000"
 12676      3100
 12677              	.LASF592:
 12678 0d94 6673697A 		.ascii	"fsize\000"
 12678      6500
 12679              	.LASF641:
 12680 0d9a 56656374 		.ascii	"Vector174\000"
 12680      6F723137 
 12680      3400
 12681              	.LASF228:
 12682 0da4 41504231 		.ascii	"APB1LPENR\000"
 12682      4C50454E 
 12682      5200
 12683              	.LASF401:
 12684 0dae 6F717565 		.ascii	"oqueue\000"
ARM GAS  /tmp/ccDE0Mq0.s 			page 235


 12684      756500
 12685              	.LASF137:
 12686 0db5 74726566 		.ascii	"trefs_t\000"
 12686      735F7400 
 12687              	.LASF164:
 12688 0dbd 705F6D70 		.ascii	"p_mpool\000"
 12688      6F6F6C00 
 12689              	.LASF614:
 12690 0dc5 6F74675F 		.ascii	"otg_txfifo_flush\000"
 12690      74786669 
 12690      666F5F66 
 12690      6C757368 
 12690      00
 12691              	.LASF35:
 12692 0dd6 5F5F746D 		.ascii	"__tm_sec\000"
 12692      5F736563 
 12692      00
 12693              	.LASF562:
 12694 0ddf 696E5F6D 		.ascii	"in_multiplier\000"
 12694      756C7469 
 12694      706C6965 
 12694      7200
 12695              	.LASF44:
 12696 0ded 5F6F6E5F 		.ascii	"_on_exit_args\000"
 12696      65786974 
 12696      5F617267 
 12696      7300
 12697              	.LASF242:
 12698 0dfb 636F6E74 		.ascii	"context\000"
 12698      65787400 
 12699              	.LASF135:
 12700 0e03 746D6F64 		.ascii	"tmode_t\000"
 12700      655F7400 
 12701              	.LASF219:
 12702 0e0b 41484233 		.ascii	"AHB3ENR\000"
 12702      454E5200 
 12703              	.LASF518:
 12704 0e13 44535453 		.ascii	"DSTS\000"
 12704      00
 12705              	.LASF320:
 12706 0e18 73746D33 		.ascii	"stm32_dma_stream_t\000"
 12706      325F646D 
 12706      615F7374 
 12706      7265616D 
 12706      5F7400
 12707              	.LASF567:
 12708 0e2b 72657175 		.ascii	"requests_hook_cb\000"
 12708      65737473 
 12708      5F686F6F 
 12708      6B5F6362 
 12708      00
 12709              	.LASF118:
 12710 0e3c 5F776372 		.ascii	"_wcrtomb_state\000"
 12710      746F6D62 
 12710      5F737461 
 12710      746500
 12711              	.LASF544:
ARM GAS  /tmp/ccDE0Mq0.s 			page 236


 12712 0e4b 74787369 		.ascii	"txsize\000"
 12712      7A6500
 12713              	.LASF384:
 12714 0e52 70657269 		.ascii	"period\000"
 12714      6F6400
 12715              	.LASF267:
 12716 0e59 6D5F7175 		.ascii	"m_queue\000"
 12716      65756500 
 12717              	.LASF193:
 12718 0e61 6973725F 		.ascii	"isr_cnt\000"
 12718      636E7400 
 12719              	.LASF432:
 12720 0e69 5553425F 		.ascii	"USB_READY\000"
 12720      52454144 
 12720      5900
 12721              	.LASF409:
 12722 0e73 72656164 		.ascii	"readt\000"
 12722      7400
 12723              	.LASF490:
 12724 0e79 47525354 		.ascii	"GRSTCTL\000"
 12724      43544C00 
 12725              	.LASF359:
 12726 0e81 67707473 		.ascii	"gptstate_t\000"
 12726      74617465 
 12726      5F7400
 12727              	.LASF28:
 12728 0e8c 5F5F554C 		.ascii	"__ULong\000"
 12728      6F6E6700 
 12729              	.LASF192:
 12730 0e94 70616E69 		.ascii	"panic_msg\000"
 12730      635F6D73 
 12730      6700
 12731              	.LASF176:
 12732 0e9e 725F6E65 		.ascii	"r_newer\000"
 12732      77657200 
 12733              	.LASF455:
 12734 0ea6 5553425F 		.ascii	"USB_EVENT_STALLED\000"
 12734      4556454E 
 12734      545F5354 
 12734      414C4C45 
 12734      4400
 12735              	.LASF217:
 12736 0eb8 41484231 		.ascii	"AHB1ENR\000"
 12736      454E5200 
 12737              	.LASF288:
 12738 0ec0 63686465 		.ascii	"chdebug_t\000"
 12738      6275675F 
 12738      7400
 12739              	.LASF635:
 12740 0eca 706F7274 		.ascii	"port_lock_from_isr\000"
 12740      5F6C6F63 
 12740      6B5F6672 
 12740      6F6D5F69 
 12740      737200
 12741              	.LASF550:
 12742 0edd 72787369 		.ascii	"rxsize\000"
 12742      7A6500
ARM GAS  /tmp/ccDE0Mq0.s 			page 237


 12743              	.LASF590:
 12744 0ee4 7573625F 		.ascii	"usb_lld_disable_endpoints\000"
 12744      6C6C645F 
 12744      64697361 
 12744      626C655F 
 12744      656E6470 
 12745              	.LASF469:
 12746 0efe 48435453 		.ascii	"HCTSIZ\000"
 12746      495A00
 12747              	.LASF451:
 12748 0f05 5553425F 		.ascii	"USB_EVENT_CONFIGURED\000"
 12748      4556454E 
 12748      545F434F 
 12748      4E464947 
 12748      55524544 
 12749              	.LASF406:
 12750 0f1a 70757474 		.ascii	"putt\000"
 12750      00
 12751              	.LASF103:
 12752 0f1f 5F737472 		.ascii	"_strtok_last\000"
 12752      746F6B5F 
 12752      6C617374 
 12752      00
 12753              	.LASF275:
 12754 0f2c 63685F74 		.ascii	"ch_timesize\000"
 12754      696D6573 
 12754      697A6500 
 12755              	.LASF594:
 12756 0f38 7573625F 		.ascii	"usb_lld_reset\000"
 12756      6C6C645F 
 12756      72657365 
 12756      7400
 12757              	.LASF209:
 12758 0f46 43464752 		.ascii	"CFGR\000"
 12758      00
 12759              	.LASF428:
 12760 0f4b 77615F70 		.ascii	"wa_pump\000"
 12760      756D7000 
 12761              	.LASF300:
 12762 0f53 6576656E 		.ascii	"event_source_t\000"
 12762      745F736F 
 12762      75726365 
 12762      5F7400
 12763              	.LASF504:
 12764 0f62 72657376 		.ascii	"resvd140\000"
 12764      64313430 
 12764      00
 12765              	.LASF184:
 12766 0f6b 76745F64 		.ascii	"vt_delta\000"
 12766      656C7461 
 12766      00
 12767              	.LASF22:
 12768 0f74 73697A65 		.ascii	"sizetype\000"
 12768      74797065 
 12768      00
 12769              	.LASF588:
 12770 0f7d 7573625F 		.ascii	"usb_lld_get_status_in\000"
ARM GAS  /tmp/ccDE0Mq0.s 			page 238


 12770      6C6C645F 
 12770      6765745F 
 12770      73746174 
 12770      75735F69 
 12771              	.LASF99:
 12772 0f93 5F736565 		.ascii	"_seed\000"
 12772      6400
 12773              	.LASF62:
 12774 0f99 5F736565 		.ascii	"_seek\000"
 12774      6B00
 12775              	.LASF453:
 12776 0f9f 5553425F 		.ascii	"USB_EVENT_SUSPEND\000"
 12776      4556454E 
 12776      545F5355 
 12776      5350454E 
 12776      4400
 12777              	.LASF355:
 12778 0fb1 4750545F 		.ascii	"GPT_STOP\000"
 12778      53544F50 
 12778      00
 12779              	.LASF482:
 12780 0fba 444F4550 		.ascii	"DOEPCTL\000"
 12780      43544C00 
 12781              	.LASF9:
 12782 0fc2 73686F72 		.ascii	"short unsigned int\000"
 12782      7420756E 
 12782      7369676E 
 12782      65642069 
 12782      6E7400
 12783              	.LASF3:
 12784 0fd5 7369676E 		.ascii	"signed char\000"
 12784      65642063 
 12784      68617200 
 12785              	.LASF389:
 12786 0fe1 70776D63 		.ascii	"pwmchnmsk_t\000"
 12786      686E6D73 
 12786      6B5F7400 
 12787              	.LASF265:
 12788 0fed 735F636E 		.ascii	"s_cnt\000"
 12788      7400
 12789              	.LASF143:
 12790 0ff3 75636E74 		.ascii	"ucnt_t\000"
 12790      5F7400
 12791              	.LASF387:
 12792 0ffa 70776D6D 		.ascii	"pwmmode_t\000"
 12792      6F64655F 
 12792      7400
 12793              	.LASF420:
 12794 1004 73746174 		.ascii	"status\000"
 12794      757300
 12795              	.LASF233:
 12796 100b 53534347 		.ascii	"SSCGR\000"
 12796      5200
 12797              	.LASF235:
 12798 1011 504C4C53 		.ascii	"PLLSAICFGR\000"
 12798      41494346 
 12798      475200
ARM GAS  /tmp/ccDE0Mq0.s 			page 239


 12799              	.LASF459:
 12800 101c 55534244 		.ascii	"USBDescriptor\000"
 12800      65736372 
 12800      6970746F 
 12800      7200
 12801              	.LASF606:
 12802 102a 6669666F 		.ascii	"fifop\000"
 12802      7000
 12803              	.LASF86:
 12804 1030 5F667265 		.ascii	"_freelist\000"
 12804      656C6973 
 12804      7400
 12805              	.LASF159:
 12806 103a 705F6D73 		.ascii	"p_msgqueue\000"
 12806      67717565 
 12806      756500
 12807              	.LASF285:
 12808 1045 63665F6F 		.ascii	"cf_off_refs\000"
 12808      66665F72 
 12808      65667300 
 12809              	.LASF283:
 12810 1051 63665F6F 		.ascii	"cf_off_state\000"
 12810      66665F73 
 12810      74617465 
 12810      00
 12811              	.LASF268:
 12812 105e 6D5F6F77 		.ascii	"m_owner\000"
 12812      6E657200 
 12813              	.LASF67:
 12814 1066 5F6F6666 		.ascii	"_offset\000"
 12814      73657400 
 12815              	.LASF203:
 12816 106e 53797374 		.ascii	"SystemCoreClock\000"
 12816      656D436F 
 12816      7265436C 
 12816      6F636B00 
 12817              	.LASF345:
 12818 107e 73746174 		.ascii	"state\000"
 12818      6500
 12819              	.LASF273:
 12820 1084 63685F76 		.ascii	"ch_version\000"
 12820      65727369 
 12820      6F6E00
 12821              	.LASF52:
 12822 108f 5F5F7362 		.ascii	"__sbuf\000"
 12822      756600
 12823              	.LASF600:
 12824 1096 6F74675F 		.ascii	"otg_isoc_in_failed_handler\000"
 12824      69736F63 
 12824      5F696E5F 
 12824      6661696C 
 12824      65645F68 
 12825              	.LASF112:
 12826 10b1 5F6C3634 		.ascii	"_l64a_buf\000"
 12826      615F6275 
 12826      6600
 12827              	.LASF597:
ARM GAS  /tmp/ccDE0Mq0.s 			page 240


 12828 10bb 7573625F 		.ascii	"usb_lld_init\000"
 12828      6C6C645F 
 12828      696E6974 
 12828      00
 12829              	.LASF369:
 12830 10c8 444D4152 		.ascii	"DMAR\000"
 12830      00
 12831              	.LASF375:
 12832 10cd 63616C6C 		.ascii	"callback\000"
 12832      6261636B 
 12832      00
 12833              	.LASF196:
 12834 10d6 63685F73 		.ascii	"ch_system\000"
 12834      79737465 
 12834      6D00
 12835              	.LASF234:
 12836 10e0 504C4C49 		.ascii	"PLLI2SCFGR\000"
 12836      32534346 
 12836      475200
 12837              	.LASF104:
 12838 10eb 5F617363 		.ascii	"_asctime_buf\000"
 12838      74696D65 
 12838      5F627566 
 12838      00
 12839              	.LASF354:
 12840 10f8 4750545F 		.ascii	"GPT_UNINIT\000"
 12840      554E494E 
 12840      495400
 12841              	.LASF598:
 12842 1103 7573625F 		.ascii	"usb_lld_serve_interrupt\000"
 12842      6C6C645F 
 12842      73657276 
 12842      655F696E 
 12842      74657272 
 12843              	.LASF20:
 12844 111b 5F5F7763 		.ascii	"__wch\000"
 12844      6800
 12845              	.LASF263:
 12846 1121 63685F73 		.ascii	"ch_semaphore\000"
 12846      656D6170 
 12846      686F7265 
 12846      00
 12847              	.LASF119:
 12848 112e 5F776373 		.ascii	"_wcsrtombs_state\000"
 12848      72746F6D 
 12848      62735F73 
 12848      74617465 
 12848      00
 12849              	.LASF478:
 12850 113f 44494550 		.ascii	"DIEPTSIZ\000"
 12850      5453495A 
 12850      00
 12851              	.LASF636:
 12852 1148 706F7274 		.ascii	"port_unlock\000"
 12852      5F756E6C 
 12852      6F636B00 
 12853              	.LASF169:
ARM GAS  /tmp/ccDE0Mq0.s 			page 241


 12854 1154 74687265 		.ascii	"threads_queue_t\000"
 12854      6164735F 
 12854      71756575 
 12854      655F7400 
 12855              	.LASF390:
 12856 1164 70776D63 		.ascii	"pwmcnt_t\000"
 12856      6E745F74 
 12856      00
 12857              	.LASF157:
 12858 116d 705F7265 		.ascii	"p_refs\000"
 12858      667300
 12859              	.LASF554:
 12860 1174 65705F6D 		.ascii	"ep_mode\000"
 12860      6F646500 
 12861              	.LASF388:
 12862 117c 70776D63 		.ascii	"pwmchannel_t\000"
 12862      68616E6E 
 12862      656C5F74 
 12862      00
 12863              	.LASF11:
 12864 1189 6C6F6E67 		.ascii	"long int\000"
 12864      20696E74 
 12864      00
 12865              	.LASF199:
 12866 1192 6D61696E 		.ascii	"mainthread\000"
 12866      74687265 
 12866      616400
 12867              	.LASF417:
 12868 119d 6570306E 		.ascii	"ep0n\000"
 12868      00
 12869              	.LASF111:
 12870 11a2 5F776374 		.ascii	"_wctomb_state\000"
 12870      6F6D625F 
 12870      73746174 
 12870      6500
 12871              	.LASF360:
 12872 11b0 47505444 		.ascii	"GPTDriver\000"
 12872      72697665 
 12872      7200
 12873              	.LASF212:
 12874 11ba 41484233 		.ascii	"AHB3RSTR\000"
 12874      52535452 
 12874      00
 12875              	.LASF305:
 12876 11c3 715F636F 		.ascii	"q_counter\000"
 12876      756E7465 
 12876      7200
 12877              	.LASF336:
 12878 11cd 50484461 		.ascii	"PHData\000"
 12878      746100
 12879              	.LASF505:
 12880 11d4 48434647 		.ascii	"HCFG\000"
 12880      00
 12881              	.LASF249:
 12882 11d9 63756D75 		.ascii	"cumulative\000"
 12882      6C617469 
 12882      766500
ARM GAS  /tmp/ccDE0Mq0.s 			page 242


 12883              	.LASF97:
 12884 11e4 5F696F62 		.ascii	"_iobs\000"
 12884      7300
 12885              	.LASF78:
 12886 11ea 5F656D65 		.ascii	"_emergency\000"
 12886      7267656E 
 12886      637900
 12887              	.LASF407:
 12888 11f5 67657474 		.ascii	"gett\000"
 12888      00
 12889              	.LASF259:
 12890 11fa 77747472 		.ascii	"wttrp\000"
 12890      7000
 12891              	.LASF309:
 12892 1200 715F7264 		.ascii	"q_rdptr\000"
 12892      70747200 
 12893              	.LASF121:
 12894 1208 5F6E6578 		.ascii	"_nextf\000"
 12894      746600
 12895              	.LASF404:
 12896 120f 77726974 		.ascii	"write\000"
 12896      6500
 12897              	.LASF107:
 12898 1215 5F72616E 		.ascii	"_rand_next\000"
 12898      645F6E65 
 12898      787400
 12899              	.LASF400:
 12900 1220 69717565 		.ascii	"iqueue\000"
 12900      756500
 12901              	.LASF556:
 12902 1227 696E5F63 		.ascii	"in_cb\000"
 12902      6200
 12903              	.LASF483:
 12904 122d 444F4550 		.ascii	"DOEPINT\000"
 12904      494E5400 
 12905              	.LASF248:
 12906 1235 6C617374 		.ascii	"last\000"
 12906      00
 12907              	.LASF397:
 12908 123a 73647374 		.ascii	"sdstate_t\000"
 12908      6174655F 
 12908      7400
 12909              	.LASF131:
 12910 1244 75696E74 		.ascii	"uint32_t\000"
 12910      33325F74 
 12910      00
 12911              	.LASF30:
 12912 124d 5F6D6178 		.ascii	"_maxwds\000"
 12912      77647300 
 12913              	.LASF463:
 12914 1255 75736272 		.ascii	"usbreqhandler_t\000"
 12914      65716861 
 12914      6E646C65 
 12914      725F7400 
 12915              	.LASF624:
 12916 1265 6F73616C 		.ascii	"osalSysLockFromISR\000"
 12916      5379734C 
ARM GAS  /tmp/ccDE0Mq0.s 			page 243


 12916      6F636B46 
 12916      726F6D49 
 12916      535200
 12917              	.LASF637:
 12918 1278 706F7274 		.ascii	"port_lock\000"
 12918      5F6C6F63 
 12918      6B00
 12919              	.LASF2:
 12920 1282 6C6F6E67 		.ascii	"long double\000"
 12920      20646F75 
 12920      626C6500 
 12921              	.LASF240:
 12922 128e 72656761 		.ascii	"regarm_t\000"
 12922      726D5F74 
 12922      00
 12923              	.LASF140:
 12924 1297 6576656E 		.ascii	"eventmask_t\000"
 12924      746D6173 
 12924      6B5F7400 
 12925              	.LASF449:
 12926 12a3 5553425F 		.ascii	"USB_EVENT_RESET\000"
 12926      4556454E 
 12926      545F5245 
 12926      53455400 
 12927              	.LASF433:
 12928 12b3 5553425F 		.ascii	"USB_SELECTED\000"
 12928      53454C45 
 12928      43544544 
 12928      00
 12929              	.LASF13:
 12930 12c0 6C6F6E67 		.ascii	"long unsigned int\000"
 12930      20756E73 
 12930      69676E65 
 12930      6420696E 
 12930      7400
 12931              	.LASF356:
 12932 12d2 4750545F 		.ascii	"GPT_READY\000"
 12932      52454144 
 12932      5900
 12933              	.LASF577:
 12934 12dc 65706D61 		.ascii	"epmask\000"
 12934      736B00
 12935              	.LASF308:
 12936 12e3 715F7772 		.ascii	"q_wrptr\000"
 12936      70747200 
 12937              	.LASF450:
 12938 12eb 5553425F 		.ascii	"USB_EVENT_ADDRESS\000"
 12938      4556454E 
 12938      545F4144 
 12938      44524553 
 12938      5300
 12939              	.LASF639:
 12940 12fd 2E2E2F43 		.ascii	"../ChibiOS/os/hal/ports/STM32/LLD/OTGv1/usb_lld.c\000"
 12940      68696269 
 12940      4F532F6F 
 12940      732F6861 
 12940      6C2F706F 
ARM GAS  /tmp/ccDE0Mq0.s 			page 244


 12941              	.LASF456:
 12942 132f 75736265 		.ascii	"usbevent_t\000"
 12942      76656E74 
 12942      5F7400
 12943              	.LASF63:
 12944 133a 5F636C6F 		.ascii	"_close\000"
 12944      736500
 12945              	.LASF585:
 12946 1341 70636E74 		.ascii	"pcnt\000"
 12946      00
 12947              	.LASF27:
 12948 1346 63686172 		.ascii	"char\000"
 12948      00
 12949              	.LASF333:
 12950 134b 50454461 		.ascii	"PEData\000"
 12950      746100
 12951              	.LASF173:
 12952 1352 725F7175 		.ascii	"r_queue\000"
 12952      65756500 
 12953              	.LASF95:
 12954 135a 5F676C75 		.ascii	"_glue\000"
 12954      6500
 12955              	.LASF630:
 12956 1360 63685379 		.ascii	"chSysUnlockFromISR\000"
 12956      73556E6C 
 12956      6F636B46 
 12956      726F6D49 
 12956      535200
 12957              	.LASF385:
 12958 1373 656E6162 		.ascii	"enabled\000"
 12958      6C656400 
 12959              	.LASF495:
 12960 137b 47525846 		.ascii	"GRXFSIZ\000"
 12960      53495A00 
 12961              	.LASF402:
 12962 1383 75736172 		.ascii	"usart\000"
 12962      7400
 12963              	.LASF311:
 12964 1389 715F6C69 		.ascii	"q_link\000"
 12964      6E6B00
 12965              	.LASF516:
 12966 1390 44434647 		.ascii	"DCFG\000"
 12966      00
 12967              	.LASF579:
 12968 1395 7573625F 		.ascii	"usb_lld_pump\000"
 12968      6C6C645F 
 12968      70756D70 
 12968      00
 12969              	.LASF33:
 12970 13a2 5F426967 		.ascii	"_Bigint\000"
 12970      696E7400 
 12971              	.LASF492:
 12972 13aa 47494E54 		.ascii	"GINTMSK\000"
 12972      4D534B00 
 12973              	.LASF497:
 12974 13b2 484E5054 		.ascii	"HNPTXSTS\000"
 12974      58535453 
ARM GAS  /tmp/ccDE0Mq0.s 			page 245


 12974      00
 12975              	.LASF221:
 12976 13bb 41504231 		.ascii	"APB1ENR\000"
 12976      454E5200 
 12977              	.LASF422:
 12978 13c3 636F6E66 		.ascii	"configuration\000"
 12978      69677572 
 12978      6174696F 
 12978      6E00
 12979              	.LASF445:
 12980 13d1 5553425F 		.ascii	"USB_EP0_OUT_WAITING_STS\000"
 12980      4550305F 
 12980      4F55545F 
 12980      57414954 
 12980      494E475F 
 12981              	.LASF90:
 12982 13e9 5F617465 		.ascii	"_atexit0\000"
 12982      78697430 
 12982      00
 12983              	.LASF328:
 12984 13f2 73746D33 		.ascii	"stm32_gpio_setup_t\000"
 12984      325F6770 
 12984      696F5F73 
 12984      65747570 
 12984      5F7400
 12985              	.LASF571:
 12986 1405 6570305F 		.ascii	"ep0_state\000"
 12986      73746174 
 12986      6500
 12987              	.LASF321:
 12988 140f 5F73746D 		.ascii	"_stm32_dma_streams\000"
 12988      33325F64 
 12988      6D615F73 
 12988      74726561 
 12988      6D7300
 12989              	.LASF114:
 12990 1422 5F676574 		.ascii	"_getdate_err\000"
 12990      64617465 
 12990      5F657272 
 12990      00
 12991              	.LASF200:
 12992 142f 6B65726E 		.ascii	"kernel_stats\000"
 12992      656C5F73 
 12992      74617473 
 12992      00
 12993              	.LASF576:
 12994 143c 6F746770 		.ascii	"otgp\000"
 12994      00
 12995              	.LASF154:
 12996 1441 705F7374 		.ascii	"p_stklimit\000"
 12996      6B6C696D 
 12996      697400
 12997              	.LASF142:
 12998 144c 636E745F 		.ascii	"cnt_t\000"
 12998      7400
 12999              	.LASF343:
 13000 1452 65787473 		.ascii	"extstate_t\000"
ARM GAS  /tmp/ccDE0Mq0.s 			page 246


 13000      74617465 
 13000      5F7400
 13001              	.LASF416:
 13002 145d 6570306E 		.ascii	"ep0next\000"
 13002      65787400 
 13003              	.LASF473:
 13004 1465 73746D33 		.ascii	"stm32_otg_host_chn_t\000"
 13004      325F6F74 
 13004      675F686F 
 13004      73745F63 
 13004      686E5F74 
 13005              	.LASF603:
 13006 147a 6F74675F 		.ascii	"otg_epin_handler\000"
 13006      6570696E 
 13006      5F68616E 
 13006      646C6572 
 13006      00
 13007              	.LASF441:
 13008 148b 5553425F 		.ascii	"USB_EP0_STP_WAITING\000"
 13008      4550305F 
 13008      5354505F 
 13008      57414954 
 13008      494E4700 
 13009              	.LASF626:
 13010 149f 6F73616C 		.ascii	"osalSysLock\000"
 13010      5379734C 
 13010      6F636B00 
 13011              	.LASF126:
 13012 14ab 5F696D70 		.ascii	"_impure_ptr\000"
 13012      7572655F 
 13012      70747200 
 13013              	.LASF286:
 13014 14b7 63665F6F 		.ascii	"cf_off_preempt\000"
 13014      66665F70 
 13014      7265656D 
 13014      707400
 13015              	.LASF66:
 13016 14c6 5F626C6B 		.ascii	"_blksize\000"
 13016      73697A65 
 13016      00
 13017              	.LASF468:
 13018 14cf 4843494E 		.ascii	"HCINTMSK\000"
 13018      544D534B 
 13018      00
 13019              	.LASF64:
 13020 14d8 5F756275 		.ascii	"_ubuf\000"
 13020      6600
 13021              	.LASF346:
 13022 14de 636F6E66 		.ascii	"config\000"
 13022      696700
 13023              	.LASF109:
 13024 14e5 5F6D626C 		.ascii	"_mblen_state\000"
 13024      656E5F73 
 13024      74617465 
 13024      00
 13025              	.LASF92:
 13026 14f2 5F5F7367 		.ascii	"__sglue\000"
ARM GAS  /tmp/ccDE0Mq0.s 			page 247


 13026      6C756500 
 13027              	.LASF125:
 13028 14fa 5F5F6C6F 		.ascii	"__locale_t\000"
 13028      63616C65 
 13028      5F7400
 13029              	.LASF82:
 13030 1505 5F5F636C 		.ascii	"__cleanup\000"
 13030      65616E75 
 13030      7000
 13031              	.LASF208:
 13032 150f 504C4C43 		.ascii	"PLLCFGR\000"
 13032      46475200 
 13033              	.LASF348:
 13034 1517 65787463 		.ascii	"extcallback_t\000"
 13034      616C6C62 
 13034      61636B5F 
 13034      7400
 13035              	.LASF179:
 13036 1525 76746675 		.ascii	"vtfunc_t\000"
 13036      6E635F74 
 13036      00
 13037              	.LASF258:
 13038 152e 77746F62 		.ascii	"wtobjp\000"
 13038      6A7000
 13039              	.LASF18:
 13040 1535 5F66706F 		.ascii	"_fpos_t\000"
 13040      735F7400 
 13041              	.LASF57:
 13042 153d 5F66696C 		.ascii	"_file\000"
 13042      6500
 13043              	.LASF163:
 13044 1543 705F7265 		.ascii	"p_realprio\000"
 13044      616C7072 
 13044      696F00
 13045              	.LASF310:
 13046 154e 715F6E6F 		.ascii	"q_notify\000"
 13046      74696679 
 13046      00
 13047              	.LASF261:
 13048 1557 77746D74 		.ascii	"wtmtxp\000"
 13048      787000
 13049              	.LASF55:
 13050 155e 5F5F7346 		.ascii	"__sFILE\000"
 13050      494C4500 
 13051              	.LASF51:
 13052 1566 5F666E73 		.ascii	"_fns\000"
 13052      00
 13053              	.LASF553:
 13054 156b 5553424F 		.ascii	"USBOutEndpointState\000"
 13054      7574456E 
 13054      64706F69 
 13054      6E745374 
 13054      61746500 
 13055              	.LASF512:
 13056 157f 72657376 		.ascii	"resvd41C\000"
 13056      64343143 
 13056      00
ARM GAS  /tmp/ccDE0Mq0.s 			page 248


 13057              	.LASF25:
 13058 1588 5F6D6273 		.ascii	"_mbstate_t\000"
 13058      74617465 
 13058      5F7400
 13059              	.LASF120:
 13060 1593 5F685F65 		.ascii	"_h_errno\000"
 13060      72726E6F 
 13060      00
 13061              	.LASF444:
 13062 159c 5553425F 		.ascii	"USB_EP0_IN_SENDING_STS\000"
 13062      4550305F 
 13062      494E5F53 
 13062      454E4449 
 13062      4E475F53 
 13063              	.LASF231:
 13064 15b3 42444352 		.ascii	"BDCR\000"
 13064      00
 13065              	.LASF172:
 13066 15b8 63685F72 		.ascii	"ch_ready_list\000"
 13066      65616479 
 13066      5F6C6973 
 13066      7400
 13067              	.LASF10:
 13068 15c6 5F5F696E 		.ascii	"__int32_t\000"
 13068      7433325F 
 13068      7400
 13069              	.LASF12:
 13070 15d0 5F5F7569 		.ascii	"__uint32_t\000"
 13070      6E743332 
 13070      5F7400
 13071              	.LASF191:
 13072 15db 63685F73 		.ascii	"ch_system_debug\000"
 13072      79737465 
 13072      6D5F6465 
 13072      62756700 
 13073              	.LASF523:
 13074 15eb 4441494E 		.ascii	"DAINTMSK\000"
 13074      544D534B 
 13074      00
 13075              	.LASF352:
 13076 15f4 45585443 		.ascii	"EXTConfig\000"
 13076      6F6E6669 
 13076      6700
 13077              	.LASF24:
 13078 15fe 5F5F7661 		.ascii	"__value\000"
 13078      6C756500 
 13079              	.LASF48:
 13080 1606 5F69735F 		.ascii	"_is_cxa\000"
 13080      63786100 
 13081              	.LASF327:
 13082 160e 61667268 		.ascii	"afrh\000"
 13082      00
 13083              	.LASF326:
 13084 1613 6166726C 		.ascii	"afrl\000"
 13084      00
 13085              	.LASF318:
 13086 1618 73656C66 		.ascii	"selfindex\000"
ARM GAS  /tmp/ccDE0Mq0.s 			page 249


 13086      696E6465 
 13086      7800
 13087              	.LASF290:
 13088 1622 6D757465 		.ascii	"mutex_t\000"
 13088      785F7400 
 13089              	.LASF85:
 13090 162a 5F703573 		.ascii	"_p5s\000"
 13090      00
 13091              	.LASF161:
 13092 162f 705F6570 		.ascii	"p_epending\000"
 13092      656E6469 
 13092      6E6700
 13093              	.LASF437:
 13094 163a 45505F53 		.ascii	"EP_STATUS_DISABLED\000"
 13094      54415455 
 13094      535F4449 
 13094      5341424C 
 13094      454400
 13095              	.LASF213:
 13096 164d 52455345 		.ascii	"RESERVED0\000"
 13096      52564544 
 13096      3000
 13097              	.LASF216:
 13098 1657 52455345 		.ascii	"RESERVED1\000"
 13098      52564544 
 13098      3100
 13099              	.LASF220:
 13100 1661 52455345 		.ascii	"RESERVED2\000"
 13100      52564544 
 13100      3200
 13101              	.LASF223:
 13102 166b 52455345 		.ascii	"RESERVED3\000"
 13102      52564544 
 13102      3300
 13103              	.LASF227:
 13104 1675 52455345 		.ascii	"RESERVED4\000"
 13104      52564544 
 13104      3400
 13105              	.LASF230:
 13106 167f 52455345 		.ascii	"RESERVED5\000"
 13106      52564544 
 13106      3500
 13107              	.LASF232:
 13108 1689 52455345 		.ascii	"RESERVED6\000"
 13108      52564544 
 13108      3600
 13109              	.LASF564:
 13110 1693 55534245 		.ascii	"USBEndpointConfig\000"
 13110      6E64706F 
 13110      696E7443 
 13110      6F6E6669 
 13110      6700
 13111              	.LASF514:
 13112 16a5 72657376 		.ascii	"resvd444\000"
 13112      64343434 
 13112      00
 13113              	.LASF339:
ARM GAS  /tmp/ccDE0Mq0.s 			page 250


 13114 16ae 70616C5F 		.ascii	"pal_default_config\000"
 13114      64656661 
 13114      756C745F 
 13114      636F6E66 
 13114      696700
 13115              	.LASF294:
 13116 16c1 656C5F6C 		.ascii	"el_listener\000"
 13116      69737465 
 13116      6E657200 
 13117              	.LASF372:
 13118 16cd 73746D33 		.ascii	"stm32_tim_t\000"
 13118      325F7469 
 13118      6D5F7400 
 13119              	.LASF174:
 13120 16d9 725F7072 		.ascii	"r_prio\000"
 13120      696F00
 13121              	.LASF425:
 13122 16e0 706D6E65 		.ascii	"pmnext\000"
 13122      787400
 13123              	.LASF202:
 13124 16e7 49544D5F 		.ascii	"ITM_RxBuffer\000"
 13124      52784275 
 13124      66666572 
 13124      00
 13125              	.LASF15:
 13126 16f4 6C6F6E67 		.ascii	"long long unsigned int\000"
 13126      206C6F6E 
 13126      6720756E 
 13126      7369676E 
 13126      65642069 
 13127              	.LASF244:
 13128 170b 6F666673 		.ascii	"offset\000"
 13128      657400
 13129              	.LASF224:
 13130 1712 41484231 		.ascii	"AHB1LPENR\000"
 13130      4C50454E 
 13130      5200
 13131              	.LASF627:
 13132 171c 63685265 		.ascii	"chRegSetThreadName\000"
 13132      67536574 
 13132      54687265 
 13132      61644E61 
 13132      6D6500
 13133              	.LASF204:
 13134 172f 4E445452 		.ascii	"NDTR\000"
 13134      00
 13135              	.LASF299:
 13136 1734 65735F6E 		.ascii	"es_next\000"
 13136      65787400 
 13137              	.LASF106:
 13138 173c 5F67616D 		.ascii	"_gamma_signgam\000"
 13138      6D615F73 
 13138      69676E67 
 13138      616D00
 13139              	.LASF201:
 13140 174b 69646C65 		.ascii	"idle_thread_wa\000"
 13140      5F746872 
ARM GAS  /tmp/ccDE0Mq0.s 			page 251


 13140      6561645F 
 13140      776100
 13141              	.LASF476:
 13142 175a 44494550 		.ascii	"DIEPINT\000"
 13142      494E5400 
 13143              	.LASF185:
 13144 1762 76745F66 		.ascii	"vt_func\000"
 13144      756E6300 
 13145              	.LASF363:
 13146 176a 534D4352 		.ascii	"SMCR\000"
 13146      00
 13147              	.LASF521:
 13148 176f 444F4550 		.ascii	"DOEPMSK\000"
 13148      4D534B00 
 13149              	.LASF613:
 13150 1777 6F74675F 		.ascii	"otg_ram_reset\000"
 13150      72616D5F 
 13150      72657365 
 13150      7400
 13151              	.LASF181:
 13152 1785 63685F76 		.ascii	"ch_virtual_timer\000"
 13152      69727475 
 13152      616C5F74 
 13152      696D6572 
 13152      00
 13153              	.LASF156:
 13154 1796 705F666C 		.ascii	"p_flags\000"
 13154      61677300 
 13155              	.LASF262:
 13156 179e 65776D61 		.ascii	"ewmask\000"
 13156      736B00
 13157              	.LASF296:
 13158 17a5 656C5F66 		.ascii	"el_flags\000"
 13158      6C616773 
 13158      00
 13159              	.LASF298:
 13160 17ae 6576656E 		.ascii	"event_source\000"
 13160      745F736F 
 13160      75726365 
 13160      00
 13161              	.LASF162:
 13162 17bb 705F6D74 		.ascii	"p_mtxlist\000"
 13162      786C6973 
 13162      7400
 13163              	.LASF136:
 13164 17c5 74737461 		.ascii	"tstate_t\000"
 13164      74655F74 
 13164      00
 13165              	.LASF127:
 13166 17ce 5F676C6F 		.ascii	"_global_impure_ptr\000"
 13166      62616C5F 
 13166      696D7075 
 13166      72655F70 
 13166      747200
 13167              	.LASF522:
 13168 17e1 4441494E 		.ascii	"DAINT\000"
 13168      5400
ARM GAS  /tmp/ccDE0Mq0.s 			page 252


 13169              	.LASF79:
 13170 17e7 5F756E73 		.ascii	"_unspecified_locale_info\000"
 13170      70656369 
 13170      66696564 
 13170      5F6C6F63 
 13170      616C655F 
 13171              	.LASF325:
 13172 1800 70757064 		.ascii	"pupdr\000"
 13172      7200
 13173              	.LASF411:
 13174 1806 7472616E 		.ascii	"transmitting\000"
 13174      736D6974 
 13174      74696E67 
 13174      00
 13175              	.LASF351:
 13176 1813 6368616E 		.ascii	"channels\000"
 13176      6E656C73 
 13176      00
 13177              	.LASF589:
 13178 181c 7573625F 		.ascii	"usb_lld_get_status_out\000"
 13178      6C6C645F 
 13178      6765745F 
 13178      73746174 
 13178      75735F6F 
 13179              	.LASF153:
 13180 1833 705F6E61 		.ascii	"p_name\000"
 13180      6D6500
 13181              	.LASF81:
 13182 183a 5F5F7364 		.ascii	"__sdidinit\000"
 13182      6964696E 
 13182      697400
 13183              	.LASF575:
 13184 1845 75736270 		.ascii	"usbp\000"
 13184      00
 13185              	.LASF436:
 13186 184a 75736273 		.ascii	"usbstate_t\000"
 13186      74617465 
 13186      5F7400
 13187              	.LASF484:
 13188 1855 444F4550 		.ascii	"DOEPTSIZ\000"
 13188      5453495A 
 13188      00
 13189              	.LASF229:
 13190 185e 41504232 		.ascii	"APB2LPENR\000"
 13190      4C50454E 
 13190      5200
 13191              	.LASF278:
 13192 1868 63665F6F 		.ascii	"cf_off_ctx\000"
 13192      66665F63 
 13192      747800
 13193              	.LASF628:
 13194 1873 6E616D65 		.ascii	"name\000"
 13194      00
 13195              	.LASF26:
 13196 1878 5F666C6F 		.ascii	"_flock_t\000"
 13196      636B5F74 
 13196      00
ARM GAS  /tmp/ccDE0Mq0.s 			page 253


 13197              	.LASF187:
 13198 1881 76697274 		.ascii	"virtual_timers_list_t\000"
 13198      75616C5F 
 13198      74696D65 
 13198      72735F6C 
 13198      6973745F 
 13199              	.LASF435:
 13200 1897 5553425F 		.ascii	"USB_SUSPENDED\000"
 13200      53555350 
 13200      454E4445 
 13200      4400
 13201              	.LASF322:
 13202 18a5 6D6F6465 		.ascii	"moder\000"
 13202      7200
 13203              	.LASF264:
 13204 18ab 735F7175 		.ascii	"s_queue\000"
 13204      65756500 
 13205              	.LASF253:
 13206 18b3 6D5F6372 		.ascii	"m_crit_thd\000"
 13206      69745F74 
 13206      686400
 13207              	.LASF270:
 13208 18be 63685F69 		.ascii	"ch_identifier\000"
 13208      64656E74 
 13208      69666965 
 13208      7200
 13209              	.LASF408:
 13210 18cc 77726974 		.ascii	"writet\000"
 13210      657400
 13211              	.LASF1:
 13212 18d3 6C6F6E67 		.ascii	"long long int\000"
 13212      206C6F6E 
 13212      6720696E 
 13212      7400
 13213              	.LASF502:
 13214 18e1 48505458 		.ascii	"HPTXFSIZ\000"
 13214      4653495A 
 13214      00
 13215              	.LASF581:
 13216 18ea 7573625F 		.ascii	"usb_lld_clear_out\000"
 13216      6C6C645F 
 13216      636C6561 
 13216      725F6F75 
 13216      7400
 13217              	.LASF277:
 13218 18fc 63665F6F 		.ascii	"cf_off_prio\000"
 13218      66665F70 
 13218      72696F00 
 13219              	.LASF71:
 13220 1908 5F666C61 		.ascii	"_flags2\000"
 13220      67733200 
 13221              	.LASF631:
 13222 1910 63685379 		.ascii	"chSysLockFromISR\000"
 13222      734C6F63 
 13222      6B46726F 
 13222      6D495352 
 13222      00
ARM GAS  /tmp/ccDE0Mq0.s 			page 254


 13223              	.LASF250:
 13224 1921 74696D65 		.ascii	"time_measurement_t\000"
 13224      5F6D6561 
 13224      73757265 
 13224      6D656E74 
 13224      5F7400
 13225              	.LASF545:
 13226 1934 7478636E 		.ascii	"txcnt\000"
 13226      7400
 13227              	.LASF616:
 13228 193a 6F74675F 		.ascii	"otg_rxfifo_flush\000"
 13228      72786669 
 13228      666F5F66 
 13228      6C757368 
 13228      00
 13229              	.LASF566:
 13230 194b 6765745F 		.ascii	"get_descriptor_cb\000"
 13230      64657363 
 13230      72697074 
 13230      6F725F63 
 13230      6200
 13231              	.LASF80:
 13232 195d 5F6C6F63 		.ascii	"_locale\000"
 13232      616C6500 
 13233              	.LASF141:
 13234 1965 6576656E 		.ascii	"eventflags_t\000"
 13234      74666C61 
 13234      67735F74 
 13234      00
 13235              	.LASF442:
 13236 1972 5553425F 		.ascii	"USB_EP0_IN_TX\000"
 13236      4550305F 
 13236      494E5F54 
 13236      5800
 13237              	.LASF591:
 13238 1980 7573625F 		.ascii	"usb_lld_init_endpoint\000"
 13238      6C6C645F 
 13238      696E6974 
 13238      5F656E64 
 13238      706F696E 
 13239              	.LASF538:
 13240 1996 4649464F 		.ascii	"FIFO\000"
 13240      00
 13241              	.LASF517:
 13242 199b 4443544C 		.ascii	"DCTL\000"
 13242      00
 13243              	.LASF546:
 13244 19a0 74786275 		.ascii	"txbuf\000"
 13244      6600
 13245              	.LASF536:
 13246 19a6 50434743 		.ascii	"PCGCCTL\000"
 13246      43544C00 
 13247              	.LASF454:
 13248 19ae 5553425F 		.ascii	"USB_EVENT_WAKEUP\000"
 13248      4556454E 
 13248      545F5741 
 13248      4B455550 
ARM GAS  /tmp/ccDE0Mq0.s 			page 255


 13248      00
 13249              	.LASF642:
 13250 19bf 5F5F7365 		.ascii	"__set_BASEPRI\000"
 13250      745F4241 
 13250      53455052 
 13250      4900
 13251              	.LASF152:
 13252 19cd 705F6F6C 		.ascii	"p_older\000"
 13252      64657200 
 13253              	.LASF337:
 13254 19d5 50494461 		.ascii	"PIData\000"
 13254      746100
 13255              	.LASF563:
 13256 19dc 73657475 		.ascii	"setup_buf\000"
 13256      705F6275 
 13256      6600
 13257              	.LASF499:
 13258 19e6 72657376 		.ascii	"resvd34\000"
 13258      64333400 
 13259              	.LASF378:
 13260 19ee 47505444 		.ascii	"GPTD5\000"
 13260      3500
 13261              	.LASF166:
 13262 19f4 74687265 		.ascii	"thread_reference_t\000"
 13262      61645F72 
 13262      65666572 
 13262      656E6365 
 13262      5F7400
 13263              	.LASF347:
 13264 1a07 65787063 		.ascii	"expchannel_t\000"
 13264      68616E6E 
 13264      656C5F74 
 13264      00
 13265              	.LASF412:
 13266 1a14 72656365 		.ascii	"receiving\000"
 13266      6976696E 
 13266      6700
 13267              	.LASF94:
 13268 1a1e 5F5F4649 		.ascii	"__FILE\000"
 13268      4C4500
 13269              	.LASF429:
 13270 1a25 75736265 		.ascii	"usbep_t\000"
 13270      705F7400 
 13271              	.LASF374:
 13272 1a2d 66726571 		.ascii	"frequency\000"
 13272      75656E63 
 13272      7900
 13273              	.LASF621:
 13274 1a37 6F73616C 		.ascii	"osalSysPolledDelayX\000"
 13274      53797350 
 13274      6F6C6C65 
 13274      6444656C 
 13274      61795800 
 13275              	.LASF31:
 13276 1a4b 5F736967 		.ascii	"_sign\000"
 13276      6E00
 13277              	.LASF560:
ARM GAS  /tmp/ccDE0Mq0.s 			page 256


 13278 1a51 696E5F73 		.ascii	"in_state\000"
 13278      74617465 
 13278      00
 13279              	.LASF36:
 13280 1a5a 5F5F746D 		.ascii	"__tm_min\000"
 13280      5F6D696E 
 13280      00
 13281              	.LASF271:
 13282 1a63 63685F7A 		.ascii	"ch_zero\000"
 13282      65726F00 
 13283              	.LASF276:
 13284 1a6b 63685F74 		.ascii	"ch_threadsize\000"
 13284      68726561 
 13284      6473697A 
 13284      6500
 13285              	.LASF365:
 13286 1a79 43434D52 		.ascii	"CCMR1\000"
 13286      3100
 13287              	.LASF366:
 13288 1a7f 43434D52 		.ascii	"CCMR2\000"
 13288      3200
 13289              	.LASF370:
 13290 1a85 43434D52 		.ascii	"CCMR3\000"
 13290      3300
 13291              	.LASF0:
 13292 1a8b 756E7369 		.ascii	"unsigned int\000"
 13292      676E6564 
 13292      20696E74 
 13292      00
 13293              	.LASF108:
 13294 1a98 5F723438 		.ascii	"_r48\000"
 13294      00
 13295              	.LASF506:
 13296 1a9d 48464952 		.ascii	"HFIR\000"
 13296      00
 13297              	.LASF430:
 13298 1aa2 5553425F 		.ascii	"USB_UNINIT\000"
 13298      554E494E 
 13298      495400
 13299              	.LASF315:
 13300 1aad 73747265 		.ascii	"stream\000"
 13300      616D00
 13301              	.LASF605:
 13302 1ab4 6F74675F 		.ascii	"otg_fifo_read_to_buffer\000"
 13302      6669666F 
 13302      5F726561 
 13302      645F746F 
 13302      5F627566 
 13303              	.LASF7:
 13304 1acc 73686F72 		.ascii	"short int\000"
 13304      7420696E 
 13304      7400
 13305              	.LASF460:
 13306 1ad6 75736263 		.ascii	"usbcallback_t\000"
 13306      616C6C62 
 13306      61636B5F 
 13306      7400
ARM GAS  /tmp/ccDE0Mq0.s 			page 257


 13307              	.LASF60:
 13308 1ae4 5F726561 		.ascii	"_read\000"
 13308      6400
 13309              	.LASF489:
 13310 1aea 47555342 		.ascii	"GUSBCFG\000"
 13310      43464700 
 13311              	.LASF239:
 13312 1af2 55534152 		.ascii	"USART_TypeDef\000"
 13312      545F5479 
 13312      70654465 
 13312      6600
 13313              	.LASF314:
 13314 1b00 6F757470 		.ascii	"output_queue_t\000"
 13314      75745F71 
 13314      75657565 
 13314      5F7400
 13315              	.LASF98:
 13316 1b0f 5F72616E 		.ascii	"_rand48\000"
 13316      64343800 
 13317              	.LASF539:
 13318 1b17 73746D33 		.ascii	"stm32_otg_t\000"
 13318      325F6F74 
 13318      675F7400 
 13319              	.LASF583:
 13320 1b23 7573625F 		.ascii	"usb_lld_stall_out\000"
 13320      6C6C645F 
 13320      7374616C 
 13320      6C5F6F75 
 13320      7400
 13321              	.LASF457:
 13322 1b35 75645F73 		.ascii	"ud_size\000"
 13322      697A6500 
 13323              	.LASF218:
 13324 1b3d 41484232 		.ascii	"AHB2ENR\000"
 13324      454E5200 
 13325              	.LASF210:
 13326 1b45 41484231 		.ascii	"AHB1RSTR\000"
 13326      52535452 
 13326      00
 13327              	.LASF558:
 13328 1b4e 696E5F6D 		.ascii	"in_maxsize\000"
 13328      61787369 
 13328      7A6500
 13329              	.LASF334:
 13330 1b59 50464461 		.ascii	"PFData\000"
 13330      746100
 13331              	.LASF341:
 13332 1b60 4558545F 		.ascii	"EXT_STOP\000"
 13332      53544F50 
 13332      00
 13333              	.LASF155:
 13334 1b69 705F7374 		.ascii	"p_state\000"
 13334      61746500 
 13335              	.LASF168:
 13336 1b71 63685F74 		.ascii	"ch_threads_list\000"
 13336      68726561 
 13336      64735F6C 
ARM GAS  /tmp/ccDE0Mq0.s 			page 258


 13336      69737400 
 13337              	.LASF165:
 13338 1b81 705F7374 		.ascii	"p_stats\000"
 13338      61747300 
 13339              		.ident	"GCC: (GNU Tools for ARM Embedded Processors 6-2017-q2-update) 6.3.1 20170620 (release) [AR
ARM GAS  /tmp/ccDE0Mq0.s 			page 259


DEFINED SYMBOLS
                            *ABS*:0000000000000000 usb_lld.c
     /tmp/ccDE0Mq0.s:18     .text.port_lock:0000000000000000 $t
     /tmp/ccDE0Mq0.s:25     .text.port_lock:0000000000000000 port_lock
     /tmp/ccDE0Mq0.s:60     .text.port_unlock:0000000000000000 $t
     /tmp/ccDE0Mq0.s:67     .text.port_unlock:0000000000000000 port_unlock
     /tmp/ccDE0Mq0.s:100    .text.port_lock_from_isr:0000000000000000 $t
     /tmp/ccDE0Mq0.s:107    .text.port_lock_from_isr:0000000000000000 port_lock_from_isr
     /tmp/ccDE0Mq0.s:126    .text.port_unlock_from_isr:0000000000000000 $t
     /tmp/ccDE0Mq0.s:133    .text.port_unlock_from_isr:0000000000000000 port_unlock_from_isr
     /tmp/ccDE0Mq0.s:152    .text.chSysLock:0000000000000000 $t
     /tmp/ccDE0Mq0.s:159    .text.chSysLock:0000000000000000 chSysLock
     /tmp/ccDE0Mq0.s:183    .text.chSysUnlock:0000000000000000 $t
     /tmp/ccDE0Mq0.s:190    .text.chSysUnlock:0000000000000000 chSysUnlock
     /tmp/ccDE0Mq0.s:231    .text.chSysUnlock:0000000000000034 $d
     /tmp/ccDE0Mq0.s:4378   .rodata.__func__.7535:0000000000000000 __func__.7535
     /tmp/ccDE0Mq0.s:237    .text.chSysLockFromISR:0000000000000000 $t
     /tmp/ccDE0Mq0.s:244    .text.chSysLockFromISR:0000000000000000 chSysLockFromISR
     /tmp/ccDE0Mq0.s:267    .text.chSysUnlockFromISR:0000000000000000 $t
     /tmp/ccDE0Mq0.s:274    .text.chSysUnlockFromISR:0000000000000000 chSysUnlockFromISR
     /tmp/ccDE0Mq0.s:297    .text.chThdStartI:0000000000000000 $t
     /tmp/ccDE0Mq0.s:304    .text.chThdStartI:0000000000000000 chThdStartI
     /tmp/ccDE0Mq0.s:339    .text.chThdStartI:0000000000000028 $d
     /tmp/ccDE0Mq0.s:4372   .rodata.__func__.7702:0000000000000000 __func__.7702
     /tmp/ccDE0Mq0.s:344    .text.chRegSetThreadName:0000000000000000 $t
     /tmp/ccDE0Mq0.s:351    .text.chRegSetThreadName:0000000000000000 chRegSetThreadName
     /tmp/ccDE0Mq0.s:376    .text.chRegSetThreadName:0000000000000014 $d
     /tmp/ccDE0Mq0.s:381    .text.osalSysLock:0000000000000000 $t
     /tmp/ccDE0Mq0.s:388    .text.osalSysLock:0000000000000000 osalSysLock
     /tmp/ccDE0Mq0.s:408    .text.osalSysUnlock:0000000000000000 $t
     /tmp/ccDE0Mq0.s:415    .text.osalSysUnlock:0000000000000000 osalSysUnlock
     /tmp/ccDE0Mq0.s:434    .text.osalSysLockFromISR:0000000000000000 $t
     /tmp/ccDE0Mq0.s:441    .text.osalSysLockFromISR:0000000000000000 osalSysLockFromISR
     /tmp/ccDE0Mq0.s:460    .text.osalSysUnlockFromISR:0000000000000000 $t
     /tmp/ccDE0Mq0.s:467    .text.osalSysUnlockFromISR:0000000000000000 osalSysUnlockFromISR
     /tmp/ccDE0Mq0.s:486    .text.osalSysPolledDelayX:0000000000000000 $t
     /tmp/ccDE0Mq0.s:493    .text.osalSysPolledDelayX:0000000000000000 osalSysPolledDelayX
     /tmp/ccDE0Mq0.s:518    .text.osalThreadSuspendS:0000000000000000 $t
     /tmp/ccDE0Mq0.s:525    .text.osalThreadSuspendS:0000000000000000 osalThreadSuspendS
     /tmp/ccDE0Mq0.s:551    .text.osalThreadResumeI:0000000000000000 $t
     /tmp/ccDE0Mq0.s:558    .text.osalThreadResumeI:0000000000000000 osalThreadResumeI
     /tmp/ccDE0Mq0.s:589    .bss.USBD2:0000000000000000 USBD2
     /tmp/ccDE0Mq0.s:586    .bss.USBD2:0000000000000000 $d
     /tmp/ccDE0Mq0.s:592    .bss.ep0_state:0000000000000000 $d
     /tmp/ccDE0Mq0.s:595    .bss.ep0_state:0000000000000000 ep0_state
     /tmp/ccDE0Mq0.s:598    .bss.ep0setup_buffer:0000000000000000 $d
     /tmp/ccDE0Mq0.s:601    .bss.ep0setup_buffer:0000000000000000 ep0setup_buffer
     /tmp/ccDE0Mq0.s:604    .rodata.ep0config:0000000000000000 $d
     /tmp/ccDE0Mq0.s:607    .rodata.ep0config:0000000000000000 ep0config
     /tmp/ccDE0Mq0.s:620    .rodata.hsparams:0000000000000000 $d
     /tmp/ccDE0Mq0.s:623    .rodata.hsparams:0000000000000000 hsparams
     /tmp/ccDE0Mq0.s:628    .text.otg_core_reset:0000000000000000 $t
     /tmp/ccDE0Mq0.s:635    .text.otg_core_reset:0000000000000000 otg_core_reset
     /tmp/ccDE0Mq0.s:689    .text.otg_disable_ep:0000000000000000 $t
     /tmp/ccDE0Mq0.s:696    .text.otg_disable_ep:0000000000000000 otg_disable_ep
     /tmp/ccDE0Mq0.s:789    .text.otg_rxfifo_flush:0000000000000000 $t
     /tmp/ccDE0Mq0.s:796    .text.otg_rxfifo_flush:0000000000000000 otg_rxfifo_flush
ARM GAS  /tmp/ccDE0Mq0.s 			page 260


     /tmp/ccDE0Mq0.s:838    .text.otg_txfifo_flush:0000000000000000 $t
     /tmp/ccDE0Mq0.s:845    .text.otg_txfifo_flush:0000000000000000 otg_txfifo_flush
     /tmp/ccDE0Mq0.s:890    .text.otg_ram_reset:0000000000000000 $t
     /tmp/ccDE0Mq0.s:897    .text.otg_ram_reset:0000000000000000 otg_ram_reset
     /tmp/ccDE0Mq0.s:923    .text.otg_ram_alloc:0000000000000000 $t
     /tmp/ccDE0Mq0.s:930    .text.otg_ram_alloc:0000000000000000 otg_ram_alloc
     /tmp/ccDE0Mq0.s:977    .text.otg_ram_alloc:0000000000000038 $d
     /tmp/ccDE0Mq0.s:4360   .rodata.__func__.9451:0000000000000000 __func__.9451
     /tmp/ccDE0Mq0.s:982    .text.otg_fifo_write_from_buffer:0000000000000000 $t
     /tmp/ccDE0Mq0.s:989    .text.otg_fifo_write_from_buffer:0000000000000000 otg_fifo_write_from_buffer
     /tmp/ccDE0Mq0.s:1042   .text.otg_fifo_write_from_buffer:000000000000003c $d
     /tmp/ccDE0Mq0.s:4366   .rodata.__func__.9457:0000000000000000 __func__.9457
     /tmp/ccDE0Mq0.s:1047   .text.otg_fifo_read_to_buffer:0000000000000000 $t
     /tmp/ccDE0Mq0.s:1054   .text.otg_fifo_read_to_buffer:0000000000000000 otg_fifo_read_to_buffer
     /tmp/ccDE0Mq0.s:1123   .text.otg_rxfifo_handler:0000000000000000 $t
     /tmp/ccDE0Mq0.s:1130   .text.otg_rxfifo_handler:0000000000000000 otg_rxfifo_handler
     /tmp/ccDE0Mq0.s:1295   .text.otg_txfifo_handler:0000000000000000 $t
     /tmp/ccDE0Mq0.s:1302   .text.otg_txfifo_handler:0000000000000000 otg_txfifo_handler
     /tmp/ccDE0Mq0.s:1471   .text.otg_epin_handler:0000000000000000 $t
     /tmp/ccDE0Mq0.s:1478   .text.otg_epin_handler:0000000000000000 otg_epin_handler
     /tmp/ccDE0Mq0.s:3811   .text.usb_lld_start_in:0000000000000000 usb_lld_start_in
     /tmp/ccDE0Mq0.s:1672   .text.otg_epout_handler:0000000000000000 $t
     /tmp/ccDE0Mq0.s:1679   .text.otg_epout_handler:0000000000000000 otg_epout_handler
     /tmp/ccDE0Mq0.s:3634   .text.usb_lld_start_out:0000000000000000 usb_lld_start_out
     /tmp/ccDE0Mq0.s:1880   .text.otg_isoc_in_failed_handler:0000000000000000 $t
     /tmp/ccDE0Mq0.s:1887   .text.otg_isoc_in_failed_handler:0000000000000000 otg_isoc_in_failed_handler
     /tmp/ccDE0Mq0.s:2063   .text.otg_isoc_out_failed_handler:0000000000000000 $t
     /tmp/ccDE0Mq0.s:2070   .text.otg_isoc_out_failed_handler:0000000000000000 otg_isoc_out_failed_handler
     /tmp/ccDE0Mq0.s:2193   .text.usb_lld_serve_interrupt:0000000000000000 $t
     /tmp/ccDE0Mq0.s:2200   .text.usb_lld_serve_interrupt:0000000000000000 usb_lld_serve_interrupt
     /tmp/ccDE0Mq0.s:2515   .text.Vector174:0000000000000000 $t
     /tmp/ccDE0Mq0.s:2523   .text.Vector174:0000000000000000 Vector174
     /tmp/ccDE0Mq0.s:2548   .text.Vector174:000000000000001c $d
     /tmp/ccDE0Mq0.s:2553   .text.usb_lld_init:0000000000000000 $t
     /tmp/ccDE0Mq0.s:2561   .text.usb_lld_init:0000000000000000 usb_lld_init
     /tmp/ccDE0Mq0.s:2620   .text.usb_lld_init:0000000000000054 $d
     /tmp/ccDE0Mq0.s:2628   .text.usb_lld_start:0000000000000000 $t
     /tmp/ccDE0Mq0.s:2636   .text.usb_lld_start:0000000000000000 usb_lld_start
     /tmp/ccDE0Mq0.s:2801   .text.usb_lld_start:000000000000011c $d
     /tmp/ccDE0Mq0.s:4195   .text.usb_lld_pump:0000000000000000 usb_lld_pump
     /tmp/ccDE0Mq0.s:2812   .text.usb_lld_stop:0000000000000000 $t
     /tmp/ccDE0Mq0.s:2820   .text.usb_lld_stop:0000000000000000 usb_lld_stop
     /tmp/ccDE0Mq0.s:2884   .text.usb_lld_stop:0000000000000058 $d
     /tmp/ccDE0Mq0.s:2890   .text.usb_lld_reset:0000000000000000 $t
     /tmp/ccDE0Mq0.s:2898   .text.usb_lld_reset:0000000000000000 usb_lld_reset
     /tmp/ccDE0Mq0.s:3062   .text.usb_lld_reset:0000000000000128 $d
     /tmp/ccDE0Mq0.s:3067   .text.usb_lld_set_address:0000000000000000 $t
     /tmp/ccDE0Mq0.s:3075   .text.usb_lld_set_address:0000000000000000 usb_lld_set_address
     /tmp/ccDE0Mq0.s:3109   .text.usb_lld_init_endpoint:0000000000000000 $t
     /tmp/ccDE0Mq0.s:3117   .text.usb_lld_init_endpoint:0000000000000000 usb_lld_init_endpoint
     /tmp/ccDE0Mq0.s:3152   .text.usb_lld_init_endpoint:0000000000000034 $d
     /tmp/ccDE0Mq0.s:3156   .text.usb_lld_init_endpoint:0000000000000044 $t
     /tmp/ccDE0Mq0.s:3416   .text.usb_lld_init_endpoint:0000000000000244 $d
     /tmp/ccDE0Mq0.s:3425   .text.usb_lld_disable_endpoints:0000000000000000 $t
     /tmp/ccDE0Mq0.s:3433   .text.usb_lld_disable_endpoints:0000000000000000 usb_lld_disable_endpoints
     /tmp/ccDE0Mq0.s:3461   .text.usb_lld_get_status_out:0000000000000000 $t
     /tmp/ccDE0Mq0.s:3469   .text.usb_lld_get_status_out:0000000000000000 usb_lld_get_status_out
ARM GAS  /tmp/ccDE0Mq0.s 			page 261


     /tmp/ccDE0Mq0.s:3521   .text.usb_lld_get_status_in:0000000000000000 $t
     /tmp/ccDE0Mq0.s:3529   .text.usb_lld_get_status_in:0000000000000000 usb_lld_get_status_in
     /tmp/ccDE0Mq0.s:3581   .text.usb_lld_read_setup:0000000000000000 $t
     /tmp/ccDE0Mq0.s:3589   .text.usb_lld_read_setup:0000000000000000 usb_lld_read_setup
     /tmp/ccDE0Mq0.s:3626   .text.usb_lld_start_out:0000000000000000 $t
     /tmp/ccDE0Mq0.s:3803   .text.usb_lld_start_in:0000000000000000 $t
     /tmp/ccDE0Mq0.s:3999   .text.usb_lld_stall_out:0000000000000000 $t
     /tmp/ccDE0Mq0.s:4007   .text.usb_lld_stall_out:0000000000000000 usb_lld_stall_out
     /tmp/ccDE0Mq0.s:4045   .text.usb_lld_stall_in:0000000000000000 $t
     /tmp/ccDE0Mq0.s:4053   .text.usb_lld_stall_in:0000000000000000 usb_lld_stall_in
     /tmp/ccDE0Mq0.s:4091   .text.usb_lld_clear_out:0000000000000000 $t
     /tmp/ccDE0Mq0.s:4099   .text.usb_lld_clear_out:0000000000000000 usb_lld_clear_out
     /tmp/ccDE0Mq0.s:4137   .text.usb_lld_clear_in:0000000000000000 $t
     /tmp/ccDE0Mq0.s:4145   .text.usb_lld_clear_in:0000000000000000 usb_lld_clear_in
     /tmp/ccDE0Mq0.s:4183   .rodata:0000000000000000 $d
     /tmp/ccDE0Mq0.s:4187   .text.usb_lld_pump:0000000000000000 $t
     /tmp/ccDE0Mq0.s:4352   .text.usb_lld_pump:0000000000000108 $d
     /tmp/ccDE0Mq0.s:4357   .rodata.__func__.9451:0000000000000000 $d
     /tmp/ccDE0Mq0.s:4363   .rodata.__func__.9457:0000000000000000 $d
     /tmp/ccDE0Mq0.s:4369   .rodata.__func__.7702:0000000000000000 $d
     /tmp/ccDE0Mq0.s:4375   .rodata.__func__.7535:0000000000000000 $d
                     .debug_frame:0000000000000010 $d

UNDEFINED SYMBOLS
_stats_start_measure_crit_thd
_dbg_check_lock
_dbg_check_unlock
_stats_stop_measure_crit_thd
chSysHalt
ch
_stats_start_measure_crit_isr
_dbg_check_lock_from_isr
_dbg_check_unlock_from_isr
_stats_stop_measure_crit_isr
chSchReadyI
chSysPolledDelayX
chThdSuspendS
chThdResumeI
_usb_ep0setup
_usb_ep0in
_usb_ep0out
_usb_reset
_usb_wakeup
_usb_suspend
_stats_increase_irq
_dbg_check_enter_isr
_dbg_check_leave_isr
_port_irq_epilogue
usbObjectInit
_thread_memfill
nvicEnableVector
chThdCreateI
chSchRescheduleS
nvicDisableVector
memcpy
