ARM GAS  /tmp/cc843xpW.s 			page 1


   1              		.cpu cortex-m4
   2              		.eabi_attribute 27, 1
   3              		.eabi_attribute 28, 1
   4              		.eabi_attribute 20, 1
   5              		.eabi_attribute 21, 1
   6              		.eabi_attribute 23, 3
   7              		.eabi_attribute 24, 1
   8              		.eabi_attribute 25, 1
   9              		.eabi_attribute 26, 1
  10              		.eabi_attribute 30, 6
  11              		.eabi_attribute 34, 1
  12              		.eabi_attribute 18, 4
  13              		.file	"chcond.c"
  14              		.text
  15              	.Ltext0:
  16              		.cfi_sections	.debug_frame
  17              		.section	.text.port_lock,"ax",%progbits
  18              		.align	1
  19              		.p2align 4,,15
  20              		.syntax unified
  21              		.thumb
  22              		.thumb_func
  23              		.fpu fpv4-sp-d16
  24              		.type	port_lock, %function
  25              	port_lock:
  26              	.LFB127:
  27              		.file 1 "../ChibiOS/os/rt/ports/ARMCMx/chcore_v7m.h"
  28              		.loc 1 456 0
  29              		.cfi_startproc
  30              		@ args = 0, pretend = 0, frame = 8
  31              		@ frame_needed = 0, uses_anonymous_args = 0
  32              		@ link register save eliminated.
  33 0000 82B0     		sub	sp, sp, #8
  34              		.cfi_def_cfa_offset 8
  35 0002 2023     		movs	r3, #32
  36 0004 0193     		str	r3, [sp, #4]
  37              	.LBB6:
  38              	.LBB7:
  39              		.file 2 "../ChibiOS/os/ext/CMSIS/include/core_cmFunc.h"
  40              		.loc 2 548 0
  41 0006 019B     		ldr	r3, [sp, #4]
  42              		.syntax unified
  43              	@ 548 "../ChibiOS/os/ext/CMSIS/include/core_cmFunc.h" 1
  44 0008 83F31188 		MSR basepri, r3
  45              	@ 0 "" 2
  46              		.thumb
  47              		.syntax unified
  48              	.LBE7:
  49              	.LBE6:
  50              		.loc 1 473 0
  51 000c 00BF     		nop
  52 000e 02B0     		add	sp, sp, #8
  53              		.cfi_def_cfa_offset 0
  54              		@ sp needed
  55 0010 7047     		bx	lr
  56              		.cfi_endproc
  57              	.LFE127:
ARM GAS  /tmp/cc843xpW.s 			page 2


  58              		.size	port_lock, .-port_lock
  59 0012 00BF     		.section	.text.port_unlock,"ax",%progbits
  60              		.align	1
  61              		.p2align 4,,15
  62              		.syntax unified
  63              		.thumb
  64              		.thumb_func
  65              		.fpu fpv4-sp-d16
  66              		.type	port_unlock, %function
  67              	port_unlock:
  68              	.LFB128:
  69              		.loc 1 480 0
  70              		.cfi_startproc
  71              		@ args = 0, pretend = 0, frame = 8
  72              		@ frame_needed = 0, uses_anonymous_args = 0
  73              		@ link register save eliminated.
  74 0000 82B0     		sub	sp, sp, #8
  75              		.cfi_def_cfa_offset 8
  76 0002 0023     		movs	r3, #0
  77 0004 0193     		str	r3, [sp, #4]
  78              	.LBB8:
  79              	.LBB9:
  80              		.loc 2 548 0
  81 0006 019B     		ldr	r3, [sp, #4]
  82              		.syntax unified
  83              	@ 548 "../ChibiOS/os/ext/CMSIS/include/core_cmFunc.h" 1
  84 0008 83F31188 		MSR basepri, r3
  85              	@ 0 "" 2
  86              		.thumb
  87              		.syntax unified
  88              	.LBE9:
  89              	.LBE8:
  90              		.loc 1 487 0
  91 000c 00BF     		nop
  92 000e 02B0     		add	sp, sp, #8
  93              		.cfi_def_cfa_offset 0
  94              		@ sp needed
  95 0010 7047     		bx	lr
  96              		.cfi_endproc
  97              	.LFE128:
  98              		.size	port_unlock, .-port_unlock
  99 0012 00BF     		.section	.text.queue_init,"ax",%progbits
 100              		.align	1
 101              		.p2align 4,,15
 102              		.syntax unified
 103              		.thumb
 104              		.thumb_func
 105              		.fpu fpv4-sp-d16
 106              		.type	queue_init, %function
 107              	queue_init:
 108              	.LFB139:
 109              		.file 3 "../ChibiOS/os/rt/include/chschd.h"
 110              		.loc 3 602 0
 111              		.cfi_startproc
 112              		@ args = 0, pretend = 0, frame = 8
 113              		@ frame_needed = 0, uses_anonymous_args = 0
 114              		@ link register save eliminated.
ARM GAS  /tmp/cc843xpW.s 			page 3


 115 0000 82B0     		sub	sp, sp, #8
 116              		.cfi_def_cfa_offset 8
 117 0002 0190     		str	r0, [sp, #4]
 118              		.loc 3 604 0
 119 0004 019B     		ldr	r3, [sp, #4]
 120 0006 019A     		ldr	r2, [sp, #4]
 121 0008 1A60     		str	r2, [r3]
 122              		.loc 3 605 0
 123 000a 019B     		ldr	r3, [sp, #4]
 124 000c 019A     		ldr	r2, [sp, #4]
 125 000e 5A60     		str	r2, [r3, #4]
 126              		.loc 3 606 0
 127 0010 00BF     		nop
 128 0012 02B0     		add	sp, sp, #8
 129              		.cfi_def_cfa_offset 0
 130              		@ sp needed
 131 0014 7047     		bx	lr
 132              		.cfi_endproc
 133              	.LFE139:
 134              		.size	queue_init, .-queue_init
 135              		.section	.text.queue_notempty,"ax",%progbits
 136              		.align	1
 137              		.p2align 4,,15
 138              		.syntax unified
 139              		.thumb
 140              		.thumb_func
 141              		.fpu fpv4-sp-d16
 142              		.type	queue_notempty, %function
 143              	queue_notempty:
 144              	.LFB141:
 145              		.loc 3 629 0
 146              		.cfi_startproc
 147              		@ args = 0, pretend = 0, frame = 8
 148              		@ frame_needed = 0, uses_anonymous_args = 0
 149              		@ link register save eliminated.
 150 0000 82B0     		sub	sp, sp, #8
 151              		.cfi_def_cfa_offset 8
 152 0002 0190     		str	r0, [sp, #4]
 153              		.loc 3 631 0
 154 0004 019B     		ldr	r3, [sp, #4]
 155 0006 1A68     		ldr	r2, [r3]
 156 0008 019B     		ldr	r3, [sp, #4]
 157 000a 9A42     		cmp	r2, r3
 158 000c 14BF     		ite	ne
 159 000e 0123     		movne	r3, #1
 160 0010 0023     		moveq	r3, #0
 161 0012 DBB2     		uxtb	r3, r3
 162              		.loc 3 632 0
 163 0014 1846     		mov	r0, r3
 164 0016 02B0     		add	sp, sp, #8
 165              		.cfi_def_cfa_offset 0
 166              		@ sp needed
 167 0018 7047     		bx	lr
 168              		.cfi_endproc
 169              	.LFE141:
 170              		.size	queue_notempty, .-queue_notempty
 171 001a 00BF     		.section	.text.queue_prio_insert,"ax",%progbits
ARM GAS  /tmp/cc843xpW.s 			page 4


 172              		.align	1
 173              		.p2align 4,,15
 174              		.syntax unified
 175              		.thumb
 176              		.thumb_func
 177              		.fpu fpv4-sp-d16
 178              		.type	queue_prio_insert, %function
 179              	queue_prio_insert:
 180              	.LFB144:
 181              		.loc 3 651 0
 182              		.cfi_startproc
 183              		@ args = 0, pretend = 0, frame = 16
 184              		@ frame_needed = 0, uses_anonymous_args = 0
 185              		@ link register save eliminated.
 186 0000 84B0     		sub	sp, sp, #16
 187              		.cfi_def_cfa_offset 16
 188 0002 0190     		str	r0, [sp, #4]
 189 0004 0091     		str	r1, [sp]
 190              		.loc 3 653 0
 191 0006 009B     		ldr	r3, [sp]
 192 0008 0393     		str	r3, [sp, #12]
 193              	.L8:
 194              		.loc 3 655 0 discriminator 2
 195 000a 039B     		ldr	r3, [sp, #12]
 196 000c 1B68     		ldr	r3, [r3]
 197 000e 0393     		str	r3, [sp, #12]
 198              		.loc 3 656 0 discriminator 2
 199 0010 039A     		ldr	r2, [sp, #12]
 200 0012 009B     		ldr	r3, [sp]
 201 0014 9A42     		cmp	r2, r3
 202 0016 05D0     		beq	.L7
 203              		.loc 3 656 0 is_stmt 0 discriminator 1
 204 0018 039B     		ldr	r3, [sp, #12]
 205 001a 9A68     		ldr	r2, [r3, #8]
 206 001c 019B     		ldr	r3, [sp, #4]
 207 001e 9B68     		ldr	r3, [r3, #8]
 208 0020 9A42     		cmp	r2, r3
 209 0022 F2D2     		bcs	.L8
 210              	.L7:
 211              		.loc 3 657 0 is_stmt 1
 212 0024 019B     		ldr	r3, [sp, #4]
 213 0026 039A     		ldr	r2, [sp, #12]
 214 0028 1A60     		str	r2, [r3]
 215              		.loc 3 658 0
 216 002a 039B     		ldr	r3, [sp, #12]
 217 002c 5A68     		ldr	r2, [r3, #4]
 218 002e 019B     		ldr	r3, [sp, #4]
 219 0030 5A60     		str	r2, [r3, #4]
 220              		.loc 3 659 0
 221 0032 019B     		ldr	r3, [sp, #4]
 222 0034 5B68     		ldr	r3, [r3, #4]
 223 0036 019A     		ldr	r2, [sp, #4]
 224 0038 1A60     		str	r2, [r3]
 225              		.loc 3 660 0
 226 003a 039B     		ldr	r3, [sp, #12]
 227 003c 019A     		ldr	r2, [sp, #4]
 228 003e 5A60     		str	r2, [r3, #4]
ARM GAS  /tmp/cc843xpW.s 			page 5


 229              		.loc 3 661 0
 230 0040 00BF     		nop
 231 0042 04B0     		add	sp, sp, #16
 232              		.cfi_def_cfa_offset 0
 233              		@ sp needed
 234 0044 7047     		bx	lr
 235              		.cfi_endproc
 236              	.LFE144:
 237              		.size	queue_prio_insert, .-queue_prio_insert
 238 0046 00BF     		.section	.text.queue_fifo_remove,"ax",%progbits
 239              		.align	1
 240              		.p2align 4,,15
 241              		.syntax unified
 242              		.thumb
 243              		.thumb_func
 244              		.fpu fpv4-sp-d16
 245              		.type	queue_fifo_remove, %function
 246              	queue_fifo_remove:
 247              	.LFB146:
 248              		.loc 3 671 0
 249              		.cfi_startproc
 250              		@ args = 0, pretend = 0, frame = 16
 251              		@ frame_needed = 0, uses_anonymous_args = 0
 252              		@ link register save eliminated.
 253 0000 84B0     		sub	sp, sp, #16
 254              		.cfi_def_cfa_offset 16
 255 0002 0190     		str	r0, [sp, #4]
 256              		.loc 3 672 0
 257 0004 019B     		ldr	r3, [sp, #4]
 258 0006 1B68     		ldr	r3, [r3]
 259 0008 0393     		str	r3, [sp, #12]
 260              		.loc 3 674 0
 261 000a 039B     		ldr	r3, [sp, #12]
 262 000c 1A68     		ldr	r2, [r3]
 263 000e 019B     		ldr	r3, [sp, #4]
 264 0010 1A60     		str	r2, [r3]
 265              		.loc 3 675 0
 266 0012 019B     		ldr	r3, [sp, #4]
 267 0014 1B68     		ldr	r3, [r3]
 268 0016 019A     		ldr	r2, [sp, #4]
 269 0018 5A60     		str	r2, [r3, #4]
 270              		.loc 3 677 0
 271 001a 039B     		ldr	r3, [sp, #12]
 272              		.loc 3 678 0
 273 001c 1846     		mov	r0, r3
 274 001e 04B0     		add	sp, sp, #16
 275              		.cfi_def_cfa_offset 0
 276              		@ sp needed
 277 0020 7047     		bx	lr
 278              		.cfi_endproc
 279              	.LFE146:
 280              		.size	queue_fifo_remove, .-queue_fifo_remove
 281 0022 00BF     		.section	.text.chSysLock,"ax",%progbits
 282              		.align	1
 283              		.p2align 4,,15
 284              		.syntax unified
 285              		.thumb
ARM GAS  /tmp/cc843xpW.s 			page 6


 286              		.thumb_func
 287              		.fpu fpv4-sp-d16
 288              		.type	chSysLock, %function
 289              	chSysLock:
 290              	.LFB156:
 291              		.file 4 "../ChibiOS/os/rt/include/chsys.h"
 292              		.loc 4 346 0
 293              		.cfi_startproc
 294              		@ args = 0, pretend = 0, frame = 0
 295              		@ frame_needed = 0, uses_anonymous_args = 0
 296 0000 08B5     		push	{r3, lr}
 297              		.cfi_def_cfa_offset 8
 298              		.cfi_offset 3, -8
 299              		.cfi_offset 14, -4
 300              		.loc 4 348 0
 301 0002 FFF7FEFF 		bl	port_lock
 302              		.loc 4 349 0
 303 0006 FFF7FEFF 		bl	_stats_start_measure_crit_thd
 304              		.loc 4 350 0
 305 000a FFF7FEFF 		bl	_dbg_check_lock
 306              		.loc 4 351 0
 307 000e 00BF     		nop
 308 0010 08BD     		pop	{r3, pc}
 309              		.cfi_endproc
 310              	.LFE156:
 311              		.size	chSysLock, .-chSysLock
 312 0012 00BF     		.section	.text.chSysUnlock,"ax",%progbits
 313              		.align	1
 314              		.p2align 4,,15
 315              		.syntax unified
 316              		.thumb
 317              		.thumb_func
 318              		.fpu fpv4-sp-d16
 319              		.type	chSysUnlock, %function
 320              	chSysUnlock:
 321              	.LFB157:
 322              		.loc 4 358 0
 323              		.cfi_startproc
 324              		@ args = 0, pretend = 0, frame = 0
 325              		@ frame_needed = 0, uses_anonymous_args = 0
 326 0000 08B5     		push	{r3, lr}
 327              		.cfi_def_cfa_offset 8
 328              		.cfi_offset 3, -8
 329              		.cfi_offset 14, -4
 330              		.loc 4 360 0
 331 0002 FFF7FEFF 		bl	_dbg_check_unlock
 332              		.loc 4 361 0
 333 0006 FFF7FEFF 		bl	_stats_stop_measure_crit_thd
 334              		.loc 4 367 0
 335 000a 0A4B     		ldr	r3, .L14
 336 000c 1B68     		ldr	r3, [r3]
 337 000e 094A     		ldr	r2, .L14
 338 0010 9342     		cmp	r3, r2
 339 0012 0AD0     		beq	.L13
 340              		.loc 4 367 0 is_stmt 0 discriminator 2
 341 0014 074B     		ldr	r3, .L14
 342 0016 9B69     		ldr	r3, [r3, #24]
ARM GAS  /tmp/cc843xpW.s 			page 7


 343 0018 9A68     		ldr	r2, [r3, #8]
 344 001a 064B     		ldr	r3, .L14
 345 001c 1B68     		ldr	r3, [r3]
 346 001e 9B68     		ldr	r3, [r3, #8]
 347 0020 9A42     		cmp	r2, r3
 348 0022 02D2     		bcs	.L13
 349              		.loc 4 367 0 discriminator 3
 350 0024 0448     		ldr	r0, .L14+4
 351 0026 FFF7FEFF 		bl	chSysHalt
 352              	.L13:
 353              		.loc 4 371 0 is_stmt 1
 354 002a FFF7FEFF 		bl	port_unlock
 355              		.loc 4 372 0
 356 002e 00BF     		nop
 357 0030 08BD     		pop	{r3, pc}
 358              	.L15:
 359 0032 00BF     		.align	2
 360              	.L14:
 361 0034 00000000 		.word	ch
 362 0038 00000000 		.word	__func__.7157
 363              		.cfi_endproc
 364              	.LFE157:
 365              		.size	chSysUnlock, .-chSysUnlock
 366              		.section	.text.chThdGetSelfX,"ax",%progbits
 367              		.align	1
 368              		.p2align 4,,15
 369              		.syntax unified
 370              		.thumb
 371              		.thumb_func
 372              		.fpu fpv4-sp-d16
 373              		.type	chThdGetSelfX, %function
 374              	chThdGetSelfX:
 375              	.LFB178:
 376              		.file 5 "../ChibiOS/os/rt/include/chthreads.h"
 377              		.loc 5 174 0
 378              		.cfi_startproc
 379              		@ args = 0, pretend = 0, frame = 0
 380              		@ frame_needed = 0, uses_anonymous_args = 0
 381              		@ link register save eliminated.
 382              		.loc 5 176 0
 383 0000 014B     		ldr	r3, .L18
 384 0002 9B69     		ldr	r3, [r3, #24]
 385              		.loc 5 177 0
 386 0004 1846     		mov	r0, r3
 387 0006 7047     		bx	lr
 388              	.L19:
 389              		.align	2
 390              	.L18:
 391 0008 00000000 		.word	ch
 392              		.cfi_endproc
 393              	.LFE178:
 394              		.size	chThdGetSelfX, .-chThdGetSelfX
 395              		.section	.text.chMtxGetNextMutexS,"ax",%progbits
 396              		.align	1
 397              		.p2align 4,,15
 398              		.syntax unified
 399              		.thumb
ARM GAS  /tmp/cc843xpW.s 			page 8


 400              		.thumb_func
 401              		.fpu fpv4-sp-d16
 402              		.type	chMtxGetNextMutexS, %function
 403              	chMtxGetNextMutexS:
 404              	.LFB204:
 405              		.file 6 "../ChibiOS/os/rt/include/chmtx.h"
 406              		.loc 6 143 0
 407              		.cfi_startproc
 408              		@ args = 0, pretend = 0, frame = 0
 409              		@ frame_needed = 0, uses_anonymous_args = 0
 410 0000 08B5     		push	{r3, lr}
 411              		.cfi_def_cfa_offset 8
 412              		.cfi_offset 3, -8
 413              		.cfi_offset 14, -4
 414              		.loc 6 145 0
 415 0002 FFF7FEFF 		bl	chThdGetSelfX
 416 0006 0346     		mov	r3, r0
 417 0008 DB6B     		ldr	r3, [r3, #60]
 418              		.loc 6 146 0
 419 000a 1846     		mov	r0, r3
 420 000c 08BD     		pop	{r3, pc}
 421              		.cfi_endproc
 422              	.LFE204:
 423              		.size	chMtxGetNextMutexS, .-chMtxGetNextMutexS
 424 000e 00BF     		.section	.text.chCondObjectInit,"ax",%progbits
 425              		.align	1
 426              		.p2align 4,,15
 427              		.global	chCondObjectInit
 428              		.syntax unified
 429              		.thumb
 430              		.thumb_func
 431              		.fpu fpv4-sp-d16
 432              		.type	chCondObjectInit, %function
 433              	chCondObjectInit:
 434              	.LFB231:
 435              		.file 7 "../ChibiOS/os/rt/src/chcond.c"
 436              		.loc 7 75 0
 437              		.cfi_startproc
 438              		@ args = 0, pretend = 0, frame = 8
 439              		@ frame_needed = 0, uses_anonymous_args = 0
 440 0000 00B5     		push	{lr}
 441              		.cfi_def_cfa_offset 4
 442              		.cfi_offset 14, -4
 443 0002 83B0     		sub	sp, sp, #12
 444              		.cfi_def_cfa_offset 16
 445 0004 0190     		str	r0, [sp, #4]
 446              		.loc 7 77 0
 447 0006 019B     		ldr	r3, [sp, #4]
 448 0008 002B     		cmp	r3, #0
 449 000a 02D1     		bne	.L23
 450              		.loc 7 77 0 is_stmt 0 discriminator 2
 451 000c 0548     		ldr	r0, .L24
 452 000e FFF7FEFF 		bl	chSysHalt
 453              	.L23:
 454              		.loc 7 79 0 is_stmt 1
 455 0012 019B     		ldr	r3, [sp, #4]
 456 0014 1846     		mov	r0, r3
ARM GAS  /tmp/cc843xpW.s 			page 9


 457 0016 FFF7FEFF 		bl	queue_init
 458              		.loc 7 80 0
 459 001a 00BF     		nop
 460 001c 03B0     		add	sp, sp, #12
 461              		.cfi_def_cfa_offset 4
 462              		@ sp needed
 463 001e 5DF804FB 		ldr	pc, [sp], #4
 464              	.L25:
 465 0022 00BF     		.align	2
 466              	.L24:
 467 0024 00000000 		.word	__func__.7857
 468              		.cfi_endproc
 469              	.LFE231:
 470              		.size	chCondObjectInit, .-chCondObjectInit
 471              		.section	.text.chCondSignal,"ax",%progbits
 472              		.align	1
 473              		.p2align 4,,15
 474              		.global	chCondSignal
 475              		.syntax unified
 476              		.thumb
 477              		.thumb_func
 478              		.fpu fpv4-sp-d16
 479              		.type	chCondSignal, %function
 480              	chCondSignal:
 481              	.LFB232:
 482              		.loc 7 89 0
 483              		.cfi_startproc
 484              		@ args = 0, pretend = 0, frame = 8
 485              		@ frame_needed = 0, uses_anonymous_args = 0
 486 0000 00B5     		push	{lr}
 487              		.cfi_def_cfa_offset 4
 488              		.cfi_offset 14, -4
 489 0002 83B0     		sub	sp, sp, #12
 490              		.cfi_def_cfa_offset 16
 491 0004 0190     		str	r0, [sp, #4]
 492              		.loc 7 91 0
 493 0006 019B     		ldr	r3, [sp, #4]
 494 0008 002B     		cmp	r3, #0
 495 000a 02D1     		bne	.L27
 496              		.loc 7 91 0 is_stmt 0 discriminator 2
 497 000c 0D48     		ldr	r0, .L29
 498 000e FFF7FEFF 		bl	chSysHalt
 499              	.L27:
 500              		.loc 7 93 0 is_stmt 1
 501 0012 FFF7FEFF 		bl	chSysLock
 502              		.loc 7 94 0
 503 0016 019B     		ldr	r3, [sp, #4]
 504 0018 1846     		mov	r0, r3
 505 001a FFF7FEFF 		bl	queue_notempty
 506 001e 0346     		mov	r3, r0
 507 0020 002B     		cmp	r3, #0
 508 0022 08D0     		beq	.L28
 509              		.loc 7 95 0
 510 0024 019B     		ldr	r3, [sp, #4]
 511 0026 1846     		mov	r0, r3
 512 0028 FFF7FEFF 		bl	queue_fifo_remove
 513 002c 0346     		mov	r3, r0
ARM GAS  /tmp/cc843xpW.s 			page 10


 514 002e 0021     		movs	r1, #0
 515 0030 1846     		mov	r0, r3
 516 0032 FFF7FEFF 		bl	chSchWakeupS
 517              	.L28:
 518              		.loc 7 97 0
 519 0036 FFF7FEFF 		bl	chSysUnlock
 520              		.loc 7 98 0
 521 003a 00BF     		nop
 522 003c 03B0     		add	sp, sp, #12
 523              		.cfi_def_cfa_offset 4
 524              		@ sp needed
 525 003e 5DF804FB 		ldr	pc, [sp], #4
 526              	.L30:
 527 0042 00BF     		.align	2
 528              	.L29:
 529 0044 00000000 		.word	__func__.7861
 530              		.cfi_endproc
 531              	.LFE232:
 532              		.size	chCondSignal, .-chCondSignal
 533              		.section	.text.chCondSignalI,"ax",%progbits
 534              		.align	1
 535              		.p2align 4,,15
 536              		.global	chCondSignalI
 537              		.syntax unified
 538              		.thumb
 539              		.thumb_func
 540              		.fpu fpv4-sp-d16
 541              		.type	chCondSignalI, %function
 542              	chCondSignalI:
 543              	.LFB233:
 544              		.loc 7 111 0
 545              		.cfi_startproc
 546              		@ args = 0, pretend = 0, frame = 16
 547              		@ frame_needed = 0, uses_anonymous_args = 0
 548 0000 00B5     		push	{lr}
 549              		.cfi_def_cfa_offset 4
 550              		.cfi_offset 14, -4
 551 0002 85B0     		sub	sp, sp, #20
 552              		.cfi_def_cfa_offset 24
 553 0004 0190     		str	r0, [sp, #4]
 554              		.loc 7 113 0
 555 0006 FFF7FEFF 		bl	chDbgCheckClassI
 556              		.loc 7 114 0
 557 000a 019B     		ldr	r3, [sp, #4]
 558 000c 002B     		cmp	r3, #0
 559 000e 02D1     		bne	.L32
 560              		.loc 7 114 0 is_stmt 0 discriminator 2
 561 0010 0C48     		ldr	r0, .L35
 562 0012 FFF7FEFF 		bl	chSysHalt
 563              	.L32:
 564              		.loc 7 116 0 is_stmt 1
 565 0016 019B     		ldr	r3, [sp, #4]
 566 0018 1846     		mov	r0, r3
 567 001a FFF7FEFF 		bl	queue_notempty
 568 001e 0346     		mov	r3, r0
 569 0020 002B     		cmp	r3, #0
 570 0022 0AD0     		beq	.L34
ARM GAS  /tmp/cc843xpW.s 			page 11


 571              	.LBB10:
 572              		.loc 7 117 0
 573 0024 019B     		ldr	r3, [sp, #4]
 574 0026 1846     		mov	r0, r3
 575 0028 FFF7FEFF 		bl	queue_fifo_remove
 576 002c 0390     		str	r0, [sp, #12]
 577              		.loc 7 118 0
 578 002e 039B     		ldr	r3, [sp, #12]
 579 0030 0022     		movs	r2, #0
 580 0032 5A62     		str	r2, [r3, #36]
 581              		.loc 7 119 0
 582 0034 0398     		ldr	r0, [sp, #12]
 583 0036 FFF7FEFF 		bl	chSchReadyI
 584              	.L34:
 585              	.LBE10:
 586              		.loc 7 121 0
 587 003a 00BF     		nop
 588 003c 05B0     		add	sp, sp, #20
 589              		.cfi_def_cfa_offset 4
 590              		@ sp needed
 591 003e 5DF804FB 		ldr	pc, [sp], #4
 592              	.L36:
 593 0042 00BF     		.align	2
 594              	.L35:
 595 0044 00000000 		.word	__func__.7865
 596              		.cfi_endproc
 597              	.LFE233:
 598              		.size	chCondSignalI, .-chCondSignalI
 599              		.section	.text.chCondBroadcast,"ax",%progbits
 600              		.align	1
 601              		.p2align 4,,15
 602              		.global	chCondBroadcast
 603              		.syntax unified
 604              		.thumb
 605              		.thumb_func
 606              		.fpu fpv4-sp-d16
 607              		.type	chCondBroadcast, %function
 608              	chCondBroadcast:
 609              	.LFB234:
 610              		.loc 7 130 0
 611              		.cfi_startproc
 612              		@ args = 0, pretend = 0, frame = 8
 613              		@ frame_needed = 0, uses_anonymous_args = 0
 614 0000 00B5     		push	{lr}
 615              		.cfi_def_cfa_offset 4
 616              		.cfi_offset 14, -4
 617 0002 83B0     		sub	sp, sp, #12
 618              		.cfi_def_cfa_offset 16
 619 0004 0190     		str	r0, [sp, #4]
 620              		.loc 7 132 0
 621 0006 FFF7FEFF 		bl	chSysLock
 622              		.loc 7 133 0
 623 000a 0198     		ldr	r0, [sp, #4]
 624 000c FFF7FEFF 		bl	chCondBroadcastI
 625              		.loc 7 134 0
 626 0010 FFF7FEFF 		bl	chSchRescheduleS
 627              		.loc 7 135 0
ARM GAS  /tmp/cc843xpW.s 			page 12


 628 0014 FFF7FEFF 		bl	chSysUnlock
 629              		.loc 7 136 0
 630 0018 00BF     		nop
 631 001a 03B0     		add	sp, sp, #12
 632              		.cfi_def_cfa_offset 4
 633              		@ sp needed
 634 001c 5DF804FB 		ldr	pc, [sp], #4
 635              		.cfi_endproc
 636              	.LFE234:
 637              		.size	chCondBroadcast, .-chCondBroadcast
 638              		.section	.text.chCondBroadcastI,"ax",%progbits
 639              		.align	1
 640              		.p2align 4,,15
 641              		.global	chCondBroadcastI
 642              		.syntax unified
 643              		.thumb
 644              		.thumb_func
 645              		.fpu fpv4-sp-d16
 646              		.type	chCondBroadcastI, %function
 647              	chCondBroadcastI:
 648              	.LFB235:
 649              		.loc 7 149 0
 650              		.cfi_startproc
 651              		@ args = 0, pretend = 0, frame = 8
 652              		@ frame_needed = 0, uses_anonymous_args = 0
 653 0000 00B5     		push	{lr}
 654              		.cfi_def_cfa_offset 4
 655              		.cfi_offset 14, -4
 656 0002 83B0     		sub	sp, sp, #12
 657              		.cfi_def_cfa_offset 16
 658 0004 0190     		str	r0, [sp, #4]
 659              		.loc 7 151 0
 660 0006 FFF7FEFF 		bl	chDbgCheckClassI
 661              		.loc 7 152 0
 662 000a 019B     		ldr	r3, [sp, #4]
 663 000c 002B     		cmp	r3, #0
 664 000e 0FD1     		bne	.L40
 665              		.loc 7 152 0 is_stmt 0 discriminator 2
 666 0010 0D48     		ldr	r0, .L42
 667 0012 FFF7FEFF 		bl	chSysHalt
 668              		.loc 7 157 0 is_stmt 1 discriminator 2
 669 0016 0BE0     		b	.L40
 670              	.L41:
 671              		.loc 7 158 0
 672 0018 019B     		ldr	r3, [sp, #4]
 673 001a 1846     		mov	r0, r3
 674 001c FFF7FEFF 		bl	queue_fifo_remove
 675 0020 0346     		mov	r3, r0
 676 0022 1846     		mov	r0, r3
 677 0024 FFF7FEFF 		bl	chSchReadyI
 678 0028 0246     		mov	r2, r0
 679 002a 6FF00103 		mvn	r3, #1
 680 002e 5362     		str	r3, [r2, #36]
 681              	.L40:
 682              		.loc 7 157 0
 683 0030 019B     		ldr	r3, [sp, #4]
 684 0032 1846     		mov	r0, r3
ARM GAS  /tmp/cc843xpW.s 			page 13


 685 0034 FFF7FEFF 		bl	queue_notempty
 686 0038 0346     		mov	r3, r0
 687 003a 002B     		cmp	r3, #0
 688 003c ECD1     		bne	.L41
 689              		.loc 7 160 0
 690 003e 00BF     		nop
 691 0040 03B0     		add	sp, sp, #12
 692              		.cfi_def_cfa_offset 4
 693              		@ sp needed
 694 0042 5DF804FB 		ldr	pc, [sp], #4
 695              	.L43:
 696 0046 00BF     		.align	2
 697              	.L42:
 698 0048 00000000 		.word	__func__.7873
 699              		.cfi_endproc
 700              	.LFE235:
 701              		.size	chCondBroadcastI, .-chCondBroadcastI
 702              		.section	.text.chCondWait,"ax",%progbits
 703              		.align	1
 704              		.p2align 4,,15
 705              		.global	chCondWait
 706              		.syntax unified
 707              		.thumb
 708              		.thumb_func
 709              		.fpu fpv4-sp-d16
 710              		.type	chCondWait, %function
 711              	chCondWait:
 712              	.LFB236:
 713              		.loc 7 179 0
 714              		.cfi_startproc
 715              		@ args = 0, pretend = 0, frame = 16
 716              		@ frame_needed = 0, uses_anonymous_args = 0
 717 0000 00B5     		push	{lr}
 718              		.cfi_def_cfa_offset 4
 719              		.cfi_offset 14, -4
 720 0002 85B0     		sub	sp, sp, #20
 721              		.cfi_def_cfa_offset 24
 722 0004 0190     		str	r0, [sp, #4]
 723              		.loc 7 182 0
 724 0006 FFF7FEFF 		bl	chSysLock
 725              		.loc 7 183 0
 726 000a 0198     		ldr	r0, [sp, #4]
 727 000c FFF7FEFF 		bl	chCondWaitS
 728 0010 0390     		str	r0, [sp, #12]
 729              		.loc 7 184 0
 730 0012 FFF7FEFF 		bl	chSysUnlock
 731              		.loc 7 185 0
 732 0016 039B     		ldr	r3, [sp, #12]
 733              		.loc 7 186 0
 734 0018 1846     		mov	r0, r3
 735 001a 05B0     		add	sp, sp, #20
 736              		.cfi_def_cfa_offset 4
 737              		@ sp needed
 738 001c 5DF804FB 		ldr	pc, [sp], #4
 739              		.cfi_endproc
 740              	.LFE236:
 741              		.size	chCondWait, .-chCondWait
ARM GAS  /tmp/cc843xpW.s 			page 14


 742              		.section	.text.chCondWaitS,"ax",%progbits
 743              		.align	1
 744              		.p2align 4,,15
 745              		.global	chCondWaitS
 746              		.syntax unified
 747              		.thumb
 748              		.thumb_func
 749              		.fpu fpv4-sp-d16
 750              		.type	chCondWaitS, %function
 751              	chCondWaitS:
 752              	.LFB237:
 753              		.loc 7 205 0
 754              		.cfi_startproc
 755              		@ args = 0, pretend = 0, frame = 24
 756              		@ frame_needed = 0, uses_anonymous_args = 0
 757 0000 00B5     		push	{lr}
 758              		.cfi_def_cfa_offset 4
 759              		.cfi_offset 14, -4
 760 0002 87B0     		sub	sp, sp, #28
 761              		.cfi_def_cfa_offset 32
 762 0004 0190     		str	r0, [sp, #4]
 763              		.loc 7 206 0
 764 0006 174B     		ldr	r3, .L51
 765 0008 9B69     		ldr	r3, [r3, #24]
 766 000a 0593     		str	r3, [sp, #20]
 767              		.loc 7 210 0
 768 000c FFF7FEFF 		bl	chDbgCheckClassS
 769              		.loc 7 211 0
 770 0010 019B     		ldr	r3, [sp, #4]
 771 0012 002B     		cmp	r3, #0
 772 0014 02D1     		bne	.L50
 773              		.loc 7 211 0 is_stmt 0 discriminator 2
 774 0016 1448     		ldr	r0, .L51+4
 775 0018 FFF7FEFF 		bl	chSysHalt
 776              	.L50:
 777              		.loc 7 212 0 is_stmt 1 discriminator 1
 778 001c 059B     		ldr	r3, [sp, #20]
 779 001e DB6B     		ldr	r3, [r3, #60]
 780 0020 002B     		cmp	r3, #0
 781 0022 02D1     		bne	.L48
 782              		.loc 7 212 0 is_stmt 0 discriminator 2
 783 0024 1048     		ldr	r0, .L51+4
 784 0026 FFF7FEFF 		bl	chSysHalt
 785              	.L48:
 786              		.loc 7 215 0 is_stmt 1
 787 002a FFF7FEFF 		bl	chMtxGetNextMutexS
 788 002e 0490     		str	r0, [sp, #16]
 789              		.loc 7 216 0
 790 0030 0498     		ldr	r0, [sp, #16]
 791 0032 FFF7FEFF 		bl	chMtxUnlockS
 792              		.loc 7 220 0
 793 0036 059B     		ldr	r3, [sp, #20]
 794 0038 019A     		ldr	r2, [sp, #4]
 795 003a 5A62     		str	r2, [r3, #36]
 796              		.loc 7 221 0
 797 003c 019B     		ldr	r3, [sp, #4]
 798 003e 1946     		mov	r1, r3
ARM GAS  /tmp/cc843xpW.s 			page 15


 799 0040 0598     		ldr	r0, [sp, #20]
 800 0042 FFF7FEFF 		bl	queue_prio_insert
 801              		.loc 7 222 0
 802 0046 0720     		movs	r0, #7
 803 0048 FFF7FEFF 		bl	chSchGoSleepS
 804              		.loc 7 223 0
 805 004c 059B     		ldr	r3, [sp, #20]
 806 004e 5B6A     		ldr	r3, [r3, #36]
 807 0050 0393     		str	r3, [sp, #12]
 808              		.loc 7 224 0
 809 0052 0498     		ldr	r0, [sp, #16]
 810 0054 FFF7FEFF 		bl	chMtxLockS
 811              		.loc 7 226 0
 812 0058 039B     		ldr	r3, [sp, #12]
 813              		.loc 7 227 0
 814 005a 1846     		mov	r0, r3
 815 005c 07B0     		add	sp, sp, #28
 816              		.cfi_def_cfa_offset 4
 817              		@ sp needed
 818 005e 5DF804FB 		ldr	pc, [sp], #4
 819              	.L52:
 820 0062 00BF     		.align	2
 821              	.L51:
 822 0064 00000000 		.word	ch
 823 0068 00000000 		.word	__func__.7887
 824              		.cfi_endproc
 825              	.LFE237:
 826              		.size	chCondWaitS, .-chCondWaitS
 827              		.section	.text.chCondWaitTimeout,"ax",%progbits
 828              		.align	1
 829              		.p2align 4,,15
 830              		.global	chCondWaitTimeout
 831              		.syntax unified
 832              		.thumb
 833              		.thumb_func
 834              		.fpu fpv4-sp-d16
 835              		.type	chCondWaitTimeout, %function
 836              	chCondWaitTimeout:
 837              	.LFB238:
 838              		.loc 7 258 0
 839              		.cfi_startproc
 840              		@ args = 0, pretend = 0, frame = 16
 841              		@ frame_needed = 0, uses_anonymous_args = 0
 842 0000 00B5     		push	{lr}
 843              		.cfi_def_cfa_offset 4
 844              		.cfi_offset 14, -4
 845 0002 85B0     		sub	sp, sp, #20
 846              		.cfi_def_cfa_offset 24
 847 0004 0190     		str	r0, [sp, #4]
 848 0006 0091     		str	r1, [sp]
 849              		.loc 7 261 0
 850 0008 FFF7FEFF 		bl	chSysLock
 851              		.loc 7 262 0
 852 000c 0099     		ldr	r1, [sp]
 853 000e 0198     		ldr	r0, [sp, #4]
 854 0010 FFF7FEFF 		bl	chCondWaitTimeoutS
 855 0014 0390     		str	r0, [sp, #12]
ARM GAS  /tmp/cc843xpW.s 			page 16


 856              		.loc 7 263 0
 857 0016 FFF7FEFF 		bl	chSysUnlock
 858              		.loc 7 265 0
 859 001a 039B     		ldr	r3, [sp, #12]
 860              		.loc 7 266 0
 861 001c 1846     		mov	r0, r3
 862 001e 05B0     		add	sp, sp, #20
 863              		.cfi_def_cfa_offset 4
 864              		@ sp needed
 865 0020 5DF804FB 		ldr	pc, [sp], #4
 866              		.cfi_endproc
 867              	.LFE238:
 868              		.size	chCondWaitTimeout, .-chCondWaitTimeout
 869              		.section	.text.chCondWaitTimeoutS,"ax",%progbits
 870              		.align	1
 871              		.p2align 4,,15
 872              		.global	chCondWaitTimeoutS
 873              		.syntax unified
 874              		.thumb
 875              		.thumb_func
 876              		.fpu fpv4-sp-d16
 877              		.type	chCondWaitTimeoutS, %function
 878              	chCondWaitTimeoutS:
 879              	.LFB239:
 880              		.loc 7 296 0
 881              		.cfi_startproc
 882              		@ args = 0, pretend = 0, frame = 16
 883              		@ frame_needed = 0, uses_anonymous_args = 0
 884 0000 00B5     		push	{lr}
 885              		.cfi_def_cfa_offset 4
 886              		.cfi_offset 14, -4
 887 0002 85B0     		sub	sp, sp, #20
 888              		.cfi_def_cfa_offset 24
 889 0004 0190     		str	r0, [sp, #4]
 890 0006 0091     		str	r1, [sp]
 891              		.loc 7 300 0
 892 0008 FFF7FEFF 		bl	chDbgCheckClassS
 893              		.loc 7 301 0
 894 000c 019B     		ldr	r3, [sp, #4]
 895 000e 002B     		cmp	r3, #0
 896 0010 02D0     		beq	.L56
 897              		.loc 7 301 0 is_stmt 0 discriminator 3
 898 0012 009B     		ldr	r3, [sp]
 899 0014 002B     		cmp	r3, #0
 900 0016 02D1     		bne	.L61
 901              	.L56:
 902              		.loc 7 301 0 discriminator 4
 903 0018 1648     		ldr	r0, .L62
 904 001a FFF7FEFF 		bl	chSysHalt
 905              	.L61:
 906              		.loc 7 302 0 is_stmt 1 discriminator 1
 907 001e 164B     		ldr	r3, .L62+4
 908 0020 9B69     		ldr	r3, [r3, #24]
 909 0022 DB6B     		ldr	r3, [r3, #60]
 910 0024 002B     		cmp	r3, #0
 911 0026 02D1     		bne	.L58
 912              		.loc 7 302 0 is_stmt 0 discriminator 2
ARM GAS  /tmp/cc843xpW.s 			page 17


 913 0028 1248     		ldr	r0, .L62
 914 002a FFF7FEFF 		bl	chSysHalt
 915              	.L58:
 916              		.loc 7 305 0 is_stmt 1
 917 002e FFF7FEFF 		bl	chMtxGetNextMutexS
 918 0032 0390     		str	r0, [sp, #12]
 919              		.loc 7 306 0
 920 0034 0398     		ldr	r0, [sp, #12]
 921 0036 FFF7FEFF 		bl	chMtxUnlockS
 922              		.loc 7 310 0
 923 003a 0F4B     		ldr	r3, .L62+4
 924 003c 9B69     		ldr	r3, [r3, #24]
 925 003e 019A     		ldr	r2, [sp, #4]
 926 0040 5A62     		str	r2, [r3, #36]
 927              		.loc 7 311 0
 928 0042 0D4B     		ldr	r3, .L62+4
 929 0044 9B69     		ldr	r3, [r3, #24]
 930 0046 019A     		ldr	r2, [sp, #4]
 931 0048 1146     		mov	r1, r2
 932 004a 1846     		mov	r0, r3
 933 004c FFF7FEFF 		bl	queue_prio_insert
 934              		.loc 7 312 0
 935 0050 0099     		ldr	r1, [sp]
 936 0052 0720     		movs	r0, #7
 937 0054 FFF7FEFF 		bl	chSchGoSleepTimeoutS
 938 0058 0290     		str	r0, [sp, #8]
 939              		.loc 7 313 0
 940 005a 029B     		ldr	r3, [sp, #8]
 941 005c B3F1FF3F 		cmp	r3, #-1
 942 0060 02D0     		beq	.L59
 943              		.loc 7 314 0
 944 0062 0398     		ldr	r0, [sp, #12]
 945 0064 FFF7FEFF 		bl	chMtxLockS
 946              	.L59:
 947              		.loc 7 317 0
 948 0068 029B     		ldr	r3, [sp, #8]
 949              		.loc 7 318 0
 950 006a 1846     		mov	r0, r3
 951 006c 05B0     		add	sp, sp, #20
 952              		.cfi_def_cfa_offset 4
 953              		@ sp needed
 954 006e 5DF804FB 		ldr	pc, [sp], #4
 955              	.L63:
 956 0072 00BF     		.align	2
 957              	.L62:
 958 0074 00000000 		.word	__func__.7899
 959 0078 00000000 		.word	ch
 960              		.cfi_endproc
 961              	.LFE239:
 962              		.size	chCondWaitTimeoutS, .-chCondWaitTimeoutS
 963              		.section	.rodata.__func__.7857,"a",%progbits
 964              		.align	2
 965              		.type	__func__.7857, %object
 966              		.size	__func__.7857, 17
 967              	__func__.7857:
 968 0000 6368436F 		.ascii	"chCondObjectInit\000"
 968      6E644F62 
ARM GAS  /tmp/cc843xpW.s 			page 18


 968      6A656374 
 968      496E6974 
 968      00
 969              		.section	.rodata.__func__.7861,"a",%progbits
 970              		.align	2
 971              		.type	__func__.7861, %object
 972              		.size	__func__.7861, 13
 973              	__func__.7861:
 974 0000 6368436F 		.ascii	"chCondSignal\000"
 974      6E645369 
 974      676E616C 
 974      00
 975              		.section	.rodata.__func__.7157,"a",%progbits
 976              		.align	2
 977              		.type	__func__.7157, %object
 978              		.size	__func__.7157, 12
 979              	__func__.7157:
 980 0000 63685379 		.ascii	"chSysUnlock\000"
 980      73556E6C 
 980      6F636B00 
 981              		.section	.rodata.__func__.7865,"a",%progbits
 982              		.align	2
 983              		.type	__func__.7865, %object
 984              		.size	__func__.7865, 14
 985              	__func__.7865:
 986 0000 6368436F 		.ascii	"chCondSignalI\000"
 986      6E645369 
 986      676E616C 
 986      4900
 987              		.section	.rodata.__func__.7873,"a",%progbits
 988              		.align	2
 989              		.type	__func__.7873, %object
 990              		.size	__func__.7873, 17
 991              	__func__.7873:
 992 0000 6368436F 		.ascii	"chCondBroadcastI\000"
 992      6E644272 
 992      6F616463 
 992      61737449 
 992      00
 993              		.section	.rodata.__func__.7887,"a",%progbits
 994              		.align	2
 995              		.type	__func__.7887, %object
 996              		.size	__func__.7887, 12
 997              	__func__.7887:
 998 0000 6368436F 		.ascii	"chCondWaitS\000"
 998      6E645761 
 998      69745300 
 999              		.section	.rodata.__func__.7899,"a",%progbits
 1000              		.align	2
 1001              		.type	__func__.7899, %object
 1002              		.size	__func__.7899, 19
 1003              	__func__.7899:
 1004 0000 6368436F 		.ascii	"chCondWaitTimeoutS\000"
 1004      6E645761 
 1004      69745469 
 1004      6D656F75 
 1004      745300
ARM GAS  /tmp/cc843xpW.s 			page 19


 1005              		.text
 1006              	.Letext0:
 1007              		.file 8 "/usr/arm-none-eabi/include/machine/_default_types.h"
 1008              		.file 9 "/usr/arm-none-eabi/include/sys/_stdint.h"
 1009              		.file 10 "../ChibiOS/os/rt/ports/ARMCMx/compilers/GCC/chtypes.h"
 1010              		.file 11 "../ChibiOS/os/rt/include/chsystypes.h"
 1011              		.file 12 "../ChibiOS/os/ext/CMSIS/include/core_cm4.h"
 1012              		.file 13 "../ChibiOS/os/ext/CMSIS/ST/STM32F4xx/system_stm32f4xx.h"
 1013              		.file 14 "../ChibiOS/os/rt/ports/ARMCMx/chcore.h"
 1014              		.file 15 "../ChibiOS/os/rt/include/chtm.h"
 1015              		.file 16 "../ChibiOS/os/rt/include/chstats.h"
 1016              		.file 17 "../ChibiOS/os/rt/include/chsem.h"
 1017              		.file 18 "../ChibiOS/os/rt/include/chregistry.h"
 1018              		.file 19 "../ChibiOS/os/rt/include/chcond.h"
 1019              		.section	.debug_info,"",%progbits
 1020              	.Ldebug_info0:
 1021 0000 B30D0000 		.4byte	0xdb3
 1022 0004 0400     		.2byte	0x4
 1023 0006 00000000 		.4byte	.Ldebug_abbrev0
 1024 000a 04       		.byte	0x4
 1025 000b 01       		.uleb128 0x1
 1026 000c 0E020000 		.4byte	.LASF167
 1027 0010 0C       		.byte	0xc
 1028 0011 36010000 		.4byte	.LASF168
 1029 0015 E8030000 		.4byte	.LASF169
 1030 0019 00000000 		.4byte	.Ldebug_ranges0+0
 1031 001d 00000000 		.4byte	0
 1032 0021 00000000 		.4byte	.Ldebug_line0
 1033 0025 02       		.uleb128 0x2
 1034 0026 04       		.byte	0x4
 1035 0027 05       		.byte	0x5
 1036 0028 696E7400 		.ascii	"int\000"
 1037 002c 03       		.uleb128 0x3
 1038 002d 04       		.byte	0x4
 1039 002e 07       		.byte	0x7
 1040 002f BA030000 		.4byte	.LASF0
 1041 0033 03       		.uleb128 0x3
 1042 0034 08       		.byte	0x8
 1043 0035 05       		.byte	0x5
 1044 0036 68010000 		.4byte	.LASF1
 1045 003a 03       		.uleb128 0x3
 1046 003b 08       		.byte	0x8
 1047 003c 04       		.byte	0x4
 1048 003d 41030000 		.4byte	.LASF2
 1049 0041 03       		.uleb128 0x3
 1050 0042 01       		.byte	0x1
 1051 0043 06       		.byte	0x6
 1052 0044 76010000 		.4byte	.LASF3
 1053 0048 04       		.uleb128 0x4
 1054 0049 4C000000 		.4byte	.LASF6
 1055 004d 08       		.byte	0x8
 1056 004e 2B       		.byte	0x2b
 1057 004f 53000000 		.4byte	0x53
 1058 0053 03       		.uleb128 0x3
 1059 0054 01       		.byte	0x1
 1060 0055 08       		.byte	0x8
 1061 0056 20060000 		.4byte	.LASF4
ARM GAS  /tmp/cc843xpW.s 			page 20


 1062 005a 03       		.uleb128 0x3
 1063 005b 02       		.byte	0x2
 1064 005c 05       		.byte	0x5
 1065 005d 38060000 		.4byte	.LASF5
 1066 0061 04       		.uleb128 0x4
 1067 0062 45070000 		.4byte	.LASF7
 1068 0066 08       		.byte	0x8
 1069 0067 39       		.byte	0x39
 1070 0068 6C000000 		.4byte	0x6c
 1071 006c 03       		.uleb128 0x3
 1072 006d 02       		.byte	0x2
 1073 006e 07       		.byte	0x7
 1074 006f 5C040000 		.4byte	.LASF8
 1075 0073 04       		.uleb128 0x4
 1076 0074 D7040000 		.4byte	.LASF9
 1077 0078 08       		.byte	0x8
 1078 0079 4D       		.byte	0x4d
 1079 007a 7E000000 		.4byte	0x7e
 1080 007e 03       		.uleb128 0x3
 1081 007f 04       		.byte	0x4
 1082 0080 05       		.byte	0x5
 1083 0081 E1010000 		.4byte	.LASF10
 1084 0085 04       		.uleb128 0x4
 1085 0086 96070000 		.4byte	.LASF11
 1086 008a 08       		.byte	0x8
 1087 008b 4F       		.byte	0x4f
 1088 008c 90000000 		.4byte	0x90
 1089 0090 03       		.uleb128 0x3
 1090 0091 04       		.byte	0x4
 1091 0092 07       		.byte	0x7
 1092 0093 27070000 		.4byte	.LASF12
 1093 0097 04       		.uleb128 0x4
 1094 0098 BC050000 		.4byte	.LASF13
 1095 009c 08       		.byte	0x8
 1096 009d 69       		.byte	0x69
 1097 009e A2000000 		.4byte	0xa2
 1098 00a2 03       		.uleb128 0x3
 1099 00a3 08       		.byte	0x8
 1100 00a4 07       		.byte	0x7
 1101 00a5 C1000000 		.4byte	.LASF14
 1102 00a9 04       		.uleb128 0x4
 1103 00aa 28080000 		.4byte	.LASF15
 1104 00ae 09       		.byte	0x9
 1105 00af 18       		.byte	0x18
 1106 00b0 48000000 		.4byte	0x48
 1107 00b4 04       		.uleb128 0x4
 1108 00b5 CF030000 		.4byte	.LASF16
 1109 00b9 09       		.byte	0x9
 1110 00ba 24       		.byte	0x24
 1111 00bb 61000000 		.4byte	0x61
 1112 00bf 04       		.uleb128 0x4
 1113 00c0 18060000 		.4byte	.LASF17
 1114 00c4 09       		.byte	0x9
 1115 00c5 2C       		.byte	0x2c
 1116 00c6 73000000 		.4byte	0x73
 1117 00ca 05       		.uleb128 0x5
 1118 00cb BF000000 		.4byte	0xbf
ARM GAS  /tmp/cc843xpW.s 			page 21


 1119 00cf 04       		.uleb128 0x4
 1120 00d0 F2060000 		.4byte	.LASF18
 1121 00d4 09       		.byte	0x9
 1122 00d5 30       		.byte	0x30
 1123 00d6 85000000 		.4byte	0x85
 1124 00da 04       		.uleb128 0x4
 1125 00db 36000000 		.4byte	.LASF19
 1126 00df 09       		.byte	0x9
 1127 00e0 3C       		.byte	0x3c
 1128 00e1 97000000 		.4byte	0x97
 1129 00e5 04       		.uleb128 0x4
 1130 00e6 CE070000 		.4byte	.LASF20
 1131 00ea 0A       		.byte	0xa
 1132 00eb 39       		.byte	0x39
 1133 00ec CF000000 		.4byte	0xcf
 1134 00f0 04       		.uleb128 0x4
 1135 00f1 2D010000 		.4byte	.LASF21
 1136 00f5 0A       		.byte	0xa
 1137 00f6 3A       		.byte	0x3a
 1138 00f7 DA000000 		.4byte	0xda
 1139 00fb 04       		.uleb128 0x4
 1140 00fc 5F060000 		.4byte	.LASF22
 1141 0100 0A       		.byte	0xa
 1142 0101 3C       		.byte	0x3c
 1143 0102 A9000000 		.4byte	0xa9
 1144 0106 04       		.uleb128 0x4
 1145 0107 F6010000 		.4byte	.LASF23
 1146 010b 0A       		.byte	0xa
 1147 010c 3D       		.byte	0x3d
 1148 010d A9000000 		.4byte	0xa9
 1149 0111 04       		.uleb128 0x4
 1150 0112 D2050000 		.4byte	.LASF24
 1151 0116 0A       		.byte	0xa
 1152 0117 3E       		.byte	0x3e
 1153 0118 A9000000 		.4byte	0xa9
 1154 011c 04       		.uleb128 0x4
 1155 011d FC050000 		.4byte	.LASF25
 1156 0121 0A       		.byte	0xa
 1157 0122 40       		.byte	0x40
 1158 0123 CF000000 		.4byte	0xcf
 1159 0127 04       		.uleb128 0x4
 1160 0128 88040000 		.4byte	.LASF26
 1161 012c 0A       		.byte	0xa
 1162 012d 41       		.byte	0x41
 1163 012e BF000000 		.4byte	0xbf
 1164 0132 04       		.uleb128 0x4
 1165 0133 CB040000 		.4byte	.LASF27
 1166 0137 0A       		.byte	0xa
 1167 0138 43       		.byte	0x43
 1168 0139 CF000000 		.4byte	0xcf
 1169 013d 04       		.uleb128 0x4
 1170 013e A9030000 		.4byte	.LASF28
 1171 0142 0A       		.byte	0xa
 1172 0143 45       		.byte	0x45
 1173 0144 BF000000 		.4byte	0xbf
 1174 0148 04       		.uleb128 0x4
 1175 0149 93040000 		.4byte	.LASF29
ARM GAS  /tmp/cc843xpW.s 			page 22


 1176 014d 0A       		.byte	0xa
 1177 014e 46       		.byte	0x46
 1178 014f CF000000 		.4byte	0xcf
 1179 0153 04       		.uleb128 0x4
 1180 0154 78070000 		.4byte	.LASF30
 1181 0158 0B       		.byte	0xb
 1182 0159 33       		.byte	0x33
 1183 015a CF000000 		.4byte	0xcf
 1184 015e 05       		.uleb128 0x5
 1185 015f 53010000 		.4byte	0x153
 1186 0163 04       		.uleb128 0x4
 1187 0164 0B080000 		.4byte	.LASF31
 1188 0168 0B       		.byte	0xb
 1189 0169 3F       		.byte	0x3f
 1190 016a 6E010000 		.4byte	0x16e
 1191 016e 06       		.uleb128 0x6
 1192 016f 7E040000 		.4byte	.LASF53
 1193 0173 60       		.byte	0x60
 1194 0174 03       		.byte	0x3
 1195 0175 C2       		.byte	0xc2
 1196 0176 74020000 		.4byte	0x274
 1197 017a 07       		.uleb128 0x7
 1198 017b 58060000 		.4byte	.LASF32
 1199 017f 03       		.byte	0x3
 1200 0180 C3       		.byte	0xc3
 1201 0181 7F020000 		.4byte	0x27f
 1202 0185 00       		.byte	0
 1203 0186 07       		.uleb128 0x7
 1204 0187 F5050000 		.4byte	.LASF33
 1205 018b 03       		.byte	0x3
 1206 018c C5       		.byte	0xc5
 1207 018d 7F020000 		.4byte	0x27f
 1208 0191 04       		.byte	0x4
 1209 0192 07       		.uleb128 0x7
 1210 0193 54010000 		.4byte	.LASF34
 1211 0197 03       		.byte	0x3
 1212 0198 C7       		.byte	0xc7
 1213 0199 1C010000 		.4byte	0x11c
 1214 019d 08       		.byte	0x8
 1215 019e 07       		.uleb128 0x7
 1216 019f 87050000 		.4byte	.LASF35
 1217 01a3 03       		.byte	0x3
 1218 01a4 C8       		.byte	0xc8
 1219 01a5 F2040000 		.4byte	0x4f2
 1220 01a9 0C       		.byte	0xc
 1221 01aa 07       		.uleb128 0x7
 1222 01ab 31030000 		.4byte	.LASF36
 1223 01af 03       		.byte	0x3
 1224 01b0 CA       		.byte	0xca
 1225 01b1 7F020000 		.4byte	0x27f
 1226 01b5 10       		.byte	0x10
 1227 01b6 07       		.uleb128 0x7
 1228 01b7 79050000 		.4byte	.LASF37
 1229 01bb 03       		.byte	0x3
 1230 01bc CB       		.byte	0xcb
 1231 01bd 7F020000 		.4byte	0x27f
 1232 01c1 14       		.byte	0x14
ARM GAS  /tmp/cc843xpW.s 			page 23


 1233 01c2 07       		.uleb128 0x7
 1234 01c3 4A080000 		.4byte	.LASF38
 1235 01c7 03       		.byte	0x3
 1236 01c8 D2       		.byte	0xd2
 1237 01c9 D2070000 		.4byte	0x7d2
 1238 01cd 18       		.byte	0x18
 1239 01ce 07       		.uleb128 0x7
 1240 01cf AF030000 		.4byte	.LASF39
 1241 01d3 03       		.byte	0x3
 1242 01d4 D8       		.byte	0xd8
 1243 01d5 E9070000 		.4byte	0x7e9
 1244 01d9 1C       		.byte	0x1c
 1245 01da 07       		.uleb128 0x7
 1246 01db 42060000 		.4byte	.LASF40
 1247 01df 03       		.byte	0x3
 1248 01e0 DD       		.byte	0xdd
 1249 01e1 06010000 		.4byte	0x106
 1250 01e5 20       		.byte	0x20
 1251 01e6 07       		.uleb128 0x7
 1252 01e7 76060000 		.4byte	.LASF41
 1253 01eb 03       		.byte	0x3
 1254 01ec E1       		.byte	0xe1
 1255 01ed FB000000 		.4byte	0xfb
 1256 01f1 21       		.byte	0x21
 1257 01f2 07       		.uleb128 0x7
 1258 01f3 FC070000 		.4byte	.LASF42
 1259 01f7 03       		.byte	0x3
 1260 01f8 E6       		.byte	0xe6
 1261 01f9 11010000 		.4byte	0x111
 1262 01fd 22       		.byte	0x22
 1263 01fe 08       		.uleb128 0x8
 1264 01ff 705F7500 		.ascii	"p_u\000"
 1265 0203 03       		.byte	0x3
 1266 0204 3101     		.2byte	0x131
 1267 0206 0D070000 		.4byte	0x70d
 1268 020a 24       		.byte	0x24
 1269 020b 09       		.uleb128 0x9
 1270 020c 08050000 		.4byte	.LASF43
 1271 0210 03       		.byte	0x3
 1272 0211 3601     		.2byte	0x136
 1273 0213 85020000 		.4byte	0x285
 1274 0217 28       		.byte	0x28
 1275 0218 09       		.uleb128 0x9
 1276 0219 3C040000 		.4byte	.LASF44
 1277 021d 03       		.byte	0x3
 1278 021e 3C01     		.2byte	0x13c
 1279 0220 A9020000 		.4byte	0x2a9
 1280 0224 2C       		.byte	0x2c
 1281 0225 09       		.uleb128 0x9
 1282 0226 C8070000 		.4byte	.LASF45
 1283 022a 03       		.byte	0x3
 1284 022b 4001     		.2byte	0x140
 1285 022d 27010000 		.4byte	0x127
 1286 0231 34       		.byte	0x34
 1287 0232 09       		.uleb128 0x9
 1288 0233 D4060000 		.4byte	.LASF46
 1289 0237 03       		.byte	0x3
ARM GAS  /tmp/cc843xpW.s 			page 24


 1290 0238 4601     		.2byte	0x146
 1291 023a 32010000 		.4byte	0x132
 1292 023e 38       		.byte	0x38
 1293 023f 09       		.uleb128 0x9
 1294 0240 2E060000 		.4byte	.LASF47
 1295 0244 03       		.byte	0x3
 1296 0245 4D01     		.2byte	0x14d
 1297 0247 CC070000 		.4byte	0x7cc
 1298 024b 3C       		.byte	0x3c
 1299 024c 09       		.uleb128 0x9
 1300 024d 82070000 		.4byte	.LASF48
 1301 0251 03       		.byte	0x3
 1302 0252 5101     		.2byte	0x151
 1303 0254 1C010000 		.4byte	0x11c
 1304 0258 40       		.byte	0x40
 1305 0259 09       		.uleb128 0x9
 1306 025a B4010000 		.4byte	.LASF49
 1307 025e 03       		.byte	0x3
 1308 025f 5801     		.2byte	0x158
 1309 0261 61030000 		.4byte	0x361
 1310 0265 44       		.byte	0x44
 1311 0266 09       		.uleb128 0x9
 1312 0267 87060000 		.4byte	.LASF50
 1313 026b 03       		.byte	0x3
 1314 026c 5E01     		.2byte	0x15e
 1315 026e BE060000 		.4byte	0x6be
 1316 0272 48       		.byte	0x48
 1317 0273 00       		.byte	0
 1318 0274 04       		.uleb128 0x4
 1319 0275 30080000 		.4byte	.LASF51
 1320 0279 0B       		.byte	0xb
 1321 027a 44       		.byte	0x44
 1322 027b 7F020000 		.4byte	0x27f
 1323 027f 0A       		.uleb128 0xa
 1324 0280 04       		.byte	0x4
 1325 0281 63010000 		.4byte	0x163
 1326 0285 04       		.uleb128 0x4
 1327 0286 00000000 		.4byte	.LASF52
 1328 028a 0B       		.byte	0xb
 1329 028b 49       		.byte	0x49
 1330 028c 90020000 		.4byte	0x290
 1331 0290 06       		.uleb128 0x6
 1332 0291 0F070000 		.4byte	.LASF54
 1333 0295 04       		.byte	0x4
 1334 0296 03       		.byte	0x3
 1335 0297 B0       		.byte	0xb0
 1336 0298 A9020000 		.4byte	0x2a9
 1337 029c 07       		.uleb128 0x7
 1338 029d 58060000 		.4byte	.LASF32
 1339 02a1 03       		.byte	0x3
 1340 02a2 B1       		.byte	0xb1
 1341 02a3 7F020000 		.4byte	0x27f
 1342 02a7 00       		.byte	0
 1343 02a8 00       		.byte	0
 1344 02a9 04       		.uleb128 0x4
 1345 02aa 99060000 		.4byte	.LASF55
 1346 02ae 0B       		.byte	0xb
ARM GAS  /tmp/cc843xpW.s 			page 25


 1347 02af 50       		.byte	0x50
 1348 02b0 B9020000 		.4byte	0x2b9
 1349 02b4 0B       		.uleb128 0xb
 1350 02b5 A9020000 		.4byte	0x2a9
 1351 02b9 06       		.uleb128 0x6
 1352 02ba 62000000 		.4byte	.LASF56
 1353 02be 08       		.byte	0x8
 1354 02bf 03       		.byte	0x3
 1355 02c0 B7       		.byte	0xb7
 1356 02c1 DE020000 		.4byte	0x2de
 1357 02c5 07       		.uleb128 0x7
 1358 02c6 58060000 		.4byte	.LASF32
 1359 02ca 03       		.byte	0x3
 1360 02cb B8       		.byte	0xb8
 1361 02cc 7F020000 		.4byte	0x27f
 1362 02d0 00       		.byte	0
 1363 02d1 07       		.uleb128 0x7
 1364 02d2 F5050000 		.4byte	.LASF33
 1365 02d6 03       		.byte	0x3
 1366 02d7 B9       		.byte	0xb9
 1367 02d8 7F020000 		.4byte	0x27f
 1368 02dc 04       		.byte	0x4
 1369 02dd 00       		.byte	0
 1370 02de 04       		.uleb128 0x4
 1371 02df 1C000000 		.4byte	.LASF57
 1372 02e3 0B       		.byte	0xb
 1373 02e4 57       		.byte	0x57
 1374 02e5 E9020000 		.4byte	0x2e9
 1375 02e9 0C       		.uleb128 0xc
 1376 02ea BD040000 		.4byte	.LASF58
 1377 02ee 1C       		.byte	0x1c
 1378 02ef 03       		.byte	0x3
 1379 02f0 9001     		.2byte	0x190
 1380 02f2 45030000 		.4byte	0x345
 1381 02f6 09       		.uleb128 0x9
 1382 02f7 07070000 		.4byte	.LASF59
 1383 02fb 03       		.byte	0x3
 1384 02fc 9101     		.2byte	0x191
 1385 02fe A9020000 		.4byte	0x2a9
 1386 0302 00       		.byte	0
 1387 0303 09       		.uleb128 0x9
 1388 0304 4A060000 		.4byte	.LASF60
 1389 0308 03       		.byte	0x3
 1390 0309 9201     		.2byte	0x192
 1391 030b 1C010000 		.4byte	0x11c
 1392 030f 08       		.byte	0x8
 1393 0310 09       		.uleb128 0x9
 1394 0311 81050000 		.4byte	.LASF61
 1395 0315 03       		.byte	0x3
 1396 0316 9401     		.2byte	0x194
 1397 0318 F2040000 		.4byte	0x4f2
 1398 031c 0C       		.byte	0xc
 1399 031d 09       		.uleb128 0x9
 1400 031e 4D030000 		.4byte	.LASF62
 1401 0322 03       		.byte	0x3
 1402 0323 9701     		.2byte	0x197
 1403 0325 7F020000 		.4byte	0x27f
ARM GAS  /tmp/cc843xpW.s 			page 26


 1404 0329 10       		.byte	0x10
 1405 032a 09       		.uleb128 0x9
 1406 032b B4050000 		.4byte	.LASF63
 1407 032f 03       		.byte	0x3
 1408 0330 9801     		.2byte	0x198
 1409 0332 7F020000 		.4byte	0x27f
 1410 0336 14       		.byte	0x14
 1411 0337 09       		.uleb128 0x9
 1412 0338 AA050000 		.4byte	.LASF64
 1413 033c 03       		.byte	0x3
 1414 033d 9B01     		.2byte	0x19b
 1415 033f 7F020000 		.4byte	0x27f
 1416 0343 18       		.byte	0x18
 1417 0344 00       		.byte	0
 1418 0345 04       		.uleb128 0x4
 1419 0346 8D070000 		.4byte	.LASF65
 1420 034a 0B       		.byte	0xb
 1421 034b 5C       		.byte	0x5c
 1422 034c 50030000 		.4byte	0x350
 1423 0350 0A       		.uleb128 0xa
 1424 0351 04       		.byte	0x4
 1425 0352 56030000 		.4byte	0x356
 1426 0356 0D       		.uleb128 0xd
 1427 0357 61030000 		.4byte	0x361
 1428 035b 0E       		.uleb128 0xe
 1429 035c 61030000 		.4byte	0x361
 1430 0360 00       		.byte	0
 1431 0361 0F       		.uleb128 0xf
 1432 0362 04       		.byte	0x4
 1433 0363 04       		.uleb128 0x4
 1434 0364 E5050000 		.4byte	.LASF66
 1435 0368 0B       		.byte	0xb
 1436 0369 61       		.byte	0x61
 1437 036a 6E030000 		.4byte	0x36e
 1438 036e 0C       		.uleb128 0xc
 1439 036f A9060000 		.4byte	.LASF67
 1440 0373 14       		.byte	0x14
 1441 0374 03       		.byte	0x3
 1442 0375 6B01     		.2byte	0x16b
 1443 0377 BD030000 		.4byte	0x3bd
 1444 037b 09       		.uleb128 0x9
 1445 037c C7030000 		.4byte	.LASF68
 1446 0380 03       		.byte	0x3
 1447 0381 6C01     		.2byte	0x16c
 1448 0383 EF070000 		.4byte	0x7ef
 1449 0387 00       		.byte	0
 1450 0388 09       		.uleb128 0x9
 1451 0389 5E030000 		.4byte	.LASF69
 1452 038d 03       		.byte	0x3
 1453 038e 6D01     		.2byte	0x16d
 1454 0390 EF070000 		.4byte	0x7ef
 1455 0394 04       		.byte	0x4
 1456 0395 09       		.uleb128 0x9
 1457 0396 33040000 		.4byte	.LASF70
 1458 039a 03       		.byte	0x3
 1459 039b 6E01     		.2byte	0x16e
 1460 039d 53010000 		.4byte	0x153
ARM GAS  /tmp/cc843xpW.s 			page 27


 1461 03a1 08       		.byte	0x8
 1462 03a2 09       		.uleb128 0x9
 1463 03a3 B8080000 		.4byte	.LASF71
 1464 03a7 03       		.byte	0x3
 1465 03a8 6F01     		.2byte	0x16f
 1466 03aa 45030000 		.4byte	0x345
 1467 03ae 0C       		.byte	0xc
 1468 03af 09       		.uleb128 0x9
 1469 03b0 E1070000 		.4byte	.LASF72
 1470 03b4 03       		.byte	0x3
 1471 03b5 7101     		.2byte	0x171
 1472 03b7 61030000 		.4byte	0x361
 1473 03bb 10       		.byte	0x10
 1474 03bc 00       		.byte	0
 1475 03bd 04       		.uleb128 0x4
 1476 03be 0A010000 		.4byte	.LASF73
 1477 03c2 0B       		.byte	0xb
 1478 03c3 66       		.byte	0x66
 1479 03c4 C8030000 		.4byte	0x3c8
 1480 03c8 0C       		.uleb128 0xc
 1481 03c9 1B050000 		.4byte	.LASF74
 1482 03cd 10       		.byte	0x10
 1483 03ce 03       		.byte	0x3
 1484 03cf 7B01     		.2byte	0x17b
 1485 03d1 0A040000 		.4byte	0x40a
 1486 03d5 09       		.uleb128 0x9
 1487 03d6 C7030000 		.4byte	.LASF68
 1488 03da 03       		.byte	0x3
 1489 03db 7C01     		.2byte	0x17c
 1490 03dd EF070000 		.4byte	0x7ef
 1491 03e1 00       		.byte	0
 1492 03e2 09       		.uleb128 0x9
 1493 03e3 5E030000 		.4byte	.LASF69
 1494 03e7 03       		.byte	0x3
 1495 03e8 7E01     		.2byte	0x17e
 1496 03ea EF070000 		.4byte	0x7ef
 1497 03ee 04       		.byte	0x4
 1498 03ef 09       		.uleb128 0x9
 1499 03f0 33040000 		.4byte	.LASF70
 1500 03f4 03       		.byte	0x3
 1501 03f5 8001     		.2byte	0x180
 1502 03f7 53010000 		.4byte	0x153
 1503 03fb 08       		.byte	0x8
 1504 03fc 09       		.uleb128 0x9
 1505 03fd 63080000 		.4byte	.LASF75
 1506 0401 03       		.byte	0x3
 1507 0402 8201     		.2byte	0x182
 1508 0404 5E010000 		.4byte	0x15e
 1509 0408 0C       		.byte	0xc
 1510 0409 00       		.byte	0
 1511 040a 04       		.uleb128 0x4
 1512 040b 73000000 		.4byte	.LASF76
 1513 040f 0B       		.byte	0xb
 1514 0410 6B       		.byte	0x6b
 1515 0411 15040000 		.4byte	0x415
 1516 0415 0C       		.uleb128 0xc
 1517 0416 66030000 		.4byte	.LASF77
ARM GAS  /tmp/cc843xpW.s 			page 28


 1518 041a 0C       		.byte	0xc
 1519 041b 03       		.byte	0x3
 1520 041c A201     		.2byte	0x1a2
 1521 041e 4A040000 		.4byte	0x44a
 1522 0422 09       		.uleb128 0x9
 1523 0423 AF070000 		.4byte	.LASF78
 1524 0427 03       		.byte	0x3
 1525 0428 AA01     		.2byte	0x1aa
 1526 042a D8070000 		.4byte	0x7d8
 1527 042e 00       		.byte	0
 1528 042f 09       		.uleb128 0x9
 1529 0430 03080000 		.4byte	.LASF79
 1530 0434 03       		.byte	0x3
 1531 0435 AF01     		.2byte	0x1af
 1532 0437 3D010000 		.4byte	0x13d
 1533 043b 04       		.byte	0x4
 1534 043c 09       		.uleb128 0x9
 1535 043d 84030000 		.4byte	.LASF80
 1536 0441 03       		.byte	0x3
 1537 0442 B301     		.2byte	0x1b3
 1538 0444 3D010000 		.4byte	0x13d
 1539 0448 08       		.byte	0x8
 1540 0449 00       		.byte	0
 1541 044a 04       		.uleb128 0x4
 1542 044b 9A040000 		.4byte	.LASF81
 1543 044f 0B       		.byte	0xb
 1544 0450 70       		.byte	0x70
 1545 0451 55040000 		.4byte	0x455
 1546 0455 10       		.uleb128 0x10
 1547 0456 D7010000 		.4byte	.LASF82
 1548 045a 5802     		.2byte	0x258
 1549 045c 03       		.byte	0x3
 1550 045d C201     		.2byte	0x1c2
 1551 045f BE040000 		.4byte	0x4be
 1552 0463 09       		.uleb128 0x9
 1553 0464 14080000 		.4byte	.LASF83
 1554 0468 03       		.byte	0x3
 1555 0469 C601     		.2byte	0x1c6
 1556 046b DE020000 		.4byte	0x2de
 1557 046f 00       		.byte	0
 1558 0470 09       		.uleb128 0x9
 1559 0471 C4010000 		.4byte	.LASF84
 1560 0475 03       		.byte	0x3
 1561 0476 CA01     		.2byte	0x1ca
 1562 0478 BD030000 		.4byte	0x3bd
 1563 047c 1C       		.byte	0x1c
 1564 047d 08       		.uleb128 0x8
 1565 047e 64626700 		.ascii	"dbg\000"
 1566 0482 03       		.byte	0x3
 1567 0483 CE01     		.2byte	0x1ce
 1568 0485 0A040000 		.4byte	0x40a
 1569 0489 2C       		.byte	0x2c
 1570 048a 09       		.uleb128 0x9
 1571 048b FF000000 		.4byte	.LASF85
 1572 048f 03       		.byte	0x3
 1573 0490 D201     		.2byte	0x1d2
 1574 0492 63010000 		.4byte	0x163
ARM GAS  /tmp/cc843xpW.s 			page 29


 1575 0496 38       		.byte	0x38
 1576 0497 08       		.uleb128 0x8
 1577 0498 746D00   		.ascii	"tm\000"
 1578 049b 03       		.byte	0x3
 1579 049c D701     		.2byte	0x1d7
 1580 049e 70060000 		.4byte	0x670
 1581 04a2 98       		.byte	0x98
 1582 04a3 09       		.uleb128 0x9
 1583 04a4 3F000000 		.4byte	.LASF86
 1584 04a8 03       		.byte	0x3
 1585 04a9 DD01     		.2byte	0x1dd
 1586 04ab 02070000 		.4byte	0x702
 1587 04af A0       		.byte	0xa0
 1588 04b0 09       		.uleb128 0x9
 1589 04b1 9A030000 		.4byte	.LASF87
 1590 04b5 03       		.byte	0x3
 1591 04b6 E301     		.2byte	0x1e3
 1592 04b8 F5070000 		.4byte	0x7f5
 1593 04bc D8       		.byte	0xd8
 1594 04bd 00       		.byte	0
 1595 04be 03       		.uleb128 0x3
 1596 04bf 04       		.byte	0x4
 1597 04c0 07       		.byte	0x7
 1598 04c1 12050000 		.4byte	.LASF88
 1599 04c5 11       		.uleb128 0x11
 1600 04c6 20010000 		.4byte	.LASF89
 1601 04ca 0C       		.byte	0xc
 1602 04cb FA06     		.2byte	0x6fa
 1603 04cd CA000000 		.4byte	0xca
 1604 04d1 12       		.uleb128 0x12
 1605 04d2 D8030000 		.4byte	.LASF90
 1606 04d6 0D       		.byte	0xd
 1607 04d7 4C       		.byte	0x4c
 1608 04d8 CF000000 		.4byte	0xcf
 1609 04dc 04       		.uleb128 0x4
 1610 04dd 55030000 		.4byte	.LASF91
 1611 04e1 0E       		.byte	0xe
 1612 04e2 65       		.byte	0x65
 1613 04e3 61030000 		.4byte	0x361
 1614 04e7 04       		.uleb128 0x4
 1615 04e8 E1040000 		.4byte	.LASF92
 1616 04ec 0E       		.byte	0xe
 1617 04ed 6D       		.byte	0x6d
 1618 04ee DA000000 		.4byte	0xda
 1619 04f2 06       		.uleb128 0x6
 1620 04f3 C0070000 		.4byte	.LASF93
 1621 04f7 04       		.byte	0x4
 1622 04f8 0E       		.byte	0xe
 1623 04f9 89       		.byte	0x89
 1624 04fa 0B050000 		.4byte	0x50b
 1625 04fe 13       		.uleb128 0x13
 1626 04ff 72313300 		.ascii	"r13\000"
 1627 0503 0E       		.byte	0xe
 1628 0504 8A       		.byte	0x8a
 1629 0505 55060000 		.4byte	0x655
 1630 0509 00       		.byte	0
 1631 050a 00       		.byte	0
ARM GAS  /tmp/cc843xpW.s 			page 30


 1632 050b 06       		.uleb128 0x6
 1633 050c 56000000 		.4byte	.LASF94
 1634 0510 64       		.byte	0x64
 1635 0511 01       		.byte	0x1
 1636 0512 FD       		.byte	0xfd
 1637 0513 55060000 		.4byte	0x655
 1638 0517 13       		.uleb128 0x13
 1639 0518 73313600 		.ascii	"s16\000"
 1640 051c 01       		.byte	0x1
 1641 051d FF       		.byte	0xff
 1642 051e DC040000 		.4byte	0x4dc
 1643 0522 00       		.byte	0
 1644 0523 08       		.uleb128 0x8
 1645 0524 73313700 		.ascii	"s17\000"
 1646 0528 01       		.byte	0x1
 1647 0529 0001     		.2byte	0x100
 1648 052b DC040000 		.4byte	0x4dc
 1649 052f 04       		.byte	0x4
 1650 0530 08       		.uleb128 0x8
 1651 0531 73313800 		.ascii	"s18\000"
 1652 0535 01       		.byte	0x1
 1653 0536 0101     		.2byte	0x101
 1654 0538 DC040000 		.4byte	0x4dc
 1655 053c 08       		.byte	0x8
 1656 053d 08       		.uleb128 0x8
 1657 053e 73313900 		.ascii	"s19\000"
 1658 0542 01       		.byte	0x1
 1659 0543 0201     		.2byte	0x102
 1660 0545 DC040000 		.4byte	0x4dc
 1661 0549 0C       		.byte	0xc
 1662 054a 08       		.uleb128 0x8
 1663 054b 73323000 		.ascii	"s20\000"
 1664 054f 01       		.byte	0x1
 1665 0550 0301     		.2byte	0x103
 1666 0552 DC040000 		.4byte	0x4dc
 1667 0556 10       		.byte	0x10
 1668 0557 08       		.uleb128 0x8
 1669 0558 73323100 		.ascii	"s21\000"
 1670 055c 01       		.byte	0x1
 1671 055d 0401     		.2byte	0x104
 1672 055f DC040000 		.4byte	0x4dc
 1673 0563 14       		.byte	0x14
 1674 0564 08       		.uleb128 0x8
 1675 0565 73323200 		.ascii	"s22\000"
 1676 0569 01       		.byte	0x1
 1677 056a 0501     		.2byte	0x105
 1678 056c DC040000 		.4byte	0x4dc
 1679 0570 18       		.byte	0x18
 1680 0571 08       		.uleb128 0x8
 1681 0572 73323300 		.ascii	"s23\000"
 1682 0576 01       		.byte	0x1
 1683 0577 0601     		.2byte	0x106
 1684 0579 DC040000 		.4byte	0x4dc
 1685 057d 1C       		.byte	0x1c
 1686 057e 08       		.uleb128 0x8
 1687 057f 73323400 		.ascii	"s24\000"
 1688 0583 01       		.byte	0x1
ARM GAS  /tmp/cc843xpW.s 			page 31


 1689 0584 0701     		.2byte	0x107
 1690 0586 DC040000 		.4byte	0x4dc
 1691 058a 20       		.byte	0x20
 1692 058b 08       		.uleb128 0x8
 1693 058c 73323500 		.ascii	"s25\000"
 1694 0590 01       		.byte	0x1
 1695 0591 0801     		.2byte	0x108
 1696 0593 DC040000 		.4byte	0x4dc
 1697 0597 24       		.byte	0x24
 1698 0598 08       		.uleb128 0x8
 1699 0599 73323600 		.ascii	"s26\000"
 1700 059d 01       		.byte	0x1
 1701 059e 0901     		.2byte	0x109
 1702 05a0 DC040000 		.4byte	0x4dc
 1703 05a4 28       		.byte	0x28
 1704 05a5 08       		.uleb128 0x8
 1705 05a6 73323700 		.ascii	"s27\000"
 1706 05aa 01       		.byte	0x1
 1707 05ab 0A01     		.2byte	0x10a
 1708 05ad DC040000 		.4byte	0x4dc
 1709 05b1 2C       		.byte	0x2c
 1710 05b2 08       		.uleb128 0x8
 1711 05b3 73323800 		.ascii	"s28\000"
 1712 05b7 01       		.byte	0x1
 1713 05b8 0B01     		.2byte	0x10b
 1714 05ba DC040000 		.4byte	0x4dc
 1715 05be 30       		.byte	0x30
 1716 05bf 08       		.uleb128 0x8
 1717 05c0 73323900 		.ascii	"s29\000"
 1718 05c4 01       		.byte	0x1
 1719 05c5 0C01     		.2byte	0x10c
 1720 05c7 DC040000 		.4byte	0x4dc
 1721 05cb 34       		.byte	0x34
 1722 05cc 08       		.uleb128 0x8
 1723 05cd 73333000 		.ascii	"s30\000"
 1724 05d1 01       		.byte	0x1
 1725 05d2 0D01     		.2byte	0x10d
 1726 05d4 DC040000 		.4byte	0x4dc
 1727 05d8 38       		.byte	0x38
 1728 05d9 08       		.uleb128 0x8
 1729 05da 73333100 		.ascii	"s31\000"
 1730 05de 01       		.byte	0x1
 1731 05df 0E01     		.2byte	0x10e
 1732 05e1 DC040000 		.4byte	0x4dc
 1733 05e5 3C       		.byte	0x3c
 1734 05e6 08       		.uleb128 0x8
 1735 05e7 723400   		.ascii	"r4\000"
 1736 05ea 01       		.byte	0x1
 1737 05eb 1001     		.2byte	0x110
 1738 05ed DC040000 		.4byte	0x4dc
 1739 05f1 40       		.byte	0x40
 1740 05f2 08       		.uleb128 0x8
 1741 05f3 723500   		.ascii	"r5\000"
 1742 05f6 01       		.byte	0x1
 1743 05f7 1101     		.2byte	0x111
 1744 05f9 DC040000 		.4byte	0x4dc
 1745 05fd 44       		.byte	0x44
ARM GAS  /tmp/cc843xpW.s 			page 32


 1746 05fe 08       		.uleb128 0x8
 1747 05ff 723600   		.ascii	"r6\000"
 1748 0602 01       		.byte	0x1
 1749 0603 1201     		.2byte	0x112
 1750 0605 DC040000 		.4byte	0x4dc
 1751 0609 48       		.byte	0x48
 1752 060a 08       		.uleb128 0x8
 1753 060b 723700   		.ascii	"r7\000"
 1754 060e 01       		.byte	0x1
 1755 060f 1301     		.2byte	0x113
 1756 0611 DC040000 		.4byte	0x4dc
 1757 0615 4C       		.byte	0x4c
 1758 0616 08       		.uleb128 0x8
 1759 0617 723800   		.ascii	"r8\000"
 1760 061a 01       		.byte	0x1
 1761 061b 1401     		.2byte	0x114
 1762 061d DC040000 		.4byte	0x4dc
 1763 0621 50       		.byte	0x50
 1764 0622 08       		.uleb128 0x8
 1765 0623 723900   		.ascii	"r9\000"
 1766 0626 01       		.byte	0x1
 1767 0627 1501     		.2byte	0x115
 1768 0629 DC040000 		.4byte	0x4dc
 1769 062d 54       		.byte	0x54
 1770 062e 08       		.uleb128 0x8
 1771 062f 72313000 		.ascii	"r10\000"
 1772 0633 01       		.byte	0x1
 1773 0634 1601     		.2byte	0x116
 1774 0636 DC040000 		.4byte	0x4dc
 1775 063a 58       		.byte	0x58
 1776 063b 08       		.uleb128 0x8
 1777 063c 72313100 		.ascii	"r11\000"
 1778 0640 01       		.byte	0x1
 1779 0641 1701     		.2byte	0x117
 1780 0643 DC040000 		.4byte	0x4dc
 1781 0647 5C       		.byte	0x5c
 1782 0648 08       		.uleb128 0x8
 1783 0649 6C7200   		.ascii	"lr\000"
 1784 064c 01       		.byte	0x1
 1785 064d 1801     		.2byte	0x118
 1786 064f DC040000 		.4byte	0x4dc
 1787 0653 60       		.byte	0x60
 1788 0654 00       		.byte	0
 1789 0655 0A       		.uleb128 0xa
 1790 0656 04       		.byte	0x4
 1791 0657 0B050000 		.4byte	0x50b
 1792 065b 14       		.uleb128 0x14
 1793 065c 04       		.byte	0x4
 1794 065d 0F       		.byte	0xf
 1795 065e 38       		.byte	0x38
 1796 065f 70060000 		.4byte	0x670
 1797 0663 07       		.uleb128 0x7
 1798 0664 B9070000 		.4byte	.LASF95
 1799 0668 0F       		.byte	0xf
 1800 0669 3C       		.byte	0x3c
 1801 066a E5000000 		.4byte	0xe5
 1802 066e 00       		.byte	0
ARM GAS  /tmp/cc843xpW.s 			page 33


 1803 066f 00       		.byte	0
 1804 0670 04       		.uleb128 0x4
 1805 0671 8D050000 		.4byte	.LASF96
 1806 0675 0F       		.byte	0xf
 1807 0676 3D       		.byte	0x3d
 1808 0677 5B060000 		.4byte	0x65b
 1809 067b 14       		.uleb128 0x14
 1810 067c 18       		.byte	0x18
 1811 067d 0F       		.byte	0xf
 1812 067e 48       		.byte	0x48
 1813 067f BE060000 		.4byte	0x6be
 1814 0683 07       		.uleb128 0x7
 1815 0684 61070000 		.4byte	.LASF97
 1816 0688 0F       		.byte	0xf
 1817 0689 49       		.byte	0x49
 1818 068a E5000000 		.4byte	0xe5
 1819 068e 00       		.byte	0
 1820 068f 07       		.uleb128 0x7
 1821 0690 97000000 		.4byte	.LASF98
 1822 0694 0F       		.byte	0xf
 1823 0695 4A       		.byte	0x4a
 1824 0696 E5000000 		.4byte	0xe5
 1825 069a 04       		.byte	0x4
 1826 069b 07       		.uleb128 0x7
 1827 069c 8E040000 		.4byte	.LASF99
 1828 06a0 0F       		.byte	0xf
 1829 06a1 4B       		.byte	0x4b
 1830 06a2 E5000000 		.4byte	0xe5
 1831 06a6 08       		.byte	0x8
 1832 06a7 13       		.uleb128 0x13
 1833 06a8 6E00     		.ascii	"n\000"
 1834 06aa 0F       		.byte	0xf
 1835 06ab 4C       		.byte	0x4c
 1836 06ac 48010000 		.4byte	0x148
 1837 06b0 0C       		.byte	0xc
 1838 06b1 07       		.uleb128 0x7
 1839 06b2 C7050000 		.4byte	.LASF100
 1840 06b6 0F       		.byte	0xf
 1841 06b7 4D       		.byte	0x4d
 1842 06b8 F0000000 		.4byte	0xf0
 1843 06bc 10       		.byte	0x10
 1844 06bd 00       		.byte	0
 1845 06be 04       		.uleb128 0x4
 1846 06bf 9D000000 		.4byte	.LASF101
 1847 06c3 0F       		.byte	0xf
 1848 06c4 4E       		.byte	0x4e
 1849 06c5 7B060000 		.4byte	0x67b
 1850 06c9 14       		.uleb128 0x14
 1851 06ca 38       		.byte	0x38
 1852 06cb 10       		.byte	0x10
 1853 06cc 38       		.byte	0x38
 1854 06cd 02070000 		.4byte	0x702
 1855 06d1 07       		.uleb128 0x7
 1856 06d2 50040000 		.4byte	.LASF102
 1857 06d6 10       		.byte	0x10
 1858 06d7 39       		.byte	0x39
 1859 06d8 48010000 		.4byte	0x148
ARM GAS  /tmp/cc843xpW.s 			page 34


 1860 06dc 00       		.byte	0
 1861 06dd 07       		.uleb128 0x7
 1862 06de 70050000 		.4byte	.LASF103
 1863 06e2 10       		.byte	0x10
 1864 06e3 3A       		.byte	0x3a
 1865 06e4 48010000 		.4byte	0x148
 1866 06e8 04       		.byte	0x4
 1867 06e9 07       		.uleb128 0x7
 1868 06ea 97080000 		.4byte	.LASF104
 1869 06ee 10       		.byte	0x10
 1870 06ef 3B       		.byte	0x3b
 1871 06f0 BE060000 		.4byte	0x6be
 1872 06f4 08       		.byte	0x8
 1873 06f5 07       		.uleb128 0x7
 1874 06f6 B2040000 		.4byte	.LASF105
 1875 06fa 10       		.byte	0x10
 1876 06fb 3D       		.byte	0x3d
 1877 06fc BE060000 		.4byte	0x6be
 1878 0700 20       		.byte	0x20
 1879 0701 00       		.byte	0
 1880 0702 04       		.uleb128 0x4
 1881 0703 6F040000 		.4byte	.LASF106
 1882 0707 10       		.byte	0x10
 1883 0708 3F       		.byte	0x3f
 1884 0709 C9060000 		.4byte	0x6c9
 1885 070d 15       		.uleb128 0x15
 1886 070e 04       		.byte	0x4
 1887 070f 03       		.byte	0x3
 1888 0710 FA       		.byte	0xfa
 1889 0711 6A070000 		.4byte	0x76a
 1890 0715 16       		.uleb128 0x16
 1891 0716 2F000000 		.4byte	.LASF107
 1892 071a 03       		.byte	0x3
 1893 071b 0101     		.2byte	0x101
 1894 071d 27010000 		.4byte	0x127
 1895 0721 16       		.uleb128 0x16
 1896 0722 F6000000 		.4byte	.LASF108
 1897 0726 03       		.byte	0x3
 1898 0727 0801     		.2byte	0x108
 1899 0729 27010000 		.4byte	0x127
 1900 072d 16       		.uleb128 0x16
 1901 072e 43080000 		.4byte	.LASF109
 1902 0732 03       		.byte	0x3
 1903 0733 0F01     		.2byte	0x10f
 1904 0735 61030000 		.4byte	0x361
 1905 0739 16       		.uleb128 0x16
 1906 073a 29000000 		.4byte	.LASF110
 1907 073e 03       		.byte	0x3
 1908 073f 1601     		.2byte	0x116
 1909 0741 6A070000 		.4byte	0x76a
 1910 0745 16       		.uleb128 0x16
 1911 0746 2C040000 		.4byte	.LASF111
 1912 074a 03       		.byte	0x3
 1913 074b 1E01     		.2byte	0x11e
 1914 074d 95070000 		.4byte	0x795
 1915 0751 16       		.uleb128 0x16
 1916 0752 3E070000 		.4byte	.LASF112
ARM GAS  /tmp/cc843xpW.s 			page 35


 1917 0756 03       		.byte	0x3
 1918 0757 2701     		.2byte	0x127
 1919 0759 CC070000 		.4byte	0x7cc
 1920 075d 16       		.uleb128 0x16
 1921 075e 51060000 		.4byte	.LASF113
 1922 0762 03       		.byte	0x3
 1923 0763 2F01     		.2byte	0x12f
 1924 0765 32010000 		.4byte	0x132
 1925 0769 00       		.byte	0
 1926 076a 0A       		.uleb128 0xa
 1927 076b 04       		.byte	0x4
 1928 076c 74020000 		.4byte	0x274
 1929 0770 06       		.uleb128 0x6
 1930 0771 C7060000 		.4byte	.LASF114
 1931 0775 0C       		.byte	0xc
 1932 0776 11       		.byte	0x11
 1933 0777 34       		.byte	0x34
 1934 0778 95070000 		.4byte	0x795
 1935 077c 07       		.uleb128 0x7
 1936 077d 39030000 		.4byte	.LASF115
 1937 0781 11       		.byte	0x11
 1938 0782 35       		.byte	0x35
 1939 0783 A9020000 		.4byte	0x2a9
 1940 0787 00       		.byte	0
 1941 0788 07       		.uleb128 0x7
 1942 0789 56040000 		.4byte	.LASF116
 1943 078d 11       		.byte	0x11
 1944 078e 37       		.byte	0x37
 1945 078f 3D010000 		.4byte	0x13d
 1946 0793 08       		.byte	0x8
 1947 0794 00       		.byte	0
 1948 0795 0A       		.uleb128 0xa
 1949 0796 04       		.byte	0x4
 1950 0797 70070000 		.4byte	0x770
 1951 079b 06       		.uleb128 0x6
 1952 079c F3070000 		.4byte	.LASF117
 1953 07a0 10       		.byte	0x10
 1954 07a1 06       		.byte	0x6
 1955 07a2 39       		.byte	0x39
 1956 07a3 CC070000 		.4byte	0x7cc
 1957 07a7 07       		.uleb128 0x7
 1958 07a8 BC010000 		.4byte	.LASF118
 1959 07ac 06       		.byte	0x6
 1960 07ad 3A       		.byte	0x3a
 1961 07ae A9020000 		.4byte	0x2a9
 1962 07b2 00       		.byte	0
 1963 07b3 07       		.uleb128 0x7
 1964 07b4 A2080000 		.4byte	.LASF119
 1965 07b8 06       		.byte	0x6
 1966 07b9 3C       		.byte	0x3c
 1967 07ba 7F020000 		.4byte	0x27f
 1968 07be 08       		.byte	0x8
 1969 07bf 07       		.uleb128 0x7
 1970 07c0 9E050000 		.4byte	.LASF120
 1971 07c4 06       		.byte	0x6
 1972 07c5 3E       		.byte	0x3e
 1973 07c6 27090000 		.4byte	0x927
ARM GAS  /tmp/cc843xpW.s 			page 36


 1974 07ca 0C       		.byte	0xc
 1975 07cb 00       		.byte	0
 1976 07cc 0A       		.uleb128 0xa
 1977 07cd 04       		.byte	0x4
 1978 07ce 9B070000 		.4byte	0x79b
 1979 07d2 0A       		.uleb128 0xa
 1980 07d3 04       		.byte	0x4
 1981 07d4 E4070000 		.4byte	0x7e4
 1982 07d8 05       		.uleb128 0x5
 1983 07d9 D2070000 		.4byte	0x7d2
 1984 07dd 03       		.uleb128 0x3
 1985 07de 01       		.byte	0x1
 1986 07df 08       		.byte	0x8
 1987 07e0 39070000 		.4byte	.LASF121
 1988 07e4 0B       		.uleb128 0xb
 1989 07e5 DD070000 		.4byte	0x7dd
 1990 07e9 0A       		.uleb128 0xa
 1991 07ea 04       		.byte	0x4
 1992 07eb E7040000 		.4byte	0x4e7
 1993 07ef 0A       		.uleb128 0xa
 1994 07f0 04       		.byte	0x4
 1995 07f1 63030000 		.4byte	0x363
 1996 07f5 17       		.uleb128 0x17
 1997 07f6 E7040000 		.4byte	0x4e7
 1998 07fa 05080000 		.4byte	0x805
 1999 07fe 18       		.uleb128 0x18
 2000 07ff BE040000 		.4byte	0x4be
 2001 0803 2F       		.byte	0x2f
 2002 0804 00       		.byte	0
 2003 0805 19       		.uleb128 0x19
 2004 0806 636800   		.ascii	"ch\000"
 2005 0809 03       		.byte	0x3
 2006 080a 0902     		.2byte	0x209
 2007 080c 4A040000 		.4byte	0x44a
 2008 0810 14       		.uleb128 0x14
 2009 0811 16       		.byte	0x16
 2010 0812 12       		.byte	0x12
 2011 0813 34       		.byte	0x34
 2012 0814 F1080000 		.4byte	0x8f1
 2013 0818 07       		.uleb128 0x7
 2014 0819 AA080000 		.4byte	.LASF122
 2015 081d 12       		.byte	0x12
 2016 081e 35       		.byte	0x35
 2017 081f F1080000 		.4byte	0x8f1
 2018 0823 00       		.byte	0
 2019 0824 07       		.uleb128 0x7
 2020 0825 F4040000 		.4byte	.LASF123
 2021 0829 12       		.byte	0x12
 2022 082a 36       		.byte	0x36
 2023 082b A9000000 		.4byte	0xa9
 2024 082f 04       		.byte	0x4
 2025 0830 07       		.uleb128 0x7
 2026 0831 1F070000 		.4byte	.LASF124
 2027 0835 12       		.byte	0x12
 2028 0836 37       		.byte	0x37
 2029 0837 A9000000 		.4byte	0xa9
 2030 083b 05       		.byte	0x5
ARM GAS  /tmp/cc843xpW.s 			page 37


 2031 083c 07       		.uleb128 0x7
 2032 083d 7A080000 		.4byte	.LASF125
 2033 0841 12       		.byte	0x12
 2034 0842 38       		.byte	0x38
 2035 0843 B4000000 		.4byte	0xb4
 2036 0847 06       		.byte	0x6
 2037 0848 07       		.uleb128 0x7
 2038 0849 DA050000 		.4byte	.LASF126
 2039 084d 12       		.byte	0x12
 2040 084e 39       		.byte	0x39
 2041 084f A9000000 		.4byte	0xa9
 2042 0853 08       		.byte	0x8
 2043 0854 07       		.uleb128 0x7
 2044 0855 58050000 		.4byte	.LASF127
 2045 0859 12       		.byte	0x12
 2046 085a 3A       		.byte	0x3a
 2047 085b A9000000 		.4byte	0xa9
 2048 085f 09       		.byte	0x9
 2049 0860 07       		.uleb128 0x7
 2050 0861 E8000000 		.4byte	.LASF128
 2051 0865 12       		.byte	0x12
 2052 0866 3B       		.byte	0x3b
 2053 0867 A9000000 		.4byte	0xa9
 2054 086b 0A       		.byte	0xa
 2055 086c 07       		.uleb128 0x7
 2056 086d FB060000 		.4byte	.LASF129
 2057 0871 12       		.byte	0x12
 2058 0872 3C       		.byte	0x3c
 2059 0873 A9000000 		.4byte	0xa9
 2060 0877 0B       		.byte	0xb
 2061 0878 07       		.uleb128 0x7
 2062 0879 E8070000 		.4byte	.LASF130
 2063 087d 12       		.byte	0x12
 2064 087e 3D       		.byte	0x3d
 2065 087f A9000000 		.4byte	0xa9
 2066 0883 0C       		.byte	0xc
 2067 0884 07       		.uleb128 0x7
 2068 0885 BA060000 		.4byte	.LASF131
 2069 0889 12       		.byte	0x12
 2070 088a 3E       		.byte	0x3e
 2071 088b A9000000 		.4byte	0xa9
 2072 088f 0D       		.byte	0xd
 2073 0890 07       		.uleb128 0x7
 2074 0891 0F000000 		.4byte	.LASF132
 2075 0895 12       		.byte	0x12
 2076 0896 3F       		.byte	0x3f
 2077 0897 A9000000 		.4byte	0xa9
 2078 089b 0E       		.byte	0xe
 2079 089c 07       		.uleb128 0x7
 2080 089d 64050000 		.4byte	.LASF133
 2081 08a1 12       		.byte	0x12
 2082 08a2 40       		.byte	0x40
 2083 08a3 A9000000 		.4byte	0xa9
 2084 08a7 0F       		.byte	0xf
 2085 08a8 07       		.uleb128 0x7
 2086 08a9 97010000 		.4byte	.LASF134
 2087 08ad 12       		.byte	0x12
ARM GAS  /tmp/cc843xpW.s 			page 38


 2088 08ae 41       		.byte	0x41
 2089 08af A9000000 		.4byte	0xa9
 2090 08b3 10       		.byte	0x10
 2091 08b4 07       		.uleb128 0x7
 2092 08b5 5B010000 		.4byte	.LASF135
 2093 08b9 12       		.byte	0x12
 2094 08ba 43       		.byte	0x43
 2095 08bb A9000000 		.4byte	0xa9
 2096 08bf 11       		.byte	0x11
 2097 08c0 07       		.uleb128 0x7
 2098 08c1 A7010000 		.4byte	.LASF136
 2099 08c5 12       		.byte	0x12
 2100 08c6 44       		.byte	0x44
 2101 08c7 A9000000 		.4byte	0xa9
 2102 08cb 12       		.byte	0x12
 2103 08cc 07       		.uleb128 0x7
 2104 08cd FC040000 		.4byte	.LASF137
 2105 08d1 12       		.byte	0x12
 2106 08d2 45       		.byte	0x45
 2107 08d3 A9000000 		.4byte	0xa9
 2108 08d7 13       		.byte	0x13
 2109 08d8 07       		.uleb128 0x7
 2110 08d9 67060000 		.4byte	.LASF138
 2111 08dd 12       		.byte	0x12
 2112 08de 46       		.byte	0x46
 2113 08df A9000000 		.4byte	0xa9
 2114 08e3 14       		.byte	0x14
 2115 08e4 07       		.uleb128 0x7
 2116 08e5 A6040000 		.4byte	.LASF139
 2117 08e9 12       		.byte	0x12
 2118 08ea 48       		.byte	0x48
 2119 08eb A9000000 		.4byte	0xa9
 2120 08ef 15       		.byte	0x15
 2121 08f0 00       		.byte	0
 2122 08f1 17       		.uleb128 0x17
 2123 08f2 DD070000 		.4byte	0x7dd
 2124 08f6 01090000 		.4byte	0x901
 2125 08fa 18       		.uleb128 0x18
 2126 08fb BE040000 		.4byte	0x4be
 2127 08ff 03       		.byte	0x3
 2128 0900 00       		.byte	0
 2129 0901 04       		.uleb128 0x4
 2130 0902 27030000 		.4byte	.LASF140
 2131 0906 12       		.byte	0x12
 2132 0907 49       		.byte	0x49
 2133 0908 10080000 		.4byte	0x810
 2134 090c 0B       		.uleb128 0xb
 2135 090d 01090000 		.4byte	0x901
 2136 0911 12       		.uleb128 0x12
 2137 0912 47040000 		.4byte	.LASF141
 2138 0916 12       		.byte	0x12
 2139 0917 6E       		.byte	0x6e
 2140 0918 0C090000 		.4byte	0x90c
 2141 091c 04       		.uleb128 0x4
 2142 091d 76030000 		.4byte	.LASF142
 2143 0921 06       		.byte	0x6
 2144 0922 34       		.byte	0x34
ARM GAS  /tmp/cc843xpW.s 			page 39


 2145 0923 9B070000 		.4byte	0x79b
 2146 0927 0A       		.uleb128 0xa
 2147 0928 04       		.byte	0x4
 2148 0929 1C090000 		.4byte	0x91c
 2149 092d 06       		.uleb128 0x6
 2150 092e 32050000 		.4byte	.LASF143
 2151 0932 08       		.byte	0x8
 2152 0933 13       		.byte	0x13
 2153 0934 3B       		.byte	0x3b
 2154 0935 46090000 		.4byte	0x946
 2155 0939 07       		.uleb128 0x7
 2156 093a EC040000 		.4byte	.LASF144
 2157 093e 13       		.byte	0x13
 2158 093f 3C       		.byte	0x3c
 2159 0940 A9020000 		.4byte	0x2a9
 2160 0944 00       		.byte	0
 2161 0945 00       		.byte	0
 2162 0946 04       		.uleb128 0x4
 2163 0947 82010000 		.4byte	.LASF145
 2164 094b 13       		.byte	0x13
 2165 094c 3E       		.byte	0x3e
 2166 094d 2D090000 		.4byte	0x92d
 2167 0951 03       		.uleb128 0x3
 2168 0952 01       		.byte	0x1
 2169 0953 02       		.byte	0x2
 2170 0954 12060000 		.4byte	.LASF146
 2171 0958 1A       		.uleb128 0x1a
 2172 0959 45050000 		.4byte	.LASF148
 2173 095d 07       		.byte	0x7
 2174 095e 2801     		.2byte	0x128
 2175 0960 27010000 		.4byte	0x127
 2176 0964 00000000 		.4byte	.LFB239
 2177 0968 7C000000 		.4byte	.LFE239-.LFB239
 2178 096c 01       		.uleb128 0x1
 2179 096d 9C       		.byte	0x9c
 2180 096e BC090000 		.4byte	0x9bc
 2181 0972 1B       		.uleb128 0x1b
 2182 0973 637000   		.ascii	"cp\000"
 2183 0976 07       		.byte	0x7
 2184 0977 2801     		.2byte	0x128
 2185 0979 BC090000 		.4byte	0x9bc
 2186 097d 02       		.uleb128 0x2
 2187 097e 91       		.byte	0x91
 2188 097f 6C       		.sleb128 -20
 2189 0980 1C       		.uleb128 0x1c
 2190 0981 A5050000 		.4byte	.LASF147
 2191 0985 07       		.byte	0x7
 2192 0986 2801     		.2byte	0x128
 2193 0988 53010000 		.4byte	0x153
 2194 098c 02       		.uleb128 0x2
 2195 098d 91       		.byte	0x91
 2196 098e 68       		.sleb128 -24
 2197 098f 1D       		.uleb128 0x1d
 2198 0990 6D7000   		.ascii	"mp\000"
 2199 0993 07       		.byte	0x7
 2200 0994 2901     		.2byte	0x129
 2201 0996 27090000 		.4byte	0x927
ARM GAS  /tmp/cc843xpW.s 			page 40


 2202 099a 02       		.uleb128 0x2
 2203 099b 91       		.byte	0x91
 2204 099c 74       		.sleb128 -12
 2205 099d 1D       		.uleb128 0x1d
 2206 099e 6D736700 		.ascii	"msg\000"
 2207 09a2 07       		.byte	0x7
 2208 09a3 2A01     		.2byte	0x12a
 2209 09a5 27010000 		.4byte	0x127
 2210 09a9 02       		.uleb128 0x2
 2211 09aa 91       		.byte	0x91
 2212 09ab 70       		.sleb128 -16
 2213 09ac 1E       		.uleb128 0x1e
 2214 09ad 7E060000 		.4byte	.LASF151
 2215 09b1 D2090000 		.4byte	0x9d2
 2216 09b5 05       		.uleb128 0x5
 2217 09b6 03       		.byte	0x3
 2218 09b7 00000000 		.4byte	__func__.7899
 2219 09bb 00       		.byte	0
 2220 09bc 0A       		.uleb128 0xa
 2221 09bd 04       		.byte	0x4
 2222 09be 46090000 		.4byte	0x946
 2223 09c2 17       		.uleb128 0x17
 2224 09c3 E4070000 		.4byte	0x7e4
 2225 09c7 D2090000 		.4byte	0x9d2
 2226 09cb 18       		.uleb128 0x18
 2227 09cc BE040000 		.4byte	0x4be
 2228 09d0 12       		.byte	0x12
 2229 09d1 00       		.byte	0
 2230 09d2 0B       		.uleb128 0xb
 2231 09d3 C2090000 		.4byte	0x9c2
 2232 09d7 1A       		.uleb128 0x1a
 2233 09d8 51080000 		.4byte	.LASF149
 2234 09dc 07       		.byte	0x7
 2235 09dd 0201     		.2byte	0x102
 2236 09df 27010000 		.4byte	0x127
 2237 09e3 00000000 		.4byte	.LFB238
 2238 09e7 24000000 		.4byte	.LFE238-.LFB238
 2239 09eb 01       		.uleb128 0x1
 2240 09ec 9C       		.byte	0x9c
 2241 09ed 1E0A0000 		.4byte	0xa1e
 2242 09f1 1B       		.uleb128 0x1b
 2243 09f2 637000   		.ascii	"cp\000"
 2244 09f5 07       		.byte	0x7
 2245 09f6 0201     		.2byte	0x102
 2246 09f8 BC090000 		.4byte	0x9bc
 2247 09fc 02       		.uleb128 0x2
 2248 09fd 91       		.byte	0x91
 2249 09fe 6C       		.sleb128 -20
 2250 09ff 1C       		.uleb128 0x1c
 2251 0a00 A5050000 		.4byte	.LASF147
 2252 0a04 07       		.byte	0x7
 2253 0a05 0201     		.2byte	0x102
 2254 0a07 53010000 		.4byte	0x153
 2255 0a0b 02       		.uleb128 0x2
 2256 0a0c 91       		.byte	0x91
 2257 0a0d 68       		.sleb128 -24
 2258 0a0e 1D       		.uleb128 0x1d
ARM GAS  /tmp/cc843xpW.s 			page 41


 2259 0a0f 6D736700 		.ascii	"msg\000"
 2260 0a13 07       		.byte	0x7
 2261 0a14 0301     		.2byte	0x103
 2262 0a16 27010000 		.4byte	0x127
 2263 0a1a 02       		.uleb128 0x2
 2264 0a1b 91       		.byte	0x91
 2265 0a1c 74       		.sleb128 -12
 2266 0a1d 00       		.byte	0
 2267 0a1e 1F       		.uleb128 0x1f
 2268 0a1f EA010000 		.4byte	.LASF150
 2269 0a23 07       		.byte	0x7
 2270 0a24 CD       		.byte	0xcd
 2271 0a25 27010000 		.4byte	0x127
 2272 0a29 00000000 		.4byte	.LFB237
 2273 0a2d 6C000000 		.4byte	.LFE237-.LFB237
 2274 0a31 01       		.uleb128 0x1
 2275 0a32 9C       		.byte	0x9c
 2276 0a33 7D0A0000 		.4byte	0xa7d
 2277 0a37 20       		.uleb128 0x20
 2278 0a38 637000   		.ascii	"cp\000"
 2279 0a3b 07       		.byte	0x7
 2280 0a3c CD       		.byte	0xcd
 2281 0a3d BC090000 		.4byte	0x9bc
 2282 0a41 02       		.uleb128 0x2
 2283 0a42 91       		.byte	0x91
 2284 0a43 64       		.sleb128 -28
 2285 0a44 21       		.uleb128 0x21
 2286 0a45 63747000 		.ascii	"ctp\000"
 2287 0a49 07       		.byte	0x7
 2288 0a4a CE       		.byte	0xce
 2289 0a4b 7F020000 		.4byte	0x27f
 2290 0a4f 02       		.uleb128 0x2
 2291 0a50 91       		.byte	0x91
 2292 0a51 74       		.sleb128 -12
 2293 0a52 21       		.uleb128 0x21
 2294 0a53 6D7000   		.ascii	"mp\000"
 2295 0a56 07       		.byte	0x7
 2296 0a57 CF       		.byte	0xcf
 2297 0a58 27090000 		.4byte	0x927
 2298 0a5c 02       		.uleb128 0x2
 2299 0a5d 91       		.byte	0x91
 2300 0a5e 70       		.sleb128 -16
 2301 0a5f 21       		.uleb128 0x21
 2302 0a60 6D736700 		.ascii	"msg\000"
 2303 0a64 07       		.byte	0x7
 2304 0a65 D0       		.byte	0xd0
 2305 0a66 27010000 		.4byte	0x127
 2306 0a6a 02       		.uleb128 0x2
 2307 0a6b 91       		.byte	0x91
 2308 0a6c 6C       		.sleb128 -20
 2309 0a6d 1E       		.uleb128 0x1e
 2310 0a6e 7E060000 		.4byte	.LASF151
 2311 0a72 8D0A0000 		.4byte	0xa8d
 2312 0a76 05       		.uleb128 0x5
 2313 0a77 03       		.byte	0x3
 2314 0a78 00000000 		.4byte	__func__.7887
 2315 0a7c 00       		.byte	0
ARM GAS  /tmp/cc843xpW.s 			page 42


 2316 0a7d 17       		.uleb128 0x17
 2317 0a7e E4070000 		.4byte	0x7e4
 2318 0a82 8D0A0000 		.4byte	0xa8d
 2319 0a86 18       		.uleb128 0x18
 2320 0a87 BE040000 		.4byte	0x4be
 2321 0a8b 0B       		.byte	0xb
 2322 0a8c 00       		.byte	0
 2323 0a8d 0B       		.uleb128 0xb
 2324 0a8e 7D0A0000 		.4byte	0xa7d
 2325 0a92 1F       		.uleb128 0x1f
 2326 0a93 D6070000 		.4byte	.LASF152
 2327 0a97 07       		.byte	0x7
 2328 0a98 B3       		.byte	0xb3
 2329 0a99 27010000 		.4byte	0x127
 2330 0a9d 00000000 		.4byte	.LFB236
 2331 0aa1 20000000 		.4byte	.LFE236-.LFB236
 2332 0aa5 01       		.uleb128 0x1
 2333 0aa6 9C       		.byte	0x9c
 2334 0aa7 C70A0000 		.4byte	0xac7
 2335 0aab 20       		.uleb128 0x20
 2336 0aac 637000   		.ascii	"cp\000"
 2337 0aaf 07       		.byte	0x7
 2338 0ab0 B3       		.byte	0xb3
 2339 0ab1 BC090000 		.4byte	0x9bc
 2340 0ab5 02       		.uleb128 0x2
 2341 0ab6 91       		.byte	0x91
 2342 0ab7 6C       		.sleb128 -20
 2343 0ab8 21       		.uleb128 0x21
 2344 0ab9 6D736700 		.ascii	"msg\000"
 2345 0abd 07       		.byte	0x7
 2346 0abe B4       		.byte	0xb4
 2347 0abf 27010000 		.4byte	0x127
 2348 0ac3 02       		.uleb128 0x2
 2349 0ac4 91       		.byte	0x91
 2350 0ac5 74       		.sleb128 -12
 2351 0ac6 00       		.byte	0
 2352 0ac7 22       		.uleb128 0x22
 2353 0ac8 B0000000 		.4byte	.LASF153
 2354 0acc 07       		.byte	0x7
 2355 0acd 95       		.byte	0x95
 2356 0ace 00000000 		.4byte	.LFB235
 2357 0ad2 4C000000 		.4byte	.LFE235-.LFB235
 2358 0ad6 01       		.uleb128 0x1
 2359 0ad7 9C       		.byte	0x9c
 2360 0ad8 F90A0000 		.4byte	0xaf9
 2361 0adc 20       		.uleb128 0x20
 2362 0add 637000   		.ascii	"cp\000"
 2363 0ae0 07       		.byte	0x7
 2364 0ae1 95       		.byte	0x95
 2365 0ae2 BC090000 		.4byte	0x9bc
 2366 0ae6 02       		.uleb128 0x2
 2367 0ae7 91       		.byte	0x91
 2368 0ae8 74       		.sleb128 -12
 2369 0ae9 1E       		.uleb128 0x1e
 2370 0aea 7E060000 		.4byte	.LASF151
 2371 0aee 090B0000 		.4byte	0xb09
 2372 0af2 05       		.uleb128 0x5
ARM GAS  /tmp/cc843xpW.s 			page 43


 2373 0af3 03       		.byte	0x3
 2374 0af4 00000000 		.4byte	__func__.7873
 2375 0af8 00       		.byte	0
 2376 0af9 17       		.uleb128 0x17
 2377 0afa E4070000 		.4byte	0x7e4
 2378 0afe 090B0000 		.4byte	0xb09
 2379 0b02 18       		.uleb128 0x18
 2380 0b03 BE040000 		.4byte	0x4be
 2381 0b07 10       		.byte	0x10
 2382 0b08 00       		.byte	0
 2383 0b09 0B       		.uleb128 0xb
 2384 0b0a F90A0000 		.4byte	0xaf9
 2385 0b0e 22       		.uleb128 0x22
 2386 0b0f D8000000 		.4byte	.LASF154
 2387 0b13 07       		.byte	0x7
 2388 0b14 82       		.byte	0x82
 2389 0b15 00000000 		.4byte	.LFB234
 2390 0b19 20000000 		.4byte	.LFE234-.LFB234
 2391 0b1d 01       		.uleb128 0x1
 2392 0b1e 9C       		.byte	0x9c
 2393 0b1f 310B0000 		.4byte	0xb31
 2394 0b23 20       		.uleb128 0x20
 2395 0b24 637000   		.ascii	"cp\000"
 2396 0b27 07       		.byte	0x7
 2397 0b28 82       		.byte	0x82
 2398 0b29 BC090000 		.4byte	0x9bc
 2399 0b2d 02       		.uleb128 0x2
 2400 0b2e 91       		.byte	0x91
 2401 0b2f 74       		.sleb128 -12
 2402 0b30 00       		.byte	0
 2403 0b31 22       		.uleb128 0x22
 2404 0b32 04060000 		.4byte	.LASF155
 2405 0b36 07       		.byte	0x7
 2406 0b37 6F       		.byte	0x6f
 2407 0b38 00000000 		.4byte	.LFB233
 2408 0b3c 48000000 		.4byte	.LFE233-.LFB233
 2409 0b40 01       		.uleb128 0x1
 2410 0b41 9C       		.byte	0x9c
 2411 0b42 7A0B0000 		.4byte	0xb7a
 2412 0b46 20       		.uleb128 0x20
 2413 0b47 637000   		.ascii	"cp\000"
 2414 0b4a 07       		.byte	0x7
 2415 0b4b 6F       		.byte	0x6f
 2416 0b4c BC090000 		.4byte	0x9bc
 2417 0b50 02       		.uleb128 0x2
 2418 0b51 91       		.byte	0x91
 2419 0b52 6C       		.sleb128 -20
 2420 0b53 1E       		.uleb128 0x1e
 2421 0b54 7E060000 		.4byte	.LASF151
 2422 0b58 8A0B0000 		.4byte	0xb8a
 2423 0b5c 05       		.uleb128 0x5
 2424 0b5d 03       		.byte	0x3
 2425 0b5e 00000000 		.4byte	__func__.7865
 2426 0b62 23       		.uleb128 0x23
 2427 0b63 24000000 		.4byte	.LBB10
 2428 0b67 16000000 		.4byte	.LBE10-.LBB10
 2429 0b6b 21       		.uleb128 0x21
ARM GAS  /tmp/cc843xpW.s 			page 44


 2430 0b6c 747000   		.ascii	"tp\000"
 2431 0b6f 07       		.byte	0x7
 2432 0b70 75       		.byte	0x75
 2433 0b71 7F020000 		.4byte	0x27f
 2434 0b75 02       		.uleb128 0x2
 2435 0b76 91       		.byte	0x91
 2436 0b77 74       		.sleb128 -12
 2437 0b78 00       		.byte	0
 2438 0b79 00       		.byte	0
 2439 0b7a 17       		.uleb128 0x17
 2440 0b7b E4070000 		.4byte	0x7e4
 2441 0b7f 8A0B0000 		.4byte	0xb8a
 2442 0b83 18       		.uleb128 0x18
 2443 0b84 BE040000 		.4byte	0x4be
 2444 0b88 0D       		.byte	0xd
 2445 0b89 00       		.byte	0
 2446 0b8a 0B       		.uleb128 0xb
 2447 0b8b 7A0B0000 		.4byte	0xb7a
 2448 0b8f 22       		.uleb128 0x22
 2449 0b90 8D030000 		.4byte	.LASF156
 2450 0b94 07       		.byte	0x7
 2451 0b95 59       		.byte	0x59
 2452 0b96 00000000 		.4byte	.LFB232
 2453 0b9a 48000000 		.4byte	.LFE232-.LFB232
 2454 0b9e 01       		.uleb128 0x1
 2455 0b9f 9C       		.byte	0x9c
 2456 0ba0 C10B0000 		.4byte	0xbc1
 2457 0ba4 20       		.uleb128 0x20
 2458 0ba5 637000   		.ascii	"cp\000"
 2459 0ba8 07       		.byte	0x7
 2460 0ba9 59       		.byte	0x59
 2461 0baa BC090000 		.4byte	0x9bc
 2462 0bae 02       		.uleb128 0x2
 2463 0baf 91       		.byte	0x91
 2464 0bb0 74       		.sleb128 -12
 2465 0bb1 1E       		.uleb128 0x1e
 2466 0bb2 7E060000 		.4byte	.LASF151
 2467 0bb6 D10B0000 		.4byte	0xbd1
 2468 0bba 05       		.uleb128 0x5
 2469 0bbb 03       		.byte	0x3
 2470 0bbc 00000000 		.4byte	__func__.7861
 2471 0bc0 00       		.byte	0
 2472 0bc1 17       		.uleb128 0x17
 2473 0bc2 E4070000 		.4byte	0x7e4
 2474 0bc6 D10B0000 		.4byte	0xbd1
 2475 0bca 18       		.uleb128 0x18
 2476 0bcb BE040000 		.4byte	0x4be
 2477 0bcf 0C       		.byte	0xc
 2478 0bd0 00       		.byte	0
 2479 0bd1 0B       		.uleb128 0xb
 2480 0bd2 C10B0000 		.4byte	0xbc1
 2481 0bd6 22       		.uleb128 0x22
 2482 0bd7 50070000 		.4byte	.LASF157
 2483 0bdb 07       		.byte	0x7
 2484 0bdc 4B       		.byte	0x4b
 2485 0bdd 00000000 		.4byte	.LFB231
 2486 0be1 28000000 		.4byte	.LFE231-.LFB231
ARM GAS  /tmp/cc843xpW.s 			page 45


 2487 0be5 01       		.uleb128 0x1
 2488 0be6 9C       		.byte	0x9c
 2489 0be7 080C0000 		.4byte	0xc08
 2490 0beb 20       		.uleb128 0x20
 2491 0bec 637000   		.ascii	"cp\000"
 2492 0bef 07       		.byte	0x7
 2493 0bf0 4B       		.byte	0x4b
 2494 0bf1 BC090000 		.4byte	0x9bc
 2495 0bf5 02       		.uleb128 0x2
 2496 0bf6 91       		.byte	0x91
 2497 0bf7 74       		.sleb128 -12
 2498 0bf8 1E       		.uleb128 0x1e
 2499 0bf9 7E060000 		.4byte	.LASF151
 2500 0bfd 090B0000 		.4byte	0xb09
 2501 0c01 05       		.uleb128 0x5
 2502 0c02 03       		.byte	0x3
 2503 0c03 00000000 		.4byte	__func__.7857
 2504 0c07 00       		.byte	0
 2505 0c08 24       		.uleb128 0x24
 2506 0c09 DF060000 		.4byte	.LASF158
 2507 0c0d 06       		.byte	0x6
 2508 0c0e 8F       		.byte	0x8f
 2509 0c0f 27090000 		.4byte	0x927
 2510 0c13 00000000 		.4byte	.LFB204
 2511 0c17 0E000000 		.4byte	.LFE204-.LFB204
 2512 0c1b 01       		.uleb128 0x1
 2513 0c1c 9C       		.byte	0x9c
 2514 0c1d 25       		.uleb128 0x25
 2515 0c1e 1A080000 		.4byte	.LASF159
 2516 0c22 05       		.byte	0x5
 2517 0c23 AE       		.byte	0xae
 2518 0c24 7F020000 		.4byte	0x27f
 2519 0c28 00000000 		.4byte	.LFB178
 2520 0c2c 0C000000 		.4byte	.LFE178-.LFB178
 2521 0c30 01       		.uleb128 0x1
 2522 0c31 9C       		.byte	0x9c
 2523 0c32 26       		.uleb128 0x26
 2524 0c33 6E080000 		.4byte	.LASF160
 2525 0c37 04       		.byte	0x4
 2526 0c38 6601     		.2byte	0x166
 2527 0c3a 00000000 		.4byte	.LFB157
 2528 0c3e 3C000000 		.4byte	.LFE157-.LFB157
 2529 0c42 01       		.uleb128 0x1
 2530 0c43 9C       		.byte	0x9c
 2531 0c44 580C0000 		.4byte	0xc58
 2532 0c48 1E       		.uleb128 0x1e
 2533 0c49 7E060000 		.4byte	.LASF151
 2534 0c4d 8D0A0000 		.4byte	0xa8d
 2535 0c51 05       		.uleb128 0x5
 2536 0c52 03       		.byte	0x3
 2537 0c53 00000000 		.4byte	__func__.7157
 2538 0c57 00       		.byte	0
 2539 0c58 27       		.uleb128 0x27
 2540 0c59 8F060000 		.4byte	.LASF170
 2541 0c5d 04       		.byte	0x4
 2542 0c5e 5A01     		.2byte	0x15a
 2543 0c60 00000000 		.4byte	.LFB156
ARM GAS  /tmp/cc843xpW.s 			page 46


 2544 0c64 12000000 		.4byte	.LFE156-.LFB156
 2545 0c68 01       		.uleb128 0x1
 2546 0c69 9C       		.byte	0x9c
 2547 0c6a 28       		.uleb128 0x28
 2548 0c6b 66070000 		.4byte	.LASF162
 2549 0c6f 03       		.byte	0x3
 2550 0c70 9F02     		.2byte	0x29f
 2551 0c72 7F020000 		.4byte	0x27f
 2552 0c76 00000000 		.4byte	.LFB146
 2553 0c7a 22000000 		.4byte	.LFE146-.LFB146
 2554 0c7e 01       		.uleb128 0x1
 2555 0c7f 9C       		.byte	0x9c
 2556 0c80 A20C0000 		.4byte	0xca2
 2557 0c84 1B       		.uleb128 0x1b
 2558 0c85 74717000 		.ascii	"tqp\000"
 2559 0c89 03       		.byte	0x3
 2560 0c8a 9F02     		.2byte	0x29f
 2561 0c8c A20C0000 		.4byte	0xca2
 2562 0c90 02       		.uleb128 0x2
 2563 0c91 91       		.byte	0x91
 2564 0c92 74       		.sleb128 -12
 2565 0c93 1D       		.uleb128 0x1d
 2566 0c94 747000   		.ascii	"tp\000"
 2567 0c97 03       		.byte	0x3
 2568 0c98 A002     		.2byte	0x2a0
 2569 0c9a 7F020000 		.4byte	0x27f
 2570 0c9e 02       		.uleb128 0x2
 2571 0c9f 91       		.byte	0x91
 2572 0ca0 7C       		.sleb128 -4
 2573 0ca1 00       		.byte	0
 2574 0ca2 0A       		.uleb128 0xa
 2575 0ca3 04       		.byte	0x4
 2576 0ca4 A9020000 		.4byte	0x2a9
 2577 0ca8 29       		.uleb128 0x29
 2578 0ca9 85080000 		.4byte	.LASF161
 2579 0cad 03       		.byte	0x3
 2580 0cae 8B02     		.2byte	0x28b
 2581 0cb0 00000000 		.4byte	.LFB144
 2582 0cb4 46000000 		.4byte	.LFE144-.LFB144
 2583 0cb8 01       		.uleb128 0x1
 2584 0cb9 9C       		.byte	0x9c
 2585 0cba EA0C0000 		.4byte	0xcea
 2586 0cbe 1B       		.uleb128 0x1b
 2587 0cbf 747000   		.ascii	"tp\000"
 2588 0cc2 03       		.byte	0x3
 2589 0cc3 8B02     		.2byte	0x28b
 2590 0cc5 7F020000 		.4byte	0x27f
 2591 0cc9 02       		.uleb128 0x2
 2592 0cca 91       		.byte	0x91
 2593 0ccb 74       		.sleb128 -12
 2594 0ccc 1B       		.uleb128 0x1b
 2595 0ccd 74717000 		.ascii	"tqp\000"
 2596 0cd1 03       		.byte	0x3
 2597 0cd2 8B02     		.2byte	0x28b
 2598 0cd4 A20C0000 		.4byte	0xca2
 2599 0cd8 02       		.uleb128 0x2
 2600 0cd9 91       		.byte	0x91
ARM GAS  /tmp/cc843xpW.s 			page 47


 2601 0cda 70       		.sleb128 -16
 2602 0cdb 1D       		.uleb128 0x1d
 2603 0cdc 637000   		.ascii	"cp\000"
 2604 0cdf 03       		.byte	0x3
 2605 0ce0 8D02     		.2byte	0x28d
 2606 0ce2 7F020000 		.4byte	0x27f
 2607 0ce6 02       		.uleb128 0x2
 2608 0ce7 91       		.byte	0x91
 2609 0ce8 7C       		.sleb128 -4
 2610 0ce9 00       		.byte	0
 2611 0cea 28       		.uleb128 0x28
 2612 0ceb FF010000 		.4byte	.LASF163
 2613 0cef 03       		.byte	0x3
 2614 0cf0 7502     		.2byte	0x275
 2615 0cf2 51090000 		.4byte	0x951
 2616 0cf6 00000000 		.4byte	.LFB141
 2617 0cfa 1A000000 		.4byte	.LFE141-.LFB141
 2618 0cfe 01       		.uleb128 0x1
 2619 0cff 9C       		.byte	0x9c
 2620 0d00 140D0000 		.4byte	0xd14
 2621 0d04 1B       		.uleb128 0x1b
 2622 0d05 74717000 		.ascii	"tqp\000"
 2623 0d09 03       		.byte	0x3
 2624 0d0a 7502     		.2byte	0x275
 2625 0d0c 140D0000 		.4byte	0xd14
 2626 0d10 02       		.uleb128 0x2
 2627 0d11 91       		.byte	0x91
 2628 0d12 7C       		.sleb128 -4
 2629 0d13 00       		.byte	0
 2630 0d14 0A       		.uleb128 0xa
 2631 0d15 04       		.byte	0x4
 2632 0d16 B4020000 		.4byte	0x2b4
 2633 0d1a 29       		.uleb128 0x29
 2634 0d1b 82000000 		.4byte	.LASF164
 2635 0d1f 03       		.byte	0x3
 2636 0d20 5A02     		.2byte	0x25a
 2637 0d22 00000000 		.4byte	.LFB139
 2638 0d26 16000000 		.4byte	.LFE139-.LFB139
 2639 0d2a 01       		.uleb128 0x1
 2640 0d2b 9C       		.byte	0x9c
 2641 0d2c 400D0000 		.4byte	0xd40
 2642 0d30 1B       		.uleb128 0x1b
 2643 0d31 74717000 		.ascii	"tqp\000"
 2644 0d35 03       		.byte	0x3
 2645 0d36 5A02     		.2byte	0x25a
 2646 0d38 A20C0000 		.4byte	0xca2
 2647 0d3c 02       		.uleb128 0x2
 2648 0d3d 91       		.byte	0x91
 2649 0d3e 7C       		.sleb128 -4
 2650 0d3f 00       		.byte	0
 2651 0d40 29       		.uleb128 0x29
 2652 0d41 CB010000 		.4byte	.LASF165
 2653 0d45 01       		.byte	0x1
 2654 0d46 E001     		.2byte	0x1e0
 2655 0d48 00000000 		.4byte	.LFB128
 2656 0d4c 12000000 		.4byte	.LFE128-.LFB128
 2657 0d50 01       		.uleb128 0x1
ARM GAS  /tmp/cc843xpW.s 			page 48


 2658 0d51 9C       		.byte	0x9c
 2659 0d52 700D0000 		.4byte	0xd70
 2660 0d56 2A       		.uleb128 0x2a
 2661 0d57 A00D0000 		.4byte	0xda0
 2662 0d5b 06000000 		.4byte	.LBB8
 2663 0d5f 06000000 		.4byte	.LBE8-.LBB8
 2664 0d63 01       		.byte	0x1
 2665 0d64 E301     		.2byte	0x1e3
 2666 0d66 2B       		.uleb128 0x2b
 2667 0d67 A90D0000 		.4byte	0xda9
 2668 0d6b 02       		.uleb128 0x2
 2669 0d6c 91       		.byte	0x91
 2670 0d6d 7C       		.sleb128 -4
 2671 0d6e 00       		.byte	0
 2672 0d6f 00       		.byte	0
 2673 0d70 29       		.uleb128 0x29
 2674 0d71 8D000000 		.4byte	.LASF166
 2675 0d75 01       		.byte	0x1
 2676 0d76 C801     		.2byte	0x1c8
 2677 0d78 00000000 		.4byte	.LFB127
 2678 0d7c 12000000 		.4byte	.LFE127-.LFB127
 2679 0d80 01       		.uleb128 0x1
 2680 0d81 9C       		.byte	0x9c
 2681 0d82 A00D0000 		.4byte	0xda0
 2682 0d86 2A       		.uleb128 0x2a
 2683 0d87 A00D0000 		.4byte	0xda0
 2684 0d8b 06000000 		.4byte	.LBB6
 2685 0d8f 06000000 		.4byte	.LBE6-.LBB6
 2686 0d93 01       		.byte	0x1
 2687 0d94 D001     		.2byte	0x1d0
 2688 0d96 2B       		.uleb128 0x2b
 2689 0d97 A90D0000 		.4byte	0xda9
 2690 0d9b 02       		.uleb128 0x2
 2691 0d9c 91       		.byte	0x91
 2692 0d9d 7C       		.sleb128 -4
 2693 0d9e 00       		.byte	0
 2694 0d9f 00       		.byte	0
 2695 0da0 2C       		.uleb128 0x2c
 2696 0da1 A1070000 		.4byte	.LASF171
 2697 0da5 02       		.byte	0x2
 2698 0da6 2202     		.2byte	0x222
 2699 0da8 03       		.byte	0x3
 2700 0da9 2D       		.uleb128 0x2d
 2701 0daa 7E030000 		.4byte	.LASF172
 2702 0dae 02       		.byte	0x2
 2703 0daf 2202     		.2byte	0x222
 2704 0db1 CF000000 		.4byte	0xcf
 2705 0db5 00       		.byte	0
 2706 0db6 00       		.byte	0
 2707              		.section	.debug_abbrev,"",%progbits
 2708              	.Ldebug_abbrev0:
 2709 0000 01       		.uleb128 0x1
 2710 0001 11       		.uleb128 0x11
 2711 0002 01       		.byte	0x1
 2712 0003 25       		.uleb128 0x25
 2713 0004 0E       		.uleb128 0xe
 2714 0005 13       		.uleb128 0x13
ARM GAS  /tmp/cc843xpW.s 			page 49


 2715 0006 0B       		.uleb128 0xb
 2716 0007 03       		.uleb128 0x3
 2717 0008 0E       		.uleb128 0xe
 2718 0009 1B       		.uleb128 0x1b
 2719 000a 0E       		.uleb128 0xe
 2720 000b 55       		.uleb128 0x55
 2721 000c 17       		.uleb128 0x17
 2722 000d 11       		.uleb128 0x11
 2723 000e 01       		.uleb128 0x1
 2724 000f 10       		.uleb128 0x10
 2725 0010 17       		.uleb128 0x17
 2726 0011 00       		.byte	0
 2727 0012 00       		.byte	0
 2728 0013 02       		.uleb128 0x2
 2729 0014 24       		.uleb128 0x24
 2730 0015 00       		.byte	0
 2731 0016 0B       		.uleb128 0xb
 2732 0017 0B       		.uleb128 0xb
 2733 0018 3E       		.uleb128 0x3e
 2734 0019 0B       		.uleb128 0xb
 2735 001a 03       		.uleb128 0x3
 2736 001b 08       		.uleb128 0x8
 2737 001c 00       		.byte	0
 2738 001d 00       		.byte	0
 2739 001e 03       		.uleb128 0x3
 2740 001f 24       		.uleb128 0x24
 2741 0020 00       		.byte	0
 2742 0021 0B       		.uleb128 0xb
 2743 0022 0B       		.uleb128 0xb
 2744 0023 3E       		.uleb128 0x3e
 2745 0024 0B       		.uleb128 0xb
 2746 0025 03       		.uleb128 0x3
 2747 0026 0E       		.uleb128 0xe
 2748 0027 00       		.byte	0
 2749 0028 00       		.byte	0
 2750 0029 04       		.uleb128 0x4
 2751 002a 16       		.uleb128 0x16
 2752 002b 00       		.byte	0
 2753 002c 03       		.uleb128 0x3
 2754 002d 0E       		.uleb128 0xe
 2755 002e 3A       		.uleb128 0x3a
 2756 002f 0B       		.uleb128 0xb
 2757 0030 3B       		.uleb128 0x3b
 2758 0031 0B       		.uleb128 0xb
 2759 0032 49       		.uleb128 0x49
 2760 0033 13       		.uleb128 0x13
 2761 0034 00       		.byte	0
 2762 0035 00       		.byte	0
 2763 0036 05       		.uleb128 0x5
 2764 0037 35       		.uleb128 0x35
 2765 0038 00       		.byte	0
 2766 0039 49       		.uleb128 0x49
 2767 003a 13       		.uleb128 0x13
 2768 003b 00       		.byte	0
 2769 003c 00       		.byte	0
 2770 003d 06       		.uleb128 0x6
 2771 003e 13       		.uleb128 0x13
ARM GAS  /tmp/cc843xpW.s 			page 50


 2772 003f 01       		.byte	0x1
 2773 0040 03       		.uleb128 0x3
 2774 0041 0E       		.uleb128 0xe
 2775 0042 0B       		.uleb128 0xb
 2776 0043 0B       		.uleb128 0xb
 2777 0044 3A       		.uleb128 0x3a
 2778 0045 0B       		.uleb128 0xb
 2779 0046 3B       		.uleb128 0x3b
 2780 0047 0B       		.uleb128 0xb
 2781 0048 01       		.uleb128 0x1
 2782 0049 13       		.uleb128 0x13
 2783 004a 00       		.byte	0
 2784 004b 00       		.byte	0
 2785 004c 07       		.uleb128 0x7
 2786 004d 0D       		.uleb128 0xd
 2787 004e 00       		.byte	0
 2788 004f 03       		.uleb128 0x3
 2789 0050 0E       		.uleb128 0xe
 2790 0051 3A       		.uleb128 0x3a
 2791 0052 0B       		.uleb128 0xb
 2792 0053 3B       		.uleb128 0x3b
 2793 0054 0B       		.uleb128 0xb
 2794 0055 49       		.uleb128 0x49
 2795 0056 13       		.uleb128 0x13
 2796 0057 38       		.uleb128 0x38
 2797 0058 0B       		.uleb128 0xb
 2798 0059 00       		.byte	0
 2799 005a 00       		.byte	0
 2800 005b 08       		.uleb128 0x8
 2801 005c 0D       		.uleb128 0xd
 2802 005d 00       		.byte	0
 2803 005e 03       		.uleb128 0x3
 2804 005f 08       		.uleb128 0x8
 2805 0060 3A       		.uleb128 0x3a
 2806 0061 0B       		.uleb128 0xb
 2807 0062 3B       		.uleb128 0x3b
 2808 0063 05       		.uleb128 0x5
 2809 0064 49       		.uleb128 0x49
 2810 0065 13       		.uleb128 0x13
 2811 0066 38       		.uleb128 0x38
 2812 0067 0B       		.uleb128 0xb
 2813 0068 00       		.byte	0
 2814 0069 00       		.byte	0
 2815 006a 09       		.uleb128 0x9
 2816 006b 0D       		.uleb128 0xd
 2817 006c 00       		.byte	0
 2818 006d 03       		.uleb128 0x3
 2819 006e 0E       		.uleb128 0xe
 2820 006f 3A       		.uleb128 0x3a
 2821 0070 0B       		.uleb128 0xb
 2822 0071 3B       		.uleb128 0x3b
 2823 0072 05       		.uleb128 0x5
 2824 0073 49       		.uleb128 0x49
 2825 0074 13       		.uleb128 0x13
 2826 0075 38       		.uleb128 0x38
 2827 0076 0B       		.uleb128 0xb
 2828 0077 00       		.byte	0
ARM GAS  /tmp/cc843xpW.s 			page 51


 2829 0078 00       		.byte	0
 2830 0079 0A       		.uleb128 0xa
 2831 007a 0F       		.uleb128 0xf
 2832 007b 00       		.byte	0
 2833 007c 0B       		.uleb128 0xb
 2834 007d 0B       		.uleb128 0xb
 2835 007e 49       		.uleb128 0x49
 2836 007f 13       		.uleb128 0x13
 2837 0080 00       		.byte	0
 2838 0081 00       		.byte	0
 2839 0082 0B       		.uleb128 0xb
 2840 0083 26       		.uleb128 0x26
 2841 0084 00       		.byte	0
 2842 0085 49       		.uleb128 0x49
 2843 0086 13       		.uleb128 0x13
 2844 0087 00       		.byte	0
 2845 0088 00       		.byte	0
 2846 0089 0C       		.uleb128 0xc
 2847 008a 13       		.uleb128 0x13
 2848 008b 01       		.byte	0x1
 2849 008c 03       		.uleb128 0x3
 2850 008d 0E       		.uleb128 0xe
 2851 008e 0B       		.uleb128 0xb
 2852 008f 0B       		.uleb128 0xb
 2853 0090 3A       		.uleb128 0x3a
 2854 0091 0B       		.uleb128 0xb
 2855 0092 3B       		.uleb128 0x3b
 2856 0093 05       		.uleb128 0x5
 2857 0094 01       		.uleb128 0x1
 2858 0095 13       		.uleb128 0x13
 2859 0096 00       		.byte	0
 2860 0097 00       		.byte	0
 2861 0098 0D       		.uleb128 0xd
 2862 0099 15       		.uleb128 0x15
 2863 009a 01       		.byte	0x1
 2864 009b 27       		.uleb128 0x27
 2865 009c 19       		.uleb128 0x19
 2866 009d 01       		.uleb128 0x1
 2867 009e 13       		.uleb128 0x13
 2868 009f 00       		.byte	0
 2869 00a0 00       		.byte	0
 2870 00a1 0E       		.uleb128 0xe
 2871 00a2 05       		.uleb128 0x5
 2872 00a3 00       		.byte	0
 2873 00a4 49       		.uleb128 0x49
 2874 00a5 13       		.uleb128 0x13
 2875 00a6 00       		.byte	0
 2876 00a7 00       		.byte	0
 2877 00a8 0F       		.uleb128 0xf
 2878 00a9 0F       		.uleb128 0xf
 2879 00aa 00       		.byte	0
 2880 00ab 0B       		.uleb128 0xb
 2881 00ac 0B       		.uleb128 0xb
 2882 00ad 00       		.byte	0
 2883 00ae 00       		.byte	0
 2884 00af 10       		.uleb128 0x10
 2885 00b0 13       		.uleb128 0x13
ARM GAS  /tmp/cc843xpW.s 			page 52


 2886 00b1 01       		.byte	0x1
 2887 00b2 03       		.uleb128 0x3
 2888 00b3 0E       		.uleb128 0xe
 2889 00b4 0B       		.uleb128 0xb
 2890 00b5 05       		.uleb128 0x5
 2891 00b6 3A       		.uleb128 0x3a
 2892 00b7 0B       		.uleb128 0xb
 2893 00b8 3B       		.uleb128 0x3b
 2894 00b9 05       		.uleb128 0x5
 2895 00ba 01       		.uleb128 0x1
 2896 00bb 13       		.uleb128 0x13
 2897 00bc 00       		.byte	0
 2898 00bd 00       		.byte	0
 2899 00be 11       		.uleb128 0x11
 2900 00bf 34       		.uleb128 0x34
 2901 00c0 00       		.byte	0
 2902 00c1 03       		.uleb128 0x3
 2903 00c2 0E       		.uleb128 0xe
 2904 00c3 3A       		.uleb128 0x3a
 2905 00c4 0B       		.uleb128 0xb
 2906 00c5 3B       		.uleb128 0x3b
 2907 00c6 05       		.uleb128 0x5
 2908 00c7 49       		.uleb128 0x49
 2909 00c8 13       		.uleb128 0x13
 2910 00c9 3F       		.uleb128 0x3f
 2911 00ca 19       		.uleb128 0x19
 2912 00cb 3C       		.uleb128 0x3c
 2913 00cc 19       		.uleb128 0x19
 2914 00cd 00       		.byte	0
 2915 00ce 00       		.byte	0
 2916 00cf 12       		.uleb128 0x12
 2917 00d0 34       		.uleb128 0x34
 2918 00d1 00       		.byte	0
 2919 00d2 03       		.uleb128 0x3
 2920 00d3 0E       		.uleb128 0xe
 2921 00d4 3A       		.uleb128 0x3a
 2922 00d5 0B       		.uleb128 0xb
 2923 00d6 3B       		.uleb128 0x3b
 2924 00d7 0B       		.uleb128 0xb
 2925 00d8 49       		.uleb128 0x49
 2926 00d9 13       		.uleb128 0x13
 2927 00da 3F       		.uleb128 0x3f
 2928 00db 19       		.uleb128 0x19
 2929 00dc 3C       		.uleb128 0x3c
 2930 00dd 19       		.uleb128 0x19
 2931 00de 00       		.byte	0
 2932 00df 00       		.byte	0
 2933 00e0 13       		.uleb128 0x13
 2934 00e1 0D       		.uleb128 0xd
 2935 00e2 00       		.byte	0
 2936 00e3 03       		.uleb128 0x3
 2937 00e4 08       		.uleb128 0x8
 2938 00e5 3A       		.uleb128 0x3a
 2939 00e6 0B       		.uleb128 0xb
 2940 00e7 3B       		.uleb128 0x3b
 2941 00e8 0B       		.uleb128 0xb
 2942 00e9 49       		.uleb128 0x49
ARM GAS  /tmp/cc843xpW.s 			page 53


 2943 00ea 13       		.uleb128 0x13
 2944 00eb 38       		.uleb128 0x38
 2945 00ec 0B       		.uleb128 0xb
 2946 00ed 00       		.byte	0
 2947 00ee 00       		.byte	0
 2948 00ef 14       		.uleb128 0x14
 2949 00f0 13       		.uleb128 0x13
 2950 00f1 01       		.byte	0x1
 2951 00f2 0B       		.uleb128 0xb
 2952 00f3 0B       		.uleb128 0xb
 2953 00f4 3A       		.uleb128 0x3a
 2954 00f5 0B       		.uleb128 0xb
 2955 00f6 3B       		.uleb128 0x3b
 2956 00f7 0B       		.uleb128 0xb
 2957 00f8 01       		.uleb128 0x1
 2958 00f9 13       		.uleb128 0x13
 2959 00fa 00       		.byte	0
 2960 00fb 00       		.byte	0
 2961 00fc 15       		.uleb128 0x15
 2962 00fd 17       		.uleb128 0x17
 2963 00fe 01       		.byte	0x1
 2964 00ff 0B       		.uleb128 0xb
 2965 0100 0B       		.uleb128 0xb
 2966 0101 3A       		.uleb128 0x3a
 2967 0102 0B       		.uleb128 0xb
 2968 0103 3B       		.uleb128 0x3b
 2969 0104 0B       		.uleb128 0xb
 2970 0105 01       		.uleb128 0x1
 2971 0106 13       		.uleb128 0x13
 2972 0107 00       		.byte	0
 2973 0108 00       		.byte	0
 2974 0109 16       		.uleb128 0x16
 2975 010a 0D       		.uleb128 0xd
 2976 010b 00       		.byte	0
 2977 010c 03       		.uleb128 0x3
 2978 010d 0E       		.uleb128 0xe
 2979 010e 3A       		.uleb128 0x3a
 2980 010f 0B       		.uleb128 0xb
 2981 0110 3B       		.uleb128 0x3b
 2982 0111 05       		.uleb128 0x5
 2983 0112 49       		.uleb128 0x49
 2984 0113 13       		.uleb128 0x13
 2985 0114 00       		.byte	0
 2986 0115 00       		.byte	0
 2987 0116 17       		.uleb128 0x17
 2988 0117 01       		.uleb128 0x1
 2989 0118 01       		.byte	0x1
 2990 0119 49       		.uleb128 0x49
 2991 011a 13       		.uleb128 0x13
 2992 011b 01       		.uleb128 0x1
 2993 011c 13       		.uleb128 0x13
 2994 011d 00       		.byte	0
 2995 011e 00       		.byte	0
 2996 011f 18       		.uleb128 0x18
 2997 0120 21       		.uleb128 0x21
 2998 0121 00       		.byte	0
 2999 0122 49       		.uleb128 0x49
ARM GAS  /tmp/cc843xpW.s 			page 54


 3000 0123 13       		.uleb128 0x13
 3001 0124 2F       		.uleb128 0x2f
 3002 0125 0B       		.uleb128 0xb
 3003 0126 00       		.byte	0
 3004 0127 00       		.byte	0
 3005 0128 19       		.uleb128 0x19
 3006 0129 34       		.uleb128 0x34
 3007 012a 00       		.byte	0
 3008 012b 03       		.uleb128 0x3
 3009 012c 08       		.uleb128 0x8
 3010 012d 3A       		.uleb128 0x3a
 3011 012e 0B       		.uleb128 0xb
 3012 012f 3B       		.uleb128 0x3b
 3013 0130 05       		.uleb128 0x5
 3014 0131 49       		.uleb128 0x49
 3015 0132 13       		.uleb128 0x13
 3016 0133 3F       		.uleb128 0x3f
 3017 0134 19       		.uleb128 0x19
 3018 0135 3C       		.uleb128 0x3c
 3019 0136 19       		.uleb128 0x19
 3020 0137 00       		.byte	0
 3021 0138 00       		.byte	0
 3022 0139 1A       		.uleb128 0x1a
 3023 013a 2E       		.uleb128 0x2e
 3024 013b 01       		.byte	0x1
 3025 013c 3F       		.uleb128 0x3f
 3026 013d 19       		.uleb128 0x19
 3027 013e 03       		.uleb128 0x3
 3028 013f 0E       		.uleb128 0xe
 3029 0140 3A       		.uleb128 0x3a
 3030 0141 0B       		.uleb128 0xb
 3031 0142 3B       		.uleb128 0x3b
 3032 0143 05       		.uleb128 0x5
 3033 0144 27       		.uleb128 0x27
 3034 0145 19       		.uleb128 0x19
 3035 0146 49       		.uleb128 0x49
 3036 0147 13       		.uleb128 0x13
 3037 0148 11       		.uleb128 0x11
 3038 0149 01       		.uleb128 0x1
 3039 014a 12       		.uleb128 0x12
 3040 014b 06       		.uleb128 0x6
 3041 014c 40       		.uleb128 0x40
 3042 014d 18       		.uleb128 0x18
 3043 014e 9642     		.uleb128 0x2116
 3044 0150 19       		.uleb128 0x19
 3045 0151 01       		.uleb128 0x1
 3046 0152 13       		.uleb128 0x13
 3047 0153 00       		.byte	0
 3048 0154 00       		.byte	0
 3049 0155 1B       		.uleb128 0x1b
 3050 0156 05       		.uleb128 0x5
 3051 0157 00       		.byte	0
 3052 0158 03       		.uleb128 0x3
 3053 0159 08       		.uleb128 0x8
 3054 015a 3A       		.uleb128 0x3a
 3055 015b 0B       		.uleb128 0xb
 3056 015c 3B       		.uleb128 0x3b
ARM GAS  /tmp/cc843xpW.s 			page 55


 3057 015d 05       		.uleb128 0x5
 3058 015e 49       		.uleb128 0x49
 3059 015f 13       		.uleb128 0x13
 3060 0160 02       		.uleb128 0x2
 3061 0161 18       		.uleb128 0x18
 3062 0162 00       		.byte	0
 3063 0163 00       		.byte	0
 3064 0164 1C       		.uleb128 0x1c
 3065 0165 05       		.uleb128 0x5
 3066 0166 00       		.byte	0
 3067 0167 03       		.uleb128 0x3
 3068 0168 0E       		.uleb128 0xe
 3069 0169 3A       		.uleb128 0x3a
 3070 016a 0B       		.uleb128 0xb
 3071 016b 3B       		.uleb128 0x3b
 3072 016c 05       		.uleb128 0x5
 3073 016d 49       		.uleb128 0x49
 3074 016e 13       		.uleb128 0x13
 3075 016f 02       		.uleb128 0x2
 3076 0170 18       		.uleb128 0x18
 3077 0171 00       		.byte	0
 3078 0172 00       		.byte	0
 3079 0173 1D       		.uleb128 0x1d
 3080 0174 34       		.uleb128 0x34
 3081 0175 00       		.byte	0
 3082 0176 03       		.uleb128 0x3
 3083 0177 08       		.uleb128 0x8
 3084 0178 3A       		.uleb128 0x3a
 3085 0179 0B       		.uleb128 0xb
 3086 017a 3B       		.uleb128 0x3b
 3087 017b 05       		.uleb128 0x5
 3088 017c 49       		.uleb128 0x49
 3089 017d 13       		.uleb128 0x13
 3090 017e 02       		.uleb128 0x2
 3091 017f 18       		.uleb128 0x18
 3092 0180 00       		.byte	0
 3093 0181 00       		.byte	0
 3094 0182 1E       		.uleb128 0x1e
 3095 0183 34       		.uleb128 0x34
 3096 0184 00       		.byte	0
 3097 0185 03       		.uleb128 0x3
 3098 0186 0E       		.uleb128 0xe
 3099 0187 49       		.uleb128 0x49
 3100 0188 13       		.uleb128 0x13
 3101 0189 34       		.uleb128 0x34
 3102 018a 19       		.uleb128 0x19
 3103 018b 02       		.uleb128 0x2
 3104 018c 18       		.uleb128 0x18
 3105 018d 00       		.byte	0
 3106 018e 00       		.byte	0
 3107 018f 1F       		.uleb128 0x1f
 3108 0190 2E       		.uleb128 0x2e
 3109 0191 01       		.byte	0x1
 3110 0192 3F       		.uleb128 0x3f
 3111 0193 19       		.uleb128 0x19
 3112 0194 03       		.uleb128 0x3
 3113 0195 0E       		.uleb128 0xe
ARM GAS  /tmp/cc843xpW.s 			page 56


 3114 0196 3A       		.uleb128 0x3a
 3115 0197 0B       		.uleb128 0xb
 3116 0198 3B       		.uleb128 0x3b
 3117 0199 0B       		.uleb128 0xb
 3118 019a 27       		.uleb128 0x27
 3119 019b 19       		.uleb128 0x19
 3120 019c 49       		.uleb128 0x49
 3121 019d 13       		.uleb128 0x13
 3122 019e 11       		.uleb128 0x11
 3123 019f 01       		.uleb128 0x1
 3124 01a0 12       		.uleb128 0x12
 3125 01a1 06       		.uleb128 0x6
 3126 01a2 40       		.uleb128 0x40
 3127 01a3 18       		.uleb128 0x18
 3128 01a4 9642     		.uleb128 0x2116
 3129 01a6 19       		.uleb128 0x19
 3130 01a7 01       		.uleb128 0x1
 3131 01a8 13       		.uleb128 0x13
 3132 01a9 00       		.byte	0
 3133 01aa 00       		.byte	0
 3134 01ab 20       		.uleb128 0x20
 3135 01ac 05       		.uleb128 0x5
 3136 01ad 00       		.byte	0
 3137 01ae 03       		.uleb128 0x3
 3138 01af 08       		.uleb128 0x8
 3139 01b0 3A       		.uleb128 0x3a
 3140 01b1 0B       		.uleb128 0xb
 3141 01b2 3B       		.uleb128 0x3b
 3142 01b3 0B       		.uleb128 0xb
 3143 01b4 49       		.uleb128 0x49
 3144 01b5 13       		.uleb128 0x13
 3145 01b6 02       		.uleb128 0x2
 3146 01b7 18       		.uleb128 0x18
 3147 01b8 00       		.byte	0
 3148 01b9 00       		.byte	0
 3149 01ba 21       		.uleb128 0x21
 3150 01bb 34       		.uleb128 0x34
 3151 01bc 00       		.byte	0
 3152 01bd 03       		.uleb128 0x3
 3153 01be 08       		.uleb128 0x8
 3154 01bf 3A       		.uleb128 0x3a
 3155 01c0 0B       		.uleb128 0xb
 3156 01c1 3B       		.uleb128 0x3b
 3157 01c2 0B       		.uleb128 0xb
 3158 01c3 49       		.uleb128 0x49
 3159 01c4 13       		.uleb128 0x13
 3160 01c5 02       		.uleb128 0x2
 3161 01c6 18       		.uleb128 0x18
 3162 01c7 00       		.byte	0
 3163 01c8 00       		.byte	0
 3164 01c9 22       		.uleb128 0x22
 3165 01ca 2E       		.uleb128 0x2e
 3166 01cb 01       		.byte	0x1
 3167 01cc 3F       		.uleb128 0x3f
 3168 01cd 19       		.uleb128 0x19
 3169 01ce 03       		.uleb128 0x3
 3170 01cf 0E       		.uleb128 0xe
ARM GAS  /tmp/cc843xpW.s 			page 57


 3171 01d0 3A       		.uleb128 0x3a
 3172 01d1 0B       		.uleb128 0xb
 3173 01d2 3B       		.uleb128 0x3b
 3174 01d3 0B       		.uleb128 0xb
 3175 01d4 27       		.uleb128 0x27
 3176 01d5 19       		.uleb128 0x19
 3177 01d6 11       		.uleb128 0x11
 3178 01d7 01       		.uleb128 0x1
 3179 01d8 12       		.uleb128 0x12
 3180 01d9 06       		.uleb128 0x6
 3181 01da 40       		.uleb128 0x40
 3182 01db 18       		.uleb128 0x18
 3183 01dc 9642     		.uleb128 0x2116
 3184 01de 19       		.uleb128 0x19
 3185 01df 01       		.uleb128 0x1
 3186 01e0 13       		.uleb128 0x13
 3187 01e1 00       		.byte	0
 3188 01e2 00       		.byte	0
 3189 01e3 23       		.uleb128 0x23
 3190 01e4 0B       		.uleb128 0xb
 3191 01e5 01       		.byte	0x1
 3192 01e6 11       		.uleb128 0x11
 3193 01e7 01       		.uleb128 0x1
 3194 01e8 12       		.uleb128 0x12
 3195 01e9 06       		.uleb128 0x6
 3196 01ea 00       		.byte	0
 3197 01eb 00       		.byte	0
 3198 01ec 24       		.uleb128 0x24
 3199 01ed 2E       		.uleb128 0x2e
 3200 01ee 00       		.byte	0
 3201 01ef 03       		.uleb128 0x3
 3202 01f0 0E       		.uleb128 0xe
 3203 01f1 3A       		.uleb128 0x3a
 3204 01f2 0B       		.uleb128 0xb
 3205 01f3 3B       		.uleb128 0x3b
 3206 01f4 0B       		.uleb128 0xb
 3207 01f5 27       		.uleb128 0x27
 3208 01f6 19       		.uleb128 0x19
 3209 01f7 49       		.uleb128 0x49
 3210 01f8 13       		.uleb128 0x13
 3211 01f9 11       		.uleb128 0x11
 3212 01fa 01       		.uleb128 0x1
 3213 01fb 12       		.uleb128 0x12
 3214 01fc 06       		.uleb128 0x6
 3215 01fd 40       		.uleb128 0x40
 3216 01fe 18       		.uleb128 0x18
 3217 01ff 9642     		.uleb128 0x2116
 3218 0201 19       		.uleb128 0x19
 3219 0202 00       		.byte	0
 3220 0203 00       		.byte	0
 3221 0204 25       		.uleb128 0x25
 3222 0205 2E       		.uleb128 0x2e
 3223 0206 00       		.byte	0
 3224 0207 03       		.uleb128 0x3
 3225 0208 0E       		.uleb128 0xe
 3226 0209 3A       		.uleb128 0x3a
 3227 020a 0B       		.uleb128 0xb
ARM GAS  /tmp/cc843xpW.s 			page 58


 3228 020b 3B       		.uleb128 0x3b
 3229 020c 0B       		.uleb128 0xb
 3230 020d 27       		.uleb128 0x27
 3231 020e 19       		.uleb128 0x19
 3232 020f 49       		.uleb128 0x49
 3233 0210 13       		.uleb128 0x13
 3234 0211 11       		.uleb128 0x11
 3235 0212 01       		.uleb128 0x1
 3236 0213 12       		.uleb128 0x12
 3237 0214 06       		.uleb128 0x6
 3238 0215 40       		.uleb128 0x40
 3239 0216 18       		.uleb128 0x18
 3240 0217 9742     		.uleb128 0x2117
 3241 0219 19       		.uleb128 0x19
 3242 021a 00       		.byte	0
 3243 021b 00       		.byte	0
 3244 021c 26       		.uleb128 0x26
 3245 021d 2E       		.uleb128 0x2e
 3246 021e 01       		.byte	0x1
 3247 021f 03       		.uleb128 0x3
 3248 0220 0E       		.uleb128 0xe
 3249 0221 3A       		.uleb128 0x3a
 3250 0222 0B       		.uleb128 0xb
 3251 0223 3B       		.uleb128 0x3b
 3252 0224 05       		.uleb128 0x5
 3253 0225 27       		.uleb128 0x27
 3254 0226 19       		.uleb128 0x19
 3255 0227 11       		.uleb128 0x11
 3256 0228 01       		.uleb128 0x1
 3257 0229 12       		.uleb128 0x12
 3258 022a 06       		.uleb128 0x6
 3259 022b 40       		.uleb128 0x40
 3260 022c 18       		.uleb128 0x18
 3261 022d 9642     		.uleb128 0x2116
 3262 022f 19       		.uleb128 0x19
 3263 0230 01       		.uleb128 0x1
 3264 0231 13       		.uleb128 0x13
 3265 0232 00       		.byte	0
 3266 0233 00       		.byte	0
 3267 0234 27       		.uleb128 0x27
 3268 0235 2E       		.uleb128 0x2e
 3269 0236 00       		.byte	0
 3270 0237 03       		.uleb128 0x3
 3271 0238 0E       		.uleb128 0xe
 3272 0239 3A       		.uleb128 0x3a
 3273 023a 0B       		.uleb128 0xb
 3274 023b 3B       		.uleb128 0x3b
 3275 023c 05       		.uleb128 0x5
 3276 023d 27       		.uleb128 0x27
 3277 023e 19       		.uleb128 0x19
 3278 023f 11       		.uleb128 0x11
 3279 0240 01       		.uleb128 0x1
 3280 0241 12       		.uleb128 0x12
 3281 0242 06       		.uleb128 0x6
 3282 0243 40       		.uleb128 0x40
 3283 0244 18       		.uleb128 0x18
 3284 0245 9642     		.uleb128 0x2116
ARM GAS  /tmp/cc843xpW.s 			page 59


 3285 0247 19       		.uleb128 0x19
 3286 0248 00       		.byte	0
 3287 0249 00       		.byte	0
 3288 024a 28       		.uleb128 0x28
 3289 024b 2E       		.uleb128 0x2e
 3290 024c 01       		.byte	0x1
 3291 024d 03       		.uleb128 0x3
 3292 024e 0E       		.uleb128 0xe
 3293 024f 3A       		.uleb128 0x3a
 3294 0250 0B       		.uleb128 0xb
 3295 0251 3B       		.uleb128 0x3b
 3296 0252 05       		.uleb128 0x5
 3297 0253 27       		.uleb128 0x27
 3298 0254 19       		.uleb128 0x19
 3299 0255 49       		.uleb128 0x49
 3300 0256 13       		.uleb128 0x13
 3301 0257 11       		.uleb128 0x11
 3302 0258 01       		.uleb128 0x1
 3303 0259 12       		.uleb128 0x12
 3304 025a 06       		.uleb128 0x6
 3305 025b 40       		.uleb128 0x40
 3306 025c 18       		.uleb128 0x18
 3307 025d 9742     		.uleb128 0x2117
 3308 025f 19       		.uleb128 0x19
 3309 0260 01       		.uleb128 0x1
 3310 0261 13       		.uleb128 0x13
 3311 0262 00       		.byte	0
 3312 0263 00       		.byte	0
 3313 0264 29       		.uleb128 0x29
 3314 0265 2E       		.uleb128 0x2e
 3315 0266 01       		.byte	0x1
 3316 0267 03       		.uleb128 0x3
 3317 0268 0E       		.uleb128 0xe
 3318 0269 3A       		.uleb128 0x3a
 3319 026a 0B       		.uleb128 0xb
 3320 026b 3B       		.uleb128 0x3b
 3321 026c 05       		.uleb128 0x5
 3322 026d 27       		.uleb128 0x27
 3323 026e 19       		.uleb128 0x19
 3324 026f 11       		.uleb128 0x11
 3325 0270 01       		.uleb128 0x1
 3326 0271 12       		.uleb128 0x12
 3327 0272 06       		.uleb128 0x6
 3328 0273 40       		.uleb128 0x40
 3329 0274 18       		.uleb128 0x18
 3330 0275 9742     		.uleb128 0x2117
 3331 0277 19       		.uleb128 0x19
 3332 0278 01       		.uleb128 0x1
 3333 0279 13       		.uleb128 0x13
 3334 027a 00       		.byte	0
 3335 027b 00       		.byte	0
 3336 027c 2A       		.uleb128 0x2a
 3337 027d 1D       		.uleb128 0x1d
 3338 027e 01       		.byte	0x1
 3339 027f 31       		.uleb128 0x31
 3340 0280 13       		.uleb128 0x13
 3341 0281 11       		.uleb128 0x11
ARM GAS  /tmp/cc843xpW.s 			page 60


 3342 0282 01       		.uleb128 0x1
 3343 0283 12       		.uleb128 0x12
 3344 0284 06       		.uleb128 0x6
 3345 0285 58       		.uleb128 0x58
 3346 0286 0B       		.uleb128 0xb
 3347 0287 59       		.uleb128 0x59
 3348 0288 05       		.uleb128 0x5
 3349 0289 00       		.byte	0
 3350 028a 00       		.byte	0
 3351 028b 2B       		.uleb128 0x2b
 3352 028c 05       		.uleb128 0x5
 3353 028d 00       		.byte	0
 3354 028e 31       		.uleb128 0x31
 3355 028f 13       		.uleb128 0x13
 3356 0290 02       		.uleb128 0x2
 3357 0291 18       		.uleb128 0x18
 3358 0292 00       		.byte	0
 3359 0293 00       		.byte	0
 3360 0294 2C       		.uleb128 0x2c
 3361 0295 2E       		.uleb128 0x2e
 3362 0296 01       		.byte	0x1
 3363 0297 03       		.uleb128 0x3
 3364 0298 0E       		.uleb128 0xe
 3365 0299 3A       		.uleb128 0x3a
 3366 029a 0B       		.uleb128 0xb
 3367 029b 3B       		.uleb128 0x3b
 3368 029c 05       		.uleb128 0x5
 3369 029d 27       		.uleb128 0x27
 3370 029e 19       		.uleb128 0x19
 3371 029f 20       		.uleb128 0x20
 3372 02a0 0B       		.uleb128 0xb
 3373 02a1 00       		.byte	0
 3374 02a2 00       		.byte	0
 3375 02a3 2D       		.uleb128 0x2d
 3376 02a4 05       		.uleb128 0x5
 3377 02a5 00       		.byte	0
 3378 02a6 03       		.uleb128 0x3
 3379 02a7 0E       		.uleb128 0xe
 3380 02a8 3A       		.uleb128 0x3a
 3381 02a9 0B       		.uleb128 0xb
 3382 02aa 3B       		.uleb128 0x3b
 3383 02ab 05       		.uleb128 0x5
 3384 02ac 49       		.uleb128 0x49
 3385 02ad 13       		.uleb128 0x13
 3386 02ae 00       		.byte	0
 3387 02af 00       		.byte	0
 3388 02b0 00       		.byte	0
 3389              		.section	.debug_aranges,"",%progbits
 3390 0000 AC000000 		.4byte	0xac
 3391 0004 0200     		.2byte	0x2
 3392 0006 00000000 		.4byte	.Ldebug_info0
 3393 000a 04       		.byte	0x4
 3394 000b 00       		.byte	0
 3395 000c 0000     		.2byte	0
 3396 000e 0000     		.2byte	0
 3397 0010 00000000 		.4byte	.LFB127
 3398 0014 12000000 		.4byte	.LFE127-.LFB127
ARM GAS  /tmp/cc843xpW.s 			page 61


 3399 0018 00000000 		.4byte	.LFB128
 3400 001c 12000000 		.4byte	.LFE128-.LFB128
 3401 0020 00000000 		.4byte	.LFB139
 3402 0024 16000000 		.4byte	.LFE139-.LFB139
 3403 0028 00000000 		.4byte	.LFB141
 3404 002c 1A000000 		.4byte	.LFE141-.LFB141
 3405 0030 00000000 		.4byte	.LFB144
 3406 0034 46000000 		.4byte	.LFE144-.LFB144
 3407 0038 00000000 		.4byte	.LFB146
 3408 003c 22000000 		.4byte	.LFE146-.LFB146
 3409 0040 00000000 		.4byte	.LFB156
 3410 0044 12000000 		.4byte	.LFE156-.LFB156
 3411 0048 00000000 		.4byte	.LFB157
 3412 004c 3C000000 		.4byte	.LFE157-.LFB157
 3413 0050 00000000 		.4byte	.LFB178
 3414 0054 0C000000 		.4byte	.LFE178-.LFB178
 3415 0058 00000000 		.4byte	.LFB204
 3416 005c 0E000000 		.4byte	.LFE204-.LFB204
 3417 0060 00000000 		.4byte	.LFB231
 3418 0064 28000000 		.4byte	.LFE231-.LFB231
 3419 0068 00000000 		.4byte	.LFB232
 3420 006c 48000000 		.4byte	.LFE232-.LFB232
 3421 0070 00000000 		.4byte	.LFB233
 3422 0074 48000000 		.4byte	.LFE233-.LFB233
 3423 0078 00000000 		.4byte	.LFB234
 3424 007c 20000000 		.4byte	.LFE234-.LFB234
 3425 0080 00000000 		.4byte	.LFB235
 3426 0084 4C000000 		.4byte	.LFE235-.LFB235
 3427 0088 00000000 		.4byte	.LFB236
 3428 008c 20000000 		.4byte	.LFE236-.LFB236
 3429 0090 00000000 		.4byte	.LFB237
 3430 0094 6C000000 		.4byte	.LFE237-.LFB237
 3431 0098 00000000 		.4byte	.LFB238
 3432 009c 24000000 		.4byte	.LFE238-.LFB238
 3433 00a0 00000000 		.4byte	.LFB239
 3434 00a4 7C000000 		.4byte	.LFE239-.LFB239
 3435 00a8 00000000 		.4byte	0
 3436 00ac 00000000 		.4byte	0
 3437              		.section	.debug_ranges,"",%progbits
 3438              	.Ldebug_ranges0:
 3439 0000 00000000 		.4byte	.LFB127
 3440 0004 12000000 		.4byte	.LFE127
 3441 0008 00000000 		.4byte	.LFB128
 3442 000c 12000000 		.4byte	.LFE128
 3443 0010 00000000 		.4byte	.LFB139
 3444 0014 16000000 		.4byte	.LFE139
 3445 0018 00000000 		.4byte	.LFB141
 3446 001c 1A000000 		.4byte	.LFE141
 3447 0020 00000000 		.4byte	.LFB144
 3448 0024 46000000 		.4byte	.LFE144
 3449 0028 00000000 		.4byte	.LFB146
 3450 002c 22000000 		.4byte	.LFE146
 3451 0030 00000000 		.4byte	.LFB156
 3452 0034 12000000 		.4byte	.LFE156
 3453 0038 00000000 		.4byte	.LFB157
 3454 003c 3C000000 		.4byte	.LFE157
 3455 0040 00000000 		.4byte	.LFB178
ARM GAS  /tmp/cc843xpW.s 			page 62


 3456 0044 0C000000 		.4byte	.LFE178
 3457 0048 00000000 		.4byte	.LFB204
 3458 004c 0E000000 		.4byte	.LFE204
 3459 0050 00000000 		.4byte	.LFB231
 3460 0054 28000000 		.4byte	.LFE231
 3461 0058 00000000 		.4byte	.LFB232
 3462 005c 48000000 		.4byte	.LFE232
 3463 0060 00000000 		.4byte	.LFB233
 3464 0064 48000000 		.4byte	.LFE233
 3465 0068 00000000 		.4byte	.LFB234
 3466 006c 20000000 		.4byte	.LFE234
 3467 0070 00000000 		.4byte	.LFB235
 3468 0074 4C000000 		.4byte	.LFE235
 3469 0078 00000000 		.4byte	.LFB236
 3470 007c 20000000 		.4byte	.LFE236
 3471 0080 00000000 		.4byte	.LFB237
 3472 0084 6C000000 		.4byte	.LFE237
 3473 0088 00000000 		.4byte	.LFB238
 3474 008c 24000000 		.4byte	.LFE238
 3475 0090 00000000 		.4byte	.LFB239
 3476 0094 7C000000 		.4byte	.LFE239
 3477 0098 00000000 		.4byte	0
 3478 009c 00000000 		.4byte	0
 3479              		.section	.debug_line,"",%progbits
 3480              	.Ldebug_line0:
 3481 0000 4C040000 		.section	.debug_str,"MS",%progbits,1
 3481      02001C02 
 3481      00000201 
 3481      FB0E0D00 
 3481      01010101 
 3482              	.LASF52:
 3483 0000 74687265 		.ascii	"threads_list_t\000"
 3483      6164735F 
 3483      6C697374 
 3483      5F7400
 3484              	.LASF132:
 3485 000f 63665F6F 		.ascii	"cf_off_older\000"
 3485      66665F6F 
 3485      6C646572 
 3485      00
 3486              	.LASF57:
 3487 001c 72656164 		.ascii	"ready_list_t\000"
 3487      795F6C69 
 3487      73745F74 
 3487      00
 3488              	.LASF110:
 3489 0029 77747472 		.ascii	"wttrp\000"
 3489      7000
 3490              	.LASF107:
 3491 002f 7264796D 		.ascii	"rdymsg\000"
 3491      736700
 3492              	.LASF19:
 3493 0036 75696E74 		.ascii	"uint64_t\000"
 3493      36345F74 
 3493      00
 3494              	.LASF86:
 3495 003f 6B65726E 		.ascii	"kernel_stats\000"
ARM GAS  /tmp/cc843xpW.s 			page 63


 3495      656C5F73 
 3495      74617473 
 3495      00
 3496              	.LASF6:
 3497 004c 5F5F7569 		.ascii	"__uint8_t\000"
 3497      6E74385F 
 3497      7400
 3498              	.LASF94:
 3499 0056 706F7274 		.ascii	"port_intctx\000"
 3499      5F696E74 
 3499      63747800 
 3500              	.LASF56:
 3501 0062 63685F74 		.ascii	"ch_threads_queue\000"
 3501      68726561 
 3501      64735F71 
 3501      75657565 
 3501      00
 3502              	.LASF76:
 3503 0073 73797374 		.ascii	"system_debug_t\000"
 3503      656D5F64 
 3503      65627567 
 3503      5F7400
 3504              	.LASF164:
 3505 0082 71756575 		.ascii	"queue_init\000"
 3505      655F696E 
 3505      697400
 3506              	.LASF166:
 3507 008d 706F7274 		.ascii	"port_lock\000"
 3507      5F6C6F63 
 3507      6B00
 3508              	.LASF98:
 3509 0097 776F7273 		.ascii	"worst\000"
 3509      7400
 3510              	.LASF101:
 3511 009d 74696D65 		.ascii	"time_measurement_t\000"
 3511      5F6D6561 
 3511      73757265 
 3511      6D656E74 
 3511      5F7400
 3512              	.LASF153:
 3513 00b0 6368436F 		.ascii	"chCondBroadcastI\000"
 3513      6E644272 
 3513      6F616463 
 3513      61737449 
 3513      00
 3514              	.LASF14:
 3515 00c1 6C6F6E67 		.ascii	"long long unsigned int\000"
 3515      206C6F6E 
 3515      6720756E 
 3515      7369676E 
 3515      65642069 
 3516              	.LASF154:
 3517 00d8 6368436F 		.ascii	"chCondBroadcast\000"
 3517      6E644272 
 3517      6F616463 
 3517      61737400 
 3518              	.LASF128:
ARM GAS  /tmp/cc843xpW.s 			page 64


 3519 00e8 63685F74 		.ascii	"ch_threadsize\000"
 3519      68726561 
 3519      6473697A 
 3519      6500
 3520              	.LASF108:
 3521 00f6 65786974 		.ascii	"exitcode\000"
 3521      636F6465 
 3521      00
 3522              	.LASF85:
 3523 00ff 6D61696E 		.ascii	"mainthread\000"
 3523      74687265 
 3523      616400
 3524              	.LASF73:
 3525 010a 76697274 		.ascii	"virtual_timers_list_t\000"
 3525      75616C5F 
 3525      74696D65 
 3525      72735F6C 
 3525      6973745F 
 3526              	.LASF89:
 3527 0120 49544D5F 		.ascii	"ITM_RxBuffer\000"
 3527      52784275 
 3527      66666572 
 3527      00
 3528              	.LASF21:
 3529 012d 72747469 		.ascii	"rttime_t\000"
 3529      6D655F74 
 3529      00
 3530              	.LASF168:
 3531 0136 2E2E2F43 		.ascii	"../ChibiOS/os/rt/src/chcond.c\000"
 3531      68696269 
 3531      4F532F6F 
 3531      732F7274 
 3531      2F737263 
 3532              	.LASF34:
 3533 0154 705F7072 		.ascii	"p_prio\000"
 3533      696F00
 3534              	.LASF135:
 3535 015b 63665F6F 		.ascii	"cf_off_state\000"
 3535      66665F73 
 3535      74617465 
 3535      00
 3536              	.LASF1:
 3537 0168 6C6F6E67 		.ascii	"long long int\000"
 3537      206C6F6E 
 3537      6720696E 
 3537      7400
 3538              	.LASF3:
 3539 0176 7369676E 		.ascii	"signed char\000"
 3539      65642063 
 3539      68617200 
 3540              	.LASF145:
 3541 0182 636F6E64 		.ascii	"condition_variable_t\000"
 3541      6974696F 
 3541      6E5F7661 
 3541      72696162 
 3541      6C655F74 
 3542              	.LASF134:
ARM GAS  /tmp/cc843xpW.s 			page 65


 3543 0197 63665F6F 		.ascii	"cf_off_stklimit\000"
 3543      66665F73 
 3543      746B6C69 
 3543      6D697400 
 3544              	.LASF136:
 3545 01a7 63665F6F 		.ascii	"cf_off_flags\000"
 3545      66665F66 
 3545      6C616773 
 3545      00
 3546              	.LASF49:
 3547 01b4 705F6D70 		.ascii	"p_mpool\000"
 3547      6F6F6C00 
 3548              	.LASF118:
 3549 01bc 6D5F7175 		.ascii	"m_queue\000"
 3549      65756500 
 3550              	.LASF84:
 3551 01c4 76746C69 		.ascii	"vtlist\000"
 3551      737400
 3552              	.LASF165:
 3553 01cb 706F7274 		.ascii	"port_unlock\000"
 3553      5F756E6C 
 3553      6F636B00 
 3554              	.LASF82:
 3555 01d7 63685F73 		.ascii	"ch_system\000"
 3555      79737465 
 3555      6D00
 3556              	.LASF10:
 3557 01e1 6C6F6E67 		.ascii	"long int\000"
 3557      20696E74 
 3557      00
 3558              	.LASF150:
 3559 01ea 6368436F 		.ascii	"chCondWaitS\000"
 3559      6E645761 
 3559      69745300 
 3560              	.LASF23:
 3561 01f6 74737461 		.ascii	"tstate_t\000"
 3561      74655F74 
 3561      00
 3562              	.LASF163:
 3563 01ff 71756575 		.ascii	"queue_notempty\000"
 3563      655F6E6F 
 3563      74656D70 
 3563      747900
 3564              	.LASF167:
 3565 020e 474E5520 		.ascii	"GNU C11 6.3.1 20170620 (release) [ARM/embedded-6-br"
 3565      43313120 
 3565      362E332E 
 3565      31203230 
 3565      31373036 
 3566 0241 616E6368 		.ascii	"anch revision 249437] -mcpu=cortex-m4 -mfloat-abi=h"
 3566      20726576 
 3566      6973696F 
 3566      6E203234 
 3566      39343337 
 3567 0274 61726420 		.ascii	"ard -mfpu=fpv4-sp-d16 -mno-thumb-interwork -mthumb "
 3567      2D6D6670 
 3567      753D6670 
ARM GAS  /tmp/cc843xpW.s 			page 66


 3567      76342D73 
 3567      702D6431 
 3568 02a7 2D676764 		.ascii	"-ggdb -O0 -fomit-frame-pointer -falign-functions=16"
 3568      62202D4F 
 3568      30202D66 
 3568      6F6D6974 
 3568      2D667261 
 3569 02da 202D6666 		.ascii	" -ffunction-sections -fdata-sections -fno-common -f"
 3569      756E6374 
 3569      696F6E2D 
 3569      73656374 
 3569      696F6E73 
 3570 030d 73696E67 		.ascii	"single-precision-constant\000"
 3570      6C652D70 
 3570      72656369 
 3570      73696F6E 
 3570      2D636F6E 
 3571              	.LASF140:
 3572 0327 63686465 		.ascii	"chdebug_t\000"
 3572      6275675F 
 3572      7400
 3573              	.LASF36:
 3574 0331 705F6E65 		.ascii	"p_newer\000"
 3574      77657200 
 3575              	.LASF115:
 3576 0339 735F7175 		.ascii	"s_queue\000"
 3576      65756500 
 3577              	.LASF2:
 3578 0341 6C6F6E67 		.ascii	"long double\000"
 3578      20646F75 
 3578      626C6500 
 3579              	.LASF62:
 3580 034d 725F6E65 		.ascii	"r_newer\000"
 3580      77657200 
 3581              	.LASF91:
 3582 0355 72656761 		.ascii	"regarm_t\000"
 3582      726D5F74 
 3582      00
 3583              	.LASF69:
 3584 035e 76745F70 		.ascii	"vt_prev\000"
 3584      72657600 
 3585              	.LASF77:
 3586 0366 63685F73 		.ascii	"ch_system_debug\000"
 3586      79737465 
 3586      6D5F6465 
 3586      62756700 
 3587              	.LASF142:
 3588 0376 6D757465 		.ascii	"mutex_t\000"
 3588      785F7400 
 3589              	.LASF172:
 3590 037e 76616C75 		.ascii	"value\000"
 3590      6500
 3591              	.LASF80:
 3592 0384 6C6F636B 		.ascii	"lock_cnt\000"
 3592      5F636E74 
 3592      00
 3593              	.LASF156:
ARM GAS  /tmp/cc843xpW.s 			page 67


 3594 038d 6368436F 		.ascii	"chCondSignal\000"
 3594      6E645369 
 3594      676E616C 
 3594      00
 3595              	.LASF87:
 3596 039a 69646C65 		.ascii	"idle_thread_wa\000"
 3596      5F746872 
 3596      6561645F 
 3596      776100
 3597              	.LASF28:
 3598 03a9 636E745F 		.ascii	"cnt_t\000"
 3598      7400
 3599              	.LASF39:
 3600 03af 705F7374 		.ascii	"p_stklimit\000"
 3600      6B6C696D 
 3600      697400
 3601              	.LASF0:
 3602 03ba 756E7369 		.ascii	"unsigned int\000"
 3602      676E6564 
 3602      20696E74 
 3602      00
 3603              	.LASF68:
 3604 03c7 76745F6E 		.ascii	"vt_next\000"
 3604      65787400 
 3605              	.LASF16:
 3606 03cf 75696E74 		.ascii	"uint16_t\000"
 3606      31365F74 
 3606      00
 3607              	.LASF90:
 3608 03d8 53797374 		.ascii	"SystemCoreClock\000"
 3608      656D436F 
 3608      7265436C 
 3608      6F636B00 
 3609              	.LASF169:
 3610 03e8 2F686F6D 		.ascii	"/home/matt/Documents/fibre-link/header-detection/pc"
 3610      652F6D61 
 3610      74742F44 
 3610      6F63756D 
 3610      656E7473 
 3611 041b 622F7374 		.ascii	"b/stm32/firmware\000"
 3611      6D33322F 
 3611      6669726D 
 3611      77617265 
 3611      00
 3612              	.LASF111:
 3613 042c 77747365 		.ascii	"wtsemp\000"
 3613      6D7000
 3614              	.LASF70:
 3615 0433 76745F64 		.ascii	"vt_delta\000"
 3615      656C7461 
 3615      00
 3616              	.LASF44:
 3617 043c 705F6D73 		.ascii	"p_msgqueue\000"
 3617      67717565 
 3617      756500
 3618              	.LASF141:
 3619 0447 63685F64 		.ascii	"ch_debug\000"
ARM GAS  /tmp/cc843xpW.s 			page 68


 3619      65627567 
 3619      00
 3620              	.LASF102:
 3621 0450 6E5F6972 		.ascii	"n_irq\000"
 3621      7100
 3622              	.LASF116:
 3623 0456 735F636E 		.ascii	"s_cnt\000"
 3623      7400
 3624              	.LASF8:
 3625 045c 73686F72 		.ascii	"short unsigned int\000"
 3625      7420756E 
 3625      7369676E 
 3625      65642069 
 3625      6E7400
 3626              	.LASF106:
 3627 046f 6B65726E 		.ascii	"kernel_stats_t\000"
 3627      656C5F73 
 3627      74617473 
 3627      5F7400
 3628              	.LASF53:
 3629 047e 63685F74 		.ascii	"ch_thread\000"
 3629      68726561 
 3629      6400
 3630              	.LASF26:
 3631 0488 6D73675F 		.ascii	"msg_t\000"
 3631      7400
 3632              	.LASF99:
 3633 048e 6C617374 		.ascii	"last\000"
 3633      00
 3634              	.LASF29:
 3635 0493 75636E74 		.ascii	"ucnt_t\000"
 3635      5F7400
 3636              	.LASF81:
 3637 049a 63685F73 		.ascii	"ch_system_t\000"
 3637      79737465 
 3637      6D5F7400 
 3638              	.LASF139:
 3639 04a6 63665F6F 		.ascii	"cf_off_time\000"
 3639      66665F74 
 3639      696D6500 
 3640              	.LASF105:
 3641 04b2 6D5F6372 		.ascii	"m_crit_isr\000"
 3641      69745F69 
 3641      737200
 3642              	.LASF58:
 3643 04bd 63685F72 		.ascii	"ch_ready_list\000"
 3643      65616479 
 3643      5F6C6973 
 3643      7400
 3644              	.LASF27:
 3645 04cb 6576656E 		.ascii	"eventmask_t\000"
 3645      746D6173 
 3645      6B5F7400 
 3646              	.LASF9:
 3647 04d7 5F5F696E 		.ascii	"__int32_t\000"
 3647      7433325F 
 3647      7400
ARM GAS  /tmp/cc843xpW.s 			page 69


 3648              	.LASF92:
 3649 04e1 73746B61 		.ascii	"stkalign_t\000"
 3649      6C69676E 
 3649      5F7400
 3650              	.LASF144:
 3651 04ec 635F7175 		.ascii	"c_queue\000"
 3651      65756500 
 3652              	.LASF123:
 3653 04f4 63685F7A 		.ascii	"ch_zero\000"
 3653      65726F00 
 3654              	.LASF137:
 3655 04fc 63665F6F 		.ascii	"cf_off_refs\000"
 3655      66665F72 
 3655      65667300 
 3656              	.LASF43:
 3657 0508 705F7761 		.ascii	"p_waiting\000"
 3657      6974696E 
 3657      6700
 3658              	.LASF88:
 3659 0512 73697A65 		.ascii	"sizetype\000"
 3659      74797065 
 3659      00
 3660              	.LASF74:
 3661 051b 63685F76 		.ascii	"ch_virtual_timers_list\000"
 3661      69727475 
 3661      616C5F74 
 3661      696D6572 
 3661      735F6C69 
 3662              	.LASF143:
 3663 0532 636F6E64 		.ascii	"condition_variable\000"
 3663      6974696F 
 3663      6E5F7661 
 3663      72696162 
 3663      6C6500
 3664              	.LASF148:
 3665 0545 6368436F 		.ascii	"chCondWaitTimeoutS\000"
 3665      6E645761 
 3665      69745469 
 3665      6D656F75 
 3665      745300
 3666              	.LASF127:
 3667 0558 63685F74 		.ascii	"ch_timesize\000"
 3667      696D6573 
 3667      697A6500 
 3668              	.LASF133:
 3669 0564 63665F6F 		.ascii	"cf_off_name\000"
 3669      66665F6E 
 3669      616D6500 
 3670              	.LASF103:
 3671 0570 6E5F6374 		.ascii	"n_ctxswc\000"
 3671      78737763 
 3671      00
 3672              	.LASF37:
 3673 0579 705F6F6C 		.ascii	"p_older\000"
 3673      64657200 
 3674              	.LASF61:
 3675 0581 725F6374 		.ascii	"r_ctx\000"
ARM GAS  /tmp/cc843xpW.s 			page 70


 3675      7800
 3676              	.LASF35:
 3677 0587 705F6374 		.ascii	"p_ctx\000"
 3677      7800
 3678              	.LASF96:
 3679 058d 746D5F63 		.ascii	"tm_calibration_t\000"
 3679      616C6962 
 3679      72617469 
 3679      6F6E5F74 
 3679      00
 3680              	.LASF120:
 3681 059e 6D5F6E65 		.ascii	"m_next\000"
 3681      787400
 3682              	.LASF147:
 3683 05a5 74696D65 		.ascii	"time\000"
 3683      00
 3684              	.LASF64:
 3685 05aa 725F6375 		.ascii	"r_current\000"
 3685      7272656E 
 3685      7400
 3686              	.LASF63:
 3687 05b4 725F6F6C 		.ascii	"r_older\000"
 3687      64657200 
 3688              	.LASF13:
 3689 05bc 5F5F7569 		.ascii	"__uint64_t\000"
 3689      6E743634 
 3689      5F7400
 3690              	.LASF100:
 3691 05c7 63756D75 		.ascii	"cumulative\000"
 3691      6C617469 
 3691      766500
 3692              	.LASF24:
 3693 05d2 74726566 		.ascii	"trefs_t\000"
 3693      735F7400 
 3694              	.LASF126:
 3695 05da 63685F70 		.ascii	"ch_ptrsize\000"
 3695      74727369 
 3695      7A6500
 3696              	.LASF66:
 3697 05e5 76697274 		.ascii	"virtual_timer_t\000"
 3697      75616C5F 
 3697      74696D65 
 3697      725F7400 
 3698              	.LASF33:
 3699 05f5 705F7072 		.ascii	"p_prev\000"
 3699      657600
 3700              	.LASF25:
 3701 05fc 74707269 		.ascii	"tprio_t\000"
 3701      6F5F7400 
 3702              	.LASF155:
 3703 0604 6368436F 		.ascii	"chCondSignalI\000"
 3703      6E645369 
 3703      676E616C 
 3703      4900
 3704              	.LASF146:
 3705 0612 5F426F6F 		.ascii	"_Bool\000"
 3705      6C00
ARM GAS  /tmp/cc843xpW.s 			page 71


 3706              	.LASF17:
 3707 0618 696E7433 		.ascii	"int32_t\000"
 3707      325F7400 
 3708              	.LASF4:
 3709 0620 756E7369 		.ascii	"unsigned char\000"
 3709      676E6564 
 3709      20636861 
 3709      7200
 3710              	.LASF47:
 3711 062e 705F6D74 		.ascii	"p_mtxlist\000"
 3711      786C6973 
 3711      7400
 3712              	.LASF5:
 3713 0638 73686F72 		.ascii	"short int\000"
 3713      7420696E 
 3713      7400
 3714              	.LASF40:
 3715 0642 705F7374 		.ascii	"p_state\000"
 3715      61746500 
 3716              	.LASF60:
 3717 064a 725F7072 		.ascii	"r_prio\000"
 3717      696F00
 3718              	.LASF113:
 3719 0651 65776D61 		.ascii	"ewmask\000"
 3719      736B00
 3720              	.LASF32:
 3721 0658 705F6E65 		.ascii	"p_next\000"
 3721      787400
 3722              	.LASF22:
 3723 065f 746D6F64 		.ascii	"tmode_t\000"
 3723      655F7400 
 3724              	.LASF138:
 3725 0667 63665F6F 		.ascii	"cf_off_preempt\000"
 3725      66665F70 
 3725      7265656D 
 3725      707400
 3726              	.LASF41:
 3727 0676 705F666C 		.ascii	"p_flags\000"
 3727      61677300 
 3728              	.LASF151:
 3729 067e 5F5F6675 		.ascii	"__func__\000"
 3729      6E635F5F 
 3729      00
 3730              	.LASF50:
 3731 0687 705F7374 		.ascii	"p_stats\000"
 3731      61747300 
 3732              	.LASF170:
 3733 068f 63685379 		.ascii	"chSysLock\000"
 3733      734C6F63 
 3733      6B00
 3734              	.LASF55:
 3735 0699 74687265 		.ascii	"threads_queue_t\000"
 3735      6164735F 
 3735      71756575 
 3735      655F7400 
 3736              	.LASF67:
 3737 06a9 63685F76 		.ascii	"ch_virtual_timer\000"
ARM GAS  /tmp/cc843xpW.s 			page 72


 3737      69727475 
 3737      616C5F74 
 3737      696D6572 
 3737      00
 3738              	.LASF131:
 3739 06ba 63665F6F 		.ascii	"cf_off_newer\000"
 3739      66665F6E 
 3739      65776572 
 3739      00
 3740              	.LASF114:
 3741 06c7 63685F73 		.ascii	"ch_semaphore\000"
 3741      656D6170 
 3741      686F7265 
 3741      00
 3742              	.LASF46:
 3743 06d4 705F6570 		.ascii	"p_epending\000"
 3743      656E6469 
 3743      6E6700
 3744              	.LASF158:
 3745 06df 63684D74 		.ascii	"chMtxGetNextMutexS\000"
 3745      78476574 
 3745      4E657874 
 3745      4D757465 
 3745      785300
 3746              	.LASF18:
 3747 06f2 75696E74 		.ascii	"uint32_t\000"
 3747      33325F74 
 3747      00
 3748              	.LASF129:
 3749 06fb 63665F6F 		.ascii	"cf_off_prio\000"
 3749      66665F70 
 3749      72696F00 
 3750              	.LASF59:
 3751 0707 725F7175 		.ascii	"r_queue\000"
 3751      65756500 
 3752              	.LASF54:
 3753 070f 63685F74 		.ascii	"ch_threads_list\000"
 3753      68726561 
 3753      64735F6C 
 3753      69737400 
 3754              	.LASF124:
 3755 071f 63685F73 		.ascii	"ch_size\000"
 3755      697A6500 
 3756              	.LASF12:
 3757 0727 6C6F6E67 		.ascii	"long unsigned int\000"
 3757      20756E73 
 3757      69676E65 
 3757      6420696E 
 3757      7400
 3758              	.LASF121:
 3759 0739 63686172 		.ascii	"char\000"
 3759      00
 3760              	.LASF112:
 3761 073e 77746D74 		.ascii	"wtmtxp\000"
 3761      787000
 3762              	.LASF7:
 3763 0745 5F5F7569 		.ascii	"__uint16_t\000"
ARM GAS  /tmp/cc843xpW.s 			page 73


 3763      6E743136 
 3763      5F7400
 3764              	.LASF157:
 3765 0750 6368436F 		.ascii	"chCondObjectInit\000"
 3765      6E644F62 
 3765      6A656374 
 3765      496E6974 
 3765      00
 3766              	.LASF97:
 3767 0761 62657374 		.ascii	"best\000"
 3767      00
 3768              	.LASF162:
 3769 0766 71756575 		.ascii	"queue_fifo_remove\000"
 3769      655F6669 
 3769      666F5F72 
 3769      656D6F76 
 3769      6500
 3770              	.LASF30:
 3771 0778 73797374 		.ascii	"systime_t\000"
 3771      696D655F 
 3771      7400
 3772              	.LASF48:
 3773 0782 705F7265 		.ascii	"p_realprio\000"
 3773      616C7072 
 3773      696F00
 3774              	.LASF65:
 3775 078d 76746675 		.ascii	"vtfunc_t\000"
 3775      6E635F74 
 3775      00
 3776              	.LASF11:
 3777 0796 5F5F7569 		.ascii	"__uint32_t\000"
 3777      6E743332 
 3777      5F7400
 3778              	.LASF171:
 3779 07a1 5F5F7365 		.ascii	"__set_BASEPRI\000"
 3779      745F4241 
 3779      53455052 
 3779      4900
 3780              	.LASF78:
 3781 07af 70616E69 		.ascii	"panic_msg\000"
 3781      635F6D73 
 3781      6700
 3782              	.LASF95:
 3783 07b9 6F666673 		.ascii	"offset\000"
 3783      657400
 3784              	.LASF93:
 3785 07c0 636F6E74 		.ascii	"context\000"
 3785      65787400 
 3786              	.LASF45:
 3787 07c8 705F6D73 		.ascii	"p_msg\000"
 3787      6700
 3788              	.LASF20:
 3789 07ce 7274636E 		.ascii	"rtcnt_t\000"
 3789      745F7400 
 3790              	.LASF152:
 3791 07d6 6368436F 		.ascii	"chCondWait\000"
 3791      6E645761 
ARM GAS  /tmp/cc843xpW.s 			page 74


 3791      697400
 3792              	.LASF72:
 3793 07e1 76745F70 		.ascii	"vt_par\000"
 3793      617200
 3794              	.LASF130:
 3795 07e8 63665F6F 		.ascii	"cf_off_ctx\000"
 3795      66665F63 
 3795      747800
 3796              	.LASF117:
 3797 07f3 63685F6D 		.ascii	"ch_mutex\000"
 3797      75746578 
 3797      00
 3798              	.LASF42:
 3799 07fc 705F7265 		.ascii	"p_refs\000"
 3799      667300
 3800              	.LASF79:
 3801 0803 6973725F 		.ascii	"isr_cnt\000"
 3801      636E7400 
 3802              	.LASF31:
 3803 080b 74687265 		.ascii	"thread_t\000"
 3803      61645F74 
 3803      00
 3804              	.LASF83:
 3805 0814 726C6973 		.ascii	"rlist\000"
 3805      7400
 3806              	.LASF159:
 3807 081a 63685468 		.ascii	"chThdGetSelfX\000"
 3807      64476574 
 3807      53656C66 
 3807      5800
 3808              	.LASF15:
 3809 0828 75696E74 		.ascii	"uint8_t\000"
 3809      385F7400 
 3810              	.LASF51:
 3811 0830 74687265 		.ascii	"thread_reference_t\000"
 3811      61645F72 
 3811      65666572 
 3811      656E6365 
 3811      5F7400
 3812              	.LASF109:
 3813 0843 77746F62 		.ascii	"wtobjp\000"
 3813      6A7000
 3814              	.LASF38:
 3815 084a 705F6E61 		.ascii	"p_name\000"
 3815      6D6500
 3816              	.LASF149:
 3817 0851 6368436F 		.ascii	"chCondWaitTimeout\000"
 3817      6E645761 
 3817      69745469 
 3817      6D656F75 
 3817      7400
 3818              	.LASF75:
 3819 0863 76745F73 		.ascii	"vt_systime\000"
 3819      79737469 
 3819      6D6500
 3820              	.LASF160:
 3821 086e 63685379 		.ascii	"chSysUnlock\000"
ARM GAS  /tmp/cc843xpW.s 			page 75


 3821      73556E6C 
 3821      6F636B00 
 3822              	.LASF125:
 3823 087a 63685F76 		.ascii	"ch_version\000"
 3823      65727369 
 3823      6F6E00
 3824              	.LASF161:
 3825 0885 71756575 		.ascii	"queue_prio_insert\000"
 3825      655F7072 
 3825      696F5F69 
 3825      6E736572 
 3825      7400
 3826              	.LASF104:
 3827 0897 6D5F6372 		.ascii	"m_crit_thd\000"
 3827      69745F74 
 3827      686400
 3828              	.LASF119:
 3829 08a2 6D5F6F77 		.ascii	"m_owner\000"
 3829      6E657200 
 3830              	.LASF122:
 3831 08aa 63685F69 		.ascii	"ch_identifier\000"
 3831      64656E74 
 3831      69666965 
 3831      7200
 3832              	.LASF71:
 3833 08b8 76745F66 		.ascii	"vt_func\000"
 3833      756E6300 
 3834              		.ident	"GCC: (GNU Tools for ARM Embedded Processors 6-2017-q2-update) 6.3.1 20170620 (release) [AR
ARM GAS  /tmp/cc843xpW.s 			page 76


DEFINED SYMBOLS
                            *ABS*:0000000000000000 chcond.c
     /tmp/cc843xpW.s:18     .text.port_lock:0000000000000000 $t
     /tmp/cc843xpW.s:25     .text.port_lock:0000000000000000 port_lock
     /tmp/cc843xpW.s:60     .text.port_unlock:0000000000000000 $t
     /tmp/cc843xpW.s:67     .text.port_unlock:0000000000000000 port_unlock
     /tmp/cc843xpW.s:100    .text.queue_init:0000000000000000 $t
     /tmp/cc843xpW.s:107    .text.queue_init:0000000000000000 queue_init
     /tmp/cc843xpW.s:136    .text.queue_notempty:0000000000000000 $t
     /tmp/cc843xpW.s:143    .text.queue_notempty:0000000000000000 queue_notempty
     /tmp/cc843xpW.s:172    .text.queue_prio_insert:0000000000000000 $t
     /tmp/cc843xpW.s:179    .text.queue_prio_insert:0000000000000000 queue_prio_insert
     /tmp/cc843xpW.s:239    .text.queue_fifo_remove:0000000000000000 $t
     /tmp/cc843xpW.s:246    .text.queue_fifo_remove:0000000000000000 queue_fifo_remove
     /tmp/cc843xpW.s:282    .text.chSysLock:0000000000000000 $t
     /tmp/cc843xpW.s:289    .text.chSysLock:0000000000000000 chSysLock
     /tmp/cc843xpW.s:313    .text.chSysUnlock:0000000000000000 $t
     /tmp/cc843xpW.s:320    .text.chSysUnlock:0000000000000000 chSysUnlock
     /tmp/cc843xpW.s:361    .text.chSysUnlock:0000000000000034 $d
     /tmp/cc843xpW.s:979    .rodata.__func__.7157:0000000000000000 __func__.7157
     /tmp/cc843xpW.s:367    .text.chThdGetSelfX:0000000000000000 $t
     /tmp/cc843xpW.s:374    .text.chThdGetSelfX:0000000000000000 chThdGetSelfX
     /tmp/cc843xpW.s:391    .text.chThdGetSelfX:0000000000000008 $d
     /tmp/cc843xpW.s:396    .text.chMtxGetNextMutexS:0000000000000000 $t
     /tmp/cc843xpW.s:403    .text.chMtxGetNextMutexS:0000000000000000 chMtxGetNextMutexS
     /tmp/cc843xpW.s:425    .text.chCondObjectInit:0000000000000000 $t
     /tmp/cc843xpW.s:433    .text.chCondObjectInit:0000000000000000 chCondObjectInit
     /tmp/cc843xpW.s:467    .text.chCondObjectInit:0000000000000024 $d
     /tmp/cc843xpW.s:967    .rodata.__func__.7857:0000000000000000 __func__.7857
     /tmp/cc843xpW.s:472    .text.chCondSignal:0000000000000000 $t
     /tmp/cc843xpW.s:480    .text.chCondSignal:0000000000000000 chCondSignal
     /tmp/cc843xpW.s:529    .text.chCondSignal:0000000000000044 $d
     /tmp/cc843xpW.s:973    .rodata.__func__.7861:0000000000000000 __func__.7861
     /tmp/cc843xpW.s:534    .text.chCondSignalI:0000000000000000 $t
     /tmp/cc843xpW.s:542    .text.chCondSignalI:0000000000000000 chCondSignalI
     /tmp/cc843xpW.s:595    .text.chCondSignalI:0000000000000044 $d
     /tmp/cc843xpW.s:985    .rodata.__func__.7865:0000000000000000 __func__.7865
     /tmp/cc843xpW.s:600    .text.chCondBroadcast:0000000000000000 $t
     /tmp/cc843xpW.s:608    .text.chCondBroadcast:0000000000000000 chCondBroadcast
     /tmp/cc843xpW.s:647    .text.chCondBroadcastI:0000000000000000 chCondBroadcastI
     /tmp/cc843xpW.s:639    .text.chCondBroadcastI:0000000000000000 $t
     /tmp/cc843xpW.s:698    .text.chCondBroadcastI:0000000000000048 $d
     /tmp/cc843xpW.s:991    .rodata.__func__.7873:0000000000000000 __func__.7873
     /tmp/cc843xpW.s:703    .text.chCondWait:0000000000000000 $t
     /tmp/cc843xpW.s:711    .text.chCondWait:0000000000000000 chCondWait
     /tmp/cc843xpW.s:751    .text.chCondWaitS:0000000000000000 chCondWaitS
     /tmp/cc843xpW.s:743    .text.chCondWaitS:0000000000000000 $t
     /tmp/cc843xpW.s:822    .text.chCondWaitS:0000000000000064 $d
     /tmp/cc843xpW.s:997    .rodata.__func__.7887:0000000000000000 __func__.7887
     /tmp/cc843xpW.s:828    .text.chCondWaitTimeout:0000000000000000 $t
     /tmp/cc843xpW.s:836    .text.chCondWaitTimeout:0000000000000000 chCondWaitTimeout
     /tmp/cc843xpW.s:878    .text.chCondWaitTimeoutS:0000000000000000 chCondWaitTimeoutS
     /tmp/cc843xpW.s:870    .text.chCondWaitTimeoutS:0000000000000000 $t
     /tmp/cc843xpW.s:958    .text.chCondWaitTimeoutS:0000000000000074 $d
     /tmp/cc843xpW.s:1003   .rodata.__func__.7899:0000000000000000 __func__.7899
     /tmp/cc843xpW.s:964    .rodata.__func__.7857:0000000000000000 $d
     /tmp/cc843xpW.s:970    .rodata.__func__.7861:0000000000000000 $d
ARM GAS  /tmp/cc843xpW.s 			page 77


     /tmp/cc843xpW.s:976    .rodata.__func__.7157:0000000000000000 $d
     /tmp/cc843xpW.s:982    .rodata.__func__.7865:0000000000000000 $d
     /tmp/cc843xpW.s:988    .rodata.__func__.7873:0000000000000000 $d
     /tmp/cc843xpW.s:994    .rodata.__func__.7887:0000000000000000 $d
     /tmp/cc843xpW.s:1000   .rodata.__func__.7899:0000000000000000 $d
                     .debug_frame:0000000000000010 $d

UNDEFINED SYMBOLS
_stats_start_measure_crit_thd
_dbg_check_lock
_dbg_check_unlock
_stats_stop_measure_crit_thd
chSysHalt
ch
chSchWakeupS
chDbgCheckClassI
chSchReadyI
chSchRescheduleS
chDbgCheckClassS
chMtxUnlockS
chSchGoSleepS
chMtxLockS
chSchGoSleepTimeoutS
