ARM GAS  /tmp/cc843xpW.s 			page 1


   1              		.cpu cortex-m4
   2              		.eabi_attribute 27, 1
   3              		.eabi_attribute 28, 1
   4              		.eabi_attribute 20, 1
   5              		.eabi_attribute 21, 1
   6              		.eabi_attribute 23, 3
   7              		.eabi_attribute 24, 1
   8              		.eabi_attribute 25, 1
   9              		.eabi_attribute 26, 1
  10              		.eabi_attribute 30, 6
  11              		.eabi_attribute 34, 1
  12              		.eabi_attribute 18, 4
  13              		.file	"chcond.c"
  14              		.text
  15              	.Ltext0:
  16              		.cfi_sections	.debug_frame
  17              		.section	.text.port_lock,"ax",%progbits
  18              		.align	1
  19              		.p2align 4,,15
  20              		.syntax unified
  21              		.thumb
  22              		.thumb_func
  23              		.fpu fpv4-sp-d16
  24              		.type	port_lock, %function
  25              	port_lock:
  26              	.LFB127:
  27              		.file 1 "../ChibiOS/os/rt/ports/ARMCMx/chcore_v7m.h"
  28              		.loc 1 456 0
  29              		.cfi_startproc
  30              		@ args = 0, pretend = 0, frame = 8
  31              		@ frame_needed = 0, uses_anonymous_args = 0
  32              		@ link register save eliminated.
  33 0000 82B0     		sub	sp, sp, #8
  34              		.cfi_def_cfa_offset 8
  35 0002 2023     		movs	r3, #32
  36 0004 0193     		str	r3, [sp, #4]
  37              	.LBB6:
  38              	.LBB7:
  39              		.file 2 "../ChibiOS/os/ext/CMSIS/include/core_cmFunc.h"
  40              		.loc 2 548 0
  41 0006 019B     		ldr	r3, [sp, #4]
  42              		.syntax unified
  43              	@ 548 "../ChibiOS/os/ext/CMSIS/include/core_cmFunc.h" 1
  44 0008 83F31188 		MSR basepri, r3
  45              	@ 0 "" 2
  46              		.thumb
  47              		.syntax unified
  48              	.LBE7:
  49              	.LBE6:
  50              		.loc 1 473 0
  51 000c 00BF     		nop
  52 000e 02B0     		add	sp, sp, #8
  53              		.cfi_def_cfa_offset 0
  54              		@ sp needed
  55 0010 7047     		bx	lr
  56              		.cfi_endproc
  57              	.LFE127:
ARM GAS  /tmp/cc843xpW.s 			page 2


  58              		.size	port_lock, .-port_lock
  59 0012 00BF     		.section	.text.port_unlock,"ax",%progbits
  60              		.align	1
  61              		.p2align 4,,15
  62              		.syntax unified
  63              		.thumb
  64              		.thumb_func
  65              		.fpu fpv4-sp-d16
  66              		.type	port_unlock, %function
  67              	port_unlock:
  68              	.LFB128:
  69              		.loc 1 480 0
  70              		.cfi_startproc
  71              		@ args = 0, pretend = 0, frame = 8
  72              		@ frame_needed = 0, uses_anonymous_args = 0
  73              		@ link register save eliminated.
  74 0000 82B0     		sub	sp, sp, #8
  75              		.cfi_def_cfa_offset 8
  76 0002 0023     		movs	r3, #0
  77 0004 0193     		str	r3, [sp, #4]
  78              	.LBB8:
  79              	.LBB9:
  80              		.loc 2 548 0
  81 0006 019B     		ldr	r3, [sp, #4]
  82              		.syntax unified
  83              	@ 548 "../ChibiOS/os/ext/CMSIS/include/core_cmFunc.h" 1
  84 0008 83F31188 		MSR basepri, r3
  85              	@ 0 "" 2
  86              		.thumb
  87              		.syntax unified
  88              	.LBE9:
  89              	.LBE8:
  90              		.loc 1 487 0
  91 000c 00BF     		nop
  92 000e 02B0     		add	sp, sp, #8
  93              		.cfi_def_cfa_offset 0
  94              		@ sp needed
  95 0010 7047     		bx	lr
  96              		.cfi_endproc
  97              	.LFE128:
  98              		.size	port_unlock, .-port_unlock
  99 0012 00BF     		.section	.text.queue_init,"ax",%progbits
 100              		.align	1
 101              		.p2align 4,,15
 102              		.syntax unified
 103              		.thumb
 104              		.thumb_func
 105              		.fpu fpv4-sp-d16
 106              		.type	queue_init, %function
 107              	queue_init:
 108              	.LFB139:
 109              		.file 3 "../ChibiOS/os/rt/include/chschd.h"
 110              		.loc 3 602 0
 111              		.cfi_startproc
 112              		@ args = 0, pretend = 0, frame = 8
 113              		@ frame_needed = 0, uses_anonymous_args = 0
 114              		@ link register save eliminated.
ARM GAS  /tmp/cc843xpW.s 			page 3


 115 0000 82B0     		sub	sp, sp, #8
 116              		.cfi_def_cfa_offset 8
 117 0002 0190     		str	r0, [sp, #4]
 118              		.loc 3 604 0
 119 0004 019B     		ldr	r3, [sp, #4]
 120 0006 019A     		ldr	r2, [sp, #4]
 121 0008 1A60     		str	r2, [r3]
 122              		.loc 3 605 0
 123 000a 019B     		ldr	r3, [sp, #4]
 124 000c 019A     		ldr	r2, [sp, #4]
 125 000e 5A60     		str	r2, [r3, #4]
 126              		.loc 3 606 0
 127 0010 00BF     		nop
 128 0012 02B0     		add	sp, sp, #8
 129              		.cfi_def_cfa_offset 0
 130              		@ sp needed
 131 0014 7047     		bx	lr
 132              		.cfi_endproc
 133              	.LFE139:
 134              		.size	queue_init, .-queue_init
 135              		.section	.text.queue_notempty,"ax",%progbits
 136              		.align	1
 137              		.p2align 4,,15
 138              		.syntax unified
 139              		.thumb
 140              		.thumb_func
 141              		.fpu fpv4-sp-d16
 142              		.type	queue_notempty, %function
 143              	queue_notempty:
 144              	.LFB141:
 145              		.loc 3 629 0
 146              		.cfi_startproc
 147              		@ args = 0, pretend = 0, frame = 8
 148              		@ frame_needed = 0, uses_anonymous_args = 0
 149              		@ link register save eliminated.
 150 0000 82B0     		sub	sp, sp, #8
 151              		.cfi_def_cfa_offset 8
 152 0002 0190     		str	r0, [sp, #4]
 153              		.loc 3 631 0
 154 0004 019B     		ldr	r3, [sp, #4]
 155 0006 1A68     		ldr	r2, [r3]
 156 0008 019B     		ldr	r3, [sp, #4]
 157 000a 9A42     		cmp	r2, r3
 158 000c 14BF     		ite	ne
 159 000e 0123     		movne	r3, #1
 160 0010 0023     		moveq	r3, #0
 161 0012 DBB2     		uxtb	r3, r3
 162              		.loc 3 632 0
 163 0014 1846     		mov	r0, r3
 164 0016 02B0     		add	sp, sp, #8
 165              		.cfi_def_cfa_offset 0
 166              		@ sp needed
 167 0018 7047     		bx	lr
 168              		.cfi_endproc
 169              	.LFE141:
 170              		.size	queue_notempty, .-queue_notempty
 171 001a 00BF     		.section	.text.queue_prio_insert,"ax",%progbits
ARM GAS  /tmp/cc843xpW.s 			page 4


 172              		.align	1
 173              		.p2align 4,,15
 174              		.syntax unified
 175              		.thumb
 176              		.thumb_func
 177              		.fpu fpv4-sp-d16
 178              		.type	queue_prio_insert, %function
 179              	queue_prio_insert:
 180              	.LFB144:
 181              		.loc 3 651 0
 182              		.cfi_startproc
 183              		@ args = 0, pretend = 0, frame = 16
 184              		@ frame_needed = 0, uses_anonymous_args = 0
 185              		@ link register save eliminated.
 186 0000 84B0     		sub	sp, sp, #16
 187              		.cfi_def_cfa_offset 16
 188 0002 0190     		str	r0, [sp, #4]
 189 0004 0091     		str	r1, [sp]
 190              		.loc 3 653 0
 191 0006 009B     		ldr	r3, [sp]
 192 0008 0393     		str	r3, [sp, #12]
 193              	.L8:
 194              		.loc 3 655 0 discriminator 2
 195 000a 039B     		ldr	r3, [sp, #12]
 196 000c 1B68     		ldr	r3, [r3]
 197 000e 0393     		str	r3, [sp, #12]
 198              		.loc 3 656 0 discriminator 2
 199 0010 039A     		ldr	r2, [sp, #12]
 200 0012 009B     		ldr	r3, [sp]
 201 0014 9A42     		cmp	r2, r3
 202 0016 05D0     		beq	.L7
 203              		.loc 3 656 0 is_stmt 0 discriminator 1
 204 0018 039B     		ldr	r3, [sp, #12]
 205 001a 9A68     		ldr	r2, [r3, #8]
 206 001c 019B     		ldr	r3, [sp, #4]
 207 001e 9B68     		ldr	r3, [r3, #8]
 208 0020 9A42     		cmp	r2, r3
 209 0022 F2D2     		bcs	.L8
 210              	.L7:
 211              		.loc 3 657 0 is_stmt 1
 212 0024 019B     		ldr	r3, [sp, #4]
 213 0026 039A     		ldr	r2, [sp, #12]
 214 0028 1A60     		str	r2, [r3]
 215              		.loc 3 658 0
 216 002a 039B     		ldr	r3, [sp, #12]
 217 002c 5A68     		ldr	r2, [r3, #4]
 218 002e 019B     		ldr	r3, [sp, #4]
 219 0030 5A60     		str	r2, [r3, #4]
 220              		.loc 3 659 0
 221 0032 019B     		ldr	r3, [sp, #4]
 222 0034 5B68     		ldr	r3, [r3, #4]
 223 0036 019A     		ldr	r2, [sp, #4]
 224 0038 1A60     		str	r2, [r3]
 225              		.loc 3 660 0
 226 003a 039B     		ldr	r3, [sp, #12]
 227 003c 019A     		ldr	r2, [sp, #4]
 228 003e 5A60     		str	r2, [r3, #4]
ARM GAS  /tmp/cc843xpW.s 			page 5


 229              		.loc 3 661 0
 230 0040 00BF     		nop
 231 0042 04B0     		add	sp, sp, #16
 232              		.cfi_def_cfa_offset 0
 233              		@ sp needed
 234 0044 7047     		bx	lr
 235              		.cfi_endproc
 236              	.LFE144:
 237              		.size	queue_prio_insert, .-queue_prio_insert
 238 0046 00BF     		.section	.text.queue_fifo_remove,"ax",%progbits
 239              		.align	1
 240              		.p2align 4,,15
 241              		.syntax unified
 242              		.thumb
 243              		.thumb_func
 244              		.fpu fpv4-sp-d16
 245              		.type	queue_fifo_remove, %function
 246              	queue_fifo_remove:
 247              	.LFB146:
 248              		.loc 3 671 0
 249              		.cfi_startproc
 250              		@ args = 0, pretend = 0, frame = 16
 251              		@ frame_needed = 0, uses_anonymous_args = 0
 252              		@ link register save eliminated.
 253 0000 84B0     		sub	sp, sp, #16
 254              		.cfi_def_cfa_offset 16
 255 0002 0190     		str	r0, [sp, #4]
 256              		.loc 3 672 0
 257 0004 019B     		ldr	r3, [sp, #4]
 258 0006 1B68     		ldr	r3, [r3]
 259 0008 0393     		str	r3, [sp, #12]
 260              		.loc 3 674 0
 261 000a 039B     		ldr	r3, [sp, #12]
 262 000c 1A68     		ldr	r2, [r3]
 263 000e 019B     		ldr	r3, [sp, #4]
 264 0010 1A60     		str	r2, [r3]
 265              		.loc 3 675 0
 266 0012 019B     		ldr	r3, [sp, #4]
 267 0014 1B68     		ldr	r3, [r3]
 268 0016 019A     		ldr	r2, [sp, #4]
 269 0018 5A60     		str	r2, [r3, #4]
 270              		.loc 3 677 0
 271 001a 039B     		ldr	r3, [sp, #12]
 272              		.loc 3 678 0
 273 001c 1846     		mov	r0, r3
 274 001e 04B0     		add	sp, sp, #16
 275              		.cfi_def_cfa_offset 0
 276              		@ sp needed
 277 0020 7047     		bx	lr
 278              		.cfi_endproc
 279              	.LFE146:
 280              		.size	queue_fifo_remove, .-queue_fifo_remove
 281 0022 00BF     		.section	.text.chSysLock,"ax",%progbits
 282              		.align	1
 283              		.p2align 4,,15
 284              		.syntax unified
 285              		.thumb
ARM GAS  /tmp/cc843xpW.s 			page 6


 286              		.thumb_func
 287              		.fpu fpv4-sp-d16
 288              		.type	chSysLock, %function
 289              	chSysLock:
 290              	.LFB156:
 291              		.file 4 "../ChibiOS/os/rt/include/chsys.h"
 292              		.loc 4 346 0
 293              		.cfi_startproc
 294              		@ args = 0, pretend = 0, frame = 0
 295              		@ frame_needed = 0, uses_anonymous_args = 0
 296 0000 08B5     		push	{r3, lr}
 297              		.cfi_def_cfa_offset 8
 298              		.cfi_offset 3, -8
 299              		.cfi_offset 14, -4
 300              		.loc 4 348 0
 301 0002 FFF7FEFF 		bl	port_lock
 302              		.loc 4 349 0
 303 0006 FFF7FEFF 		bl	_stats_start_measure_crit_thd
 304              		.loc 4 350 0
 305 000a FFF7FEFF 		bl	_dbg_check_lock
 306              		.loc 4 351 0
 307 000e 00BF     		nop
 308 0010 08BD     		pop	{r3, pc}
 309              		.cfi_endproc
 310              	.LFE156:
 311              		.size	chSysLock, .-chSysLock
 312 0012 00BF     		.section	.text.chSysUnlock,"ax",%progbits
 313              		.align	1
 314              		.p2align 4,,15
 315              		.syntax unified
 316              		.thumb
 317              		.thumb_func
 318              		.fpu fpv4-sp-d16
 319              		.type	chSysUnlock, %function
 320              	chSysUnlock:
 321              	.LFB157:
 322              		.loc 4 358 0
 323              		.cfi_startproc
 324              		@ args = 0, pretend = 0, frame = 0
 325              		@ frame_needed = 0, uses_anonymous_args = 0
 326 0000 08B5     		push	{r3, lr}
 327              		.cfi_def_cfa_offset 8
 328              		.cfi_offset 3, -8
 329              		.cfi_offset 14, -4
 330              		.loc 4 360 0
 331 0002 FFF7FEFF 		bl	_dbg_check_unlock
 332              		.loc 4 361 0
 333 0006 FFF7FEFF 		bl	_stats_stop_measure_crit_thd
 334              		.loc 4 367 0
 335 000a 0A4B     		ldr	r3, .L14
 336 000c 1B68     		ldr	r3, [r3]
 337 000e 094A     		ldr	r2, .L14
 338 0010 9342     		cmp	r3, r2
 339 0012 0AD0     		beq	.L13
 340              		.loc 4 367 0 is_stmt 0 discriminator 2
 341 0014 074B     		ldr	r3, .L14
 342 0016 9B69     		ldr	r3, [r3, #24]
ARM GAS  /tmp/cc843xpW.s 			page 7


 343 0018 9A68     		ldr	r2, [r3, #8]
 344 001a 064B     		ldr	r3, .L14
 345 001c 1B68     		ldr	r3, [r3]
 346 001e 9B68     		ldr	r3, [r3, #8]
 347 0020 9A42     		cmp	r2, r3
 348 0022 02D2     		bcs	.L13
 349              		.loc 4 367 0 discriminator 3
 350 0024 0448     		ldr	r0, .L14+4
 351 0026 FFF7FEFF 		bl	chSysHalt
 352              	.L13:
 353              		.loc 4 371 0 is_stmt 1
 354 002a FFF7FEFF 		bl	port_unlock
 355              		.loc 4 372 0
 356 002e 00BF     		nop
 357 0030 08BD     		pop	{r3, pc}
 358              	.L15:
 359 0032 00BF     		.align	2
 360              	.L14:
 361 0034 00000000 		.word	ch
 362 0038 00000000 		.word	__func__.7157
 363              		.cfi_endproc
 364              	.LFE157:
 365              		.size	chSysUnlock, .-chSysUnlock
 366              		.section	.text.chThdGetSelfX,"ax",%progbits
 367              		.align	1
 368              		.p2align 4,,15
 369              		.syntax unified
 370              		.thumb
 371              		.thumb_func
 372              		.fpu fpv4-sp-d16
 373              		.type	chThdGetSelfX, %function
 374              	chThdGetSelfX:
 375              	.LFB178:
 376              		.file 5 "../ChibiOS/os/rt/include/chthreads.h"
 377              		.loc 5 174 0
 378              		.cfi_startproc
 379              		@ args = 0, pretend = 0, frame = 0
 380              		@ frame_needed = 0, uses_anonymous_args = 0
 381              		@ link register save eliminated.
 382              		.loc 5 176 0
 383 0000 014B     		ldr	r3, .L18
 384 0002 9B69     		ldr	r3, [r3, #24]
 385              		.loc 5 177 0
 386 0004 1846     		mov	r0, r3
 387 0006 7047     		bx	lr
 388              	.L19:
 389              		.align	2
 390              	.L18:
 391 0008 00000000 		.word	ch
 392              		.cfi_endproc
 393              	.LFE178:
 394              		.size	chThdGetSelfX, .-chThdGetSelfX
 395              		.section	.text.chMtxGetNextMutexS,"ax",%progbits
 396              		.align	1
 397              		.p2align 4,,15
 398              		.syntax unified
 399              		.thumb
ARM GAS  /tmp/cc843xpW.s 			page 8


 400              		.thumb_func
 401              		.fpu fpv4-sp-d16
 402              		.type	chMtxGetNextMutexS, %function
 403              	chMtxGetNextMutexS:
 404              	.LFB204:
 405              		.file 6 "../ChibiOS/os/rt/include/chmtx.h"
 406              		.loc 6 143 0
 407              		.cfi_startproc
 408              		@ args = 0, pretend = 0, frame = 0
 409              		@ frame_needed = 0, uses_anonymous_args = 0
 410 0000 08B5     		push	{r3, lr}
 411              		.cfi_def_cfa_offset 8
 412              		.cfi_offset 3, -8
 413              		.cfi_offset 14, -4
 414              		.loc 6 145 0
 415 0002 FFF7FEFF 		bl	chThdGetSelfX
 416 0006 0346     		mov	r3, r0
 417 0008 DB6B     		ldr	r3, [r3, #60]
 418              		.loc 6 146 0
 419 000a 1846     		mov	r0, r3
 420 000c 08BD     		pop	{r3, pc}
 421              		.cfi_endproc
 422              	.LFE204:
 423              		.size	chMtxGetNextMutexS, .-chMtxGetNextMutexS
 424 000e 00BF     		.section	.text.chCondObjectInit,"ax",%progbits
 425              		.align	1
 426              		.p2align 4,,15
 427              		.global	chCondObjectInit
 428              		.syntax unified
 429              		.thumb
 430              		.thumb_func
 431              		.fpu fpv4-sp-d16
 432              		.type	chCondObjectInit, %function
 433              	chCondObjectInit:
 434              	.LFB231:
 435              		.file 7 "../ChibiOS/os/rt/src/chcond.c"
 436              		.loc 7 75 0
 437              		.cfi_startproc
 438              		@ args = 0, pretend = 0, frame = 8
 439              		@ frame_needed = 0, uses_anonymous_args = 0
 440 0000 00B5     		push	{lr}
 441              		.cfi_def_cfa_offset 4
 442              		.cfi_offset 14, -4
 443 0002 83B0     		sub	sp, sp, #12
 444              		.cfi_def_cfa_offset 16
 445 0004 0190     		str	r0, [sp, #4]
 446              		.loc 7 77 0
 447 0006 019B     		ldr	r3, [sp, #4]
 448 0008 002B     		cmp	r3, #0
 449 000a 02D1     		bne	.L23
 450              		.loc 7 77 0 is_stmt 0 discriminator 2
 451 000c 0548     		ldr	r0, .L24
 452 000e FFF7FEFF 		bl	chSysHalt
 453              	.L23:
 454              		.loc 7 79 0 is_stmt 1
 455 0012 019B     		ldr	r3, [sp, #4]
 456 0014 1846     		mov	r0, r3
ARM GAS  /tmp/cc843xpW.s 			page 9


 457 0016 FFF7FEFF 		bl	queue_init
 458              		.loc 7 80 0
 459 001a 00BF     		nop
 460 001c 03B0     		add	sp, sp, #12
 461              		.cfi_def_cfa_offset 4
 462              		@ sp needed
 463 001e 5DF804FB 		ldr	pc, [sp], #4
 464              	.L25:
 465 0022 00BF     		.align	2
 466              	.L24:
 467 0024 00000000 		.word	__func__.7857
 468              		.cfi_endproc
 469              	.LFE231:
 470              		.size	chCondObjectInit, .-chCondObjectInit
 471              		.section	.text.chCondSignal,"ax",%progbits
 472              		.align	1
 473              		.p2align 4,,15
 474              		.global	chCondSignal
 475              		.syntax unified
 476              		.thumb
 477              		.thumb_func
 478              		.fpu fpv4-sp-d16
 479              		.type	chCondSignal, %function
 480              	chCondSignal:
 481              	.LFB232:
 482              		.loc 7 89 0
 483              		.cfi_startproc
 484              		@ args = 0, pretend = 0, frame = 8
 485              		@ frame_needed = 0, uses_anonymous_args = 0
 486 0000 00B5     		push	{lr}
 487              		.cfi_def_cfa_offset 4
 488              		.cfi_offset 14, -4
 489 0002 83B0     		sub	sp, sp, #12
 490              		.cfi_def_cfa_offset 16
 491 0004 0190     		str	r0, [sp, #4]
 492              		.loc 7 91 0
 493 0006 019B     		ldr	r3, [sp, #4]
 494 0008 002B     		cmp	r3, #0
 495 000a 02D1     		bne	.L27
 496              		.loc 7 91 0 is_stmt 0 discriminator 2
 497 000c 0D48     		ldr	r0, .L29
 498 000e FFF7FEFF 		bl	chSysHalt
 499              	.L27:
 500              		.loc 7 93 0 is_stmt 1
 501 0012 FFF7FEFF 		bl	chSysLock
 502              		.loc 7 94 0
 503 0016 019B     		ldr	r3, [sp, #4]
 504 0018 1846     		mov	r0, r3
 505 001a FFF7FEFF 		bl	queue_notempty
 506 001e 0346     		mov	r3, r0
 507 0020 002B     		cmp	r3, #0
 508 0022 08D0     		beq	.L28
 509              		.loc 7 95 0
 510 0024 019B     		ldr	r3, [sp, #4]
 511 0026 1846     		mov	r0, r3
 512 0028 FFF7FEFF 		bl	queue_fifo_remove
 513 002c 0346     		mov	r3, r0
ARM GAS  /tmp/cc843xpW.s 			page 10


 514 002e 0021     		movs	r1, #0
 515 0030 1846     		mov	r0, r3
 516 0032 FFF7FEFF 		bl	chSchWakeupS
 517              	.L28:
 518              		.loc 7 97 0
 519 0036 FFF7FEFF 		bl	chSysUnlock
 520              		.loc 7 98 0
 521 003a 00BF     		nop
 522 003c 03B0     		add	sp, sp, #12
 523              		.cfi_def_cfa_offset 4
 524              		@ sp needed
 525 003e 5DF804FB 		ldr	pc, [sp], #4
 526              	.L30:
 527 0042 00BF     		.align	2
 528              	.L29:
 529 0044 00000000 		.word	__func__.7861
 530              		.cfi_endproc
 531              	.LFE232:
 532              		.size	chCondSignal, .-chCondSignal
 533              		.section	.text.chCondSignalI,"ax",%progbits
 534              		.align	1
 535              		.p2align 4,,15
 536              		.global	chCondSignalI
 537              		.syntax unified
 538              		.thumb
 539              		.thumb_func
 540              		.fpu fpv4-sp-d16
 541              		.type	chCondSignalI, %function
 542              	chCondSignalI:
 543              	.LFB233:
 544              		.loc 7 111 0
 545              		.cfi_startproc
 546              		@ args = 0, pretend = 0, frame = 16
 547              		@ frame_needed = 0, uses_anonymous_args = 0
 548 0000 00B5     		push	{lr}
 549              		.cfi_def_cfa_offset 4
 550              		.cfi_offset 14, -4
 551 0002 85B0     		sub	sp, sp, #20
 552              		.cfi_def_cfa_offset 24
 553 0004 0190     		str	r0, [sp, #4]
 554              		.loc 7 113 0
 555 0006 FFF7FEFF 		bl	chDbgCheckClassI
 556              		.loc 7 114 0
 557 000a 019B     		ldr	r3, [sp, #4]
 558 000c 002B     		cmp	r3, #0
 559 000e 02D1     		bne	.L32
 560              		.loc 7 114 0 is_stmt 0 discriminator 2
 561 0010 0C48     		ldr	r0, .L35
 562 0012 FFF7FEFF 		bl	chSysHalt
 563              	.L32:
 564              		.loc 7 116 0 is_stmt 1
 565 0016 019B     		ldr	r3, [sp, #4]
 566 0018 1846     		mov	r0, r3
 567 001a FFF7FEFF 		bl	queue_notempty
 568 001e 0346     		mov	r3, r0
 569 0020 002B     		cmp	r3, #0
 570 0022 0AD0     		beq	.L34
ARM GAS  /tmp/cc843xpW.s 			page 11


 571              	.LBB10:
 572              		.loc 7 117 0
 573 0024 019B     		ldr	r3, [sp, #4]
 574 0026 1846     		mov	r0, r3
 575 0028 FFF7FEFF 		bl	queue_fifo_remove
 576 002c 0390     		str	r0, [sp, #12]
 577              		.loc 7 118 0
 578 002e 039B     		ldr	r3, [sp, #12]
 579 0030 0022     		movs	r2, #0
 580 0032 5A62     		str	r2, [r3, #36]
 581              		.loc 7 119 0
 582 0034 0398     		ldr	r0, [sp, #12]
 583 0036 FFF7FEFF 		bl	chSchReadyI
 584              	.L34:
 585              	.LBE10:
 586              		.loc 7 121 0
 587 003a 00BF     		nop
 588 003c 05B0     		add	sp, sp, #20
 589              		.cfi_def_cfa_offset 4
 590              		@ sp needed
 591 003e 5DF804FB 		ldr	pc, [sp], #4
 592              	.L36:
 593 0042 00BF     		.align	2
 594              	.L35:
 595 0044 00000000 		.word	__func__.7865
 596              		.cfi_endproc
 597              	.LFE233:
 598              		.size	chCondSignalI, .-chCondSignalI
 599              		.section	.text.chCondBroadcast,"ax",%progbits
 600              		.align	1
 601              		.p2align 4,,15
 602              		.global	chCondBroadcast
 603              		.syntax unified
 604              		.thumb
 605              		.thumb_func
 606              		.fpu fpv4-sp-d16
 607              		.type	chCondBroadcast, %function
 608              	chCondBroadcast:
 609              	.LFB234:
 610              		.loc 7 130 0
 611              		.cfi_startproc
 612              		@ args = 0, pretend = 0, frame = 8
 613              		@ frame_needed = 0, uses_anonymous_args = 0
 614 0000 00B5     		push	{lr}
 615              		.cfi_def_cfa_offset 4
 616              		.cfi_offset 14, -4
 617 0002 83B0     		sub	sp, sp, #12
 618              		.cfi_def_cfa_offset 16
 619 0004 0190     		str	r0, [sp, #4]
 620              		.loc 7 132 0
 621 0006 FFF7FEFF 		bl	chSysLock
 622              		.loc 7 133 0
 623 000a 0198     		ldr	r0, [sp, #4]
 624 000c FFF7FEFF 		bl	chCondBroadcastI
 625              		.loc 7 134 0
 626 0010 FFF7FEFF 		bl	chSchRescheduleS
 627              		.loc 7 135 0
ARM GAS  /tmp/cc843xpW.s 			page 12


 628 0014 FFF7FEFF 		bl	chSysUnlock
 629              		.loc 7 136 0
 630 0018 00BF     		nop
 631 001a 03B0     		add	sp, sp, #12
 632              		.cfi_def_cfa_offset 4
 633              		@ sp needed
 634 001c 5DF804FB 		ldr	pc, [sp], #4
 635              		.cfi_endproc
 636              	.LFE234:
 637              		.size	chCondBroadcast, .-chCondBroadcast
 638              		.section	.text.chCondBroadcastI,"ax",%progbits
 639              		.align	1
 640              		.p2align 4,,15
 641              		.global	chCondBroadcastI
 642              		.syntax unified
 643              		.thumb
 644              		.thumb_func
 645              		.fpu fpv4-sp-d16
 646              		.type	chCondBroadcastI, %function
 647              	chCondBroadcastI:
 648              	.LFB235:
 649              		.loc 7 149 0
 650              		.cfi_startproc
 651              		@ args = 0, pretend = 0, frame = 8
 652              		@ frame_needed = 0, uses_anonymous_args = 0
 653 0000 00B5     		push	{lr}
 654              		.cfi_def_cfa_offset 4
 655              		.cfi_offset 14, -4
 656 0002 83B0     		sub	sp, sp, #12
 657              		.cfi_def_cfa_offset 16
 658 0004 0190     		str	r0, [sp, #4]
 659              		.loc 7 151 0
 660 0006 FFF7FEFF 		bl	chDbgCheckClassI
 661              		.loc 7 152 0
 662 000a 019B     		ldr	r3, [sp, #4]
 663 000c 002B     		cmp	r3, #0
 664 000e 0FD1     		bne	.L40
 665              		.loc 7 152 0 is_stmt 0 discriminator 2
 666 0010 0D48     		ldr	r0, .L42
 667 0012 FFF7FEFF 		bl	chSysHalt
 668              		.loc 7 157 0 is_stmt 1 discriminator 2
 669 0016 0BE0     		b	.L40
 670              	.L41:
 671              		.loc 7 158 0
 672 0018 019B     		ldr	r3, [sp, #4]
 673 001a 1846     		mov	r0, r3
 674 001c FFF7FEFF 		bl	queue_fifo_remove
 675 0020 0346     		mov	r3, r0
 676 0022 1846     		mov	r0, r3
 677 0024 FFF7FEFF 		bl	chSchReadyI
 678 0028 0246     		mov	r2, r0
 679 002a 6FF00103 		mvn	r3, #1
 680 002e 5362     		str	r3, [r2, #36]
 681              	.L40:
 682              		.loc 7 157 0
 683 0030 019B     		ldr	r3, [sp, #4]
 684 0032 1846     		mov	r0, r3
ARM GAS  /tmp/cc843xpW.s 			page 13


 685 0034 FFF7FEFF 		bl	queue_notempty
 686 0038 0346     		mov	r3, r0
 687 003a 002B     		cmp	r3, #0
 688 003c ECD1     		bne	.L41
 689              		.loc 7 160 0
 690 003e 00BF     		nop
 691 0040 03B0     		add	sp, sp, #12
 692              		.cfi_def_cfa_offset 4
 693              		@ sp needed
 694 0042 5DF804FB 		ldr	pc, [sp], #4
 695              	.L43:
 696 0046 00BF     		.align	2
 697              	.L42:
 698 0048 00000000 		.word	__func__.7873
 699              		.cfi_endproc
 700              	.LFE235:
 701              		.size	chCondBroadcastI, .-chCondBroadcastI
 702              		.section	.text.chCondWait,"ax",%progbits
 703              		.align	1
 704              		.p2align 4,,15
 705              		.global	chCondWait
 706              		.syntax unified
 707              		.thumb
 708              		.thumb_func
 709              		.fpu fpv4-sp-d16
 710              		.type	chCondWait, %function
 711              	chCondWait:
 712              	.LFB236:
 713              		.loc 7 179 0
 714              		.cfi_startproc
 715              		@ args = 0, pretend = 0, frame = 16
 716              		@ frame_needed = 0, uses_anonymous_args = 0
 717 0000 00B5     		push	{lr}
 718              		.cfi_def_cfa_offset 4
 719              		.cfi_offset 14, -4
 720 0002 85B0     		sub	sp, sp, #20
 721              		.cfi_def_cfa_offset 24
 722 0004 0190     		str	r0, [sp, #4]
 723              		.loc 7 182 0
 724 0006 FFF7FEFF 		bl	chSysLock
 725              		.loc 7 183 0
 726 000a 0198     		ldr	r0, [sp, #4]
 727 000c FFF7FEFF 		bl	chCondWaitS
 728 0010 0390     		str	r0, [sp, #12]
 729              		.loc 7 184 0
 730 0012 FFF7FEFF 		bl	chSysUnlock
 731              		.loc 7 185 0
 732 0016 039B     		ldr	r3, [sp, #12]
 733              		.loc 7 186 0
 734 0018 1846     		mov	r0, r3
 735 001a 05B0     		add	sp, sp, #20
 736              		.cfi_def_cfa_offset 4
 737              		@ sp needed
 738 001c 5DF804FB 		ldr	pc, [sp], #4
 739              		.cfi_endproc
 740              	.LFE236:
 741              		.size	chCondWait, .-chCondWait
ARM GAS  /tmp/cc843xpW.s 			page 14


 742              		.section	.text.chCondWaitS,"ax",%progbits
 743              		.align	1
 744              		.p2align 4,,15
 745              		.global	chCondWaitS
 746              		.syntax unified
 747              		.thumb
 748              		.thumb_func
 749              		.fpu fpv4-sp-d16
 750              		.type	chCondWaitS, %function
 751              	chCondWaitS:
 752              	.LFB237:
 753              		.loc 7 205 0
 754              		.cfi_startproc
 755              		@ args = 0, pretend = 0, frame = 24
 756              		@ frame_needed = 0, uses_anonymous_args = 0
 757 0000 00B5     		push	{lr}
 758              		.cfi_def_cfa_offset 4
 759              		.cfi_offset 14, -4
 760 0002 87B0     		sub	sp, sp, #28
 761              		.cfi_def_cfa_offset 32
 762 0004 0190     		str	r0, [sp, #4]
 763              		.loc 7 206 0
 764 0006 174B     		ldr	r3, .L51
 765 0008 9B69     		ldr	r3, [r3, #24]
 766 000a 0593     		str	r3, [sp, #20]
 767              		.loc 7 210 0
 768 000c FFF7FEFF 		bl	chDbgCheckClassS
 769              		.loc 7 211 0
 770 0010 019B     		ldr	r3, [sp, #4]
 771 0012 002B     		cmp	r3, #0
 772 0014 02D1     		bne	.L50
 773              		.loc 7 211 0 is_stmt 0 discriminator 2
 774 0016 1448     		ldr	r0, .L51+4
 775 0018 FFF7FEFF 		bl	chSysHalt
 776              	.L50:
 777              		.loc 7 212 0 is_stmt 1 discriminator 1
 778 001c 059B     		ldr	r3, [sp, #20]
 779 001e DB6B     		ldr	r3, [r3, #60]
 780 0020 002B     		cmp	r3, #0
 781 0022 02D1     		bne	.L48
 782              		.loc 7 212 0 is_stmt 0 discriminator 2
 783 0024 1048     		ldr	r0, .L51+4
 784 0026 FFF7FEFF 		bl	chSysHalt
 785              	.L48:
 786              		.loc 7 215 0 is_stmt 1
 787 002a FFF7FEFF 		bl	chMtxGetNextMutexS
 788 002e 0490     		str	r0, [sp, #16]
 789              		.loc 7 216 0
 790 0030 0498     		ldr	r0, [sp, #16]
 791 0032 FFF7FEFF 		bl	chMtxUnlockS
 792              		.loc 7 220 0
 793 0036 059B     		ldr	r3, [sp, #20]
 794 0038 019A     		ldr	r2, [sp, #4]
 795 003a 5A62     		str	r2, [r3, #36]
 796              		.loc 7 221 0
 797 003c 019B     		ldr	r3, [sp, #4]
 798 003e 1946     		mov	r1, r3
ARM GAS  /tmp/cc843xpW.s 			page 15


 799 0040 0598     		ldr	r0, [sp, #20]
 800 0042 FFF7FEFF 		bl	queue_prio_insert
 801              		.loc 7 222 0
 802 0046 0720     		movs	r0, #7
 803 0048 FFF7FEFF 		bl	chSchGoSleepS
 804              		.loc 7 223 0
 805 004c 059B     		ldr	r3, [sp, #20]
 806 004e 5B6A     		ldr	r3, [r3, #36]
 807 0050 0393     		str	r3, [sp, #12]
 808              		.loc 7 224 0
 809 0052 0498     		ldr	r0, [sp, #16]
 810 0054 FFF7FEFF 		bl	chMtxLockS
 811              		.loc 7 226 0
 812 0058 039B     		ldr	r3, [sp, #12]
 813              		.loc 7 227 0
 814 005a 1846     		mov	r0, r3
 815 005c 07B0     		add	sp, sp, #28
 816              		.cfi_def_cfa_offset 4
 817              		@ sp needed
 818 005e 5DF804FB 		ldr	pc, [sp], #4
 819              	.L52:
 820 0062 00BF     		.align	2
 821              	.L51:
 822 0064 00000000 		.word	ch
 823 0068 00000000 		.word	__func__.7887
 824              		.cfi_endproc
 825              	.LFE237:
 826              		.size	chCondWaitS, .-chCondWaitS
 827              		.section	.text.chCondWaitTimeout,"ax",%progbits
 828              		.align	1
 829              		.p2align 4,,15
 830              		.global	chCondWaitTimeout
 831              		.syntax unified
 832              		.thumb
 833              		.thumb_func
 834              		.fpu fpv4-sp-d16
 835              		.type	chCondWaitTimeout, %function
 836              	chCondWaitTimeout:
 837              	.LFB238:
 838              		.loc 7 258 0
 839              		.cfi_startproc
 840              		@ args = 0, pretend = 0, frame = 16
 841              		@ frame_needed = 0, uses_anonymous_args = 0
 842 0000 00B5     		push	{lr}
 843              		.cfi_def_cfa_offset 4
 844              		.cfi_offset 14, -4
 845 0002 85B0     		sub	sp, sp, #20
 846              		.cfi_def_cfa_offset 24
 847 0004 0190     		str	r0, [sp, #4]
 848 0006 0091     		str	r1, [sp]
 849              		.loc 7 261 0
 850 0008 FFF7FEFF 		bl	chSysLock
 851              		.loc 7 262 0
 852 000c 0099     		ldr	r1, [sp]
 853 000e 0198     		ldr	r0, [sp, #4]
 854 0010 FFF7FEFF 		bl	chCondWaitTimeoutS
 855 0014 0390     		str	r0, [sp, #12]
ARM GAS  /tmp/cc843xpW.s 			page 16


 856              		.loc 7 263 0
 857 0016 FFF7FEFF 		bl	chSysUnlock
 858              		.loc 7 265 0
 859 001a 039B     		ldr	r3, [sp, #12]
 860              		.loc 7 266 0
 861 001c 1846     		mov	r0, r3
 862 001e 05B0     		add	sp, sp, #20
 863              		.cfi_def_cfa_offset 4
 864              		@ sp needed
 865 0020 5DF804FB 		ldr	pc, [sp], #4
 866              		.cfi_endproc
 867              	.LFE238:
 868              		.size	chCondWaitTimeout, .-chCondWaitTimeout
 869              		.section	.text.chCondWaitTimeoutS,"ax",%progbits
 870              		.align	1
 871              		.p2align 4,,15
 872              		.global	chCondWaitTimeoutS
 873              		.syntax unified
 874              		.thumb
 875              		.thumb_func
 876              		.fpu fpv4-sp-d16
 877              		.type	chCondWaitTimeoutS, %function
 878              	chCondWaitTimeoutS:
 879              	.LFB239:
 880              		.loc 7 296 0
 881              		.cfi_startproc
 882              		@ args = 0, pretend = 0, frame = 16
 883              		@ frame_needed = 0, uses_anonymous_args = 0
 884 0000 00B5     		push	{lr}
 885              		.cfi_def_cfa_offset 4
 886              		.cfi_offset 14, -4
 887 0002 85B0     		sub	sp, sp, #20
 888              		.cfi_def_cfa_offset 24
 889 0004 0190     		str	r0, [sp, #4]
 890 0006 0091     		str	r1, [sp]
 891              		.loc 7 300 0
 892 0008 FFF7FEFF 		bl	chDbgCheckClassS
 893              		.loc 7 301 0
 894 000c 019B     		ldr	r3, [sp, #4]
 895 000e 002B     		cmp	r3, #0
 896 0010 02D0     		beq	.L56
 897              		.loc 7 301 0 is_stmt 0 discriminator 3
 898 0012 009B     		ldr	r3, [sp]
 899 0014 002B     		cmp	r3, #0
 900 0016 02D1     		bne	.L61
 901              	.L56:
 902              		.loc 7 301 0 discriminator 4
 903 0018 1648     		ldr	r0, .L62
 904 001a FFF7FEFF 		bl	chSysHalt
 905              	.L61:
 906              		.loc 7 302 0 is_stmt 1 discriminator 1
 907 001e 164B     		ldr	r3, .L62+4
 908 0020 9B69     		ldr	r3, [r3, #24]
 909 0022 DB6B     		ldr	r3, [r3, #60]
 910 0024 002B     		cmp	r3, #0
 911 0026 02D1     		bne	.L58
 912              		.loc 7 302 0 is_stmt 0 discriminator 2
ARM GAS  /tmp/cc843xpW.s 			page 17


 913 0028 1248     		ldr	r0, .L62
 914 002a FFF7FEFF 		bl	chSysHalt
 915              	.L58:
 916              		.loc 7 305 0 is_stmt 1
 917 002e FFF7FEFF 		bl	chMtxGetNextMutexS
 918 0032 0390     		str	r0, [sp, #12]
 919              		.loc 7 306 0
 920 0034 0398     		ldr	r0, [sp, #12]
 921 0036 FFF7FEFF 		bl	chMtxUnlockS
 922              		.loc 7 310 0
 923 003a 0F4B     		ldr	r3, .L62+4
 924 003c 9B69     		ldr	r3, [r3, #24]
 925 003e 019A     		ldr	r2, [sp, #4]
 926 0040 5A62     		str	r2, [r3, #36]
 927              		.loc 7 311 0
 928 0042 0D4B     		ldr	r3, .L62+4
 929 0044 9B69     		ldr	r3, [r3, #24]
 930 0046 019A     		ldr	r2, [sp, #4]
 931 0048 1146     		mov	r1, r2
 932 004a 1846     		mov	r0, r3
 933 004c FFF7FEFF 		bl	queue_prio_insert
 934              		.loc 7 312 0
 935 0050 0099     		ldr	r1, [sp]
 936 0052 0720     		movs	r0, #7
 937 0054 FFF7FEFF 		bl	chSchGoSleepTimeoutS
 938 0058 0290     		str	r0, [sp, #8]
 939              		.loc 7 313 0
 940 005a 029B     		ldr	r3, [sp, #8]
 941 005c B3F1FF3F 		cmp	r3, #-1
 942 0060 02D0     		beq	.L59
 943              		.loc 7 314 0
 944 0062 0398     		ldr	r0, [sp, #12]
 945 0064 FFF7FEFF 		bl	chMtxLockS
 946              	.L59:
 947              		.loc 7 317 0
 948 0068 029B     		ldr	r3, [sp, #8]
 949              		.loc 7 318 0
 950 006a 1846     		mov	r0, r3
 951 006c 05B0     		add	sp, sp, #20
 952              		.cfi_def_cfa_offset 4
 953              		@ sp needed
 954 006e 5DF804FB 		ldr	pc, [sp], #4
 955              	.L63:
 956 0072 00BF     		.align	2
 957              	.L62:
 958 0074 00000000 		.word	__func__.7899
 959 0078 00000000 		.word	ch
 960              		.cfi_endproc
 961              	.LFE239:
 962              		.size	chCondWaitTimeoutS, .-chCondWaitTimeoutS
 963              		.section	.rodata.__func__.7857,"a",%progbits
 964              		.align	2
 965              		.type	__func__.7857, %object
 966              		.size	__func__.7857, 17
 967              	__func__.7857:
 968 0000 6368436F 		.ascii	"chCondObjectInit\000"
 968      6E644F62 
ARM GAS  /tmp/cc843xpW.s 			page 18


 968      6A656374 
 968      496E6974 
 968      00
 969              		.section	.rodata.__func__.7861,"a",%progbits
 970              		.align	2
 971              		.type	__func__.7861, %object
 972              		.size	__func__.7861, 13
 973              	__func__.7861:
 974 0000 6368436F 		.ascii	"chCondSignal\000"
 974      6E645369 
 974      676E616C 
 974      00
 975              		.section	.rodata.__func__.7157,"a",%progbits
 976              		.align	2
 977              		.type	__func__.7157, %object
 978              		.size	__func__.7157, 12
 979              	__func__.7157:
 980 0000 63685379 		.ascii	"chSysUnlock\000"
 980      73556E6C 
 980      6F636B00 
 981              		.section	.rodata.__func__.7865,"a",%progbits
 982              		.align	2
 983              		.type	__func__.7865, %object
 984              		.size	__func__.7865, 14
 985              	__func__.7865:
 986 0000 6368436F 		.ascii	"chCondSignalI\000"
 986      6E645369 
 986      676E616C 
 986      4900
 987              		.section	.rodata.__func__.7873,"a",%progbits
 988              		.align	2
 989              		.type	__func__.7873, %object
 990              		.size	__func__.7873, 17
 991              	__func__.7873:
 992 0000 6368436F 		.ascii	"chCondBroadcastI\000"
 992      6E644272 
 992      6F616463 
 992      61737449 
 992      00
 993              		.section	.rodata.__func__.7887,"a",%progbits
 994              		.align	2
 995              		.type	__func__.7887, %object
 996              		.size	__func__.7887, 12
 997              	__func__.7887:
 998 0000 6368436F 		.ascii	"chCondWaitS\000"
 998      6E645761 
 998      69745300 
 999              		.section	.rodata.__func__.7899,"a",%progbits
 1000              		.align	2
 1001              		.type	__func__.7899, %object
 1002              		.size	__func__.7899, 19
 1003              	__func__.7899:
 1004 0000 6368436F 		.ascii	"chCondWaitTimeoutS\000"
 1004      6E645761 
 1004      69745469 
 1004      6D656F75 
 1004      745300
ARM GAS  /tmp/cc843xpW.s 			page 19


 1005              		.text
 1006              	.Letext0:
 1007              		.file 8 "/usr/arm-none-eabi/include/machine/_default_types.h"
 1008              		.file 9 "/usr/arm-none-eabi/include/sys/_stdint.h"
 1009              		.file 10 "../ChibiOS/os/rt/ports/ARMCMx/compilers/GCC/chtypes.h"
 1010              		.file 11 "../ChibiOS/os/rt/include/chsystypes.h"
 1011              		.file 12 "../ChibiOS/os/ext/CMSIS/include/core_cm4.h"
 1012              		.file 13 "../ChibiOS/os/ext/CMSIS/ST/STM32F4xx/system_stm32f4xx.h"
 1013              		.file 14 "../ChibiOS/os/rt/ports/ARMCMx/chcore.h"
 1014              		.file 15 "../ChibiOS/os/rt/include/chtm.h"
 1015              		.file 16 "../ChibiOS/os/rt/include/chstats.h"
 1016              		.file 17 "../ChibiOS/os/rt/include/chsem.h"
 1017              		.file 18 "../ChibiOS/os/rt/include/chregistry.h"
 1018              		.file 19 "../ChibiOS/os/rt/include/chcond.h"