ARM GAS  /tmp/ccq8ydGr.s 			page 1


   1              		.cpu cortex-m4
   2              		.eabi_attribute 27, 1
   3              		.eabi_attribute 28, 1
   4              		.eabi_attribute 20, 1
   5              		.eabi_attribute 21, 1
   6              		.eabi_attribute 23, 3
   7              		.eabi_attribute 24, 1
   8              		.eabi_attribute 25, 1
   9              		.eabi_attribute 26, 1
  10              		.eabi_attribute 30, 6
  11              		.eabi_attribute 34, 1
  12              		.eabi_attribute 18, 4
  13              		.file	"chdynamic.c"
  14              		.text
  15              	.Ltext0:
  16              		.cfi_sections	.debug_frame
  17              		.section	.text.port_lock,"ax",%progbits
  18              		.align	1
  19              		.p2align 4,,15
  20              		.syntax unified
  21              		.thumb
  22              		.thumb_func
  23              		.fpu fpv4-sp-d16
  24              		.type	port_lock, %function
  25              	port_lock:
  26              	.LFB127:
  27              		.file 1 "../ChibiOS/os/rt/ports/ARMCMx/chcore_v7m.h"
  28              		.loc 1 456 0
  29              		.cfi_startproc
  30              		@ args = 0, pretend = 0, frame = 8
  31              		@ frame_needed = 0, uses_anonymous_args = 0
  32              		@ link register save eliminated.
  33 0000 82B0     		sub	sp, sp, #8
  34              		.cfi_def_cfa_offset 8
  35 0002 2023     		movs	r3, #32
  36 0004 0193     		str	r3, [sp, #4]
  37              	.LBB6:
  38              	.LBB7:
  39              		.file 2 "../ChibiOS/os/ext/CMSIS/include/core_cmFunc.h"
  40              		.loc 2 548 0
  41 0006 019B     		ldr	r3, [sp, #4]
  42              		.syntax unified
  43              	@ 548 "../ChibiOS/os/ext/CMSIS/include/core_cmFunc.h" 1
  44 0008 83F31188 		MSR basepri, r3
  45              	@ 0 "" 2
  46              		.thumb
  47              		.syntax unified
  48              	.LBE7:
  49              	.LBE6:
  50              		.loc 1 473 0
  51 000c 00BF     		nop
  52 000e 02B0     		add	sp, sp, #8
  53              		.cfi_def_cfa_offset 0
  54              		@ sp needed
  55 0010 7047     		bx	lr
  56              		.cfi_endproc
  57              	.LFE127:
ARM GAS  /tmp/ccq8ydGr.s 			page 2


  58              		.size	port_lock, .-port_lock
  59 0012 00BF     		.section	.text.port_unlock,"ax",%progbits
  60              		.align	1
  61              		.p2align 4,,15
  62              		.syntax unified
  63              		.thumb
  64              		.thumb_func
  65              		.fpu fpv4-sp-d16
  66              		.type	port_unlock, %function
  67              	port_unlock:
  68              	.LFB128:
  69              		.loc 1 480 0
  70              		.cfi_startproc
  71              		@ args = 0, pretend = 0, frame = 8
  72              		@ frame_needed = 0, uses_anonymous_args = 0
  73              		@ link register save eliminated.
  74 0000 82B0     		sub	sp, sp, #8
  75              		.cfi_def_cfa_offset 8
  76 0002 0023     		movs	r3, #0
  77 0004 0193     		str	r3, [sp, #4]
  78              	.LBB8:
  79              	.LBB9:
  80              		.loc 2 548 0
  81 0006 019B     		ldr	r3, [sp, #4]
  82              		.syntax unified
  83              	@ 548 "../ChibiOS/os/ext/CMSIS/include/core_cmFunc.h" 1
  84 0008 83F31188 		MSR basepri, r3
  85              	@ 0 "" 2
  86              		.thumb
  87              		.syntax unified
  88              	.LBE9:
  89              	.LBE8:
  90              		.loc 1 487 0
  91 000c 00BF     		nop
  92 000e 02B0     		add	sp, sp, #8
  93              		.cfi_def_cfa_offset 0
  94              		@ sp needed
  95 0010 7047     		bx	lr
  96              		.cfi_endproc
  97              	.LFE128:
  98              		.size	port_unlock, .-port_unlock
  99 0012 00BF     		.section	.text.chSysLock,"ax",%progbits
 100              		.align	1
 101              		.p2align 4,,15
 102              		.syntax unified
 103              		.thumb
 104              		.thumb_func
 105              		.fpu fpv4-sp-d16
 106              		.type	chSysLock, %function
 107              	chSysLock:
 108              	.LFB156:
 109              		.file 3 "../ChibiOS/os/rt/include/chsys.h"
 110              		.loc 3 346 0
 111              		.cfi_startproc
 112              		@ args = 0, pretend = 0, frame = 0
 113              		@ frame_needed = 0, uses_anonymous_args = 0
 114 0000 08B5     		push	{r3, lr}
ARM GAS  /tmp/ccq8ydGr.s 			page 3


 115              		.cfi_def_cfa_offset 8
 116              		.cfi_offset 3, -8
 117              		.cfi_offset 14, -4
 118              		.loc 3 348 0
 119 0002 FFF7FEFF 		bl	port_lock
 120              		.loc 3 349 0
 121 0006 FFF7FEFF 		bl	_stats_start_measure_crit_thd
 122              		.loc 3 350 0
 123 000a FFF7FEFF 		bl	_dbg_check_lock
 124              		.loc 3 351 0
 125 000e 00BF     		nop
 126 0010 08BD     		pop	{r3, pc}
 127              		.cfi_endproc
 128              	.LFE156:
 129              		.size	chSysLock, .-chSysLock
 130 0012 00BF     		.section	.text.chSysUnlock,"ax",%progbits
 131              		.align	1
 132              		.p2align 4,,15
 133              		.syntax unified
 134              		.thumb
 135              		.thumb_func
 136              		.fpu fpv4-sp-d16
 137              		.type	chSysUnlock, %function
 138              	chSysUnlock:
 139              	.LFB157:
 140              		.loc 3 358 0
 141              		.cfi_startproc
 142              		@ args = 0, pretend = 0, frame = 0
 143              		@ frame_needed = 0, uses_anonymous_args = 0
 144 0000 08B5     		push	{r3, lr}
 145              		.cfi_def_cfa_offset 8
 146              		.cfi_offset 3, -8
 147              		.cfi_offset 14, -4
 148              		.loc 3 360 0
 149 0002 FFF7FEFF 		bl	_dbg_check_unlock
 150              		.loc 3 361 0
 151 0006 FFF7FEFF 		bl	_stats_stop_measure_crit_thd
 152              		.loc 3 367 0
 153 000a 0A4B     		ldr	r3, .L6
 154 000c 1B68     		ldr	r3, [r3]
 155 000e 094A     		ldr	r2, .L6
 156 0010 9342     		cmp	r3, r2
 157 0012 0AD0     		beq	.L5
 158              		.loc 3 367 0 is_stmt 0 discriminator 2
 159 0014 074B     		ldr	r3, .L6
 160 0016 9B69     		ldr	r3, [r3, #24]
 161 0018 9A68     		ldr	r2, [r3, #8]
 162 001a 064B     		ldr	r3, .L6
 163 001c 1B68     		ldr	r3, [r3]
 164 001e 9B68     		ldr	r3, [r3, #8]
 165 0020 9A42     		cmp	r2, r3
 166 0022 02D2     		bcs	.L5
 167              		.loc 3 367 0 discriminator 3
 168 0024 0448     		ldr	r0, .L6+4
 169 0026 FFF7FEFF 		bl	chSysHalt
 170              	.L5:
 171              		.loc 3 371 0 is_stmt 1
ARM GAS  /tmp/ccq8ydGr.s 			page 4


 172 002a FFF7FEFF 		bl	port_unlock
 173              		.loc 3 372 0
 174 002e 00BF     		nop
 175 0030 08BD     		pop	{r3, pc}
 176              	.L7:
 177 0032 00BF     		.align	2
 178              	.L6:
 179 0034 00000000 		.word	ch
 180 0038 00000000 		.word	__func__.7157
 181              		.cfi_endproc
 182              	.LFE157:
 183              		.size	chSysUnlock, .-chSysUnlock
 184              		.section	.text.chThdAddRef,"ax",%progbits
 185              		.align	1
 186              		.p2align 4,,15
 187              		.global	chThdAddRef
 188              		.syntax unified
 189              		.thumb
 190              		.thumb_func
 191              		.fpu fpv4-sp-d16
 192              		.type	chThdAddRef, %function
 193              	chThdAddRef:
 194              	.LFB231:
 195              		.file 4 "../ChibiOS/os/rt/src/chdynamic.c"
 196              		.loc 4 68 0
 197              		.cfi_startproc
 198              		@ args = 0, pretend = 0, frame = 8
 199              		@ frame_needed = 0, uses_anonymous_args = 0
 200 0000 00B5     		push	{lr}
 201              		.cfi_def_cfa_offset 4
 202              		.cfi_offset 14, -4
 203 0002 83B0     		sub	sp, sp, #12
 204              		.cfi_def_cfa_offset 16
 205 0004 0190     		str	r0, [sp, #4]
 206              		.loc 4 70 0
 207 0006 FFF7FEFF 		bl	chSysLock
 208              		.loc 4 71 0
 209 000a 019B     		ldr	r3, [sp, #4]
 210 000c 93F82230 		ldrb	r3, [r3, #34]	@ zero_extendqisi2
 211 0010 FF2B     		cmp	r3, #255
 212 0012 02D1     		bne	.L9
 213              		.loc 4 71 0 is_stmt 0 discriminator 2
 214 0014 0848     		ldr	r0, .L11
 215 0016 FFF7FEFF 		bl	chSysHalt
 216              	.L9:
 217              		.loc 4 72 0 is_stmt 1
 218 001a 019B     		ldr	r3, [sp, #4]
 219 001c 93F82230 		ldrb	r3, [r3, #34]	@ zero_extendqisi2
 220 0020 0133     		adds	r3, r3, #1
 221 0022 DAB2     		uxtb	r2, r3
 222 0024 019B     		ldr	r3, [sp, #4]
 223 0026 83F82220 		strb	r2, [r3, #34]
 224              		.loc 4 73 0
 225 002a FFF7FEFF 		bl	chSysUnlock
 226              		.loc 4 75 0
 227 002e 019B     		ldr	r3, [sp, #4]
 228              		.loc 4 76 0
ARM GAS  /tmp/ccq8ydGr.s 			page 5


 229 0030 1846     		mov	r0, r3
 230 0032 03B0     		add	sp, sp, #12
 231              		.cfi_def_cfa_offset 4
 232              		@ sp needed
 233 0034 5DF804FB 		ldr	pc, [sp], #4
 234              	.L12:
 235              		.align	2
 236              	.L11:
 237 0038 00000000 		.word	__func__.7857
 238              		.cfi_endproc
 239              	.LFE231:
 240              		.size	chThdAddRef, .-chThdAddRef
 241              		.section	.text.chThdRelease,"ax",%progbits
 242              		.align	1
 243              		.p2align 4,,15
 244              		.global	chThdRelease
 245              		.syntax unified
 246              		.thumb
 247              		.thumb_func
 248              		.fpu fpv4-sp-d16
 249              		.type	chThdRelease, %function
 250              	chThdRelease:
 251              	.LFB232:
 252              		.loc 4 91 0
 253              		.cfi_startproc
 254              		@ args = 0, pretend = 0, frame = 16
 255              		@ frame_needed = 0, uses_anonymous_args = 0
 256 0000 00B5     		push	{lr}
 257              		.cfi_def_cfa_offset 4
 258              		.cfi_offset 14, -4
 259 0002 85B0     		sub	sp, sp, #20
 260              		.cfi_def_cfa_offset 24
 261 0004 0190     		str	r0, [sp, #4]
 262              		.loc 4 94 0
 263 0006 FFF7FEFF 		bl	chSysLock
 264              		.loc 4 95 0
 265 000a 019B     		ldr	r3, [sp, #4]
 266 000c 93F82230 		ldrb	r3, [r3, #34]	@ zero_extendqisi2
 267 0010 002B     		cmp	r3, #0
 268 0012 02D1     		bne	.L14
 269              		.loc 4 95 0 is_stmt 0 discriminator 2
 270 0014 2548     		ldr	r0, .L20
 271 0016 FFF7FEFF 		bl	chSysHalt
 272              	.L14:
 273              		.loc 4 96 0 is_stmt 1
 274 001a 019B     		ldr	r3, [sp, #4]
 275 001c 93F82230 		ldrb	r3, [r3, #34]	@ zero_extendqisi2
 276 0020 013B     		subs	r3, r3, #1
 277 0022 DAB2     		uxtb	r2, r3
 278 0024 019B     		ldr	r3, [sp, #4]
 279 0026 83F82220 		strb	r2, [r3, #34]
 280              		.loc 4 97 0
 281 002a 019B     		ldr	r3, [sp, #4]
 282 002c 93F82230 		ldrb	r3, [r3, #34]
 283 0030 8DF80F30 		strb	r3, [sp, #15]
 284              		.loc 4 102 0
 285 0034 9DF80F30 		ldrb	r3, [sp, #15]	@ zero_extendqisi2
ARM GAS  /tmp/ccq8ydGr.s 			page 6


 286 0038 002B     		cmp	r3, #0
 287 003a 31D1     		bne	.L15
 288              		.loc 4 102 0 is_stmt 0 discriminator 1
 289 003c 019B     		ldr	r3, [sp, #4]
 290 003e 93F82030 		ldrb	r3, [r3, #32]	@ zero_extendqisi2
 291 0042 0F2B     		cmp	r3, #15
 292 0044 2CD1     		bne	.L15
 293              		.loc 4 103 0 is_stmt 1
 294 0046 019B     		ldr	r3, [sp, #4]
 295 0048 93F82130 		ldrb	r3, [r3, #33]	@ zero_extendqisi2
 296 004c 03F00303 		and	r3, r3, #3
 297 0050 012B     		cmp	r3, #1
 298 0052 02D0     		beq	.L17
 299 0054 022B     		cmp	r3, #2
 300 0056 10D0     		beq	.L18
 301              		.loc 4 125 0
 302 0058 22E0     		b	.L15
 303              	.L17:
 304              		.loc 4 107 0
 305 005a 019B     		ldr	r3, [sp, #4]
 306 005c 5B69     		ldr	r3, [r3, #20]
 307 005e 019A     		ldr	r2, [sp, #4]
 308 0060 1269     		ldr	r2, [r2, #16]
 309 0062 1A61     		str	r2, [r3, #16]
 310 0064 019B     		ldr	r3, [sp, #4]
 311 0066 1B69     		ldr	r3, [r3, #16]
 312 0068 019A     		ldr	r2, [sp, #4]
 313 006a 5269     		ldr	r2, [r2, #20]
 314 006c 5A61     		str	r2, [r3, #20]
 315              		.loc 4 109 0
 316 006e FFF7FEFF 		bl	chSysUnlock
 317              		.loc 4 110 0
 318 0072 0198     		ldr	r0, [sp, #4]
 319 0074 FFF7FEFF 		bl	chHeapFree
 320              		.loc 4 111 0
 321 0078 14E0     		b	.L13
 322              	.L18:
 323              		.loc 4 116 0
 324 007a 019B     		ldr	r3, [sp, #4]
 325 007c 5B69     		ldr	r3, [r3, #20]
 326 007e 019A     		ldr	r2, [sp, #4]
 327 0080 1269     		ldr	r2, [r2, #16]
 328 0082 1A61     		str	r2, [r3, #16]
 329 0084 019B     		ldr	r3, [sp, #4]
 330 0086 1B69     		ldr	r3, [r3, #16]
 331 0088 019A     		ldr	r2, [sp, #4]
 332 008a 5269     		ldr	r2, [r2, #20]
 333 008c 5A61     		str	r2, [r3, #20]
 334              		.loc 4 118 0
 335 008e FFF7FEFF 		bl	chSysUnlock
 336              		.loc 4 119 0
 337 0092 019B     		ldr	r3, [sp, #4]
 338 0094 5B6C     		ldr	r3, [r3, #68]
 339 0096 0199     		ldr	r1, [sp, #4]
 340 0098 1846     		mov	r0, r3
 341 009a FFF7FEFF 		bl	chPoolFree
 342              		.loc 4 120 0
ARM GAS  /tmp/ccq8ydGr.s 			page 7


 343 009e 01E0     		b	.L13
 344              	.L15:
 345              		.loc 4 128 0
 346 00a0 FFF7FEFF 		bl	chSysUnlock
 347              	.L13:
 348              		.loc 4 129 0
 349 00a4 05B0     		add	sp, sp, #20
 350              		.cfi_def_cfa_offset 4
 351              		@ sp needed
 352 00a6 5DF804FB 		ldr	pc, [sp], #4
 353              	.L21:
 354 00aa 00BF     		.align	2
 355              	.L20:
 356 00ac 00000000 		.word	__func__.7862
 357              		.cfi_endproc
 358              	.LFE232:
 359              		.size	chThdRelease, .-chThdRelease
 360              		.section	.text.chThdCreateFromHeap,"ax",%progbits
 361              		.align	1
 362              		.p2align 4,,15
 363              		.global	chThdCreateFromHeap
 364              		.syntax unified
 365              		.thumb
 366              		.thumb_func
 367              		.fpu fpv4-sp-d16
 368              		.type	chThdCreateFromHeap, %function
 369              	chThdCreateFromHeap:
 370              	.LFB233:
 371              		.loc 4 155 0
 372              		.cfi_startproc
 373              		@ args = 4, pretend = 0, frame = 24
 374              		@ frame_needed = 0, uses_anonymous_args = 0
 375 0000 00B5     		push	{lr}
 376              		.cfi_def_cfa_offset 4
 377              		.cfi_offset 14, -4
 378 0002 89B0     		sub	sp, sp, #36
 379              		.cfi_def_cfa_offset 40
 380 0004 0590     		str	r0, [sp, #20]
 381 0006 0491     		str	r1, [sp, #16]
 382 0008 0392     		str	r2, [sp, #12]
 383 000a 0293     		str	r3, [sp, #8]
 384              		.loc 4 159 0
 385 000c 0499     		ldr	r1, [sp, #16]
 386 000e 0598     		ldr	r0, [sp, #20]
 387 0010 FFF7FEFF 		bl	chHeapAlloc
 388 0014 0790     		str	r0, [sp, #28]
 389              		.loc 4 160 0
 390 0016 079B     		ldr	r3, [sp, #28]
 391 0018 002B     		cmp	r3, #0
 392 001a 01D1     		bne	.L23
 393              		.loc 4 161 0
 394 001c 0023     		movs	r3, #0
 395 001e 26E0     		b	.L24
 396              	.L23:
 397              		.loc 4 165 0
 398 0020 079B     		ldr	r3, [sp, #28]
 399 0022 6033     		adds	r3, r3, #96
ARM GAS  /tmp/ccq8ydGr.s 			page 8


 400 0024 FF22     		movs	r2, #255
 401 0026 1946     		mov	r1, r3
 402 0028 0798     		ldr	r0, [sp, #28]
 403 002a FFF7FEFF 		bl	_thread_memfill
 404              		.loc 4 168 0
 405 002e 079B     		ldr	r3, [sp, #28]
 406 0030 03F16000 		add	r0, r3, #96
 407 0034 079A     		ldr	r2, [sp, #28]
 408 0036 049B     		ldr	r3, [sp, #16]
 409 0038 1344     		add	r3, r3, r2
 410 003a 5522     		movs	r2, #85
 411 003c 1946     		mov	r1, r3
 412 003e FFF7FEFF 		bl	_thread_memfill
 413              		.loc 4 173 0
 414 0042 FFF7FEFF 		bl	chSysLock
 415              		.loc 4 174 0
 416 0046 0A9B     		ldr	r3, [sp, #40]
 417 0048 0093     		str	r3, [sp]
 418 004a 029B     		ldr	r3, [sp, #8]
 419 004c 039A     		ldr	r2, [sp, #12]
 420 004e 0499     		ldr	r1, [sp, #16]
 421 0050 0798     		ldr	r0, [sp, #28]
 422 0052 FFF7FEFF 		bl	chThdCreateI
 423 0056 0690     		str	r0, [sp, #24]
 424              		.loc 4 175 0
 425 0058 069B     		ldr	r3, [sp, #24]
 426 005a 0122     		movs	r2, #1
 427 005c 83F82120 		strb	r2, [r3, #33]
 428              		.loc 4 176 0
 429 0060 0021     		movs	r1, #0
 430 0062 0698     		ldr	r0, [sp, #24]
 431 0064 FFF7FEFF 		bl	chSchWakeupS
 432              		.loc 4 177 0
 433 0068 FFF7FEFF 		bl	chSysUnlock
 434              		.loc 4 179 0
 435 006c 069B     		ldr	r3, [sp, #24]
 436              	.L24:
 437              		.loc 4 180 0
 438 006e 1846     		mov	r0, r3
 439 0070 09B0     		add	sp, sp, #36
 440              		.cfi_def_cfa_offset 4
 441              		@ sp needed
 442 0072 5DF804FB 		ldr	pc, [sp], #4
 443              		.cfi_endproc
 444              	.LFE233:
 445              		.size	chThdCreateFromHeap, .-chThdCreateFromHeap
 446 0076 00BF     		.section	.text.chThdCreateFromMemoryPool,"ax",%progbits
 447              		.align	1
 448              		.p2align 4,,15
 449              		.global	chThdCreateFromMemoryPool
 450              		.syntax unified
 451              		.thumb
 452              		.thumb_func
 453              		.fpu fpv4-sp-d16
 454              		.type	chThdCreateFromMemoryPool, %function
 455              	chThdCreateFromMemoryPool:
 456              	.LFB234:
ARM GAS  /tmp/ccq8ydGr.s 			page 9


 457              		.loc 4 207 0
 458              		.cfi_startproc
 459              		@ args = 0, pretend = 0, frame = 24
 460              		@ frame_needed = 0, uses_anonymous_args = 0
 461 0000 00B5     		push	{lr}
 462              		.cfi_def_cfa_offset 4
 463              		.cfi_offset 14, -4
 464 0002 89B0     		sub	sp, sp, #36
 465              		.cfi_def_cfa_offset 40
 466 0004 0590     		str	r0, [sp, #20]
 467 0006 0491     		str	r1, [sp, #16]
 468 0008 0392     		str	r2, [sp, #12]
 469 000a 0293     		str	r3, [sp, #8]
 470              		.loc 4 211 0
 471 000c 059B     		ldr	r3, [sp, #20]
 472 000e 002B     		cmp	r3, #0
 473 0010 02D1     		bne	.L26
 474              		.loc 4 211 0 is_stmt 0 discriminator 2
 475 0012 1E48     		ldr	r0, .L29
 476 0014 FFF7FEFF 		bl	chSysHalt
 477              	.L26:
 478              		.loc 4 213 0 is_stmt 1
 479 0018 0598     		ldr	r0, [sp, #20]
 480 001a FFF7FEFF 		bl	chPoolAlloc
 481 001e 0790     		str	r0, [sp, #28]
 482              		.loc 4 214 0
 483 0020 079B     		ldr	r3, [sp, #28]
 484 0022 002B     		cmp	r3, #0
 485 0024 01D1     		bne	.L27
 486              		.loc 4 215 0
 487 0026 0023     		movs	r3, #0
 488 0028 2BE0     		b	.L28
 489              	.L27:
 490              		.loc 4 219 0
 491 002a 079B     		ldr	r3, [sp, #28]
 492 002c 6033     		adds	r3, r3, #96
 493 002e FF22     		movs	r2, #255
 494 0030 1946     		mov	r1, r3
 495 0032 0798     		ldr	r0, [sp, #28]
 496 0034 FFF7FEFF 		bl	_thread_memfill
 497              		.loc 4 222 0
 498 0038 079B     		ldr	r3, [sp, #28]
 499 003a 03F16000 		add	r0, r3, #96
 500              		.loc 4 223 0
 501 003e 059B     		ldr	r3, [sp, #20]
 502 0040 5B68     		ldr	r3, [r3, #4]
 503              		.loc 4 222 0
 504 0042 079A     		ldr	r2, [sp, #28]
 505 0044 1344     		add	r3, r3, r2
 506 0046 5522     		movs	r2, #85
 507 0048 1946     		mov	r1, r3
 508 004a FFF7FEFF 		bl	_thread_memfill
 509              		.loc 4 227 0
 510 004e FFF7FEFF 		bl	chSysLock
 511              		.loc 4 228 0
 512 0052 059B     		ldr	r3, [sp, #20]
 513 0054 5968     		ldr	r1, [r3, #4]
ARM GAS  /tmp/ccq8ydGr.s 			page 10


 514 0056 029B     		ldr	r3, [sp, #8]
 515 0058 0093     		str	r3, [sp]
 516 005a 039B     		ldr	r3, [sp, #12]
 517 005c 049A     		ldr	r2, [sp, #16]
 518 005e 0798     		ldr	r0, [sp, #28]
 519 0060 FFF7FEFF 		bl	chThdCreateI
 520 0064 0690     		str	r0, [sp, #24]
 521              		.loc 4 229 0
 522 0066 069B     		ldr	r3, [sp, #24]
 523 0068 0222     		movs	r2, #2
 524 006a 83F82120 		strb	r2, [r3, #33]
 525              		.loc 4 230 0
 526 006e 069B     		ldr	r3, [sp, #24]
 527 0070 059A     		ldr	r2, [sp, #20]
 528 0072 5A64     		str	r2, [r3, #68]
 529              		.loc 4 231 0
 530 0074 0021     		movs	r1, #0
 531 0076 0698     		ldr	r0, [sp, #24]
 532 0078 FFF7FEFF 		bl	chSchWakeupS
 533              		.loc 4 232 0
 534 007c FFF7FEFF 		bl	chSysUnlock
 535              		.loc 4 234 0
 536 0080 069B     		ldr	r3, [sp, #24]
 537              	.L28:
 538              		.loc 4 235 0
 539 0082 1846     		mov	r0, r3
 540 0084 09B0     		add	sp, sp, #36
 541              		.cfi_def_cfa_offset 4
 542              		@ sp needed
 543 0086 5DF804FB 		ldr	pc, [sp], #4
 544              	.L30:
 545 008a 00BF     		.align	2
 546              	.L29:
 547 008c 00000000 		.word	__func__.7884
 548              		.cfi_endproc
 549              	.LFE234:
 550              		.size	chThdCreateFromMemoryPool, .-chThdCreateFromMemoryPool
 551              		.section	.rodata.__func__.7857,"a",%progbits
 552              		.align	2
 553              		.type	__func__.7857, %object
 554              		.size	__func__.7857, 12
 555              	__func__.7857:
 556 0000 63685468 		.ascii	"chThdAddRef\000"
 556      64416464 
 556      52656600 
 557              		.section	.rodata.__func__.7157,"a",%progbits
 558              		.align	2
 559              		.type	__func__.7157, %object
 560              		.size	__func__.7157, 12
 561              	__func__.7157:
 562 0000 63685379 		.ascii	"chSysUnlock\000"
 562      73556E6C 
 562      6F636B00 
 563              		.section	.rodata.__func__.7862,"a",%progbits
 564              		.align	2
 565              		.type	__func__.7862, %object
 566              		.size	__func__.7862, 13
ARM GAS  /tmp/ccq8ydGr.s 			page 11


 567              	__func__.7862:
 568 0000 63685468 		.ascii	"chThdRelease\000"
 568      6452656C 
 568      65617365 
 568      00
 569              		.section	.rodata.__func__.7884,"a",%progbits
 570              		.align	2
 571              		.type	__func__.7884, %object
 572              		.size	__func__.7884, 26
 573              	__func__.7884:
 574 0000 63685468 		.ascii	"chThdCreateFromMemoryPool\000"
 574      64437265 
 574      61746546 
 574      726F6D4D 
 574      656D6F72 
 575              		.text
 576              	.Letext0:
 577              		.file 5 "/usr/lib/gcc/arm-none-eabi/6.3.1/include/stddef.h"
 578              		.file 6 "/usr/arm-none-eabi/include/machine/_default_types.h"
 579              		.file 7 "/usr/arm-none-eabi/include/sys/_stdint.h"
 580              		.file 8 "../ChibiOS/os/rt/ports/ARMCMx/compilers/GCC/chtypes.h"
 581              		.file 9 "../ChibiOS/os/rt/include/chsystypes.h"
 582              		.file 10 "../ChibiOS/os/rt/include/chschd.h"
 583              		.file 11 "../ChibiOS/os/ext/CMSIS/include/core_cm4.h"
 584              		.file 12 "../ChibiOS/os/ext/CMSIS/ST/STM32F4xx/system_stm32f4xx.h"
 585              		.file 13 "../ChibiOS/os/rt/ports/ARMCMx/chcore.h"
 586              		.file 14 "../ChibiOS/os/rt/include/chtm.h"
 587              		.file 15 "../ChibiOS/os/rt/include/chstats.h"
 588              		.file 16 "../ChibiOS/os/rt/include/chsem.h"
 589              		.file 17 "../ChibiOS/os/rt/include/chmtx.h"
 590              		.file 18 "../ChibiOS/os/rt/include/chthreads.h"
 591              		.file 19 "../ChibiOS/os/rt/include/chregistry.h"
 592              		.file 20 "../ChibiOS/os/rt/include/chmemcore.h"
 593              		.file 21 "../ChibiOS/os/rt/include/chheap.h"
 594              		.file 22 "../ChibiOS/os/rt/include/chmempools.h"