ARM GAS  /tmp/ccq8ydGr.s 			page 1


   1              		.cpu cortex-m4
   2              		.eabi_attribute 27, 1
   3              		.eabi_attribute 28, 1
   4              		.eabi_attribute 20, 1
   5              		.eabi_attribute 21, 1
   6              		.eabi_attribute 23, 3
   7              		.eabi_attribute 24, 1
   8              		.eabi_attribute 25, 1
   9              		.eabi_attribute 26, 1
  10              		.eabi_attribute 30, 6
  11              		.eabi_attribute 34, 1
  12              		.eabi_attribute 18, 4
  13              		.file	"chdynamic.c"
  14              		.text
  15              	.Ltext0:
  16              		.cfi_sections	.debug_frame
  17              		.section	.text.port_lock,"ax",%progbits
  18              		.align	1
  19              		.p2align 4,,15
  20              		.syntax unified
  21              		.thumb
  22              		.thumb_func
  23              		.fpu fpv4-sp-d16
  24              		.type	port_lock, %function
  25              	port_lock:
  26              	.LFB127:
  27              		.file 1 "../ChibiOS/os/rt/ports/ARMCMx/chcore_v7m.h"
  28              		.loc 1 456 0
  29              		.cfi_startproc
  30              		@ args = 0, pretend = 0, frame = 8
  31              		@ frame_needed = 0, uses_anonymous_args = 0
  32              		@ link register save eliminated.
  33 0000 82B0     		sub	sp, sp, #8
  34              		.cfi_def_cfa_offset 8
  35 0002 2023     		movs	r3, #32
  36 0004 0193     		str	r3, [sp, #4]
  37              	.LBB6:
  38              	.LBB7:
  39              		.file 2 "../ChibiOS/os/ext/CMSIS/include/core_cmFunc.h"
  40              		.loc 2 548 0
  41 0006 019B     		ldr	r3, [sp, #4]
  42              		.syntax unified
  43              	@ 548 "../ChibiOS/os/ext/CMSIS/include/core_cmFunc.h" 1
  44 0008 83F31188 		MSR basepri, r3
  45              	@ 0 "" 2
  46              		.thumb
  47              		.syntax unified
  48              	.LBE7:
  49              	.LBE6:
  50              		.loc 1 473 0
  51 000c 00BF     		nop
  52 000e 02B0     		add	sp, sp, #8
  53              		.cfi_def_cfa_offset 0
  54              		@ sp needed
  55 0010 7047     		bx	lr
  56              		.cfi_endproc
  57              	.LFE127:
ARM GAS  /tmp/ccq8ydGr.s 			page 2


  58              		.size	port_lock, .-port_lock
  59 0012 00BF     		.section	.text.port_unlock,"ax",%progbits
  60              		.align	1
  61              		.p2align 4,,15
  62              		.syntax unified
  63              		.thumb
  64              		.thumb_func
  65              		.fpu fpv4-sp-d16
  66              		.type	port_unlock, %function
  67              	port_unlock:
  68              	.LFB128:
  69              		.loc 1 480 0
  70              		.cfi_startproc
  71              		@ args = 0, pretend = 0, frame = 8
  72              		@ frame_needed = 0, uses_anonymous_args = 0
  73              		@ link register save eliminated.
  74 0000 82B0     		sub	sp, sp, #8
  75              		.cfi_def_cfa_offset 8
  76 0002 0023     		movs	r3, #0
  77 0004 0193     		str	r3, [sp, #4]
  78              	.LBB8:
  79              	.LBB9:
  80              		.loc 2 548 0
  81 0006 019B     		ldr	r3, [sp, #4]
  82              		.syntax unified
  83              	@ 548 "../ChibiOS/os/ext/CMSIS/include/core_cmFunc.h" 1
  84 0008 83F31188 		MSR basepri, r3
  85              	@ 0 "" 2
  86              		.thumb
  87              		.syntax unified
  88              	.LBE9:
  89              	.LBE8:
  90              		.loc 1 487 0
  91 000c 00BF     		nop
  92 000e 02B0     		add	sp, sp, #8
  93              		.cfi_def_cfa_offset 0
  94              		@ sp needed
  95 0010 7047     		bx	lr
  96              		.cfi_endproc
  97              	.LFE128:
  98              		.size	port_unlock, .-port_unlock
  99 0012 00BF     		.section	.text.chSysLock,"ax",%progbits
 100              		.align	1
 101              		.p2align 4,,15
 102              		.syntax unified
 103              		.thumb
 104              		.thumb_func
 105              		.fpu fpv4-sp-d16
 106              		.type	chSysLock, %function
 107              	chSysLock:
 108              	.LFB156:
 109              		.file 3 "../ChibiOS/os/rt/include/chsys.h"
 110              		.loc 3 346 0
 111              		.cfi_startproc
 112              		@ args = 0, pretend = 0, frame = 0
 113              		@ frame_needed = 0, uses_anonymous_args = 0
 114 0000 08B5     		push	{r3, lr}
ARM GAS  /tmp/ccq8ydGr.s 			page 3


 115              		.cfi_def_cfa_offset 8
 116              		.cfi_offset 3, -8
 117              		.cfi_offset 14, -4
 118              		.loc 3 348 0
 119 0002 FFF7FEFF 		bl	port_lock
 120              		.loc 3 349 0
 121 0006 FFF7FEFF 		bl	_stats_start_measure_crit_thd
 122              		.loc 3 350 0
 123 000a FFF7FEFF 		bl	_dbg_check_lock
 124              		.loc 3 351 0
 125 000e 00BF     		nop
 126 0010 08BD     		pop	{r3, pc}
 127              		.cfi_endproc
 128              	.LFE156:
 129              		.size	chSysLock, .-chSysLock
 130 0012 00BF     		.section	.text.chSysUnlock,"ax",%progbits
 131              		.align	1
 132              		.p2align 4,,15
 133              		.syntax unified
 134              		.thumb
 135              		.thumb_func
 136              		.fpu fpv4-sp-d16
 137              		.type	chSysUnlock, %function
 138              	chSysUnlock:
 139              	.LFB157:
 140              		.loc 3 358 0
 141              		.cfi_startproc
 142              		@ args = 0, pretend = 0, frame = 0
 143              		@ frame_needed = 0, uses_anonymous_args = 0
 144 0000 08B5     		push	{r3, lr}
 145              		.cfi_def_cfa_offset 8
 146              		.cfi_offset 3, -8
 147              		.cfi_offset 14, -4
 148              		.loc 3 360 0
 149 0002 FFF7FEFF 		bl	_dbg_check_unlock
 150              		.loc 3 361 0
 151 0006 FFF7FEFF 		bl	_stats_stop_measure_crit_thd
 152              		.loc 3 367 0
 153 000a 0A4B     		ldr	r3, .L6
 154 000c 1B68     		ldr	r3, [r3]
 155 000e 094A     		ldr	r2, .L6
 156 0010 9342     		cmp	r3, r2
 157 0012 0AD0     		beq	.L5
 158              		.loc 3 367 0 is_stmt 0 discriminator 2
 159 0014 074B     		ldr	r3, .L6
 160 0016 9B69     		ldr	r3, [r3, #24]
 161 0018 9A68     		ldr	r2, [r3, #8]
 162 001a 064B     		ldr	r3, .L6
 163 001c 1B68     		ldr	r3, [r3]
 164 001e 9B68     		ldr	r3, [r3, #8]
 165 0020 9A42     		cmp	r2, r3
 166 0022 02D2     		bcs	.L5
 167              		.loc 3 367 0 discriminator 3
 168 0024 0448     		ldr	r0, .L6+4
 169 0026 FFF7FEFF 		bl	chSysHalt
 170              	.L5:
 171              		.loc 3 371 0 is_stmt 1
ARM GAS  /tmp/ccq8ydGr.s 			page 4


 172 002a FFF7FEFF 		bl	port_unlock
 173              		.loc 3 372 0
 174 002e 00BF     		nop
 175 0030 08BD     		pop	{r3, pc}
 176              	.L7:
 177 0032 00BF     		.align	2
 178              	.L6:
 179 0034 00000000 		.word	ch
 180 0038 00000000 		.word	__func__.7157
 181              		.cfi_endproc
 182              	.LFE157:
 183              		.size	chSysUnlock, .-chSysUnlock
 184              		.section	.text.chThdAddRef,"ax",%progbits
 185              		.align	1
 186              		.p2align 4,,15
 187              		.global	chThdAddRef
 188              		.syntax unified
 189              		.thumb
 190              		.thumb_func
 191              		.fpu fpv4-sp-d16
 192              		.type	chThdAddRef, %function
 193              	chThdAddRef:
 194              	.LFB231:
 195              		.file 4 "../ChibiOS/os/rt/src/chdynamic.c"
 196              		.loc 4 68 0
 197              		.cfi_startproc
 198              		@ args = 0, pretend = 0, frame = 8
 199              		@ frame_needed = 0, uses_anonymous_args = 0
 200 0000 00B5     		push	{lr}
 201              		.cfi_def_cfa_offset 4
 202              		.cfi_offset 14, -4
 203 0002 83B0     		sub	sp, sp, #12
 204              		.cfi_def_cfa_offset 16
 205 0004 0190     		str	r0, [sp, #4]
 206              		.loc 4 70 0
 207 0006 FFF7FEFF 		bl	chSysLock
 208              		.loc 4 71 0
 209 000a 019B     		ldr	r3, [sp, #4]
 210 000c 93F82230 		ldrb	r3, [r3, #34]	@ zero_extendqisi2
 211 0010 FF2B     		cmp	r3, #255
 212 0012 02D1     		bne	.L9
 213              		.loc 4 71 0 is_stmt 0 discriminator 2
 214 0014 0848     		ldr	r0, .L11
 215 0016 FFF7FEFF 		bl	chSysHalt
 216              	.L9:
 217              		.loc 4 72 0 is_stmt 1
 218 001a 019B     		ldr	r3, [sp, #4]
 219 001c 93F82230 		ldrb	r3, [r3, #34]	@ zero_extendqisi2
 220 0020 0133     		adds	r3, r3, #1
 221 0022 DAB2     		uxtb	r2, r3
 222 0024 019B     		ldr	r3, [sp, #4]
 223 0026 83F82220 		strb	r2, [r3, #34]
 224              		.loc 4 73 0
 225 002a FFF7FEFF 		bl	chSysUnlock
 226              		.loc 4 75 0
 227 002e 019B     		ldr	r3, [sp, #4]
 228              		.loc 4 76 0
ARM GAS  /tmp/ccq8ydGr.s 			page 5


 229 0030 1846     		mov	r0, r3
 230 0032 03B0     		add	sp, sp, #12
 231              		.cfi_def_cfa_offset 4
 232              		@ sp needed
 233 0034 5DF804FB 		ldr	pc, [sp], #4
 234              	.L12:
 235              		.align	2
 236              	.L11:
 237 0038 00000000 		.word	__func__.7857
 238              		.cfi_endproc
 239              	.LFE231:
 240              		.size	chThdAddRef, .-chThdAddRef
 241              		.section	.text.chThdRelease,"ax",%progbits
 242              		.align	1
 243              		.p2align 4,,15
 244              		.global	chThdRelease
 245              		.syntax unified
 246              		.thumb
 247              		.thumb_func
 248              		.fpu fpv4-sp-d16
 249              		.type	chThdRelease, %function
 250              	chThdRelease:
 251              	.LFB232:
 252              		.loc 4 91 0
 253              		.cfi_startproc
 254              		@ args = 0, pretend = 0, frame = 16
 255              		@ frame_needed = 0, uses_anonymous_args = 0
 256 0000 00B5     		push	{lr}
 257              		.cfi_def_cfa_offset 4
 258              		.cfi_offset 14, -4
 259 0002 85B0     		sub	sp, sp, #20
 260              		.cfi_def_cfa_offset 24
 261 0004 0190     		str	r0, [sp, #4]
 262              		.loc 4 94 0
 263 0006 FFF7FEFF 		bl	chSysLock
 264              		.loc 4 95 0
 265 000a 019B     		ldr	r3, [sp, #4]
 266 000c 93F82230 		ldrb	r3, [r3, #34]	@ zero_extendqisi2
 267 0010 002B     		cmp	r3, #0
 268 0012 02D1     		bne	.L14
 269              		.loc 4 95 0 is_stmt 0 discriminator 2
 270 0014 2548     		ldr	r0, .L20
 271 0016 FFF7FEFF 		bl	chSysHalt
 272              	.L14:
 273              		.loc 4 96 0 is_stmt 1
 274 001a 019B     		ldr	r3, [sp, #4]
 275 001c 93F82230 		ldrb	r3, [r3, #34]	@ zero_extendqisi2
 276 0020 013B     		subs	r3, r3, #1
 277 0022 DAB2     		uxtb	r2, r3
 278 0024 019B     		ldr	r3, [sp, #4]
 279 0026 83F82220 		strb	r2, [r3, #34]
 280              		.loc 4 97 0
 281 002a 019B     		ldr	r3, [sp, #4]
 282 002c 93F82230 		ldrb	r3, [r3, #34]
 283 0030 8DF80F30 		strb	r3, [sp, #15]
 284              		.loc 4 102 0
 285 0034 9DF80F30 		ldrb	r3, [sp, #15]	@ zero_extendqisi2
ARM GAS  /tmp/ccq8ydGr.s 			page 6


 286 0038 002B     		cmp	r3, #0
 287 003a 31D1     		bne	.L15
 288              		.loc 4 102 0 is_stmt 0 discriminator 1
 289 003c 019B     		ldr	r3, [sp, #4]
 290 003e 93F82030 		ldrb	r3, [r3, #32]	@ zero_extendqisi2
 291 0042 0F2B     		cmp	r3, #15
 292 0044 2CD1     		bne	.L15
 293              		.loc 4 103 0 is_stmt 1
 294 0046 019B     		ldr	r3, [sp, #4]
 295 0048 93F82130 		ldrb	r3, [r3, #33]	@ zero_extendqisi2
 296 004c 03F00303 		and	r3, r3, #3
 297 0050 012B     		cmp	r3, #1
 298 0052 02D0     		beq	.L17
 299 0054 022B     		cmp	r3, #2
 300 0056 10D0     		beq	.L18
 301              		.loc 4 125 0
 302 0058 22E0     		b	.L15
 303              	.L17:
 304              		.loc 4 107 0
 305 005a 019B     		ldr	r3, [sp, #4]
 306 005c 5B69     		ldr	r3, [r3, #20]
 307 005e 019A     		ldr	r2, [sp, #4]
 308 0060 1269     		ldr	r2, [r2, #16]
 309 0062 1A61     		str	r2, [r3, #16]
 310 0064 019B     		ldr	r3, [sp, #4]
 311 0066 1B69     		ldr	r3, [r3, #16]
 312 0068 019A     		ldr	r2, [sp, #4]
 313 006a 5269     		ldr	r2, [r2, #20]
 314 006c 5A61     		str	r2, [r3, #20]
 315              		.loc 4 109 0
 316 006e FFF7FEFF 		bl	chSysUnlock
 317              		.loc 4 110 0
 318 0072 0198     		ldr	r0, [sp, #4]
 319 0074 FFF7FEFF 		bl	chHeapFree
 320              		.loc 4 111 0
 321 0078 14E0     		b	.L13
 322              	.L18:
 323              		.loc 4 116 0
 324 007a 019B     		ldr	r3, [sp, #4]
 325 007c 5B69     		ldr	r3, [r3, #20]
 326 007e 019A     		ldr	r2, [sp, #4]
 327 0080 1269     		ldr	r2, [r2, #16]
 328 0082 1A61     		str	r2, [r3, #16]
 329 0084 019B     		ldr	r3, [sp, #4]
 330 0086 1B69     		ldr	r3, [r3, #16]
 331 0088 019A     		ldr	r2, [sp, #4]
 332 008a 5269     		ldr	r2, [r2, #20]
 333 008c 5A61     		str	r2, [r3, #20]
 334              		.loc 4 118 0
 335 008e FFF7FEFF 		bl	chSysUnlock
 336              		.loc 4 119 0
 337 0092 019B     		ldr	r3, [sp, #4]
 338 0094 5B6C     		ldr	r3, [r3, #68]
 339 0096 0199     		ldr	r1, [sp, #4]
 340 0098 1846     		mov	r0, r3
 341 009a FFF7FEFF 		bl	chPoolFree
 342              		.loc 4 120 0
ARM GAS  /tmp/ccq8ydGr.s 			page 7


 343 009e 01E0     		b	.L13
 344              	.L15:
 345              		.loc 4 128 0
 346 00a0 FFF7FEFF 		bl	chSysUnlock
 347              	.L13:
 348              		.loc 4 129 0
 349 00a4 05B0     		add	sp, sp, #20
 350              		.cfi_def_cfa_offset 4
 351              		@ sp needed
 352 00a6 5DF804FB 		ldr	pc, [sp], #4
 353              	.L21:
 354 00aa 00BF     		.align	2
 355              	.L20:
 356 00ac 00000000 		.word	__func__.7862
 357              		.cfi_endproc
 358              	.LFE232:
 359              		.size	chThdRelease, .-chThdRelease
 360              		.section	.text.chThdCreateFromHeap,"ax",%progbits
 361              		.align	1
 362              		.p2align 4,,15
 363              		.global	chThdCreateFromHeap
 364              		.syntax unified
 365              		.thumb
 366              		.thumb_func
 367              		.fpu fpv4-sp-d16
 368              		.type	chThdCreateFromHeap, %function
 369              	chThdCreateFromHeap:
 370              	.LFB233:
 371              		.loc 4 155 0
 372              		.cfi_startproc
 373              		@ args = 4, pretend = 0, frame = 24
 374              		@ frame_needed = 0, uses_anonymous_args = 0
 375 0000 00B5     		push	{lr}
 376              		.cfi_def_cfa_offset 4
 377              		.cfi_offset 14, -4
 378 0002 89B0     		sub	sp, sp, #36
 379              		.cfi_def_cfa_offset 40
 380 0004 0590     		str	r0, [sp, #20]
 381 0006 0491     		str	r1, [sp, #16]
 382 0008 0392     		str	r2, [sp, #12]
 383 000a 0293     		str	r3, [sp, #8]
 384              		.loc 4 159 0
 385 000c 0499     		ldr	r1, [sp, #16]
 386 000e 0598     		ldr	r0, [sp, #20]
 387 0010 FFF7FEFF 		bl	chHeapAlloc
 388 0014 0790     		str	r0, [sp, #28]
 389              		.loc 4 160 0
 390 0016 079B     		ldr	r3, [sp, #28]
 391 0018 002B     		cmp	r3, #0
 392 001a 01D1     		bne	.L23
 393              		.loc 4 161 0
 394 001c 0023     		movs	r3, #0
 395 001e 26E0     		b	.L24
 396              	.L23:
 397              		.loc 4 165 0
 398 0020 079B     		ldr	r3, [sp, #28]
 399 0022 6033     		adds	r3, r3, #96
ARM GAS  /tmp/ccq8ydGr.s 			page 8


 400 0024 FF22     		movs	r2, #255
 401 0026 1946     		mov	r1, r3
 402 0028 0798     		ldr	r0, [sp, #28]
 403 002a FFF7FEFF 		bl	_thread_memfill
 404              		.loc 4 168 0
 405 002e 079B     		ldr	r3, [sp, #28]
 406 0030 03F16000 		add	r0, r3, #96
 407 0034 079A     		ldr	r2, [sp, #28]
 408 0036 049B     		ldr	r3, [sp, #16]
 409 0038 1344     		add	r3, r3, r2
 410 003a 5522     		movs	r2, #85
 411 003c 1946     		mov	r1, r3
 412 003e FFF7FEFF 		bl	_thread_memfill
 413              		.loc 4 173 0
 414 0042 FFF7FEFF 		bl	chSysLock
 415              		.loc 4 174 0
 416 0046 0A9B     		ldr	r3, [sp, #40]
 417 0048 0093     		str	r3, [sp]
 418 004a 029B     		ldr	r3, [sp, #8]
 419 004c 039A     		ldr	r2, [sp, #12]
 420 004e 0499     		ldr	r1, [sp, #16]
 421 0050 0798     		ldr	r0, [sp, #28]
 422 0052 FFF7FEFF 		bl	chThdCreateI
 423 0056 0690     		str	r0, [sp, #24]
 424              		.loc 4 175 0
 425 0058 069B     		ldr	r3, [sp, #24]
 426 005a 0122     		movs	r2, #1
 427 005c 83F82120 		strb	r2, [r3, #33]
 428              		.loc 4 176 0
 429 0060 0021     		movs	r1, #0
 430 0062 0698     		ldr	r0, [sp, #24]
 431 0064 FFF7FEFF 		bl	chSchWakeupS
 432              		.loc 4 177 0
 433 0068 FFF7FEFF 		bl	chSysUnlock
 434              		.loc 4 179 0
 435 006c 069B     		ldr	r3, [sp, #24]
 436              	.L24:
 437              		.loc 4 180 0
 438 006e 1846     		mov	r0, r3
 439 0070 09B0     		add	sp, sp, #36
 440              		.cfi_def_cfa_offset 4
 441              		@ sp needed
 442 0072 5DF804FB 		ldr	pc, [sp], #4
 443              		.cfi_endproc
 444              	.LFE233:
 445              		.size	chThdCreateFromHeap, .-chThdCreateFromHeap
 446 0076 00BF     		.section	.text.chThdCreateFromMemoryPool,"ax",%progbits
 447              		.align	1
 448              		.p2align 4,,15
 449              		.global	chThdCreateFromMemoryPool
 450              		.syntax unified
 451              		.thumb
 452              		.thumb_func
 453              		.fpu fpv4-sp-d16
 454              		.type	chThdCreateFromMemoryPool, %function
 455              	chThdCreateFromMemoryPool:
 456              	.LFB234:
ARM GAS  /tmp/ccq8ydGr.s 			page 9


 457              		.loc 4 207 0
 458              		.cfi_startproc
 459              		@ args = 0, pretend = 0, frame = 24
 460              		@ frame_needed = 0, uses_anonymous_args = 0
 461 0000 00B5     		push	{lr}
 462              		.cfi_def_cfa_offset 4
 463              		.cfi_offset 14, -4
 464 0002 89B0     		sub	sp, sp, #36
 465              		.cfi_def_cfa_offset 40
 466 0004 0590     		str	r0, [sp, #20]
 467 0006 0491     		str	r1, [sp, #16]
 468 0008 0392     		str	r2, [sp, #12]
 469 000a 0293     		str	r3, [sp, #8]
 470              		.loc 4 211 0
 471 000c 059B     		ldr	r3, [sp, #20]
 472 000e 002B     		cmp	r3, #0
 473 0010 02D1     		bne	.L26
 474              		.loc 4 211 0 is_stmt 0 discriminator 2
 475 0012 1E48     		ldr	r0, .L29
 476 0014 FFF7FEFF 		bl	chSysHalt
 477              	.L26:
 478              		.loc 4 213 0 is_stmt 1
 479 0018 0598     		ldr	r0, [sp, #20]
 480 001a FFF7FEFF 		bl	chPoolAlloc
 481 001e 0790     		str	r0, [sp, #28]
 482              		.loc 4 214 0
 483 0020 079B     		ldr	r3, [sp, #28]
 484 0022 002B     		cmp	r3, #0
 485 0024 01D1     		bne	.L27
 486              		.loc 4 215 0
 487 0026 0023     		movs	r3, #0
 488 0028 2BE0     		b	.L28
 489              	.L27:
 490              		.loc 4 219 0
 491 002a 079B     		ldr	r3, [sp, #28]
 492 002c 6033     		adds	r3, r3, #96
 493 002e FF22     		movs	r2, #255
 494 0030 1946     		mov	r1, r3
 495 0032 0798     		ldr	r0, [sp, #28]
 496 0034 FFF7FEFF 		bl	_thread_memfill
 497              		.loc 4 222 0
 498 0038 079B     		ldr	r3, [sp, #28]
 499 003a 03F16000 		add	r0, r3, #96
 500              		.loc 4 223 0
 501 003e 059B     		ldr	r3, [sp, #20]
 502 0040 5B68     		ldr	r3, [r3, #4]
 503              		.loc 4 222 0
 504 0042 079A     		ldr	r2, [sp, #28]
 505 0044 1344     		add	r3, r3, r2
 506 0046 5522     		movs	r2, #85
 507 0048 1946     		mov	r1, r3
 508 004a FFF7FEFF 		bl	_thread_memfill
 509              		.loc 4 227 0
 510 004e FFF7FEFF 		bl	chSysLock
 511              		.loc 4 228 0
 512 0052 059B     		ldr	r3, [sp, #20]
 513 0054 5968     		ldr	r1, [r3, #4]
ARM GAS  /tmp/ccq8ydGr.s 			page 10


 514 0056 029B     		ldr	r3, [sp, #8]
 515 0058 0093     		str	r3, [sp]
 516 005a 039B     		ldr	r3, [sp, #12]
 517 005c 049A     		ldr	r2, [sp, #16]
 518 005e 0798     		ldr	r0, [sp, #28]
 519 0060 FFF7FEFF 		bl	chThdCreateI
 520 0064 0690     		str	r0, [sp, #24]
 521              		.loc 4 229 0
 522 0066 069B     		ldr	r3, [sp, #24]
 523 0068 0222     		movs	r2, #2
 524 006a 83F82120 		strb	r2, [r3, #33]
 525              		.loc 4 230 0
 526 006e 069B     		ldr	r3, [sp, #24]
 527 0070 059A     		ldr	r2, [sp, #20]
 528 0072 5A64     		str	r2, [r3, #68]
 529              		.loc 4 231 0
 530 0074 0021     		movs	r1, #0
 531 0076 0698     		ldr	r0, [sp, #24]
 532 0078 FFF7FEFF 		bl	chSchWakeupS
 533              		.loc 4 232 0
 534 007c FFF7FEFF 		bl	chSysUnlock
 535              		.loc 4 234 0
 536 0080 069B     		ldr	r3, [sp, #24]
 537              	.L28:
 538              		.loc 4 235 0
 539 0082 1846     		mov	r0, r3
 540 0084 09B0     		add	sp, sp, #36
 541              		.cfi_def_cfa_offset 4
 542              		@ sp needed
 543 0086 5DF804FB 		ldr	pc, [sp], #4
 544              	.L30:
 545 008a 00BF     		.align	2
 546              	.L29:
 547 008c 00000000 		.word	__func__.7884
 548              		.cfi_endproc
 549              	.LFE234:
 550              		.size	chThdCreateFromMemoryPool, .-chThdCreateFromMemoryPool
 551              		.section	.rodata.__func__.7857,"a",%progbits
 552              		.align	2
 553              		.type	__func__.7857, %object
 554              		.size	__func__.7857, 12
 555              	__func__.7857:
 556 0000 63685468 		.ascii	"chThdAddRef\000"
 556      64416464 
 556      52656600 
 557              		.section	.rodata.__func__.7157,"a",%progbits
 558              		.align	2
 559              		.type	__func__.7157, %object
 560              		.size	__func__.7157, 12
 561              	__func__.7157:
 562 0000 63685379 		.ascii	"chSysUnlock\000"
 562      73556E6C 
 562      6F636B00 
 563              		.section	.rodata.__func__.7862,"a",%progbits
 564              		.align	2
 565              		.type	__func__.7862, %object
 566              		.size	__func__.7862, 13
ARM GAS  /tmp/ccq8ydGr.s 			page 11


 567              	__func__.7862:
 568 0000 63685468 		.ascii	"chThdRelease\000"
 568      6452656C 
 568      65617365 
 568      00
 569              		.section	.rodata.__func__.7884,"a",%progbits
 570              		.align	2
 571              		.type	__func__.7884, %object
 572              		.size	__func__.7884, 26
 573              	__func__.7884:
 574 0000 63685468 		.ascii	"chThdCreateFromMemoryPool\000"
 574      64437265 
 574      61746546 
 574      726F6D4D 
 574      656D6F72 
 575              		.text
 576              	.Letext0:
 577              		.file 5 "/usr/lib/gcc/arm-none-eabi/6.3.1/include/stddef.h"
 578              		.file 6 "/usr/arm-none-eabi/include/machine/_default_types.h"
 579              		.file 7 "/usr/arm-none-eabi/include/sys/_stdint.h"
 580              		.file 8 "../ChibiOS/os/rt/ports/ARMCMx/compilers/GCC/chtypes.h"
 581              		.file 9 "../ChibiOS/os/rt/include/chsystypes.h"
 582              		.file 10 "../ChibiOS/os/rt/include/chschd.h"
 583              		.file 11 "../ChibiOS/os/ext/CMSIS/include/core_cm4.h"
 584              		.file 12 "../ChibiOS/os/ext/CMSIS/ST/STM32F4xx/system_stm32f4xx.h"
 585              		.file 13 "../ChibiOS/os/rt/ports/ARMCMx/chcore.h"
 586              		.file 14 "../ChibiOS/os/rt/include/chtm.h"
 587              		.file 15 "../ChibiOS/os/rt/include/chstats.h"
 588              		.file 16 "../ChibiOS/os/rt/include/chsem.h"
 589              		.file 17 "../ChibiOS/os/rt/include/chmtx.h"
 590              		.file 18 "../ChibiOS/os/rt/include/chthreads.h"
 591              		.file 19 "../ChibiOS/os/rt/include/chregistry.h"
 592              		.file 20 "../ChibiOS/os/rt/include/chmemcore.h"
 593              		.file 21 "../ChibiOS/os/rt/include/chheap.h"
 594              		.file 22 "../ChibiOS/os/rt/include/chmempools.h"
 595              		.section	.debug_info,"",%progbits
 596              	.Ldebug_info0:
 597 0000 BD0C0000 		.4byte	0xcbd
 598 0004 0400     		.2byte	0x4
 599 0006 00000000 		.4byte	.Ldebug_abbrev0
 600 000a 04       		.byte	0x4
 601 000b 01       		.uleb128 0x1
 602 000c AE010000 		.4byte	.LASF172
 603 0010 0C       		.byte	0xc
 604 0011 34070000 		.4byte	.LASF173
 605 0015 A3030000 		.4byte	.LASF174
 606 0019 00000000 		.4byte	.Ldebug_ranges0+0
 607 001d 00000000 		.4byte	0
 608 0021 00000000 		.4byte	.Ldebug_line0
 609 0025 02       		.uleb128 0x2
 610 0026 04       		.byte	0x4
 611 0027 05       		.byte	0x5
 612 0028 696E7400 		.ascii	"int\000"
 613 002c 03       		.uleb128 0x3
 614 002d 15000000 		.4byte	.LASF4
 615 0031 05       		.byte	0x5
 616 0032 D8       		.byte	0xd8
ARM GAS  /tmp/ccq8ydGr.s 			page 12


 617 0033 37000000 		.4byte	0x37
 618 0037 04       		.uleb128 0x4
 619 0038 04       		.byte	0x4
 620 0039 07       		.byte	0x7
 621 003a 75030000 		.4byte	.LASF0
 622 003e 04       		.uleb128 0x4
 623 003f 08       		.byte	0x8
 624 0040 05       		.byte	0x5
 625 0041 18010000 		.4byte	.LASF1
 626 0045 04       		.uleb128 0x4
 627 0046 08       		.byte	0x8
 628 0047 04       		.byte	0x4
 629 0048 17050000 		.4byte	.LASF2
 630 004c 04       		.uleb128 0x4
 631 004d 01       		.byte	0x1
 632 004e 06       		.byte	0x6
 633 004f 26010000 		.4byte	.LASF3
 634 0053 03       		.uleb128 0x3
 635 0054 3E000000 		.4byte	.LASF5
 636 0058 06       		.byte	0x6
 637 0059 2B       		.byte	0x2b
 638 005a 5E000000 		.4byte	0x5e
 639 005e 04       		.uleb128 0x4
 640 005f 01       		.byte	0x1
 641 0060 08       		.byte	0x8
 642 0061 EF050000 		.4byte	.LASF6
 643 0065 04       		.uleb128 0x4
 644 0066 02       		.byte	0x2
 645 0067 05       		.byte	0x5
 646 0068 13060000 		.4byte	.LASF7
 647 006c 03       		.uleb128 0x3
 648 006d 29070000 		.4byte	.LASF8
 649 0071 06       		.byte	0x6
 650 0072 39       		.byte	0x39
 651 0073 77000000 		.4byte	0x77
 652 0077 04       		.uleb128 0x4
 653 0078 02       		.byte	0x2
 654 0079 07       		.byte	0x7
 655 007a 32040000 		.4byte	.LASF9
 656 007e 03       		.uleb128 0x3
 657 007f B8040000 		.4byte	.LASF10
 658 0083 06       		.byte	0x6
 659 0084 4D       		.byte	0x4d
 660 0085 89000000 		.4byte	0x89
 661 0089 04       		.uleb128 0x4
 662 008a 04       		.byte	0x4
 663 008b 05       		.byte	0x5
 664 008c 88010000 		.4byte	.LASF11
 665 0090 03       		.uleb128 0x3
 666 0091 88070000 		.4byte	.LASF12
 667 0095 06       		.byte	0x6
 668 0096 4F       		.byte	0x4f
 669 0097 9B000000 		.4byte	0x9b
 670 009b 04       		.uleb128 0x4
 671 009c 04       		.byte	0x4
 672 009d 07       		.byte	0x7
 673 009e 01070000 		.4byte	.LASF13
ARM GAS  /tmp/ccq8ydGr.s 			page 13


 674 00a2 03       		.uleb128 0x3
 675 00a3 8B050000 		.4byte	.LASF14
 676 00a7 06       		.byte	0x6
 677 00a8 69       		.byte	0x69
 678 00a9 AD000000 		.4byte	0xad
 679 00ad 04       		.uleb128 0x4
 680 00ae 08       		.byte	0x8
 681 00af 07       		.byte	0x7
 682 00b0 97000000 		.4byte	.LASF15
 683 00b4 03       		.uleb128 0x3
 684 00b5 19080000 		.4byte	.LASF16
 685 00b9 07       		.byte	0x7
 686 00ba 18       		.byte	0x18
 687 00bb 53000000 		.4byte	0x53
 688 00bf 03       		.uleb128 0x3
 689 00c0 8A030000 		.4byte	.LASF17
 690 00c4 07       		.byte	0x7
 691 00c5 24       		.byte	0x24
 692 00c6 6C000000 		.4byte	0x6c
 693 00ca 03       		.uleb128 0x3
 694 00cb E7050000 		.4byte	.LASF18
 695 00cf 07       		.byte	0x7
 696 00d0 2C       		.byte	0x2c
 697 00d1 7E000000 		.4byte	0x7e
 698 00d5 05       		.uleb128 0x5
 699 00d6 CA000000 		.4byte	0xca
 700 00da 03       		.uleb128 0x3
 701 00db C7060000 		.4byte	.LASF19
 702 00df 07       		.byte	0x7
 703 00e0 30       		.byte	0x30
 704 00e1 90000000 		.4byte	0x90
 705 00e5 03       		.uleb128 0x3
 706 00e6 28000000 		.4byte	.LASF20
 707 00ea 07       		.byte	0x7
 708 00eb 3C       		.byte	0x3c
 709 00ec A2000000 		.4byte	0xa2
 710 00f0 03       		.uleb128 0x3
 711 00f1 D1070000 		.4byte	.LASF21
 712 00f5 08       		.byte	0x8
 713 00f6 39       		.byte	0x39
 714 00f7 DA000000 		.4byte	0xda
 715 00fb 03       		.uleb128 0x3
 716 00fc FB000000 		.4byte	.LASF22
 717 0100 08       		.byte	0x8
 718 0101 3A       		.byte	0x3a
 719 0102 E5000000 		.4byte	0xe5
 720 0106 03       		.uleb128 0x3
 721 0107 3A060000 		.4byte	.LASF23
 722 010b 08       		.byte	0x8
 723 010c 3C       		.byte	0x3c
 724 010d B4000000 		.4byte	0xb4
 725 0111 03       		.uleb128 0x3
 726 0112 A5010000 		.4byte	.LASF24
 727 0116 08       		.byte	0x8
 728 0117 3D       		.byte	0x3d
 729 0118 B4000000 		.4byte	0xb4
 730 011c 03       		.uleb128 0x3
ARM GAS  /tmp/ccq8ydGr.s 			page 14


 731 011d A1050000 		.4byte	.LASF25
 732 0121 08       		.byte	0x8
 733 0122 3E       		.byte	0x3e
 734 0123 B4000000 		.4byte	0xb4
 735 0127 03       		.uleb128 0x3
 736 0128 D0050000 		.4byte	.LASF26
 737 012c 08       		.byte	0x8
 738 012d 40       		.byte	0x40
 739 012e DA000000 		.4byte	0xda
 740 0132 03       		.uleb128 0x3
 741 0133 69040000 		.4byte	.LASF27
 742 0137 08       		.byte	0x8
 743 0138 41       		.byte	0x41
 744 0139 CA000000 		.4byte	0xca
 745 013d 03       		.uleb128 0x3
 746 013e AC040000 		.4byte	.LASF28
 747 0142 08       		.byte	0x8
 748 0143 43       		.byte	0x43
 749 0144 DA000000 		.4byte	0xda
 750 0148 03       		.uleb128 0x3
 751 0149 64030000 		.4byte	.LASF29
 752 014d 08       		.byte	0x8
 753 014e 45       		.byte	0x45
 754 014f CA000000 		.4byte	0xca
 755 0153 03       		.uleb128 0x3
 756 0154 74040000 		.4byte	.LASF30
 757 0158 08       		.byte	0x8
 758 0159 46       		.byte	0x46
 759 015a DA000000 		.4byte	0xda
 760 015e 03       		.uleb128 0x3
 761 015f 6A070000 		.4byte	.LASF31
 762 0163 09       		.byte	0x9
 763 0164 33       		.byte	0x33
 764 0165 DA000000 		.4byte	0xda
 765 0169 05       		.uleb128 0x5
 766 016a 5E010000 		.4byte	0x15e
 767 016e 03       		.uleb128 0x3
 768 016f 55070000 		.4byte	.LASF32
 769 0173 09       		.byte	0x9
 770 0174 3F       		.byte	0x3f
 771 0175 79010000 		.4byte	0x179
 772 0179 06       		.uleb128 0x6
 773 017a 54040000 		.4byte	.LASF54
 774 017e 60       		.byte	0x60
 775 017f 0A       		.byte	0xa
 776 0180 C2       		.byte	0xc2
 777 0181 7F020000 		.4byte	0x27f
 778 0185 07       		.uleb128 0x7
 779 0186 33060000 		.4byte	.LASF33
 780 018a 0A       		.byte	0xa
 781 018b C3       		.byte	0xc3
 782 018c 8A020000 		.4byte	0x28a
 783 0190 00       		.byte	0
 784 0191 07       		.uleb128 0x7
 785 0192 C9050000 		.4byte	.LASF34
 786 0196 0A       		.byte	0xa
 787 0197 C5       		.byte	0xc5
ARM GAS  /tmp/ccq8ydGr.s 			page 15


 788 0198 8A020000 		.4byte	0x28a
 789 019c 04       		.byte	0x4
 790 019d 07       		.uleb128 0x7
 791 019e 04010000 		.4byte	.LASF35
 792 01a2 0A       		.byte	0xa
 793 01a3 C7       		.byte	0xc7
 794 01a4 27010000 		.4byte	0x127
 795 01a8 08       		.byte	0x8
 796 01a9 07       		.uleb128 0x7
 797 01aa 58050000 		.4byte	.LASF36
 798 01ae 0A       		.byte	0xa
 799 01af C8       		.byte	0xc8
 800 01b0 F8040000 		.4byte	0x4f8
 801 01b4 0C       		.byte	0xc
 802 01b5 07       		.uleb128 0x7
 803 01b6 DF020000 		.4byte	.LASF37
 804 01ba 0A       		.byte	0xa
 805 01bb CA       		.byte	0xca
 806 01bc 8A020000 		.4byte	0x28a
 807 01c0 10       		.byte	0x10
 808 01c1 07       		.uleb128 0x7
 809 01c2 4A050000 		.4byte	.LASF38
 810 01c6 0A       		.byte	0xa
 811 01c7 CB       		.byte	0xcb
 812 01c8 8A020000 		.4byte	0x28a
 813 01cc 14       		.byte	0x14
 814 01cd 07       		.uleb128 0x7
 815 01ce 4E080000 		.4byte	.LASF39
 816 01d2 0A       		.byte	0xa
 817 01d3 D2       		.byte	0xd2
 818 01d4 D8070000 		.4byte	0x7d8
 819 01d8 18       		.byte	0x18
 820 01d9 07       		.uleb128 0x7
 821 01da 6A030000 		.4byte	.LASF40
 822 01de 0A       		.byte	0xa
 823 01df D8       		.byte	0xd8
 824 01e0 EF070000 		.4byte	0x7ef
 825 01e4 1C       		.byte	0x1c
 826 01e5 07       		.uleb128 0x7
 827 01e6 1D060000 		.4byte	.LASF41
 828 01ea 0A       		.byte	0xa
 829 01eb DD       		.byte	0xdd
 830 01ec 11010000 		.4byte	0x111
 831 01f0 20       		.byte	0x20
 832 01f1 07       		.uleb128 0x7
 833 01f2 51060000 		.4byte	.LASF42
 834 01f6 0A       		.byte	0xa
 835 01f7 E1       		.byte	0xe1
 836 01f8 06010000 		.4byte	0x106
 837 01fc 21       		.byte	0x21
 838 01fd 07       		.uleb128 0x7
 839 01fe 04080000 		.4byte	.LASF43
 840 0202 0A       		.byte	0xa
 841 0203 E6       		.byte	0xe6
 842 0204 1C010000 		.4byte	0x11c
 843 0208 22       		.byte	0x22
 844 0209 08       		.uleb128 0x8
ARM GAS  /tmp/ccq8ydGr.s 			page 16


 845 020a 705F7500 		.ascii	"p_u\000"
 846 020e 0A       		.byte	0xa
 847 020f 3101     		.2byte	0x131
 848 0211 13070000 		.4byte	0x713
 849 0215 24       		.byte	0x24
 850 0216 09       		.uleb128 0x9
 851 0217 ED040000 		.4byte	.LASF44
 852 021b 0A       		.byte	0xa
 853 021c 3601     		.2byte	0x136
 854 021e 90020000 		.4byte	0x290
 855 0222 28       		.byte	0x28
 856 0223 09       		.uleb128 0x9
 857 0224 04040000 		.4byte	.LASF45
 858 0228 0A       		.byte	0xa
 859 0229 3C01     		.2byte	0x13c
 860 022b B4020000 		.4byte	0x2b4
 861 022f 2C       		.byte	0x2c
 862 0230 09       		.uleb128 0x9
 863 0231 CB070000 		.4byte	.LASF46
 864 0235 0A       		.byte	0xa
 865 0236 4001     		.2byte	0x140
 866 0238 32010000 		.4byte	0x132
 867 023c 34       		.byte	0x34
 868 023d 09       		.uleb128 0x9
 869 023e BC060000 		.4byte	.LASF47
 870 0242 0A       		.byte	0xa
 871 0243 4601     		.2byte	0x146
 872 0245 3D010000 		.4byte	0x13d
 873 0249 38       		.byte	0x38
 874 024a 09       		.uleb128 0x9
 875 024b 09060000 		.4byte	.LASF48
 876 024f 0A       		.byte	0xa
 877 0250 4D01     		.2byte	0x14d
 878 0252 D2070000 		.4byte	0x7d2
 879 0256 3C       		.byte	0x3c
 880 0257 09       		.uleb128 0x9
 881 0258 74070000 		.4byte	.LASF49
 882 025c 0A       		.byte	0xa
 883 025d 5101     		.2byte	0x151
 884 025f 27010000 		.4byte	0x127
 885 0263 40       		.byte	0x40
 886 0264 09       		.uleb128 0x9
 887 0265 55010000 		.4byte	.LASF50
 888 0269 0A       		.byte	0xa
 889 026a 5801     		.2byte	0x158
 890 026c 67030000 		.4byte	0x367
 891 0270 44       		.byte	0x44
 892 0271 09       		.uleb128 0x9
 893 0272 62060000 		.4byte	.LASF51
 894 0276 0A       		.byte	0xa
 895 0277 5E01     		.2byte	0x15e
 896 0279 C4060000 		.4byte	0x6c4
 897 027d 48       		.byte	0x48
 898 027e 00       		.byte	0
 899 027f 03       		.uleb128 0x3
 900 0280 2C080000 		.4byte	.LASF52
 901 0284 09       		.byte	0x9
ARM GAS  /tmp/ccq8ydGr.s 			page 17


 902 0285 44       		.byte	0x44
 903 0286 8A020000 		.4byte	0x28a
 904 028a 0A       		.uleb128 0xa
 905 028b 04       		.byte	0x4
 906 028c 6E010000 		.4byte	0x16e
 907 0290 03       		.uleb128 0x3
 908 0291 3B050000 		.4byte	.LASF53
 909 0295 09       		.byte	0x9
 910 0296 49       		.byte	0x49
 911 0297 9B020000 		.4byte	0x29b
 912 029b 06       		.uleb128 0x6
 913 029c E4060000 		.4byte	.LASF55
 914 02a0 04       		.byte	0x4
 915 02a1 0A       		.byte	0xa
 916 02a2 B0       		.byte	0xb0
 917 02a3 B4020000 		.4byte	0x2b4
 918 02a7 07       		.uleb128 0x7
 919 02a8 33060000 		.4byte	.LASF33
 920 02ac 0A       		.byte	0xa
 921 02ad B1       		.byte	0xb1
 922 02ae 8A020000 		.4byte	0x28a
 923 02b2 00       		.byte	0
 924 02b3 00       		.byte	0
 925 02b4 03       		.uleb128 0x3
 926 02b5 81060000 		.4byte	.LASF56
 927 02b9 09       		.byte	0x9
 928 02ba 50       		.byte	0x50
 929 02bb BF020000 		.4byte	0x2bf
 930 02bf 06       		.uleb128 0x6
 931 02c0 54000000 		.4byte	.LASF57
 932 02c4 08       		.byte	0x8
 933 02c5 0A       		.byte	0xa
 934 02c6 B7       		.byte	0xb7
 935 02c7 E4020000 		.4byte	0x2e4
 936 02cb 07       		.uleb128 0x7
 937 02cc 33060000 		.4byte	.LASF33
 938 02d0 0A       		.byte	0xa
 939 02d1 B8       		.byte	0xb8
 940 02d2 8A020000 		.4byte	0x28a
 941 02d6 00       		.byte	0
 942 02d7 07       		.uleb128 0x7
 943 02d8 C9050000 		.4byte	.LASF34
 944 02dc 0A       		.byte	0xa
 945 02dd B9       		.byte	0xb9
 946 02de 8A020000 		.4byte	0x28a
 947 02e2 04       		.byte	0x4
 948 02e3 00       		.byte	0
 949 02e4 03       		.uleb128 0x3
 950 02e5 08000000 		.4byte	.LASF58
 951 02e9 09       		.byte	0x9
 952 02ea 57       		.byte	0x57
 953 02eb EF020000 		.4byte	0x2ef
 954 02ef 0B       		.uleb128 0xb
 955 02f0 9E040000 		.4byte	.LASF59
 956 02f4 1C       		.byte	0x1c
 957 02f5 0A       		.byte	0xa
 958 02f6 9001     		.2byte	0x190
ARM GAS  /tmp/ccq8ydGr.s 			page 18


 959 02f8 4B030000 		.4byte	0x34b
 960 02fc 09       		.uleb128 0x9
 961 02fd DC060000 		.4byte	.LASF60
 962 0301 0A       		.byte	0xa
 963 0302 9101     		.2byte	0x191
 964 0304 B4020000 		.4byte	0x2b4
 965 0308 00       		.byte	0
 966 0309 09       		.uleb128 0x9
 967 030a 25060000 		.4byte	.LASF61
 968 030e 0A       		.byte	0xa
 969 030f 9201     		.2byte	0x192
 970 0311 27010000 		.4byte	0x127
 971 0315 08       		.byte	0x8
 972 0316 09       		.uleb128 0x9
 973 0317 52050000 		.4byte	.LASF62
 974 031b 0A       		.byte	0xa
 975 031c 9401     		.2byte	0x194
 976 031e F8040000 		.4byte	0x4f8
 977 0322 0C       		.byte	0xc
 978 0323 09       		.uleb128 0x9
 979 0324 09030000 		.4byte	.LASF63
 980 0328 0A       		.byte	0xa
 981 0329 9701     		.2byte	0x197
 982 032b 8A020000 		.4byte	0x28a
 983 032f 10       		.byte	0x10
 984 0330 09       		.uleb128 0x9
 985 0331 83050000 		.4byte	.LASF64
 986 0335 0A       		.byte	0xa
 987 0336 9801     		.2byte	0x198
 988 0338 8A020000 		.4byte	0x28a
 989 033c 14       		.byte	0x14
 990 033d 09       		.uleb128 0x9
 991 033e 13070000 		.4byte	.LASF65
 992 0342 0A       		.byte	0xa
 993 0343 9B01     		.2byte	0x19b
 994 0345 8A020000 		.4byte	0x28a
 995 0349 18       		.byte	0x18
 996 034a 00       		.byte	0
 997 034b 03       		.uleb128 0x3
 998 034c 7F070000 		.4byte	.LASF66
 999 0350 09       		.byte	0x9
 1000 0351 5C       		.byte	0x5c
 1001 0352 56030000 		.4byte	0x356
 1002 0356 0A       		.uleb128 0xa
 1003 0357 04       		.byte	0x4
 1004 0358 5C030000 		.4byte	0x35c
 1005 035c 0C       		.uleb128 0xc
 1006 035d 67030000 		.4byte	0x367
 1007 0361 0D       		.uleb128 0xd
 1008 0362 67030000 		.4byte	0x367
 1009 0366 00       		.byte	0
 1010 0367 0E       		.uleb128 0xe
 1011 0368 04       		.byte	0x4
 1012 0369 03       		.uleb128 0x3
 1013 036a B9050000 		.4byte	.LASF67
 1014 036e 09       		.byte	0x9
 1015 036f 61       		.byte	0x61
ARM GAS  /tmp/ccq8ydGr.s 			page 19


 1016 0370 74030000 		.4byte	0x374
 1017 0374 0B       		.uleb128 0xb
 1018 0375 91060000 		.4byte	.LASF68
 1019 0379 14       		.byte	0x14
 1020 037a 0A       		.byte	0xa
 1021 037b 6B01     		.2byte	0x16b
 1022 037d C3030000 		.4byte	0x3c3
 1023 0381 09       		.uleb128 0x9
 1024 0382 82030000 		.4byte	.LASF69
 1025 0386 0A       		.byte	0xa
 1026 0387 6C01     		.2byte	0x16c
 1027 0389 F5070000 		.4byte	0x7f5
 1028 038d 00       		.byte	0
 1029 038e 09       		.uleb128 0x9
 1030 038f 26030000 		.4byte	.LASF70
 1031 0393 0A       		.byte	0xa
 1032 0394 6D01     		.2byte	0x16d
 1033 0396 F5070000 		.4byte	0x7f5
 1034 039a 04       		.byte	0x4
 1035 039b 09       		.uleb128 0x9
 1036 039c FB030000 		.4byte	.LASF71
 1037 03a0 0A       		.byte	0xa
 1038 03a1 6E01     		.2byte	0x16e
 1039 03a3 5E010000 		.4byte	0x15e
 1040 03a7 08       		.byte	0x8
 1041 03a8 09       		.uleb128 0x9
 1042 03a9 9D080000 		.4byte	.LASF72
 1043 03ad 0A       		.byte	0xa
 1044 03ae 6F01     		.2byte	0x16f
 1045 03b0 4B030000 		.4byte	0x34b
 1046 03b4 0C       		.byte	0xc
 1047 03b5 09       		.uleb128 0x9
 1048 03b6 E6070000 		.4byte	.LASF73
 1049 03ba 0A       		.byte	0xa
 1050 03bb 7101     		.2byte	0x171
 1051 03bd 67030000 		.4byte	0x367
 1052 03c1 10       		.byte	0x10
 1053 03c2 00       		.byte	0
 1054 03c3 03       		.uleb128 0x3
 1055 03c4 CC000000 		.4byte	.LASF74
 1056 03c8 09       		.byte	0x9
 1057 03c9 66       		.byte	0x66
 1058 03ca CE030000 		.4byte	0x3ce
 1059 03ce 0B       		.uleb128 0xb
 1060 03cf 00050000 		.4byte	.LASF75
 1061 03d3 10       		.byte	0x10
 1062 03d4 0A       		.byte	0xa
 1063 03d5 7B01     		.2byte	0x17b
 1064 03d7 10040000 		.4byte	0x410
 1065 03db 09       		.uleb128 0x9
 1066 03dc 82030000 		.4byte	.LASF69
 1067 03e0 0A       		.byte	0xa
 1068 03e1 7C01     		.2byte	0x17c
 1069 03e3 F5070000 		.4byte	0x7f5
 1070 03e7 00       		.byte	0
 1071 03e8 09       		.uleb128 0x9
 1072 03e9 26030000 		.4byte	.LASF70
ARM GAS  /tmp/ccq8ydGr.s 			page 20


 1073 03ed 0A       		.byte	0xa
 1074 03ee 7E01     		.2byte	0x17e
 1075 03f0 F5070000 		.4byte	0x7f5
 1076 03f4 04       		.byte	0x4
 1077 03f5 09       		.uleb128 0x9
 1078 03f6 FB030000 		.4byte	.LASF71
 1079 03fa 0A       		.byte	0xa
 1080 03fb 8001     		.2byte	0x180
 1081 03fd 5E010000 		.4byte	0x15e
 1082 0401 08       		.byte	0x8
 1083 0402 09       		.uleb128 0x9
 1084 0403 5A080000 		.4byte	.LASF76
 1085 0407 0A       		.byte	0xa
 1086 0408 8201     		.2byte	0x182
 1087 040a 69010000 		.4byte	0x169
 1088 040e 0C       		.byte	0xc
 1089 040f 00       		.byte	0
 1090 0410 03       		.uleb128 0x3
 1091 0411 65000000 		.4byte	.LASF77
 1092 0415 09       		.byte	0x9
 1093 0416 6B       		.byte	0x6b
 1094 0417 1B040000 		.4byte	0x41b
 1095 041b 0B       		.uleb128 0xb
 1096 041c 2E030000 		.4byte	.LASF78
 1097 0420 0C       		.byte	0xc
 1098 0421 0A       		.byte	0xa
 1099 0422 A201     		.2byte	0x1a2
 1100 0424 50040000 		.4byte	0x450
 1101 0428 09       		.uleb128 0x9
 1102 0429 A1070000 		.4byte	.LASF79
 1103 042d 0A       		.byte	0xa
 1104 042e AA01     		.2byte	0x1aa
 1105 0430 DE070000 		.4byte	0x7de
 1106 0434 00       		.byte	0
 1107 0435 09       		.uleb128 0x9
 1108 0436 0B080000 		.4byte	.LASF80
 1109 043a 0A       		.byte	0xa
 1110 043b AF01     		.2byte	0x1af
 1111 043d 48010000 		.4byte	0x148
 1112 0441 04       		.byte	0x4
 1113 0442 09       		.uleb128 0x9
 1114 0443 4C030000 		.4byte	.LASF81
 1115 0447 0A       		.byte	0xa
 1116 0448 B301     		.2byte	0x1b3
 1117 044a 48010000 		.4byte	0x148
 1118 044e 08       		.byte	0x8
 1119 044f 00       		.byte	0
 1120 0450 03       		.uleb128 0x3
 1121 0451 7B040000 		.4byte	.LASF82
 1122 0455 09       		.byte	0x9
 1123 0456 70       		.byte	0x70
 1124 0457 5B040000 		.4byte	0x45b
 1125 045b 0F       		.uleb128 0xf
 1126 045c 7E010000 		.4byte	.LASF83
 1127 0460 5802     		.2byte	0x258
 1128 0462 0A       		.byte	0xa
 1129 0463 C201     		.2byte	0x1c2
ARM GAS  /tmp/ccq8ydGr.s 			page 21


 1130 0465 C4040000 		.4byte	0x4c4
 1131 0469 09       		.uleb128 0x9
 1132 046a 13080000 		.4byte	.LASF84
 1133 046e 0A       		.byte	0xa
 1134 046f C601     		.2byte	0x1c6
 1135 0471 E4020000 		.4byte	0x2e4
 1136 0475 00       		.byte	0
 1137 0476 09       		.uleb128 0x9
 1138 0477 65010000 		.4byte	.LASF85
 1139 047b 0A       		.byte	0xa
 1140 047c CA01     		.2byte	0x1ca
 1141 047e C3030000 		.4byte	0x3c3
 1142 0482 1C       		.byte	0x1c
 1143 0483 08       		.uleb128 0x8
 1144 0484 64626700 		.ascii	"dbg\000"
 1145 0488 0A       		.byte	0xa
 1146 0489 CE01     		.2byte	0x1ce
 1147 048b 10040000 		.4byte	0x410
 1148 048f 2C       		.byte	0x2c
 1149 0490 09       		.uleb128 0x9
 1150 0491 5E040000 		.4byte	.LASF86
 1151 0495 0A       		.byte	0xa
 1152 0496 D201     		.2byte	0x1d2
 1153 0498 6E010000 		.4byte	0x16e
 1154 049c 38       		.byte	0x38
 1155 049d 08       		.uleb128 0x8
 1156 049e 746D00   		.ascii	"tm\000"
 1157 04a1 0A       		.byte	0xa
 1158 04a2 D701     		.2byte	0x1d7
 1159 04a4 76060000 		.4byte	0x676
 1160 04a8 98       		.byte	0x98
 1161 04a9 09       		.uleb128 0x9
 1162 04aa 31000000 		.4byte	.LASF87
 1163 04ae 0A       		.byte	0xa
 1164 04af DD01     		.2byte	0x1dd
 1165 04b1 08070000 		.4byte	0x708
 1166 04b5 A0       		.byte	0xa0
 1167 04b6 09       		.uleb128 0x9
 1168 04b7 55030000 		.4byte	.LASF88
 1169 04bb 0A       		.byte	0xa
 1170 04bc E301     		.2byte	0x1e3
 1171 04be FB070000 		.4byte	0x7fb
 1172 04c2 D8       		.byte	0xd8
 1173 04c3 00       		.byte	0
 1174 04c4 04       		.uleb128 0x4
 1175 04c5 04       		.byte	0x4
 1176 04c6 07       		.byte	0x7
 1177 04c7 F7040000 		.4byte	.LASF89
 1178 04cb 10       		.uleb128 0x10
 1179 04cc E2000000 		.4byte	.LASF90
 1180 04d0 0B       		.byte	0xb
 1181 04d1 FA06     		.2byte	0x6fa
 1182 04d3 D5000000 		.4byte	0xd5
 1183 04d7 11       		.uleb128 0x11
 1184 04d8 93030000 		.4byte	.LASF91
 1185 04dc 0C       		.byte	0xc
 1186 04dd 4C       		.byte	0x4c
ARM GAS  /tmp/ccq8ydGr.s 			page 22


 1187 04de DA000000 		.4byte	0xda
 1188 04e2 03       		.uleb128 0x3
 1189 04e3 1D030000 		.4byte	.LASF92
 1190 04e7 0D       		.byte	0xd
 1191 04e8 65       		.byte	0x65
 1192 04e9 67030000 		.4byte	0x367
 1193 04ed 03       		.uleb128 0x3
 1194 04ee CE040000 		.4byte	.LASF93
 1195 04f2 0D       		.byte	0xd
 1196 04f3 6D       		.byte	0x6d
 1197 04f4 E5000000 		.4byte	0xe5
 1198 04f8 06       		.uleb128 0x6
 1199 04f9 C3070000 		.4byte	.LASF94
 1200 04fd 04       		.byte	0x4
 1201 04fe 0D       		.byte	0xd
 1202 04ff 89       		.byte	0x89
 1203 0500 11050000 		.4byte	0x511
 1204 0504 12       		.uleb128 0x12
 1205 0505 72313300 		.ascii	"r13\000"
 1206 0509 0D       		.byte	0xd
 1207 050a 8A       		.byte	0x8a
 1208 050b 5B060000 		.4byte	0x65b
 1209 050f 00       		.byte	0
 1210 0510 00       		.byte	0
 1211 0511 06       		.uleb128 0x6
 1212 0512 48000000 		.4byte	.LASF95
 1213 0516 64       		.byte	0x64
 1214 0517 01       		.byte	0x1
 1215 0518 FD       		.byte	0xfd
 1216 0519 5B060000 		.4byte	0x65b
 1217 051d 12       		.uleb128 0x12
 1218 051e 73313600 		.ascii	"s16\000"
 1219 0522 01       		.byte	0x1
 1220 0523 FF       		.byte	0xff
 1221 0524 E2040000 		.4byte	0x4e2
 1222 0528 00       		.byte	0
 1223 0529 08       		.uleb128 0x8
 1224 052a 73313700 		.ascii	"s17\000"
 1225 052e 01       		.byte	0x1
 1226 052f 0001     		.2byte	0x100
 1227 0531 E2040000 		.4byte	0x4e2
 1228 0535 04       		.byte	0x4
 1229 0536 08       		.uleb128 0x8
 1230 0537 73313800 		.ascii	"s18\000"
 1231 053b 01       		.byte	0x1
 1232 053c 0101     		.2byte	0x101
 1233 053e E2040000 		.4byte	0x4e2
 1234 0542 08       		.byte	0x8
 1235 0543 08       		.uleb128 0x8
 1236 0544 73313900 		.ascii	"s19\000"
 1237 0548 01       		.byte	0x1
 1238 0549 0201     		.2byte	0x102
 1239 054b E2040000 		.4byte	0x4e2
 1240 054f 0C       		.byte	0xc
 1241 0550 08       		.uleb128 0x8
 1242 0551 73323000 		.ascii	"s20\000"
 1243 0555 01       		.byte	0x1
ARM GAS  /tmp/ccq8ydGr.s 			page 23


 1244 0556 0301     		.2byte	0x103
 1245 0558 E2040000 		.4byte	0x4e2
 1246 055c 10       		.byte	0x10
 1247 055d 08       		.uleb128 0x8
 1248 055e 73323100 		.ascii	"s21\000"
 1249 0562 01       		.byte	0x1
 1250 0563 0401     		.2byte	0x104
 1251 0565 E2040000 		.4byte	0x4e2
 1252 0569 14       		.byte	0x14
 1253 056a 08       		.uleb128 0x8
 1254 056b 73323200 		.ascii	"s22\000"
 1255 056f 01       		.byte	0x1
 1256 0570 0501     		.2byte	0x105
 1257 0572 E2040000 		.4byte	0x4e2
 1258 0576 18       		.byte	0x18
 1259 0577 08       		.uleb128 0x8
 1260 0578 73323300 		.ascii	"s23\000"
 1261 057c 01       		.byte	0x1
 1262 057d 0601     		.2byte	0x106
 1263 057f E2040000 		.4byte	0x4e2
 1264 0583 1C       		.byte	0x1c
 1265 0584 08       		.uleb128 0x8
 1266 0585 73323400 		.ascii	"s24\000"
 1267 0589 01       		.byte	0x1
 1268 058a 0701     		.2byte	0x107
 1269 058c E2040000 		.4byte	0x4e2
 1270 0590 20       		.byte	0x20
 1271 0591 08       		.uleb128 0x8
 1272 0592 73323500 		.ascii	"s25\000"
 1273 0596 01       		.byte	0x1
 1274 0597 0801     		.2byte	0x108
 1275 0599 E2040000 		.4byte	0x4e2
 1276 059d 24       		.byte	0x24
 1277 059e 08       		.uleb128 0x8
 1278 059f 73323600 		.ascii	"s26\000"
 1279 05a3 01       		.byte	0x1
 1280 05a4 0901     		.2byte	0x109
 1281 05a6 E2040000 		.4byte	0x4e2
 1282 05aa 28       		.byte	0x28
 1283 05ab 08       		.uleb128 0x8
 1284 05ac 73323700 		.ascii	"s27\000"
 1285 05b0 01       		.byte	0x1
 1286 05b1 0A01     		.2byte	0x10a
 1287 05b3 E2040000 		.4byte	0x4e2
 1288 05b7 2C       		.byte	0x2c
 1289 05b8 08       		.uleb128 0x8
 1290 05b9 73323800 		.ascii	"s28\000"
 1291 05bd 01       		.byte	0x1
 1292 05be 0B01     		.2byte	0x10b
 1293 05c0 E2040000 		.4byte	0x4e2
 1294 05c4 30       		.byte	0x30
 1295 05c5 08       		.uleb128 0x8
 1296 05c6 73323900 		.ascii	"s29\000"
 1297 05ca 01       		.byte	0x1
 1298 05cb 0C01     		.2byte	0x10c
 1299 05cd E2040000 		.4byte	0x4e2
 1300 05d1 34       		.byte	0x34
ARM GAS  /tmp/ccq8ydGr.s 			page 24


 1301 05d2 08       		.uleb128 0x8
 1302 05d3 73333000 		.ascii	"s30\000"
 1303 05d7 01       		.byte	0x1
 1304 05d8 0D01     		.2byte	0x10d
 1305 05da E2040000 		.4byte	0x4e2
 1306 05de 38       		.byte	0x38
 1307 05df 08       		.uleb128 0x8
 1308 05e0 73333100 		.ascii	"s31\000"
 1309 05e4 01       		.byte	0x1
 1310 05e5 0E01     		.2byte	0x10e
 1311 05e7 E2040000 		.4byte	0x4e2
 1312 05eb 3C       		.byte	0x3c
 1313 05ec 08       		.uleb128 0x8
 1314 05ed 723400   		.ascii	"r4\000"
 1315 05f0 01       		.byte	0x1
 1316 05f1 1001     		.2byte	0x110
 1317 05f3 E2040000 		.4byte	0x4e2
 1318 05f7 40       		.byte	0x40
 1319 05f8 08       		.uleb128 0x8
 1320 05f9 723500   		.ascii	"r5\000"
 1321 05fc 01       		.byte	0x1
 1322 05fd 1101     		.2byte	0x111
 1323 05ff E2040000 		.4byte	0x4e2
 1324 0603 44       		.byte	0x44
 1325 0604 08       		.uleb128 0x8
 1326 0605 723600   		.ascii	"r6\000"
 1327 0608 01       		.byte	0x1
 1328 0609 1201     		.2byte	0x112
 1329 060b E2040000 		.4byte	0x4e2
 1330 060f 48       		.byte	0x48
 1331 0610 08       		.uleb128 0x8
 1332 0611 723700   		.ascii	"r7\000"
 1333 0614 01       		.byte	0x1
 1334 0615 1301     		.2byte	0x113
 1335 0617 E2040000 		.4byte	0x4e2
 1336 061b 4C       		.byte	0x4c
 1337 061c 08       		.uleb128 0x8
 1338 061d 723800   		.ascii	"r8\000"
 1339 0620 01       		.byte	0x1
 1340 0621 1401     		.2byte	0x114
 1341 0623 E2040000 		.4byte	0x4e2
 1342 0627 50       		.byte	0x50
 1343 0628 08       		.uleb128 0x8
 1344 0629 723900   		.ascii	"r9\000"
 1345 062c 01       		.byte	0x1
 1346 062d 1501     		.2byte	0x115
 1347 062f E2040000 		.4byte	0x4e2
 1348 0633 54       		.byte	0x54
 1349 0634 08       		.uleb128 0x8
 1350 0635 72313000 		.ascii	"r10\000"
 1351 0639 01       		.byte	0x1
 1352 063a 1601     		.2byte	0x116
 1353 063c E2040000 		.4byte	0x4e2
 1354 0640 58       		.byte	0x58
 1355 0641 08       		.uleb128 0x8
 1356 0642 72313100 		.ascii	"r11\000"
 1357 0646 01       		.byte	0x1
ARM GAS  /tmp/ccq8ydGr.s 			page 25


 1358 0647 1701     		.2byte	0x117
 1359 0649 E2040000 		.4byte	0x4e2
 1360 064d 5C       		.byte	0x5c
 1361 064e 08       		.uleb128 0x8
 1362 064f 6C7200   		.ascii	"lr\000"
 1363 0652 01       		.byte	0x1
 1364 0653 1801     		.2byte	0x118
 1365 0655 E2040000 		.4byte	0x4e2
 1366 0659 60       		.byte	0x60
 1367 065a 00       		.byte	0
 1368 065b 0A       		.uleb128 0xa
 1369 065c 04       		.byte	0x4
 1370 065d 11050000 		.4byte	0x511
 1371 0661 13       		.uleb128 0x13
 1372 0662 04       		.byte	0x4
 1373 0663 0E       		.byte	0xe
 1374 0664 38       		.byte	0x38
 1375 0665 76060000 		.4byte	0x676
 1376 0669 07       		.uleb128 0x7
 1377 066a AB070000 		.4byte	.LASF96
 1378 066e 0E       		.byte	0xe
 1379 066f 3C       		.byte	0x3c
 1380 0670 F0000000 		.4byte	0xf0
 1381 0674 00       		.byte	0
 1382 0675 00       		.byte	0
 1383 0676 03       		.uleb128 0x3
 1384 0677 6D050000 		.4byte	.LASF97
 1385 067b 0E       		.byte	0xe
 1386 067c 3D       		.byte	0x3d
 1387 067d 61060000 		.4byte	0x661
 1388 0681 13       		.uleb128 0x13
 1389 0682 18       		.byte	0x18
 1390 0683 0E       		.byte	0xe
 1391 0684 48       		.byte	0x48
 1392 0685 C4060000 		.4byte	0x6c4
 1393 0689 07       		.uleb128 0x7
 1394 068a 5E070000 		.4byte	.LASF98
 1395 068e 0E       		.byte	0xe
 1396 068f 49       		.byte	0x49
 1397 0690 F0000000 		.4byte	0xf0
 1398 0694 00       		.byte	0
 1399 0695 07       		.uleb128 0x7
 1400 0696 7E000000 		.4byte	.LASF99
 1401 069a 0E       		.byte	0xe
 1402 069b 4A       		.byte	0x4a
 1403 069c F0000000 		.4byte	0xf0
 1404 06a0 04       		.byte	0x4
 1405 06a1 07       		.uleb128 0x7
 1406 06a2 6F040000 		.4byte	.LASF100
 1407 06a6 0E       		.byte	0xe
 1408 06a7 4B       		.byte	0x4b
 1409 06a8 F0000000 		.4byte	0xf0
 1410 06ac 08       		.byte	0x8
 1411 06ad 12       		.uleb128 0x12
 1412 06ae 6E00     		.ascii	"n\000"
 1413 06b0 0E       		.byte	0xe
 1414 06b1 4C       		.byte	0x4c
ARM GAS  /tmp/ccq8ydGr.s 			page 26


 1415 06b2 53010000 		.4byte	0x153
 1416 06b6 0C       		.byte	0xc
 1417 06b7 07       		.uleb128 0x7
 1418 06b8 96050000 		.4byte	.LASF101
 1419 06bc 0E       		.byte	0xe
 1420 06bd 4D       		.byte	0x4d
 1421 06be FB000000 		.4byte	0xfb
 1422 06c2 10       		.byte	0x10
 1423 06c3 00       		.byte	0
 1424 06c4 03       		.uleb128 0x3
 1425 06c5 84000000 		.4byte	.LASF102
 1426 06c9 0E       		.byte	0xe
 1427 06ca 4E       		.byte	0x4e
 1428 06cb 81060000 		.4byte	0x681
 1429 06cf 13       		.uleb128 0x13
 1430 06d0 38       		.byte	0x38
 1431 06d1 0F       		.byte	0xf
 1432 06d2 38       		.byte	0x38
 1433 06d3 08070000 		.4byte	0x708
 1434 06d7 07       		.uleb128 0x7
 1435 06d8 26040000 		.4byte	.LASF103
 1436 06dc 0F       		.byte	0xf
 1437 06dd 39       		.byte	0x39
 1438 06de 53010000 		.4byte	0x153
 1439 06e2 00       		.byte	0
 1440 06e3 07       		.uleb128 0x7
 1441 06e4 D8050000 		.4byte	.LASF104
 1442 06e8 0F       		.byte	0xf
 1443 06e9 3A       		.byte	0x3a
 1444 06ea 53010000 		.4byte	0x153
 1445 06ee 04       		.byte	0x4
 1446 06ef 07       		.uleb128 0x7
 1447 06f0 7C080000 		.4byte	.LASF105
 1448 06f4 0F       		.byte	0xf
 1449 06f5 3B       		.byte	0x3b
 1450 06f6 C4060000 		.4byte	0x6c4
 1451 06fa 08       		.byte	0x8
 1452 06fb 07       		.uleb128 0x7
 1453 06fc 93040000 		.4byte	.LASF106
 1454 0700 0F       		.byte	0xf
 1455 0701 3D       		.byte	0x3d
 1456 0702 C4060000 		.4byte	0x6c4
 1457 0706 20       		.byte	0x20
 1458 0707 00       		.byte	0
 1459 0708 03       		.uleb128 0x3
 1460 0709 45040000 		.4byte	.LASF107
 1461 070d 0F       		.byte	0xf
 1462 070e 3F       		.byte	0x3f
 1463 070f CF060000 		.4byte	0x6cf
 1464 0713 14       		.uleb128 0x14
 1465 0714 04       		.byte	0x4
 1466 0715 0A       		.byte	0xa
 1467 0716 FA       		.byte	0xfa
 1468 0717 70070000 		.4byte	0x770
 1469 071b 15       		.uleb128 0x15
 1470 071c 21000000 		.4byte	.LASF108
 1471 0720 0A       		.byte	0xa
ARM GAS  /tmp/ccq8ydGr.s 			page 27


 1472 0721 0101     		.2byte	0x101
 1473 0723 32010000 		.4byte	0x132
 1474 0727 15       		.uleb128 0x15
 1475 0728 BC000000 		.4byte	.LASF109
 1476 072c 0A       		.byte	0xa
 1477 072d 0801     		.2byte	0x108
 1478 072f 32010000 		.4byte	0x132
 1479 0733 15       		.uleb128 0x15
 1480 0734 3F080000 		.4byte	.LASF110
 1481 0738 0A       		.byte	0xa
 1482 0739 0F01     		.2byte	0x10f
 1483 073b 67030000 		.4byte	0x367
 1484 073f 15       		.uleb128 0x15
 1485 0740 78010000 		.4byte	.LASF111
 1486 0744 0A       		.byte	0xa
 1487 0745 1601     		.2byte	0x116
 1488 0747 70070000 		.4byte	0x770
 1489 074b 15       		.uleb128 0x15
 1490 074c E7030000 		.4byte	.LASF112
 1491 0750 0A       		.byte	0xa
 1492 0751 1E01     		.2byte	0x11e
 1493 0753 9B070000 		.4byte	0x79b
 1494 0757 15       		.uleb128 0x15
 1495 0758 22070000 		.4byte	.LASF113
 1496 075c 0A       		.byte	0xa
 1497 075d 2701     		.2byte	0x127
 1498 075f D2070000 		.4byte	0x7d2
 1499 0763 15       		.uleb128 0x15
 1500 0764 2C060000 		.4byte	.LASF114
 1501 0768 0A       		.byte	0xa
 1502 0769 2F01     		.2byte	0x12f
 1503 076b 3D010000 		.4byte	0x13d
 1504 076f 00       		.byte	0
 1505 0770 0A       		.uleb128 0xa
 1506 0771 04       		.byte	0x4
 1507 0772 7F020000 		.4byte	0x27f
 1508 0776 06       		.uleb128 0x6
 1509 0777 AF060000 		.4byte	.LASF115
 1510 077b 0C       		.byte	0xc
 1511 077c 10       		.byte	0x10
 1512 077d 34       		.byte	0x34
 1513 077e 9B070000 		.4byte	0x79b
 1514 0782 07       		.uleb128 0x7
 1515 0783 E7020000 		.4byte	.LASF116
 1516 0787 10       		.byte	0x10
 1517 0788 35       		.byte	0x35
 1518 0789 B4020000 		.4byte	0x2b4
 1519 078d 00       		.byte	0
 1520 078e 07       		.uleb128 0x7
 1521 078f 2C040000 		.4byte	.LASF117
 1522 0793 10       		.byte	0x10
 1523 0794 37       		.byte	0x37
 1524 0795 48010000 		.4byte	0x148
 1525 0799 08       		.byte	0x8
 1526 079a 00       		.byte	0
 1527 079b 0A       		.uleb128 0xa
 1528 079c 04       		.byte	0x4
ARM GAS  /tmp/ccq8ydGr.s 			page 28


 1529 079d 76070000 		.4byte	0x776
 1530 07a1 06       		.uleb128 0x6
 1531 07a2 B2070000 		.4byte	.LASF118
 1532 07a6 10       		.byte	0x10
 1533 07a7 11       		.byte	0x11
 1534 07a8 39       		.byte	0x39
 1535 07a9 D2070000 		.4byte	0x7d2
 1536 07ad 07       		.uleb128 0x7
 1537 07ae 5D010000 		.4byte	.LASF119
 1538 07b2 11       		.byte	0x11
 1539 07b3 3A       		.byte	0x3a
 1540 07b4 B4020000 		.4byte	0x2b4
 1541 07b8 00       		.byte	0
 1542 07b9 07       		.uleb128 0x7
 1543 07ba 87080000 		.4byte	.LASF120
 1544 07be 11       		.byte	0x11
 1545 07bf 3C       		.byte	0x3c
 1546 07c0 8A020000 		.4byte	0x28a
 1547 07c4 08       		.byte	0x8
 1548 07c5 07       		.uleb128 0x7
 1549 07c6 63070000 		.4byte	.LASF121
 1550 07ca 11       		.byte	0x11
 1551 07cb 3E       		.byte	0x3e
 1552 07cc 38090000 		.4byte	0x938
 1553 07d0 0C       		.byte	0xc
 1554 07d1 00       		.byte	0
 1555 07d2 0A       		.uleb128 0xa
 1556 07d3 04       		.byte	0x4
 1557 07d4 A1070000 		.4byte	0x7a1
 1558 07d8 0A       		.uleb128 0xa
 1559 07d9 04       		.byte	0x4
 1560 07da EA070000 		.4byte	0x7ea
 1561 07de 05       		.uleb128 0x5
 1562 07df D8070000 		.4byte	0x7d8
 1563 07e3 04       		.uleb128 0x4
 1564 07e4 01       		.byte	0x1
 1565 07e5 08       		.byte	0x8
 1566 07e6 1D070000 		.4byte	.LASF122
 1567 07ea 16       		.uleb128 0x16
 1568 07eb E3070000 		.4byte	0x7e3
 1569 07ef 0A       		.uleb128 0xa
 1570 07f0 04       		.byte	0x4
 1571 07f1 ED040000 		.4byte	0x4ed
 1572 07f5 0A       		.uleb128 0xa
 1573 07f6 04       		.byte	0x4
 1574 07f7 69030000 		.4byte	0x369
 1575 07fb 17       		.uleb128 0x17
 1576 07fc ED040000 		.4byte	0x4ed
 1577 0800 0B080000 		.4byte	0x80b
 1578 0804 18       		.uleb128 0x18
 1579 0805 C4040000 		.4byte	0x4c4
 1580 0809 2F       		.byte	0x2f
 1581 080a 00       		.byte	0
 1582 080b 19       		.uleb128 0x19
 1583 080c 636800   		.ascii	"ch\000"
 1584 080f 0A       		.byte	0xa
 1585 0810 0902     		.2byte	0x209
ARM GAS  /tmp/ccq8ydGr.s 			page 29


 1586 0812 50040000 		.4byte	0x450
 1587 0816 03       		.uleb128 0x3
 1588 0817 00000000 		.4byte	.LASF123
 1589 081b 12       		.byte	0x12
 1590 081c 34       		.byte	0x34
 1591 081d 56030000 		.4byte	0x356
 1592 0821 13       		.uleb128 0x13
 1593 0822 16       		.byte	0x16
 1594 0823 13       		.byte	0x13
 1595 0824 34       		.byte	0x34
 1596 0825 02090000 		.4byte	0x902
 1597 0829 07       		.uleb128 0x7
 1598 082a 8F080000 		.4byte	.LASF124
 1599 082e 13       		.byte	0x13
 1600 082f 35       		.byte	0x35
 1601 0830 02090000 		.4byte	0x902
 1602 0834 00       		.byte	0
 1603 0835 07       		.uleb128 0x7
 1604 0836 D9040000 		.4byte	.LASF125
 1605 083a 13       		.byte	0x13
 1606 083b 36       		.byte	0x36
 1607 083c B4000000 		.4byte	0xb4
 1608 0840 04       		.byte	0x4
 1609 0841 07       		.uleb128 0x7
 1610 0842 F4060000 		.4byte	.LASF126
 1611 0846 13       		.byte	0x13
 1612 0847 37       		.byte	0x37
 1613 0848 B4000000 		.4byte	0xb4
 1614 084c 05       		.byte	0x5
 1615 084d 07       		.uleb128 0x7
 1616 084e 71080000 		.4byte	.LASF127
 1617 0852 13       		.byte	0x13
 1618 0853 38       		.byte	0x38
 1619 0854 BF000000 		.4byte	0xbf
 1620 0858 06       		.byte	0x6
 1621 0859 07       		.uleb128 0x7
 1622 085a A9050000 		.4byte	.LASF128
 1623 085e 13       		.byte	0x13
 1624 085f 39       		.byte	0x39
 1625 0860 B4000000 		.4byte	0xb4
 1626 0864 08       		.byte	0x8
 1627 0865 07       		.uleb128 0x7
 1628 0866 23050000 		.4byte	.LASF129
 1629 086a 13       		.byte	0x13
 1630 086b 3A       		.byte	0x3a
 1631 086c B4000000 		.4byte	0xb4
 1632 0870 09       		.byte	0x9
 1633 0871 07       		.uleb128 0x7
 1634 0872 AE000000 		.4byte	.LASF130
 1635 0876 13       		.byte	0x13
 1636 0877 3B       		.byte	0x3b
 1637 0878 B4000000 		.4byte	0xb4
 1638 087c 0A       		.byte	0xa
 1639 087d 07       		.uleb128 0x7
 1640 087e D0060000 		.4byte	.LASF131
 1641 0882 13       		.byte	0x13
 1642 0883 3C       		.byte	0x3c
ARM GAS  /tmp/ccq8ydGr.s 			page 30


 1643 0884 B4000000 		.4byte	0xb4
 1644 0888 0B       		.byte	0xb
 1645 0889 07       		.uleb128 0x7
 1646 088a ED070000 		.4byte	.LASF132
 1647 088e 13       		.byte	0x13
 1648 088f 3D       		.byte	0x3d
 1649 0890 B4000000 		.4byte	0xb4
 1650 0894 0C       		.byte	0xc
 1651 0895 07       		.uleb128 0x7
 1652 0896 A2060000 		.4byte	.LASF133
 1653 089a 13       		.byte	0x13
 1654 089b 3E       		.byte	0x3e
 1655 089c B4000000 		.4byte	0xb4
 1656 08a0 0D       		.byte	0xd
 1657 08a1 07       		.uleb128 0x7
 1658 08a2 EE030000 		.4byte	.LASF134
 1659 08a6 13       		.byte	0x13
 1660 08a7 3F       		.byte	0x3f
 1661 08a8 B4000000 		.4byte	0xb4
 1662 08ac 0E       		.byte	0xe
 1663 08ad 07       		.uleb128 0x7
 1664 08ae 2F050000 		.4byte	.LASF135
 1665 08b2 13       		.byte	0x13
 1666 08b3 40       		.byte	0x40
 1667 08b4 B4000000 		.4byte	0xb4
 1668 08b8 0F       		.byte	0xf
 1669 08b9 07       		.uleb128 0x7
 1670 08ba 38010000 		.4byte	.LASF136
 1671 08be 13       		.byte	0x13
 1672 08bf 41       		.byte	0x41
 1673 08c0 B4000000 		.4byte	0xb4
 1674 08c4 10       		.byte	0x10
 1675 08c5 07       		.uleb128 0x7
 1676 08c6 0B010000 		.4byte	.LASF137
 1677 08ca 13       		.byte	0x13
 1678 08cb 43       		.byte	0x43
 1679 08cc B4000000 		.4byte	0xb4
 1680 08d0 11       		.byte	0x11
 1681 08d1 07       		.uleb128 0x7
 1682 08d2 48010000 		.4byte	.LASF138
 1683 08d6 13       		.byte	0x13
 1684 08d7 44       		.byte	0x44
 1685 08d8 B4000000 		.4byte	0xb4
 1686 08dc 12       		.byte	0x12
 1687 08dd 07       		.uleb128 0x7
 1688 08de E1040000 		.4byte	.LASF139
 1689 08e2 13       		.byte	0x13
 1690 08e3 45       		.byte	0x45
 1691 08e4 B4000000 		.4byte	0xb4
 1692 08e8 13       		.byte	0x13
 1693 08e9 07       		.uleb128 0x7
 1694 08ea 42060000 		.4byte	.LASF140
 1695 08ee 13       		.byte	0x13
 1696 08ef 46       		.byte	0x46
 1697 08f0 B4000000 		.4byte	0xb4
 1698 08f4 14       		.byte	0x14
 1699 08f5 07       		.uleb128 0x7
ARM GAS  /tmp/ccq8ydGr.s 			page 31


 1700 08f6 87040000 		.4byte	.LASF141
 1701 08fa 13       		.byte	0x13
 1702 08fb 48       		.byte	0x48
 1703 08fc B4000000 		.4byte	0xb4
 1704 0900 15       		.byte	0x15
 1705 0901 00       		.byte	0
 1706 0902 17       		.uleb128 0x17
 1707 0903 E3070000 		.4byte	0x7e3
 1708 0907 12090000 		.4byte	0x912
 1709 090b 18       		.uleb128 0x18
 1710 090c C4040000 		.4byte	0x4c4
 1711 0910 03       		.byte	0x3
 1712 0911 00       		.byte	0
 1713 0912 03       		.uleb128 0x3
 1714 0913 D5020000 		.4byte	.LASF142
 1715 0917 13       		.byte	0x13
 1716 0918 49       		.byte	0x49
 1717 0919 21080000 		.4byte	0x821
 1718 091d 16       		.uleb128 0x16
 1719 091e 12090000 		.4byte	0x912
 1720 0922 11       		.uleb128 0x11
 1721 0923 0F040000 		.4byte	.LASF143
 1722 0927 13       		.byte	0x13
 1723 0928 6E       		.byte	0x6e
 1724 0929 1D090000 		.4byte	0x91d
 1725 092d 03       		.uleb128 0x3
 1726 092e 3E030000 		.4byte	.LASF144
 1727 0932 11       		.byte	0x11
 1728 0933 34       		.byte	0x34
 1729 0934 A1070000 		.4byte	0x7a1
 1730 0938 0A       		.uleb128 0xa
 1731 0939 04       		.byte	0x4
 1732 093a 2D090000 		.4byte	0x92d
 1733 093e 04       		.uleb128 0x4
 1734 093f 01       		.byte	0x1
 1735 0940 02       		.byte	0x2
 1736 0941 E1050000 		.4byte	.LASF145
 1737 0945 03       		.uleb128 0x3
 1738 0946 D9070000 		.4byte	.LASF146
 1739 094a 14       		.byte	0x14
 1740 094b 34       		.byte	0x34
 1741 094c 50090000 		.4byte	0x950
 1742 0950 0A       		.uleb128 0xa
 1743 0951 04       		.byte	0x4
 1744 0952 56090000 		.4byte	0x956
 1745 0956 1A       		.uleb128 0x1a
 1746 0957 67030000 		.4byte	0x367
 1747 095b 65090000 		.4byte	0x965
 1748 095f 0D       		.uleb128 0xd
 1749 0960 2C000000 		.4byte	0x2c
 1750 0964 00       		.byte	0
 1751 0965 03       		.uleb128 0x3
 1752 0966 C7020000 		.4byte	.LASF147
 1753 096a 15       		.byte	0x15
 1754 096b 3C       		.byte	0x3c
 1755 096c 70090000 		.4byte	0x970
 1756 0970 06       		.uleb128 0x6
ARM GAS  /tmp/ccq8ydGr.s 			page 32


 1757 0971 A5080000 		.4byte	.LASF148
 1758 0975 20       		.byte	0x20
 1759 0976 15       		.byte	0x15
 1760 0977 4F       		.byte	0x4f
 1761 0978 A1090000 		.4byte	0x9a1
 1762 097c 07       		.uleb128 0x7
 1763 097d 21080000 		.4byte	.LASF149
 1764 0981 15       		.byte	0x15
 1765 0982 50       		.byte	0x50
 1766 0983 45090000 		.4byte	0x945
 1767 0987 00       		.byte	0
 1768 0988 07       		.uleb128 0x7
 1769 0989 C5000000 		.4byte	.LASF150
 1770 098d 15       		.byte	0x15
 1771 098e 52       		.byte	0x52
 1772 098f C0090000 		.4byte	0x9c0
 1773 0993 08       		.byte	0x8
 1774 0994 07       		.uleb128 0x7
 1775 0995 32010000 		.4byte	.LASF151
 1776 0999 15       		.byte	0x15
 1777 099a 54       		.byte	0x54
 1778 099b 2D090000 		.4byte	0x92d
 1779 099f 10       		.byte	0x10
 1780 09a0 00       		.byte	0
 1781 09a1 14       		.uleb128 0x14
 1782 09a2 04       		.byte	0x4
 1783 09a3 15       		.byte	0x15
 1784 09a4 44       		.byte	0x44
 1785 09a5 C0090000 		.4byte	0x9c0
 1786 09a9 1B       		.uleb128 0x1b
 1787 09aa 1C000000 		.4byte	.LASF152
 1788 09ae 15       		.byte	0x15
 1789 09af 45       		.byte	0x45
 1790 09b0 E1090000 		.4byte	0x9e1
 1791 09b4 1B       		.uleb128 0x1b
 1792 09b5 FC060000 		.4byte	.LASF153
 1793 09b9 15       		.byte	0x15
 1794 09ba 46       		.byte	0x46
 1795 09bb E7090000 		.4byte	0x9e7
 1796 09bf 00       		.byte	0
 1797 09c0 1C       		.uleb128 0x1c
 1798 09c1 FD050000 		.4byte	.LASF175
 1799 09c5 08       		.byte	0x8
 1800 09c6 15       		.byte	0x15
 1801 09c7 41       		.byte	0x41
 1802 09c8 E1090000 		.4byte	0x9e1
 1803 09cc 1B       		.uleb128 0x1b
 1804 09cd F5000000 		.4byte	.LASF154
 1805 09d1 15       		.byte	0x15
 1806 09d2 42       		.byte	0x42
 1807 09d3 ED040000 		.4byte	0x4ed
 1808 09d7 1D       		.uleb128 0x1d
 1809 09d8 6800     		.ascii	"h\000"
 1810 09da 15       		.byte	0x15
 1811 09db 49       		.byte	0x49
 1812 09dc ED090000 		.4byte	0x9ed
 1813 09e0 00       		.byte	0
ARM GAS  /tmp/ccq8ydGr.s 			page 33


 1814 09e1 0A       		.uleb128 0xa
 1815 09e2 04       		.byte	0x4
 1816 09e3 C0090000 		.4byte	0x9c0
 1817 09e7 0A       		.uleb128 0xa
 1818 09e8 04       		.byte	0x4
 1819 09e9 65090000 		.4byte	0x965
 1820 09ed 13       		.uleb128 0x13
 1821 09ee 08       		.byte	0x8
 1822 09ef 15       		.byte	0x15
 1823 09f0 43       		.byte	0x43
 1824 09f1 0C0A0000 		.4byte	0xa0c
 1825 09f5 12       		.uleb128 0x12
 1826 09f6 7500     		.ascii	"u\000"
 1827 09f8 15       		.byte	0x15
 1828 09f9 47       		.byte	0x47
 1829 09fa A1090000 		.4byte	0x9a1
 1830 09fe 00       		.byte	0
 1831 09ff 07       		.uleb128 0x7
 1832 0a00 55080000 		.4byte	.LASF155
 1833 0a04 15       		.byte	0x15
 1834 0a05 48       		.byte	0x48
 1835 0a06 2C000000 		.4byte	0x2c
 1836 0a0a 04       		.byte	0x4
 1837 0a0b 00       		.byte	0
 1838 0a0c 06       		.uleb128 0x6
 1839 0a0d F8070000 		.4byte	.LASF156
 1840 0a11 04       		.byte	0x4
 1841 0a12 16       		.byte	0x16
 1842 0a13 38       		.byte	0x38
 1843 0a14 250A0000 		.4byte	0xa25
 1844 0a18 07       		.uleb128 0x7
 1845 0a19 46080000 		.4byte	.LASF157
 1846 0a1d 16       		.byte	0x16
 1847 0a1e 39       		.byte	0x39
 1848 0a1f 250A0000 		.4byte	0xa25
 1849 0a23 00       		.byte	0
 1850 0a24 00       		.byte	0
 1851 0a25 0A       		.uleb128 0xa
 1852 0a26 04       		.byte	0x4
 1853 0a27 0C0A0000 		.4byte	0xa0c
 1854 0a2b 13       		.uleb128 0x13
 1855 0a2c 0C       		.byte	0xc
 1856 0a2d 16       		.byte	0x16
 1857 0a2e 40       		.byte	0x40
 1858 0a2f 580A0000 		.4byte	0xa58
 1859 0a33 07       		.uleb128 0x7
 1860 0a34 BB070000 		.4byte	.LASF158
 1861 0a38 16       		.byte	0x16
 1862 0a39 41       		.byte	0x41
 1863 0a3a 250A0000 		.4byte	0xa25
 1864 0a3e 00       		.byte	0
 1865 0a3f 07       		.uleb128 0x7
 1866 0a40 5E050000 		.4byte	.LASF159
 1867 0a44 16       		.byte	0x16
 1868 0a45 42       		.byte	0x42
 1869 0a46 2C000000 		.4byte	0x2c
 1870 0a4a 04       		.byte	0x4
ARM GAS  /tmp/ccq8ydGr.s 			page 34


 1871 0a4b 07       		.uleb128 0x7
 1872 0a4c 11030000 		.4byte	.LASF160
 1873 0a50 16       		.byte	0x16
 1874 0a51 44       		.byte	0x44
 1875 0a52 45090000 		.4byte	0x945
 1876 0a56 08       		.byte	0x8
 1877 0a57 00       		.byte	0
 1878 0a58 03       		.uleb128 0x3
 1879 0a59 18040000 		.4byte	.LASF161
 1880 0a5d 16       		.byte	0x16
 1881 0a5e 46       		.byte	0x46
 1882 0a5f 2B0A0000 		.4byte	0xa2b
 1883 0a63 1E       		.uleb128 0x1e
 1884 0a64 EF020000 		.4byte	.LASF163
 1885 0a68 04       		.byte	0x4
 1886 0a69 CE       		.byte	0xce
 1887 0a6a 8A020000 		.4byte	0x28a
 1888 0a6e 00000000 		.4byte	.LFB234
 1889 0a72 90000000 		.4byte	.LFE234-.LFB234
 1890 0a76 01       		.uleb128 0x1
 1891 0a77 9C       		.byte	0x9c
 1892 0a78 DD0A0000 		.4byte	0xadd
 1893 0a7c 1F       		.uleb128 0x1f
 1894 0a7d 6D7000   		.ascii	"mp\000"
 1895 0a80 04       		.byte	0x4
 1896 0a81 CE       		.byte	0xce
 1897 0a82 DD0A0000 		.4byte	0xadd
 1898 0a86 02       		.uleb128 0x2
 1899 0a87 91       		.byte	0x91
 1900 0a88 6C       		.sleb128 -20
 1901 0a89 20       		.uleb128 0x20
 1902 0a8a 7E050000 		.4byte	.LASF162
 1903 0a8e 04       		.byte	0x4
 1904 0a8f CE       		.byte	0xce
 1905 0a90 27010000 		.4byte	0x127
 1906 0a94 02       		.uleb128 0x2
 1907 0a95 91       		.byte	0x91
 1908 0a96 68       		.sleb128 -24
 1909 0a97 1F       		.uleb128 0x1f
 1910 0a98 706600   		.ascii	"pf\000"
 1911 0a9b 04       		.byte	0x4
 1912 0a9c CF       		.byte	0xcf
 1913 0a9d 16080000 		.4byte	0x816
 1914 0aa1 02       		.uleb128 0x2
 1915 0aa2 91       		.byte	0x91
 1916 0aa3 64       		.sleb128 -28
 1917 0aa4 1F       		.uleb128 0x1f
 1918 0aa5 61726700 		.ascii	"arg\000"
 1919 0aa9 04       		.byte	0x4
 1920 0aaa CF       		.byte	0xcf
 1921 0aab 67030000 		.4byte	0x367
 1922 0aaf 02       		.uleb128 0x2
 1923 0ab0 91       		.byte	0x91
 1924 0ab1 60       		.sleb128 -32
 1925 0ab2 21       		.uleb128 0x21
 1926 0ab3 77737000 		.ascii	"wsp\000"
 1927 0ab7 04       		.byte	0x4
ARM GAS  /tmp/ccq8ydGr.s 			page 35


 1928 0ab8 D0       		.byte	0xd0
 1929 0ab9 67030000 		.4byte	0x367
 1930 0abd 02       		.uleb128 0x2
 1931 0abe 91       		.byte	0x91
 1932 0abf 74       		.sleb128 -12
 1933 0ac0 21       		.uleb128 0x21
 1934 0ac1 747000   		.ascii	"tp\000"
 1935 0ac4 04       		.byte	0x4
 1936 0ac5 D1       		.byte	0xd1
 1937 0ac6 8A020000 		.4byte	0x28a
 1938 0aca 02       		.uleb128 0x2
 1939 0acb 91       		.byte	0x91
 1940 0acc 70       		.sleb128 -16
 1941 0acd 22       		.uleb128 0x22
 1942 0ace 59060000 		.4byte	.LASF167
 1943 0ad2 F30A0000 		.4byte	0xaf3
 1944 0ad6 05       		.uleb128 0x5
 1945 0ad7 03       		.byte	0x3
 1946 0ad8 00000000 		.4byte	__func__.7884
 1947 0adc 00       		.byte	0
 1948 0add 0A       		.uleb128 0xa
 1949 0ade 04       		.byte	0x4
 1950 0adf 580A0000 		.4byte	0xa58
 1951 0ae3 17       		.uleb128 0x17
 1952 0ae4 EA070000 		.4byte	0x7ea
 1953 0ae8 F30A0000 		.4byte	0xaf3
 1954 0aec 18       		.uleb128 0x18
 1955 0aed C4040000 		.4byte	0x4c4
 1956 0af1 19       		.byte	0x19
 1957 0af2 00       		.byte	0
 1958 0af3 16       		.uleb128 0x16
 1959 0af4 E30A0000 		.4byte	0xae3
 1960 0af8 1E       		.uleb128 0x1e
 1961 0af9 91010000 		.4byte	.LASF164
 1962 0afd 04       		.byte	0x4
 1963 0afe 9A       		.byte	0x9a
 1964 0aff 8A020000 		.4byte	0x28a
 1965 0b03 00000000 		.4byte	.LFB233
 1966 0b07 76000000 		.4byte	.LFE233-.LFB233
 1967 0b0b 01       		.uleb128 0x1
 1968 0b0c 9C       		.byte	0x9c
 1969 0b0d 720B0000 		.4byte	0xb72
 1970 0b11 20       		.uleb128 0x20
 1971 0b12 EF000000 		.4byte	.LASF165
 1972 0b16 04       		.byte	0x4
 1973 0b17 9A       		.byte	0x9a
 1974 0b18 E7090000 		.4byte	0x9e7
 1975 0b1c 02       		.uleb128 0x2
 1976 0b1d 91       		.byte	0x91
 1977 0b1e 6C       		.sleb128 -20
 1978 0b1f 20       		.uleb128 0x20
 1979 0b20 55080000 		.4byte	.LASF155
 1980 0b24 04       		.byte	0x4
 1981 0b25 9A       		.byte	0x9a
 1982 0b26 2C000000 		.4byte	0x2c
 1983 0b2a 02       		.uleb128 0x2
 1984 0b2b 91       		.byte	0x91
ARM GAS  /tmp/ccq8ydGr.s 			page 36


 1985 0b2c 68       		.sleb128 -24
 1986 0b2d 20       		.uleb128 0x20
 1987 0b2e 7E050000 		.4byte	.LASF162
 1988 0b32 04       		.byte	0x4
 1989 0b33 9B       		.byte	0x9b
 1990 0b34 27010000 		.4byte	0x127
 1991 0b38 02       		.uleb128 0x2
 1992 0b39 91       		.byte	0x91
 1993 0b3a 64       		.sleb128 -28
 1994 0b3b 1F       		.uleb128 0x1f
 1995 0b3c 706600   		.ascii	"pf\000"
 1996 0b3f 04       		.byte	0x4
 1997 0b40 9B       		.byte	0x9b
 1998 0b41 16080000 		.4byte	0x816
 1999 0b45 02       		.uleb128 0x2
 2000 0b46 91       		.byte	0x91
 2001 0b47 60       		.sleb128 -32
 2002 0b48 1F       		.uleb128 0x1f
 2003 0b49 61726700 		.ascii	"arg\000"
 2004 0b4d 04       		.byte	0x4
 2005 0b4e 9B       		.byte	0x9b
 2006 0b4f 67030000 		.4byte	0x367
 2007 0b53 02       		.uleb128 0x2
 2008 0b54 91       		.byte	0x91
 2009 0b55 00       		.sleb128 0
 2010 0b56 21       		.uleb128 0x21
 2011 0b57 77737000 		.ascii	"wsp\000"
 2012 0b5b 04       		.byte	0x4
 2013 0b5c 9C       		.byte	0x9c
 2014 0b5d 67030000 		.4byte	0x367
 2015 0b61 02       		.uleb128 0x2
 2016 0b62 91       		.byte	0x91
 2017 0b63 74       		.sleb128 -12
 2018 0b64 21       		.uleb128 0x21
 2019 0b65 747000   		.ascii	"tp\000"
 2020 0b68 04       		.byte	0x4
 2021 0b69 9D       		.byte	0x9d
 2022 0b6a 8A020000 		.4byte	0x28a
 2023 0b6e 02       		.uleb128 0x2
 2024 0b6f 91       		.byte	0x91
 2025 0b70 70       		.sleb128 -16
 2026 0b71 00       		.byte	0
 2027 0b72 23       		.uleb128 0x23
 2028 0b73 74060000 		.4byte	.LASF176
 2029 0b77 04       		.byte	0x4
 2030 0b78 5B       		.byte	0x5b
 2031 0b79 00000000 		.4byte	.LFB232
 2032 0b7d B0000000 		.4byte	.LFE232-.LFB232
 2033 0b81 01       		.uleb128 0x1
 2034 0b82 9C       		.byte	0x9c
 2035 0b83 B20B0000 		.4byte	0xbb2
 2036 0b87 1F       		.uleb128 0x1f
 2037 0b88 747000   		.ascii	"tp\000"
 2038 0b8b 04       		.byte	0x4
 2039 0b8c 5B       		.byte	0x5b
 2040 0b8d 8A020000 		.4byte	0x28a
 2041 0b91 02       		.uleb128 0x2
ARM GAS  /tmp/ccq8ydGr.s 			page 37


 2042 0b92 91       		.byte	0x91
 2043 0b93 6C       		.sleb128 -20
 2044 0b94 24       		.uleb128 0x24
 2045 0b95 B4050000 		.4byte	.LASF166
 2046 0b99 04       		.byte	0x4
 2047 0b9a 5C       		.byte	0x5c
 2048 0b9b 1C010000 		.4byte	0x11c
 2049 0b9f 02       		.uleb128 0x2
 2050 0ba0 91       		.byte	0x91
 2051 0ba1 77       		.sleb128 -9
 2052 0ba2 22       		.uleb128 0x22
 2053 0ba3 59060000 		.4byte	.LASF167
 2054 0ba7 C20B0000 		.4byte	0xbc2
 2055 0bab 05       		.uleb128 0x5
 2056 0bac 03       		.byte	0x3
 2057 0bad 00000000 		.4byte	__func__.7862
 2058 0bb1 00       		.byte	0
 2059 0bb2 17       		.uleb128 0x17
 2060 0bb3 EA070000 		.4byte	0x7ea
 2061 0bb7 C20B0000 		.4byte	0xbc2
 2062 0bbb 18       		.uleb128 0x18
 2063 0bbc C4040000 		.4byte	0x4c4
 2064 0bc0 0C       		.byte	0xc
 2065 0bc1 00       		.byte	0
 2066 0bc2 16       		.uleb128 0x16
 2067 0bc3 B20B0000 		.4byte	0xbb2
 2068 0bc7 1E       		.uleb128 0x1e
 2069 0bc8 C2040000 		.4byte	.LASF168
 2070 0bcc 04       		.byte	0x4
 2071 0bcd 44       		.byte	0x44
 2072 0bce 8A020000 		.4byte	0x28a
 2073 0bd2 00000000 		.4byte	.LFB231
 2074 0bd6 3C000000 		.4byte	.LFE231-.LFB231
 2075 0bda 01       		.uleb128 0x1
 2076 0bdb 9C       		.byte	0x9c
 2077 0bdc FD0B0000 		.4byte	0xbfd
 2078 0be0 1F       		.uleb128 0x1f
 2079 0be1 747000   		.ascii	"tp\000"
 2080 0be4 04       		.byte	0x4
 2081 0be5 44       		.byte	0x44
 2082 0be6 8A020000 		.4byte	0x28a
 2083 0bea 02       		.uleb128 0x2
 2084 0beb 91       		.byte	0x91
 2085 0bec 74       		.sleb128 -12
 2086 0bed 22       		.uleb128 0x22
 2087 0bee 59060000 		.4byte	.LASF167
 2088 0bf2 0D0C0000 		.4byte	0xc0d
 2089 0bf6 05       		.uleb128 0x5
 2090 0bf7 03       		.byte	0x3
 2091 0bf8 00000000 		.4byte	__func__.7857
 2092 0bfc 00       		.byte	0
 2093 0bfd 17       		.uleb128 0x17
 2094 0bfe EA070000 		.4byte	0x7ea
 2095 0c02 0D0C0000 		.4byte	0xc0d
 2096 0c06 18       		.uleb128 0x18
 2097 0c07 C4040000 		.4byte	0x4c4
 2098 0c0b 0B       		.byte	0xb
ARM GAS  /tmp/ccq8ydGr.s 			page 38


 2099 0c0c 00       		.byte	0
 2100 0c0d 16       		.uleb128 0x16
 2101 0c0e FD0B0000 		.4byte	0xbfd
 2102 0c12 25       		.uleb128 0x25
 2103 0c13 65080000 		.4byte	.LASF169
 2104 0c17 03       		.byte	0x3
 2105 0c18 6601     		.2byte	0x166
 2106 0c1a 00000000 		.4byte	.LFB157
 2107 0c1e 3C000000 		.4byte	.LFE157-.LFB157
 2108 0c22 01       		.uleb128 0x1
 2109 0c23 9C       		.byte	0x9c
 2110 0c24 380C0000 		.4byte	0xc38
 2111 0c28 22       		.uleb128 0x22
 2112 0c29 59060000 		.4byte	.LASF167
 2113 0c2d 0D0C0000 		.4byte	0xc0d
 2114 0c31 05       		.uleb128 0x5
 2115 0c32 03       		.byte	0x3
 2116 0c33 00000000 		.4byte	__func__.7157
 2117 0c37 00       		.byte	0
 2118 0c38 26       		.uleb128 0x26
 2119 0c39 6A060000 		.4byte	.LASF177
 2120 0c3d 03       		.byte	0x3
 2121 0c3e 5A01     		.2byte	0x15a
 2122 0c40 00000000 		.4byte	.LFB156
 2123 0c44 12000000 		.4byte	.LFE156-.LFB156
 2124 0c48 01       		.uleb128 0x1
 2125 0c49 9C       		.byte	0x9c
 2126 0c4a 27       		.uleb128 0x27
 2127 0c4b 6C010000 		.4byte	.LASF170
 2128 0c4f 01       		.byte	0x1
 2129 0c50 E001     		.2byte	0x1e0
 2130 0c52 00000000 		.4byte	.LFB128
 2131 0c56 12000000 		.4byte	.LFE128-.LFB128
 2132 0c5a 01       		.uleb128 0x1
 2133 0c5b 9C       		.byte	0x9c
 2134 0c5c 7A0C0000 		.4byte	0xc7a
 2135 0c60 28       		.uleb128 0x28
 2136 0c61 AA0C0000 		.4byte	0xcaa
 2137 0c65 06000000 		.4byte	.LBB8
 2138 0c69 06000000 		.4byte	.LBE8-.LBB8
 2139 0c6d 01       		.byte	0x1
 2140 0c6e E301     		.2byte	0x1e3
 2141 0c70 29       		.uleb128 0x29
 2142 0c71 B30C0000 		.4byte	0xcb3
 2143 0c75 02       		.uleb128 0x2
 2144 0c76 91       		.byte	0x91
 2145 0c77 7C       		.sleb128 -4
 2146 0c78 00       		.byte	0
 2147 0c79 00       		.byte	0
 2148 0c7a 27       		.uleb128 0x27
 2149 0c7b 74000000 		.4byte	.LASF171
 2150 0c7f 01       		.byte	0x1
 2151 0c80 C801     		.2byte	0x1c8
 2152 0c82 00000000 		.4byte	.LFB127
 2153 0c86 12000000 		.4byte	.LFE127-.LFB127
 2154 0c8a 01       		.uleb128 0x1
 2155 0c8b 9C       		.byte	0x9c
ARM GAS  /tmp/ccq8ydGr.s 			page 39


 2156 0c8c AA0C0000 		.4byte	0xcaa
 2157 0c90 28       		.uleb128 0x28
 2158 0c91 AA0C0000 		.4byte	0xcaa
 2159 0c95 06000000 		.4byte	.LBB6
 2160 0c99 06000000 		.4byte	.LBE6-.LBB6
 2161 0c9d 01       		.byte	0x1
 2162 0c9e D001     		.2byte	0x1d0
 2163 0ca0 29       		.uleb128 0x29
 2164 0ca1 B30C0000 		.4byte	0xcb3
 2165 0ca5 02       		.uleb128 0x2
 2166 0ca6 91       		.byte	0x91
 2167 0ca7 7C       		.sleb128 -4
 2168 0ca8 00       		.byte	0
 2169 0ca9 00       		.byte	0
 2170 0caa 2A       		.uleb128 0x2a
 2171 0cab 93070000 		.4byte	.LASF178
 2172 0caf 02       		.byte	0x2
 2173 0cb0 2202     		.2byte	0x222
 2174 0cb2 03       		.byte	0x3
 2175 0cb3 2B       		.uleb128 0x2b
 2176 0cb4 46030000 		.4byte	.LASF179
 2177 0cb8 02       		.byte	0x2
 2178 0cb9 2202     		.2byte	0x222
 2179 0cbb DA000000 		.4byte	0xda
 2180 0cbf 00       		.byte	0
 2181 0cc0 00       		.byte	0
 2182              		.section	.debug_abbrev,"",%progbits
 2183              	.Ldebug_abbrev0:
 2184 0000 01       		.uleb128 0x1
 2185 0001 11       		.uleb128 0x11
 2186 0002 01       		.byte	0x1
 2187 0003 25       		.uleb128 0x25
 2188 0004 0E       		.uleb128 0xe
 2189 0005 13       		.uleb128 0x13
 2190 0006 0B       		.uleb128 0xb
 2191 0007 03       		.uleb128 0x3
 2192 0008 0E       		.uleb128 0xe
 2193 0009 1B       		.uleb128 0x1b
 2194 000a 0E       		.uleb128 0xe
 2195 000b 55       		.uleb128 0x55
 2196 000c 17       		.uleb128 0x17
 2197 000d 11       		.uleb128 0x11
 2198 000e 01       		.uleb128 0x1
 2199 000f 10       		.uleb128 0x10
 2200 0010 17       		.uleb128 0x17
 2201 0011 00       		.byte	0
 2202 0012 00       		.byte	0
 2203 0013 02       		.uleb128 0x2
 2204 0014 24       		.uleb128 0x24
 2205 0015 00       		.byte	0
 2206 0016 0B       		.uleb128 0xb
 2207 0017 0B       		.uleb128 0xb
 2208 0018 3E       		.uleb128 0x3e
 2209 0019 0B       		.uleb128 0xb
 2210 001a 03       		.uleb128 0x3
 2211 001b 08       		.uleb128 0x8
 2212 001c 00       		.byte	0
ARM GAS  /tmp/ccq8ydGr.s 			page 40


 2213 001d 00       		.byte	0
 2214 001e 03       		.uleb128 0x3
 2215 001f 16       		.uleb128 0x16
 2216 0020 00       		.byte	0
 2217 0021 03       		.uleb128 0x3
 2218 0022 0E       		.uleb128 0xe
 2219 0023 3A       		.uleb128 0x3a
 2220 0024 0B       		.uleb128 0xb
 2221 0025 3B       		.uleb128 0x3b
 2222 0026 0B       		.uleb128 0xb
 2223 0027 49       		.uleb128 0x49
 2224 0028 13       		.uleb128 0x13
 2225 0029 00       		.byte	0
 2226 002a 00       		.byte	0
 2227 002b 04       		.uleb128 0x4
 2228 002c 24       		.uleb128 0x24
 2229 002d 00       		.byte	0
 2230 002e 0B       		.uleb128 0xb
 2231 002f 0B       		.uleb128 0xb
 2232 0030 3E       		.uleb128 0x3e
 2233 0031 0B       		.uleb128 0xb
 2234 0032 03       		.uleb128 0x3
 2235 0033 0E       		.uleb128 0xe
 2236 0034 00       		.byte	0
 2237 0035 00       		.byte	0
 2238 0036 05       		.uleb128 0x5
 2239 0037 35       		.uleb128 0x35
 2240 0038 00       		.byte	0
 2241 0039 49       		.uleb128 0x49
 2242 003a 13       		.uleb128 0x13
 2243 003b 00       		.byte	0
 2244 003c 00       		.byte	0
 2245 003d 06       		.uleb128 0x6
 2246 003e 13       		.uleb128 0x13
 2247 003f 01       		.byte	0x1
 2248 0040 03       		.uleb128 0x3
 2249 0041 0E       		.uleb128 0xe
 2250 0042 0B       		.uleb128 0xb
 2251 0043 0B       		.uleb128 0xb
 2252 0044 3A       		.uleb128 0x3a
 2253 0045 0B       		.uleb128 0xb
 2254 0046 3B       		.uleb128 0x3b
 2255 0047 0B       		.uleb128 0xb
 2256 0048 01       		.uleb128 0x1
 2257 0049 13       		.uleb128 0x13
 2258 004a 00       		.byte	0
 2259 004b 00       		.byte	0
 2260 004c 07       		.uleb128 0x7
 2261 004d 0D       		.uleb128 0xd
 2262 004e 00       		.byte	0
 2263 004f 03       		.uleb128 0x3
 2264 0050 0E       		.uleb128 0xe
 2265 0051 3A       		.uleb128 0x3a
 2266 0052 0B       		.uleb128 0xb
 2267 0053 3B       		.uleb128 0x3b
 2268 0054 0B       		.uleb128 0xb
 2269 0055 49       		.uleb128 0x49
ARM GAS  /tmp/ccq8ydGr.s 			page 41


 2270 0056 13       		.uleb128 0x13
 2271 0057 38       		.uleb128 0x38
 2272 0058 0B       		.uleb128 0xb
 2273 0059 00       		.byte	0
 2274 005a 00       		.byte	0
 2275 005b 08       		.uleb128 0x8
 2276 005c 0D       		.uleb128 0xd
 2277 005d 00       		.byte	0
 2278 005e 03       		.uleb128 0x3
 2279 005f 08       		.uleb128 0x8
 2280 0060 3A       		.uleb128 0x3a
 2281 0061 0B       		.uleb128 0xb
 2282 0062 3B       		.uleb128 0x3b
 2283 0063 05       		.uleb128 0x5
 2284 0064 49       		.uleb128 0x49
 2285 0065 13       		.uleb128 0x13
 2286 0066 38       		.uleb128 0x38
 2287 0067 0B       		.uleb128 0xb
 2288 0068 00       		.byte	0
 2289 0069 00       		.byte	0
 2290 006a 09       		.uleb128 0x9
 2291 006b 0D       		.uleb128 0xd
 2292 006c 00       		.byte	0
 2293 006d 03       		.uleb128 0x3
 2294 006e 0E       		.uleb128 0xe
 2295 006f 3A       		.uleb128 0x3a
 2296 0070 0B       		.uleb128 0xb
 2297 0071 3B       		.uleb128 0x3b
 2298 0072 05       		.uleb128 0x5
 2299 0073 49       		.uleb128 0x49
 2300 0074 13       		.uleb128 0x13
 2301 0075 38       		.uleb128 0x38
 2302 0076 0B       		.uleb128 0xb
 2303 0077 00       		.byte	0
 2304 0078 00       		.byte	0
 2305 0079 0A       		.uleb128 0xa
 2306 007a 0F       		.uleb128 0xf
 2307 007b 00       		.byte	0
 2308 007c 0B       		.uleb128 0xb
 2309 007d 0B       		.uleb128 0xb
 2310 007e 49       		.uleb128 0x49
 2311 007f 13       		.uleb128 0x13
 2312 0080 00       		.byte	0
 2313 0081 00       		.byte	0
 2314 0082 0B       		.uleb128 0xb
 2315 0083 13       		.uleb128 0x13
 2316 0084 01       		.byte	0x1
 2317 0085 03       		.uleb128 0x3
 2318 0086 0E       		.uleb128 0xe
 2319 0087 0B       		.uleb128 0xb
 2320 0088 0B       		.uleb128 0xb
 2321 0089 3A       		.uleb128 0x3a
 2322 008a 0B       		.uleb128 0xb
 2323 008b 3B       		.uleb128 0x3b
 2324 008c 05       		.uleb128 0x5
 2325 008d 01       		.uleb128 0x1
 2326 008e 13       		.uleb128 0x13
ARM GAS  /tmp/ccq8ydGr.s 			page 42


 2327 008f 00       		.byte	0
 2328 0090 00       		.byte	0
 2329 0091 0C       		.uleb128 0xc
 2330 0092 15       		.uleb128 0x15
 2331 0093 01       		.byte	0x1
 2332 0094 27       		.uleb128 0x27
 2333 0095 19       		.uleb128 0x19
 2334 0096 01       		.uleb128 0x1
 2335 0097 13       		.uleb128 0x13
 2336 0098 00       		.byte	0
 2337 0099 00       		.byte	0
 2338 009a 0D       		.uleb128 0xd
 2339 009b 05       		.uleb128 0x5
 2340 009c 00       		.byte	0
 2341 009d 49       		.uleb128 0x49
 2342 009e 13       		.uleb128 0x13
 2343 009f 00       		.byte	0
 2344 00a0 00       		.byte	0
 2345 00a1 0E       		.uleb128 0xe
 2346 00a2 0F       		.uleb128 0xf
 2347 00a3 00       		.byte	0
 2348 00a4 0B       		.uleb128 0xb
 2349 00a5 0B       		.uleb128 0xb
 2350 00a6 00       		.byte	0
 2351 00a7 00       		.byte	0
 2352 00a8 0F       		.uleb128 0xf
 2353 00a9 13       		.uleb128 0x13
 2354 00aa 01       		.byte	0x1
 2355 00ab 03       		.uleb128 0x3
 2356 00ac 0E       		.uleb128 0xe
 2357 00ad 0B       		.uleb128 0xb
 2358 00ae 05       		.uleb128 0x5
 2359 00af 3A       		.uleb128 0x3a
 2360 00b0 0B       		.uleb128 0xb
 2361 00b1 3B       		.uleb128 0x3b
 2362 00b2 05       		.uleb128 0x5
 2363 00b3 01       		.uleb128 0x1
 2364 00b4 13       		.uleb128 0x13
 2365 00b5 00       		.byte	0
 2366 00b6 00       		.byte	0
 2367 00b7 10       		.uleb128 0x10
 2368 00b8 34       		.uleb128 0x34
 2369 00b9 00       		.byte	0
 2370 00ba 03       		.uleb128 0x3
 2371 00bb 0E       		.uleb128 0xe
 2372 00bc 3A       		.uleb128 0x3a
 2373 00bd 0B       		.uleb128 0xb
 2374 00be 3B       		.uleb128 0x3b
 2375 00bf 05       		.uleb128 0x5
 2376 00c0 49       		.uleb128 0x49
 2377 00c1 13       		.uleb128 0x13
 2378 00c2 3F       		.uleb128 0x3f
 2379 00c3 19       		.uleb128 0x19
 2380 00c4 3C       		.uleb128 0x3c
 2381 00c5 19       		.uleb128 0x19
 2382 00c6 00       		.byte	0
 2383 00c7 00       		.byte	0
ARM GAS  /tmp/ccq8ydGr.s 			page 43


 2384 00c8 11       		.uleb128 0x11
 2385 00c9 34       		.uleb128 0x34
 2386 00ca 00       		.byte	0
 2387 00cb 03       		.uleb128 0x3
 2388 00cc 0E       		.uleb128 0xe
 2389 00cd 3A       		.uleb128 0x3a
 2390 00ce 0B       		.uleb128 0xb
 2391 00cf 3B       		.uleb128 0x3b
 2392 00d0 0B       		.uleb128 0xb
 2393 00d1 49       		.uleb128 0x49
 2394 00d2 13       		.uleb128 0x13
 2395 00d3 3F       		.uleb128 0x3f
 2396 00d4 19       		.uleb128 0x19
 2397 00d5 3C       		.uleb128 0x3c
 2398 00d6 19       		.uleb128 0x19
 2399 00d7 00       		.byte	0
 2400 00d8 00       		.byte	0
 2401 00d9 12       		.uleb128 0x12
 2402 00da 0D       		.uleb128 0xd
 2403 00db 00       		.byte	0
 2404 00dc 03       		.uleb128 0x3
 2405 00dd 08       		.uleb128 0x8
 2406 00de 3A       		.uleb128 0x3a
 2407 00df 0B       		.uleb128 0xb
 2408 00e0 3B       		.uleb128 0x3b
 2409 00e1 0B       		.uleb128 0xb
 2410 00e2 49       		.uleb128 0x49
 2411 00e3 13       		.uleb128 0x13
 2412 00e4 38       		.uleb128 0x38
 2413 00e5 0B       		.uleb128 0xb
 2414 00e6 00       		.byte	0
 2415 00e7 00       		.byte	0
 2416 00e8 13       		.uleb128 0x13
 2417 00e9 13       		.uleb128 0x13
 2418 00ea 01       		.byte	0x1
 2419 00eb 0B       		.uleb128 0xb
 2420 00ec 0B       		.uleb128 0xb
 2421 00ed 3A       		.uleb128 0x3a
 2422 00ee 0B       		.uleb128 0xb
 2423 00ef 3B       		.uleb128 0x3b
 2424 00f0 0B       		.uleb128 0xb
 2425 00f1 01       		.uleb128 0x1
 2426 00f2 13       		.uleb128 0x13
 2427 00f3 00       		.byte	0
 2428 00f4 00       		.byte	0
 2429 00f5 14       		.uleb128 0x14
 2430 00f6 17       		.uleb128 0x17
 2431 00f7 01       		.byte	0x1
 2432 00f8 0B       		.uleb128 0xb
 2433 00f9 0B       		.uleb128 0xb
 2434 00fa 3A       		.uleb128 0x3a
 2435 00fb 0B       		.uleb128 0xb
 2436 00fc 3B       		.uleb128 0x3b
 2437 00fd 0B       		.uleb128 0xb
 2438 00fe 01       		.uleb128 0x1
 2439 00ff 13       		.uleb128 0x13
 2440 0100 00       		.byte	0
ARM GAS  /tmp/ccq8ydGr.s 			page 44


 2441 0101 00       		.byte	0
 2442 0102 15       		.uleb128 0x15
 2443 0103 0D       		.uleb128 0xd
 2444 0104 00       		.byte	0
 2445 0105 03       		.uleb128 0x3
 2446 0106 0E       		.uleb128 0xe
 2447 0107 3A       		.uleb128 0x3a
 2448 0108 0B       		.uleb128 0xb
 2449 0109 3B       		.uleb128 0x3b
 2450 010a 05       		.uleb128 0x5
 2451 010b 49       		.uleb128 0x49
 2452 010c 13       		.uleb128 0x13
 2453 010d 00       		.byte	0
 2454 010e 00       		.byte	0
 2455 010f 16       		.uleb128 0x16
 2456 0110 26       		.uleb128 0x26
 2457 0111 00       		.byte	0
 2458 0112 49       		.uleb128 0x49
 2459 0113 13       		.uleb128 0x13
 2460 0114 00       		.byte	0
 2461 0115 00       		.byte	0
 2462 0116 17       		.uleb128 0x17
 2463 0117 01       		.uleb128 0x1
 2464 0118 01       		.byte	0x1
 2465 0119 49       		.uleb128 0x49
 2466 011a 13       		.uleb128 0x13
 2467 011b 01       		.uleb128 0x1
 2468 011c 13       		.uleb128 0x13
 2469 011d 00       		.byte	0
 2470 011e 00       		.byte	0
 2471 011f 18       		.uleb128 0x18
 2472 0120 21       		.uleb128 0x21
 2473 0121 00       		.byte	0
 2474 0122 49       		.uleb128 0x49
 2475 0123 13       		.uleb128 0x13
 2476 0124 2F       		.uleb128 0x2f
 2477 0125 0B       		.uleb128 0xb
 2478 0126 00       		.byte	0
 2479 0127 00       		.byte	0
 2480 0128 19       		.uleb128 0x19
 2481 0129 34       		.uleb128 0x34
 2482 012a 00       		.byte	0
 2483 012b 03       		.uleb128 0x3
 2484 012c 08       		.uleb128 0x8
 2485 012d 3A       		.uleb128 0x3a
 2486 012e 0B       		.uleb128 0xb
 2487 012f 3B       		.uleb128 0x3b
 2488 0130 05       		.uleb128 0x5
 2489 0131 49       		.uleb128 0x49
 2490 0132 13       		.uleb128 0x13
 2491 0133 3F       		.uleb128 0x3f
 2492 0134 19       		.uleb128 0x19
 2493 0135 3C       		.uleb128 0x3c
 2494 0136 19       		.uleb128 0x19
 2495 0137 00       		.byte	0
 2496 0138 00       		.byte	0
 2497 0139 1A       		.uleb128 0x1a
ARM GAS  /tmp/ccq8ydGr.s 			page 45


 2498 013a 15       		.uleb128 0x15
 2499 013b 01       		.byte	0x1
 2500 013c 27       		.uleb128 0x27
 2501 013d 19       		.uleb128 0x19
 2502 013e 49       		.uleb128 0x49
 2503 013f 13       		.uleb128 0x13
 2504 0140 01       		.uleb128 0x1
 2505 0141 13       		.uleb128 0x13
 2506 0142 00       		.byte	0
 2507 0143 00       		.byte	0
 2508 0144 1B       		.uleb128 0x1b
 2509 0145 0D       		.uleb128 0xd
 2510 0146 00       		.byte	0
 2511 0147 03       		.uleb128 0x3
 2512 0148 0E       		.uleb128 0xe
 2513 0149 3A       		.uleb128 0x3a
 2514 014a 0B       		.uleb128 0xb
 2515 014b 3B       		.uleb128 0x3b
 2516 014c 0B       		.uleb128 0xb
 2517 014d 49       		.uleb128 0x49
 2518 014e 13       		.uleb128 0x13
 2519 014f 00       		.byte	0
 2520 0150 00       		.byte	0
 2521 0151 1C       		.uleb128 0x1c
 2522 0152 17       		.uleb128 0x17
 2523 0153 01       		.byte	0x1
 2524 0154 03       		.uleb128 0x3
 2525 0155 0E       		.uleb128 0xe
 2526 0156 0B       		.uleb128 0xb
 2527 0157 0B       		.uleb128 0xb
 2528 0158 3A       		.uleb128 0x3a
 2529 0159 0B       		.uleb128 0xb
 2530 015a 3B       		.uleb128 0x3b
 2531 015b 0B       		.uleb128 0xb
 2532 015c 01       		.uleb128 0x1
 2533 015d 13       		.uleb128 0x13
 2534 015e 00       		.byte	0
 2535 015f 00       		.byte	0
 2536 0160 1D       		.uleb128 0x1d
 2537 0161 0D       		.uleb128 0xd
 2538 0162 00       		.byte	0
 2539 0163 03       		.uleb128 0x3
 2540 0164 08       		.uleb128 0x8
 2541 0165 3A       		.uleb128 0x3a
 2542 0166 0B       		.uleb128 0xb
 2543 0167 3B       		.uleb128 0x3b
 2544 0168 0B       		.uleb128 0xb
 2545 0169 49       		.uleb128 0x49
 2546 016a 13       		.uleb128 0x13
 2547 016b 00       		.byte	0
 2548 016c 00       		.byte	0
 2549 016d 1E       		.uleb128 0x1e
 2550 016e 2E       		.uleb128 0x2e
 2551 016f 01       		.byte	0x1
 2552 0170 3F       		.uleb128 0x3f
 2553 0171 19       		.uleb128 0x19
 2554 0172 03       		.uleb128 0x3
ARM GAS  /tmp/ccq8ydGr.s 			page 46


 2555 0173 0E       		.uleb128 0xe
 2556 0174 3A       		.uleb128 0x3a
 2557 0175 0B       		.uleb128 0xb
 2558 0176 3B       		.uleb128 0x3b
 2559 0177 0B       		.uleb128 0xb
 2560 0178 27       		.uleb128 0x27
 2561 0179 19       		.uleb128 0x19
 2562 017a 49       		.uleb128 0x49
 2563 017b 13       		.uleb128 0x13
 2564 017c 11       		.uleb128 0x11
 2565 017d 01       		.uleb128 0x1
 2566 017e 12       		.uleb128 0x12
 2567 017f 06       		.uleb128 0x6
 2568 0180 40       		.uleb128 0x40
 2569 0181 18       		.uleb128 0x18
 2570 0182 9642     		.uleb128 0x2116
 2571 0184 19       		.uleb128 0x19
 2572 0185 01       		.uleb128 0x1
 2573 0186 13       		.uleb128 0x13
 2574 0187 00       		.byte	0
 2575 0188 00       		.byte	0
 2576 0189 1F       		.uleb128 0x1f
 2577 018a 05       		.uleb128 0x5
 2578 018b 00       		.byte	0
 2579 018c 03       		.uleb128 0x3
 2580 018d 08       		.uleb128 0x8
 2581 018e 3A       		.uleb128 0x3a
 2582 018f 0B       		.uleb128 0xb
 2583 0190 3B       		.uleb128 0x3b
 2584 0191 0B       		.uleb128 0xb
 2585 0192 49       		.uleb128 0x49
 2586 0193 13       		.uleb128 0x13
 2587 0194 02       		.uleb128 0x2
 2588 0195 18       		.uleb128 0x18
 2589 0196 00       		.byte	0
 2590 0197 00       		.byte	0
 2591 0198 20       		.uleb128 0x20
 2592 0199 05       		.uleb128 0x5
 2593 019a 00       		.byte	0
 2594 019b 03       		.uleb128 0x3
 2595 019c 0E       		.uleb128 0xe
 2596 019d 3A       		.uleb128 0x3a
 2597 019e 0B       		.uleb128 0xb
 2598 019f 3B       		.uleb128 0x3b
 2599 01a0 0B       		.uleb128 0xb
 2600 01a1 49       		.uleb128 0x49
 2601 01a2 13       		.uleb128 0x13
 2602 01a3 02       		.uleb128 0x2
 2603 01a4 18       		.uleb128 0x18
 2604 01a5 00       		.byte	0
 2605 01a6 00       		.byte	0
 2606 01a7 21       		.uleb128 0x21
 2607 01a8 34       		.uleb128 0x34
 2608 01a9 00       		.byte	0
 2609 01aa 03       		.uleb128 0x3
 2610 01ab 08       		.uleb128 0x8
 2611 01ac 3A       		.uleb128 0x3a
ARM GAS  /tmp/ccq8ydGr.s 			page 47


 2612 01ad 0B       		.uleb128 0xb
 2613 01ae 3B       		.uleb128 0x3b
 2614 01af 0B       		.uleb128 0xb
 2615 01b0 49       		.uleb128 0x49
 2616 01b1 13       		.uleb128 0x13
 2617 01b2 02       		.uleb128 0x2
 2618 01b3 18       		.uleb128 0x18
 2619 01b4 00       		.byte	0
 2620 01b5 00       		.byte	0
 2621 01b6 22       		.uleb128 0x22
 2622 01b7 34       		.uleb128 0x34
 2623 01b8 00       		.byte	0
 2624 01b9 03       		.uleb128 0x3
 2625 01ba 0E       		.uleb128 0xe
 2626 01bb 49       		.uleb128 0x49
 2627 01bc 13       		.uleb128 0x13
 2628 01bd 34       		.uleb128 0x34
 2629 01be 19       		.uleb128 0x19
 2630 01bf 02       		.uleb128 0x2
 2631 01c0 18       		.uleb128 0x18
 2632 01c1 00       		.byte	0
 2633 01c2 00       		.byte	0
 2634 01c3 23       		.uleb128 0x23
 2635 01c4 2E       		.uleb128 0x2e
 2636 01c5 01       		.byte	0x1
 2637 01c6 3F       		.uleb128 0x3f
 2638 01c7 19       		.uleb128 0x19
 2639 01c8 03       		.uleb128 0x3
 2640 01c9 0E       		.uleb128 0xe
 2641 01ca 3A       		.uleb128 0x3a
 2642 01cb 0B       		.uleb128 0xb
 2643 01cc 3B       		.uleb128 0x3b
 2644 01cd 0B       		.uleb128 0xb
 2645 01ce 27       		.uleb128 0x27
 2646 01cf 19       		.uleb128 0x19
 2647 01d0 11       		.uleb128 0x11
 2648 01d1 01       		.uleb128 0x1
 2649 01d2 12       		.uleb128 0x12
 2650 01d3 06       		.uleb128 0x6
 2651 01d4 40       		.uleb128 0x40
 2652 01d5 18       		.uleb128 0x18
 2653 01d6 9642     		.uleb128 0x2116
 2654 01d8 19       		.uleb128 0x19
 2655 01d9 01       		.uleb128 0x1
 2656 01da 13       		.uleb128 0x13
 2657 01db 00       		.byte	0
 2658 01dc 00       		.byte	0
 2659 01dd 24       		.uleb128 0x24
 2660 01de 34       		.uleb128 0x34
 2661 01df 00       		.byte	0
 2662 01e0 03       		.uleb128 0x3
 2663 01e1 0E       		.uleb128 0xe
 2664 01e2 3A       		.uleb128 0x3a
 2665 01e3 0B       		.uleb128 0xb
 2666 01e4 3B       		.uleb128 0x3b
 2667 01e5 0B       		.uleb128 0xb
 2668 01e6 49       		.uleb128 0x49
ARM GAS  /tmp/ccq8ydGr.s 			page 48


 2669 01e7 13       		.uleb128 0x13
 2670 01e8 02       		.uleb128 0x2
 2671 01e9 18       		.uleb128 0x18
 2672 01ea 00       		.byte	0
 2673 01eb 00       		.byte	0
 2674 01ec 25       		.uleb128 0x25
 2675 01ed 2E       		.uleb128 0x2e
 2676 01ee 01       		.byte	0x1
 2677 01ef 03       		.uleb128 0x3
 2678 01f0 0E       		.uleb128 0xe
 2679 01f1 3A       		.uleb128 0x3a
 2680 01f2 0B       		.uleb128 0xb
 2681 01f3 3B       		.uleb128 0x3b
 2682 01f4 05       		.uleb128 0x5
 2683 01f5 27       		.uleb128 0x27
 2684 01f6 19       		.uleb128 0x19
 2685 01f7 11       		.uleb128 0x11
 2686 01f8 01       		.uleb128 0x1
 2687 01f9 12       		.uleb128 0x12
 2688 01fa 06       		.uleb128 0x6
 2689 01fb 40       		.uleb128 0x40
 2690 01fc 18       		.uleb128 0x18
 2691 01fd 9642     		.uleb128 0x2116
 2692 01ff 19       		.uleb128 0x19
 2693 0200 01       		.uleb128 0x1
 2694 0201 13       		.uleb128 0x13
 2695 0202 00       		.byte	0
 2696 0203 00       		.byte	0
 2697 0204 26       		.uleb128 0x26
 2698 0205 2E       		.uleb128 0x2e
 2699 0206 00       		.byte	0
 2700 0207 03       		.uleb128 0x3
 2701 0208 0E       		.uleb128 0xe
 2702 0209 3A       		.uleb128 0x3a
 2703 020a 0B       		.uleb128 0xb
 2704 020b 3B       		.uleb128 0x3b
 2705 020c 05       		.uleb128 0x5
 2706 020d 27       		.uleb128 0x27
 2707 020e 19       		.uleb128 0x19
 2708 020f 11       		.uleb128 0x11
 2709 0210 01       		.uleb128 0x1
 2710 0211 12       		.uleb128 0x12
 2711 0212 06       		.uleb128 0x6
 2712 0213 40       		.uleb128 0x40
 2713 0214 18       		.uleb128 0x18
 2714 0215 9642     		.uleb128 0x2116
 2715 0217 19       		.uleb128 0x19
 2716 0218 00       		.byte	0
 2717 0219 00       		.byte	0
 2718 021a 27       		.uleb128 0x27
 2719 021b 2E       		.uleb128 0x2e
 2720 021c 01       		.byte	0x1
 2721 021d 03       		.uleb128 0x3
 2722 021e 0E       		.uleb128 0xe
 2723 021f 3A       		.uleb128 0x3a
 2724 0220 0B       		.uleb128 0xb
 2725 0221 3B       		.uleb128 0x3b
ARM GAS  /tmp/ccq8ydGr.s 			page 49


 2726 0222 05       		.uleb128 0x5
 2727 0223 27       		.uleb128 0x27
 2728 0224 19       		.uleb128 0x19
 2729 0225 11       		.uleb128 0x11
 2730 0226 01       		.uleb128 0x1
 2731 0227 12       		.uleb128 0x12
 2732 0228 06       		.uleb128 0x6
 2733 0229 40       		.uleb128 0x40
 2734 022a 18       		.uleb128 0x18
 2735 022b 9742     		.uleb128 0x2117
 2736 022d 19       		.uleb128 0x19
 2737 022e 01       		.uleb128 0x1
 2738 022f 13       		.uleb128 0x13
 2739 0230 00       		.byte	0
 2740 0231 00       		.byte	0
 2741 0232 28       		.uleb128 0x28
 2742 0233 1D       		.uleb128 0x1d
 2743 0234 01       		.byte	0x1
 2744 0235 31       		.uleb128 0x31
 2745 0236 13       		.uleb128 0x13
 2746 0237 11       		.uleb128 0x11
 2747 0238 01       		.uleb128 0x1
 2748 0239 12       		.uleb128 0x12
 2749 023a 06       		.uleb128 0x6
 2750 023b 58       		.uleb128 0x58
 2751 023c 0B       		.uleb128 0xb
 2752 023d 59       		.uleb128 0x59
 2753 023e 05       		.uleb128 0x5
 2754 023f 00       		.byte	0
 2755 0240 00       		.byte	0
 2756 0241 29       		.uleb128 0x29
 2757 0242 05       		.uleb128 0x5
 2758 0243 00       		.byte	0
 2759 0244 31       		.uleb128 0x31
 2760 0245 13       		.uleb128 0x13
 2761 0246 02       		.uleb128 0x2
 2762 0247 18       		.uleb128 0x18
 2763 0248 00       		.byte	0
 2764 0249 00       		.byte	0
 2765 024a 2A       		.uleb128 0x2a
 2766 024b 2E       		.uleb128 0x2e
 2767 024c 01       		.byte	0x1
 2768 024d 03       		.uleb128 0x3
 2769 024e 0E       		.uleb128 0xe
 2770 024f 3A       		.uleb128 0x3a
 2771 0250 0B       		.uleb128 0xb
 2772 0251 3B       		.uleb128 0x3b
 2773 0252 05       		.uleb128 0x5
 2774 0253 27       		.uleb128 0x27
 2775 0254 19       		.uleb128 0x19
 2776 0255 20       		.uleb128 0x20
 2777 0256 0B       		.uleb128 0xb
 2778 0257 00       		.byte	0
 2779 0258 00       		.byte	0
 2780 0259 2B       		.uleb128 0x2b
 2781 025a 05       		.uleb128 0x5
 2782 025b 00       		.byte	0
ARM GAS  /tmp/ccq8ydGr.s 			page 50


 2783 025c 03       		.uleb128 0x3
 2784 025d 0E       		.uleb128 0xe
 2785 025e 3A       		.uleb128 0x3a
 2786 025f 0B       		.uleb128 0xb
 2787 0260 3B       		.uleb128 0x3b
 2788 0261 05       		.uleb128 0x5
 2789 0262 49       		.uleb128 0x49
 2790 0263 13       		.uleb128 0x13
 2791 0264 00       		.byte	0
 2792 0265 00       		.byte	0
 2793 0266 00       		.byte	0
 2794              		.section	.debug_aranges,"",%progbits
 2795 0000 54000000 		.4byte	0x54
 2796 0004 0200     		.2byte	0x2
 2797 0006 00000000 		.4byte	.Ldebug_info0
 2798 000a 04       		.byte	0x4
 2799 000b 00       		.byte	0
 2800 000c 0000     		.2byte	0
 2801 000e 0000     		.2byte	0
 2802 0010 00000000 		.4byte	.LFB127
 2803 0014 12000000 		.4byte	.LFE127-.LFB127
 2804 0018 00000000 		.4byte	.LFB128
 2805 001c 12000000 		.4byte	.LFE128-.LFB128
 2806 0020 00000000 		.4byte	.LFB156
 2807 0024 12000000 		.4byte	.LFE156-.LFB156
 2808 0028 00000000 		.4byte	.LFB157
 2809 002c 3C000000 		.4byte	.LFE157-.LFB157
 2810 0030 00000000 		.4byte	.LFB231
 2811 0034 3C000000 		.4byte	.LFE231-.LFB231
 2812 0038 00000000 		.4byte	.LFB232
 2813 003c B0000000 		.4byte	.LFE232-.LFB232
 2814 0040 00000000 		.4byte	.LFB233
 2815 0044 76000000 		.4byte	.LFE233-.LFB233
 2816 0048 00000000 		.4byte	.LFB234
 2817 004c 90000000 		.4byte	.LFE234-.LFB234
 2818 0050 00000000 		.4byte	0
 2819 0054 00000000 		.4byte	0
 2820              		.section	.debug_ranges,"",%progbits
 2821              	.Ldebug_ranges0:
 2822 0000 00000000 		.4byte	.LFB127
 2823 0004 12000000 		.4byte	.LFE127
 2824 0008 00000000 		.4byte	.LFB128
 2825 000c 12000000 		.4byte	.LFE128
 2826 0010 00000000 		.4byte	.LFB156
 2827 0014 12000000 		.4byte	.LFE156
 2828 0018 00000000 		.4byte	.LFB157
 2829 001c 3C000000 		.4byte	.LFE157
 2830 0020 00000000 		.4byte	.LFB231
 2831 0024 3C000000 		.4byte	.LFE231
 2832 0028 00000000 		.4byte	.LFB232
 2833 002c B0000000 		.4byte	.LFE232
 2834 0030 00000000 		.4byte	.LFB233
 2835 0034 76000000 		.4byte	.LFE233
 2836 0038 00000000 		.4byte	.LFB234
 2837 003c 90000000 		.4byte	.LFE234
 2838 0040 00000000 		.4byte	0
 2839 0044 00000000 		.4byte	0
ARM GAS  /tmp/ccq8ydGr.s 			page 51


 2840              		.section	.debug_line,"",%progbits
 2841              	.Ldebug_line0:
 2842 0000 84030000 		.section	.debug_str,"MS",%progbits,1
 2842      02007302 
 2842      00000201 
 2842      FB0E0D00 
 2842      01010101 
 2843              	.LASF123:
 2844 0000 7466756E 		.ascii	"tfunc_t\000"
 2844      635F7400 
 2845              	.LASF58:
 2846 0008 72656164 		.ascii	"ready_list_t\000"
 2846      795F6C69 
 2846      73745F74 
 2846      00
 2847              	.LASF4:
 2848 0015 73697A65 		.ascii	"size_t\000"
 2848      5F7400
 2849              	.LASF152:
 2850 001c 6E657874 		.ascii	"next\000"
 2850      00
 2851              	.LASF108:
 2852 0021 7264796D 		.ascii	"rdymsg\000"
 2852      736700
 2853              	.LASF20:
 2854 0028 75696E74 		.ascii	"uint64_t\000"
 2854      36345F74 
 2854      00
 2855              	.LASF87:
 2856 0031 6B65726E 		.ascii	"kernel_stats\000"
 2856      656C5F73 
 2856      74617473 
 2856      00
 2857              	.LASF5:
 2858 003e 5F5F7569 		.ascii	"__uint8_t\000"
 2858      6E74385F 
 2858      7400
 2859              	.LASF95:
 2860 0048 706F7274 		.ascii	"port_intctx\000"
 2860      5F696E74 
 2860      63747800 
 2861              	.LASF57:
 2862 0054 63685F74 		.ascii	"ch_threads_queue\000"
 2862      68726561 
 2862      64735F71 
 2862      75657565 
 2862      00
 2863              	.LASF77:
 2864 0065 73797374 		.ascii	"system_debug_t\000"
 2864      656D5F64 
 2864      65627567 
 2864      5F7400
 2865              	.LASF171:
 2866 0074 706F7274 		.ascii	"port_lock\000"
 2866      5F6C6F63 
 2866      6B00
 2867              	.LASF99:
ARM GAS  /tmp/ccq8ydGr.s 			page 52


 2868 007e 776F7273 		.ascii	"worst\000"
 2868      7400
 2869              	.LASF102:
 2870 0084 74696D65 		.ascii	"time_measurement_t\000"
 2870      5F6D6561 
 2870      73757265 
 2870      6D656E74 
 2870      5F7400
 2871              	.LASF15:
 2872 0097 6C6F6E67 		.ascii	"long long unsigned int\000"
 2872      206C6F6E 
 2872      6720756E 
 2872      7369676E 
 2872      65642069 
 2873              	.LASF130:
 2874 00ae 63685F74 		.ascii	"ch_threadsize\000"
 2874      68726561 
 2874      6473697A 
 2874      6500
 2875              	.LASF109:
 2876 00bc 65786974 		.ascii	"exitcode\000"
 2876      636F6465 
 2876      00
 2877              	.LASF150:
 2878 00c5 685F6672 		.ascii	"h_free\000"
 2878      656500
 2879              	.LASF74:
 2880 00cc 76697274 		.ascii	"virtual_timers_list_t\000"
 2880      75616C5F 
 2880      74696D65 
 2880      72735F6C 
 2880      6973745F 
 2881              	.LASF90:
 2882 00e2 49544D5F 		.ascii	"ITM_RxBuffer\000"
 2882      52784275 
 2882      66666572 
 2882      00
 2883              	.LASF165:
 2884 00ef 68656170 		.ascii	"heapp\000"
 2884      7000
 2885              	.LASF154:
 2886 00f5 616C6967 		.ascii	"align\000"
 2886      6E00
 2887              	.LASF22:
 2888 00fb 72747469 		.ascii	"rttime_t\000"
 2888      6D655F74 
 2888      00
 2889              	.LASF35:
 2890 0104 705F7072 		.ascii	"p_prio\000"
 2890      696F00
 2891              	.LASF137:
 2892 010b 63665F6F 		.ascii	"cf_off_state\000"
 2892      66665F73 
 2892      74617465 
 2892      00
 2893              	.LASF1:
 2894 0118 6C6F6E67 		.ascii	"long long int\000"
ARM GAS  /tmp/ccq8ydGr.s 			page 53


 2894      206C6F6E 
 2894      6720696E 
 2894      7400
 2895              	.LASF3:
 2896 0126 7369676E 		.ascii	"signed char\000"
 2896      65642063 
 2896      68617200 
 2897              	.LASF151:
 2898 0132 685F6D74 		.ascii	"h_mtx\000"
 2898      7800
 2899              	.LASF136:
 2900 0138 63665F6F 		.ascii	"cf_off_stklimit\000"
 2900      66665F73 
 2900      746B6C69 
 2900      6D697400 
 2901              	.LASF138:
 2902 0148 63665F6F 		.ascii	"cf_off_flags\000"
 2902      66665F66 
 2902      6C616773 
 2902      00
 2903              	.LASF50:
 2904 0155 705F6D70 		.ascii	"p_mpool\000"
 2904      6F6F6C00 
 2905              	.LASF119:
 2906 015d 6D5F7175 		.ascii	"m_queue\000"
 2906      65756500 
 2907              	.LASF85:
 2908 0165 76746C69 		.ascii	"vtlist\000"
 2908      737400
 2909              	.LASF170:
 2910 016c 706F7274 		.ascii	"port_unlock\000"
 2910      5F756E6C 
 2910      6F636B00 
 2911              	.LASF111:
 2912 0178 77747472 		.ascii	"wttrp\000"
 2912      7000
 2913              	.LASF83:
 2914 017e 63685F73 		.ascii	"ch_system\000"
 2914      79737465 
 2914      6D00
 2915              	.LASF11:
 2916 0188 6C6F6E67 		.ascii	"long int\000"
 2916      20696E74 
 2916      00
 2917              	.LASF164:
 2918 0191 63685468 		.ascii	"chThdCreateFromHeap\000"
 2918      64437265 
 2918      61746546 
 2918      726F6D48 
 2918      65617000 
 2919              	.LASF24:
 2920 01a5 74737461 		.ascii	"tstate_t\000"
 2920      74655F74 
 2920      00
 2921              	.LASF172:
 2922 01ae 474E5520 		.ascii	"GNU C11 6.3.1 20170620 (release) [ARM/embedded-6-br"
 2922      43313120 
ARM GAS  /tmp/ccq8ydGr.s 			page 54


 2922      362E332E 
 2922      31203230 
 2922      31373036 
 2923 01e1 616E6368 		.ascii	"anch revision 249437] -mcpu=cortex-m4 -mfloat-abi=h"
 2923      20726576 
 2923      6973696F 
 2923      6E203234 
 2923      39343337 
 2924 0214 61726420 		.ascii	"ard -mfpu=fpv4-sp-d16 -mno-thumb-interwork -mthumb "
 2924      2D6D6670 
 2924      753D6670 
 2924      76342D73 
 2924      702D6431 
 2925 0247 2D676764 		.ascii	"-ggdb -O0 -fomit-frame-pointer -falign-functions=16"
 2925      62202D4F 
 2925      30202D66 
 2925      6F6D6974 
 2925      2D667261 
 2926 027a 202D6666 		.ascii	" -ffunction-sections -fdata-sections -fno-common -f"
 2926      756E6374 
 2926      696F6E2D 
 2926      73656374 
 2926      696F6E73 
 2927 02ad 73696E67 		.ascii	"single-precision-constant\000"
 2927      6C652D70 
 2927      72656369 
 2927      73696F6E 
 2927      2D636F6E 
 2928              	.LASF147:
 2929 02c7 6D656D6F 		.ascii	"memory_heap_t\000"
 2929      72795F68 
 2929      6561705F 
 2929      7400
 2930              	.LASF142:
 2931 02d5 63686465 		.ascii	"chdebug_t\000"
 2931      6275675F 
 2931      7400
 2932              	.LASF37:
 2933 02df 705F6E65 		.ascii	"p_newer\000"
 2933      77657200 
 2934              	.LASF116:
 2935 02e7 735F7175 		.ascii	"s_queue\000"
 2935      65756500 
 2936              	.LASF163:
 2937 02ef 63685468 		.ascii	"chThdCreateFromMemoryPool\000"
 2937      64437265 
 2937      61746546 
 2937      726F6D4D 
 2937      656D6F72 
 2938              	.LASF63:
 2939 0309 725F6E65 		.ascii	"r_newer\000"
 2939      77657200 
 2940              	.LASF160:
 2941 0311 6D705F70 		.ascii	"mp_provider\000"
 2941      726F7669 
 2941      64657200 
 2942              	.LASF92:
ARM GAS  /tmp/ccq8ydGr.s 			page 55


 2943 031d 72656761 		.ascii	"regarm_t\000"
 2943      726D5F74 
 2943      00
 2944              	.LASF70:
 2945 0326 76745F70 		.ascii	"vt_prev\000"
 2945      72657600 
 2946              	.LASF78:
 2947 032e 63685F73 		.ascii	"ch_system_debug\000"
 2947      79737465 
 2947      6D5F6465 
 2947      62756700 
 2948              	.LASF144:
 2949 033e 6D757465 		.ascii	"mutex_t\000"
 2949      785F7400 
 2950              	.LASF179:
 2951 0346 76616C75 		.ascii	"value\000"
 2951      6500
 2952              	.LASF81:
 2953 034c 6C6F636B 		.ascii	"lock_cnt\000"
 2953      5F636E74 
 2953      00
 2954              	.LASF88:
 2955 0355 69646C65 		.ascii	"idle_thread_wa\000"
 2955      5F746872 
 2955      6561645F 
 2955      776100
 2956              	.LASF29:
 2957 0364 636E745F 		.ascii	"cnt_t\000"
 2957      7400
 2958              	.LASF40:
 2959 036a 705F7374 		.ascii	"p_stklimit\000"
 2959      6B6C696D 
 2959      697400
 2960              	.LASF0:
 2961 0375 756E7369 		.ascii	"unsigned int\000"
 2961      676E6564 
 2961      20696E74 
 2961      00
 2962              	.LASF69:
 2963 0382 76745F6E 		.ascii	"vt_next\000"
 2963      65787400 
 2964              	.LASF17:
 2965 038a 75696E74 		.ascii	"uint16_t\000"
 2965      31365F74 
 2965      00
 2966              	.LASF91:
 2967 0393 53797374 		.ascii	"SystemCoreClock\000"
 2967      656D436F 
 2967      7265436C 
 2967      6F636B00 
 2968              	.LASF174:
 2969 03a3 2F686F6D 		.ascii	"/home/matt/Documents/fibre-link/header-detection/pc"
 2969      652F6D61 
 2969      74742F44 
 2969      6F63756D 
 2969      656E7473 
 2970 03d6 622F7374 		.ascii	"b/stm32/firmware\000"
ARM GAS  /tmp/ccq8ydGr.s 			page 56


 2970      6D33322F 
 2970      6669726D 
 2970      77617265 
 2970      00
 2971              	.LASF112:
 2972 03e7 77747365 		.ascii	"wtsemp\000"
 2972      6D7000
 2973              	.LASF134:
 2974 03ee 63665F6F 		.ascii	"cf_off_older\000"
 2974      66665F6F 
 2974      6C646572 
 2974      00
 2975              	.LASF71:
 2976 03fb 76745F64 		.ascii	"vt_delta\000"
 2976      656C7461 
 2976      00
 2977              	.LASF45:
 2978 0404 705F6D73 		.ascii	"p_msgqueue\000"
 2978      67717565 
 2978      756500
 2979              	.LASF143:
 2980 040f 63685F64 		.ascii	"ch_debug\000"
 2980      65627567 
 2980      00
 2981              	.LASF161:
 2982 0418 6D656D6F 		.ascii	"memory_pool_t\000"
 2982      72795F70 
 2982      6F6F6C5F 
 2982      7400
 2983              	.LASF103:
 2984 0426 6E5F6972 		.ascii	"n_irq\000"
 2984      7100
 2985              	.LASF117:
 2986 042c 735F636E 		.ascii	"s_cnt\000"
 2986      7400
 2987              	.LASF9:
 2988 0432 73686F72 		.ascii	"short unsigned int\000"
 2988      7420756E 
 2988      7369676E 
 2988      65642069 
 2988      6E7400
 2989              	.LASF107:
 2990 0445 6B65726E 		.ascii	"kernel_stats_t\000"
 2990      656C5F73 
 2990      74617473 
 2990      5F7400
 2991              	.LASF54:
 2992 0454 63685F74 		.ascii	"ch_thread\000"
 2992      68726561 
 2992      6400
 2993              	.LASF86:
 2994 045e 6D61696E 		.ascii	"mainthread\000"
 2994      74687265 
 2994      616400
 2995              	.LASF27:
 2996 0469 6D73675F 		.ascii	"msg_t\000"
 2996      7400
ARM GAS  /tmp/ccq8ydGr.s 			page 57


 2997              	.LASF100:
 2998 046f 6C617374 		.ascii	"last\000"
 2998      00
 2999              	.LASF30:
 3000 0474 75636E74 		.ascii	"ucnt_t\000"
 3000      5F7400
 3001              	.LASF82:
 3002 047b 63685F73 		.ascii	"ch_system_t\000"
 3002      79737465 
 3002      6D5F7400 
 3003              	.LASF141:
 3004 0487 63665F6F 		.ascii	"cf_off_time\000"
 3004      66665F74 
 3004      696D6500 
 3005              	.LASF106:
 3006 0493 6D5F6372 		.ascii	"m_crit_isr\000"
 3006      69745F69 
 3006      737200
 3007              	.LASF59:
 3008 049e 63685F72 		.ascii	"ch_ready_list\000"
 3008      65616479 
 3008      5F6C6973 
 3008      7400
 3009              	.LASF28:
 3010 04ac 6576656E 		.ascii	"eventmask_t\000"
 3010      746D6173 
 3010      6B5F7400 
 3011              	.LASF10:
 3012 04b8 5F5F696E 		.ascii	"__int32_t\000"
 3012      7433325F 
 3012      7400
 3013              	.LASF168:
 3014 04c2 63685468 		.ascii	"chThdAddRef\000"
 3014      64416464 
 3014      52656600 
 3015              	.LASF93:
 3016 04ce 73746B61 		.ascii	"stkalign_t\000"
 3016      6C69676E 
 3016      5F7400
 3017              	.LASF125:
 3018 04d9 63685F7A 		.ascii	"ch_zero\000"
 3018      65726F00 
 3019              	.LASF139:
 3020 04e1 63665F6F 		.ascii	"cf_off_refs\000"
 3020      66665F72 
 3020      65667300 
 3021              	.LASF44:
 3022 04ed 705F7761 		.ascii	"p_waiting\000"
 3022      6974696E 
 3022      6700
 3023              	.LASF89:
 3024 04f7 73697A65 		.ascii	"sizetype\000"
 3024      74797065 
 3024      00
 3025              	.LASF75:
 3026 0500 63685F76 		.ascii	"ch_virtual_timers_list\000"
 3026      69727475 
ARM GAS  /tmp/ccq8ydGr.s 			page 58


 3026      616C5F74 
 3026      696D6572 
 3026      735F6C69 
 3027              	.LASF2:
 3028 0517 6C6F6E67 		.ascii	"long double\000"
 3028      20646F75 
 3028      626C6500 
 3029              	.LASF129:
 3030 0523 63685F74 		.ascii	"ch_timesize\000"
 3030      696D6573 
 3030      697A6500 
 3031              	.LASF135:
 3032 052f 63665F6F 		.ascii	"cf_off_name\000"
 3032      66665F6E 
 3032      616D6500 
 3033              	.LASF53:
 3034 053b 74687265 		.ascii	"threads_list_t\000"
 3034      6164735F 
 3034      6C697374 
 3034      5F7400
 3035              	.LASF38:
 3036 054a 705F6F6C 		.ascii	"p_older\000"
 3036      64657200 
 3037              	.LASF62:
 3038 0552 725F6374 		.ascii	"r_ctx\000"
 3038      7800
 3039              	.LASF36:
 3040 0558 705F6374 		.ascii	"p_ctx\000"
 3040      7800
 3041              	.LASF159:
 3042 055e 6D705F6F 		.ascii	"mp_object_size\000"
 3042      626A6563 
 3042      745F7369 
 3042      7A6500
 3043              	.LASF97:
 3044 056d 746D5F63 		.ascii	"tm_calibration_t\000"
 3044      616C6962 
 3044      72617469 
 3044      6F6E5F74 
 3044      00
 3045              	.LASF162:
 3046 057e 7072696F 		.ascii	"prio\000"
 3046      00
 3047              	.LASF64:
 3048 0583 725F6F6C 		.ascii	"r_older\000"
 3048      64657200 
 3049              	.LASF14:
 3050 058b 5F5F7569 		.ascii	"__uint64_t\000"
 3050      6E743634 
 3050      5F7400
 3051              	.LASF101:
 3052 0596 63756D75 		.ascii	"cumulative\000"
 3052      6C617469 
 3052      766500
 3053              	.LASF25:
 3054 05a1 74726566 		.ascii	"trefs_t\000"
 3054      735F7400 
ARM GAS  /tmp/ccq8ydGr.s 			page 59


 3055              	.LASF128:
 3056 05a9 63685F70 		.ascii	"ch_ptrsize\000"
 3056      74727369 
 3056      7A6500
 3057              	.LASF166:
 3058 05b4 72656673 		.ascii	"refs\000"
 3058      00
 3059              	.LASF67:
 3060 05b9 76697274 		.ascii	"virtual_timer_t\000"
 3060      75616C5F 
 3060      74696D65 
 3060      725F7400 
 3061              	.LASF34:
 3062 05c9 705F7072 		.ascii	"p_prev\000"
 3062      657600
 3063              	.LASF26:
 3064 05d0 74707269 		.ascii	"tprio_t\000"
 3064      6F5F7400 
 3065              	.LASF104:
 3066 05d8 6E5F6374 		.ascii	"n_ctxswc\000"
 3066      78737763 
 3066      00
 3067              	.LASF145:
 3068 05e1 5F426F6F 		.ascii	"_Bool\000"
 3068      6C00
 3069              	.LASF18:
 3070 05e7 696E7433 		.ascii	"int32_t\000"
 3070      325F7400 
 3071              	.LASF6:
 3072 05ef 756E7369 		.ascii	"unsigned char\000"
 3072      676E6564 
 3072      20636861 
 3072      7200
 3073              	.LASF175:
 3074 05fd 68656170 		.ascii	"heap_header\000"
 3074      5F686561 
 3074      64657200 
 3075              	.LASF48:
 3076 0609 705F6D74 		.ascii	"p_mtxlist\000"
 3076      786C6973 
 3076      7400
 3077              	.LASF7:
 3078 0613 73686F72 		.ascii	"short int\000"
 3078      7420696E 
 3078      7400
 3079              	.LASF41:
 3080 061d 705F7374 		.ascii	"p_state\000"
 3080      61746500 
 3081              	.LASF61:
 3082 0625 725F7072 		.ascii	"r_prio\000"
 3082      696F00
 3083              	.LASF114:
 3084 062c 65776D61 		.ascii	"ewmask\000"
 3084      736B00
 3085              	.LASF33:
 3086 0633 705F6E65 		.ascii	"p_next\000"
 3086      787400
ARM GAS  /tmp/ccq8ydGr.s 			page 60


 3087              	.LASF23:
 3088 063a 746D6F64 		.ascii	"tmode_t\000"
 3088      655F7400 
 3089              	.LASF140:
 3090 0642 63665F6F 		.ascii	"cf_off_preempt\000"
 3090      66665F70 
 3090      7265656D 
 3090      707400
 3091              	.LASF42:
 3092 0651 705F666C 		.ascii	"p_flags\000"
 3092      61677300 
 3093              	.LASF167:
 3094 0659 5F5F6675 		.ascii	"__func__\000"
 3094      6E635F5F 
 3094      00
 3095              	.LASF51:
 3096 0662 705F7374 		.ascii	"p_stats\000"
 3096      61747300 
 3097              	.LASF177:
 3098 066a 63685379 		.ascii	"chSysLock\000"
 3098      734C6F63 
 3098      6B00
 3099              	.LASF176:
 3100 0674 63685468 		.ascii	"chThdRelease\000"
 3100      6452656C 
 3100      65617365 
 3100      00
 3101              	.LASF56:
 3102 0681 74687265 		.ascii	"threads_queue_t\000"
 3102      6164735F 
 3102      71756575 
 3102      655F7400 
 3103              	.LASF68:
 3104 0691 63685F76 		.ascii	"ch_virtual_timer\000"
 3104      69727475 
 3104      616C5F74 
 3104      696D6572 
 3104      00
 3105              	.LASF133:
 3106 06a2 63665F6F 		.ascii	"cf_off_newer\000"
 3106      66665F6E 
 3106      65776572 
 3106      00
 3107              	.LASF115:
 3108 06af 63685F73 		.ascii	"ch_semaphore\000"
 3108      656D6170 
 3108      686F7265 
 3108      00
 3109              	.LASF47:
 3110 06bc 705F6570 		.ascii	"p_epending\000"
 3110      656E6469 
 3110      6E6700
 3111              	.LASF19:
 3112 06c7 75696E74 		.ascii	"uint32_t\000"
 3112      33325F74 
 3112      00
 3113              	.LASF131:
ARM GAS  /tmp/ccq8ydGr.s 			page 61


 3114 06d0 63665F6F 		.ascii	"cf_off_prio\000"
 3114      66665F70 
 3114      72696F00 
 3115              	.LASF60:
 3116 06dc 725F7175 		.ascii	"r_queue\000"
 3116      65756500 
 3117              	.LASF55:
 3118 06e4 63685F74 		.ascii	"ch_threads_list\000"
 3118      68726561 
 3118      64735F6C 
 3118      69737400 
 3119              	.LASF126:
 3120 06f4 63685F73 		.ascii	"ch_size\000"
 3120      697A6500 
 3121              	.LASF153:
 3122 06fc 68656170 		.ascii	"heap\000"
 3122      00
 3123              	.LASF13:
 3124 0701 6C6F6E67 		.ascii	"long unsigned int\000"
 3124      20756E73 
 3124      69676E65 
 3124      6420696E 
 3124      7400
 3125              	.LASF65:
 3126 0713 725F6375 		.ascii	"r_current\000"
 3126      7272656E 
 3126      7400
 3127              	.LASF122:
 3128 071d 63686172 		.ascii	"char\000"
 3128      00
 3129              	.LASF113:
 3130 0722 77746D74 		.ascii	"wtmtxp\000"
 3130      787000
 3131              	.LASF8:
 3132 0729 5F5F7569 		.ascii	"__uint16_t\000"
 3132      6E743136 
 3132      5F7400
 3133              	.LASF173:
 3134 0734 2E2E2F43 		.ascii	"../ChibiOS/os/rt/src/chdynamic.c\000"
 3134      68696269 
 3134      4F532F6F 
 3134      732F7274 
 3134      2F737263 
 3135              	.LASF32:
 3136 0755 74687265 		.ascii	"thread_t\000"
 3136      61645F74 
 3136      00
 3137              	.LASF98:
 3138 075e 62657374 		.ascii	"best\000"
 3138      00
 3139              	.LASF121:
 3140 0763 6D5F6E65 		.ascii	"m_next\000"
 3140      787400
 3141              	.LASF31:
 3142 076a 73797374 		.ascii	"systime_t\000"
 3142      696D655F 
 3142      7400
ARM GAS  /tmp/ccq8ydGr.s 			page 62


 3143              	.LASF49:
 3144 0774 705F7265 		.ascii	"p_realprio\000"
 3144      616C7072 
 3144      696F00
 3145              	.LASF66:
 3146 077f 76746675 		.ascii	"vtfunc_t\000"
 3146      6E635F74 
 3146      00
 3147              	.LASF12:
 3148 0788 5F5F7569 		.ascii	"__uint32_t\000"
 3148      6E743332 
 3148      5F7400
 3149              	.LASF178:
 3150 0793 5F5F7365 		.ascii	"__set_BASEPRI\000"
 3150      745F4241 
 3150      53455052 
 3150      4900
 3151              	.LASF79:
 3152 07a1 70616E69 		.ascii	"panic_msg\000"
 3152      635F6D73 
 3152      6700
 3153              	.LASF96:
 3154 07ab 6F666673 		.ascii	"offset\000"
 3154      657400
 3155              	.LASF118:
 3156 07b2 63685F6D 		.ascii	"ch_mutex\000"
 3156      75746578 
 3156      00
 3157              	.LASF158:
 3158 07bb 6D705F6E 		.ascii	"mp_next\000"
 3158      65787400 
 3159              	.LASF94:
 3160 07c3 636F6E74 		.ascii	"context\000"
 3160      65787400 
 3161              	.LASF46:
 3162 07cb 705F6D73 		.ascii	"p_msg\000"
 3162      6700
 3163              	.LASF21:
 3164 07d1 7274636E 		.ascii	"rtcnt_t\000"
 3164      745F7400 
 3165              	.LASF146:
 3166 07d9 6D656D67 		.ascii	"memgetfunc_t\000"
 3166      65746675 
 3166      6E635F74 
 3166      00
 3167              	.LASF73:
 3168 07e6 76745F70 		.ascii	"vt_par\000"
 3168      617200
 3169              	.LASF132:
 3170 07ed 63665F6F 		.ascii	"cf_off_ctx\000"
 3170      66665F63 
 3170      747800
 3171              	.LASF156:
 3172 07f8 706F6F6C 		.ascii	"pool_header\000"
 3172      5F686561 
 3172      64657200 
 3173              	.LASF43:
ARM GAS  /tmp/ccq8ydGr.s 			page 63


 3174 0804 705F7265 		.ascii	"p_refs\000"
 3174      667300
 3175              	.LASF80:
 3176 080b 6973725F 		.ascii	"isr_cnt\000"
 3176      636E7400 
 3177              	.LASF84:
 3178 0813 726C6973 		.ascii	"rlist\000"
 3178      7400
 3179              	.LASF16:
 3180 0819 75696E74 		.ascii	"uint8_t\000"
 3180      385F7400 
 3181              	.LASF149:
 3182 0821 685F7072 		.ascii	"h_provider\000"
 3182      6F766964 
 3182      657200
 3183              	.LASF52:
 3184 082c 74687265 		.ascii	"thread_reference_t\000"
 3184      61645F72 
 3184      65666572 
 3184      656E6365 
 3184      5F7400
 3185              	.LASF110:
 3186 083f 77746F62 		.ascii	"wtobjp\000"
 3186      6A7000
 3187              	.LASF157:
 3188 0846 70685F6E 		.ascii	"ph_next\000"
 3188      65787400 
 3189              	.LASF39:
 3190 084e 705F6E61 		.ascii	"p_name\000"
 3190      6D6500
 3191              	.LASF155:
 3192 0855 73697A65 		.ascii	"size\000"
 3192      00
 3193              	.LASF76:
 3194 085a 76745F73 		.ascii	"vt_systime\000"
 3194      79737469 
 3194      6D6500
 3195              	.LASF169:
 3196 0865 63685379 		.ascii	"chSysUnlock\000"
 3196      73556E6C 
 3196      6F636B00 
 3197              	.LASF127:
 3198 0871 63685F76 		.ascii	"ch_version\000"
 3198      65727369 
 3198      6F6E00
 3199              	.LASF105:
 3200 087c 6D5F6372 		.ascii	"m_crit_thd\000"
 3200      69745F74 
 3200      686400
 3201              	.LASF120:
 3202 0887 6D5F6F77 		.ascii	"m_owner\000"
 3202      6E657200 
 3203              	.LASF124:
 3204 088f 63685F69 		.ascii	"ch_identifier\000"
 3204      64656E74 
 3204      69666965 
 3204      7200
ARM GAS  /tmp/ccq8ydGr.s 			page 64


 3205              	.LASF72:
 3206 089d 76745F66 		.ascii	"vt_func\000"
 3206      756E6300 
 3207              	.LASF148:
 3208 08a5 6D656D6F 		.ascii	"memory_heap\000"
 3208      72795F68 
 3208      65617000 
 3209              		.ident	"GCC: (GNU Tools for ARM Embedded Processors 6-2017-q2-update) 6.3.1 20170620 (release) [AR
ARM GAS  /tmp/ccq8ydGr.s 			page 65


DEFINED SYMBOLS
                            *ABS*:0000000000000000 chdynamic.c
     /tmp/ccq8ydGr.s:18     .text.port_lock:0000000000000000 $t
     /tmp/ccq8ydGr.s:25     .text.port_lock:0000000000000000 port_lock
     /tmp/ccq8ydGr.s:60     .text.port_unlock:0000000000000000 $t
     /tmp/ccq8ydGr.s:67     .text.port_unlock:0000000000000000 port_unlock
     /tmp/ccq8ydGr.s:100    .text.chSysLock:0000000000000000 $t
     /tmp/ccq8ydGr.s:107    .text.chSysLock:0000000000000000 chSysLock
     /tmp/ccq8ydGr.s:131    .text.chSysUnlock:0000000000000000 $t
     /tmp/ccq8ydGr.s:138    .text.chSysUnlock:0000000000000000 chSysUnlock
     /tmp/ccq8ydGr.s:179    .text.chSysUnlock:0000000000000034 $d
     /tmp/ccq8ydGr.s:561    .rodata.__func__.7157:0000000000000000 __func__.7157
     /tmp/ccq8ydGr.s:185    .text.chThdAddRef:0000000000000000 $t
     /tmp/ccq8ydGr.s:193    .text.chThdAddRef:0000000000000000 chThdAddRef
     /tmp/ccq8ydGr.s:237    .text.chThdAddRef:0000000000000038 $d
     /tmp/ccq8ydGr.s:555    .rodata.__func__.7857:0000000000000000 __func__.7857
     /tmp/ccq8ydGr.s:242    .text.chThdRelease:0000000000000000 $t
     /tmp/ccq8ydGr.s:250    .text.chThdRelease:0000000000000000 chThdRelease
     /tmp/ccq8ydGr.s:356    .text.chThdRelease:00000000000000ac $d
     /tmp/ccq8ydGr.s:567    .rodata.__func__.7862:0000000000000000 __func__.7862
     /tmp/ccq8ydGr.s:361    .text.chThdCreateFromHeap:0000000000000000 $t
     /tmp/ccq8ydGr.s:369    .text.chThdCreateFromHeap:0000000000000000 chThdCreateFromHeap
     /tmp/ccq8ydGr.s:447    .text.chThdCreateFromMemoryPool:0000000000000000 $t
     /tmp/ccq8ydGr.s:455    .text.chThdCreateFromMemoryPool:0000000000000000 chThdCreateFromMemoryPool
     /tmp/ccq8ydGr.s:547    .text.chThdCreateFromMemoryPool:000000000000008c $d
     /tmp/ccq8ydGr.s:573    .rodata.__func__.7884:0000000000000000 __func__.7884
     /tmp/ccq8ydGr.s:552    .rodata.__func__.7857:0000000000000000 $d
     /tmp/ccq8ydGr.s:558    .rodata.__func__.7157:0000000000000000 $d
     /tmp/ccq8ydGr.s:564    .rodata.__func__.7862:0000000000000000 $d
     /tmp/ccq8ydGr.s:570    .rodata.__func__.7884:0000000000000000 $d
                     .debug_frame:0000000000000010 $d

UNDEFINED SYMBOLS
_stats_start_measure_crit_thd
_dbg_check_lock
_dbg_check_unlock
_stats_stop_measure_crit_thd
chSysHalt
ch
chHeapFree
chPoolFree
chHeapAlloc
_thread_memfill
chThdCreateI
chSchWakeupS
chPoolAlloc
