ARM GAS  /tmp/ccHLzgdL.s 			page 1


   1              		.cpu cortex-m4
   2              		.eabi_attribute 27, 1
   3              		.eabi_attribute 28, 1
   4              		.eabi_attribute 20, 1
   5              		.eabi_attribute 21, 1
   6              		.eabi_attribute 23, 3
   7              		.eabi_attribute 24, 1
   8              		.eabi_attribute 25, 1
   9              		.eabi_attribute 26, 1
  10              		.eabi_attribute 30, 6
  11              		.eabi_attribute 34, 1
  12              		.eabi_attribute 18, 4
  13              		.file	"chmempools.c"
  14              		.text
  15              	.Ltext0:
  16              		.cfi_sections	.debug_frame
  17              		.section	.text.port_lock,"ax",%progbits
  18              		.align	1
  19              		.p2align 4,,15
  20              		.syntax unified
  21              		.thumb
  22              		.thumb_func
  23              		.fpu fpv4-sp-d16
  24              		.type	port_lock, %function
  25              	port_lock:
  26              	.LFB127:
  27              		.file 1 "../ChibiOS/os/rt/ports/ARMCMx/chcore_v7m.h"
  28              		.loc 1 456 0
  29              		.cfi_startproc
  30              		@ args = 0, pretend = 0, frame = 8
  31              		@ frame_needed = 0, uses_anonymous_args = 0
  32              		@ link register save eliminated.
  33 0000 82B0     		sub	sp, sp, #8
  34              		.cfi_def_cfa_offset 8
  35 0002 2023     		movs	r3, #32
  36 0004 0193     		str	r3, [sp, #4]
  37              	.LBB6:
  38              	.LBB7:
  39              		.file 2 "../ChibiOS/os/ext/CMSIS/include/core_cmFunc.h"
  40              		.loc 2 548 0
  41 0006 019B     		ldr	r3, [sp, #4]
  42              		.syntax unified
  43              	@ 548 "../ChibiOS/os/ext/CMSIS/include/core_cmFunc.h" 1
  44 0008 83F31188 		MSR basepri, r3
  45              	@ 0 "" 2
  46              		.thumb
  47              		.syntax unified
  48              	.LBE7:
  49              	.LBE6:
  50              		.loc 1 473 0
  51 000c 00BF     		nop
  52 000e 02B0     		add	sp, sp, #8
  53              		.cfi_def_cfa_offset 0
  54              		@ sp needed
  55 0010 7047     		bx	lr
  56              		.cfi_endproc
  57              	.LFE127:
ARM GAS  /tmp/ccHLzgdL.s 			page 2


  58              		.size	port_lock, .-port_lock
  59 0012 00BF     		.section	.text.port_unlock,"ax",%progbits
  60              		.align	1
  61              		.p2align 4,,15
  62              		.syntax unified
  63              		.thumb
  64              		.thumb_func
  65              		.fpu fpv4-sp-d16
  66              		.type	port_unlock, %function
  67              	port_unlock:
  68              	.LFB128:
  69              		.loc 1 480 0
  70              		.cfi_startproc
  71              		@ args = 0, pretend = 0, frame = 8
  72              		@ frame_needed = 0, uses_anonymous_args = 0
  73              		@ link register save eliminated.
  74 0000 82B0     		sub	sp, sp, #8
  75              		.cfi_def_cfa_offset 8
  76 0002 0023     		movs	r3, #0
  77 0004 0193     		str	r3, [sp, #4]
  78              	.LBB8:
  79              	.LBB9:
  80              		.loc 2 548 0
  81 0006 019B     		ldr	r3, [sp, #4]
  82              		.syntax unified
  83              	@ 548 "../ChibiOS/os/ext/CMSIS/include/core_cmFunc.h" 1
  84 0008 83F31188 		MSR basepri, r3
  85              	@ 0 "" 2
  86              		.thumb
  87              		.syntax unified
  88              	.LBE9:
  89              	.LBE8:
  90              		.loc 1 487 0
  91 000c 00BF     		nop
  92 000e 02B0     		add	sp, sp, #8
  93              		.cfi_def_cfa_offset 0
  94              		@ sp needed
  95 0010 7047     		bx	lr
  96              		.cfi_endproc
  97              	.LFE128:
  98              		.size	port_unlock, .-port_unlock
  99 0012 00BF     		.section	.text.chSysLock,"ax",%progbits
 100              		.align	1
 101              		.p2align 4,,15
 102              		.syntax unified
 103              		.thumb
 104              		.thumb_func
 105              		.fpu fpv4-sp-d16
 106              		.type	chSysLock, %function
 107              	chSysLock:
 108              	.LFB156:
 109              		.file 3 "../ChibiOS/os/rt/include/chsys.h"
 110              		.loc 3 346 0
 111              		.cfi_startproc
 112              		@ args = 0, pretend = 0, frame = 0
 113              		@ frame_needed = 0, uses_anonymous_args = 0
 114 0000 08B5     		push	{r3, lr}
ARM GAS  /tmp/ccHLzgdL.s 			page 3


 115              		.cfi_def_cfa_offset 8
 116              		.cfi_offset 3, -8
 117              		.cfi_offset 14, -4
 118              		.loc 3 348 0
 119 0002 FFF7FEFF 		bl	port_lock
 120              		.loc 3 349 0
 121 0006 FFF7FEFF 		bl	_stats_start_measure_crit_thd
 122              		.loc 3 350 0
 123 000a FFF7FEFF 		bl	_dbg_check_lock
 124              		.loc 3 351 0
 125 000e 00BF     		nop
 126 0010 08BD     		pop	{r3, pc}
 127              		.cfi_endproc
 128              	.LFE156:
 129              		.size	chSysLock, .-chSysLock
 130 0012 00BF     		.section	.text.chSysUnlock,"ax",%progbits
 131              		.align	1
 132              		.p2align 4,,15
 133              		.syntax unified
 134              		.thumb
 135              		.thumb_func
 136              		.fpu fpv4-sp-d16
 137              		.type	chSysUnlock, %function
 138              	chSysUnlock:
 139              	.LFB157:
 140              		.loc 3 358 0
 141              		.cfi_startproc
 142              		@ args = 0, pretend = 0, frame = 0
 143              		@ frame_needed = 0, uses_anonymous_args = 0
 144 0000 08B5     		push	{r3, lr}
 145              		.cfi_def_cfa_offset 8
 146              		.cfi_offset 3, -8
 147              		.cfi_offset 14, -4
 148              		.loc 3 360 0
 149 0002 FFF7FEFF 		bl	_dbg_check_unlock
 150              		.loc 3 361 0
 151 0006 FFF7FEFF 		bl	_stats_stop_measure_crit_thd
 152              		.loc 3 367 0
 153 000a 0A4B     		ldr	r3, .L6
 154 000c 1B68     		ldr	r3, [r3]
 155 000e 094A     		ldr	r2, .L6
 156 0010 9342     		cmp	r3, r2
 157 0012 0AD0     		beq	.L5
 158              		.loc 3 367 0 is_stmt 0 discriminator 2
 159 0014 074B     		ldr	r3, .L6
 160 0016 9B69     		ldr	r3, [r3, #24]
 161 0018 9A68     		ldr	r2, [r3, #8]
 162 001a 064B     		ldr	r3, .L6
 163 001c 1B68     		ldr	r3, [r3]
 164 001e 9B68     		ldr	r3, [r3, #8]
 165 0020 9A42     		cmp	r2, r3
 166 0022 02D2     		bcs	.L5
 167              		.loc 3 367 0 discriminator 3
 168 0024 0448     		ldr	r0, .L6+4
 169 0026 FFF7FEFF 		bl	chSysHalt
 170              	.L5:
 171              		.loc 3 371 0 is_stmt 1
ARM GAS  /tmp/ccHLzgdL.s 			page 4


 172 002a FFF7FEFF 		bl	port_unlock
 173              		.loc 3 372 0
 174 002e 00BF     		nop
 175 0030 08BD     		pop	{r3, pc}
 176              	.L7:
 177 0032 00BF     		.align	2
 178              	.L6:
 179 0034 00000000 		.word	ch
 180 0038 00000000 		.word	__func__.7157
 181              		.cfi_endproc
 182              	.LFE157:
 183              		.size	chSysUnlock, .-chSysUnlock
 184              		.section	.text.chPoolAdd,"ax",%progbits
 185              		.align	1
 186              		.p2align 4,,15
 187              		.syntax unified
 188              		.thumb
 189              		.thumb_func
 190              		.fpu fpv4-sp-d16
 191              		.type	chPoolAdd, %function
 192              	chPoolAdd:
 193              	.LFB219:
 194              		.file 4 "../ChibiOS/os/rt/include/chmempools.h"
 195              		.loc 4 137 0
 196              		.cfi_startproc
 197              		@ args = 0, pretend = 0, frame = 8
 198              		@ frame_needed = 0, uses_anonymous_args = 0
 199 0000 00B5     		push	{lr}
 200              		.cfi_def_cfa_offset 4
 201              		.cfi_offset 14, -4
 202 0002 83B0     		sub	sp, sp, #12
 203              		.cfi_def_cfa_offset 16
 204 0004 0190     		str	r0, [sp, #4]
 205 0006 0091     		str	r1, [sp]
 206              		.loc 4 139 0
 207 0008 0099     		ldr	r1, [sp]
 208 000a 0198     		ldr	r0, [sp, #4]
 209 000c FFF7FEFF 		bl	chPoolFree
 210              		.loc 4 140 0
 211 0010 00BF     		nop
 212 0012 03B0     		add	sp, sp, #12
 213              		.cfi_def_cfa_offset 4
 214              		@ sp needed
 215 0014 5DF804FB 		ldr	pc, [sp], #4
 216              		.cfi_endproc
 217              	.LFE219:
 218              		.size	chPoolAdd, .-chPoolAdd
 219              		.section	.text.chPoolObjectInit,"ax",%progbits
 220              		.align	1
 221              		.p2align 4,,15
 222              		.global	chPoolObjectInit
 223              		.syntax unified
 224              		.thumb
 225              		.thumb_func
 226              		.fpu fpv4-sp-d16
 227              		.type	chPoolObjectInit, %function
 228              	chPoolObjectInit:
ARM GAS  /tmp/ccHLzgdL.s 			page 5


 229              	.LFB231:
 230              		.file 5 "../ChibiOS/os/rt/src/chmempools.c"
 231              		.loc 5 75 0
 232              		.cfi_startproc
 233              		@ args = 0, pretend = 0, frame = 16
 234              		@ frame_needed = 0, uses_anonymous_args = 0
 235 0000 00B5     		push	{lr}
 236              		.cfi_def_cfa_offset 4
 237              		.cfi_offset 14, -4
 238 0002 85B0     		sub	sp, sp, #20
 239              		.cfi_def_cfa_offset 24
 240 0004 0390     		str	r0, [sp, #12]
 241 0006 0291     		str	r1, [sp, #8]
 242 0008 0192     		str	r2, [sp, #4]
 243              		.loc 5 77 0
 244 000a 039B     		ldr	r3, [sp, #12]
 245 000c 002B     		cmp	r3, #0
 246 000e 02D0     		beq	.L10
 247              		.loc 5 77 0 is_stmt 0 discriminator 3
 248 0010 029B     		ldr	r3, [sp, #8]
 249 0012 032B     		cmp	r3, #3
 250 0014 02D8     		bhi	.L11
 251              	.L10:
 252              		.loc 5 77 0 discriminator 4
 253 0016 0848     		ldr	r0, .L12
 254 0018 FFF7FEFF 		bl	chSysHalt
 255              	.L11:
 256              		.loc 5 79 0 is_stmt 1
 257 001c 039B     		ldr	r3, [sp, #12]
 258 001e 0022     		movs	r2, #0
 259 0020 1A60     		str	r2, [r3]
 260              		.loc 5 80 0
 261 0022 039B     		ldr	r3, [sp, #12]
 262 0024 029A     		ldr	r2, [sp, #8]
 263 0026 5A60     		str	r2, [r3, #4]
 264              		.loc 5 81 0
 265 0028 039B     		ldr	r3, [sp, #12]
 266 002a 019A     		ldr	r2, [sp, #4]
 267 002c 9A60     		str	r2, [r3, #8]
 268              		.loc 5 82 0
 269 002e 00BF     		nop
 270 0030 05B0     		add	sp, sp, #20
 271              		.cfi_def_cfa_offset 4
 272              		@ sp needed
 273 0032 5DF804FB 		ldr	pc, [sp], #4
 274              	.L13:
 275 0036 00BF     		.align	2
 276              	.L12:
 277 0038 00000000 		.word	__func__.7859
 278              		.cfi_endproc
 279              	.LFE231:
 280              		.size	chPoolObjectInit, .-chPoolObjectInit
 281              		.section	.text.chPoolLoadArray,"ax",%progbits
 282              		.align	1
 283              		.p2align 4,,15
 284              		.global	chPoolLoadArray
 285              		.syntax unified
ARM GAS  /tmp/ccHLzgdL.s 			page 6


 286              		.thumb
 287              		.thumb_func
 288              		.fpu fpv4-sp-d16
 289              		.type	chPoolLoadArray, %function
 290              	chPoolLoadArray:
 291              	.LFB232:
 292              		.loc 5 97 0
 293              		.cfi_startproc
 294              		@ args = 0, pretend = 0, frame = 16
 295              		@ frame_needed = 0, uses_anonymous_args = 0
 296 0000 00B5     		push	{lr}
 297              		.cfi_def_cfa_offset 4
 298              		.cfi_offset 14, -4
 299 0002 85B0     		sub	sp, sp, #20
 300              		.cfi_def_cfa_offset 24
 301 0004 0390     		str	r0, [sp, #12]
 302 0006 0291     		str	r1, [sp, #8]
 303 0008 0192     		str	r2, [sp, #4]
 304              		.loc 5 99 0
 305 000a 039B     		ldr	r3, [sp, #12]
 306 000c 002B     		cmp	r3, #0
 307 000e 02D0     		beq	.L15
 308              		.loc 5 99 0 is_stmt 0 discriminator 3
 309 0010 019B     		ldr	r3, [sp, #4]
 310 0012 002B     		cmp	r3, #0
 311 0014 0FD1     		bne	.L17
 312              	.L15:
 313              		.loc 5 99 0 discriminator 4
 314 0016 0B48     		ldr	r0, .L19
 315 0018 FFF7FEFF 		bl	chSysHalt
 316              		.loc 5 101 0 is_stmt 1 discriminator 4
 317 001c 0BE0     		b	.L17
 318              	.L18:
 319              		.loc 5 102 0
 320 001e 0299     		ldr	r1, [sp, #8]
 321 0020 0398     		ldr	r0, [sp, #12]
 322 0022 FFF7FEFF 		bl	chPoolAdd
 323              		.loc 5 104 0
 324 0026 039B     		ldr	r3, [sp, #12]
 325 0028 5B68     		ldr	r3, [r3, #4]
 326 002a 029A     		ldr	r2, [sp, #8]
 327 002c 1344     		add	r3, r3, r2
 328 002e 0293     		str	r3, [sp, #8]
 329              		.loc 5 106 0
 330 0030 019B     		ldr	r3, [sp, #4]
 331 0032 013B     		subs	r3, r3, #1
 332 0034 0193     		str	r3, [sp, #4]
 333              	.L17:
 334              		.loc 5 101 0
 335 0036 019B     		ldr	r3, [sp, #4]
 336 0038 002B     		cmp	r3, #0
 337 003a F0D1     		bne	.L18
 338              		.loc 5 108 0
 339 003c 00BF     		nop
 340 003e 05B0     		add	sp, sp, #20
 341              		.cfi_def_cfa_offset 4
 342              		@ sp needed
ARM GAS  /tmp/ccHLzgdL.s 			page 7


 343 0040 5DF804FB 		ldr	pc, [sp], #4
 344              	.L20:
 345              		.align	2
 346              	.L19:
 347 0044 00000000 		.word	__func__.7865
 348              		.cfi_endproc
 349              	.LFE232:
 350              		.size	chPoolLoadArray, .-chPoolLoadArray
 351              		.section	.text.chPoolAllocI,"ax",%progbits
 352              		.align	1
 353              		.p2align 4,,15
 354              		.global	chPoolAllocI
 355              		.syntax unified
 356              		.thumb
 357              		.thumb_func
 358              		.fpu fpv4-sp-d16
 359              		.type	chPoolAllocI, %function
 360              	chPoolAllocI:
 361              	.LFB233:
 362              		.loc 5 120 0
 363              		.cfi_startproc
 364              		@ args = 0, pretend = 0, frame = 16
 365              		@ frame_needed = 0, uses_anonymous_args = 0
 366 0000 00B5     		push	{lr}
 367              		.cfi_def_cfa_offset 4
 368              		.cfi_offset 14, -4
 369 0002 85B0     		sub	sp, sp, #20
 370              		.cfi_def_cfa_offset 24
 371 0004 0190     		str	r0, [sp, #4]
 372              		.loc 5 123 0
 373 0006 FFF7FEFF 		bl	chDbgCheckClassI
 374              		.loc 5 124 0
 375 000a 019B     		ldr	r3, [sp, #4]
 376 000c 002B     		cmp	r3, #0
 377 000e 02D1     		bne	.L22
 378              		.loc 5 124 0 is_stmt 0 discriminator 2
 379 0010 0F48     		ldr	r0, .L26
 380 0012 FFF7FEFF 		bl	chSysHalt
 381              	.L22:
 382              		.loc 5 126 0 is_stmt 1
 383 0016 019B     		ldr	r3, [sp, #4]
 384 0018 1B68     		ldr	r3, [r3]
 385 001a 0393     		str	r3, [sp, #12]
 386              		.loc 5 128 0
 387 001c 039B     		ldr	r3, [sp, #12]
 388 001e 002B     		cmp	r3, #0
 389 0020 05D0     		beq	.L23
 390              		.loc 5 129 0
 391 0022 019B     		ldr	r3, [sp, #4]
 392 0024 1B68     		ldr	r3, [r3]
 393 0026 1A68     		ldr	r2, [r3]
 394 0028 019B     		ldr	r3, [sp, #4]
 395 002a 1A60     		str	r2, [r3]
 396 002c 0AE0     		b	.L24
 397              	.L23:
 398              		.loc 5 131 0
 399 002e 019B     		ldr	r3, [sp, #4]
ARM GAS  /tmp/ccHLzgdL.s 			page 8


 400 0030 9B68     		ldr	r3, [r3, #8]
 401 0032 002B     		cmp	r3, #0
 402 0034 06D0     		beq	.L24
 403              		.loc 5 132 0
 404 0036 019B     		ldr	r3, [sp, #4]
 405 0038 9B68     		ldr	r3, [r3, #8]
 406 003a 019A     		ldr	r2, [sp, #4]
 407 003c 5268     		ldr	r2, [r2, #4]
 408 003e 1046     		mov	r0, r2
 409 0040 9847     		blx	r3
 410              	.LVL0:
 411 0042 0390     		str	r0, [sp, #12]
 412              	.L24:
 413              		.loc 5 136 0
 414 0044 039B     		ldr	r3, [sp, #12]
 415              		.loc 5 137 0
 416 0046 1846     		mov	r0, r3
 417 0048 05B0     		add	sp, sp, #20
 418              		.cfi_def_cfa_offset 4
 419              		@ sp needed
 420 004a 5DF804FB 		ldr	pc, [sp], #4
 421              	.L27:
 422 004e 00BF     		.align	2
 423              	.L26:
 424 0050 00000000 		.word	__func__.7873
 425              		.cfi_endproc
 426              	.LFE233:
 427              		.size	chPoolAllocI, .-chPoolAllocI
 428              		.section	.text.chPoolAlloc,"ax",%progbits
 429              		.align	1
 430              		.p2align 4,,15
 431              		.global	chPoolAlloc
 432              		.syntax unified
 433              		.thumb
 434              		.thumb_func
 435              		.fpu fpv4-sp-d16
 436              		.type	chPoolAlloc, %function
 437              	chPoolAlloc:
 438              	.LFB234:
 439              		.loc 5 149 0
 440              		.cfi_startproc
 441              		@ args = 0, pretend = 0, frame = 16
 442              		@ frame_needed = 0, uses_anonymous_args = 0
 443 0000 00B5     		push	{lr}
 444              		.cfi_def_cfa_offset 4
 445              		.cfi_offset 14, -4
 446 0002 85B0     		sub	sp, sp, #20
 447              		.cfi_def_cfa_offset 24
 448 0004 0190     		str	r0, [sp, #4]
 449              		.loc 5 152 0
 450 0006 FFF7FEFF 		bl	chSysLock
 451              		.loc 5 153 0
 452 000a 0198     		ldr	r0, [sp, #4]
 453 000c FFF7FEFF 		bl	chPoolAllocI
 454 0010 0390     		str	r0, [sp, #12]
 455              		.loc 5 154 0
 456 0012 FFF7FEFF 		bl	chSysUnlock
ARM GAS  /tmp/ccHLzgdL.s 			page 9


 457              		.loc 5 156 0
 458 0016 039B     		ldr	r3, [sp, #12]
 459              		.loc 5 157 0
 460 0018 1846     		mov	r0, r3
 461 001a 05B0     		add	sp, sp, #20
 462              		.cfi_def_cfa_offset 4
 463              		@ sp needed
 464 001c 5DF804FB 		ldr	pc, [sp], #4
 465              		.cfi_endproc
 466              	.LFE234:
 467              		.size	chPoolAlloc, .-chPoolAlloc
 468              		.section	.text.chPoolFreeI,"ax",%progbits
 469              		.align	1
 470              		.p2align 4,,15
 471              		.global	chPoolFreeI
 472              		.syntax unified
 473              		.thumb
 474              		.thumb_func
 475              		.fpu fpv4-sp-d16
 476              		.type	chPoolFreeI, %function
 477              	chPoolFreeI:
 478              	.LFB235:
 479              		.loc 5 171 0
 480              		.cfi_startproc
 481              		@ args = 0, pretend = 0, frame = 16
 482              		@ frame_needed = 0, uses_anonymous_args = 0
 483 0000 00B5     		push	{lr}
 484              		.cfi_def_cfa_offset 4
 485              		.cfi_offset 14, -4
 486 0002 85B0     		sub	sp, sp, #20
 487              		.cfi_def_cfa_offset 24
 488 0004 0190     		str	r0, [sp, #4]
 489 0006 0091     		str	r1, [sp]
 490              		.loc 5 172 0
 491 0008 009B     		ldr	r3, [sp]
 492 000a 0393     		str	r3, [sp, #12]
 493              		.loc 5 174 0
 494 000c FFF7FEFF 		bl	chDbgCheckClassI
 495              		.loc 5 175 0
 496 0010 019B     		ldr	r3, [sp, #4]
 497 0012 002B     		cmp	r3, #0
 498 0014 02D0     		beq	.L31
 499              		.loc 5 175 0 is_stmt 0 discriminator 3
 500 0016 009B     		ldr	r3, [sp]
 501 0018 002B     		cmp	r3, #0
 502 001a 02D1     		bne	.L32
 503              	.L31:
 504              		.loc 5 175 0 discriminator 4
 505 001c 0648     		ldr	r0, .L33
 506 001e FFF7FEFF 		bl	chSysHalt
 507              	.L32:
 508              		.loc 5 177 0 is_stmt 1
 509 0022 019B     		ldr	r3, [sp, #4]
 510 0024 1A68     		ldr	r2, [r3]
 511 0026 039B     		ldr	r3, [sp, #12]
 512 0028 1A60     		str	r2, [r3]
 513              		.loc 5 178 0
ARM GAS  /tmp/ccHLzgdL.s 			page 10


 514 002a 019B     		ldr	r3, [sp, #4]
 515 002c 039A     		ldr	r2, [sp, #12]
 516 002e 1A60     		str	r2, [r3]
 517              		.loc 5 179 0
 518 0030 00BF     		nop
 519 0032 05B0     		add	sp, sp, #20
 520              		.cfi_def_cfa_offset 4
 521              		@ sp needed
 522 0034 5DF804FB 		ldr	pc, [sp], #4
 523              	.L34:
 524              		.align	2
 525              	.L33:
 526 0038 00000000 		.word	__func__.7883
 527              		.cfi_endproc
 528              	.LFE235:
 529              		.size	chPoolFreeI, .-chPoolFreeI
 530              		.section	.text.chPoolFree,"ax",%progbits
 531              		.align	1
 532              		.p2align 4,,15
 533              		.global	chPoolFree
 534              		.syntax unified
 535              		.thumb
 536              		.thumb_func
 537              		.fpu fpv4-sp-d16
 538              		.type	chPoolFree, %function
 539              	chPoolFree:
 540              	.LFB236:
 541              		.loc 5 193 0
 542              		.cfi_startproc
 543              		@ args = 0, pretend = 0, frame = 8
 544              		@ frame_needed = 0, uses_anonymous_args = 0
 545 0000 00B5     		push	{lr}
 546              		.cfi_def_cfa_offset 4
 547              		.cfi_offset 14, -4
 548 0002 83B0     		sub	sp, sp, #12
 549              		.cfi_def_cfa_offset 16
 550 0004 0190     		str	r0, [sp, #4]
 551 0006 0091     		str	r1, [sp]
 552              		.loc 5 195 0
 553 0008 FFF7FEFF 		bl	chSysLock
 554              		.loc 5 196 0
 555 000c 0099     		ldr	r1, [sp]
 556 000e 0198     		ldr	r0, [sp, #4]
 557 0010 FFF7FEFF 		bl	chPoolFreeI
 558              		.loc 5 197 0
 559 0014 FFF7FEFF 		bl	chSysUnlock
 560              		.loc 5 198 0
 561 0018 00BF     		nop
 562 001a 03B0     		add	sp, sp, #12
 563              		.cfi_def_cfa_offset 4
 564              		@ sp needed
 565 001c 5DF804FB 		ldr	pc, [sp], #4
 566              		.cfi_endproc
 567              	.LFE236:
 568              		.size	chPoolFree, .-chPoolFree
 569              		.section	.rodata.__func__.7859,"a",%progbits
 570              		.align	2
ARM GAS  /tmp/ccHLzgdL.s 			page 11


 571              		.type	__func__.7859, %object
 572              		.size	__func__.7859, 17
 573              	__func__.7859:
 574 0000 6368506F 		.ascii	"chPoolObjectInit\000"
 574      6F6C4F62 
 574      6A656374 
 574      496E6974 
 574      00
 575              		.section	.rodata.__func__.7865,"a",%progbits
 576              		.align	2
 577              		.type	__func__.7865, %object
 578              		.size	__func__.7865, 16
 579              	__func__.7865:
 580 0000 6368506F 		.ascii	"chPoolLoadArray\000"
 580      6F6C4C6F 
 580      61644172 
 580      72617900 
 581              		.section	.rodata.__func__.7873,"a",%progbits
 582              		.align	2
 583              		.type	__func__.7873, %object
 584              		.size	__func__.7873, 13
 585              	__func__.7873:
 586 0000 6368506F 		.ascii	"chPoolAllocI\000"
 586      6F6C416C 
 586      6C6F6349 
 586      00
 587              		.section	.rodata.__func__.7157,"a",%progbits
 588              		.align	2
 589              		.type	__func__.7157, %object
 590              		.size	__func__.7157, 12
 591              	__func__.7157:
 592 0000 63685379 		.ascii	"chSysUnlock\000"
 592      73556E6C 
 592      6F636B00 
 593              		.section	.rodata.__func__.7883,"a",%progbits
 594              		.align	2
 595              		.type	__func__.7883, %object
 596              		.size	__func__.7883, 12
 597              	__func__.7883:
 598 0000 6368506F 		.ascii	"chPoolFreeI\000"
 598      6F6C4672 
 598      65654900 
 599              		.text
 600              	.Letext0:
 601              		.file 6 "/usr/lib/gcc/arm-none-eabi/6.3.1/include/stddef.h"
 602              		.file 7 "/usr/arm-none-eabi/include/machine/_default_types.h"
 603              		.file 8 "/usr/arm-none-eabi/include/sys/_stdint.h"
 604              		.file 9 "../ChibiOS/os/rt/ports/ARMCMx/compilers/GCC/chtypes.h"
 605              		.file 10 "../ChibiOS/os/rt/include/chsystypes.h"
 606              		.file 11 "../ChibiOS/os/rt/include/chschd.h"
 607              		.file 12 "../ChibiOS/os/ext/CMSIS/include/core_cm4.h"
 608              		.file 13 "../ChibiOS/os/ext/CMSIS/ST/STM32F4xx/system_stm32f4xx.h"
 609              		.file 14 "../ChibiOS/os/rt/ports/ARMCMx/chcore.h"
 610              		.file 15 "../ChibiOS/os/rt/include/chtm.h"
 611              		.file 16 "../ChibiOS/os/rt/include/chstats.h"
 612              		.file 17 "../ChibiOS/os/rt/include/chsem.h"
 613              		.file 18 "../ChibiOS/os/rt/include/chmtx.h"
ARM GAS  /tmp/ccHLzgdL.s 			page 12


 614              		.file 19 "../ChibiOS/os/rt/include/chregistry.h"
 615              		.file 20 "../ChibiOS/os/rt/include/chmemcore.h"