ARM GAS  /tmp/ccwmDzl4.s 			page 1


   1              		.cpu cortex-m4
   2              		.eabi_attribute 27, 1
   3              		.eabi_attribute 28, 1
   4              		.eabi_attribute 20, 1
   5              		.eabi_attribute 21, 1
   6              		.eabi_attribute 23, 3
   7              		.eabi_attribute 24, 1
   8              		.eabi_attribute 25, 1
   9              		.eabi_attribute 26, 1
  10              		.eabi_attribute 30, 6
  11              		.eabi_attribute 34, 1
  12              		.eabi_attribute 18, 4
  13              		.file	"chschd.c"
  14              		.text
  15              	.Ltext0:
  16              		.cfi_sections	.debug_frame
  17              		.section	.text.port_lock,"ax",%progbits
  18              		.align	1
  19              		.p2align 4,,15
  20              		.syntax unified
  21              		.thumb
  22              		.thumb_func
  23              		.fpu fpv4-sp-d16
  24              		.type	port_lock, %function
  25              	port_lock:
  26              	.LFB127:
  27              		.file 1 "../ChibiOS/os/rt/ports/ARMCMx/chcore_v7m.h"
  28              		.loc 1 456 0
  29              		.cfi_startproc
  30              		@ args = 0, pretend = 0, frame = 8
  31              		@ frame_needed = 0, uses_anonymous_args = 0
  32              		@ link register save eliminated.
  33 0000 82B0     		sub	sp, sp, #8
  34              		.cfi_def_cfa_offset 8
  35 0002 2023     		movs	r3, #32
  36 0004 0193     		str	r3, [sp, #4]
  37              	.LBB19:
  38              	.LBB20:
  39              		.file 2 "../ChibiOS/os/ext/CMSIS/include/core_cmFunc.h"
  40              		.loc 2 548 0
  41 0006 019B     		ldr	r3, [sp, #4]
  42              		.syntax unified
  43              	@ 548 "../ChibiOS/os/ext/CMSIS/include/core_cmFunc.h" 1
  44 0008 83F31188 		MSR basepri, r3
  45              	@ 0 "" 2
  46              		.thumb
  47              		.syntax unified
  48              	.LBE20:
  49              	.LBE19:
  50              		.loc 1 473 0
  51 000c 00BF     		nop
  52 000e 02B0     		add	sp, sp, #8
  53              		.cfi_def_cfa_offset 0
  54              		@ sp needed
  55 0010 7047     		bx	lr
  56              		.cfi_endproc
  57              	.LFE127:
ARM GAS  /tmp/ccwmDzl4.s 			page 2


  58              		.size	port_lock, .-port_lock
  59 0012 00BF     		.section	.text.port_unlock,"ax",%progbits
  60              		.align	1
  61              		.p2align 4,,15
  62              		.syntax unified
  63              		.thumb
  64              		.thumb_func
  65              		.fpu fpv4-sp-d16
  66              		.type	port_unlock, %function
  67              	port_unlock:
  68              	.LFB128:
  69              		.loc 1 480 0
  70              		.cfi_startproc
  71              		@ args = 0, pretend = 0, frame = 8
  72              		@ frame_needed = 0, uses_anonymous_args = 0
  73              		@ link register save eliminated.
  74 0000 82B0     		sub	sp, sp, #8
  75              		.cfi_def_cfa_offset 8
  76 0002 0023     		movs	r3, #0
  77 0004 0193     		str	r3, [sp, #4]
  78              	.LBB21:
  79              	.LBB22:
  80              		.loc 2 548 0
  81 0006 019B     		ldr	r3, [sp, #4]
  82              		.syntax unified
  83              	@ 548 "../ChibiOS/os/ext/CMSIS/include/core_cmFunc.h" 1
  84 0008 83F31188 		MSR basepri, r3
  85              	@ 0 "" 2
  86              		.thumb
  87              		.syntax unified
  88              	.LBE22:
  89              	.LBE21:
  90              		.loc 1 487 0
  91 000c 00BF     		nop
  92 000e 02B0     		add	sp, sp, #8
  93              		.cfi_def_cfa_offset 0
  94              		@ sp needed
  95 0010 7047     		bx	lr
  96              		.cfi_endproc
  97              	.LFE128:
  98              		.size	port_unlock, .-port_unlock
  99 0012 00BF     		.section	.text.port_lock_from_isr,"ax",%progbits
 100              		.align	1
 101              		.p2align 4,,15
 102              		.syntax unified
 103              		.thumb
 104              		.thumb_func
 105              		.fpu fpv4-sp-d16
 106              		.type	port_lock_from_isr, %function
 107              	port_lock_from_isr:
 108              	.LFB129:
 109              		.loc 1 495 0
 110              		.cfi_startproc
 111              		@ args = 0, pretend = 0, frame = 0
 112              		@ frame_needed = 0, uses_anonymous_args = 0
 113 0000 08B5     		push	{r3, lr}
 114              		.cfi_def_cfa_offset 8
ARM GAS  /tmp/ccwmDzl4.s 			page 3


 115              		.cfi_offset 3, -8
 116              		.cfi_offset 14, -4
 117              		.loc 1 497 0
 118 0002 FFF7FEFF 		bl	port_lock
 119              		.loc 1 498 0
 120 0006 00BF     		nop
 121 0008 08BD     		pop	{r3, pc}
 122              		.cfi_endproc
 123              	.LFE129:
 124              		.size	port_lock_from_isr, .-port_lock_from_isr
 125              		.section	.text.port_unlock_from_isr,"ax",%progbits
 126              		.align	1
 127              		.p2align 4,,15
 128              		.syntax unified
 129              		.thumb
 130              		.thumb_func
 131              		.fpu fpv4-sp-d16
 132              		.type	port_unlock_from_isr, %function
 133              	port_unlock_from_isr:
 134              	.LFB130:
 135              		.loc 1 506 0
 136              		.cfi_startproc
 137              		@ args = 0, pretend = 0, frame = 0
 138              		@ frame_needed = 0, uses_anonymous_args = 0
 139 0000 08B5     		push	{r3, lr}
 140              		.cfi_def_cfa_offset 8
 141              		.cfi_offset 3, -8
 142              		.cfi_offset 14, -4
 143              		.loc 1 508 0
 144 0002 FFF7FEFF 		bl	port_unlock
 145              		.loc 1 509 0
 146 0006 00BF     		nop
 147 0008 08BD     		pop	{r3, pc}
 148              		.cfi_endproc
 149              	.LFE130:
 150              		.size	port_unlock_from_isr, .-port_unlock_from_isr
 151              		.section	.text.queue_init,"ax",%progbits
 152              		.align	1
 153              		.p2align 4,,15
 154              		.syntax unified
 155              		.thumb
 156              		.thumb_func
 157              		.fpu fpv4-sp-d16
 158              		.type	queue_init, %function
 159              	queue_init:
 160              	.LFB139:
 161              		.file 3 "../ChibiOS/os/rt/include/chschd.h"
 162              		.loc 3 602 0
 163              		.cfi_startproc
 164              		@ args = 0, pretend = 0, frame = 8
 165              		@ frame_needed = 0, uses_anonymous_args = 0
 166              		@ link register save eliminated.
 167 0000 82B0     		sub	sp, sp, #8
 168              		.cfi_def_cfa_offset 8
 169 0002 0190     		str	r0, [sp, #4]
 170              		.loc 3 604 0
 171 0004 019B     		ldr	r3, [sp, #4]
ARM GAS  /tmp/ccwmDzl4.s 			page 4


 172 0006 019A     		ldr	r2, [sp, #4]
 173 0008 1A60     		str	r2, [r3]
 174              		.loc 3 605 0
 175 000a 019B     		ldr	r3, [sp, #4]
 176 000c 019A     		ldr	r2, [sp, #4]
 177 000e 5A60     		str	r2, [r3, #4]
 178              		.loc 3 606 0
 179 0010 00BF     		nop
 180 0012 02B0     		add	sp, sp, #8
 181              		.cfi_def_cfa_offset 0
 182              		@ sp needed
 183 0014 7047     		bx	lr
 184              		.cfi_endproc
 185              	.LFE139:
 186              		.size	queue_init, .-queue_init
 187              		.section	.text.queue_fifo_remove,"ax",%progbits
 188              		.align	1
 189              		.p2align 4,,15
 190              		.syntax unified
 191              		.thumb
 192              		.thumb_func
 193              		.fpu fpv4-sp-d16
 194              		.type	queue_fifo_remove, %function
 195              	queue_fifo_remove:
 196              	.LFB146:
 197              		.loc 3 671 0
 198              		.cfi_startproc
 199              		@ args = 0, pretend = 0, frame = 16
 200              		@ frame_needed = 0, uses_anonymous_args = 0
 201              		@ link register save eliminated.
 202 0000 84B0     		sub	sp, sp, #16
 203              		.cfi_def_cfa_offset 16
 204 0002 0190     		str	r0, [sp, #4]
 205              		.loc 3 672 0
 206 0004 019B     		ldr	r3, [sp, #4]
 207 0006 1B68     		ldr	r3, [r3]
 208 0008 0393     		str	r3, [sp, #12]
 209              		.loc 3 674 0
 210 000a 039B     		ldr	r3, [sp, #12]
 211 000c 1A68     		ldr	r2, [r3]
 212 000e 019B     		ldr	r3, [sp, #4]
 213 0010 1A60     		str	r2, [r3]
 214              		.loc 3 675 0
 215 0012 019B     		ldr	r3, [sp, #4]
 216 0014 1B68     		ldr	r3, [r3]
 217 0016 019A     		ldr	r2, [sp, #4]
 218 0018 5A60     		str	r2, [r3, #4]
 219              		.loc 3 677 0
 220 001a 039B     		ldr	r3, [sp, #12]
 221              		.loc 3 678 0
 222 001c 1846     		mov	r0, r3
 223 001e 04B0     		add	sp, sp, #16
 224              		.cfi_def_cfa_offset 0
 225              		@ sp needed
 226 0020 7047     		bx	lr
 227              		.cfi_endproc
 228              	.LFE146:
ARM GAS  /tmp/ccwmDzl4.s 			page 5


 229              		.size	queue_fifo_remove, .-queue_fifo_remove
 230 0022 00BF     		.section	.text.queue_dequeue,"ax",%progbits
 231              		.align	1
 232              		.p2align 4,,15
 233              		.syntax unified
 234              		.thumb
 235              		.thumb_func
 236              		.fpu fpv4-sp-d16
 237              		.type	queue_dequeue, %function
 238              	queue_dequeue:
 239              	.LFB148:
 240              		.loc 3 689 0
 241              		.cfi_startproc
 242              		@ args = 0, pretend = 0, frame = 8
 243              		@ frame_needed = 0, uses_anonymous_args = 0
 244              		@ link register save eliminated.
 245 0000 82B0     		sub	sp, sp, #8
 246              		.cfi_def_cfa_offset 8
 247 0002 0190     		str	r0, [sp, #4]
 248              		.loc 3 691 0
 249 0004 019B     		ldr	r3, [sp, #4]
 250 0006 5B68     		ldr	r3, [r3, #4]
 251 0008 019A     		ldr	r2, [sp, #4]
 252 000a 1268     		ldr	r2, [r2]
 253 000c 1A60     		str	r2, [r3]
 254              		.loc 3 692 0
 255 000e 019B     		ldr	r3, [sp, #4]
 256 0010 1B68     		ldr	r3, [r3]
 257 0012 019A     		ldr	r2, [sp, #4]
 258 0014 5268     		ldr	r2, [r2, #4]
 259 0016 5A60     		str	r2, [r3, #4]
 260              		.loc 3 694 0
 261 0018 019B     		ldr	r3, [sp, #4]
 262              		.loc 3 695 0
 263 001a 1846     		mov	r0, r3
 264 001c 02B0     		add	sp, sp, #8
 265              		.cfi_def_cfa_offset 0
 266              		@ sp needed
 267 001e 7047     		bx	lr
 268              		.cfi_endproc
 269              	.LFE148:
 270              		.size	queue_dequeue, .-queue_dequeue
 271              		.section	.text.chSchIsRescRequiredI,"ax",%progbits
 272              		.align	1
 273              		.p2align 4,,15
 274              		.syntax unified
 275              		.thumb
 276              		.thumb_func
 277              		.fpu fpv4-sp-d16
 278              		.type	chSchIsRescRequiredI, %function
 279              	chSchIsRescRequiredI:
 280              	.LFB149:
 281              		.loc 3 709 0
 282              		.cfi_startproc
 283              		@ args = 0, pretend = 0, frame = 0
 284              		@ frame_needed = 0, uses_anonymous_args = 0
 285 0000 08B5     		push	{r3, lr}
ARM GAS  /tmp/ccwmDzl4.s 			page 6


 286              		.cfi_def_cfa_offset 8
 287              		.cfi_offset 3, -8
 288              		.cfi_offset 14, -4
 289              		.loc 3 711 0
 290 0002 FFF7FEFF 		bl	chDbgCheckClassI
 291              		.loc 3 713 0
 292 0006 064B     		ldr	r3, .L12
 293 0008 1B68     		ldr	r3, [r3]
 294 000a 9A68     		ldr	r2, [r3, #8]
 295 000c 044B     		ldr	r3, .L12
 296 000e 9B69     		ldr	r3, [r3, #24]
 297 0010 9B68     		ldr	r3, [r3, #8]
 298 0012 9A42     		cmp	r2, r3
 299 0014 8CBF     		ite	hi
 300 0016 0123     		movhi	r3, #1
 301 0018 0023     		movls	r3, #0
 302 001a DBB2     		uxtb	r3, r3
 303              		.loc 3 714 0
 304 001c 1846     		mov	r0, r3
 305 001e 08BD     		pop	{r3, pc}
 306              	.L13:
 307              		.align	2
 308              	.L12:
 309 0020 00000000 		.word	ch
 310              		.cfi_endproc
 311              	.LFE149:
 312              		.size	chSchIsRescRequiredI, .-chSchIsRescRequiredI
 313              		.section	.text.chSysLockFromISR,"ax",%progbits
 314              		.align	1
 315              		.p2align 4,,15
 316              		.syntax unified
 317              		.thumb
 318              		.thumb_func
 319              		.fpu fpv4-sp-d16
 320              		.type	chSysLockFromISR, %function
 321              	chSysLockFromISR:
 322              	.LFB158:
 323              		.file 4 "../ChibiOS/os/rt/include/chsys.h"
 324              		.loc 4 386 0
 325              		.cfi_startproc
 326              		@ args = 0, pretend = 0, frame = 0
 327              		@ frame_needed = 0, uses_anonymous_args = 0
 328 0000 08B5     		push	{r3, lr}
 329              		.cfi_def_cfa_offset 8
 330              		.cfi_offset 3, -8
 331              		.cfi_offset 14, -4
 332              		.loc 4 388 0
 333 0002 FFF7FEFF 		bl	port_lock_from_isr
 334              		.loc 4 389 0
 335 0006 FFF7FEFF 		bl	_stats_start_measure_crit_isr
 336              		.loc 4 390 0
 337 000a FFF7FEFF 		bl	_dbg_check_lock_from_isr
 338              		.loc 4 391 0
 339 000e 00BF     		nop
 340 0010 08BD     		pop	{r3, pc}
 341              		.cfi_endproc
 342              	.LFE158:
ARM GAS  /tmp/ccwmDzl4.s 			page 7


 343              		.size	chSysLockFromISR, .-chSysLockFromISR
 344 0012 00BF     		.section	.text.chSysUnlockFromISR,"ax",%progbits
 345              		.align	1
 346              		.p2align 4,,15
 347              		.syntax unified
 348              		.thumb
 349              		.thumb_func
 350              		.fpu fpv4-sp-d16
 351              		.type	chSysUnlockFromISR, %function
 352              	chSysUnlockFromISR:
 353              	.LFB159:
 354              		.loc 4 406 0
 355              		.cfi_startproc
 356              		@ args = 0, pretend = 0, frame = 0
 357              		@ frame_needed = 0, uses_anonymous_args = 0
 358 0000 08B5     		push	{r3, lr}
 359              		.cfi_def_cfa_offset 8
 360              		.cfi_offset 3, -8
 361              		.cfi_offset 14, -4
 362              		.loc 4 408 0
 363 0002 FFF7FEFF 		bl	_dbg_check_unlock_from_isr
 364              		.loc 4 409 0
 365 0006 FFF7FEFF 		bl	_stats_stop_measure_crit_isr
 366              		.loc 4 410 0
 367 000a FFF7FEFF 		bl	port_unlock_from_isr
 368              		.loc 4 411 0
 369 000e 00BF     		nop
 370 0010 08BD     		pop	{r3, pc}
 371              		.cfi_endproc
 372              	.LFE159:
 373              		.size	chSysUnlockFromISR, .-chSysUnlockFromISR
 374 0012 00BF     		.section	.text.chVTIsArmedI,"ax",%progbits
 375              		.align	1
 376              		.p2align 4,,15
 377              		.syntax unified
 378              		.thumb
 379              		.thumb_func
 380              		.fpu fpv4-sp-d16
 381              		.type	chVTIsArmedI, %function
 382              	chVTIsArmedI:
 383              	.LFB171:
 384              		.file 5 "../ChibiOS/os/rt/include/chvt.h"
 385              		.loc 5 373 0
 386              		.cfi_startproc
 387              		@ args = 0, pretend = 0, frame = 8
 388              		@ frame_needed = 0, uses_anonymous_args = 0
 389 0000 00B5     		push	{lr}
 390              		.cfi_def_cfa_offset 4
 391              		.cfi_offset 14, -4
 392 0002 83B0     		sub	sp, sp, #12
 393              		.cfi_def_cfa_offset 16
 394 0004 0190     		str	r0, [sp, #4]
 395              		.loc 5 375 0
 396 0006 FFF7FEFF 		bl	chDbgCheckClassI
 397              		.loc 5 377 0
 398 000a 019B     		ldr	r3, [sp, #4]
 399 000c DB68     		ldr	r3, [r3, #12]
ARM GAS  /tmp/ccwmDzl4.s 			page 8


 400 000e 002B     		cmp	r3, #0
 401 0010 14BF     		ite	ne
 402 0012 0123     		movne	r3, #1
 403 0014 0023     		moveq	r3, #0
 404 0016 DBB2     		uxtb	r3, r3
 405              		.loc 5 378 0
 406 0018 1846     		mov	r0, r3
 407 001a 03B0     		add	sp, sp, #12
 408              		.cfi_def_cfa_offset 4
 409              		@ sp needed
 410 001c 5DF804FB 		ldr	pc, [sp], #4
 411              		.cfi_endproc
 412              	.LFE171:
 413              		.size	chVTIsArmedI, .-chVTIsArmedI
 414              		.section	.text.chSemFastSignalI,"ax",%progbits
 415              		.align	1
 416              		.p2align 4,,15
 417              		.syntax unified
 418              		.thumb
 419              		.thumb_func
 420              		.fpu fpv4-sp-d16
 421              		.type	chSemFastSignalI, %function
 422              	chSemFastSignalI:
 423              	.LFB191:
 424              		.file 6 "../ChibiOS/os/rt/include/chsem.h"
 425              		.loc 6 134 0
 426              		.cfi_startproc
 427              		@ args = 0, pretend = 0, frame = 8
 428              		@ frame_needed = 0, uses_anonymous_args = 0
 429 0000 00B5     		push	{lr}
 430              		.cfi_def_cfa_offset 4
 431              		.cfi_offset 14, -4
 432 0002 83B0     		sub	sp, sp, #12
 433              		.cfi_def_cfa_offset 16
 434 0004 0190     		str	r0, [sp, #4]
 435              		.loc 6 136 0
 436 0006 FFF7FEFF 		bl	chDbgCheckClassI
 437              		.loc 6 138 0
 438 000a 019B     		ldr	r3, [sp, #4]
 439 000c 9B68     		ldr	r3, [r3, #8]
 440 000e 5A1C     		adds	r2, r3, #1
 441 0010 019B     		ldr	r3, [sp, #4]
 442 0012 9A60     		str	r2, [r3, #8]
 443              		.loc 6 139 0
 444 0014 00BF     		nop
 445 0016 03B0     		add	sp, sp, #12
 446              		.cfi_def_cfa_offset 4
 447              		@ sp needed
 448 0018 5DF804FB 		ldr	pc, [sp], #4
 449              		.cfi_endproc
 450              	.LFE191:
 451              		.size	chSemFastSignalI, .-chSemFastSignalI
 452              		.global	ch
 453              		.section	.bss.ch,"aw",%nobits
 454              		.align	3
 455              		.type	ch, %object
 456              		.size	ch, 600
ARM GAS  /tmp/ccwmDzl4.s 			page 9


 457              	ch:
 458 0000 00000000 		.space	600
 458      00000000 
 458      00000000 
 458      00000000 
 458      00000000 
 459              		.section	.text._scheduler_init,"ax",%progbits
 460              		.align	1
 461              		.p2align 4,,15
 462              		.global	_scheduler_init
 463              		.syntax unified
 464              		.thumb
 465              		.thumb_func
 466              		.fpu fpv4-sp-d16
 467              		.type	_scheduler_init, %function
 468              	_scheduler_init:
 469              	.LFB231:
 470              		.file 7 "../ChibiOS/os/rt/src/chschd.c"
 471              		.loc 7 65 0
 472              		.cfi_startproc
 473              		@ args = 0, pretend = 0, frame = 0
 474              		@ frame_needed = 0, uses_anonymous_args = 0
 475 0000 08B5     		push	{r3, lr}
 476              		.cfi_def_cfa_offset 8
 477              		.cfi_offset 3, -8
 478              		.cfi_offset 14, -4
 479              		.loc 7 67 0
 480 0002 0748     		ldr	r0, .L20
 481 0004 FFF7FEFF 		bl	queue_init
 482              		.loc 7 68 0
 483 0008 054B     		ldr	r3, .L20
 484 000a 0022     		movs	r2, #0
 485 000c 9A60     		str	r2, [r3, #8]
 486              		.loc 7 70 0
 487 000e 044B     		ldr	r3, .L20
 488 0010 034A     		ldr	r2, .L20
 489 0012 1A61     		str	r2, [r3, #16]
 490              		.loc 7 71 0
 491 0014 024B     		ldr	r3, .L20
 492 0016 024A     		ldr	r2, .L20
 493 0018 5A61     		str	r2, [r3, #20]
 494              		.loc 7 73 0
 495 001a 00BF     		nop
 496 001c 08BD     		pop	{r3, pc}
 497              	.L21:
 498 001e 00BF     		.align	2
 499              	.L20:
 500 0020 00000000 		.word	ch
 501              		.cfi_endproc
 502              	.LFE231:
 503              		.size	_scheduler_init, .-_scheduler_init
 504              		.section	.text.chSchReadyI,"ax",%progbits
 505              		.align	1
 506              		.p2align 4,,15
 507              		.global	chSchReadyI
 508              		.syntax unified
 509              		.thumb
ARM GAS  /tmp/ccwmDzl4.s 			page 10


 510              		.thumb_func
 511              		.fpu fpv4-sp-d16
 512              		.type	chSchReadyI, %function
 513              	chSchReadyI:
 514              	.LFB232:
 515              		.loc 7 218 0
 516              		.cfi_startproc
 517              		@ args = 0, pretend = 0, frame = 16
 518              		@ frame_needed = 0, uses_anonymous_args = 0
 519 0000 00B5     		push	{lr}
 520              		.cfi_def_cfa_offset 4
 521              		.cfi_offset 14, -4
 522 0002 85B0     		sub	sp, sp, #20
 523              		.cfi_def_cfa_offset 24
 524 0004 0190     		str	r0, [sp, #4]
 525              		.loc 7 221 0
 526 0006 FFF7FEFF 		bl	chDbgCheckClassI
 527              		.loc 7 222 0
 528 000a 019B     		ldr	r3, [sp, #4]
 529 000c 002B     		cmp	r3, #0
 530 000e 02D1     		bne	.L28
 531              		.loc 7 222 0 is_stmt 0 discriminator 2
 532 0010 1848     		ldr	r0, .L29
 533 0012 FFF7FEFF 		bl	chSysHalt
 534              	.L28:
 535              		.loc 7 223 0 is_stmt 1 discriminator 1
 536 0016 019B     		ldr	r3, [sp, #4]
 537 0018 93F82030 		ldrb	r3, [r3, #32]	@ zero_extendqisi2
 538 001c 002B     		cmp	r3, #0
 539 001e 04D0     		beq	.L24
 540              		.loc 7 223 0 is_stmt 0 discriminator 3
 541 0020 019B     		ldr	r3, [sp, #4]
 542 0022 93F82030 		ldrb	r3, [r3, #32]	@ zero_extendqisi2
 543 0026 0F2B     		cmp	r3, #15
 544 0028 02D1     		bne	.L25
 545              	.L24:
 546              		.loc 7 223 0 discriminator 4
 547 002a 1248     		ldr	r0, .L29
 548 002c FFF7FEFF 		bl	chSysHalt
 549              	.L25:
 550              		.loc 7 227 0 is_stmt 1
 551 0030 019B     		ldr	r3, [sp, #4]
 552 0032 0022     		movs	r2, #0
 553 0034 83F82020 		strb	r2, [r3, #32]
 554              		.loc 7 228 0
 555 0038 0F4B     		ldr	r3, .L29+4
 556 003a 0393     		str	r3, [sp, #12]
 557              	.L26:
 558              		.loc 7 230 0 discriminator 1
 559 003c 039B     		ldr	r3, [sp, #12]
 560 003e 1B68     		ldr	r3, [r3]
 561 0040 0393     		str	r3, [sp, #12]
 562              		.loc 7 231 0 discriminator 1
 563 0042 039B     		ldr	r3, [sp, #12]
 564 0044 9A68     		ldr	r2, [r3, #8]
 565 0046 019B     		ldr	r3, [sp, #4]
 566 0048 9B68     		ldr	r3, [r3, #8]
ARM GAS  /tmp/ccwmDzl4.s 			page 11


 567 004a 9A42     		cmp	r2, r3
 568 004c F6D2     		bcs	.L26
 569              		.loc 7 233 0
 570 004e 019B     		ldr	r3, [sp, #4]
 571 0050 039A     		ldr	r2, [sp, #12]
 572 0052 1A60     		str	r2, [r3]
 573              		.loc 7 234 0
 574 0054 039B     		ldr	r3, [sp, #12]
 575 0056 5A68     		ldr	r2, [r3, #4]
 576 0058 019B     		ldr	r3, [sp, #4]
 577 005a 5A60     		str	r2, [r3, #4]
 578              		.loc 7 235 0
 579 005c 019B     		ldr	r3, [sp, #4]
 580 005e 5B68     		ldr	r3, [r3, #4]
 581 0060 019A     		ldr	r2, [sp, #4]
 582 0062 1A60     		str	r2, [r3]
 583              		.loc 7 236 0
 584 0064 039B     		ldr	r3, [sp, #12]
 585 0066 019A     		ldr	r2, [sp, #4]
 586 0068 5A60     		str	r2, [r3, #4]
 587              		.loc 7 238 0
 588 006a 019B     		ldr	r3, [sp, #4]
 589              		.loc 7 239 0
 590 006c 1846     		mov	r0, r3
 591 006e 05B0     		add	sp, sp, #20
 592              		.cfi_def_cfa_offset 4
 593              		@ sp needed
 594 0070 5DF804FB 		ldr	pc, [sp], #4
 595              	.L30:
 596              		.align	2
 597              	.L29:
 598 0074 00000000 		.word	__func__.7862
 599 0078 00000000 		.word	ch
 600              		.cfi_endproc
 601              	.LFE232:
 602              		.size	chSchReadyI, .-chSchReadyI
 603              		.section	.rodata
 604              		.align	2
 605              	.LC0:
 606 0000 73746163 		.ascii	"stack overflow\000"
 606      6B206F76 
 606      6572666C 
 606      6F7700
 607              		.section	.text.chSchGoSleepS,"ax",%progbits
 608              		.align	1
 609              		.p2align 4,,15
 610              		.global	chSchGoSleepS
 611              		.syntax unified
 612              		.thumb
 613              		.thumb_func
 614              		.fpu fpv4-sp-d16
 615              		.type	chSchGoSleepS, %function
 616              	chSchGoSleepS:
 617              	.LFB233:
 618              		.loc 7 250 0
 619              		.cfi_startproc
 620              		@ args = 0, pretend = 0, frame = 16
ARM GAS  /tmp/ccwmDzl4.s 			page 12


 621              		@ frame_needed = 0, uses_anonymous_args = 0
 622 0000 10B5     		push	{r4, lr}
 623              		.cfi_def_cfa_offset 8
 624              		.cfi_offset 4, -8
 625              		.cfi_offset 14, -4
 626 0002 84B0     		sub	sp, sp, #16
 627              		.cfi_def_cfa_offset 24
 628 0004 0346     		mov	r3, r0
 629 0006 8DF80730 		strb	r3, [sp, #7]
 630              		.loc 7 253 0
 631 000a FFF7FEFF 		bl	chDbgCheckClassS
 632              		.loc 7 255 0
 633 000e 184B     		ldr	r3, .L34
 634 0010 9B69     		ldr	r3, [r3, #24]
 635 0012 0393     		str	r3, [sp, #12]
 636              		.loc 7 256 0
 637 0014 039B     		ldr	r3, [sp, #12]
 638 0016 9DF80720 		ldrb	r2, [sp, #7]
 639 001a 83F82020 		strb	r2, [r3, #32]
 640              		.loc 7 262 0
 641 001e 1448     		ldr	r0, .L34
 642 0020 FFF7FEFF 		bl	queue_fifo_remove
 643 0024 0246     		mov	r2, r0
 644 0026 124B     		ldr	r3, .L34
 645 0028 9A61     		str	r2, [r3, #24]
 646              		.loc 7 268 0
 647 002a 114B     		ldr	r3, .L34
 648 002c 9B69     		ldr	r3, [r3, #24]
 649 002e 0122     		movs	r2, #1
 650 0030 83F82020 		strb	r2, [r3, #32]
 651              		.loc 7 269 0
 652 0034 0E4B     		ldr	r3, .L34
 653 0036 9B69     		ldr	r3, [r3, #24]
 654 0038 0399     		ldr	r1, [sp, #12]
 655 003a 1846     		mov	r0, r3
 656 003c FFF7FEFF 		bl	_stats_ctxswc
 657              	.LBB23:
 658              	.LBB24:
 659              	.LBB25:
 660              		.loc 2 430 0
 661              		.syntax unified
 662              	@ 430 "../ChibiOS/os/ext/CMSIS/include/core_cmFunc.h" 1
 663 0040 EFF30983 		MRS r3, psp
 664              	
 665              	@ 0 "" 2
 666              		.thumb
 667              		.syntax unified
 668 0044 1C46     		mov	r4, r3
 669              		.loc 2 431 0
 670 0046 2346     		mov	r3, r4
 671              	.LBE25:
 672              	.LBE24:
 673              		.loc 7 269 0
 674 0048 0293     		str	r3, [sp, #8]
 675 004a 029B     		ldr	r3, [sp, #8]
 676 004c A3F16402 		sub	r2, r3, #100
 677 0050 039B     		ldr	r3, [sp, #12]
ARM GAS  /tmp/ccwmDzl4.s 			page 13


 678 0052 DB69     		ldr	r3, [r3, #28]
 679 0054 9A42     		cmp	r2, r3
 680 0056 02D2     		bcs	.L33
 681              		.loc 7 269 0 is_stmt 0 discriminator 1
 682 0058 0648     		ldr	r0, .L34+4
 683 005a FFF7FEFF 		bl	chSysHalt
 684              	.L33:
 685              		.loc 7 269 0 discriminator 3
 686 005e 044B     		ldr	r3, .L34
 687 0060 9B69     		ldr	r3, [r3, #24]
 688 0062 0399     		ldr	r1, [sp, #12]
 689 0064 1846     		mov	r0, r3
 690 0066 FFF7FEFF 		bl	_port_switch
 691              	.LBE23:
 692              		.loc 7 270 0 is_stmt 1 discriminator 3
 693 006a 00BF     		nop
 694 006c 04B0     		add	sp, sp, #16
 695              		.cfi_def_cfa_offset 8
 696              		@ sp needed
 697 006e 10BD     		pop	{r4, pc}
 698              	.L35:
 699              		.align	2
 700              	.L34:
 701 0070 00000000 		.word	ch
 702 0074 00000000 		.word	.LC0
 703              		.cfi_endproc
 704              	.LFE233:
 705              		.size	chSchGoSleepS, .-chSchGoSleepS
 706              		.section	.text.wakeup,"ax",%progbits
 707              		.align	1
 708              		.p2align 4,,15
 709              		.syntax unified
 710              		.thumb
 711              		.thumb_func
 712              		.fpu fpv4-sp-d16
 713              		.type	wakeup, %function
 714              	wakeup:
 715              	.LFB234:
 716              		.loc 7 275 0
 717              		.cfi_startproc
 718              		@ args = 0, pretend = 0, frame = 16
 719              		@ frame_needed = 0, uses_anonymous_args = 0
 720 0000 00B5     		push	{lr}
 721              		.cfi_def_cfa_offset 4
 722              		.cfi_offset 14, -4
 723 0002 85B0     		sub	sp, sp, #20
 724              		.cfi_def_cfa_offset 24
 725 0004 0190     		str	r0, [sp, #4]
 726              		.loc 7 276 0
 727 0006 019B     		ldr	r3, [sp, #4]
 728 0008 0393     		str	r3, [sp, #12]
 729              		.loc 7 278 0
 730 000a FFF7FEFF 		bl	chSysLockFromISR
 731              		.loc 7 279 0
 732 000e 039B     		ldr	r3, [sp, #12]
 733 0010 93F82030 		ldrb	r3, [r3, #32]	@ zero_extendqisi2
 734 0014 072B     		cmp	r3, #7
ARM GAS  /tmp/ccwmDzl4.s 			page 14


 735 0016 24D8     		bhi	.L45
 736 0018 01A2     		adr	r2, .L39
 737 001a 52F823F0 		ldr	pc, [r2, r3, lsl #2]
 738 001e 00BF     		.p2align 2
 739              	.L39:
 740 0020 41000000 		.word	.L38+1
 741 0024 63000000 		.word	.L45+1
 742 0028 63000000 		.word	.L45+1
 743 002c 47000000 		.word	.L40+1
 744 0030 5B000000 		.word	.L41+1
 745 0034 51000000 		.word	.L42+1
 746 0038 63000000 		.word	.L45+1
 747 003c 5B000000 		.word	.L41+1
 748              		.p2align 1
 749              	.L38:
 750              		.loc 7 283 0
 751 0040 FFF7FEFF 		bl	chSysUnlockFromISR
 752              		.loc 7 284 0
 753 0044 17E0     		b	.L36
 754              	.L40:
 755              		.loc 7 286 0
 756 0046 039B     		ldr	r3, [sp, #12]
 757 0048 5B6A     		ldr	r3, [r3, #36]
 758 004a 0022     		movs	r2, #0
 759 004c 1A60     		str	r2, [r3]
 760              		.loc 7 287 0
 761 004e 09E0     		b	.L44
 762              	.L42:
 763              		.loc 7 290 0
 764 0050 039B     		ldr	r3, [sp, #12]
 765 0052 5B6A     		ldr	r3, [r3, #36]
 766 0054 1846     		mov	r0, r3
 767 0056 FFF7FEFF 		bl	chSemFastSignalI
 768              	.L41:
 769              		.loc 7 298 0
 770 005a 0398     		ldr	r0, [sp, #12]
 771 005c FFF7FEFF 		bl	queue_dequeue
 772              		.loc 7 299 0
 773 0060 00E0     		b	.L44
 774              	.L45:
 775              		.loc 7 302 0
 776 0062 00BF     		nop
 777              	.L44:
 778              		.loc 7 304 0
 779 0064 039B     		ldr	r3, [sp, #12]
 780 0066 4FF0FF32 		mov	r2, #-1
 781 006a 5A62     		str	r2, [r3, #36]
 782              		.loc 7 305 0
 783 006c 0398     		ldr	r0, [sp, #12]
 784 006e FFF7FEFF 		bl	chSchReadyI
 785              		.loc 7 306 0
 786 0072 FFF7FEFF 		bl	chSysUnlockFromISR
 787              	.L36:
 788              		.loc 7 307 0
 789 0076 05B0     		add	sp, sp, #20
 790              		.cfi_def_cfa_offset 4
 791              		@ sp needed
ARM GAS  /tmp/ccwmDzl4.s 			page 15


 792 0078 5DF804FB 		ldr	pc, [sp], #4
 793              		.cfi_endproc
 794              	.LFE234:
 795              		.size	wakeup, .-wakeup
 796              		.section	.text.chSchGoSleepTimeoutS,"ax",%progbits
 797              		.align	1
 798              		.p2align 4,,15
 799              		.global	chSchGoSleepTimeoutS
 800              		.syntax unified
 801              		.thumb
 802              		.thumb_func
 803              		.fpu fpv4-sp-d16
 804              		.type	chSchGoSleepTimeoutS, %function
 805              	chSchGoSleepTimeoutS:
 806              	.LFB235:
 807              		.loc 7 330 0
 808              		.cfi_startproc
 809              		@ args = 0, pretend = 0, frame = 32
 810              		@ frame_needed = 0, uses_anonymous_args = 0
 811 0000 00B5     		push	{lr}
 812              		.cfi_def_cfa_offset 4
 813              		.cfi_offset 14, -4
 814 0002 89B0     		sub	sp, sp, #36
 815              		.cfi_def_cfa_offset 40
 816 0004 0346     		mov	r3, r0
 817 0006 0091     		str	r1, [sp]
 818 0008 8DF80730 		strb	r3, [sp, #7]
 819              		.loc 7 332 0
 820 000c FFF7FEFF 		bl	chDbgCheckClassS
 821              		.loc 7 334 0
 822 0010 009B     		ldr	r3, [sp]
 823 0012 B3F1FF3F 		cmp	r3, #-1
 824 0016 17D0     		beq	.L47
 825              	.LBB26:
 826              		.loc 7 337 0
 827 0018 114B     		ldr	r3, .L51
 828 001a 9B69     		ldr	r3, [r3, #24]
 829 001c 03A8     		add	r0, sp, #12
 830 001e 114A     		ldr	r2, .L51+4
 831 0020 0099     		ldr	r1, [sp]
 832 0022 FFF7FEFF 		bl	chVTDoSetI
 833              		.loc 7 338 0
 834 0026 9DF80730 		ldrb	r3, [sp, #7]	@ zero_extendqisi2
 835 002a 1846     		mov	r0, r3
 836 002c FFF7FEFF 		bl	chSchGoSleepS
 837              		.loc 7 339 0
 838 0030 03AB     		add	r3, sp, #12
 839 0032 1846     		mov	r0, r3
 840 0034 FFF7FEFF 		bl	chVTIsArmedI
 841 0038 0346     		mov	r3, r0
 842 003a 002B     		cmp	r3, #0
 843 003c 09D0     		beq	.L49
 844              		.loc 7 340 0
 845 003e 03AB     		add	r3, sp, #12
 846 0040 1846     		mov	r0, r3
 847 0042 FFF7FEFF 		bl	chVTDoResetI
 848 0046 04E0     		b	.L49
ARM GAS  /tmp/ccwmDzl4.s 			page 16


 849              	.L47:
 850              	.LBE26:
 851              		.loc 7 344 0
 852 0048 9DF80730 		ldrb	r3, [sp, #7]	@ zero_extendqisi2
 853 004c 1846     		mov	r0, r3
 854 004e FFF7FEFF 		bl	chSchGoSleepS
 855              	.L49:
 856              		.loc 7 347 0
 857 0052 034B     		ldr	r3, .L51
 858 0054 9B69     		ldr	r3, [r3, #24]
 859 0056 5B6A     		ldr	r3, [r3, #36]
 860              		.loc 7 348 0
 861 0058 1846     		mov	r0, r3
 862 005a 09B0     		add	sp, sp, #36
 863              		.cfi_def_cfa_offset 4
 864              		@ sp needed
 865 005c 5DF804FB 		ldr	pc, [sp], #4
 866              	.L52:
 867              		.align	2
 868              	.L51:
 869 0060 00000000 		.word	ch
 870 0064 00000000 		.word	wakeup
 871              		.cfi_endproc
 872              	.LFE235:
 873              		.size	chSchGoSleepTimeoutS, .-chSchGoSleepTimeoutS
 874              		.section	.text.chSchWakeupS,"ax",%progbits
 875              		.align	1
 876              		.p2align 4,,15
 877              		.global	chSchWakeupS
 878              		.syntax unified
 879              		.thumb
 880              		.thumb_func
 881              		.fpu fpv4-sp-d16
 882              		.type	chSchWakeupS, %function
 883              	chSchWakeupS:
 884              	.LFB236:
 885              		.loc 7 367 0
 886              		.cfi_startproc
 887              		@ args = 0, pretend = 0, frame = 16
 888              		@ frame_needed = 0, uses_anonymous_args = 0
 889 0000 10B5     		push	{r4, lr}
 890              		.cfi_def_cfa_offset 8
 891              		.cfi_offset 4, -8
 892              		.cfi_offset 14, -4
 893 0002 84B0     		sub	sp, sp, #16
 894              		.cfi_def_cfa_offset 24
 895 0004 0190     		str	r0, [sp, #4]
 896 0006 0091     		str	r1, [sp]
 897              		.loc 7 369 0
 898 0008 FFF7FEFF 		bl	chDbgCheckClassS
 899              		.loc 7 371 0
 900 000c 224B     		ldr	r3, .L60
 901 000e 1B68     		ldr	r3, [r3]
 902 0010 214A     		ldr	r2, .L60
 903 0012 9342     		cmp	r3, r2
 904 0014 0AD0     		beq	.L54
 905              		.loc 7 371 0 is_stmt 0 discriminator 2
ARM GAS  /tmp/ccwmDzl4.s 			page 17


 906 0016 204B     		ldr	r3, .L60
 907 0018 9B69     		ldr	r3, [r3, #24]
 908 001a 9A68     		ldr	r2, [r3, #8]
 909 001c 1E4B     		ldr	r3, .L60
 910 001e 1B68     		ldr	r3, [r3]
 911 0020 9B68     		ldr	r3, [r3, #8]
 912 0022 9A42     		cmp	r2, r3
 913 0024 02D2     		bcs	.L54
 914              		.loc 7 371 0 discriminator 3
 915 0026 1D48     		ldr	r0, .L60+4
 916 0028 FFF7FEFF 		bl	chSysHalt
 917              	.L54:
 918              		.loc 7 377 0 is_stmt 1
 919 002c 019B     		ldr	r3, [sp, #4]
 920 002e 009A     		ldr	r2, [sp]
 921 0030 5A62     		str	r2, [r3, #36]
 922              		.loc 7 383 0
 923 0032 019B     		ldr	r3, [sp, #4]
 924 0034 9A68     		ldr	r2, [r3, #8]
 925 0036 184B     		ldr	r3, .L60
 926 0038 9B69     		ldr	r3, [r3, #24]
 927 003a 9B68     		ldr	r3, [r3, #8]
 928 003c 9A42     		cmp	r2, r3
 929 003e 03D8     		bhi	.L55
 930              		.loc 7 384 0
 931 0040 0198     		ldr	r0, [sp, #4]
 932 0042 FFF7FEFF 		bl	chSchReadyI
 933              		.loc 7 397 0
 934 0046 23E0     		b	.L59
 935              	.L55:
 936              	.LBB27:
 937              		.loc 7 387 0
 938 0048 134B     		ldr	r3, .L60
 939 004a 9B69     		ldr	r3, [r3, #24]
 940 004c 1846     		mov	r0, r3
 941 004e FFF7FEFF 		bl	chSchReadyI
 942 0052 0390     		str	r0, [sp, #12]
 943              		.loc 7 388 0
 944 0054 104A     		ldr	r2, .L60
 945 0056 019B     		ldr	r3, [sp, #4]
 946 0058 9361     		str	r3, [r2, #24]
 947              		.loc 7 394 0
 948 005a 019B     		ldr	r3, [sp, #4]
 949 005c 0122     		movs	r2, #1
 950 005e 83F82020 		strb	r2, [r3, #32]
 951              		.loc 7 395 0
 952 0062 0399     		ldr	r1, [sp, #12]
 953 0064 0198     		ldr	r0, [sp, #4]
 954 0066 FFF7FEFF 		bl	_stats_ctxswc
 955              	.LBB28:
 956              	.LBB29:
 957              	.LBB30:
 958              		.loc 2 430 0
 959              		.syntax unified
 960              	@ 430 "../ChibiOS/os/ext/CMSIS/include/core_cmFunc.h" 1
 961 006a EFF30983 		MRS r3, psp
 962              	
ARM GAS  /tmp/ccwmDzl4.s 			page 18


 963              	@ 0 "" 2
 964              		.thumb
 965              		.syntax unified
 966 006e 1C46     		mov	r4, r3
 967              		.loc 2 431 0
 968 0070 2346     		mov	r3, r4
 969              	.LBE30:
 970              	.LBE29:
 971              		.loc 7 395 0
 972 0072 0293     		str	r3, [sp, #8]
 973 0074 029B     		ldr	r3, [sp, #8]
 974 0076 A3F16402 		sub	r2, r3, #100
 975 007a 039B     		ldr	r3, [sp, #12]
 976 007c DB69     		ldr	r3, [r3, #28]
 977 007e 9A42     		cmp	r2, r3
 978 0080 02D2     		bcs	.L58
 979              		.loc 7 395 0 is_stmt 0 discriminator 1
 980 0082 0748     		ldr	r0, .L60+8
 981 0084 FFF7FEFF 		bl	chSysHalt
 982              	.L58:
 983              		.loc 7 395 0 discriminator 3
 984 0088 0399     		ldr	r1, [sp, #12]
 985 008a 0198     		ldr	r0, [sp, #4]
 986 008c FFF7FEFF 		bl	_port_switch
 987              	.L59:
 988              	.LBE28:
 989              	.LBE27:
 990              		.loc 7 397 0 is_stmt 1
 991 0090 00BF     		nop
 992 0092 04B0     		add	sp, sp, #16
 993              		.cfi_def_cfa_offset 8
 994              		@ sp needed
 995 0094 10BD     		pop	{r4, pc}
 996              	.L61:
 997 0096 00BF     		.align	2
 998              	.L60:
 999 0098 00000000 		.word	ch
 1000 009c 00000000 		.word	__func__.7890
 1001 00a0 00000000 		.word	.LC0
 1002              		.cfi_endproc
 1003              	.LFE236:
 1004              		.size	chSchWakeupS, .-chSchWakeupS
 1005              		.section	.text.chSchRescheduleS,"ax",%progbits
 1006              		.align	1
 1007              		.p2align 4,,15
 1008              		.global	chSchRescheduleS
 1009              		.syntax unified
 1010              		.thumb
 1011              		.thumb_func
 1012              		.fpu fpv4-sp-d16
 1013              		.type	chSchRescheduleS, %function
 1014              	chSchRescheduleS:
 1015              	.LFB237:
 1016              		.loc 7 406 0
 1017              		.cfi_startproc
 1018              		@ args = 0, pretend = 0, frame = 0
 1019              		@ frame_needed = 0, uses_anonymous_args = 0
ARM GAS  /tmp/ccwmDzl4.s 			page 19


 1020 0000 08B5     		push	{r3, lr}
 1021              		.cfi_def_cfa_offset 8
 1022              		.cfi_offset 3, -8
 1023              		.cfi_offset 14, -4
 1024              		.loc 7 408 0
 1025 0002 FFF7FEFF 		bl	chDbgCheckClassS
 1026              		.loc 7 410 0
 1027 0006 FFF7FEFF 		bl	chSchIsRescRequiredI
 1028 000a 0346     		mov	r3, r0
 1029 000c 002B     		cmp	r3, #0
 1030 000e 01D0     		beq	.L64
 1031              		.loc 7 411 0
 1032 0010 FFF7FEFF 		bl	chSchDoRescheduleAhead
 1033              	.L64:
 1034              		.loc 7 413 0
 1035 0014 00BF     		nop
 1036 0016 08BD     		pop	{r3, pc}
 1037              		.cfi_endproc
 1038              	.LFE237:
 1039              		.size	chSchRescheduleS, .-chSchRescheduleS
 1040              		.section	.text.chSchIsPreemptionRequired,"ax",%progbits
 1041              		.align	1
 1042              		.p2align 4,,15
 1043              		.global	chSchIsPreemptionRequired
 1044              		.syntax unified
 1045              		.thumb
 1046              		.thumb_func
 1047              		.fpu fpv4-sp-d16
 1048              		.type	chSchIsPreemptionRequired, %function
 1049              	chSchIsPreemptionRequired:
 1050              	.LFB238:
 1051              		.loc 7 428 0
 1052              		.cfi_startproc
 1053              		@ args = 0, pretend = 0, frame = 8
 1054              		@ frame_needed = 0, uses_anonymous_args = 0
 1055              		@ link register save eliminated.
 1056 0000 82B0     		sub	sp, sp, #8
 1057              		.cfi_def_cfa_offset 8
 1058              		.loc 7 429 0
 1059 0002 094B     		ldr	r3, .L67
 1060 0004 1B68     		ldr	r3, [r3]
 1061 0006 9B68     		ldr	r3, [r3, #8]
 1062 0008 0193     		str	r3, [sp, #4]
 1063              		.loc 7 430 0
 1064 000a 074B     		ldr	r3, .L67
 1065 000c 9B69     		ldr	r3, [r3, #24]
 1066 000e 9B68     		ldr	r3, [r3, #8]
 1067 0010 0093     		str	r3, [sp]
 1068              		.loc 7 441 0
 1069 0012 019A     		ldr	r2, [sp, #4]
 1070 0014 009B     		ldr	r3, [sp]
 1071 0016 9A42     		cmp	r2, r3
 1072 0018 8CBF     		ite	hi
 1073 001a 0123     		movhi	r3, #1
 1074 001c 0023     		movls	r3, #0
 1075 001e DBB2     		uxtb	r3, r3
 1076              		.loc 7 443 0
ARM GAS  /tmp/ccwmDzl4.s 			page 20


 1077 0020 1846     		mov	r0, r3
 1078 0022 02B0     		add	sp, sp, #8
 1079              		.cfi_def_cfa_offset 0
 1080              		@ sp needed
 1081 0024 7047     		bx	lr
 1082              	.L68:
 1083 0026 00BF     		.align	2
 1084              	.L67:
 1085 0028 00000000 		.word	ch
 1086              		.cfi_endproc
 1087              	.LFE238:
 1088              		.size	chSchIsPreemptionRequired, .-chSchIsPreemptionRequired
 1089              		.section	.text.chSchDoRescheduleBehind,"ax",%progbits
 1090              		.align	1
 1091              		.p2align 4,,15
 1092              		.global	chSchDoRescheduleBehind
 1093              		.syntax unified
 1094              		.thumb
 1095              		.thumb_func
 1096              		.fpu fpv4-sp-d16
 1097              		.type	chSchDoRescheduleBehind, %function
 1098              	chSchDoRescheduleBehind:
 1099              	.LFB239:
 1100              		.loc 7 455 0
 1101              		.cfi_startproc
 1102              		@ args = 0, pretend = 0, frame = 8
 1103              		@ frame_needed = 0, uses_anonymous_args = 0
 1104 0000 10B5     		push	{r4, lr}
 1105              		.cfi_def_cfa_offset 8
 1106              		.cfi_offset 4, -8
 1107              		.cfi_offset 14, -4
 1108 0002 82B0     		sub	sp, sp, #8
 1109              		.cfi_def_cfa_offset 16
 1110              		.loc 7 458 0
 1111 0004 174B     		ldr	r3, .L72
 1112 0006 9B69     		ldr	r3, [r3, #24]
 1113 0008 0193     		str	r3, [sp, #4]
 1114              		.loc 7 460 0
 1115 000a 1648     		ldr	r0, .L72
 1116 000c FFF7FEFF 		bl	queue_fifo_remove
 1117 0010 0246     		mov	r2, r0
 1118 0012 144B     		ldr	r3, .L72
 1119 0014 9A61     		str	r2, [r3, #24]
 1120              		.loc 7 466 0
 1121 0016 134B     		ldr	r3, .L72
 1122 0018 9B69     		ldr	r3, [r3, #24]
 1123 001a 0122     		movs	r2, #1
 1124 001c 83F82020 		strb	r2, [r3, #32]
 1125              		.loc 7 470 0
 1126 0020 0198     		ldr	r0, [sp, #4]
 1127 0022 FFF7FEFF 		bl	chSchReadyI
 1128              		.loc 7 471 0
 1129 0026 0F4B     		ldr	r3, .L72
 1130 0028 9B69     		ldr	r3, [r3, #24]
 1131 002a 0199     		ldr	r1, [sp, #4]
 1132 002c 1846     		mov	r0, r3
 1133 002e FFF7FEFF 		bl	_stats_ctxswc
ARM GAS  /tmp/ccwmDzl4.s 			page 21


 1134              	.LBB31:
 1135              	.LBB32:
 1136              	.LBB33:
 1137              		.loc 2 430 0
 1138              		.syntax unified
 1139              	@ 430 "../ChibiOS/os/ext/CMSIS/include/core_cmFunc.h" 1
 1140 0032 EFF30983 		MRS r3, psp
 1141              	
 1142              	@ 0 "" 2
 1143              		.thumb
 1144              		.syntax unified
 1145 0036 1C46     		mov	r4, r3
 1146              		.loc 2 431 0
 1147 0038 2346     		mov	r3, r4
 1148              	.LBE33:
 1149              	.LBE32:
 1150              		.loc 7 471 0
 1151 003a 0093     		str	r3, [sp]
 1152 003c 009B     		ldr	r3, [sp]
 1153 003e A3F16402 		sub	r2, r3, #100
 1154 0042 019B     		ldr	r3, [sp, #4]
 1155 0044 DB69     		ldr	r3, [r3, #28]
 1156 0046 9A42     		cmp	r2, r3
 1157 0048 02D2     		bcs	.L71
 1158              		.loc 7 471 0 is_stmt 0 discriminator 1
 1159 004a 0748     		ldr	r0, .L72+4
 1160 004c FFF7FEFF 		bl	chSysHalt
 1161              	.L71:
 1162              		.loc 7 471 0 discriminator 3
 1163 0050 044B     		ldr	r3, .L72
 1164 0052 9B69     		ldr	r3, [r3, #24]
 1165 0054 0199     		ldr	r1, [sp, #4]
 1166 0056 1846     		mov	r0, r3
 1167 0058 FFF7FEFF 		bl	_port_switch
 1168              	.LBE31:
 1169              		.loc 7 472 0 is_stmt 1 discriminator 3
 1170 005c 00BF     		nop
 1171 005e 02B0     		add	sp, sp, #8
 1172              		.cfi_def_cfa_offset 8
 1173              		@ sp needed
 1174 0060 10BD     		pop	{r4, pc}
 1175              	.L73:
 1176 0062 00BF     		.align	2
 1177              	.L72:
 1178 0064 00000000 		.word	ch
 1179 0068 00000000 		.word	.LC0
 1180              		.cfi_endproc
 1181              	.LFE239:
 1182              		.size	chSchDoRescheduleBehind, .-chSchDoRescheduleBehind
 1183              		.section	.text.chSchDoRescheduleAhead,"ax",%progbits
 1184              		.align	1
 1185              		.p2align 4,,15
 1186              		.global	chSchDoRescheduleAhead
 1187              		.syntax unified
 1188              		.thumb
 1189              		.thumb_func
 1190              		.fpu fpv4-sp-d16
ARM GAS  /tmp/ccwmDzl4.s 			page 22


 1191              		.type	chSchDoRescheduleAhead, %function
 1192              	chSchDoRescheduleAhead:
 1193              	.LFB240:
 1194              		.loc 7 483 0
 1195              		.cfi_startproc
 1196              		@ args = 0, pretend = 0, frame = 16
 1197              		@ frame_needed = 0, uses_anonymous_args = 0
 1198 0000 10B5     		push	{r4, lr}
 1199              		.cfi_def_cfa_offset 8
 1200              		.cfi_offset 4, -8
 1201              		.cfi_offset 14, -4
 1202 0002 84B0     		sub	sp, sp, #16
 1203              		.cfi_def_cfa_offset 24
 1204              		.loc 7 486 0
 1205 0004 244B     		ldr	r3, .L78
 1206 0006 9B69     		ldr	r3, [r3, #24]
 1207 0008 0293     		str	r3, [sp, #8]
 1208              		.loc 7 488 0
 1209 000a 2348     		ldr	r0, .L78
 1210 000c FFF7FEFF 		bl	queue_fifo_remove
 1211 0010 0246     		mov	r2, r0
 1212 0012 214B     		ldr	r3, .L78
 1213 0014 9A61     		str	r2, [r3, #24]
 1214              		.loc 7 494 0
 1215 0016 204B     		ldr	r3, .L78
 1216 0018 9B69     		ldr	r3, [r3, #24]
 1217 001a 0122     		movs	r2, #1
 1218 001c 83F82020 		strb	r2, [r3, #32]
 1219              		.loc 7 496 0
 1220 0020 029B     		ldr	r3, [sp, #8]
 1221 0022 0022     		movs	r2, #0
 1222 0024 83F82020 		strb	r2, [r3, #32]
 1223              		.loc 7 497 0
 1224 0028 1B4B     		ldr	r3, .L78
 1225 002a 0393     		str	r3, [sp, #12]
 1226              	.L75:
 1227              		.loc 7 499 0 discriminator 1
 1228 002c 039B     		ldr	r3, [sp, #12]
 1229 002e 1B68     		ldr	r3, [r3]
 1230 0030 0393     		str	r3, [sp, #12]
 1231              		.loc 7 500 0 discriminator 1
 1232 0032 039B     		ldr	r3, [sp, #12]
 1233 0034 9A68     		ldr	r2, [r3, #8]
 1234 0036 029B     		ldr	r3, [sp, #8]
 1235 0038 9B68     		ldr	r3, [r3, #8]
 1236 003a 9A42     		cmp	r2, r3
 1237 003c F6D8     		bhi	.L75
 1238              		.loc 7 502 0
 1239 003e 029B     		ldr	r3, [sp, #8]
 1240 0040 039A     		ldr	r2, [sp, #12]
 1241 0042 1A60     		str	r2, [r3]
 1242              		.loc 7 503 0
 1243 0044 039B     		ldr	r3, [sp, #12]
 1244 0046 5A68     		ldr	r2, [r3, #4]
 1245 0048 029B     		ldr	r3, [sp, #8]
 1246 004a 5A60     		str	r2, [r3, #4]
 1247              		.loc 7 504 0
ARM GAS  /tmp/ccwmDzl4.s 			page 23


 1248 004c 029B     		ldr	r3, [sp, #8]
 1249 004e 5B68     		ldr	r3, [r3, #4]
 1250 0050 029A     		ldr	r2, [sp, #8]
 1251 0052 1A60     		str	r2, [r3]
 1252              		.loc 7 505 0
 1253 0054 039B     		ldr	r3, [sp, #12]
 1254 0056 029A     		ldr	r2, [sp, #8]
 1255 0058 5A60     		str	r2, [r3, #4]
 1256              		.loc 7 507 0
 1257 005a 0F4B     		ldr	r3, .L78
 1258 005c 9B69     		ldr	r3, [r3, #24]
 1259 005e 0299     		ldr	r1, [sp, #8]
 1260 0060 1846     		mov	r0, r3
 1261 0062 FFF7FEFF 		bl	_stats_ctxswc
 1262              	.LBB34:
 1263              	.LBB35:
 1264              	.LBB36:
 1265              		.loc 2 430 0
 1266              		.syntax unified
 1267              	@ 430 "../ChibiOS/os/ext/CMSIS/include/core_cmFunc.h" 1
 1268 0066 EFF30983 		MRS r3, psp
 1269              	
 1270              	@ 0 "" 2
 1271              		.thumb
 1272              		.syntax unified
 1273 006a 1C46     		mov	r4, r3
 1274              		.loc 2 431 0
 1275 006c 2346     		mov	r3, r4
 1276              	.LBE36:
 1277              	.LBE35:
 1278              		.loc 7 507 0
 1279 006e 0193     		str	r3, [sp, #4]
 1280 0070 019B     		ldr	r3, [sp, #4]
 1281 0072 A3F16402 		sub	r2, r3, #100
 1282 0076 029B     		ldr	r3, [sp, #8]
 1283 0078 DB69     		ldr	r3, [r3, #28]
 1284 007a 9A42     		cmp	r2, r3
 1285 007c 02D2     		bcs	.L77
 1286              		.loc 7 507 0 is_stmt 0 discriminator 1
 1287 007e 0748     		ldr	r0, .L78+4
 1288 0080 FFF7FEFF 		bl	chSysHalt
 1289              	.L77:
 1290              		.loc 7 507 0 discriminator 3
 1291 0084 044B     		ldr	r3, .L78
 1292 0086 9B69     		ldr	r3, [r3, #24]
 1293 0088 0299     		ldr	r1, [sp, #8]
 1294 008a 1846     		mov	r0, r3
 1295 008c FFF7FEFF 		bl	_port_switch
 1296              	.LBE34:
 1297              		.loc 7 508 0 is_stmt 1 discriminator 3
 1298 0090 00BF     		nop
 1299 0092 04B0     		add	sp, sp, #16
 1300              		.cfi_def_cfa_offset 8
 1301              		@ sp needed
 1302 0094 10BD     		pop	{r4, pc}
 1303              	.L79:
 1304 0096 00BF     		.align	2
ARM GAS  /tmp/ccwmDzl4.s 			page 24


 1305              	.L78:
 1306 0098 00000000 		.word	ch
 1307 009c 00000000 		.word	.LC0
 1308              		.cfi_endproc
 1309              	.LFE240:
 1310              		.size	chSchDoRescheduleAhead, .-chSchDoRescheduleAhead
 1311              		.section	.text.chSchDoReschedule,"ax",%progbits
 1312              		.align	1
 1313              		.p2align 4,,15
 1314              		.global	chSchDoReschedule
 1315              		.syntax unified
 1316              		.thumb
 1317              		.thumb_func
 1318              		.fpu fpv4-sp-d16
 1319              		.type	chSchDoReschedule, %function
 1320              	chSchDoReschedule:
 1321              	.LFB241:
 1322              		.loc 7 520 0
 1323              		.cfi_startproc
 1324              		@ args = 0, pretend = 0, frame = 0
 1325              		@ frame_needed = 0, uses_anonymous_args = 0
 1326 0000 08B5     		push	{r3, lr}
 1327              		.cfi_def_cfa_offset 8
 1328              		.cfi_offset 3, -8
 1329              		.cfi_offset 14, -4
 1330              		.loc 7 538 0
 1331 0002 FFF7FEFF 		bl	chSchDoRescheduleAhead
 1332              		.loc 7 540 0
 1333 0006 00BF     		nop
 1334 0008 08BD     		pop	{r3, pc}
 1335              		.cfi_endproc
 1336              	.LFE241:
 1337              		.size	chSchDoReschedule, .-chSchDoReschedule
 1338 000a 00BF     		.section	.rodata.__func__.7862,"a",%progbits
 1339              		.align	2
 1340              		.type	__func__.7862, %object
 1341              		.size	__func__.7862, 12
 1342              	__func__.7862:
 1343 0000 63685363 		.ascii	"chSchReadyI\000"
 1343      68526561 
 1343      64794900 
 1344              		.section	.rodata.__func__.7890,"a",%progbits
 1345              		.align	2
 1346              		.type	__func__.7890, %object
 1347              		.size	__func__.7890, 13
 1348              	__func__.7890:
 1349 0000 63685363 		.ascii	"chSchWakeupS\000"
 1349      6857616B 
 1349      65757053 
 1349      00
 1350              		.text
 1351              	.Letext0:
 1352              		.file 8 "/usr/lib/gcc/arm-none-eabi/6.3.1/include/stddef.h"
 1353              		.file 9 "/usr/arm-none-eabi/include/machine/_default_types.h"
 1354              		.file 10 "/usr/arm-none-eabi/include/sys/_stdint.h"
 1355              		.file 11 "../ChibiOS/os/rt/ports/ARMCMx/compilers/GCC/chtypes.h"
 1356              		.file 12 "../ChibiOS/os/rt/include/chsystypes.h"
ARM GAS  /tmp/ccwmDzl4.s 			page 25


 1357              		.file 13 "../ChibiOS/os/ext/CMSIS/include/core_cm4.h"
 1358              		.file 14 "../ChibiOS/os/ext/CMSIS/ST/STM32F4xx/system_stm32f4xx.h"
 1359              		.file 15 "../ChibiOS/os/rt/ports/ARMCMx/chcore.h"
 1360              		.file 16 "../ChibiOS/os/rt/include/chtm.h"
 1361              		.file 17 "../ChibiOS/os/rt/include/chstats.h"
 1362              		.file 18 "../ChibiOS/os/rt/include/chmtx.h"
 1363              		.file 19 "../ChibiOS/os/rt/include/chregistry.h"
 1364              		.section	.debug_info,"",%progbits
 1365              	.Ldebug_info0:
 1366 0000 520E0000 		.4byte	0xe52
 1367 0004 0400     		.2byte	0x4
 1368 0006 00000000 		.4byte	.Ldebug_abbrev0
 1369 000a 04       		.byte	0x4
 1370 000b 01       		.uleb128 0x1
 1371 000c C9010000 		.4byte	.LASF174
 1372 0010 0C       		.byte	0xc
 1373 0011 BD060000 		.4byte	.LASF175
 1374 0015 CE030000 		.4byte	.LASF176
 1375 0019 00000000 		.4byte	.Ldebug_ranges0+0
 1376 001d 00000000 		.4byte	0
 1377 0021 00000000 		.4byte	.Ldebug_line0
 1378 0025 02       		.uleb128 0x2
 1379 0026 04       		.byte	0x4
 1380 0027 05       		.byte	0x5
 1381 0028 696E7400 		.ascii	"int\000"
 1382 002c 03       		.uleb128 0x3
 1383 002d 1A000000 		.4byte	.LASF4
 1384 0031 08       		.byte	0x8
 1385 0032 D8       		.byte	0xd8
 1386 0033 37000000 		.4byte	0x37
 1387 0037 04       		.uleb128 0x4
 1388 0038 04       		.byte	0x4
 1389 0039 07       		.byte	0x7
 1390 003a 99030000 		.4byte	.LASF0
 1391 003e 04       		.uleb128 0x4
 1392 003f 08       		.byte	0x8
 1393 0040 05       		.byte	0x5
 1394 0041 3F010000 		.4byte	.LASF1
 1395 0045 04       		.uleb128 0x4
 1396 0046 08       		.byte	0x8
 1397 0047 04       		.byte	0x4
 1398 0048 2E050000 		.4byte	.LASF2
 1399 004c 04       		.uleb128 0x4
 1400 004d 01       		.byte	0x1
 1401 004e 06       		.byte	0x6
 1402 004f 4D010000 		.4byte	.LASF3
 1403 0053 03       		.uleb128 0x3
 1404 0054 48000000 		.4byte	.LASF5
 1405 0058 09       		.byte	0x9
 1406 0059 2B       		.byte	0x2b
 1407 005a 5E000000 		.4byte	0x5e
 1408 005e 04       		.uleb128 0x4
 1409 005f 01       		.byte	0x1
 1410 0060 08       		.byte	0x8
 1411 0061 2C060000 		.4byte	.LASF6
 1412 0065 04       		.uleb128 0x4
 1413 0066 02       		.byte	0x2
ARM GAS  /tmp/ccwmDzl4.s 			page 26


 1414 0067 05       		.byte	0x5
 1415 0068 43060000 		.4byte	.LASF7
 1416 006c 03       		.uleb128 0x3
 1417 006d 9A070000 		.4byte	.LASF8
 1418 0071 09       		.byte	0x9
 1419 0072 39       		.byte	0x39
 1420 0073 77000000 		.4byte	0x77
 1421 0077 04       		.uleb128 0x4
 1422 0078 02       		.byte	0x2
 1423 0079 07       		.byte	0x7
 1424 007a 50040000 		.4byte	.LASF9
 1425 007e 03       		.uleb128 0x3
 1426 007f E5000000 		.4byte	.LASF10
 1427 0083 09       		.byte	0x9
 1428 0084 4D       		.byte	0x4d
 1429 0085 89000000 		.4byte	0x89
 1430 0089 04       		.uleb128 0x4
 1431 008a 04       		.byte	0x4
 1432 008b 05       		.byte	0x5
 1433 008c A9010000 		.4byte	.LASF11
 1434 0090 03       		.uleb128 0x3
 1435 0091 F8070000 		.4byte	.LASF12
 1436 0095 09       		.byte	0x9
 1437 0096 4F       		.byte	0x4f
 1438 0097 9B000000 		.4byte	0x9b
 1439 009b 04       		.uleb128 0x4
 1440 009c 04       		.byte	0x4
 1441 009d 07       		.byte	0x7
 1442 009e 7C070000 		.4byte	.LASF13
 1443 00a2 03       		.uleb128 0x3
 1444 00a3 AD050000 		.4byte	.LASF14
 1445 00a7 09       		.byte	0x9
 1446 00a8 69       		.byte	0x69
 1447 00a9 AD000000 		.4byte	0xad
 1448 00ad 04       		.uleb128 0x4
 1449 00ae 08       		.byte	0x8
 1450 00af 07       		.byte	0x7
 1451 00b0 AC000000 		.4byte	.LASF15
 1452 00b4 03       		.uleb128 0x3
 1453 00b5 85080000 		.4byte	.LASF16
 1454 00b9 0A       		.byte	0xa
 1455 00ba 18       		.byte	0x18
 1456 00bb 53000000 		.4byte	0x53
 1457 00bf 03       		.uleb128 0x3
 1458 00c0 B5030000 		.4byte	.LASF17
 1459 00c4 0A       		.byte	0xa
 1460 00c5 24       		.byte	0x24
 1461 00c6 6C000000 		.4byte	0x6c
 1462 00ca 03       		.uleb128 0x3
 1463 00cb 24060000 		.4byte	.LASF18
 1464 00cf 0A       		.byte	0xa
 1465 00d0 2C       		.byte	0x2c
 1466 00d1 7E000000 		.4byte	0x7e
 1467 00d5 05       		.uleb128 0x5
 1468 00d6 CA000000 		.4byte	0xca
 1469 00da 03       		.uleb128 0x3
 1470 00db 3B070000 		.4byte	.LASF19
ARM GAS  /tmp/ccwmDzl4.s 			page 27


 1471 00df 0A       		.byte	0xa
 1472 00e0 30       		.byte	0x30
 1473 00e1 90000000 		.4byte	0x90
 1474 00e5 03       		.uleb128 0x3
 1475 00e6 28000000 		.4byte	.LASF20
 1476 00ea 0A       		.byte	0xa
 1477 00eb 3C       		.byte	0x3c
 1478 00ec A2000000 		.4byte	0xa2
 1479 00f0 03       		.uleb128 0x3
 1480 00f1 30080000 		.4byte	.LASF21
 1481 00f5 0B       		.byte	0xb
 1482 00f6 39       		.byte	0x39
 1483 00f7 DA000000 		.4byte	0xda
 1484 00fb 03       		.uleb128 0x3
 1485 00fc 12010000 		.4byte	.LASF22
 1486 0100 0B       		.byte	0xb
 1487 0101 3A       		.byte	0x3a
 1488 0102 E5000000 		.4byte	0xe5
 1489 0106 03       		.uleb128 0x3
 1490 0107 80060000 		.4byte	.LASF23
 1491 010b 0B       		.byte	0xb
 1492 010c 3C       		.byte	0x3c
 1493 010d B4000000 		.4byte	0xb4
 1494 0111 03       		.uleb128 0x3
 1495 0112 C0010000 		.4byte	.LASF24
 1496 0116 0B       		.byte	0xb
 1497 0117 3D       		.byte	0x3d
 1498 0118 B4000000 		.4byte	0xb4
 1499 011c 03       		.uleb128 0x3
 1500 011d D0050000 		.4byte	.LASF25
 1501 0121 0B       		.byte	0xb
 1502 0122 3E       		.byte	0x3e
 1503 0123 B4000000 		.4byte	0xb4
 1504 0127 03       		.uleb128 0x3
 1505 0128 FA050000 		.4byte	.LASF26
 1506 012c 0B       		.byte	0xb
 1507 012d 40       		.byte	0x40
 1508 012e DA000000 		.4byte	0xda
 1509 0132 03       		.uleb128 0x3
 1510 0133 89040000 		.4byte	.LASF27
 1511 0137 0B       		.byte	0xb
 1512 0138 41       		.byte	0x41
 1513 0139 CA000000 		.4byte	0xca
 1514 013d 03       		.uleb128 0x3
 1515 013e C3040000 		.4byte	.LASF28
 1516 0142 0B       		.byte	0xb
 1517 0143 43       		.byte	0x43
 1518 0144 DA000000 		.4byte	0xda
 1519 0148 03       		.uleb128 0x3
 1520 0149 88030000 		.4byte	.LASF29
 1521 014d 0B       		.byte	0xb
 1522 014e 45       		.byte	0x45
 1523 014f CA000000 		.4byte	0xca
 1524 0153 03       		.uleb128 0x3
 1525 0154 94040000 		.4byte	.LASF30
 1526 0158 0B       		.byte	0xb
 1527 0159 46       		.byte	0x46
ARM GAS  /tmp/ccwmDzl4.s 			page 28


 1528 015a DA000000 		.4byte	0xda
 1529 015e 03       		.uleb128 0x3
 1530 015f DA070000 		.4byte	.LASF31
 1531 0163 0C       		.byte	0xc
 1532 0164 33       		.byte	0x33
 1533 0165 DA000000 		.4byte	0xda
 1534 0169 05       		.uleb128 0x5
 1535 016a 5E010000 		.4byte	0x15e
 1536 016e 03       		.uleb128 0x3
 1537 016f BA070000 		.4byte	.LASF32
 1538 0173 0C       		.byte	0xc
 1539 0174 3F       		.byte	0x3f
 1540 0175 79010000 		.4byte	0x179
 1541 0179 06       		.uleb128 0x6
 1542 017a 72040000 		.4byte	.LASF54
 1543 017e 60       		.byte	0x60
 1544 017f 03       		.byte	0x3
 1545 0180 C2       		.byte	0xc2
 1546 0181 7F020000 		.4byte	0x27f
 1547 0185 07       		.uleb128 0x7
 1548 0186 79060000 		.4byte	.LASF33
 1549 018a 03       		.byte	0x3
 1550 018b C3       		.byte	0xc3
 1551 018c 8A020000 		.4byte	0x28a
 1552 0190 00       		.byte	0
 1553 0191 07       		.uleb128 0x7
 1554 0192 F3050000 		.4byte	.LASF34
 1555 0196 03       		.byte	0x3
 1556 0197 C5       		.byte	0xc5
 1557 0198 8A020000 		.4byte	0x28a
 1558 019c 04       		.byte	0x4
 1559 019d 07       		.uleb128 0x7
 1560 019e 1B010000 		.4byte	.LASF35
 1561 01a2 03       		.byte	0x3
 1562 01a3 C7       		.byte	0xc7
 1563 01a4 27010000 		.4byte	0x127
 1564 01a8 08       		.byte	0x8
 1565 01a9 07       		.uleb128 0x7
 1566 01aa 78050000 		.4byte	.LASF36
 1567 01ae 03       		.byte	0x3
 1568 01af C8       		.byte	0xc8
 1569 01b0 F8040000 		.4byte	0x4f8
 1570 01b4 0C       		.byte	0xc
 1571 01b5 07       		.uleb128 0x7
 1572 01b6 06030000 		.4byte	.LASF37
 1573 01ba 03       		.byte	0x3
 1574 01bb CA       		.byte	0xca
 1575 01bc 8A020000 		.4byte	0x28a
 1576 01c0 10       		.byte	0x10
 1577 01c1 07       		.uleb128 0x7
 1578 01c2 6A050000 		.4byte	.LASF38
 1579 01c6 03       		.byte	0x3
 1580 01c7 CB       		.byte	0xcb
 1581 01c8 8A020000 		.4byte	0x28a
 1582 01cc 14       		.byte	0x14
 1583 01cd 07       		.uleb128 0x7
 1584 01ce B1080000 		.4byte	.LASF39
ARM GAS  /tmp/ccwmDzl4.s 			page 29


 1585 01d2 03       		.byte	0x3
 1586 01d3 D2       		.byte	0xd2
 1587 01d4 D8070000 		.4byte	0x7d8
 1588 01d8 18       		.byte	0x18
 1589 01d9 07       		.uleb128 0x7
 1590 01da 8E030000 		.4byte	.LASF40
 1591 01de 03       		.byte	0x3
 1592 01df D8       		.byte	0xd8
 1593 01e0 EF070000 		.4byte	0x7ef
 1594 01e4 1C       		.byte	0x1c
 1595 01e5 07       		.uleb128 0x7
 1596 01e6 4D060000 		.4byte	.LASF41
 1597 01ea 03       		.byte	0x3
 1598 01eb DD       		.byte	0xdd
 1599 01ec 11010000 		.4byte	0x111
 1600 01f0 20       		.byte	0x20
 1601 01f1 07       		.uleb128 0x7
 1602 01f2 97060000 		.4byte	.LASF42
 1603 01f6 03       		.byte	0x3
 1604 01f7 E1       		.byte	0xe1
 1605 01f8 06010000 		.4byte	0x106
 1606 01fc 21       		.byte	0x21
 1607 01fd 07       		.uleb128 0x7
 1608 01fe 70080000 		.4byte	.LASF43
 1609 0202 03       		.byte	0x3
 1610 0203 E6       		.byte	0xe6
 1611 0204 1C010000 		.4byte	0x11c
 1612 0208 22       		.byte	0x22
 1613 0209 08       		.uleb128 0x8
 1614 020a 705F7500 		.ascii	"p_u\000"
 1615 020e 03       		.byte	0x3
 1616 020f 3101     		.2byte	0x131
 1617 0211 13070000 		.4byte	0x713
 1618 0215 24       		.byte	0x24
 1619 0216 09       		.uleb128 0x9
 1620 0217 04050000 		.4byte	.LASF44
 1621 021b 03       		.byte	0x3
 1622 021c 3601     		.2byte	0x136
 1623 021e 90020000 		.4byte	0x290
 1624 0222 28       		.byte	0x28
 1625 0223 09       		.uleb128 0x9
 1626 0224 22040000 		.4byte	.LASF45
 1627 0228 03       		.byte	0x3
 1628 0229 3C01     		.2byte	0x13c
 1629 022b B4020000 		.4byte	0x2b4
 1630 022f 2C       		.byte	0x2c
 1631 0230 09       		.uleb128 0x9
 1632 0231 2A080000 		.4byte	.LASF46
 1633 0235 03       		.byte	0x3
 1634 0236 4001     		.2byte	0x140
 1635 0238 32010000 		.4byte	0x132
 1636 023c 34       		.byte	0x34
 1637 023d 09       		.uleb128 0x9
 1638 023e 30070000 		.4byte	.LASF47
 1639 0242 03       		.byte	0x3
 1640 0243 4601     		.2byte	0x146
 1641 0245 3D010000 		.4byte	0x13d
ARM GAS  /tmp/ccwmDzl4.s 			page 30


 1642 0249 38       		.byte	0x38
 1643 024a 09       		.uleb128 0x9
 1644 024b B9040000 		.4byte	.LASF48
 1645 024f 03       		.byte	0x3
 1646 0250 4D01     		.2byte	0x14d
 1647 0252 D2070000 		.4byte	0x7d2
 1648 0256 3C       		.byte	0x3c
 1649 0257 09       		.uleb128 0x9
 1650 0258 E4070000 		.4byte	.LASF49
 1651 025c 03       		.byte	0x3
 1652 025d 5101     		.2byte	0x151
 1653 025f 27010000 		.4byte	0x127
 1654 0263 40       		.byte	0x40
 1655 0264 09       		.uleb128 0x9
 1656 0265 76010000 		.4byte	.LASF50
 1657 0269 03       		.byte	0x3
 1658 026a 5801     		.2byte	0x158
 1659 026c 67030000 		.4byte	0x367
 1660 0270 44       		.byte	0x44
 1661 0271 09       		.uleb128 0x9
 1662 0272 A8060000 		.4byte	.LASF51
 1663 0276 03       		.byte	0x3
 1664 0277 5E01     		.2byte	0x15e
 1665 0279 C4060000 		.4byte	0x6c4
 1666 027d 48       		.byte	0x48
 1667 027e 00       		.byte	0
 1668 027f 03       		.uleb128 0x3
 1669 0280 8D080000 		.4byte	.LASF52
 1670 0284 0C       		.byte	0xc
 1671 0285 44       		.byte	0x44
 1672 0286 8A020000 		.4byte	0x28a
 1673 028a 0A       		.uleb128 0xa
 1674 028b 04       		.byte	0x4
 1675 028c 6E010000 		.4byte	0x16e
 1676 0290 03       		.uleb128 0x3
 1677 0291 DA040000 		.4byte	.LASF53
 1678 0295 0C       		.byte	0xc
 1679 0296 49       		.byte	0x49
 1680 0297 9B020000 		.4byte	0x29b
 1681 029b 06       		.uleb128 0x6
 1682 029c 64070000 		.4byte	.LASF55
 1683 02a0 04       		.byte	0x4
 1684 02a1 03       		.byte	0x3
 1685 02a2 B0       		.byte	0xb0
 1686 02a3 B4020000 		.4byte	0x2b4
 1687 02a7 07       		.uleb128 0x7
 1688 02a8 79060000 		.4byte	.LASF33
 1689 02ac 03       		.byte	0x3
 1690 02ad B1       		.byte	0xb1
 1691 02ae 8A020000 		.4byte	0x28a
 1692 02b2 00       		.byte	0
 1693 02b3 00       		.byte	0
 1694 02b4 03       		.uleb128 0x3
 1695 02b5 E7060000 		.4byte	.LASF56
 1696 02b9 0C       		.byte	0xc
 1697 02ba 50       		.byte	0x50
 1698 02bb BF020000 		.4byte	0x2bf
ARM GAS  /tmp/ccwmDzl4.s 			page 31


 1699 02bf 06       		.uleb128 0x6
 1700 02c0 5E000000 		.4byte	.LASF57
 1701 02c4 08       		.byte	0x8
 1702 02c5 03       		.byte	0x3
 1703 02c6 B7       		.byte	0xb7
 1704 02c7 E4020000 		.4byte	0x2e4
 1705 02cb 07       		.uleb128 0x7
 1706 02cc 79060000 		.4byte	.LASF33
 1707 02d0 03       		.byte	0x3
 1708 02d1 B8       		.byte	0xb8
 1709 02d2 8A020000 		.4byte	0x28a
 1710 02d6 00       		.byte	0
 1711 02d7 07       		.uleb128 0x7
 1712 02d8 F3050000 		.4byte	.LASF34
 1713 02dc 03       		.byte	0x3
 1714 02dd B9       		.byte	0xb9
 1715 02de 8A020000 		.4byte	0x28a
 1716 02e2 04       		.byte	0x4
 1717 02e3 00       		.byte	0
 1718 02e4 03       		.uleb128 0x3
 1719 02e5 0D000000 		.4byte	.LASF58
 1720 02e9 0C       		.byte	0xc
 1721 02ea 57       		.byte	0x57
 1722 02eb EF020000 		.4byte	0x2ef
 1723 02ef 0B       		.uleb128 0xb
 1724 02f0 36040000 		.4byte	.LASF59
 1725 02f4 1C       		.byte	0x1c
 1726 02f5 03       		.byte	0x3
 1727 02f6 9001     		.2byte	0x190
 1728 02f8 4B030000 		.4byte	0x34b
 1729 02fc 09       		.uleb128 0x9
 1730 02fd 50070000 		.4byte	.LASF60
 1731 0301 03       		.byte	0x3
 1732 0302 9101     		.2byte	0x191
 1733 0304 B4020000 		.4byte	0x2b4
 1734 0308 00       		.byte	0
 1735 0309 09       		.uleb128 0x9
 1736 030a FD040000 		.4byte	.LASF61
 1737 030e 03       		.byte	0x3
 1738 030f 9201     		.2byte	0x192
 1739 0311 27010000 		.4byte	0x127
 1740 0315 08       		.byte	0x8
 1741 0316 09       		.uleb128 0x9
 1742 0317 72050000 		.4byte	.LASF62
 1743 031b 03       		.byte	0x3
 1744 031c 9401     		.2byte	0x194
 1745 031e F8040000 		.4byte	0x4f8
 1746 0322 0C       		.byte	0xc
 1747 0323 09       		.uleb128 0x9
 1748 0324 27030000 		.4byte	.LASF63
 1749 0328 03       		.byte	0x3
 1750 0329 9701     		.2byte	0x197
 1751 032b 8A020000 		.4byte	0x28a
 1752 032f 10       		.byte	0x10
 1753 0330 09       		.uleb128 0x9
 1754 0331 A5050000 		.4byte	.LASF64
 1755 0335 03       		.byte	0x3
ARM GAS  /tmp/ccwmDzl4.s 			page 32


 1756 0336 9801     		.2byte	0x198
 1757 0338 8A020000 		.4byte	0x28a
 1758 033c 14       		.byte	0x14
 1759 033d 09       		.uleb128 0x9
 1760 033e 9B050000 		.4byte	.LASF65
 1761 0342 03       		.byte	0x3
 1762 0343 9B01     		.2byte	0x19b
 1763 0345 8A020000 		.4byte	0x28a
 1764 0349 18       		.byte	0x18
 1765 034a 00       		.byte	0
 1766 034b 03       		.uleb128 0x3
 1767 034c EF070000 		.4byte	.LASF66
 1768 0350 0C       		.byte	0xc
 1769 0351 5C       		.byte	0x5c
 1770 0352 56030000 		.4byte	0x356
 1771 0356 0A       		.uleb128 0xa
 1772 0357 04       		.byte	0x4
 1773 0358 5C030000 		.4byte	0x35c
 1774 035c 0C       		.uleb128 0xc
 1775 035d 67030000 		.4byte	0x367
 1776 0361 0D       		.uleb128 0xd
 1777 0362 67030000 		.4byte	0x367
 1778 0366 00       		.byte	0
 1779 0367 0E       		.uleb128 0xe
 1780 0368 04       		.byte	0x4
 1781 0369 03       		.uleb128 0x3
 1782 036a E3050000 		.4byte	.LASF67
 1783 036e 0C       		.byte	0xc
 1784 036f 61       		.byte	0x61
 1785 0370 74030000 		.4byte	0x374
 1786 0374 0B       		.uleb128 0xb
 1787 0375 F7060000 		.4byte	.LASF68
 1788 0379 14       		.byte	0x14
 1789 037a 03       		.byte	0x3
 1790 037b 6B01     		.2byte	0x16b
 1791 037d C3030000 		.4byte	0x3c3
 1792 0381 09       		.uleb128 0x9
 1793 0382 AD030000 		.4byte	.LASF69
 1794 0386 03       		.byte	0x3
 1795 0387 6C01     		.2byte	0x16c
 1796 0389 F5070000 		.4byte	0x7f5
 1797 038d 00       		.byte	0
 1798 038e 09       		.uleb128 0x9
 1799 038f 5A030000 		.4byte	.LASF70
 1800 0393 03       		.byte	0x3
 1801 0394 6D01     		.2byte	0x16d
 1802 0396 F5070000 		.4byte	0x7f5
 1803 039a 04       		.byte	0x4
 1804 039b 09       		.uleb128 0x9
 1805 039c 19040000 		.4byte	.LASF71
 1806 03a0 03       		.byte	0x3
 1807 03a1 6E01     		.2byte	0x16e
 1808 03a3 5E010000 		.4byte	0x15e
 1809 03a7 08       		.byte	0x8
 1810 03a8 09       		.uleb128 0x9
 1811 03a9 20090000 		.4byte	.LASF72
 1812 03ad 03       		.byte	0x3
ARM GAS  /tmp/ccwmDzl4.s 			page 33


 1813 03ae 6F01     		.2byte	0x16f
 1814 03b0 4B030000 		.4byte	0x34b
 1815 03b4 0C       		.byte	0xc
 1816 03b5 09       		.uleb128 0x9
 1817 03b6 55080000 		.4byte	.LASF73
 1818 03ba 03       		.byte	0x3
 1819 03bb 7101     		.2byte	0x171
 1820 03bd 67030000 		.4byte	0x367
 1821 03c1 10       		.byte	0x10
 1822 03c2 00       		.byte	0
 1823 03c3 03       		.uleb128 0x3
 1824 03c4 EF000000 		.4byte	.LASF74
 1825 03c8 0C       		.byte	0xc
 1826 03c9 66       		.byte	0x66
 1827 03ca CE030000 		.4byte	0x3ce
 1828 03ce 0B       		.uleb128 0xb
 1829 03cf 17050000 		.4byte	.LASF75
 1830 03d3 10       		.byte	0x10
 1831 03d4 03       		.byte	0x3
 1832 03d5 7B01     		.2byte	0x17b
 1833 03d7 10040000 		.4byte	0x410
 1834 03db 09       		.uleb128 0x9
 1835 03dc AD030000 		.4byte	.LASF69
 1836 03e0 03       		.byte	0x3
 1837 03e1 7C01     		.2byte	0x17c
 1838 03e3 F5070000 		.4byte	0x7f5
 1839 03e7 00       		.byte	0
 1840 03e8 09       		.uleb128 0x9
 1841 03e9 5A030000 		.4byte	.LASF70
 1842 03ed 03       		.byte	0x3
 1843 03ee 7E01     		.2byte	0x17e
 1844 03f0 F5070000 		.4byte	0x7f5
 1845 03f4 04       		.byte	0x4
 1846 03f5 09       		.uleb128 0x9
 1847 03f6 19040000 		.4byte	.LASF71
 1848 03fa 03       		.byte	0x3
 1849 03fb 8001     		.2byte	0x180
 1850 03fd 5E010000 		.4byte	0x15e
 1851 0401 08       		.byte	0x8
 1852 0402 09       		.uleb128 0x9
 1853 0403 B8080000 		.4byte	.LASF76
 1854 0407 03       		.byte	0x3
 1855 0408 8201     		.2byte	0x182
 1856 040a 69010000 		.4byte	0x169
 1857 040e 0C       		.byte	0xc
 1858 040f 00       		.byte	0
 1859 0410 03       		.uleb128 0x3
 1860 0411 6F000000 		.4byte	.LASF77
 1861 0415 0C       		.byte	0xc
 1862 0416 6B       		.byte	0x6b
 1863 0417 1B040000 		.4byte	0x41b
 1864 041b 0B       		.uleb128 0xb
 1865 041c 4A030000 		.4byte	.LASF78
 1866 0420 0C       		.byte	0xc
 1867 0421 03       		.byte	0x3
 1868 0422 A201     		.2byte	0x1a2
 1869 0424 50040000 		.4byte	0x450
ARM GAS  /tmp/ccwmDzl4.s 			page 34


 1870 0428 09       		.uleb128 0x9
 1871 0429 11080000 		.4byte	.LASF79
 1872 042d 03       		.byte	0x3
 1873 042e AA01     		.2byte	0x1aa
 1874 0430 DE070000 		.4byte	0x7de
 1875 0434 00       		.byte	0
 1876 0435 09       		.uleb128 0x9
 1877 0436 77080000 		.4byte	.LASF80
 1878 043a 03       		.byte	0x3
 1879 043b AF01     		.2byte	0x1af
 1880 043d 48010000 		.4byte	0x148
 1881 0441 04       		.byte	0x4
 1882 0442 09       		.uleb128 0x9
 1883 0443 70030000 		.4byte	.LASF81
 1884 0447 03       		.byte	0x3
 1885 0448 B301     		.2byte	0x1b3
 1886 044a 48010000 		.4byte	0x148
 1887 044e 08       		.byte	0x8
 1888 044f 00       		.byte	0
 1889 0450 03       		.uleb128 0x3
 1890 0451 9B040000 		.4byte	.LASF82
 1891 0455 0C       		.byte	0xc
 1892 0456 70       		.byte	0x70
 1893 0457 5B040000 		.4byte	0x45b
 1894 045b 0F       		.uleb128 0xf
 1895 045c 9F010000 		.4byte	.LASF83
 1896 0460 5802     		.2byte	0x258
 1897 0462 03       		.byte	0x3
 1898 0463 C201     		.2byte	0x1c2
 1899 0465 C4040000 		.4byte	0x4c4
 1900 0469 09       		.uleb128 0x9
 1901 046a 7F080000 		.4byte	.LASF84
 1902 046e 03       		.byte	0x3
 1903 046f C601     		.2byte	0x1c6
 1904 0471 E4020000 		.4byte	0x2e4
 1905 0475 00       		.byte	0
 1906 0476 09       		.uleb128 0x9
 1907 0477 86010000 		.4byte	.LASF85
 1908 047b 03       		.byte	0x3
 1909 047c CA01     		.2byte	0x1ca
 1910 047e C3030000 		.4byte	0x3c3
 1911 0482 1C       		.byte	0x1c
 1912 0483 08       		.uleb128 0x8
 1913 0484 64626700 		.ascii	"dbg\000"
 1914 0488 03       		.byte	0x3
 1915 0489 CE01     		.2byte	0x1ce
 1916 048b 10040000 		.4byte	0x410
 1917 048f 2C       		.byte	0x2c
 1918 0490 09       		.uleb128 0x9
 1919 0491 DA000000 		.4byte	.LASF86
 1920 0495 03       		.byte	0x3
 1921 0496 D201     		.2byte	0x1d2
 1922 0498 6E010000 		.4byte	0x16e
 1923 049c 38       		.byte	0x38
 1924 049d 08       		.uleb128 0x8
 1925 049e 746D00   		.ascii	"tm\000"
 1926 04a1 03       		.byte	0x3
ARM GAS  /tmp/ccwmDzl4.s 			page 35


 1927 04a2 D701     		.2byte	0x1d7
 1928 04a4 76060000 		.4byte	0x676
 1929 04a8 98       		.byte	0x98
 1930 04a9 09       		.uleb128 0x9
 1931 04aa C3050000 		.4byte	.LASF87
 1932 04ae 03       		.byte	0x3
 1933 04af DD01     		.2byte	0x1dd
 1934 04b1 08070000 		.4byte	0x708
 1935 04b5 A0       		.byte	0xa0
 1936 04b6 09       		.uleb128 0x9
 1937 04b7 79030000 		.4byte	.LASF88
 1938 04bb 03       		.byte	0x3
 1939 04bc E301     		.2byte	0x1e3
 1940 04be FB070000 		.4byte	0x7fb
 1941 04c2 D8       		.byte	0xd8
 1942 04c3 00       		.byte	0
 1943 04c4 04       		.uleb128 0x4
 1944 04c5 04       		.byte	0x4
 1945 04c6 07       		.byte	0x7
 1946 04c7 0E050000 		.4byte	.LASF89
 1947 04cb 10       		.uleb128 0x10
 1948 04cc 05010000 		.4byte	.LASF90
 1949 04d0 0D       		.byte	0xd
 1950 04d1 FA06     		.2byte	0x6fa
 1951 04d3 D5000000 		.4byte	0xd5
 1952 04d7 11       		.uleb128 0x11
 1953 04d8 BE030000 		.4byte	.LASF91
 1954 04dc 0E       		.byte	0xe
 1955 04dd 4C       		.byte	0x4c
 1956 04de DA000000 		.4byte	0xda
 1957 04e2 03       		.uleb128 0x3
 1958 04e3 2F030000 		.4byte	.LASF92
 1959 04e7 0F       		.byte	0xf
 1960 04e8 65       		.byte	0x65
 1961 04e9 67030000 		.4byte	0x367
 1962 04ed 03       		.uleb128 0x3
 1963 04ee CF040000 		.4byte	.LASF93
 1964 04f2 0F       		.byte	0xf
 1965 04f3 6D       		.byte	0x6d
 1966 04f4 E5000000 		.4byte	0xe5
 1967 04f8 06       		.uleb128 0x6
 1968 04f9 22080000 		.4byte	.LASF94
 1969 04fd 04       		.byte	0x4
 1970 04fe 0F       		.byte	0xf
 1971 04ff 89       		.byte	0x89
 1972 0500 11050000 		.4byte	0x511
 1973 0504 12       		.uleb128 0x12
 1974 0505 72313300 		.ascii	"r13\000"
 1975 0509 0F       		.byte	0xf
 1976 050a 8A       		.byte	0x8a
 1977 050b 5B060000 		.4byte	0x65b
 1978 050f 00       		.byte	0
 1979 0510 00       		.byte	0
 1980 0511 06       		.uleb128 0x6
 1981 0512 52000000 		.4byte	.LASF95
 1982 0516 64       		.byte	0x64
 1983 0517 01       		.byte	0x1
ARM GAS  /tmp/ccwmDzl4.s 			page 36


 1984 0518 FD       		.byte	0xfd
 1985 0519 5B060000 		.4byte	0x65b
 1986 051d 12       		.uleb128 0x12
 1987 051e 73313600 		.ascii	"s16\000"
 1988 0522 01       		.byte	0x1
 1989 0523 FF       		.byte	0xff
 1990 0524 E2040000 		.4byte	0x4e2
 1991 0528 00       		.byte	0
 1992 0529 08       		.uleb128 0x8
 1993 052a 73313700 		.ascii	"s17\000"
 1994 052e 01       		.byte	0x1
 1995 052f 0001     		.2byte	0x100
 1996 0531 E2040000 		.4byte	0x4e2
 1997 0535 04       		.byte	0x4
 1998 0536 08       		.uleb128 0x8
 1999 0537 73313800 		.ascii	"s18\000"
 2000 053b 01       		.byte	0x1
 2001 053c 0101     		.2byte	0x101
 2002 053e E2040000 		.4byte	0x4e2
 2003 0542 08       		.byte	0x8
 2004 0543 08       		.uleb128 0x8
 2005 0544 73313900 		.ascii	"s19\000"
 2006 0548 01       		.byte	0x1
 2007 0549 0201     		.2byte	0x102
 2008 054b E2040000 		.4byte	0x4e2
 2009 054f 0C       		.byte	0xc
 2010 0550 08       		.uleb128 0x8
 2011 0551 73323000 		.ascii	"s20\000"
 2012 0555 01       		.byte	0x1
 2013 0556 0301     		.2byte	0x103
 2014 0558 E2040000 		.4byte	0x4e2
 2015 055c 10       		.byte	0x10
 2016 055d 08       		.uleb128 0x8
 2017 055e 73323100 		.ascii	"s21\000"
 2018 0562 01       		.byte	0x1
 2019 0563 0401     		.2byte	0x104
 2020 0565 E2040000 		.4byte	0x4e2
 2021 0569 14       		.byte	0x14
 2022 056a 08       		.uleb128 0x8
 2023 056b 73323200 		.ascii	"s22\000"
 2024 056f 01       		.byte	0x1
 2025 0570 0501     		.2byte	0x105
 2026 0572 E2040000 		.4byte	0x4e2
 2027 0576 18       		.byte	0x18
 2028 0577 08       		.uleb128 0x8
 2029 0578 73323300 		.ascii	"s23\000"
 2030 057c 01       		.byte	0x1
 2031 057d 0601     		.2byte	0x106
 2032 057f E2040000 		.4byte	0x4e2
 2033 0583 1C       		.byte	0x1c
 2034 0584 08       		.uleb128 0x8
 2035 0585 73323400 		.ascii	"s24\000"
 2036 0589 01       		.byte	0x1
 2037 058a 0701     		.2byte	0x107
 2038 058c E2040000 		.4byte	0x4e2
 2039 0590 20       		.byte	0x20
 2040 0591 08       		.uleb128 0x8
ARM GAS  /tmp/ccwmDzl4.s 			page 37


 2041 0592 73323500 		.ascii	"s25\000"
 2042 0596 01       		.byte	0x1
 2043 0597 0801     		.2byte	0x108
 2044 0599 E2040000 		.4byte	0x4e2
 2045 059d 24       		.byte	0x24
 2046 059e 08       		.uleb128 0x8
 2047 059f 73323600 		.ascii	"s26\000"
 2048 05a3 01       		.byte	0x1
 2049 05a4 0901     		.2byte	0x109
 2050 05a6 E2040000 		.4byte	0x4e2
 2051 05aa 28       		.byte	0x28
 2052 05ab 08       		.uleb128 0x8
 2053 05ac 73323700 		.ascii	"s27\000"
 2054 05b0 01       		.byte	0x1
 2055 05b1 0A01     		.2byte	0x10a
 2056 05b3 E2040000 		.4byte	0x4e2
 2057 05b7 2C       		.byte	0x2c
 2058 05b8 08       		.uleb128 0x8
 2059 05b9 73323800 		.ascii	"s28\000"
 2060 05bd 01       		.byte	0x1
 2061 05be 0B01     		.2byte	0x10b
 2062 05c0 E2040000 		.4byte	0x4e2
 2063 05c4 30       		.byte	0x30
 2064 05c5 08       		.uleb128 0x8
 2065 05c6 73323900 		.ascii	"s29\000"
 2066 05ca 01       		.byte	0x1
 2067 05cb 0C01     		.2byte	0x10c
 2068 05cd E2040000 		.4byte	0x4e2
 2069 05d1 34       		.byte	0x34
 2070 05d2 08       		.uleb128 0x8
 2071 05d3 73333000 		.ascii	"s30\000"
 2072 05d7 01       		.byte	0x1
 2073 05d8 0D01     		.2byte	0x10d
 2074 05da E2040000 		.4byte	0x4e2
 2075 05de 38       		.byte	0x38
 2076 05df 08       		.uleb128 0x8
 2077 05e0 73333100 		.ascii	"s31\000"
 2078 05e4 01       		.byte	0x1
 2079 05e5 0E01     		.2byte	0x10e
 2080 05e7 E2040000 		.4byte	0x4e2
 2081 05eb 3C       		.byte	0x3c
 2082 05ec 08       		.uleb128 0x8
 2083 05ed 723400   		.ascii	"r4\000"
 2084 05f0 01       		.byte	0x1
 2085 05f1 1001     		.2byte	0x110
 2086 05f3 E2040000 		.4byte	0x4e2
 2087 05f7 40       		.byte	0x40
 2088 05f8 08       		.uleb128 0x8
 2089 05f9 723500   		.ascii	"r5\000"
 2090 05fc 01       		.byte	0x1
 2091 05fd 1101     		.2byte	0x111
 2092 05ff E2040000 		.4byte	0x4e2
 2093 0603 44       		.byte	0x44
 2094 0604 08       		.uleb128 0x8
 2095 0605 723600   		.ascii	"r6\000"
 2096 0608 01       		.byte	0x1
 2097 0609 1201     		.2byte	0x112
ARM GAS  /tmp/ccwmDzl4.s 			page 38


 2098 060b E2040000 		.4byte	0x4e2
 2099 060f 48       		.byte	0x48
 2100 0610 08       		.uleb128 0x8
 2101 0611 723700   		.ascii	"r7\000"
 2102 0614 01       		.byte	0x1
 2103 0615 1301     		.2byte	0x113
 2104 0617 E2040000 		.4byte	0x4e2
 2105 061b 4C       		.byte	0x4c
 2106 061c 08       		.uleb128 0x8
 2107 061d 723800   		.ascii	"r8\000"
 2108 0620 01       		.byte	0x1
 2109 0621 1401     		.2byte	0x114
 2110 0623 E2040000 		.4byte	0x4e2
 2111 0627 50       		.byte	0x50
 2112 0628 08       		.uleb128 0x8
 2113 0629 723900   		.ascii	"r9\000"
 2114 062c 01       		.byte	0x1
 2115 062d 1501     		.2byte	0x115
 2116 062f E2040000 		.4byte	0x4e2
 2117 0633 54       		.byte	0x54
 2118 0634 08       		.uleb128 0x8
 2119 0635 72313000 		.ascii	"r10\000"
 2120 0639 01       		.byte	0x1
 2121 063a 1601     		.2byte	0x116
 2122 063c E2040000 		.4byte	0x4e2
 2123 0640 58       		.byte	0x58
 2124 0641 08       		.uleb128 0x8
 2125 0642 72313100 		.ascii	"r11\000"
 2126 0646 01       		.byte	0x1
 2127 0647 1701     		.2byte	0x117
 2128 0649 E2040000 		.4byte	0x4e2
 2129 064d 5C       		.byte	0x5c
 2130 064e 08       		.uleb128 0x8
 2131 064f 6C7200   		.ascii	"lr\000"
 2132 0652 01       		.byte	0x1
 2133 0653 1801     		.2byte	0x118
 2134 0655 E2040000 		.4byte	0x4e2
 2135 0659 60       		.byte	0x60
 2136 065a 00       		.byte	0
 2137 065b 0A       		.uleb128 0xa
 2138 065c 04       		.byte	0x4
 2139 065d 11050000 		.4byte	0x511
 2140 0661 13       		.uleb128 0x13
 2141 0662 04       		.byte	0x4
 2142 0663 10       		.byte	0x10
 2143 0664 38       		.byte	0x38
 2144 0665 76060000 		.4byte	0x676
 2145 0669 07       		.uleb128 0x7
 2146 066a 1B080000 		.4byte	.LASF96
 2147 066e 10       		.byte	0x10
 2148 066f 3C       		.byte	0x3c
 2149 0670 F0000000 		.4byte	0xf0
 2150 0674 00       		.byte	0
 2151 0675 00       		.byte	0
 2152 0676 03       		.uleb128 0x3
 2153 0677 7E050000 		.4byte	.LASF97
 2154 067b 10       		.byte	0x10
ARM GAS  /tmp/ccwmDzl4.s 			page 39


 2155 067c 3D       		.byte	0x3d
 2156 067d 61060000 		.4byte	0x661
 2157 0681 13       		.uleb128 0x13
 2158 0682 18       		.byte	0x18
 2159 0683 10       		.byte	0x10
 2160 0684 48       		.byte	0x48
 2161 0685 C4060000 		.4byte	0x6c4
 2162 0689 07       		.uleb128 0x7
 2163 068a C3070000 		.4byte	.LASF98
 2164 068e 10       		.byte	0x10
 2165 068f 49       		.byte	0x49
 2166 0690 F0000000 		.4byte	0xf0
 2167 0694 00       		.byte	0
 2168 0695 07       		.uleb128 0x7
 2169 0696 93000000 		.4byte	.LASF99
 2170 069a 10       		.byte	0x10
 2171 069b 4A       		.byte	0x4a
 2172 069c F0000000 		.4byte	0xf0
 2173 06a0 04       		.byte	0x4
 2174 06a1 07       		.uleb128 0x7
 2175 06a2 8F040000 		.4byte	.LASF100
 2176 06a6 10       		.byte	0x10
 2177 06a7 4B       		.byte	0x4b
 2178 06a8 F0000000 		.4byte	0xf0
 2179 06ac 08       		.byte	0x8
 2180 06ad 12       		.uleb128 0x12
 2181 06ae 6E00     		.ascii	"n\000"
 2182 06b0 10       		.byte	0x10
 2183 06b1 4C       		.byte	0x4c
 2184 06b2 53010000 		.4byte	0x153
 2185 06b6 0C       		.byte	0xc
 2186 06b7 07       		.uleb128 0x7
 2187 06b8 B8050000 		.4byte	.LASF101
 2188 06bc 10       		.byte	0x10
 2189 06bd 4D       		.byte	0x4d
 2190 06be FB000000 		.4byte	0xfb
 2191 06c2 10       		.byte	0x10
 2192 06c3 00       		.byte	0
 2193 06c4 03       		.uleb128 0x3
 2194 06c5 99000000 		.4byte	.LASF102
 2195 06c9 10       		.byte	0x10
 2196 06ca 4E       		.byte	0x4e
 2197 06cb 81060000 		.4byte	0x681
 2198 06cf 13       		.uleb128 0x13
 2199 06d0 38       		.byte	0x38
 2200 06d1 11       		.byte	0x11
 2201 06d2 38       		.byte	0x38
 2202 06d3 08070000 		.4byte	0x708
 2203 06d7 07       		.uleb128 0x7
 2204 06d8 44040000 		.4byte	.LASF103
 2205 06dc 11       		.byte	0x11
 2206 06dd 39       		.byte	0x39
 2207 06de 53010000 		.4byte	0x153
 2208 06e2 00       		.byte	0
 2209 06e3 07       		.uleb128 0x7
 2210 06e4 15060000 		.4byte	.LASF104
 2211 06e8 11       		.byte	0x11
ARM GAS  /tmp/ccwmDzl4.s 			page 40


 2212 06e9 3A       		.byte	0x3a
 2213 06ea 53010000 		.4byte	0x153
 2214 06ee 04       		.byte	0x4
 2215 06ef 07       		.uleb128 0x7
 2216 06f0 F8080000 		.4byte	.LASF105
 2217 06f4 11       		.byte	0x11
 2218 06f5 3B       		.byte	0x3b
 2219 06f6 C4060000 		.4byte	0x6c4
 2220 06fa 08       		.byte	0x8
 2221 06fb 07       		.uleb128 0x7
 2222 06fc AE040000 		.4byte	.LASF106
 2223 0700 11       		.byte	0x11
 2224 0701 3D       		.byte	0x3d
 2225 0702 C4060000 		.4byte	0x6c4
 2226 0706 20       		.byte	0x20
 2227 0707 00       		.byte	0
 2228 0708 03       		.uleb128 0x3
 2229 0709 63040000 		.4byte	.LASF107
 2230 070d 11       		.byte	0x11
 2231 070e 3F       		.byte	0x3f
 2232 070f CF060000 		.4byte	0x6cf
 2233 0713 14       		.uleb128 0x14
 2234 0714 04       		.byte	0x4
 2235 0715 03       		.byte	0x3
 2236 0716 FA       		.byte	0xfa
 2237 0717 70070000 		.4byte	0x770
 2238 071b 15       		.uleb128 0x15
 2239 071c 21000000 		.4byte	.LASF108
 2240 0720 03       		.byte	0x3
 2241 0721 0101     		.2byte	0x101
 2242 0723 32010000 		.4byte	0x132
 2243 0727 15       		.uleb128 0x15
 2244 0728 D1000000 		.4byte	.LASF109
 2245 072c 03       		.byte	0x3
 2246 072d 0801     		.2byte	0x108
 2247 072f 32010000 		.4byte	0x132
 2248 0733 15       		.uleb128 0x15
 2249 0734 A7040000 		.4byte	.LASF110
 2250 0738 03       		.byte	0x3
 2251 0739 0F01     		.2byte	0x10f
 2252 073b 67030000 		.4byte	0x367
 2253 073f 15       		.uleb128 0x15
 2254 0740 99010000 		.4byte	.LASF111
 2255 0744 03       		.byte	0x3
 2256 0745 1601     		.2byte	0x116
 2257 0747 70070000 		.4byte	0x770
 2258 074b 15       		.uleb128 0x15
 2259 074c 12040000 		.4byte	.LASF112
 2260 0750 03       		.byte	0x3
 2261 0751 1E01     		.2byte	0x11e
 2262 0753 9B070000 		.4byte	0x79b
 2263 0757 15       		.uleb128 0x15
 2264 0758 93070000 		.4byte	.LASF113
 2265 075c 03       		.byte	0x3
 2266 075d 2701     		.2byte	0x127
 2267 075f D2070000 		.4byte	0x7d2
 2268 0763 15       		.uleb128 0x15
ARM GAS  /tmp/ccwmDzl4.s 			page 41


 2269 0764 72060000 		.4byte	.LASF114
 2270 0768 03       		.byte	0x3
 2271 0769 2F01     		.2byte	0x12f
 2272 076b 3D010000 		.4byte	0x13d
 2273 076f 00       		.byte	0
 2274 0770 0A       		.uleb128 0xa
 2275 0771 04       		.byte	0x4
 2276 0772 7F020000 		.4byte	0x27f
 2277 0776 06       		.uleb128 0x6
 2278 0777 15070000 		.4byte	.LASF115
 2279 077b 0C       		.byte	0xc
 2280 077c 06       		.byte	0x6
 2281 077d 34       		.byte	0x34
 2282 077e 9B070000 		.4byte	0x79b
 2283 0782 07       		.uleb128 0x7
 2284 0783 0E030000 		.4byte	.LASF116
 2285 0787 06       		.byte	0x6
 2286 0788 35       		.byte	0x35
 2287 0789 B4020000 		.4byte	0x2b4
 2288 078d 00       		.byte	0
 2289 078e 07       		.uleb128 0x7
 2290 078f 4A040000 		.4byte	.LASF117
 2291 0793 06       		.byte	0x6
 2292 0794 37       		.byte	0x37
 2293 0795 48010000 		.4byte	0x148
 2294 0799 08       		.byte	0x8
 2295 079a 00       		.byte	0
 2296 079b 0A       		.uleb128 0xa
 2297 079c 04       		.byte	0x4
 2298 079d 76070000 		.4byte	0x776
 2299 07a1 06       		.uleb128 0x6
 2300 07a2 67080000 		.4byte	.LASF118
 2301 07a6 10       		.byte	0x10
 2302 07a7 12       		.byte	0x12
 2303 07a8 39       		.byte	0x39
 2304 07a9 D2070000 		.4byte	0x7d2
 2305 07ad 07       		.uleb128 0x7
 2306 07ae 7E010000 		.4byte	.LASF119
 2307 07b2 12       		.byte	0x12
 2308 07b3 3A       		.byte	0x3a
 2309 07b4 B4020000 		.4byte	0x2b4
 2310 07b8 00       		.byte	0
 2311 07b9 07       		.uleb128 0x7
 2312 07ba 03090000 		.4byte	.LASF120
 2313 07be 12       		.byte	0x12
 2314 07bf 3C       		.byte	0x3c
 2315 07c0 8A020000 		.4byte	0x28a
 2316 07c4 08       		.byte	0x8
 2317 07c5 07       		.uleb128 0x7
 2318 07c6 8F050000 		.4byte	.LASF121
 2319 07ca 12       		.byte	0x12
 2320 07cb 3E       		.byte	0x3e
 2321 07cc 38090000 		.4byte	0x938
 2322 07d0 0C       		.byte	0xc
 2323 07d1 00       		.byte	0
 2324 07d2 0A       		.uleb128 0xa
 2325 07d3 04       		.byte	0x4
ARM GAS  /tmp/ccwmDzl4.s 			page 42


 2326 07d4 A1070000 		.4byte	0x7a1
 2327 07d8 0A       		.uleb128 0xa
 2328 07d9 04       		.byte	0x4
 2329 07da EA070000 		.4byte	0x7ea
 2330 07de 05       		.uleb128 0x5
 2331 07df D8070000 		.4byte	0x7d8
 2332 07e3 04       		.uleb128 0x4
 2333 07e4 01       		.byte	0x1
 2334 07e5 08       		.byte	0x8
 2335 07e6 8E070000 		.4byte	.LASF122
 2336 07ea 16       		.uleb128 0x16
 2337 07eb E3070000 		.4byte	0x7e3
 2338 07ef 0A       		.uleb128 0xa
 2339 07f0 04       		.byte	0x4
 2340 07f1 ED040000 		.4byte	0x4ed
 2341 07f5 0A       		.uleb128 0xa
 2342 07f6 04       		.byte	0x4
 2343 07f7 69030000 		.4byte	0x369
 2344 07fb 17       		.uleb128 0x17
 2345 07fc ED040000 		.4byte	0x4ed
 2346 0800 0B080000 		.4byte	0x80b
 2347 0804 18       		.uleb128 0x18
 2348 0805 C4040000 		.4byte	0x4c4
 2349 0809 2F       		.byte	0x2f
 2350 080a 00       		.byte	0
 2351 080b 19       		.uleb128 0x19
 2352 080c 636800   		.ascii	"ch\000"
 2353 080f 03       		.byte	0x3
 2354 0810 0902     		.2byte	0x209
 2355 0812 50040000 		.4byte	0x450
 2356 0816 13       		.uleb128 0x13
 2357 0817 16       		.byte	0x16
 2358 0818 13       		.byte	0x13
 2359 0819 34       		.byte	0x34
 2360 081a F7080000 		.4byte	0x8f7
 2361 081e 07       		.uleb128 0x7
 2362 081f 12090000 		.4byte	.LASF123
 2363 0823 13       		.byte	0x13
 2364 0824 35       		.byte	0x35
 2365 0825 F7080000 		.4byte	0x8f7
 2366 0829 00       		.byte	0
 2367 082a 07       		.uleb128 0x7
 2368 082b E9040000 		.4byte	.LASF124
 2369 082f 13       		.byte	0x13
 2370 0830 36       		.byte	0x36
 2371 0831 B4000000 		.4byte	0xb4
 2372 0835 04       		.byte	0x4
 2373 0836 07       		.uleb128 0x7
 2374 0837 74070000 		.4byte	.LASF125
 2375 083b 13       		.byte	0x13
 2376 083c 37       		.byte	0x37
 2377 083d B4000000 		.4byte	0xb4
 2378 0841 05       		.byte	0x5
 2379 0842 07       		.uleb128 0x7
 2380 0843 ED080000 		.4byte	.LASF126
 2381 0847 13       		.byte	0x13
 2382 0848 38       		.byte	0x38
ARM GAS  /tmp/ccwmDzl4.s 			page 43


 2383 0849 BF000000 		.4byte	0xbf
 2384 084d 06       		.byte	0x6
 2385 084e 07       		.uleb128 0x7
 2386 084f D8050000 		.4byte	.LASF127
 2387 0853 13       		.byte	0x13
 2388 0854 39       		.byte	0x39
 2389 0855 B4000000 		.4byte	0xb4
 2390 0859 08       		.byte	0x8
 2391 085a 07       		.uleb128 0x7
 2392 085b 3A050000 		.4byte	.LASF128
 2393 085f 13       		.byte	0x13
 2394 0860 3A       		.byte	0x3a
 2395 0861 B4000000 		.4byte	0xb4
 2396 0865 09       		.byte	0x9
 2397 0866 07       		.uleb128 0x7
 2398 0867 C3000000 		.4byte	.LASF129
 2399 086b 13       		.byte	0x13
 2400 086c 3B       		.byte	0x3b
 2401 086d B4000000 		.4byte	0xb4
 2402 0871 0A       		.byte	0xa
 2403 0872 07       		.uleb128 0x7
 2404 0873 44070000 		.4byte	.LASF130
 2405 0877 13       		.byte	0x13
 2406 0878 3C       		.byte	0x3c
 2407 0879 B4000000 		.4byte	0xb4
 2408 087d 0B       		.byte	0xb
 2409 087e 07       		.uleb128 0x7
 2410 087f 5C080000 		.4byte	.LASF131
 2411 0883 13       		.byte	0x13
 2412 0884 3D       		.byte	0x3d
 2413 0885 B4000000 		.4byte	0xb4
 2414 0889 0C       		.byte	0xc
 2415 088a 07       		.uleb128 0x7
 2416 088b 08070000 		.4byte	.LASF132
 2417 088f 13       		.byte	0x13
 2418 0890 3E       		.byte	0x3e
 2419 0891 B4000000 		.4byte	0xb4
 2420 0895 0D       		.byte	0xd
 2421 0896 07       		.uleb128 0x7
 2422 0897 00000000 		.4byte	.LASF133
 2423 089b 13       		.byte	0x13
 2424 089c 3F       		.byte	0x3f
 2425 089d B4000000 		.4byte	0xb4
 2426 08a1 0E       		.byte	0xe
 2427 08a2 07       		.uleb128 0x7
 2428 08a3 5E050000 		.4byte	.LASF134
 2429 08a7 13       		.byte	0x13
 2430 08a8 40       		.byte	0x40
 2431 08a9 B4000000 		.4byte	0xb4
 2432 08ad 0F       		.byte	0xf
 2433 08ae 07       		.uleb128 0x7
 2434 08af 59010000 		.4byte	.LASF135
 2435 08b3 13       		.byte	0x13
 2436 08b4 41       		.byte	0x41
 2437 08b5 B4000000 		.4byte	0xb4
 2438 08b9 10       		.byte	0x10
 2439 08ba 07       		.uleb128 0x7
ARM GAS  /tmp/ccwmDzl4.s 			page 44


 2440 08bb 22010000 		.4byte	.LASF136
 2441 08bf 13       		.byte	0x13
 2442 08c0 43       		.byte	0x43
 2443 08c1 B4000000 		.4byte	0xb4
 2444 08c5 11       		.byte	0x11
 2445 08c6 07       		.uleb128 0x7
 2446 08c7 69010000 		.4byte	.LASF137
 2447 08cb 13       		.byte	0x13
 2448 08cc 44       		.byte	0x44
 2449 08cd B4000000 		.4byte	0xb4
 2450 08d1 12       		.byte	0x12
 2451 08d2 07       		.uleb128 0x7
 2452 08d3 F1040000 		.4byte	.LASF138
 2453 08d7 13       		.byte	0x13
 2454 08d8 45       		.byte	0x45
 2455 08d9 B4000000 		.4byte	0xb4
 2456 08dd 13       		.byte	0x13
 2457 08de 07       		.uleb128 0x7
 2458 08df 88060000 		.4byte	.LASF139
 2459 08e3 13       		.byte	0x13
 2460 08e4 46       		.byte	0x46
 2461 08e5 B4000000 		.4byte	0xb4
 2462 08e9 14       		.byte	0x14
 2463 08ea 07       		.uleb128 0x7
 2464 08eb 55060000 		.4byte	.LASF140
 2465 08ef 13       		.byte	0x13
 2466 08f0 48       		.byte	0x48
 2467 08f1 B4000000 		.4byte	0xb4
 2468 08f5 15       		.byte	0x15
 2469 08f6 00       		.byte	0
 2470 08f7 17       		.uleb128 0x17
 2471 08f8 E3070000 		.4byte	0x7e3
 2472 08fc 07090000 		.4byte	0x907
 2473 0900 18       		.uleb128 0x18
 2474 0901 C4040000 		.4byte	0x4c4
 2475 0905 03       		.byte	0x3
 2476 0906 00       		.byte	0
 2477 0907 03       		.uleb128 0x3
 2478 0908 E2020000 		.4byte	.LASF141
 2479 090c 13       		.byte	0x13
 2480 090d 49       		.byte	0x49
 2481 090e 16080000 		.4byte	0x816
 2482 0912 16       		.uleb128 0x16
 2483 0913 07090000 		.4byte	0x907
 2484 0917 11       		.uleb128 0x11
 2485 0918 2D040000 		.4byte	.LASF142
 2486 091c 13       		.byte	0x13
 2487 091d 6E       		.byte	0x6e
 2488 091e 12090000 		.4byte	0x912
 2489 0922 03       		.uleb128 0x3
 2490 0923 DB060000 		.4byte	.LASF143
 2491 0927 06       		.byte	0x6
 2492 0928 38       		.byte	0x38
 2493 0929 76070000 		.4byte	0x776
 2494 092d 03       		.uleb128 0x3
 2495 092e 62030000 		.4byte	.LASF144
 2496 0932 12       		.byte	0x12
ARM GAS  /tmp/ccwmDzl4.s 			page 45


 2497 0933 34       		.byte	0x34
 2498 0934 A1070000 		.4byte	0x7a1
 2499 0938 0A       		.uleb128 0xa
 2500 0939 04       		.byte	0x4
 2501 093a 2D090000 		.4byte	0x92d
 2502 093e 04       		.uleb128 0x4
 2503 093f 01       		.byte	0x1
 2504 0940 02       		.byte	0x2
 2505 0941 1E060000 		.4byte	.LASF145
 2506 0945 1A       		.uleb128 0x1a
 2507 0946 0B080000 		.4byte	0x80b
 2508 094a 07       		.byte	0x7
 2509 094b 2A       		.byte	0x2a
 2510 094c 05       		.uleb128 0x5
 2511 094d 03       		.byte	0x3
 2512 094e 00000000 		.4byte	ch
 2513 0952 1B       		.uleb128 0x1b
 2514 0953 38030000 		.4byte	.LASF148
 2515 0957 07       		.byte	0x7
 2516 0958 0802     		.2byte	0x208
 2517 095a 00000000 		.4byte	.LFB241
 2518 095e 0A000000 		.4byte	.LFE241-.LFB241
 2519 0962 01       		.uleb128 0x1
 2520 0963 9C       		.byte	0x9c
 2521 0964 1C       		.uleb128 0x1c
 2522 0965 31000000 		.4byte	.LASF146
 2523 0969 07       		.byte	0x7
 2524 096a E301     		.2byte	0x1e3
 2525 096c 00000000 		.4byte	.LFB240
 2526 0970 A0000000 		.4byte	.LFE240-.LFB240
 2527 0974 01       		.uleb128 0x1
 2528 0975 9C       		.byte	0x9c
 2529 0976 D3090000 		.4byte	0x9d3
 2530 097a 1D       		.uleb128 0x1d
 2531 097b 6F747000 		.ascii	"otp\000"
 2532 097f 07       		.byte	0x7
 2533 0980 E401     		.2byte	0x1e4
 2534 0982 8A020000 		.4byte	0x28a
 2535 0986 02       		.uleb128 0x2
 2536 0987 91       		.byte	0x91
 2537 0988 70       		.sleb128 -16
 2538 0989 1D       		.uleb128 0x1d
 2539 098a 637000   		.ascii	"cp\000"
 2540 098d 07       		.byte	0x7
 2541 098e E401     		.2byte	0x1e4
 2542 0990 8A020000 		.4byte	0x28a
 2543 0994 02       		.uleb128 0x2
 2544 0995 91       		.byte	0x91
 2545 0996 74       		.sleb128 -12
 2546 0997 1E       		.uleb128 0x1e
 2547 0998 66000000 		.4byte	.LBB34
 2548 099c 2A000000 		.4byte	.LBE34-.LBB34
 2549 09a0 1D       		.uleb128 0x1d
 2550 09a1 72313300 		.ascii	"r13\000"
 2551 09a5 07       		.byte	0x7
 2552 09a6 FB01     		.2byte	0x1fb
 2553 09a8 5B060000 		.4byte	0x65b
ARM GAS  /tmp/ccwmDzl4.s 			page 46


 2554 09ac 02       		.uleb128 0x2
 2555 09ad 91       		.byte	0x91
 2556 09ae 6C       		.sleb128 -20
 2557 09af 1F       		.uleb128 0x1f
 2558 09b0 3B0E0000 		.4byte	0xe3b
 2559 09b4 66000000 		.4byte	.LBB35
 2560 09b8 08000000 		.4byte	.LBE35-.LBB35
 2561 09bc 07       		.byte	0x7
 2562 09bd FB01     		.2byte	0x1fb
 2563 09bf 1E       		.uleb128 0x1e
 2564 09c0 66000000 		.4byte	.LBB36
 2565 09c4 08000000 		.4byte	.LBE36-.LBB36
 2566 09c8 20       		.uleb128 0x20
 2567 09c9 480E0000 		.4byte	0xe48
 2568 09cd 01       		.uleb128 0x1
 2569 09ce 54       		.byte	0x54
 2570 09cf 00       		.byte	0
 2571 09d0 00       		.byte	0
 2572 09d1 00       		.byte	0
 2573 09d2 00       		.byte	0
 2574 09d3 1C       		.uleb128 0x1c
 2575 09d4 46050000 		.4byte	.LASF147
 2576 09d8 07       		.byte	0x7
 2577 09d9 C701     		.2byte	0x1c7
 2578 09db 00000000 		.4byte	.LFB239
 2579 09df 6C000000 		.4byte	.LFE239-.LFB239
 2580 09e3 01       		.uleb128 0x1
 2581 09e4 9C       		.byte	0x9c
 2582 09e5 340A0000 		.4byte	0xa34
 2583 09e9 1D       		.uleb128 0x1d
 2584 09ea 6F747000 		.ascii	"otp\000"
 2585 09ee 07       		.byte	0x7
 2586 09ef C801     		.2byte	0x1c8
 2587 09f1 8A020000 		.4byte	0x28a
 2588 09f5 02       		.uleb128 0x2
 2589 09f6 91       		.byte	0x91
 2590 09f7 74       		.sleb128 -12
 2591 09f8 1E       		.uleb128 0x1e
 2592 09f9 32000000 		.4byte	.LBB31
 2593 09fd 2A000000 		.4byte	.LBE31-.LBB31
 2594 0a01 1D       		.uleb128 0x1d
 2595 0a02 72313300 		.ascii	"r13\000"
 2596 0a06 07       		.byte	0x7
 2597 0a07 D701     		.2byte	0x1d7
 2598 0a09 5B060000 		.4byte	0x65b
 2599 0a0d 02       		.uleb128 0x2
 2600 0a0e 91       		.byte	0x91
 2601 0a0f 70       		.sleb128 -16
 2602 0a10 1F       		.uleb128 0x1f
 2603 0a11 3B0E0000 		.4byte	0xe3b
 2604 0a15 32000000 		.4byte	.LBB32
 2605 0a19 08000000 		.4byte	.LBE32-.LBB32
 2606 0a1d 07       		.byte	0x7
 2607 0a1e D701     		.2byte	0x1d7
 2608 0a20 1E       		.uleb128 0x1e
 2609 0a21 32000000 		.4byte	.LBB33
 2610 0a25 08000000 		.4byte	.LBE33-.LBB33
ARM GAS  /tmp/ccwmDzl4.s 			page 47


 2611 0a29 20       		.uleb128 0x20
 2612 0a2a 480E0000 		.4byte	0xe48
 2613 0a2e 01       		.uleb128 0x1
 2614 0a2f 54       		.byte	0x54
 2615 0a30 00       		.byte	0
 2616 0a31 00       		.byte	0
 2617 0a32 00       		.byte	0
 2618 0a33 00       		.byte	0
 2619 0a34 21       		.uleb128 0x21
 2620 0a35 EC020000 		.4byte	.LASF151
 2621 0a39 07       		.byte	0x7
 2622 0a3a AC01     		.2byte	0x1ac
 2623 0a3c 3E090000 		.4byte	0x93e
 2624 0a40 00000000 		.4byte	.LFB238
 2625 0a44 2C000000 		.4byte	.LFE238-.LFB238
 2626 0a48 01       		.uleb128 0x1
 2627 0a49 9C       		.byte	0x9c
 2628 0a4a 6B0A0000 		.4byte	0xa6b
 2629 0a4e 1D       		.uleb128 0x1d
 2630 0a4f 703100   		.ascii	"p1\000"
 2631 0a52 07       		.byte	0x7
 2632 0a53 AD01     		.2byte	0x1ad
 2633 0a55 27010000 		.4byte	0x127
 2634 0a59 02       		.uleb128 0x2
 2635 0a5a 91       		.byte	0x91
 2636 0a5b 7C       		.sleb128 -4
 2637 0a5c 1D       		.uleb128 0x1d
 2638 0a5d 703200   		.ascii	"p2\000"
 2639 0a60 07       		.byte	0x7
 2640 0a61 AE01     		.2byte	0x1ae
 2641 0a63 27010000 		.4byte	0x127
 2642 0a67 02       		.uleb128 0x2
 2643 0a68 91       		.byte	0x91
 2644 0a69 78       		.sleb128 -8
 2645 0a6a 00       		.byte	0
 2646 0a6b 1B       		.uleb128 0x1b
 2647 0a6c 16030000 		.4byte	.LASF149
 2648 0a70 07       		.byte	0x7
 2649 0a71 9601     		.2byte	0x196
 2650 0a73 00000000 		.4byte	.LFB237
 2651 0a77 18000000 		.4byte	.LFE237-.LFB237
 2652 0a7b 01       		.uleb128 0x1
 2653 0a7c 9C       		.byte	0x9c
 2654 0a7d 1C       		.uleb128 0x1c
 2655 0a7e 7C040000 		.4byte	.LASF150
 2656 0a82 07       		.byte	0x7
 2657 0a83 6F01     		.2byte	0x16f
 2658 0a85 00000000 		.4byte	.LFB236
 2659 0a89 A4000000 		.4byte	.LFE236-.LFB236
 2660 0a8d 01       		.uleb128 0x1
 2661 0a8e 9C       		.byte	0x9c
 2662 0a8f 150B0000 		.4byte	0xb15
 2663 0a93 22       		.uleb128 0x22
 2664 0a94 6E747000 		.ascii	"ntp\000"
 2665 0a98 07       		.byte	0x7
 2666 0a99 6F01     		.2byte	0x16f
 2667 0a9b 8A020000 		.4byte	0x28a
ARM GAS  /tmp/ccwmDzl4.s 			page 48


 2668 0a9f 02       		.uleb128 0x2
 2669 0aa0 91       		.byte	0x91
 2670 0aa1 6C       		.sleb128 -20
 2671 0aa2 22       		.uleb128 0x22
 2672 0aa3 6D736700 		.ascii	"msg\000"
 2673 0aa7 07       		.byte	0x7
 2674 0aa8 6F01     		.2byte	0x16f
 2675 0aaa 32010000 		.4byte	0x132
 2676 0aae 02       		.uleb128 0x2
 2677 0aaf 91       		.byte	0x91
 2678 0ab0 68       		.sleb128 -24
 2679 0ab1 23       		.uleb128 0x23
 2680 0ab2 9F060000 		.4byte	.LASF157
 2681 0ab6 250B0000 		.4byte	0xb25
 2682 0aba 05       		.uleb128 0x5
 2683 0abb 03       		.byte	0x3
 2684 0abc 00000000 		.4byte	__func__.7890
 2685 0ac0 1E       		.uleb128 0x1e
 2686 0ac1 48000000 		.4byte	.LBB27
 2687 0ac5 48000000 		.4byte	.LBE27-.LBB27
 2688 0ac9 1D       		.uleb128 0x1d
 2689 0aca 6F747000 		.ascii	"otp\000"
 2690 0ace 07       		.byte	0x7
 2691 0acf 8301     		.2byte	0x183
 2692 0ad1 8A020000 		.4byte	0x28a
 2693 0ad5 02       		.uleb128 0x2
 2694 0ad6 91       		.byte	0x91
 2695 0ad7 74       		.sleb128 -12
 2696 0ad8 1E       		.uleb128 0x1e
 2697 0ad9 6A000000 		.4byte	.LBB28
 2698 0add 26000000 		.4byte	.LBE28-.LBB28
 2699 0ae1 1D       		.uleb128 0x1d
 2700 0ae2 72313300 		.ascii	"r13\000"
 2701 0ae6 07       		.byte	0x7
 2702 0ae7 8B01     		.2byte	0x18b
 2703 0ae9 5B060000 		.4byte	0x65b
 2704 0aed 02       		.uleb128 0x2
 2705 0aee 91       		.byte	0x91
 2706 0aef 70       		.sleb128 -16
 2707 0af0 1F       		.uleb128 0x1f
 2708 0af1 3B0E0000 		.4byte	0xe3b
 2709 0af5 6A000000 		.4byte	.LBB29
 2710 0af9 08000000 		.4byte	.LBE29-.LBB29
 2711 0afd 07       		.byte	0x7
 2712 0afe 8B01     		.2byte	0x18b
 2713 0b00 1E       		.uleb128 0x1e
 2714 0b01 6A000000 		.4byte	.LBB30
 2715 0b05 08000000 		.4byte	.LBE30-.LBB30
 2716 0b09 20       		.uleb128 0x20
 2717 0b0a 480E0000 		.4byte	0xe48
 2718 0b0e 01       		.uleb128 0x1
 2719 0b0f 54       		.byte	0x54
 2720 0b10 00       		.byte	0
 2721 0b11 00       		.byte	0
 2722 0b12 00       		.byte	0
 2723 0b13 00       		.byte	0
 2724 0b14 00       		.byte	0
ARM GAS  /tmp/ccwmDzl4.s 			page 49


 2725 0b15 17       		.uleb128 0x17
 2726 0b16 EA070000 		.4byte	0x7ea
 2727 0b1a 250B0000 		.4byte	0xb25
 2728 0b1e 18       		.uleb128 0x18
 2729 0b1f C4040000 		.4byte	0x4c4
 2730 0b23 0C       		.byte	0xc
 2731 0b24 00       		.byte	0
 2732 0b25 16       		.uleb128 0x16
 2733 0b26 150B0000 		.4byte	0xb15
 2734 0b2a 24       		.uleb128 0x24
 2735 0b2b C3080000 		.4byte	.LASF152
 2736 0b2f 07       		.byte	0x7
 2737 0b30 4A01     		.2byte	0x14a
 2738 0b32 32010000 		.4byte	0x132
 2739 0b36 00000000 		.4byte	.LFB235
 2740 0b3a 68000000 		.4byte	.LFE235-.LFB235
 2741 0b3e 01       		.uleb128 0x1
 2742 0b3f 9C       		.byte	0x9c
 2743 0b40 7B0B0000 		.4byte	0xb7b
 2744 0b44 25       		.uleb128 0x25
 2745 0b45 3A060000 		.4byte	.LASF153
 2746 0b49 07       		.byte	0x7
 2747 0b4a 4A01     		.2byte	0x14a
 2748 0b4c 11010000 		.4byte	0x111
 2749 0b50 02       		.uleb128 0x2
 2750 0b51 91       		.byte	0x91
 2751 0b52 5F       		.sleb128 -33
 2752 0b53 25       		.uleb128 0x25
 2753 0b54 96050000 		.4byte	.LASF154
 2754 0b58 07       		.byte	0x7
 2755 0b59 4A01     		.2byte	0x14a
 2756 0b5b 5E010000 		.4byte	0x15e
 2757 0b5f 02       		.uleb128 0x2
 2758 0b60 91       		.byte	0x91
 2759 0b61 58       		.sleb128 -40
 2760 0b62 1E       		.uleb128 0x1e
 2761 0b63 18000000 		.4byte	.LBB26
 2762 0b67 30000000 		.4byte	.LBE26-.LBB26
 2763 0b6b 1D       		.uleb128 0x1d
 2764 0b6c 767400   		.ascii	"vt\000"
 2765 0b6f 07       		.byte	0x7
 2766 0b70 4F01     		.2byte	0x14f
 2767 0b72 69030000 		.4byte	0x369
 2768 0b76 02       		.uleb128 0x2
 2769 0b77 91       		.byte	0x91
 2770 0b78 64       		.sleb128 -28
 2771 0b79 00       		.byte	0
 2772 0b7a 00       		.byte	0
 2773 0b7b 26       		.uleb128 0x26
 2774 0b7c A6030000 		.4byte	.LASF159
 2775 0b80 07       		.byte	0x7
 2776 0b81 1301     		.2byte	0x113
 2777 0b83 00000000 		.4byte	.LFB234
 2778 0b87 7C000000 		.4byte	.LFE234-.LFB234
 2779 0b8b 01       		.uleb128 0x1
 2780 0b8c 9C       		.byte	0x9c
 2781 0b8d AD0B0000 		.4byte	0xbad
ARM GAS  /tmp/ccwmDzl4.s 			page 50


 2782 0b91 22       		.uleb128 0x22
 2783 0b92 7000     		.ascii	"p\000"
 2784 0b94 07       		.byte	0x7
 2785 0b95 1301     		.2byte	0x113
 2786 0b97 67030000 		.4byte	0x367
 2787 0b9b 02       		.uleb128 0x2
 2788 0b9c 91       		.byte	0x91
 2789 0b9d 6C       		.sleb128 -20
 2790 0b9e 1D       		.uleb128 0x1d
 2791 0b9f 747000   		.ascii	"tp\000"
 2792 0ba2 07       		.byte	0x7
 2793 0ba3 1401     		.2byte	0x114
 2794 0ba5 8A020000 		.4byte	0x28a
 2795 0ba9 02       		.uleb128 0x2
 2796 0baa 91       		.byte	0x91
 2797 0bab 74       		.sleb128 -12
 2798 0bac 00       		.byte	0
 2799 0bad 27       		.uleb128 0x27
 2800 0bae 22070000 		.4byte	.LASF155
 2801 0bb2 07       		.byte	0x7
 2802 0bb3 FA       		.byte	0xfa
 2803 0bb4 00000000 		.4byte	.LFB233
 2804 0bb8 78000000 		.4byte	.LFE233-.LFB233
 2805 0bbc 01       		.uleb128 0x1
 2806 0bbd 9C       		.byte	0x9c
 2807 0bbe 1A0C0000 		.4byte	0xc1a
 2808 0bc2 28       		.uleb128 0x28
 2809 0bc3 3A060000 		.4byte	.LASF153
 2810 0bc7 07       		.byte	0x7
 2811 0bc8 FA       		.byte	0xfa
 2812 0bc9 11010000 		.4byte	0x111
 2813 0bcd 02       		.uleb128 0x2
 2814 0bce 91       		.byte	0x91
 2815 0bcf 6F       		.sleb128 -17
 2816 0bd0 29       		.uleb128 0x29
 2817 0bd1 6F747000 		.ascii	"otp\000"
 2818 0bd5 07       		.byte	0x7
 2819 0bd6 FB       		.byte	0xfb
 2820 0bd7 8A020000 		.4byte	0x28a
 2821 0bdb 02       		.uleb128 0x2
 2822 0bdc 91       		.byte	0x91
 2823 0bdd 74       		.sleb128 -12
 2824 0bde 1E       		.uleb128 0x1e
 2825 0bdf 40000000 		.4byte	.LBB23
 2826 0be3 2A000000 		.4byte	.LBE23-.LBB23
 2827 0be7 1D       		.uleb128 0x1d
 2828 0be8 72313300 		.ascii	"r13\000"
 2829 0bec 07       		.byte	0x7
 2830 0bed 0D01     		.2byte	0x10d
 2831 0bef 5B060000 		.4byte	0x65b
 2832 0bf3 02       		.uleb128 0x2
 2833 0bf4 91       		.byte	0x91
 2834 0bf5 70       		.sleb128 -16
 2835 0bf6 1F       		.uleb128 0x1f
 2836 0bf7 3B0E0000 		.4byte	0xe3b
 2837 0bfb 40000000 		.4byte	.LBB24
 2838 0bff 08000000 		.4byte	.LBE24-.LBB24
ARM GAS  /tmp/ccwmDzl4.s 			page 51


 2839 0c03 07       		.byte	0x7
 2840 0c04 0D01     		.2byte	0x10d
 2841 0c06 1E       		.uleb128 0x1e
 2842 0c07 40000000 		.4byte	.LBB25
 2843 0c0b 08000000 		.4byte	.LBE25-.LBB25
 2844 0c0f 20       		.uleb128 0x20
 2845 0c10 480E0000 		.4byte	0xe48
 2846 0c14 01       		.uleb128 0x1
 2847 0c15 54       		.byte	0x54
 2848 0c16 00       		.byte	0
 2849 0c17 00       		.byte	0
 2850 0c18 00       		.byte	0
 2851 0c19 00       		.byte	0
 2852 0c1a 2A       		.uleb128 0x2a
 2853 0c1b 58070000 		.4byte	.LASF156
 2854 0c1f 07       		.byte	0x7
 2855 0c20 DA       		.byte	0xda
 2856 0c21 8A020000 		.4byte	0x28a
 2857 0c25 00000000 		.4byte	.LFB232
 2858 0c29 7C000000 		.4byte	.LFE232-.LFB232
 2859 0c2d 01       		.uleb128 0x1
 2860 0c2e 9C       		.byte	0x9c
 2861 0c2f 5D0C0000 		.4byte	0xc5d
 2862 0c33 2B       		.uleb128 0x2b
 2863 0c34 747000   		.ascii	"tp\000"
 2864 0c37 07       		.byte	0x7
 2865 0c38 DA       		.byte	0xda
 2866 0c39 8A020000 		.4byte	0x28a
 2867 0c3d 02       		.uleb128 0x2
 2868 0c3e 91       		.byte	0x91
 2869 0c3f 6C       		.sleb128 -20
 2870 0c40 29       		.uleb128 0x29
 2871 0c41 637000   		.ascii	"cp\000"
 2872 0c44 07       		.byte	0x7
 2873 0c45 DB       		.byte	0xdb
 2874 0c46 8A020000 		.4byte	0x28a
 2875 0c4a 02       		.uleb128 0x2
 2876 0c4b 91       		.byte	0x91
 2877 0c4c 74       		.sleb128 -12
 2878 0c4d 23       		.uleb128 0x23
 2879 0c4e 9F060000 		.4byte	.LASF157
 2880 0c52 6D0C0000 		.4byte	0xc6d
 2881 0c56 05       		.uleb128 0x5
 2882 0c57 03       		.byte	0x3
 2883 0c58 00000000 		.4byte	__func__.7862
 2884 0c5c 00       		.byte	0
 2885 0c5d 17       		.uleb128 0x17
 2886 0c5e EA070000 		.4byte	0x7ea
 2887 0c62 6D0C0000 		.4byte	0xc6d
 2888 0c66 18       		.uleb128 0x18
 2889 0c67 C4040000 		.4byte	0x4c4
 2890 0c6b 0B       		.byte	0xb
 2891 0c6c 00       		.byte	0
 2892 0c6d 16       		.uleb128 0x16
 2893 0c6e 5D0C0000 		.4byte	0xc5d
 2894 0c72 2C       		.uleb128 0x2c
 2895 0c73 2F010000 		.4byte	.LASF158
ARM GAS  /tmp/ccwmDzl4.s 			page 52


 2896 0c77 07       		.byte	0x7
 2897 0c78 41       		.byte	0x41
 2898 0c79 00000000 		.4byte	.LFB231
 2899 0c7d 24000000 		.4byte	.LFE231-.LFB231
 2900 0c81 01       		.uleb128 0x1
 2901 0c82 9C       		.byte	0x9c
 2902 0c83 2D       		.uleb128 0x2d
 2903 0c84 61060000 		.4byte	.LASF160
 2904 0c88 06       		.byte	0x6
 2905 0c89 86       		.byte	0x86
 2906 0c8a 00000000 		.4byte	.LFB191
 2907 0c8e 1C000000 		.4byte	.LFE191-.LFB191
 2908 0c92 01       		.uleb128 0x1
 2909 0c93 9C       		.byte	0x9c
 2910 0c94 A60C0000 		.4byte	0xca6
 2911 0c98 2B       		.uleb128 0x2b
 2912 0c99 737000   		.ascii	"sp\000"
 2913 0c9c 06       		.byte	0x6
 2914 0c9d 86       		.byte	0x86
 2915 0c9e A60C0000 		.4byte	0xca6
 2916 0ca2 02       		.uleb128 0x2
 2917 0ca3 91       		.byte	0x91
 2918 0ca4 74       		.sleb128 -12
 2919 0ca5 00       		.byte	0
 2920 0ca6 0A       		.uleb128 0xa
 2921 0ca7 04       		.byte	0x4
 2922 0ca8 22090000 		.4byte	0x922
 2923 0cac 2E       		.uleb128 0x2e
 2924 0cad B0060000 		.4byte	.LASF163
 2925 0cb1 05       		.byte	0x5
 2926 0cb2 7501     		.2byte	0x175
 2927 0cb4 3E090000 		.4byte	0x93e
 2928 0cb8 00000000 		.4byte	.LFB171
 2929 0cbc 20000000 		.4byte	.LFE171-.LFB171
 2930 0cc0 01       		.uleb128 0x1
 2931 0cc1 9C       		.byte	0x9c
 2932 0cc2 D60C0000 		.4byte	0xcd6
 2933 0cc6 22       		.uleb128 0x22
 2934 0cc7 76747000 		.ascii	"vtp\000"
 2935 0ccb 05       		.byte	0x5
 2936 0ccc 7501     		.2byte	0x175
 2937 0cce F5070000 		.4byte	0x7f5
 2938 0cd2 02       		.uleb128 0x2
 2939 0cd3 91       		.byte	0x91
 2940 0cd4 74       		.sleb128 -12
 2941 0cd5 00       		.byte	0
 2942 0cd6 2F       		.uleb128 0x2f
 2943 0cd7 02060000 		.4byte	.LASF161
 2944 0cdb 04       		.byte	0x4
 2945 0cdc 9601     		.2byte	0x196
 2946 0cde 00000000 		.4byte	.LFB159
 2947 0ce2 12000000 		.4byte	.LFE159-.LFB159
 2948 0ce6 01       		.uleb128 0x1
 2949 0ce7 9C       		.byte	0x9c
 2950 0ce8 2F       		.uleb128 0x2f
 2951 0ce9 A0080000 		.4byte	.LASF162
 2952 0ced 04       		.byte	0x4
ARM GAS  /tmp/ccwmDzl4.s 			page 53


 2953 0cee 8201     		.2byte	0x182
 2954 0cf0 00000000 		.4byte	.LFB158
 2955 0cf4 12000000 		.4byte	.LFE158-.LFB158
 2956 0cf8 01       		.uleb128 0x1
 2957 0cf9 9C       		.byte	0x9c
 2958 0cfa 30       		.uleb128 0x30
 2959 0cfb D8080000 		.4byte	.LASF177
 2960 0cff 03       		.byte	0x3
 2961 0d00 C502     		.2byte	0x2c5
 2962 0d02 3E090000 		.4byte	0x93e
 2963 0d06 00000000 		.4byte	.LFB149
 2964 0d0a 24000000 		.4byte	.LFE149-.LFB149
 2965 0d0e 01       		.uleb128 0x1
 2966 0d0f 9C       		.byte	0x9c
 2967 0d10 31       		.uleb128 0x31
 2968 0d11 B2010000 		.4byte	.LASF164
 2969 0d15 03       		.byte	0x3
 2970 0d16 B102     		.2byte	0x2b1
 2971 0d18 8A020000 		.4byte	0x28a
 2972 0d1c 00000000 		.4byte	.LFB148
 2973 0d20 20000000 		.4byte	.LFE148-.LFB148
 2974 0d24 01       		.uleb128 0x1
 2975 0d25 9C       		.byte	0x9c
 2976 0d26 390D0000 		.4byte	0xd39
 2977 0d2a 22       		.uleb128 0x22
 2978 0d2b 747000   		.ascii	"tp\000"
 2979 0d2e 03       		.byte	0x3
 2980 0d2f B102     		.2byte	0x2b1
 2981 0d31 8A020000 		.4byte	0x28a
 2982 0d35 02       		.uleb128 0x2
 2983 0d36 91       		.byte	0x91
 2984 0d37 7C       		.sleb128 -4
 2985 0d38 00       		.byte	0
 2986 0d39 31       		.uleb128 0x31
 2987 0d3a C8070000 		.4byte	.LASF165
 2988 0d3e 03       		.byte	0x3
 2989 0d3f 9F02     		.2byte	0x29f
 2990 0d41 8A020000 		.4byte	0x28a
 2991 0d45 00000000 		.4byte	.LFB146
 2992 0d49 22000000 		.4byte	.LFE146-.LFB146
 2993 0d4d 01       		.uleb128 0x1
 2994 0d4e 9C       		.byte	0x9c
 2995 0d4f 710D0000 		.4byte	0xd71
 2996 0d53 22       		.uleb128 0x22
 2997 0d54 74717000 		.ascii	"tqp\000"
 2998 0d58 03       		.byte	0x3
 2999 0d59 9F02     		.2byte	0x29f
 3000 0d5b 710D0000 		.4byte	0xd71
 3001 0d5f 02       		.uleb128 0x2
 3002 0d60 91       		.byte	0x91
 3003 0d61 74       		.sleb128 -12
 3004 0d62 1D       		.uleb128 0x1d
 3005 0d63 747000   		.ascii	"tp\000"
 3006 0d66 03       		.byte	0x3
 3007 0d67 A002     		.2byte	0x2a0
 3008 0d69 8A020000 		.4byte	0x28a
 3009 0d6d 02       		.uleb128 0x2
ARM GAS  /tmp/ccwmDzl4.s 			page 54


 3010 0d6e 91       		.byte	0x91
 3011 0d6f 7C       		.sleb128 -4
 3012 0d70 00       		.byte	0
 3013 0d71 0A       		.uleb128 0xa
 3014 0d72 04       		.byte	0x4
 3015 0d73 B4020000 		.4byte	0x2b4
 3016 0d77 32       		.uleb128 0x32
 3017 0d78 7E000000 		.4byte	.LASF166
 3018 0d7c 03       		.byte	0x3
 3019 0d7d 5A02     		.2byte	0x25a
 3020 0d7f 00000000 		.4byte	.LFB139
 3021 0d83 16000000 		.4byte	.LFE139-.LFB139
 3022 0d87 01       		.uleb128 0x1
 3023 0d88 9C       		.byte	0x9c
 3024 0d89 9D0D0000 		.4byte	0xd9d
 3025 0d8d 22       		.uleb128 0x22
 3026 0d8e 74717000 		.ascii	"tqp\000"
 3027 0d92 03       		.byte	0x3
 3028 0d93 5A02     		.2byte	0x25a
 3029 0d95 710D0000 		.4byte	0xd71
 3030 0d99 02       		.uleb128 0x2
 3031 0d9a 91       		.byte	0x91
 3032 0d9b 7C       		.sleb128 -4
 3033 0d9c 00       		.byte	0
 3034 0d9d 2F       		.uleb128 0x2f
 3035 0d9e A5070000 		.4byte	.LASF167
 3036 0da2 01       		.byte	0x1
 3037 0da3 FA01     		.2byte	0x1fa
 3038 0da5 00000000 		.4byte	.LFB130
 3039 0da9 0A000000 		.4byte	.LFE130-.LFB130
 3040 0dad 01       		.uleb128 0x1
 3041 0dae 9C       		.byte	0x9c
 3042 0daf 2F       		.uleb128 0x2f
 3043 0db0 38080000 		.4byte	.LASF168
 3044 0db4 01       		.byte	0x1
 3045 0db5 EF01     		.2byte	0x1ef
 3046 0db7 00000000 		.4byte	.LFB129
 3047 0dbb 0A000000 		.4byte	.LFE129-.LFB129
 3048 0dbf 01       		.uleb128 0x1
 3049 0dc0 9C       		.byte	0x9c
 3050 0dc1 32       		.uleb128 0x32
 3051 0dc2 8D010000 		.4byte	.LASF169
 3052 0dc6 01       		.byte	0x1
 3053 0dc7 E001     		.2byte	0x1e0
 3054 0dc9 00000000 		.4byte	.LFB128
 3055 0dcd 12000000 		.4byte	.LFE128-.LFB128
 3056 0dd1 01       		.uleb128 0x1
 3057 0dd2 9C       		.byte	0x9c
 3058 0dd3 F10D0000 		.4byte	0xdf1
 3059 0dd7 1F       		.uleb128 0x1f
 3060 0dd8 210E0000 		.4byte	0xe21
 3061 0ddc 06000000 		.4byte	.LBB21
 3062 0de0 06000000 		.4byte	.LBE21-.LBB21
 3063 0de4 01       		.byte	0x1
 3064 0de5 E301     		.2byte	0x1e3
 3065 0de7 33       		.uleb128 0x33
 3066 0de8 2E0E0000 		.4byte	0xe2e
ARM GAS  /tmp/ccwmDzl4.s 			page 55


 3067 0dec 02       		.uleb128 0x2
 3068 0ded 91       		.byte	0x91
 3069 0dee 7C       		.sleb128 -4
 3070 0def 00       		.byte	0
 3071 0df0 00       		.byte	0
 3072 0df1 32       		.uleb128 0x32
 3073 0df2 89000000 		.4byte	.LASF170
 3074 0df6 01       		.byte	0x1
 3075 0df7 C801     		.2byte	0x1c8
 3076 0df9 00000000 		.4byte	.LFB127
 3077 0dfd 12000000 		.4byte	.LFE127-.LFB127
 3078 0e01 01       		.uleb128 0x1
 3079 0e02 9C       		.byte	0x9c
 3080 0e03 210E0000 		.4byte	0xe21
 3081 0e07 1F       		.uleb128 0x1f
 3082 0e08 210E0000 		.4byte	0xe21
 3083 0e0c 06000000 		.4byte	.LBB19
 3084 0e10 06000000 		.4byte	.LBE19-.LBB19
 3085 0e14 01       		.byte	0x1
 3086 0e15 D001     		.2byte	0x1d0
 3087 0e17 33       		.uleb128 0x33
 3088 0e18 2E0E0000 		.4byte	0xe2e
 3089 0e1c 02       		.uleb128 0x2
 3090 0e1d 91       		.byte	0x91
 3091 0e1e 7C       		.sleb128 -4
 3092 0e1f 00       		.byte	0
 3093 0e20 00       		.byte	0
 3094 0e21 34       		.uleb128 0x34
 3095 0e22 03080000 		.4byte	.LASF171
 3096 0e26 02       		.byte	0x2
 3097 0e27 2202     		.2byte	0x222
 3098 0e29 03       		.byte	0x3
 3099 0e2a 3B0E0000 		.4byte	0xe3b
 3100 0e2e 35       		.uleb128 0x35
 3101 0e2f 6A030000 		.4byte	.LASF178
 3102 0e33 02       		.byte	0x2
 3103 0e34 2202     		.2byte	0x222
 3104 0e36 DA000000 		.4byte	0xda
 3105 0e3a 00       		.byte	0
 3106 0e3b 36       		.uleb128 0x36
 3107 0e3c 4B080000 		.4byte	.LASF172
 3108 0e40 02       		.byte	0x2
 3109 0e41 AA01     		.2byte	0x1aa
 3110 0e43 DA000000 		.4byte	0xda
 3111 0e47 03       		.byte	0x3
 3112 0e48 37       		.uleb128 0x37
 3113 0e49 0B090000 		.4byte	.LASF173
 3114 0e4d 02       		.byte	0x2
 3115 0e4e AC01     		.2byte	0x1ac
 3116 0e50 DA000000 		.4byte	0xda
 3117 0e54 00       		.byte	0
 3118 0e55 00       		.byte	0
 3119              		.section	.debug_abbrev,"",%progbits
 3120              	.Ldebug_abbrev0:
 3121 0000 01       		.uleb128 0x1
 3122 0001 11       		.uleb128 0x11
 3123 0002 01       		.byte	0x1
ARM GAS  /tmp/ccwmDzl4.s 			page 56


 3124 0003 25       		.uleb128 0x25
 3125 0004 0E       		.uleb128 0xe
 3126 0005 13       		.uleb128 0x13
 3127 0006 0B       		.uleb128 0xb
 3128 0007 03       		.uleb128 0x3
 3129 0008 0E       		.uleb128 0xe
 3130 0009 1B       		.uleb128 0x1b
 3131 000a 0E       		.uleb128 0xe
 3132 000b 55       		.uleb128 0x55
 3133 000c 17       		.uleb128 0x17
 3134 000d 11       		.uleb128 0x11
 3135 000e 01       		.uleb128 0x1
 3136 000f 10       		.uleb128 0x10
 3137 0010 17       		.uleb128 0x17
 3138 0011 00       		.byte	0
 3139 0012 00       		.byte	0
 3140 0013 02       		.uleb128 0x2
 3141 0014 24       		.uleb128 0x24
 3142 0015 00       		.byte	0
 3143 0016 0B       		.uleb128 0xb
 3144 0017 0B       		.uleb128 0xb
 3145 0018 3E       		.uleb128 0x3e
 3146 0019 0B       		.uleb128 0xb
 3147 001a 03       		.uleb128 0x3
 3148 001b 08       		.uleb128 0x8
 3149 001c 00       		.byte	0
 3150 001d 00       		.byte	0
 3151 001e 03       		.uleb128 0x3
 3152 001f 16       		.uleb128 0x16
 3153 0020 00       		.byte	0
 3154 0021 03       		.uleb128 0x3
 3155 0022 0E       		.uleb128 0xe
 3156 0023 3A       		.uleb128 0x3a
 3157 0024 0B       		.uleb128 0xb
 3158 0025 3B       		.uleb128 0x3b
 3159 0026 0B       		.uleb128 0xb
 3160 0027 49       		.uleb128 0x49
 3161 0028 13       		.uleb128 0x13
 3162 0029 00       		.byte	0
 3163 002a 00       		.byte	0
 3164 002b 04       		.uleb128 0x4
 3165 002c 24       		.uleb128 0x24
 3166 002d 00       		.byte	0
 3167 002e 0B       		.uleb128 0xb
 3168 002f 0B       		.uleb128 0xb
 3169 0030 3E       		.uleb128 0x3e
 3170 0031 0B       		.uleb128 0xb
 3171 0032 03       		.uleb128 0x3
 3172 0033 0E       		.uleb128 0xe
 3173 0034 00       		.byte	0
 3174 0035 00       		.byte	0
 3175 0036 05       		.uleb128 0x5
 3176 0037 35       		.uleb128 0x35
 3177 0038 00       		.byte	0
 3178 0039 49       		.uleb128 0x49
 3179 003a 13       		.uleb128 0x13
 3180 003b 00       		.byte	0
ARM GAS  /tmp/ccwmDzl4.s 			page 57


 3181 003c 00       		.byte	0
 3182 003d 06       		.uleb128 0x6
 3183 003e 13       		.uleb128 0x13
 3184 003f 01       		.byte	0x1
 3185 0040 03       		.uleb128 0x3
 3186 0041 0E       		.uleb128 0xe
 3187 0042 0B       		.uleb128 0xb
 3188 0043 0B       		.uleb128 0xb
 3189 0044 3A       		.uleb128 0x3a
 3190 0045 0B       		.uleb128 0xb
 3191 0046 3B       		.uleb128 0x3b
 3192 0047 0B       		.uleb128 0xb
 3193 0048 01       		.uleb128 0x1
 3194 0049 13       		.uleb128 0x13
 3195 004a 00       		.byte	0
 3196 004b 00       		.byte	0
 3197 004c 07       		.uleb128 0x7
 3198 004d 0D       		.uleb128 0xd
 3199 004e 00       		.byte	0
 3200 004f 03       		.uleb128 0x3
 3201 0050 0E       		.uleb128 0xe
 3202 0051 3A       		.uleb128 0x3a
 3203 0052 0B       		.uleb128 0xb
 3204 0053 3B       		.uleb128 0x3b
 3205 0054 0B       		.uleb128 0xb
 3206 0055 49       		.uleb128 0x49
 3207 0056 13       		.uleb128 0x13
 3208 0057 38       		.uleb128 0x38
 3209 0058 0B       		.uleb128 0xb
 3210 0059 00       		.byte	0
 3211 005a 00       		.byte	0
 3212 005b 08       		.uleb128 0x8
 3213 005c 0D       		.uleb128 0xd
 3214 005d 00       		.byte	0
 3215 005e 03       		.uleb128 0x3
 3216 005f 08       		.uleb128 0x8
 3217 0060 3A       		.uleb128 0x3a
 3218 0061 0B       		.uleb128 0xb
 3219 0062 3B       		.uleb128 0x3b
 3220 0063 05       		.uleb128 0x5
 3221 0064 49       		.uleb128 0x49
 3222 0065 13       		.uleb128 0x13
 3223 0066 38       		.uleb128 0x38
 3224 0067 0B       		.uleb128 0xb
 3225 0068 00       		.byte	0
 3226 0069 00       		.byte	0
 3227 006a 09       		.uleb128 0x9
 3228 006b 0D       		.uleb128 0xd
 3229 006c 00       		.byte	0
 3230 006d 03       		.uleb128 0x3
 3231 006e 0E       		.uleb128 0xe
 3232 006f 3A       		.uleb128 0x3a
 3233 0070 0B       		.uleb128 0xb
 3234 0071 3B       		.uleb128 0x3b
 3235 0072 05       		.uleb128 0x5
 3236 0073 49       		.uleb128 0x49
 3237 0074 13       		.uleb128 0x13
ARM GAS  /tmp/ccwmDzl4.s 			page 58


 3238 0075 38       		.uleb128 0x38
 3239 0076 0B       		.uleb128 0xb
 3240 0077 00       		.byte	0
 3241 0078 00       		.byte	0
 3242 0079 0A       		.uleb128 0xa
 3243 007a 0F       		.uleb128 0xf
 3244 007b 00       		.byte	0
 3245 007c 0B       		.uleb128 0xb
 3246 007d 0B       		.uleb128 0xb
 3247 007e 49       		.uleb128 0x49
 3248 007f 13       		.uleb128 0x13
 3249 0080 00       		.byte	0
 3250 0081 00       		.byte	0
 3251 0082 0B       		.uleb128 0xb
 3252 0083 13       		.uleb128 0x13
 3253 0084 01       		.byte	0x1
 3254 0085 03       		.uleb128 0x3
 3255 0086 0E       		.uleb128 0xe
 3256 0087 0B       		.uleb128 0xb
 3257 0088 0B       		.uleb128 0xb
 3258 0089 3A       		.uleb128 0x3a
 3259 008a 0B       		.uleb128 0xb
 3260 008b 3B       		.uleb128 0x3b
 3261 008c 05       		.uleb128 0x5
 3262 008d 01       		.uleb128 0x1
 3263 008e 13       		.uleb128 0x13
 3264 008f 00       		.byte	0
 3265 0090 00       		.byte	0
 3266 0091 0C       		.uleb128 0xc
 3267 0092 15       		.uleb128 0x15
 3268 0093 01       		.byte	0x1
 3269 0094 27       		.uleb128 0x27
 3270 0095 19       		.uleb128 0x19
 3271 0096 01       		.uleb128 0x1
 3272 0097 13       		.uleb128 0x13
 3273 0098 00       		.byte	0
 3274 0099 00       		.byte	0
 3275 009a 0D       		.uleb128 0xd
 3276 009b 05       		.uleb128 0x5
 3277 009c 00       		.byte	0
 3278 009d 49       		.uleb128 0x49
 3279 009e 13       		.uleb128 0x13
 3280 009f 00       		.byte	0
 3281 00a0 00       		.byte	0
 3282 00a1 0E       		.uleb128 0xe
 3283 00a2 0F       		.uleb128 0xf
 3284 00a3 00       		.byte	0
 3285 00a4 0B       		.uleb128 0xb
 3286 00a5 0B       		.uleb128 0xb
 3287 00a6 00       		.byte	0
 3288 00a7 00       		.byte	0
 3289 00a8 0F       		.uleb128 0xf
 3290 00a9 13       		.uleb128 0x13
 3291 00aa 01       		.byte	0x1
 3292 00ab 03       		.uleb128 0x3
 3293 00ac 0E       		.uleb128 0xe
 3294 00ad 0B       		.uleb128 0xb
ARM GAS  /tmp/ccwmDzl4.s 			page 59


 3295 00ae 05       		.uleb128 0x5
 3296 00af 3A       		.uleb128 0x3a
 3297 00b0 0B       		.uleb128 0xb
 3298 00b1 3B       		.uleb128 0x3b
 3299 00b2 05       		.uleb128 0x5
 3300 00b3 01       		.uleb128 0x1
 3301 00b4 13       		.uleb128 0x13
 3302 00b5 00       		.byte	0
 3303 00b6 00       		.byte	0
 3304 00b7 10       		.uleb128 0x10
 3305 00b8 34       		.uleb128 0x34
 3306 00b9 00       		.byte	0
 3307 00ba 03       		.uleb128 0x3
 3308 00bb 0E       		.uleb128 0xe
 3309 00bc 3A       		.uleb128 0x3a
 3310 00bd 0B       		.uleb128 0xb
 3311 00be 3B       		.uleb128 0x3b
 3312 00bf 05       		.uleb128 0x5
 3313 00c0 49       		.uleb128 0x49
 3314 00c1 13       		.uleb128 0x13
 3315 00c2 3F       		.uleb128 0x3f
 3316 00c3 19       		.uleb128 0x19
 3317 00c4 3C       		.uleb128 0x3c
 3318 00c5 19       		.uleb128 0x19
 3319 00c6 00       		.byte	0
 3320 00c7 00       		.byte	0
 3321 00c8 11       		.uleb128 0x11
 3322 00c9 34       		.uleb128 0x34
 3323 00ca 00       		.byte	0
 3324 00cb 03       		.uleb128 0x3
 3325 00cc 0E       		.uleb128 0xe
 3326 00cd 3A       		.uleb128 0x3a
 3327 00ce 0B       		.uleb128 0xb
 3328 00cf 3B       		.uleb128 0x3b
 3329 00d0 0B       		.uleb128 0xb
 3330 00d1 49       		.uleb128 0x49
 3331 00d2 13       		.uleb128 0x13
 3332 00d3 3F       		.uleb128 0x3f
 3333 00d4 19       		.uleb128 0x19
 3334 00d5 3C       		.uleb128 0x3c
 3335 00d6 19       		.uleb128 0x19
 3336 00d7 00       		.byte	0
 3337 00d8 00       		.byte	0
 3338 00d9 12       		.uleb128 0x12
 3339 00da 0D       		.uleb128 0xd
 3340 00db 00       		.byte	0
 3341 00dc 03       		.uleb128 0x3
 3342 00dd 08       		.uleb128 0x8
 3343 00de 3A       		.uleb128 0x3a
 3344 00df 0B       		.uleb128 0xb
 3345 00e0 3B       		.uleb128 0x3b
 3346 00e1 0B       		.uleb128 0xb
 3347 00e2 49       		.uleb128 0x49
 3348 00e3 13       		.uleb128 0x13
 3349 00e4 38       		.uleb128 0x38
 3350 00e5 0B       		.uleb128 0xb
 3351 00e6 00       		.byte	0
ARM GAS  /tmp/ccwmDzl4.s 			page 60


 3352 00e7 00       		.byte	0
 3353 00e8 13       		.uleb128 0x13
 3354 00e9 13       		.uleb128 0x13
 3355 00ea 01       		.byte	0x1
 3356 00eb 0B       		.uleb128 0xb
 3357 00ec 0B       		.uleb128 0xb
 3358 00ed 3A       		.uleb128 0x3a
 3359 00ee 0B       		.uleb128 0xb
 3360 00ef 3B       		.uleb128 0x3b
 3361 00f0 0B       		.uleb128 0xb
 3362 00f1 01       		.uleb128 0x1
 3363 00f2 13       		.uleb128 0x13
 3364 00f3 00       		.byte	0
 3365 00f4 00       		.byte	0
 3366 00f5 14       		.uleb128 0x14
 3367 00f6 17       		.uleb128 0x17
 3368 00f7 01       		.byte	0x1
 3369 00f8 0B       		.uleb128 0xb
 3370 00f9 0B       		.uleb128 0xb
 3371 00fa 3A       		.uleb128 0x3a
 3372 00fb 0B       		.uleb128 0xb
 3373 00fc 3B       		.uleb128 0x3b
 3374 00fd 0B       		.uleb128 0xb
 3375 00fe 01       		.uleb128 0x1
 3376 00ff 13       		.uleb128 0x13
 3377 0100 00       		.byte	0
 3378 0101 00       		.byte	0
 3379 0102 15       		.uleb128 0x15
 3380 0103 0D       		.uleb128 0xd
 3381 0104 00       		.byte	0
 3382 0105 03       		.uleb128 0x3
 3383 0106 0E       		.uleb128 0xe
 3384 0107 3A       		.uleb128 0x3a
 3385 0108 0B       		.uleb128 0xb
 3386 0109 3B       		.uleb128 0x3b
 3387 010a 05       		.uleb128 0x5
 3388 010b 49       		.uleb128 0x49
 3389 010c 13       		.uleb128 0x13
 3390 010d 00       		.byte	0
 3391 010e 00       		.byte	0
 3392 010f 16       		.uleb128 0x16
 3393 0110 26       		.uleb128 0x26
 3394 0111 00       		.byte	0
 3395 0112 49       		.uleb128 0x49
 3396 0113 13       		.uleb128 0x13
 3397 0114 00       		.byte	0
 3398 0115 00       		.byte	0
 3399 0116 17       		.uleb128 0x17
 3400 0117 01       		.uleb128 0x1
 3401 0118 01       		.byte	0x1
 3402 0119 49       		.uleb128 0x49
 3403 011a 13       		.uleb128 0x13
 3404 011b 01       		.uleb128 0x1
 3405 011c 13       		.uleb128 0x13
 3406 011d 00       		.byte	0
 3407 011e 00       		.byte	0
 3408 011f 18       		.uleb128 0x18
ARM GAS  /tmp/ccwmDzl4.s 			page 61


 3409 0120 21       		.uleb128 0x21
 3410 0121 00       		.byte	0
 3411 0122 49       		.uleb128 0x49
 3412 0123 13       		.uleb128 0x13
 3413 0124 2F       		.uleb128 0x2f
 3414 0125 0B       		.uleb128 0xb
 3415 0126 00       		.byte	0
 3416 0127 00       		.byte	0
 3417 0128 19       		.uleb128 0x19
 3418 0129 34       		.uleb128 0x34
 3419 012a 00       		.byte	0
 3420 012b 03       		.uleb128 0x3
 3421 012c 08       		.uleb128 0x8
 3422 012d 3A       		.uleb128 0x3a
 3423 012e 0B       		.uleb128 0xb
 3424 012f 3B       		.uleb128 0x3b
 3425 0130 05       		.uleb128 0x5
 3426 0131 49       		.uleb128 0x49
 3427 0132 13       		.uleb128 0x13
 3428 0133 3F       		.uleb128 0x3f
 3429 0134 19       		.uleb128 0x19
 3430 0135 3C       		.uleb128 0x3c
 3431 0136 19       		.uleb128 0x19
 3432 0137 00       		.byte	0
 3433 0138 00       		.byte	0
 3434 0139 1A       		.uleb128 0x1a
 3435 013a 34       		.uleb128 0x34
 3436 013b 00       		.byte	0
 3437 013c 47       		.uleb128 0x47
 3438 013d 13       		.uleb128 0x13
 3439 013e 3A       		.uleb128 0x3a
 3440 013f 0B       		.uleb128 0xb
 3441 0140 3B       		.uleb128 0x3b
 3442 0141 0B       		.uleb128 0xb
 3443 0142 02       		.uleb128 0x2
 3444 0143 18       		.uleb128 0x18
 3445 0144 00       		.byte	0
 3446 0145 00       		.byte	0
 3447 0146 1B       		.uleb128 0x1b
 3448 0147 2E       		.uleb128 0x2e
 3449 0148 00       		.byte	0
 3450 0149 3F       		.uleb128 0x3f
 3451 014a 19       		.uleb128 0x19
 3452 014b 03       		.uleb128 0x3
 3453 014c 0E       		.uleb128 0xe
 3454 014d 3A       		.uleb128 0x3a
 3455 014e 0B       		.uleb128 0xb
 3456 014f 3B       		.uleb128 0x3b
 3457 0150 05       		.uleb128 0x5
 3458 0151 27       		.uleb128 0x27
 3459 0152 19       		.uleb128 0x19
 3460 0153 11       		.uleb128 0x11
 3461 0154 01       		.uleb128 0x1
 3462 0155 12       		.uleb128 0x12
 3463 0156 06       		.uleb128 0x6
 3464 0157 40       		.uleb128 0x40
 3465 0158 18       		.uleb128 0x18
ARM GAS  /tmp/ccwmDzl4.s 			page 62


 3466 0159 9642     		.uleb128 0x2116
 3467 015b 19       		.uleb128 0x19
 3468 015c 00       		.byte	0
 3469 015d 00       		.byte	0
 3470 015e 1C       		.uleb128 0x1c
 3471 015f 2E       		.uleb128 0x2e
 3472 0160 01       		.byte	0x1
 3473 0161 3F       		.uleb128 0x3f
 3474 0162 19       		.uleb128 0x19
 3475 0163 03       		.uleb128 0x3
 3476 0164 0E       		.uleb128 0xe
 3477 0165 3A       		.uleb128 0x3a
 3478 0166 0B       		.uleb128 0xb
 3479 0167 3B       		.uleb128 0x3b
 3480 0168 05       		.uleb128 0x5
 3481 0169 27       		.uleb128 0x27
 3482 016a 19       		.uleb128 0x19
 3483 016b 11       		.uleb128 0x11
 3484 016c 01       		.uleb128 0x1
 3485 016d 12       		.uleb128 0x12
 3486 016e 06       		.uleb128 0x6
 3487 016f 40       		.uleb128 0x40
 3488 0170 18       		.uleb128 0x18
 3489 0171 9642     		.uleb128 0x2116
 3490 0173 19       		.uleb128 0x19
 3491 0174 01       		.uleb128 0x1
 3492 0175 13       		.uleb128 0x13
 3493 0176 00       		.byte	0
 3494 0177 00       		.byte	0
 3495 0178 1D       		.uleb128 0x1d
 3496 0179 34       		.uleb128 0x34
 3497 017a 00       		.byte	0
 3498 017b 03       		.uleb128 0x3
 3499 017c 08       		.uleb128 0x8
 3500 017d 3A       		.uleb128 0x3a
 3501 017e 0B       		.uleb128 0xb
 3502 017f 3B       		.uleb128 0x3b
 3503 0180 05       		.uleb128 0x5
 3504 0181 49       		.uleb128 0x49
 3505 0182 13       		.uleb128 0x13
 3506 0183 02       		.uleb128 0x2
 3507 0184 18       		.uleb128 0x18
 3508 0185 00       		.byte	0
 3509 0186 00       		.byte	0
 3510 0187 1E       		.uleb128 0x1e
 3511 0188 0B       		.uleb128 0xb
 3512 0189 01       		.byte	0x1
 3513 018a 11       		.uleb128 0x11
 3514 018b 01       		.uleb128 0x1
 3515 018c 12       		.uleb128 0x12
 3516 018d 06       		.uleb128 0x6
 3517 018e 00       		.byte	0
 3518 018f 00       		.byte	0
 3519 0190 1F       		.uleb128 0x1f
 3520 0191 1D       		.uleb128 0x1d
 3521 0192 01       		.byte	0x1
 3522 0193 31       		.uleb128 0x31
ARM GAS  /tmp/ccwmDzl4.s 			page 63


 3523 0194 13       		.uleb128 0x13
 3524 0195 11       		.uleb128 0x11
 3525 0196 01       		.uleb128 0x1
 3526 0197 12       		.uleb128 0x12
 3527 0198 06       		.uleb128 0x6
 3528 0199 58       		.uleb128 0x58
 3529 019a 0B       		.uleb128 0xb
 3530 019b 59       		.uleb128 0x59
 3531 019c 05       		.uleb128 0x5
 3532 019d 00       		.byte	0
 3533 019e 00       		.byte	0
 3534 019f 20       		.uleb128 0x20
 3535 01a0 34       		.uleb128 0x34
 3536 01a1 00       		.byte	0
 3537 01a2 31       		.uleb128 0x31
 3538 01a3 13       		.uleb128 0x13
 3539 01a4 02       		.uleb128 0x2
 3540 01a5 18       		.uleb128 0x18
 3541 01a6 00       		.byte	0
 3542 01a7 00       		.byte	0
 3543 01a8 21       		.uleb128 0x21
 3544 01a9 2E       		.uleb128 0x2e
 3545 01aa 01       		.byte	0x1
 3546 01ab 3F       		.uleb128 0x3f
 3547 01ac 19       		.uleb128 0x19
 3548 01ad 03       		.uleb128 0x3
 3549 01ae 0E       		.uleb128 0xe
 3550 01af 3A       		.uleb128 0x3a
 3551 01b0 0B       		.uleb128 0xb
 3552 01b1 3B       		.uleb128 0x3b
 3553 01b2 05       		.uleb128 0x5
 3554 01b3 27       		.uleb128 0x27
 3555 01b4 19       		.uleb128 0x19
 3556 01b5 49       		.uleb128 0x49
 3557 01b6 13       		.uleb128 0x13
 3558 01b7 11       		.uleb128 0x11
 3559 01b8 01       		.uleb128 0x1
 3560 01b9 12       		.uleb128 0x12
 3561 01ba 06       		.uleb128 0x6
 3562 01bb 40       		.uleb128 0x40
 3563 01bc 18       		.uleb128 0x18
 3564 01bd 9742     		.uleb128 0x2117
 3565 01bf 19       		.uleb128 0x19
 3566 01c0 01       		.uleb128 0x1
 3567 01c1 13       		.uleb128 0x13
 3568 01c2 00       		.byte	0
 3569 01c3 00       		.byte	0
 3570 01c4 22       		.uleb128 0x22
 3571 01c5 05       		.uleb128 0x5
 3572 01c6 00       		.byte	0
 3573 01c7 03       		.uleb128 0x3
 3574 01c8 08       		.uleb128 0x8
 3575 01c9 3A       		.uleb128 0x3a
 3576 01ca 0B       		.uleb128 0xb
 3577 01cb 3B       		.uleb128 0x3b
 3578 01cc 05       		.uleb128 0x5
 3579 01cd 49       		.uleb128 0x49
ARM GAS  /tmp/ccwmDzl4.s 			page 64


 3580 01ce 13       		.uleb128 0x13
 3581 01cf 02       		.uleb128 0x2
 3582 01d0 18       		.uleb128 0x18
 3583 01d1 00       		.byte	0
 3584 01d2 00       		.byte	0
 3585 01d3 23       		.uleb128 0x23
 3586 01d4 34       		.uleb128 0x34
 3587 01d5 00       		.byte	0
 3588 01d6 03       		.uleb128 0x3
 3589 01d7 0E       		.uleb128 0xe
 3590 01d8 49       		.uleb128 0x49
 3591 01d9 13       		.uleb128 0x13
 3592 01da 34       		.uleb128 0x34
 3593 01db 19       		.uleb128 0x19
 3594 01dc 02       		.uleb128 0x2
 3595 01dd 18       		.uleb128 0x18
 3596 01de 00       		.byte	0
 3597 01df 00       		.byte	0
 3598 01e0 24       		.uleb128 0x24
 3599 01e1 2E       		.uleb128 0x2e
 3600 01e2 01       		.byte	0x1
 3601 01e3 3F       		.uleb128 0x3f
 3602 01e4 19       		.uleb128 0x19
 3603 01e5 03       		.uleb128 0x3
 3604 01e6 0E       		.uleb128 0xe
 3605 01e7 3A       		.uleb128 0x3a
 3606 01e8 0B       		.uleb128 0xb
 3607 01e9 3B       		.uleb128 0x3b
 3608 01ea 05       		.uleb128 0x5
 3609 01eb 27       		.uleb128 0x27
 3610 01ec 19       		.uleb128 0x19
 3611 01ed 49       		.uleb128 0x49
 3612 01ee 13       		.uleb128 0x13
 3613 01ef 11       		.uleb128 0x11
 3614 01f0 01       		.uleb128 0x1
 3615 01f1 12       		.uleb128 0x12
 3616 01f2 06       		.uleb128 0x6
 3617 01f3 40       		.uleb128 0x40
 3618 01f4 18       		.uleb128 0x18
 3619 01f5 9642     		.uleb128 0x2116
 3620 01f7 19       		.uleb128 0x19
 3621 01f8 01       		.uleb128 0x1
 3622 01f9 13       		.uleb128 0x13
 3623 01fa 00       		.byte	0
 3624 01fb 00       		.byte	0
 3625 01fc 25       		.uleb128 0x25
 3626 01fd 05       		.uleb128 0x5
 3627 01fe 00       		.byte	0
 3628 01ff 03       		.uleb128 0x3
 3629 0200 0E       		.uleb128 0xe
 3630 0201 3A       		.uleb128 0x3a
 3631 0202 0B       		.uleb128 0xb
 3632 0203 3B       		.uleb128 0x3b
 3633 0204 05       		.uleb128 0x5
 3634 0205 49       		.uleb128 0x49
 3635 0206 13       		.uleb128 0x13
 3636 0207 02       		.uleb128 0x2
ARM GAS  /tmp/ccwmDzl4.s 			page 65


 3637 0208 18       		.uleb128 0x18
 3638 0209 00       		.byte	0
 3639 020a 00       		.byte	0
 3640 020b 26       		.uleb128 0x26
 3641 020c 2E       		.uleb128 0x2e
 3642 020d 01       		.byte	0x1
 3643 020e 03       		.uleb128 0x3
 3644 020f 0E       		.uleb128 0xe
 3645 0210 3A       		.uleb128 0x3a
 3646 0211 0B       		.uleb128 0xb
 3647 0212 3B       		.uleb128 0x3b
 3648 0213 05       		.uleb128 0x5
 3649 0214 27       		.uleb128 0x27
 3650 0215 19       		.uleb128 0x19
 3651 0216 11       		.uleb128 0x11
 3652 0217 01       		.uleb128 0x1
 3653 0218 12       		.uleb128 0x12
 3654 0219 06       		.uleb128 0x6
 3655 021a 40       		.uleb128 0x40
 3656 021b 18       		.uleb128 0x18
 3657 021c 9642     		.uleb128 0x2116
 3658 021e 19       		.uleb128 0x19
 3659 021f 01       		.uleb128 0x1
 3660 0220 13       		.uleb128 0x13
 3661 0221 00       		.byte	0
 3662 0222 00       		.byte	0
 3663 0223 27       		.uleb128 0x27
 3664 0224 2E       		.uleb128 0x2e
 3665 0225 01       		.byte	0x1
 3666 0226 3F       		.uleb128 0x3f
 3667 0227 19       		.uleb128 0x19
 3668 0228 03       		.uleb128 0x3
 3669 0229 0E       		.uleb128 0xe
 3670 022a 3A       		.uleb128 0x3a
 3671 022b 0B       		.uleb128 0xb
 3672 022c 3B       		.uleb128 0x3b
 3673 022d 0B       		.uleb128 0xb
 3674 022e 27       		.uleb128 0x27
 3675 022f 19       		.uleb128 0x19
 3676 0230 11       		.uleb128 0x11
 3677 0231 01       		.uleb128 0x1
 3678 0232 12       		.uleb128 0x12
 3679 0233 06       		.uleb128 0x6
 3680 0234 40       		.uleb128 0x40
 3681 0235 18       		.uleb128 0x18
 3682 0236 9642     		.uleb128 0x2116
 3683 0238 19       		.uleb128 0x19
 3684 0239 01       		.uleb128 0x1
 3685 023a 13       		.uleb128 0x13
 3686 023b 00       		.byte	0
 3687 023c 00       		.byte	0
 3688 023d 28       		.uleb128 0x28
 3689 023e 05       		.uleb128 0x5
 3690 023f 00       		.byte	0
 3691 0240 03       		.uleb128 0x3
 3692 0241 0E       		.uleb128 0xe
 3693 0242 3A       		.uleb128 0x3a
ARM GAS  /tmp/ccwmDzl4.s 			page 66


 3694 0243 0B       		.uleb128 0xb
 3695 0244 3B       		.uleb128 0x3b
 3696 0245 0B       		.uleb128 0xb
 3697 0246 49       		.uleb128 0x49
 3698 0247 13       		.uleb128 0x13
 3699 0248 02       		.uleb128 0x2
 3700 0249 18       		.uleb128 0x18
 3701 024a 00       		.byte	0
 3702 024b 00       		.byte	0
 3703 024c 29       		.uleb128 0x29
 3704 024d 34       		.uleb128 0x34
 3705 024e 00       		.byte	0
 3706 024f 03       		.uleb128 0x3
 3707 0250 08       		.uleb128 0x8
 3708 0251 3A       		.uleb128 0x3a
 3709 0252 0B       		.uleb128 0xb
 3710 0253 3B       		.uleb128 0x3b
 3711 0254 0B       		.uleb128 0xb
 3712 0255 49       		.uleb128 0x49
 3713 0256 13       		.uleb128 0x13
 3714 0257 02       		.uleb128 0x2
 3715 0258 18       		.uleb128 0x18
 3716 0259 00       		.byte	0
 3717 025a 00       		.byte	0
 3718 025b 2A       		.uleb128 0x2a
 3719 025c 2E       		.uleb128 0x2e
 3720 025d 01       		.byte	0x1
 3721 025e 3F       		.uleb128 0x3f
 3722 025f 19       		.uleb128 0x19
 3723 0260 03       		.uleb128 0x3
 3724 0261 0E       		.uleb128 0xe
 3725 0262 3A       		.uleb128 0x3a
 3726 0263 0B       		.uleb128 0xb
 3727 0264 3B       		.uleb128 0x3b
 3728 0265 0B       		.uleb128 0xb
 3729 0266 27       		.uleb128 0x27
 3730 0267 19       		.uleb128 0x19
 3731 0268 49       		.uleb128 0x49
 3732 0269 13       		.uleb128 0x13
 3733 026a 11       		.uleb128 0x11
 3734 026b 01       		.uleb128 0x1
 3735 026c 12       		.uleb128 0x12
 3736 026d 06       		.uleb128 0x6
 3737 026e 40       		.uleb128 0x40
 3738 026f 18       		.uleb128 0x18
 3739 0270 9642     		.uleb128 0x2116
 3740 0272 19       		.uleb128 0x19
 3741 0273 01       		.uleb128 0x1
 3742 0274 13       		.uleb128 0x13
 3743 0275 00       		.byte	0
 3744 0276 00       		.byte	0
 3745 0277 2B       		.uleb128 0x2b
 3746 0278 05       		.uleb128 0x5
 3747 0279 00       		.byte	0
 3748 027a 03       		.uleb128 0x3
 3749 027b 08       		.uleb128 0x8
 3750 027c 3A       		.uleb128 0x3a
ARM GAS  /tmp/ccwmDzl4.s 			page 67


 3751 027d 0B       		.uleb128 0xb
 3752 027e 3B       		.uleb128 0x3b
 3753 027f 0B       		.uleb128 0xb
 3754 0280 49       		.uleb128 0x49
 3755 0281 13       		.uleb128 0x13
 3756 0282 02       		.uleb128 0x2
 3757 0283 18       		.uleb128 0x18
 3758 0284 00       		.byte	0
 3759 0285 00       		.byte	0
 3760 0286 2C       		.uleb128 0x2c
 3761 0287 2E       		.uleb128 0x2e
 3762 0288 00       		.byte	0
 3763 0289 3F       		.uleb128 0x3f
 3764 028a 19       		.uleb128 0x19
 3765 028b 03       		.uleb128 0x3
 3766 028c 0E       		.uleb128 0xe
 3767 028d 3A       		.uleb128 0x3a
 3768 028e 0B       		.uleb128 0xb
 3769 028f 3B       		.uleb128 0x3b
 3770 0290 0B       		.uleb128 0xb
 3771 0291 27       		.uleb128 0x27
 3772 0292 19       		.uleb128 0x19
 3773 0293 11       		.uleb128 0x11
 3774 0294 01       		.uleb128 0x1
 3775 0295 12       		.uleb128 0x12
 3776 0296 06       		.uleb128 0x6
 3777 0297 40       		.uleb128 0x40
 3778 0298 18       		.uleb128 0x18
 3779 0299 9642     		.uleb128 0x2116
 3780 029b 19       		.uleb128 0x19
 3781 029c 00       		.byte	0
 3782 029d 00       		.byte	0
 3783 029e 2D       		.uleb128 0x2d
 3784 029f 2E       		.uleb128 0x2e
 3785 02a0 01       		.byte	0x1
 3786 02a1 03       		.uleb128 0x3
 3787 02a2 0E       		.uleb128 0xe
 3788 02a3 3A       		.uleb128 0x3a
 3789 02a4 0B       		.uleb128 0xb
 3790 02a5 3B       		.uleb128 0x3b
 3791 02a6 0B       		.uleb128 0xb
 3792 02a7 27       		.uleb128 0x27
 3793 02a8 19       		.uleb128 0x19
 3794 02a9 11       		.uleb128 0x11
 3795 02aa 01       		.uleb128 0x1
 3796 02ab 12       		.uleb128 0x12
 3797 02ac 06       		.uleb128 0x6
 3798 02ad 40       		.uleb128 0x40
 3799 02ae 18       		.uleb128 0x18
 3800 02af 9642     		.uleb128 0x2116
 3801 02b1 19       		.uleb128 0x19
 3802 02b2 01       		.uleb128 0x1
 3803 02b3 13       		.uleb128 0x13
 3804 02b4 00       		.byte	0
 3805 02b5 00       		.byte	0
 3806 02b6 2E       		.uleb128 0x2e
 3807 02b7 2E       		.uleb128 0x2e
ARM GAS  /tmp/ccwmDzl4.s 			page 68


 3808 02b8 01       		.byte	0x1
 3809 02b9 03       		.uleb128 0x3
 3810 02ba 0E       		.uleb128 0xe
 3811 02bb 3A       		.uleb128 0x3a
 3812 02bc 0B       		.uleb128 0xb
 3813 02bd 3B       		.uleb128 0x3b
 3814 02be 05       		.uleb128 0x5
 3815 02bf 27       		.uleb128 0x27
 3816 02c0 19       		.uleb128 0x19
 3817 02c1 49       		.uleb128 0x49
 3818 02c2 13       		.uleb128 0x13
 3819 02c3 11       		.uleb128 0x11
 3820 02c4 01       		.uleb128 0x1
 3821 02c5 12       		.uleb128 0x12
 3822 02c6 06       		.uleb128 0x6
 3823 02c7 40       		.uleb128 0x40
 3824 02c8 18       		.uleb128 0x18
 3825 02c9 9642     		.uleb128 0x2116
 3826 02cb 19       		.uleb128 0x19
 3827 02cc 01       		.uleb128 0x1
 3828 02cd 13       		.uleb128 0x13
 3829 02ce 00       		.byte	0
 3830 02cf 00       		.byte	0
 3831 02d0 2F       		.uleb128 0x2f
 3832 02d1 2E       		.uleb128 0x2e
 3833 02d2 00       		.byte	0
 3834 02d3 03       		.uleb128 0x3
 3835 02d4 0E       		.uleb128 0xe
 3836 02d5 3A       		.uleb128 0x3a
 3837 02d6 0B       		.uleb128 0xb
 3838 02d7 3B       		.uleb128 0x3b
 3839 02d8 05       		.uleb128 0x5
 3840 02d9 27       		.uleb128 0x27
 3841 02da 19       		.uleb128 0x19
 3842 02db 11       		.uleb128 0x11
 3843 02dc 01       		.uleb128 0x1
 3844 02dd 12       		.uleb128 0x12
 3845 02de 06       		.uleb128 0x6
 3846 02df 40       		.uleb128 0x40
 3847 02e0 18       		.uleb128 0x18
 3848 02e1 9642     		.uleb128 0x2116
 3849 02e3 19       		.uleb128 0x19
 3850 02e4 00       		.byte	0
 3851 02e5 00       		.byte	0
 3852 02e6 30       		.uleb128 0x30
 3853 02e7 2E       		.uleb128 0x2e
 3854 02e8 00       		.byte	0
 3855 02e9 03       		.uleb128 0x3
 3856 02ea 0E       		.uleb128 0xe
 3857 02eb 3A       		.uleb128 0x3a
 3858 02ec 0B       		.uleb128 0xb
 3859 02ed 3B       		.uleb128 0x3b
 3860 02ee 05       		.uleb128 0x5
 3861 02ef 27       		.uleb128 0x27
 3862 02f0 19       		.uleb128 0x19
 3863 02f1 49       		.uleb128 0x49
 3864 02f2 13       		.uleb128 0x13
ARM GAS  /tmp/ccwmDzl4.s 			page 69


 3865 02f3 11       		.uleb128 0x11
 3866 02f4 01       		.uleb128 0x1
 3867 02f5 12       		.uleb128 0x12
 3868 02f6 06       		.uleb128 0x6
 3869 02f7 40       		.uleb128 0x40
 3870 02f8 18       		.uleb128 0x18
 3871 02f9 9642     		.uleb128 0x2116
 3872 02fb 19       		.uleb128 0x19
 3873 02fc 00       		.byte	0
 3874 02fd 00       		.byte	0
 3875 02fe 31       		.uleb128 0x31
 3876 02ff 2E       		.uleb128 0x2e
 3877 0300 01       		.byte	0x1
 3878 0301 03       		.uleb128 0x3
 3879 0302 0E       		.uleb128 0xe
 3880 0303 3A       		.uleb128 0x3a
 3881 0304 0B       		.uleb128 0xb
 3882 0305 3B       		.uleb128 0x3b
 3883 0306 05       		.uleb128 0x5
 3884 0307 27       		.uleb128 0x27
 3885 0308 19       		.uleb128 0x19
 3886 0309 49       		.uleb128 0x49
 3887 030a 13       		.uleb128 0x13
 3888 030b 11       		.uleb128 0x11
 3889 030c 01       		.uleb128 0x1
 3890 030d 12       		.uleb128 0x12
 3891 030e 06       		.uleb128 0x6
 3892 030f 40       		.uleb128 0x40
 3893 0310 18       		.uleb128 0x18
 3894 0311 9742     		.uleb128 0x2117
 3895 0313 19       		.uleb128 0x19
 3896 0314 01       		.uleb128 0x1
 3897 0315 13       		.uleb128 0x13
 3898 0316 00       		.byte	0
 3899 0317 00       		.byte	0
 3900 0318 32       		.uleb128 0x32
 3901 0319 2E       		.uleb128 0x2e
 3902 031a 01       		.byte	0x1
 3903 031b 03       		.uleb128 0x3
 3904 031c 0E       		.uleb128 0xe
 3905 031d 3A       		.uleb128 0x3a
 3906 031e 0B       		.uleb128 0xb
 3907 031f 3B       		.uleb128 0x3b
 3908 0320 05       		.uleb128 0x5
 3909 0321 27       		.uleb128 0x27
 3910 0322 19       		.uleb128 0x19
 3911 0323 11       		.uleb128 0x11
 3912 0324 01       		.uleb128 0x1
 3913 0325 12       		.uleb128 0x12
 3914 0326 06       		.uleb128 0x6
 3915 0327 40       		.uleb128 0x40
 3916 0328 18       		.uleb128 0x18
 3917 0329 9742     		.uleb128 0x2117
 3918 032b 19       		.uleb128 0x19
 3919 032c 01       		.uleb128 0x1
 3920 032d 13       		.uleb128 0x13
 3921 032e 00       		.byte	0
ARM GAS  /tmp/ccwmDzl4.s 			page 70


 3922 032f 00       		.byte	0
 3923 0330 33       		.uleb128 0x33
 3924 0331 05       		.uleb128 0x5
 3925 0332 00       		.byte	0
 3926 0333 31       		.uleb128 0x31
 3927 0334 13       		.uleb128 0x13
 3928 0335 02       		.uleb128 0x2
 3929 0336 18       		.uleb128 0x18
 3930 0337 00       		.byte	0
 3931 0338 00       		.byte	0
 3932 0339 34       		.uleb128 0x34
 3933 033a 2E       		.uleb128 0x2e
 3934 033b 01       		.byte	0x1
 3935 033c 03       		.uleb128 0x3
 3936 033d 0E       		.uleb128 0xe
 3937 033e 3A       		.uleb128 0x3a
 3938 033f 0B       		.uleb128 0xb
 3939 0340 3B       		.uleb128 0x3b
 3940 0341 05       		.uleb128 0x5
 3941 0342 27       		.uleb128 0x27
 3942 0343 19       		.uleb128 0x19
 3943 0344 20       		.uleb128 0x20
 3944 0345 0B       		.uleb128 0xb
 3945 0346 01       		.uleb128 0x1
 3946 0347 13       		.uleb128 0x13
 3947 0348 00       		.byte	0
 3948 0349 00       		.byte	0
 3949 034a 35       		.uleb128 0x35
 3950 034b 05       		.uleb128 0x5
 3951 034c 00       		.byte	0
 3952 034d 03       		.uleb128 0x3
 3953 034e 0E       		.uleb128 0xe
 3954 034f 3A       		.uleb128 0x3a
 3955 0350 0B       		.uleb128 0xb
 3956 0351 3B       		.uleb128 0x3b
 3957 0352 05       		.uleb128 0x5
 3958 0353 49       		.uleb128 0x49
 3959 0354 13       		.uleb128 0x13
 3960 0355 00       		.byte	0
 3961 0356 00       		.byte	0
 3962 0357 36       		.uleb128 0x36
 3963 0358 2E       		.uleb128 0x2e
 3964 0359 01       		.byte	0x1
 3965 035a 03       		.uleb128 0x3
 3966 035b 0E       		.uleb128 0xe
 3967 035c 3A       		.uleb128 0x3a
 3968 035d 0B       		.uleb128 0xb
 3969 035e 3B       		.uleb128 0x3b
 3970 035f 05       		.uleb128 0x5
 3971 0360 27       		.uleb128 0x27
 3972 0361 19       		.uleb128 0x19
 3973 0362 49       		.uleb128 0x49
 3974 0363 13       		.uleb128 0x13
 3975 0364 20       		.uleb128 0x20
 3976 0365 0B       		.uleb128 0xb
 3977 0366 00       		.byte	0
 3978 0367 00       		.byte	0
ARM GAS  /tmp/ccwmDzl4.s 			page 71


 3979 0368 37       		.uleb128 0x37
 3980 0369 34       		.uleb128 0x34
 3981 036a 00       		.byte	0
 3982 036b 03       		.uleb128 0x3
 3983 036c 0E       		.uleb128 0xe
 3984 036d 3A       		.uleb128 0x3a
 3985 036e 0B       		.uleb128 0xb
 3986 036f 3B       		.uleb128 0x3b
 3987 0370 05       		.uleb128 0x5
 3988 0371 49       		.uleb128 0x49
 3989 0372 13       		.uleb128 0x13
 3990 0373 00       		.byte	0
 3991 0374 00       		.byte	0
 3992 0375 00       		.byte	0
 3993              		.section	.debug_aranges,"",%progbits
 3994 0000 CC000000 		.4byte	0xcc
 3995 0004 0200     		.2byte	0x2
 3996 0006 00000000 		.4byte	.Ldebug_info0
 3997 000a 04       		.byte	0x4
 3998 000b 00       		.byte	0
 3999 000c 0000     		.2byte	0
 4000 000e 0000     		.2byte	0
 4001 0010 00000000 		.4byte	.LFB127
 4002 0014 12000000 		.4byte	.LFE127-.LFB127
 4003 0018 00000000 		.4byte	.LFB128
 4004 001c 12000000 		.4byte	.LFE128-.LFB128
 4005 0020 00000000 		.4byte	.LFB129
 4006 0024 0A000000 		.4byte	.LFE129-.LFB129
 4007 0028 00000000 		.4byte	.LFB130
 4008 002c 0A000000 		.4byte	.LFE130-.LFB130
 4009 0030 00000000 		.4byte	.LFB139
 4010 0034 16000000 		.4byte	.LFE139-.LFB139
 4011 0038 00000000 		.4byte	.LFB146
 4012 003c 22000000 		.4byte	.LFE146-.LFB146
 4013 0040 00000000 		.4byte	.LFB148
 4014 0044 20000000 		.4byte	.LFE148-.LFB148
 4015 0048 00000000 		.4byte	.LFB149
 4016 004c 24000000 		.4byte	.LFE149-.LFB149
 4017 0050 00000000 		.4byte	.LFB158
 4018 0054 12000000 		.4byte	.LFE158-.LFB158
 4019 0058 00000000 		.4byte	.LFB159
 4020 005c 12000000 		.4byte	.LFE159-.LFB159
 4021 0060 00000000 		.4byte	.LFB171
 4022 0064 20000000 		.4byte	.LFE171-.LFB171
 4023 0068 00000000 		.4byte	.LFB191
 4024 006c 1C000000 		.4byte	.LFE191-.LFB191
 4025 0070 00000000 		.4byte	.LFB231
 4026 0074 24000000 		.4byte	.LFE231-.LFB231
 4027 0078 00000000 		.4byte	.LFB232
 4028 007c 7C000000 		.4byte	.LFE232-.LFB232
 4029 0080 00000000 		.4byte	.LFB233
 4030 0084 78000000 		.4byte	.LFE233-.LFB233
 4031 0088 00000000 		.4byte	.LFB234
 4032 008c 7C000000 		.4byte	.LFE234-.LFB234
 4033 0090 00000000 		.4byte	.LFB235
 4034 0094 68000000 		.4byte	.LFE235-.LFB235
 4035 0098 00000000 		.4byte	.LFB236
ARM GAS  /tmp/ccwmDzl4.s 			page 72


 4036 009c A4000000 		.4byte	.LFE236-.LFB236
 4037 00a0 00000000 		.4byte	.LFB237
 4038 00a4 18000000 		.4byte	.LFE237-.LFB237
 4039 00a8 00000000 		.4byte	.LFB238
 4040 00ac 2C000000 		.4byte	.LFE238-.LFB238
 4041 00b0 00000000 		.4byte	.LFB239
 4042 00b4 6C000000 		.4byte	.LFE239-.LFB239
 4043 00b8 00000000 		.4byte	.LFB240
 4044 00bc A0000000 		.4byte	.LFE240-.LFB240
 4045 00c0 00000000 		.4byte	.LFB241
 4046 00c4 0A000000 		.4byte	.LFE241-.LFB241
 4047 00c8 00000000 		.4byte	0
 4048 00cc 00000000 		.4byte	0
 4049              		.section	.debug_ranges,"",%progbits
 4050              	.Ldebug_ranges0:
 4051 0000 00000000 		.4byte	.LFB127
 4052 0004 12000000 		.4byte	.LFE127
 4053 0008 00000000 		.4byte	.LFB128
 4054 000c 12000000 		.4byte	.LFE128
 4055 0010 00000000 		.4byte	.LFB129
 4056 0014 0A000000 		.4byte	.LFE129
 4057 0018 00000000 		.4byte	.LFB130
 4058 001c 0A000000 		.4byte	.LFE130
 4059 0020 00000000 		.4byte	.LFB139
 4060 0024 16000000 		.4byte	.LFE139
 4061 0028 00000000 		.4byte	.LFB146
 4062 002c 22000000 		.4byte	.LFE146
 4063 0030 00000000 		.4byte	.LFB148
 4064 0034 20000000 		.4byte	.LFE148
 4065 0038 00000000 		.4byte	.LFB149
 4066 003c 24000000 		.4byte	.LFE149
 4067 0040 00000000 		.4byte	.LFB158
 4068 0044 12000000 		.4byte	.LFE158
 4069 0048 00000000 		.4byte	.LFB159
 4070 004c 12000000 		.4byte	.LFE159
 4071 0050 00000000 		.4byte	.LFB171
 4072 0054 20000000 		.4byte	.LFE171
 4073 0058 00000000 		.4byte	.LFB191
 4074 005c 1C000000 		.4byte	.LFE191
 4075 0060 00000000 		.4byte	.LFB231
 4076 0064 24000000 		.4byte	.LFE231
 4077 0068 00000000 		.4byte	.LFB232
 4078 006c 7C000000 		.4byte	.LFE232
 4079 0070 00000000 		.4byte	.LFB233
 4080 0074 78000000 		.4byte	.LFE233
 4081 0078 00000000 		.4byte	.LFB234
 4082 007c 7C000000 		.4byte	.LFE234
 4083 0080 00000000 		.4byte	.LFB235
 4084 0084 68000000 		.4byte	.LFE235
 4085 0088 00000000 		.4byte	.LFB236
 4086 008c A4000000 		.4byte	.LFE236
 4087 0090 00000000 		.4byte	.LFB237
 4088 0094 18000000 		.4byte	.LFE237
 4089 0098 00000000 		.4byte	.LFB238
 4090 009c 2C000000 		.4byte	.LFE238
 4091 00a0 00000000 		.4byte	.LFB239
 4092 00a4 6C000000 		.4byte	.LFE239
ARM GAS  /tmp/ccwmDzl4.s 			page 73


 4093 00a8 00000000 		.4byte	.LFB240
 4094 00ac A0000000 		.4byte	.LFE240
 4095 00b0 00000000 		.4byte	.LFB241
 4096 00b4 0A000000 		.4byte	.LFE241
 4097 00b8 00000000 		.4byte	0
 4098 00bc 00000000 		.4byte	0
 4099              		.section	.debug_line,"",%progbits
 4100              	.Ldebug_line0:
 4101 0000 15050000 		.section	.debug_str,"MS",%progbits,1
 4101      02004002 
 4101      00000201 
 4101      FB0E0D00 
 4101      01010101 
 4102              	.LASF133:
 4103 0000 63665F6F 		.ascii	"cf_off_older\000"
 4103      66665F6F 
 4103      6C646572 
 4103      00
 4104              	.LASF58:
 4105 000d 72656164 		.ascii	"ready_list_t\000"
 4105      795F6C69 
 4105      73745F74 
 4105      00
 4106              	.LASF4:
 4107 001a 73697A65 		.ascii	"size_t\000"
 4107      5F7400
 4108              	.LASF108:
 4109 0021 7264796D 		.ascii	"rdymsg\000"
 4109      736700
 4110              	.LASF20:
 4111 0028 75696E74 		.ascii	"uint64_t\000"
 4111      36345F74 
 4111      00
 4112              	.LASF146:
 4113 0031 63685363 		.ascii	"chSchDoRescheduleAhead\000"
 4113      68446F52 
 4113      65736368 
 4113      6564756C 
 4113      65416865 
 4114              	.LASF5:
 4115 0048 5F5F7569 		.ascii	"__uint8_t\000"
 4115      6E74385F 
 4115      7400
 4116              	.LASF95:
 4117 0052 706F7274 		.ascii	"port_intctx\000"
 4117      5F696E74 
 4117      63747800 
 4118              	.LASF57:
 4119 005e 63685F74 		.ascii	"ch_threads_queue\000"
 4119      68726561 
 4119      64735F71 
 4119      75657565 
 4119      00
 4120              	.LASF77:
 4121 006f 73797374 		.ascii	"system_debug_t\000"
 4121      656D5F64 
 4121      65627567 
ARM GAS  /tmp/ccwmDzl4.s 			page 74


 4121      5F7400
 4122              	.LASF166:
 4123 007e 71756575 		.ascii	"queue_init\000"
 4123      655F696E 
 4123      697400
 4124              	.LASF170:
 4125 0089 706F7274 		.ascii	"port_lock\000"
 4125      5F6C6F63 
 4125      6B00
 4126              	.LASF99:
 4127 0093 776F7273 		.ascii	"worst\000"
 4127      7400
 4128              	.LASF102:
 4129 0099 74696D65 		.ascii	"time_measurement_t\000"
 4129      5F6D6561 
 4129      73757265 
 4129      6D656E74 
 4129      5F7400
 4130              	.LASF15:
 4131 00ac 6C6F6E67 		.ascii	"long long unsigned int\000"
 4131      206C6F6E 
 4131      6720756E 
 4131      7369676E 
 4131      65642069 
 4132              	.LASF129:
 4133 00c3 63685F74 		.ascii	"ch_threadsize\000"
 4133      68726561 
 4133      6473697A 
 4133      6500
 4134              	.LASF109:
 4135 00d1 65786974 		.ascii	"exitcode\000"
 4135      636F6465 
 4135      00
 4136              	.LASF86:
 4137 00da 6D61696E 		.ascii	"mainthread\000"
 4137      74687265 
 4137      616400
 4138              	.LASF10:
 4139 00e5 5F5F696E 		.ascii	"__int32_t\000"
 4139      7433325F 
 4139      7400
 4140              	.LASF74:
 4141 00ef 76697274 		.ascii	"virtual_timers_list_t\000"
 4141      75616C5F 
 4141      74696D65 
 4141      72735F6C 
 4141      6973745F 
 4142              	.LASF90:
 4143 0105 49544D5F 		.ascii	"ITM_RxBuffer\000"
 4143      52784275 
 4143      66666572 
 4143      00
 4144              	.LASF22:
 4145 0112 72747469 		.ascii	"rttime_t\000"
 4145      6D655F74 
 4145      00
 4146              	.LASF35:
ARM GAS  /tmp/ccwmDzl4.s 			page 75


 4147 011b 705F7072 		.ascii	"p_prio\000"
 4147      696F00
 4148              	.LASF136:
 4149 0122 63665F6F 		.ascii	"cf_off_state\000"
 4149      66665F73 
 4149      74617465 
 4149      00
 4150              	.LASF158:
 4151 012f 5F736368 		.ascii	"_scheduler_init\000"
 4151      6564756C 
 4151      65725F69 
 4151      6E697400 
 4152              	.LASF1:
 4153 013f 6C6F6E67 		.ascii	"long long int\000"
 4153      206C6F6E 
 4153      6720696E 
 4153      7400
 4154              	.LASF3:
 4155 014d 7369676E 		.ascii	"signed char\000"
 4155      65642063 
 4155      68617200 
 4156              	.LASF135:
 4157 0159 63665F6F 		.ascii	"cf_off_stklimit\000"
 4157      66665F73 
 4157      746B6C69 
 4157      6D697400 
 4158              	.LASF137:
 4159 0169 63665F6F 		.ascii	"cf_off_flags\000"
 4159      66665F66 
 4159      6C616773 
 4159      00
 4160              	.LASF50:
 4161 0176 705F6D70 		.ascii	"p_mpool\000"
 4161      6F6F6C00 
 4162              	.LASF119:
 4163 017e 6D5F7175 		.ascii	"m_queue\000"
 4163      65756500 
 4164              	.LASF85:
 4165 0186 76746C69 		.ascii	"vtlist\000"
 4165      737400
 4166              	.LASF169:
 4167 018d 706F7274 		.ascii	"port_unlock\000"
 4167      5F756E6C 
 4167      6F636B00 
 4168              	.LASF111:
 4169 0199 77747472 		.ascii	"wttrp\000"
 4169      7000
 4170              	.LASF83:
 4171 019f 63685F73 		.ascii	"ch_system\000"
 4171      79737465 
 4171      6D00
 4172              	.LASF11:
 4173 01a9 6C6F6E67 		.ascii	"long int\000"
 4173      20696E74 
 4173      00
 4174              	.LASF164:
 4175 01b2 71756575 		.ascii	"queue_dequeue\000"
ARM GAS  /tmp/ccwmDzl4.s 			page 76


 4175      655F6465 
 4175      71756575 
 4175      6500
 4176              	.LASF24:
 4177 01c0 74737461 		.ascii	"tstate_t\000"
 4177      74655F74 
 4177      00
 4178              	.LASF174:
 4179 01c9 474E5520 		.ascii	"GNU C11 6.3.1 20170620 (release) [ARM/embedded-6-br"
 4179      43313120 
 4179      362E332E 
 4179      31203230 
 4179      31373036 
 4180 01fc 616E6368 		.ascii	"anch revision 249437] -mcpu=cortex-m4 -mfloat-abi=h"
 4180      20726576 
 4180      6973696F 
 4180      6E203234 
 4180      39343337 
 4181 022f 61726420 		.ascii	"ard -mfpu=fpv4-sp-d16 -mno-thumb-interwork -mthumb "
 4181      2D6D6670 
 4181      753D6670 
 4181      76342D73 
 4181      702D6431 
 4182 0262 2D676764 		.ascii	"-ggdb -O0 -fomit-frame-pointer -falign-functions=16"
 4182      62202D4F 
 4182      30202D66 
 4182      6F6D6974 
 4182      2D667261 
 4183 0295 202D6666 		.ascii	" -ffunction-sections -fdata-sections -fno-common -f"
 4183      756E6374 
 4183      696F6E2D 
 4183      73656374 
 4183      696F6E73 
 4184 02c8 73696E67 		.ascii	"single-precision-constant\000"
 4184      6C652D70 
 4184      72656369 
 4184      73696F6E 
 4184      2D636F6E 
 4185              	.LASF141:
 4186 02e2 63686465 		.ascii	"chdebug_t\000"
 4186      6275675F 
 4186      7400
 4187              	.LASF151:
 4188 02ec 63685363 		.ascii	"chSchIsPreemptionRequired\000"
 4188      68497350 
 4188      7265656D 
 4188      7074696F 
 4188      6E526571 
 4189              	.LASF37:
 4190 0306 705F6E65 		.ascii	"p_newer\000"
 4190      77657200 
 4191              	.LASF116:
 4192 030e 735F7175 		.ascii	"s_queue\000"
 4192      65756500 
 4193              	.LASF149:
 4194 0316 63685363 		.ascii	"chSchRescheduleS\000"
 4194      68526573 
ARM GAS  /tmp/ccwmDzl4.s 			page 77


 4194      63686564 
 4194      756C6553 
 4194      00
 4195              	.LASF63:
 4196 0327 725F6E65 		.ascii	"r_newer\000"
 4196      77657200 
 4197              	.LASF92:
 4198 032f 72656761 		.ascii	"regarm_t\000"
 4198      726D5F74 
 4198      00
 4199              	.LASF148:
 4200 0338 63685363 		.ascii	"chSchDoReschedule\000"
 4200      68446F52 
 4200      65736368 
 4200      6564756C 
 4200      6500
 4201              	.LASF78:
 4202 034a 63685F73 		.ascii	"ch_system_debug\000"
 4202      79737465 
 4202      6D5F6465 
 4202      62756700 
 4203              	.LASF70:
 4204 035a 76745F70 		.ascii	"vt_prev\000"
 4204      72657600 
 4205              	.LASF144:
 4206 0362 6D757465 		.ascii	"mutex_t\000"
 4206      785F7400 
 4207              	.LASF178:
 4208 036a 76616C75 		.ascii	"value\000"
 4208      6500
 4209              	.LASF81:
 4210 0370 6C6F636B 		.ascii	"lock_cnt\000"
 4210      5F636E74 
 4210      00
 4211              	.LASF88:
 4212 0379 69646C65 		.ascii	"idle_thread_wa\000"
 4212      5F746872 
 4212      6561645F 
 4212      776100
 4213              	.LASF29:
 4214 0388 636E745F 		.ascii	"cnt_t\000"
 4214      7400
 4215              	.LASF40:
 4216 038e 705F7374 		.ascii	"p_stklimit\000"
 4216      6B6C696D 
 4216      697400
 4217              	.LASF0:
 4218 0399 756E7369 		.ascii	"unsigned int\000"
 4218      676E6564 
 4218      20696E74 
 4218      00
 4219              	.LASF159:
 4220 03a6 77616B65 		.ascii	"wakeup\000"
 4220      757000
 4221              	.LASF69:
 4222 03ad 76745F6E 		.ascii	"vt_next\000"
 4222      65787400 
ARM GAS  /tmp/ccwmDzl4.s 			page 78


 4223              	.LASF17:
 4224 03b5 75696E74 		.ascii	"uint16_t\000"
 4224      31365F74 
 4224      00
 4225              	.LASF91:
 4226 03be 53797374 		.ascii	"SystemCoreClock\000"
 4226      656D436F 
 4226      7265436C 
 4226      6F636B00 
 4227              	.LASF176:
 4228 03ce 2F686F6D 		.ascii	"/home/matt/Documents/fibre-link/header-detection/pc"
 4228      652F6D61 
 4228      74742F44 
 4228      6F63756D 
 4228      656E7473 
 4229 0401 622F7374 		.ascii	"b/stm32/firmware\000"
 4229      6D33322F 
 4229      6669726D 
 4229      77617265 
 4229      00
 4230              	.LASF112:
 4231 0412 77747365 		.ascii	"wtsemp\000"
 4231      6D7000
 4232              	.LASF71:
 4233 0419 76745F64 		.ascii	"vt_delta\000"
 4233      656C7461 
 4233      00
 4234              	.LASF45:
 4235 0422 705F6D73 		.ascii	"p_msgqueue\000"
 4235      67717565 
 4235      756500
 4236              	.LASF142:
 4237 042d 63685F64 		.ascii	"ch_debug\000"
 4237      65627567 
 4237      00
 4238              	.LASF59:
 4239 0436 63685F72 		.ascii	"ch_ready_list\000"
 4239      65616479 
 4239      5F6C6973 
 4239      7400
 4240              	.LASF103:
 4241 0444 6E5F6972 		.ascii	"n_irq\000"
 4241      7100
 4242              	.LASF117:
 4243 044a 735F636E 		.ascii	"s_cnt\000"
 4243      7400
 4244              	.LASF9:
 4245 0450 73686F72 		.ascii	"short unsigned int\000"
 4245      7420756E 
 4245      7369676E 
 4245      65642069 
 4245      6E7400
 4246              	.LASF107:
 4247 0463 6B65726E 		.ascii	"kernel_stats_t\000"
 4247      656C5F73 
 4247      74617473 
 4247      5F7400
ARM GAS  /tmp/ccwmDzl4.s 			page 79


 4248              	.LASF54:
 4249 0472 63685F74 		.ascii	"ch_thread\000"
 4249      68726561 
 4249      6400
 4250              	.LASF150:
 4251 047c 63685363 		.ascii	"chSchWakeupS\000"
 4251      6857616B 
 4251      65757053 
 4251      00
 4252              	.LASF27:
 4253 0489 6D73675F 		.ascii	"msg_t\000"
 4253      7400
 4254              	.LASF100:
 4255 048f 6C617374 		.ascii	"last\000"
 4255      00
 4256              	.LASF30:
 4257 0494 75636E74 		.ascii	"ucnt_t\000"
 4257      5F7400
 4258              	.LASF82:
 4259 049b 63685F73 		.ascii	"ch_system_t\000"
 4259      79737465 
 4259      6D5F7400 
 4260              	.LASF110:
 4261 04a7 77746F62 		.ascii	"wtobjp\000"
 4261      6A7000
 4262              	.LASF106:
 4263 04ae 6D5F6372 		.ascii	"m_crit_isr\000"
 4263      69745F69 
 4263      737200
 4264              	.LASF48:
 4265 04b9 705F6D74 		.ascii	"p_mtxlist\000"
 4265      786C6973 
 4265      7400
 4266              	.LASF28:
 4267 04c3 6576656E 		.ascii	"eventmask_t\000"
 4267      746D6173 
 4267      6B5F7400 
 4268              	.LASF93:
 4269 04cf 73746B61 		.ascii	"stkalign_t\000"
 4269      6C69676E 
 4269      5F7400
 4270              	.LASF53:
 4271 04da 74687265 		.ascii	"threads_list_t\000"
 4271      6164735F 
 4271      6C697374 
 4271      5F7400
 4272              	.LASF124:
 4273 04e9 63685F7A 		.ascii	"ch_zero\000"
 4273      65726F00 
 4274              	.LASF138:
 4275 04f1 63665F6F 		.ascii	"cf_off_refs\000"
 4275      66665F72 
 4275      65667300 
 4276              	.LASF61:
 4277 04fd 725F7072 		.ascii	"r_prio\000"
 4277      696F00
 4278              	.LASF44:
ARM GAS  /tmp/ccwmDzl4.s 			page 80


 4279 0504 705F7761 		.ascii	"p_waiting\000"
 4279      6974696E 
 4279      6700
 4280              	.LASF89:
 4281 050e 73697A65 		.ascii	"sizetype\000"
 4281      74797065 
 4281      00
 4282              	.LASF75:
 4283 0517 63685F76 		.ascii	"ch_virtual_timers_list\000"
 4283      69727475 
 4283      616C5F74 
 4283      696D6572 
 4283      735F6C69 
 4284              	.LASF2:
 4285 052e 6C6F6E67 		.ascii	"long double\000"
 4285      20646F75 
 4285      626C6500 
 4286              	.LASF128:
 4287 053a 63685F74 		.ascii	"ch_timesize\000"
 4287      696D6573 
 4287      697A6500 
 4288              	.LASF147:
 4289 0546 63685363 		.ascii	"chSchDoRescheduleBehind\000"
 4289      68446F52 
 4289      65736368 
 4289      6564756C 
 4289      65426568 
 4290              	.LASF134:
 4291 055e 63665F6F 		.ascii	"cf_off_name\000"
 4291      66665F6E 
 4291      616D6500 
 4292              	.LASF38:
 4293 056a 705F6F6C 		.ascii	"p_older\000"
 4293      64657200 
 4294              	.LASF62:
 4295 0572 725F6374 		.ascii	"r_ctx\000"
 4295      7800
 4296              	.LASF36:
 4297 0578 705F6374 		.ascii	"p_ctx\000"
 4297      7800
 4298              	.LASF97:
 4299 057e 746D5F63 		.ascii	"tm_calibration_t\000"
 4299      616C6962 
 4299      72617469 
 4299      6F6E5F74 
 4299      00
 4300              	.LASF121:
 4301 058f 6D5F6E65 		.ascii	"m_next\000"
 4301      787400
 4302              	.LASF154:
 4303 0596 74696D65 		.ascii	"time\000"
 4303      00
 4304              	.LASF65:
 4305 059b 725F6375 		.ascii	"r_current\000"
 4305      7272656E 
 4305      7400
 4306              	.LASF64:
ARM GAS  /tmp/ccwmDzl4.s 			page 81


 4307 05a5 725F6F6C 		.ascii	"r_older\000"
 4307      64657200 
 4308              	.LASF14:
 4309 05ad 5F5F7569 		.ascii	"__uint64_t\000"
 4309      6E743634 
 4309      5F7400
 4310              	.LASF101:
 4311 05b8 63756D75 		.ascii	"cumulative\000"
 4311      6C617469 
 4311      766500
 4312              	.LASF87:
 4313 05c3 6B65726E 		.ascii	"kernel_stats\000"
 4313      656C5F73 
 4313      74617473 
 4313      00
 4314              	.LASF25:
 4315 05d0 74726566 		.ascii	"trefs_t\000"
 4315      735F7400 
 4316              	.LASF127:
 4317 05d8 63685F70 		.ascii	"ch_ptrsize\000"
 4317      74727369 
 4317      7A6500
 4318              	.LASF67:
 4319 05e3 76697274 		.ascii	"virtual_timer_t\000"
 4319      75616C5F 
 4319      74696D65 
 4319      725F7400 
 4320              	.LASF34:
 4321 05f3 705F7072 		.ascii	"p_prev\000"
 4321      657600
 4322              	.LASF26:
 4323 05fa 74707269 		.ascii	"tprio_t\000"
 4323      6F5F7400 
 4324              	.LASF161:
 4325 0602 63685379 		.ascii	"chSysUnlockFromISR\000"
 4325      73556E6C 
 4325      6F636B46 
 4325      726F6D49 
 4325      535200
 4326              	.LASF104:
 4327 0615 6E5F6374 		.ascii	"n_ctxswc\000"
 4327      78737763 
 4327      00
 4328              	.LASF145:
 4329 061e 5F426F6F 		.ascii	"_Bool\000"
 4329      6C00
 4330              	.LASF18:
 4331 0624 696E7433 		.ascii	"int32_t\000"
 4331      325F7400 
 4332              	.LASF6:
 4333 062c 756E7369 		.ascii	"unsigned char\000"
 4333      676E6564 
 4333      20636861 
 4333      7200
 4334              	.LASF153:
 4335 063a 6E657773 		.ascii	"newstate\000"
 4335      74617465 
ARM GAS  /tmp/ccwmDzl4.s 			page 82


 4335      00
 4336              	.LASF7:
 4337 0643 73686F72 		.ascii	"short int\000"
 4337      7420696E 
 4337      7400
 4338              	.LASF41:
 4339 064d 705F7374 		.ascii	"p_state\000"
 4339      61746500 
 4340              	.LASF140:
 4341 0655 63665F6F 		.ascii	"cf_off_time\000"
 4341      66665F74 
 4341      696D6500 
 4342              	.LASF160:
 4343 0661 63685365 		.ascii	"chSemFastSignalI\000"
 4343      6D466173 
 4343      74536967 
 4343      6E616C49 
 4343      00
 4344              	.LASF114:
 4345 0672 65776D61 		.ascii	"ewmask\000"
 4345      736B00
 4346              	.LASF33:
 4347 0679 705F6E65 		.ascii	"p_next\000"
 4347      787400
 4348              	.LASF23:
 4349 0680 746D6F64 		.ascii	"tmode_t\000"
 4349      655F7400 
 4350              	.LASF139:
 4351 0688 63665F6F 		.ascii	"cf_off_preempt\000"
 4351      66665F70 
 4351      7265656D 
 4351      707400
 4352              	.LASF42:
 4353 0697 705F666C 		.ascii	"p_flags\000"
 4353      61677300 
 4354              	.LASF157:
 4355 069f 5F5F6675 		.ascii	"__func__\000"
 4355      6E635F5F 
 4355      00
 4356              	.LASF51:
 4357 06a8 705F7374 		.ascii	"p_stats\000"
 4357      61747300 
 4358              	.LASF163:
 4359 06b0 63685654 		.ascii	"chVTIsArmedI\000"
 4359      49734172 
 4359      6D656449 
 4359      00
 4360              	.LASF175:
 4361 06bd 2E2E2F43 		.ascii	"../ChibiOS/os/rt/src/chschd.c\000"
 4361      68696269 
 4361      4F532F6F 
 4361      732F7274 
 4361      2F737263 
 4362              	.LASF143:
 4363 06db 73656D61 		.ascii	"semaphore_t\000"
 4363      70686F72 
 4363      655F7400 
ARM GAS  /tmp/ccwmDzl4.s 			page 83


 4364              	.LASF56:
 4365 06e7 74687265 		.ascii	"threads_queue_t\000"
 4365      6164735F 
 4365      71756575 
 4365      655F7400 
 4366              	.LASF68:
 4367 06f7 63685F76 		.ascii	"ch_virtual_timer\000"
 4367      69727475 
 4367      616C5F74 
 4367      696D6572 
 4367      00
 4368              	.LASF132:
 4369 0708 63665F6F 		.ascii	"cf_off_newer\000"
 4369      66665F6E 
 4369      65776572 
 4369      00
 4370              	.LASF115:
 4371 0715 63685F73 		.ascii	"ch_semaphore\000"
 4371      656D6170 
 4371      686F7265 
 4371      00
 4372              	.LASF155:
 4373 0722 63685363 		.ascii	"chSchGoSleepS\000"
 4373      68476F53 
 4373      6C656570 
 4373      5300
 4374              	.LASF47:
 4375 0730 705F6570 		.ascii	"p_epending\000"
 4375      656E6469 
 4375      6E6700
 4376              	.LASF19:
 4377 073b 75696E74 		.ascii	"uint32_t\000"
 4377      33325F74 
 4377      00
 4378              	.LASF130:
 4379 0744 63665F6F 		.ascii	"cf_off_prio\000"
 4379      66665F70 
 4379      72696F00 
 4380              	.LASF60:
 4381 0750 725F7175 		.ascii	"r_queue\000"
 4381      65756500 
 4382              	.LASF156:
 4383 0758 63685363 		.ascii	"chSchReadyI\000"
 4383      68526561 
 4383      64794900 
 4384              	.LASF55:
 4385 0764 63685F74 		.ascii	"ch_threads_list\000"
 4385      68726561 
 4385      64735F6C 
 4385      69737400 
 4386              	.LASF125:
 4387 0774 63685F73 		.ascii	"ch_size\000"
 4387      697A6500 
 4388              	.LASF13:
 4389 077c 6C6F6E67 		.ascii	"long unsigned int\000"
 4389      20756E73 
 4389      69676E65 
ARM GAS  /tmp/ccwmDzl4.s 			page 84


 4389      6420696E 
 4389      7400
 4390              	.LASF122:
 4391 078e 63686172 		.ascii	"char\000"
 4391      00
 4392              	.LASF113:
 4393 0793 77746D74 		.ascii	"wtmtxp\000"
 4393      787000
 4394              	.LASF8:
 4395 079a 5F5F7569 		.ascii	"__uint16_t\000"
 4395      6E743136 
 4395      5F7400
 4396              	.LASF167:
 4397 07a5 706F7274 		.ascii	"port_unlock_from_isr\000"
 4397      5F756E6C 
 4397      6F636B5F 
 4397      66726F6D 
 4397      5F697372 
 4398              	.LASF32:
 4399 07ba 74687265 		.ascii	"thread_t\000"
 4399      61645F74 
 4399      00
 4400              	.LASF98:
 4401 07c3 62657374 		.ascii	"best\000"
 4401      00
 4402              	.LASF165:
 4403 07c8 71756575 		.ascii	"queue_fifo_remove\000"
 4403      655F6669 
 4403      666F5F72 
 4403      656D6F76 
 4403      6500
 4404              	.LASF31:
 4405 07da 73797374 		.ascii	"systime_t\000"
 4405      696D655F 
 4405      7400
 4406              	.LASF49:
 4407 07e4 705F7265 		.ascii	"p_realprio\000"
 4407      616C7072 
 4407      696F00
 4408              	.LASF66:
 4409 07ef 76746675 		.ascii	"vtfunc_t\000"
 4409      6E635F74 
 4409      00
 4410              	.LASF12:
 4411 07f8 5F5F7569 		.ascii	"__uint32_t\000"
 4411      6E743332 
 4411      5F7400
 4412              	.LASF171:
 4413 0803 5F5F7365 		.ascii	"__set_BASEPRI\000"
 4413      745F4241 
 4413      53455052 
 4413      4900
 4414              	.LASF79:
 4415 0811 70616E69 		.ascii	"panic_msg\000"
 4415      635F6D73 
 4415      6700
 4416              	.LASF96:
ARM GAS  /tmp/ccwmDzl4.s 			page 85


 4417 081b 6F666673 		.ascii	"offset\000"
 4417      657400
 4418              	.LASF94:
 4419 0822 636F6E74 		.ascii	"context\000"
 4419      65787400 
 4420              	.LASF46:
 4421 082a 705F6D73 		.ascii	"p_msg\000"
 4421      6700
 4422              	.LASF21:
 4423 0830 7274636E 		.ascii	"rtcnt_t\000"
 4423      745F7400 
 4424              	.LASF168:
 4425 0838 706F7274 		.ascii	"port_lock_from_isr\000"
 4425      5F6C6F63 
 4425      6B5F6672 
 4425      6F6D5F69 
 4425      737200
 4426              	.LASF172:
 4427 084b 5F5F6765 		.ascii	"__get_PSP\000"
 4427      745F5053 
 4427      5000
 4428              	.LASF73:
 4429 0855 76745F70 		.ascii	"vt_par\000"
 4429      617200
 4430              	.LASF131:
 4431 085c 63665F6F 		.ascii	"cf_off_ctx\000"
 4431      66665F63 
 4431      747800
 4432              	.LASF118:
 4433 0867 63685F6D 		.ascii	"ch_mutex\000"
 4433      75746578 
 4433      00
 4434              	.LASF43:
 4435 0870 705F7265 		.ascii	"p_refs\000"
 4435      667300
 4436              	.LASF80:
 4437 0877 6973725F 		.ascii	"isr_cnt\000"
 4437      636E7400 
 4438              	.LASF84:
 4439 087f 726C6973 		.ascii	"rlist\000"
 4439      7400
 4440              	.LASF16:
 4441 0885 75696E74 		.ascii	"uint8_t\000"
 4441      385F7400 
 4442              	.LASF52:
 4443 088d 74687265 		.ascii	"thread_reference_t\000"
 4443      61645F72 
 4443      65666572 
 4443      656E6365 
 4443      5F7400
 4444              	.LASF162:
 4445 08a0 63685379 		.ascii	"chSysLockFromISR\000"
 4445      734C6F63 
 4445      6B46726F 
 4445      6D495352 
 4445      00
 4446              	.LASF39:
ARM GAS  /tmp/ccwmDzl4.s 			page 86


 4447 08b1 705F6E61 		.ascii	"p_name\000"
 4447      6D6500
 4448              	.LASF76:
 4449 08b8 76745F73 		.ascii	"vt_systime\000"
 4449      79737469 
 4449      6D6500
 4450              	.LASF152:
 4451 08c3 63685363 		.ascii	"chSchGoSleepTimeoutS\000"
 4451      68476F53 
 4451      6C656570 
 4451      54696D65 
 4451      6F757453 
 4452              	.LASF177:
 4453 08d8 63685363 		.ascii	"chSchIsRescRequiredI\000"
 4453      68497352 
 4453      65736352 
 4453      65717569 
 4453      72656449 
 4454              	.LASF126:
 4455 08ed 63685F76 		.ascii	"ch_version\000"
 4455      65727369 
 4455      6F6E00
 4456              	.LASF105:
 4457 08f8 6D5F6372 		.ascii	"m_crit_thd\000"
 4457      69745F74 
 4457      686400
 4458              	.LASF120:
 4459 0903 6D5F6F77 		.ascii	"m_owner\000"
 4459      6E657200 
 4460              	.LASF173:
 4461 090b 72657375 		.ascii	"result\000"
 4461      6C7400
 4462              	.LASF123:
 4463 0912 63685F69 		.ascii	"ch_identifier\000"
 4463      64656E74 
 4463      69666965 
 4463      7200
 4464              	.LASF72:
 4465 0920 76745F66 		.ascii	"vt_func\000"
 4465      756E6300 
 4466              		.ident	"GCC: (GNU Tools for ARM Embedded Processors 6-2017-q2-update) 6.3.1 20170620 (release) [AR
ARM GAS  /tmp/ccwmDzl4.s 			page 87


DEFINED SYMBOLS
                            *ABS*:0000000000000000 chschd.c
     /tmp/ccwmDzl4.s:18     .text.port_lock:0000000000000000 $t
     /tmp/ccwmDzl4.s:25     .text.port_lock:0000000000000000 port_lock
     /tmp/ccwmDzl4.s:60     .text.port_unlock:0000000000000000 $t
     /tmp/ccwmDzl4.s:67     .text.port_unlock:0000000000000000 port_unlock
     /tmp/ccwmDzl4.s:100    .text.port_lock_from_isr:0000000000000000 $t
     /tmp/ccwmDzl4.s:107    .text.port_lock_from_isr:0000000000000000 port_lock_from_isr
     /tmp/ccwmDzl4.s:126    .text.port_unlock_from_isr:0000000000000000 $t
     /tmp/ccwmDzl4.s:133    .text.port_unlock_from_isr:0000000000000000 port_unlock_from_isr
     /tmp/ccwmDzl4.s:152    .text.queue_init:0000000000000000 $t
     /tmp/ccwmDzl4.s:159    .text.queue_init:0000000000000000 queue_init
     /tmp/ccwmDzl4.s:188    .text.queue_fifo_remove:0000000000000000 $t
     /tmp/ccwmDzl4.s:195    .text.queue_fifo_remove:0000000000000000 queue_fifo_remove
     /tmp/ccwmDzl4.s:231    .text.queue_dequeue:0000000000000000 $t
     /tmp/ccwmDzl4.s:238    .text.queue_dequeue:0000000000000000 queue_dequeue
     /tmp/ccwmDzl4.s:272    .text.chSchIsRescRequiredI:0000000000000000 $t
     /tmp/ccwmDzl4.s:279    .text.chSchIsRescRequiredI:0000000000000000 chSchIsRescRequiredI
     /tmp/ccwmDzl4.s:309    .text.chSchIsRescRequiredI:0000000000000020 $d
     /tmp/ccwmDzl4.s:457    .bss.ch:0000000000000000 ch
     /tmp/ccwmDzl4.s:314    .text.chSysLockFromISR:0000000000000000 $t
     /tmp/ccwmDzl4.s:321    .text.chSysLockFromISR:0000000000000000 chSysLockFromISR
     /tmp/ccwmDzl4.s:345    .text.chSysUnlockFromISR:0000000000000000 $t
     /tmp/ccwmDzl4.s:352    .text.chSysUnlockFromISR:0000000000000000 chSysUnlockFromISR
     /tmp/ccwmDzl4.s:375    .text.chVTIsArmedI:0000000000000000 $t
     /tmp/ccwmDzl4.s:382    .text.chVTIsArmedI:0000000000000000 chVTIsArmedI
     /tmp/ccwmDzl4.s:415    .text.chSemFastSignalI:0000000000000000 $t
     /tmp/ccwmDzl4.s:422    .text.chSemFastSignalI:0000000000000000 chSemFastSignalI
     /tmp/ccwmDzl4.s:454    .bss.ch:0000000000000000 $d
     /tmp/ccwmDzl4.s:460    .text._scheduler_init:0000000000000000 $t
     /tmp/ccwmDzl4.s:468    .text._scheduler_init:0000000000000000 _scheduler_init
     /tmp/ccwmDzl4.s:500    .text._scheduler_init:0000000000000020 $d
     /tmp/ccwmDzl4.s:505    .text.chSchReadyI:0000000000000000 $t
     /tmp/ccwmDzl4.s:513    .text.chSchReadyI:0000000000000000 chSchReadyI
     /tmp/ccwmDzl4.s:598    .text.chSchReadyI:0000000000000074 $d
     /tmp/ccwmDzl4.s:1342   .rodata.__func__.7862:0000000000000000 __func__.7862
     /tmp/ccwmDzl4.s:604    .rodata:0000000000000000 $d
     /tmp/ccwmDzl4.s:608    .text.chSchGoSleepS:0000000000000000 $t
     /tmp/ccwmDzl4.s:616    .text.chSchGoSleepS:0000000000000000 chSchGoSleepS
     /tmp/ccwmDzl4.s:701    .text.chSchGoSleepS:0000000000000070 $d
     /tmp/ccwmDzl4.s:707    .text.wakeup:0000000000000000 $t
     /tmp/ccwmDzl4.s:714    .text.wakeup:0000000000000000 wakeup
     /tmp/ccwmDzl4.s:740    .text.wakeup:0000000000000020 $d
     /tmp/ccwmDzl4.s:748    .text.wakeup:0000000000000040 $t
     /tmp/ccwmDzl4.s:797    .text.chSchGoSleepTimeoutS:0000000000000000 $t
     /tmp/ccwmDzl4.s:805    .text.chSchGoSleepTimeoutS:0000000000000000 chSchGoSleepTimeoutS
     /tmp/ccwmDzl4.s:869    .text.chSchGoSleepTimeoutS:0000000000000060 $d
     /tmp/ccwmDzl4.s:875    .text.chSchWakeupS:0000000000000000 $t
     /tmp/ccwmDzl4.s:883    .text.chSchWakeupS:0000000000000000 chSchWakeupS
     /tmp/ccwmDzl4.s:999    .text.chSchWakeupS:0000000000000098 $d
     /tmp/ccwmDzl4.s:1348   .rodata.__func__.7890:0000000000000000 __func__.7890
     /tmp/ccwmDzl4.s:1006   .text.chSchRescheduleS:0000000000000000 $t
     /tmp/ccwmDzl4.s:1014   .text.chSchRescheduleS:0000000000000000 chSchRescheduleS
     /tmp/ccwmDzl4.s:1192   .text.chSchDoRescheduleAhead:0000000000000000 chSchDoRescheduleAhead
     /tmp/ccwmDzl4.s:1041   .text.chSchIsPreemptionRequired:0000000000000000 $t
     /tmp/ccwmDzl4.s:1049   .text.chSchIsPreemptionRequired:0000000000000000 chSchIsPreemptionRequired
     /tmp/ccwmDzl4.s:1085   .text.chSchIsPreemptionRequired:0000000000000028 $d
ARM GAS  /tmp/ccwmDzl4.s 			page 88


     /tmp/ccwmDzl4.s:1090   .text.chSchDoRescheduleBehind:0000000000000000 $t
     /tmp/ccwmDzl4.s:1098   .text.chSchDoRescheduleBehind:0000000000000000 chSchDoRescheduleBehind
     /tmp/ccwmDzl4.s:1178   .text.chSchDoRescheduleBehind:0000000000000064 $d
     /tmp/ccwmDzl4.s:1184   .text.chSchDoRescheduleAhead:0000000000000000 $t
     /tmp/ccwmDzl4.s:1306   .text.chSchDoRescheduleAhead:0000000000000098 $d
     /tmp/ccwmDzl4.s:1312   .text.chSchDoReschedule:0000000000000000 $t
     /tmp/ccwmDzl4.s:1320   .text.chSchDoReschedule:0000000000000000 chSchDoReschedule
     /tmp/ccwmDzl4.s:1339   .rodata.__func__.7862:0000000000000000 $d
     /tmp/ccwmDzl4.s:1345   .rodata.__func__.7890:0000000000000000 $d
                     .debug_frame:0000000000000010 $d

UNDEFINED SYMBOLS
chDbgCheckClassI
_stats_start_measure_crit_isr
_dbg_check_lock_from_isr
_dbg_check_unlock_from_isr
_stats_stop_measure_crit_isr
chSysHalt
chDbgCheckClassS
_stats_ctxswc
_port_switch
chVTDoSetI
chVTDoResetI
