ARM GAS  /tmp/ccwmDzl4.s 			page 1


   1              		.cpu cortex-m4
   2              		.eabi_attribute 27, 1
   3              		.eabi_attribute 28, 1
   4              		.eabi_attribute 20, 1
   5              		.eabi_attribute 21, 1
   6              		.eabi_attribute 23, 3
   7              		.eabi_attribute 24, 1
   8              		.eabi_attribute 25, 1
   9              		.eabi_attribute 26, 1
  10              		.eabi_attribute 30, 6
  11              		.eabi_attribute 34, 1
  12              		.eabi_attribute 18, 4
  13              		.file	"chschd.c"
  14              		.text
  15              	.Ltext0:
  16              		.cfi_sections	.debug_frame
  17              		.section	.text.port_lock,"ax",%progbits
  18              		.align	1
  19              		.p2align 4,,15
  20              		.syntax unified
  21              		.thumb
  22              		.thumb_func
  23              		.fpu fpv4-sp-d16
  24              		.type	port_lock, %function
  25              	port_lock:
  26              	.LFB127:
  27              		.file 1 "../ChibiOS/os/rt/ports/ARMCMx/chcore_v7m.h"
  28              		.loc 1 456 0
  29              		.cfi_startproc
  30              		@ args = 0, pretend = 0, frame = 8
  31              		@ frame_needed = 0, uses_anonymous_args = 0
  32              		@ link register save eliminated.
  33 0000 82B0     		sub	sp, sp, #8
  34              		.cfi_def_cfa_offset 8
  35 0002 2023     		movs	r3, #32
  36 0004 0193     		str	r3, [sp, #4]
  37              	.LBB19:
  38              	.LBB20:
  39              		.file 2 "../ChibiOS/os/ext/CMSIS/include/core_cmFunc.h"
  40              		.loc 2 548 0
  41 0006 019B     		ldr	r3, [sp, #4]
  42              		.syntax unified
  43              	@ 548 "../ChibiOS/os/ext/CMSIS/include/core_cmFunc.h" 1
  44 0008 83F31188 		MSR basepri, r3
  45              	@ 0 "" 2
  46              		.thumb
  47              		.syntax unified
  48              	.LBE20:
  49              	.LBE19:
  50              		.loc 1 473 0
  51 000c 00BF     		nop
  52 000e 02B0     		add	sp, sp, #8
  53              		.cfi_def_cfa_offset 0
  54              		@ sp needed
  55 0010 7047     		bx	lr
  56              		.cfi_endproc
  57              	.LFE127:
ARM GAS  /tmp/ccwmDzl4.s 			page 2


  58              		.size	port_lock, .-port_lock
  59 0012 00BF     		.section	.text.port_unlock,"ax",%progbits
  60              		.align	1
  61              		.p2align 4,,15
  62              		.syntax unified
  63              		.thumb
  64              		.thumb_func
  65              		.fpu fpv4-sp-d16
  66              		.type	port_unlock, %function
  67              	port_unlock:
  68              	.LFB128:
  69              		.loc 1 480 0
  70              		.cfi_startproc
  71              		@ args = 0, pretend = 0, frame = 8
  72              		@ frame_needed = 0, uses_anonymous_args = 0
  73              		@ link register save eliminated.
  74 0000 82B0     		sub	sp, sp, #8
  75              		.cfi_def_cfa_offset 8
  76 0002 0023     		movs	r3, #0
  77 0004 0193     		str	r3, [sp, #4]
  78              	.LBB21:
  79              	.LBB22:
  80              		.loc 2 548 0
  81 0006 019B     		ldr	r3, [sp, #4]
  82              		.syntax unified
  83              	@ 548 "../ChibiOS/os/ext/CMSIS/include/core_cmFunc.h" 1
  84 0008 83F31188 		MSR basepri, r3
  85              	@ 0 "" 2
  86              		.thumb
  87              		.syntax unified
  88              	.LBE22:
  89              	.LBE21:
  90              		.loc 1 487 0
  91 000c 00BF     		nop
  92 000e 02B0     		add	sp, sp, #8
  93              		.cfi_def_cfa_offset 0
  94              		@ sp needed
  95 0010 7047     		bx	lr
  96              		.cfi_endproc
  97              	.LFE128:
  98              		.size	port_unlock, .-port_unlock
  99 0012 00BF     		.section	.text.port_lock_from_isr,"ax",%progbits
 100              		.align	1
 101              		.p2align 4,,15
 102              		.syntax unified
 103              		.thumb
 104              		.thumb_func
 105              		.fpu fpv4-sp-d16
 106              		.type	port_lock_from_isr, %function
 107              	port_lock_from_isr:
 108              	.LFB129:
 109              		.loc 1 495 0
 110              		.cfi_startproc
 111              		@ args = 0, pretend = 0, frame = 0
 112              		@ frame_needed = 0, uses_anonymous_args = 0
 113 0000 08B5     		push	{r3, lr}
 114              		.cfi_def_cfa_offset 8
ARM GAS  /tmp/ccwmDzl4.s 			page 3


 115              		.cfi_offset 3, -8
 116              		.cfi_offset 14, -4
 117              		.loc 1 497 0
 118 0002 FFF7FEFF 		bl	port_lock
 119              		.loc 1 498 0
 120 0006 00BF     		nop
 121 0008 08BD     		pop	{r3, pc}
 122              		.cfi_endproc
 123              	.LFE129:
 124              		.size	port_lock_from_isr, .-port_lock_from_isr
 125              		.section	.text.port_unlock_from_isr,"ax",%progbits
 126              		.align	1
 127              		.p2align 4,,15
 128              		.syntax unified
 129              		.thumb
 130              		.thumb_func
 131              		.fpu fpv4-sp-d16
 132              		.type	port_unlock_from_isr, %function
 133              	port_unlock_from_isr:
 134              	.LFB130:
 135              		.loc 1 506 0
 136              		.cfi_startproc
 137              		@ args = 0, pretend = 0, frame = 0
 138              		@ frame_needed = 0, uses_anonymous_args = 0
 139 0000 08B5     		push	{r3, lr}
 140              		.cfi_def_cfa_offset 8
 141              		.cfi_offset 3, -8
 142              		.cfi_offset 14, -4
 143              		.loc 1 508 0
 144 0002 FFF7FEFF 		bl	port_unlock
 145              		.loc 1 509 0
 146 0006 00BF     		nop
 147 0008 08BD     		pop	{r3, pc}
 148              		.cfi_endproc
 149              	.LFE130:
 150              		.size	port_unlock_from_isr, .-port_unlock_from_isr
 151              		.section	.text.queue_init,"ax",%progbits
 152              		.align	1
 153              		.p2align 4,,15
 154              		.syntax unified
 155              		.thumb
 156              		.thumb_func
 157              		.fpu fpv4-sp-d16
 158              		.type	queue_init, %function
 159              	queue_init:
 160              	.LFB139:
 161              		.file 3 "../ChibiOS/os/rt/include/chschd.h"
 162              		.loc 3 602 0
 163              		.cfi_startproc
 164              		@ args = 0, pretend = 0, frame = 8
 165              		@ frame_needed = 0, uses_anonymous_args = 0
 166              		@ link register save eliminated.
 167 0000 82B0     		sub	sp, sp, #8
 168              		.cfi_def_cfa_offset 8
 169 0002 0190     		str	r0, [sp, #4]
 170              		.loc 3 604 0
 171 0004 019B     		ldr	r3, [sp, #4]
ARM GAS  /tmp/ccwmDzl4.s 			page 4


 172 0006 019A     		ldr	r2, [sp, #4]
 173 0008 1A60     		str	r2, [r3]
 174              		.loc 3 605 0
 175 000a 019B     		ldr	r3, [sp, #4]
 176 000c 019A     		ldr	r2, [sp, #4]
 177 000e 5A60     		str	r2, [r3, #4]
 178              		.loc 3 606 0
 179 0010 00BF     		nop
 180 0012 02B0     		add	sp, sp, #8
 181              		.cfi_def_cfa_offset 0
 182              		@ sp needed
 183 0014 7047     		bx	lr
 184              		.cfi_endproc
 185              	.LFE139:
 186              		.size	queue_init, .-queue_init
 187              		.section	.text.queue_fifo_remove,"ax",%progbits
 188              		.align	1
 189              		.p2align 4,,15
 190              		.syntax unified
 191              		.thumb
 192              		.thumb_func
 193              		.fpu fpv4-sp-d16
 194              		.type	queue_fifo_remove, %function
 195              	queue_fifo_remove:
 196              	.LFB146:
 197              		.loc 3 671 0
 198              		.cfi_startproc
 199              		@ args = 0, pretend = 0, frame = 16
 200              		@ frame_needed = 0, uses_anonymous_args = 0
 201              		@ link register save eliminated.
 202 0000 84B0     		sub	sp, sp, #16
 203              		.cfi_def_cfa_offset 16
 204 0002 0190     		str	r0, [sp, #4]
 205              		.loc 3 672 0
 206 0004 019B     		ldr	r3, [sp, #4]
 207 0006 1B68     		ldr	r3, [r3]
 208 0008 0393     		str	r3, [sp, #12]
 209              		.loc 3 674 0
 210 000a 039B     		ldr	r3, [sp, #12]
 211 000c 1A68     		ldr	r2, [r3]
 212 000e 019B     		ldr	r3, [sp, #4]
 213 0010 1A60     		str	r2, [r3]
 214              		.loc 3 675 0
 215 0012 019B     		ldr	r3, [sp, #4]
 216 0014 1B68     		ldr	r3, [r3]
 217 0016 019A     		ldr	r2, [sp, #4]
 218 0018 5A60     		str	r2, [r3, #4]
 219              		.loc 3 677 0
 220 001a 039B     		ldr	r3, [sp, #12]
 221              		.loc 3 678 0
 222 001c 1846     		mov	r0, r3
 223 001e 04B0     		add	sp, sp, #16
 224              		.cfi_def_cfa_offset 0
 225              		@ sp needed
 226 0020 7047     		bx	lr
 227              		.cfi_endproc
 228              	.LFE146:
ARM GAS  /tmp/ccwmDzl4.s 			page 5


 229              		.size	queue_fifo_remove, .-queue_fifo_remove
 230 0022 00BF     		.section	.text.queue_dequeue,"ax",%progbits
 231              		.align	1
 232              		.p2align 4,,15
 233              		.syntax unified
 234              		.thumb
 235              		.thumb_func
 236              		.fpu fpv4-sp-d16
 237              		.type	queue_dequeue, %function
 238              	queue_dequeue:
 239              	.LFB148:
 240              		.loc 3 689 0
 241              		.cfi_startproc
 242              		@ args = 0, pretend = 0, frame = 8
 243              		@ frame_needed = 0, uses_anonymous_args = 0
 244              		@ link register save eliminated.
 245 0000 82B0     		sub	sp, sp, #8
 246              		.cfi_def_cfa_offset 8
 247 0002 0190     		str	r0, [sp, #4]
 248              		.loc 3 691 0
 249 0004 019B     		ldr	r3, [sp, #4]
 250 0006 5B68     		ldr	r3, [r3, #4]
 251 0008 019A     		ldr	r2, [sp, #4]
 252 000a 1268     		ldr	r2, [r2]
 253 000c 1A60     		str	r2, [r3]
 254              		.loc 3 692 0
 255 000e 019B     		ldr	r3, [sp, #4]
 256 0010 1B68     		ldr	r3, [r3]
 257 0012 019A     		ldr	r2, [sp, #4]
 258 0014 5268     		ldr	r2, [r2, #4]
 259 0016 5A60     		str	r2, [r3, #4]
 260              		.loc 3 694 0
 261 0018 019B     		ldr	r3, [sp, #4]
 262              		.loc 3 695 0
 263 001a 1846     		mov	r0, r3
 264 001c 02B0     		add	sp, sp, #8
 265              		.cfi_def_cfa_offset 0
 266              		@ sp needed
 267 001e 7047     		bx	lr
 268              		.cfi_endproc
 269              	.LFE148:
 270              		.size	queue_dequeue, .-queue_dequeue
 271              		.section	.text.chSchIsRescRequiredI,"ax",%progbits
 272              		.align	1
 273              		.p2align 4,,15
 274              		.syntax unified
 275              		.thumb
 276              		.thumb_func
 277              		.fpu fpv4-sp-d16
 278              		.type	chSchIsRescRequiredI, %function
 279              	chSchIsRescRequiredI:
 280              	.LFB149:
 281              		.loc 3 709 0
 282              		.cfi_startproc
 283              		@ args = 0, pretend = 0, frame = 0
 284              		@ frame_needed = 0, uses_anonymous_args = 0
 285 0000 08B5     		push	{r3, lr}
ARM GAS  /tmp/ccwmDzl4.s 			page 6


 286              		.cfi_def_cfa_offset 8
 287              		.cfi_offset 3, -8
 288              		.cfi_offset 14, -4
 289              		.loc 3 711 0
 290 0002 FFF7FEFF 		bl	chDbgCheckClassI
 291              		.loc 3 713 0
 292 0006 064B     		ldr	r3, .L12
 293 0008 1B68     		ldr	r3, [r3]
 294 000a 9A68     		ldr	r2, [r3, #8]
 295 000c 044B     		ldr	r3, .L12
 296 000e 9B69     		ldr	r3, [r3, #24]
 297 0010 9B68     		ldr	r3, [r3, #8]
 298 0012 9A42     		cmp	r2, r3
 299 0014 8CBF     		ite	hi
 300 0016 0123     		movhi	r3, #1
 301 0018 0023     		movls	r3, #0
 302 001a DBB2     		uxtb	r3, r3
 303              		.loc 3 714 0
 304 001c 1846     		mov	r0, r3
 305 001e 08BD     		pop	{r3, pc}
 306              	.L13:
 307              		.align	2
 308              	.L12:
 309 0020 00000000 		.word	ch
 310              		.cfi_endproc
 311              	.LFE149:
 312              		.size	chSchIsRescRequiredI, .-chSchIsRescRequiredI
 313              		.section	.text.chSysLockFromISR,"ax",%progbits
 314              		.align	1
 315              		.p2align 4,,15
 316              		.syntax unified
 317              		.thumb
 318              		.thumb_func
 319              		.fpu fpv4-sp-d16
 320              		.type	chSysLockFromISR, %function
 321              	chSysLockFromISR:
 322              	.LFB158:
 323              		.file 4 "../ChibiOS/os/rt/include/chsys.h"
 324              		.loc 4 386 0
 325              		.cfi_startproc
 326              		@ args = 0, pretend = 0, frame = 0
 327              		@ frame_needed = 0, uses_anonymous_args = 0
 328 0000 08B5     		push	{r3, lr}
 329              		.cfi_def_cfa_offset 8
 330              		.cfi_offset 3, -8
 331              		.cfi_offset 14, -4
 332              		.loc 4 388 0
 333 0002 FFF7FEFF 		bl	port_lock_from_isr
 334              		.loc 4 389 0
 335 0006 FFF7FEFF 		bl	_stats_start_measure_crit_isr
 336              		.loc 4 390 0
 337 000a FFF7FEFF 		bl	_dbg_check_lock_from_isr
 338              		.loc 4 391 0
 339 000e 00BF     		nop
 340 0010 08BD     		pop	{r3, pc}
 341              		.cfi_endproc
 342              	.LFE158:
ARM GAS  /tmp/ccwmDzl4.s 			page 7


 343              		.size	chSysLockFromISR, .-chSysLockFromISR
 344 0012 00BF     		.section	.text.chSysUnlockFromISR,"ax",%progbits
 345              		.align	1
 346              		.p2align 4,,15
 347              		.syntax unified
 348              		.thumb
 349              		.thumb_func
 350              		.fpu fpv4-sp-d16
 351              		.type	chSysUnlockFromISR, %function
 352              	chSysUnlockFromISR:
 353              	.LFB159:
 354              		.loc 4 406 0
 355              		.cfi_startproc
 356              		@ args = 0, pretend = 0, frame = 0
 357              		@ frame_needed = 0, uses_anonymous_args = 0
 358 0000 08B5     		push	{r3, lr}
 359              		.cfi_def_cfa_offset 8
 360              		.cfi_offset 3, -8
 361              		.cfi_offset 14, -4
 362              		.loc 4 408 0
 363 0002 FFF7FEFF 		bl	_dbg_check_unlock_from_isr
 364              		.loc 4 409 0
 365 0006 FFF7FEFF 		bl	_stats_stop_measure_crit_isr
 366              		.loc 4 410 0
 367 000a FFF7FEFF 		bl	port_unlock_from_isr
 368              		.loc 4 411 0
 369 000e 00BF     		nop
 370 0010 08BD     		pop	{r3, pc}
 371              		.cfi_endproc
 372              	.LFE159:
 373              		.size	chSysUnlockFromISR, .-chSysUnlockFromISR
 374 0012 00BF     		.section	.text.chVTIsArmedI,"ax",%progbits
 375              		.align	1
 376              		.p2align 4,,15
 377              		.syntax unified
 378              		.thumb
 379              		.thumb_func
 380              		.fpu fpv4-sp-d16
 381              		.type	chVTIsArmedI, %function
 382              	chVTIsArmedI:
 383              	.LFB171:
 384              		.file 5 "../ChibiOS/os/rt/include/chvt.h"
 385              		.loc 5 373 0
 386              		.cfi_startproc
 387              		@ args = 0, pretend = 0, frame = 8
 388              		@ frame_needed = 0, uses_anonymous_args = 0
 389 0000 00B5     		push	{lr}
 390              		.cfi_def_cfa_offset 4
 391              		.cfi_offset 14, -4
 392 0002 83B0     		sub	sp, sp, #12
 393              		.cfi_def_cfa_offset 16
 394 0004 0190     		str	r0, [sp, #4]
 395              		.loc 5 375 0
 396 0006 FFF7FEFF 		bl	chDbgCheckClassI
 397              		.loc 5 377 0
 398 000a 019B     		ldr	r3, [sp, #4]
 399 000c DB68     		ldr	r3, [r3, #12]
ARM GAS  /tmp/ccwmDzl4.s 			page 8


 400 000e 002B     		cmp	r3, #0
 401 0010 14BF     		ite	ne
 402 0012 0123     		movne	r3, #1
 403 0014 0023     		moveq	r3, #0
 404 0016 DBB2     		uxtb	r3, r3
 405              		.loc 5 378 0
 406 0018 1846     		mov	r0, r3
 407 001a 03B0     		add	sp, sp, #12
 408              		.cfi_def_cfa_offset 4
 409              		@ sp needed
 410 001c 5DF804FB 		ldr	pc, [sp], #4
 411              		.cfi_endproc
 412              	.LFE171:
 413              		.size	chVTIsArmedI, .-chVTIsArmedI
 414              		.section	.text.chSemFastSignalI,"ax",%progbits
 415              		.align	1
 416              		.p2align 4,,15
 417              		.syntax unified
 418              		.thumb
 419              		.thumb_func
 420              		.fpu fpv4-sp-d16
 421              		.type	chSemFastSignalI, %function
 422              	chSemFastSignalI:
 423              	.LFB191:
 424              		.file 6 "../ChibiOS/os/rt/include/chsem.h"
 425              		.loc 6 134 0
 426              		.cfi_startproc
 427              		@ args = 0, pretend = 0, frame = 8
 428              		@ frame_needed = 0, uses_anonymous_args = 0
 429 0000 00B5     		push	{lr}
 430              		.cfi_def_cfa_offset 4
 431              		.cfi_offset 14, -4
 432 0002 83B0     		sub	sp, sp, #12
 433              		.cfi_def_cfa_offset 16
 434 0004 0190     		str	r0, [sp, #4]
 435              		.loc 6 136 0
 436 0006 FFF7FEFF 		bl	chDbgCheckClassI
 437              		.loc 6 138 0
 438 000a 019B     		ldr	r3, [sp, #4]
 439 000c 9B68     		ldr	r3, [r3, #8]
 440 000e 5A1C     		adds	r2, r3, #1
 441 0010 019B     		ldr	r3, [sp, #4]
 442 0012 9A60     		str	r2, [r3, #8]
 443              		.loc 6 139 0
 444 0014 00BF     		nop
 445 0016 03B0     		add	sp, sp, #12
 446              		.cfi_def_cfa_offset 4
 447              		@ sp needed
 448 0018 5DF804FB 		ldr	pc, [sp], #4
 449              		.cfi_endproc
 450              	.LFE191:
 451              		.size	chSemFastSignalI, .-chSemFastSignalI
 452              		.global	ch
 453              		.section	.bss.ch,"aw",%nobits
 454              		.align	3
 455              		.type	ch, %object
 456              		.size	ch, 600
ARM GAS  /tmp/ccwmDzl4.s 			page 9


 457              	ch:
 458 0000 00000000 		.space	600
 458      00000000 
 458      00000000 
 458      00000000 
 458      00000000 
 459              		.section	.text._scheduler_init,"ax",%progbits
 460              		.align	1
 461              		.p2align 4,,15
 462              		.global	_scheduler_init
 463              		.syntax unified
 464              		.thumb
 465              		.thumb_func
 466              		.fpu fpv4-sp-d16
 467              		.type	_scheduler_init, %function
 468              	_scheduler_init:
 469              	.LFB231:
 470              		.file 7 "../ChibiOS/os/rt/src/chschd.c"
 471              		.loc 7 65 0
 472              		.cfi_startproc
 473              		@ args = 0, pretend = 0, frame = 0
 474              		@ frame_needed = 0, uses_anonymous_args = 0
 475 0000 08B5     		push	{r3, lr}
 476              		.cfi_def_cfa_offset 8
 477              		.cfi_offset 3, -8
 478              		.cfi_offset 14, -4
 479              		.loc 7 67 0
 480 0002 0748     		ldr	r0, .L20
 481 0004 FFF7FEFF 		bl	queue_init
 482              		.loc 7 68 0
 483 0008 054B     		ldr	r3, .L20
 484 000a 0022     		movs	r2, #0
 485 000c 9A60     		str	r2, [r3, #8]
 486              		.loc 7 70 0
 487 000e 044B     		ldr	r3, .L20
 488 0010 034A     		ldr	r2, .L20
 489 0012 1A61     		str	r2, [r3, #16]
 490              		.loc 7 71 0
 491 0014 024B     		ldr	r3, .L20
 492 0016 024A     		ldr	r2, .L20
 493 0018 5A61     		str	r2, [r3, #20]
 494              		.loc 7 73 0
 495 001a 00BF     		nop
 496 001c 08BD     		pop	{r3, pc}
 497              	.L21:
 498 001e 00BF     		.align	2
 499              	.L20:
 500 0020 00000000 		.word	ch
 501              		.cfi_endproc
 502              	.LFE231:
 503              		.size	_scheduler_init, .-_scheduler_init
 504              		.section	.text.chSchReadyI,"ax",%progbits
 505              		.align	1
 506              		.p2align 4,,15
 507              		.global	chSchReadyI
 508              		.syntax unified
 509              		.thumb
ARM GAS  /tmp/ccwmDzl4.s 			page 10


 510              		.thumb_func
 511              		.fpu fpv4-sp-d16
 512              		.type	chSchReadyI, %function
 513              	chSchReadyI:
 514              	.LFB232:
 515              		.loc 7 218 0
 516              		.cfi_startproc
 517              		@ args = 0, pretend = 0, frame = 16
 518              		@ frame_needed = 0, uses_anonymous_args = 0
 519 0000 00B5     		push	{lr}
 520              		.cfi_def_cfa_offset 4
 521              		.cfi_offset 14, -4
 522 0002 85B0     		sub	sp, sp, #20
 523              		.cfi_def_cfa_offset 24
 524 0004 0190     		str	r0, [sp, #4]
 525              		.loc 7 221 0
 526 0006 FFF7FEFF 		bl	chDbgCheckClassI
 527              		.loc 7 222 0
 528 000a 019B     		ldr	r3, [sp, #4]
 529 000c 002B     		cmp	r3, #0
 530 000e 02D1     		bne	.L28
 531              		.loc 7 222 0 is_stmt 0 discriminator 2
 532 0010 1848     		ldr	r0, .L29
 533 0012 FFF7FEFF 		bl	chSysHalt
 534              	.L28:
 535              		.loc 7 223 0 is_stmt 1 discriminator 1
 536 0016 019B     		ldr	r3, [sp, #4]
 537 0018 93F82030 		ldrb	r3, [r3, #32]	@ zero_extendqisi2
 538 001c 002B     		cmp	r3, #0
 539 001e 04D0     		beq	.L24
 540              		.loc 7 223 0 is_stmt 0 discriminator 3
 541 0020 019B     		ldr	r3, [sp, #4]
 542 0022 93F82030 		ldrb	r3, [r3, #32]	@ zero_extendqisi2
 543 0026 0F2B     		cmp	r3, #15
 544 0028 02D1     		bne	.L25
 545              	.L24:
 546              		.loc 7 223 0 discriminator 4
 547 002a 1248     		ldr	r0, .L29
 548 002c FFF7FEFF 		bl	chSysHalt
 549              	.L25:
 550              		.loc 7 227 0 is_stmt 1
 551 0030 019B     		ldr	r3, [sp, #4]
 552 0032 0022     		movs	r2, #0
 553 0034 83F82020 		strb	r2, [r3, #32]
 554              		.loc 7 228 0
 555 0038 0F4B     		ldr	r3, .L29+4
 556 003a 0393     		str	r3, [sp, #12]
 557              	.L26:
 558              		.loc 7 230 0 discriminator 1
 559 003c 039B     		ldr	r3, [sp, #12]
 560 003e 1B68     		ldr	r3, [r3]
 561 0040 0393     		str	r3, [sp, #12]
 562              		.loc 7 231 0 discriminator 1
 563 0042 039B     		ldr	r3, [sp, #12]
 564 0044 9A68     		ldr	r2, [r3, #8]
 565 0046 019B     		ldr	r3, [sp, #4]
 566 0048 9B68     		ldr	r3, [r3, #8]
ARM GAS  /tmp/ccwmDzl4.s 			page 11


 567 004a 9A42     		cmp	r2, r3
 568 004c F6D2     		bcs	.L26
 569              		.loc 7 233 0
 570 004e 019B     		ldr	r3, [sp, #4]
 571 0050 039A     		ldr	r2, [sp, #12]
 572 0052 1A60     		str	r2, [r3]
 573              		.loc 7 234 0
 574 0054 039B     		ldr	r3, [sp, #12]
 575 0056 5A68     		ldr	r2, [r3, #4]
 576 0058 019B     		ldr	r3, [sp, #4]
 577 005a 5A60     		str	r2, [r3, #4]
 578              		.loc 7 235 0
 579 005c 019B     		ldr	r3, [sp, #4]
 580 005e 5B68     		ldr	r3, [r3, #4]
 581 0060 019A     		ldr	r2, [sp, #4]
 582 0062 1A60     		str	r2, [r3]
 583              		.loc 7 236 0
 584 0064 039B     		ldr	r3, [sp, #12]
 585 0066 019A     		ldr	r2, [sp, #4]
 586 0068 5A60     		str	r2, [r3, #4]
 587              		.loc 7 238 0
 588 006a 019B     		ldr	r3, [sp, #4]
 589              		.loc 7 239 0
 590 006c 1846     		mov	r0, r3
 591 006e 05B0     		add	sp, sp, #20
 592              		.cfi_def_cfa_offset 4
 593              		@ sp needed
 594 0070 5DF804FB 		ldr	pc, [sp], #4
 595              	.L30:
 596              		.align	2
 597              	.L29:
 598 0074 00000000 		.word	__func__.7862
 599 0078 00000000 		.word	ch
 600              		.cfi_endproc
 601              	.LFE232:
 602              		.size	chSchReadyI, .-chSchReadyI
 603              		.section	.rodata
 604              		.align	2
 605              	.LC0:
 606 0000 73746163 		.ascii	"stack overflow\000"
 606      6B206F76 
 606      6572666C 
 606      6F7700
 607              		.section	.text.chSchGoSleepS,"ax",%progbits
 608              		.align	1
 609              		.p2align 4,,15
 610              		.global	chSchGoSleepS
 611              		.syntax unified
 612              		.thumb
 613              		.thumb_func
 614              		.fpu fpv4-sp-d16
 615              		.type	chSchGoSleepS, %function
 616              	chSchGoSleepS:
 617              	.LFB233:
 618              		.loc 7 250 0
 619              		.cfi_startproc
 620              		@ args = 0, pretend = 0, frame = 16
ARM GAS  /tmp/ccwmDzl4.s 			page 12


 621              		@ frame_needed = 0, uses_anonymous_args = 0
 622 0000 10B5     		push	{r4, lr}
 623              		.cfi_def_cfa_offset 8
 624              		.cfi_offset 4, -8
 625              		.cfi_offset 14, -4
 626 0002 84B0     		sub	sp, sp, #16
 627              		.cfi_def_cfa_offset 24
 628 0004 0346     		mov	r3, r0
 629 0006 8DF80730 		strb	r3, [sp, #7]
 630              		.loc 7 253 0
 631 000a FFF7FEFF 		bl	chDbgCheckClassS
 632              		.loc 7 255 0
 633 000e 184B     		ldr	r3, .L34
 634 0010 9B69     		ldr	r3, [r3, #24]
 635 0012 0393     		str	r3, [sp, #12]
 636              		.loc 7 256 0
 637 0014 039B     		ldr	r3, [sp, #12]
 638 0016 9DF80720 		ldrb	r2, [sp, #7]
 639 001a 83F82020 		strb	r2, [r3, #32]
 640              		.loc 7 262 0
 641 001e 1448     		ldr	r0, .L34
 642 0020 FFF7FEFF 		bl	queue_fifo_remove
 643 0024 0246     		mov	r2, r0
 644 0026 124B     		ldr	r3, .L34
 645 0028 9A61     		str	r2, [r3, #24]
 646              		.loc 7 268 0
 647 002a 114B     		ldr	r3, .L34
 648 002c 9B69     		ldr	r3, [r3, #24]
 649 002e 0122     		movs	r2, #1
 650 0030 83F82020 		strb	r2, [r3, #32]
 651              		.loc 7 269 0
 652 0034 0E4B     		ldr	r3, .L34
 653 0036 9B69     		ldr	r3, [r3, #24]
 654 0038 0399     		ldr	r1, [sp, #12]
 655 003a 1846     		mov	r0, r3
 656 003c FFF7FEFF 		bl	_stats_ctxswc
 657              	.LBB23:
 658              	.LBB24:
 659              	.LBB25:
 660              		.loc 2 430 0
 661              		.syntax unified
 662              	@ 430 "../ChibiOS/os/ext/CMSIS/include/core_cmFunc.h" 1
 663 0040 EFF30983 		MRS r3, psp
 664              	
 665              	@ 0 "" 2
 666              		.thumb
 667              		.syntax unified
 668 0044 1C46     		mov	r4, r3
 669              		.loc 2 431 0
 670 0046 2346     		mov	r3, r4
 671              	.LBE25:
 672              	.LBE24:
 673              		.loc 7 269 0
 674 0048 0293     		str	r3, [sp, #8]
 675 004a 029B     		ldr	r3, [sp, #8]
 676 004c A3F16402 		sub	r2, r3, #100
 677 0050 039B     		ldr	r3, [sp, #12]
ARM GAS  /tmp/ccwmDzl4.s 			page 13


 678 0052 DB69     		ldr	r3, [r3, #28]
 679 0054 9A42     		cmp	r2, r3
 680 0056 02D2     		bcs	.L33
 681              		.loc 7 269 0 is_stmt 0 discriminator 1
 682 0058 0648     		ldr	r0, .L34+4
 683 005a FFF7FEFF 		bl	chSysHalt
 684              	.L33:
 685              		.loc 7 269 0 discriminator 3
 686 005e 044B     		ldr	r3, .L34
 687 0060 9B69     		ldr	r3, [r3, #24]
 688 0062 0399     		ldr	r1, [sp, #12]
 689 0064 1846     		mov	r0, r3
 690 0066 FFF7FEFF 		bl	_port_switch
 691              	.LBE23:
 692              		.loc 7 270 0 is_stmt 1 discriminator 3
 693 006a 00BF     		nop
 694 006c 04B0     		add	sp, sp, #16
 695              		.cfi_def_cfa_offset 8
 696              		@ sp needed
 697 006e 10BD     		pop	{r4, pc}
 698              	.L35:
 699              		.align	2
 700              	.L34:
 701 0070 00000000 		.word	ch
 702 0074 00000000 		.word	.LC0
 703              		.cfi_endproc
 704              	.LFE233:
 705              		.size	chSchGoSleepS, .-chSchGoSleepS
 706              		.section	.text.wakeup,"ax",%progbits
 707              		.align	1
 708              		.p2align 4,,15
 709              		.syntax unified
 710              		.thumb
 711              		.thumb_func
 712              		.fpu fpv4-sp-d16
 713              		.type	wakeup, %function
 714              	wakeup:
 715              	.LFB234:
 716              		.loc 7 275 0
 717              		.cfi_startproc
 718              		@ args = 0, pretend = 0, frame = 16
 719              		@ frame_needed = 0, uses_anonymous_args = 0
 720 0000 00B5     		push	{lr}
 721              		.cfi_def_cfa_offset 4
 722              		.cfi_offset 14, -4
 723 0002 85B0     		sub	sp, sp, #20
 724              		.cfi_def_cfa_offset 24
 725 0004 0190     		str	r0, [sp, #4]
 726              		.loc 7 276 0
 727 0006 019B     		ldr	r3, [sp, #4]
 728 0008 0393     		str	r3, [sp, #12]
 729              		.loc 7 278 0
 730 000a FFF7FEFF 		bl	chSysLockFromISR
 731              		.loc 7 279 0
 732 000e 039B     		ldr	r3, [sp, #12]
 733 0010 93F82030 		ldrb	r3, [r3, #32]	@ zero_extendqisi2
 734 0014 072B     		cmp	r3, #7
ARM GAS  /tmp/ccwmDzl4.s 			page 14


 735 0016 24D8     		bhi	.L45
 736 0018 01A2     		adr	r2, .L39
 737 001a 52F823F0 		ldr	pc, [r2, r3, lsl #2]
 738 001e 00BF     		.p2align 2
 739              	.L39:
 740 0020 41000000 		.word	.L38+1
 741 0024 63000000 		.word	.L45+1
 742 0028 63000000 		.word	.L45+1
 743 002c 47000000 		.word	.L40+1
 744 0030 5B000000 		.word	.L41+1
 745 0034 51000000 		.word	.L42+1
 746 0038 63000000 		.word	.L45+1
 747 003c 5B000000 		.word	.L41+1
 748              		.p2align 1
 749              	.L38:
 750              		.loc 7 283 0
 751 0040 FFF7FEFF 		bl	chSysUnlockFromISR
 752              		.loc 7 284 0
 753 0044 17E0     		b	.L36
 754              	.L40:
 755              		.loc 7 286 0
 756 0046 039B     		ldr	r3, [sp, #12]
 757 0048 5B6A     		ldr	r3, [r3, #36]
 758 004a 0022     		movs	r2, #0
 759 004c 1A60     		str	r2, [r3]
 760              		.loc 7 287 0
 761 004e 09E0     		b	.L44
 762              	.L42:
 763              		.loc 7 290 0
 764 0050 039B     		ldr	r3, [sp, #12]
 765 0052 5B6A     		ldr	r3, [r3, #36]
 766 0054 1846     		mov	r0, r3
 767 0056 FFF7FEFF 		bl	chSemFastSignalI
 768              	.L41:
 769              		.loc 7 298 0
 770 005a 0398     		ldr	r0, [sp, #12]
 771 005c FFF7FEFF 		bl	queue_dequeue
 772              		.loc 7 299 0
 773 0060 00E0     		b	.L44
 774              	.L45:
 775              		.loc 7 302 0
 776 0062 00BF     		nop
 777              	.L44:
 778              		.loc 7 304 0
 779 0064 039B     		ldr	r3, [sp, #12]
 780 0066 4FF0FF32 		mov	r2, #-1
 781 006a 5A62     		str	r2, [r3, #36]
 782              		.loc 7 305 0
 783 006c 0398     		ldr	r0, [sp, #12]
 784 006e FFF7FEFF 		bl	chSchReadyI
 785              		.loc 7 306 0
 786 0072 FFF7FEFF 		bl	chSysUnlockFromISR
 787              	.L36:
 788              		.loc 7 307 0
 789 0076 05B0     		add	sp, sp, #20
 790              		.cfi_def_cfa_offset 4
 791              		@ sp needed
ARM GAS  /tmp/ccwmDzl4.s 			page 15


 792 0078 5DF804FB 		ldr	pc, [sp], #4
 793              		.cfi_endproc
 794              	.LFE234:
 795              		.size	wakeup, .-wakeup
 796              		.section	.text.chSchGoSleepTimeoutS,"ax",%progbits
 797              		.align	1
 798              		.p2align 4,,15
 799              		.global	chSchGoSleepTimeoutS
 800              		.syntax unified
 801              		.thumb
 802              		.thumb_func
 803              		.fpu fpv4-sp-d16
 804              		.type	chSchGoSleepTimeoutS, %function
 805              	chSchGoSleepTimeoutS:
 806              	.LFB235:
 807              		.loc 7 330 0
 808              		.cfi_startproc
 809              		@ args = 0, pretend = 0, frame = 32
 810              		@ frame_needed = 0, uses_anonymous_args = 0
 811 0000 00B5     		push	{lr}
 812              		.cfi_def_cfa_offset 4
 813              		.cfi_offset 14, -4
 814 0002 89B0     		sub	sp, sp, #36
 815              		.cfi_def_cfa_offset 40
 816 0004 0346     		mov	r3, r0
 817 0006 0091     		str	r1, [sp]
 818 0008 8DF80730 		strb	r3, [sp, #7]
 819              		.loc 7 332 0
 820 000c FFF7FEFF 		bl	chDbgCheckClassS
 821              		.loc 7 334 0
 822 0010 009B     		ldr	r3, [sp]
 823 0012 B3F1FF3F 		cmp	r3, #-1
 824 0016 17D0     		beq	.L47
 825              	.LBB26:
 826              		.loc 7 337 0
 827 0018 114B     		ldr	r3, .L51
 828 001a 9B69     		ldr	r3, [r3, #24]
 829 001c 03A8     		add	r0, sp, #12
 830 001e 114A     		ldr	r2, .L51+4
 831 0020 0099     		ldr	r1, [sp]
 832 0022 FFF7FEFF 		bl	chVTDoSetI
 833              		.loc 7 338 0
 834 0026 9DF80730 		ldrb	r3, [sp, #7]	@ zero_extendqisi2
 835 002a 1846     		mov	r0, r3
 836 002c FFF7FEFF 		bl	chSchGoSleepS
 837              		.loc 7 339 0
 838 0030 03AB     		add	r3, sp, #12
 839 0032 1846     		mov	r0, r3
 840 0034 FFF7FEFF 		bl	chVTIsArmedI
 841 0038 0346     		mov	r3, r0
 842 003a 002B     		cmp	r3, #0
 843 003c 09D0     		beq	.L49
 844              		.loc 7 340 0
 845 003e 03AB     		add	r3, sp, #12
 846 0040 1846     		mov	r0, r3
 847 0042 FFF7FEFF 		bl	chVTDoResetI
 848 0046 04E0     		b	.L49
ARM GAS  /tmp/ccwmDzl4.s 			page 16


 849              	.L47:
 850              	.LBE26:
 851              		.loc 7 344 0
 852 0048 9DF80730 		ldrb	r3, [sp, #7]	@ zero_extendqisi2
 853 004c 1846     		mov	r0, r3
 854 004e FFF7FEFF 		bl	chSchGoSleepS
 855              	.L49:
 856              		.loc 7 347 0
 857 0052 034B     		ldr	r3, .L51
 858 0054 9B69     		ldr	r3, [r3, #24]
 859 0056 5B6A     		ldr	r3, [r3, #36]
 860              		.loc 7 348 0
 861 0058 1846     		mov	r0, r3
 862 005a 09B0     		add	sp, sp, #36
 863              		.cfi_def_cfa_offset 4
 864              		@ sp needed
 865 005c 5DF804FB 		ldr	pc, [sp], #4
 866              	.L52:
 867              		.align	2
 868              	.L51:
 869 0060 00000000 		.word	ch
 870 0064 00000000 		.word	wakeup
 871              		.cfi_endproc
 872              	.LFE235:
 873              		.size	chSchGoSleepTimeoutS, .-chSchGoSleepTimeoutS
 874              		.section	.text.chSchWakeupS,"ax",%progbits
 875              		.align	1
 876              		.p2align 4,,15
 877              		.global	chSchWakeupS
 878              		.syntax unified
 879              		.thumb
 880              		.thumb_func
 881              		.fpu fpv4-sp-d16
 882              		.type	chSchWakeupS, %function
 883              	chSchWakeupS:
 884              	.LFB236:
 885              		.loc 7 367 0
 886              		.cfi_startproc
 887              		@ args = 0, pretend = 0, frame = 16
 888              		@ frame_needed = 0, uses_anonymous_args = 0
 889 0000 10B5     		push	{r4, lr}
 890              		.cfi_def_cfa_offset 8
 891              		.cfi_offset 4, -8
 892              		.cfi_offset 14, -4
 893 0002 84B0     		sub	sp, sp, #16
 894              		.cfi_def_cfa_offset 24
 895 0004 0190     		str	r0, [sp, #4]
 896 0006 0091     		str	r1, [sp]
 897              		.loc 7 369 0
 898 0008 FFF7FEFF 		bl	chDbgCheckClassS
 899              		.loc 7 371 0
 900 000c 224B     		ldr	r3, .L60
 901 000e 1B68     		ldr	r3, [r3]
 902 0010 214A     		ldr	r2, .L60
 903 0012 9342     		cmp	r3, r2
 904 0014 0AD0     		beq	.L54
 905              		.loc 7 371 0 is_stmt 0 discriminator 2
ARM GAS  /tmp/ccwmDzl4.s 			page 17


 906 0016 204B     		ldr	r3, .L60
 907 0018 9B69     		ldr	r3, [r3, #24]
 908 001a 9A68     		ldr	r2, [r3, #8]
 909 001c 1E4B     		ldr	r3, .L60
 910 001e 1B68     		ldr	r3, [r3]
 911 0020 9B68     		ldr	r3, [r3, #8]
 912 0022 9A42     		cmp	r2, r3
 913 0024 02D2     		bcs	.L54
 914              		.loc 7 371 0 discriminator 3
 915 0026 1D48     		ldr	r0, .L60+4
 916 0028 FFF7FEFF 		bl	chSysHalt
 917              	.L54:
 918              		.loc 7 377 0 is_stmt 1
 919 002c 019B     		ldr	r3, [sp, #4]
 920 002e 009A     		ldr	r2, [sp]
 921 0030 5A62     		str	r2, [r3, #36]
 922              		.loc 7 383 0
 923 0032 019B     		ldr	r3, [sp, #4]
 924 0034 9A68     		ldr	r2, [r3, #8]
 925 0036 184B     		ldr	r3, .L60
 926 0038 9B69     		ldr	r3, [r3, #24]
 927 003a 9B68     		ldr	r3, [r3, #8]
 928 003c 9A42     		cmp	r2, r3
 929 003e 03D8     		bhi	.L55
 930              		.loc 7 384 0
 931 0040 0198     		ldr	r0, [sp, #4]
 932 0042 FFF7FEFF 		bl	chSchReadyI
 933              		.loc 7 397 0
 934 0046 23E0     		b	.L59
 935              	.L55:
 936              	.LBB27:
 937              		.loc 7 387 0
 938 0048 134B     		ldr	r3, .L60
 939 004a 9B69     		ldr	r3, [r3, #24]
 940 004c 1846     		mov	r0, r3
 941 004e FFF7FEFF 		bl	chSchReadyI
 942 0052 0390     		str	r0, [sp, #12]
 943              		.loc 7 388 0
 944 0054 104A     		ldr	r2, .L60
 945 0056 019B     		ldr	r3, [sp, #4]
 946 0058 9361     		str	r3, [r2, #24]
 947              		.loc 7 394 0
 948 005a 019B     		ldr	r3, [sp, #4]
 949 005c 0122     		movs	r2, #1
 950 005e 83F82020 		strb	r2, [r3, #32]
 951              		.loc 7 395 0
 952 0062 0399     		ldr	r1, [sp, #12]
 953 0064 0198     		ldr	r0, [sp, #4]
 954 0066 FFF7FEFF 		bl	_stats_ctxswc
 955              	.LBB28:
 956              	.LBB29:
 957              	.LBB30:
 958              		.loc 2 430 0
 959              		.syntax unified
 960              	@ 430 "../ChibiOS/os/ext/CMSIS/include/core_cmFunc.h" 1
 961 006a EFF30983 		MRS r3, psp
 962              	
ARM GAS  /tmp/ccwmDzl4.s 			page 18


 963              	@ 0 "" 2
 964              		.thumb
 965              		.syntax unified
 966 006e 1C46     		mov	r4, r3
 967              		.loc 2 431 0
 968 0070 2346     		mov	r3, r4
 969              	.LBE30:
 970              	.LBE29:
 971              		.loc 7 395 0
 972 0072 0293     		str	r3, [sp, #8]
 973 0074 029B     		ldr	r3, [sp, #8]
 974 0076 A3F16402 		sub	r2, r3, #100
 975 007a 039B     		ldr	r3, [sp, #12]
 976 007c DB69     		ldr	r3, [r3, #28]
 977 007e 9A42     		cmp	r2, r3
 978 0080 02D2     		bcs	.L58
 979              		.loc 7 395 0 is_stmt 0 discriminator 1
 980 0082 0748     		ldr	r0, .L60+8
 981 0084 FFF7FEFF 		bl	chSysHalt
 982              	.L58:
 983              		.loc 7 395 0 discriminator 3
 984 0088 0399     		ldr	r1, [sp, #12]
 985 008a 0198     		ldr	r0, [sp, #4]
 986 008c FFF7FEFF 		bl	_port_switch
 987              	.L59:
 988              	.LBE28:
 989              	.LBE27:
 990              		.loc 7 397 0 is_stmt 1
 991 0090 00BF     		nop
 992 0092 04B0     		add	sp, sp, #16
 993              		.cfi_def_cfa_offset 8
 994              		@ sp needed
 995 0094 10BD     		pop	{r4, pc}
 996              	.L61:
 997 0096 00BF     		.align	2
 998              	.L60:
 999 0098 00000000 		.word	ch
 1000 009c 00000000 		.word	__func__.7890
 1001 00a0 00000000 		.word	.LC0
 1002              		.cfi_endproc
 1003              	.LFE236:
 1004              		.size	chSchWakeupS, .-chSchWakeupS
 1005              		.section	.text.chSchRescheduleS,"ax",%progbits
 1006              		.align	1
 1007              		.p2align 4,,15
 1008              		.global	chSchRescheduleS
 1009              		.syntax unified
 1010              		.thumb
 1011              		.thumb_func
 1012              		.fpu fpv4-sp-d16
 1013              		.type	chSchRescheduleS, %function
 1014              	chSchRescheduleS:
 1015              	.LFB237:
 1016              		.loc 7 406 0
 1017              		.cfi_startproc
 1018              		@ args = 0, pretend = 0, frame = 0
 1019              		@ frame_needed = 0, uses_anonymous_args = 0
ARM GAS  /tmp/ccwmDzl4.s 			page 19


 1020 0000 08B5     		push	{r3, lr}
 1021              		.cfi_def_cfa_offset 8
 1022              		.cfi_offset 3, -8
 1023              		.cfi_offset 14, -4
 1024              		.loc 7 408 0
 1025 0002 FFF7FEFF 		bl	chDbgCheckClassS
 1026              		.loc 7 410 0
 1027 0006 FFF7FEFF 		bl	chSchIsRescRequiredI
 1028 000a 0346     		mov	r3, r0
 1029 000c 002B     		cmp	r3, #0
 1030 000e 01D0     		beq	.L64
 1031              		.loc 7 411 0
 1032 0010 FFF7FEFF 		bl	chSchDoRescheduleAhead
 1033              	.L64:
 1034              		.loc 7 413 0
 1035 0014 00BF     		nop
 1036 0016 08BD     		pop	{r3, pc}
 1037              		.cfi_endproc
 1038              	.LFE237:
 1039              		.size	chSchRescheduleS, .-chSchRescheduleS
 1040              		.section	.text.chSchIsPreemptionRequired,"ax",%progbits
 1041              		.align	1
 1042              		.p2align 4,,15
 1043              		.global	chSchIsPreemptionRequired
 1044              		.syntax unified
 1045              		.thumb
 1046              		.thumb_func
 1047              		.fpu fpv4-sp-d16
 1048              		.type	chSchIsPreemptionRequired, %function
 1049              	chSchIsPreemptionRequired:
 1050              	.LFB238:
 1051              		.loc 7 428 0
 1052              		.cfi_startproc
 1053              		@ args = 0, pretend = 0, frame = 8
 1054              		@ frame_needed = 0, uses_anonymous_args = 0
 1055              		@ link register save eliminated.
 1056 0000 82B0     		sub	sp, sp, #8
 1057              		.cfi_def_cfa_offset 8
 1058              		.loc 7 429 0
 1059 0002 094B     		ldr	r3, .L67
 1060 0004 1B68     		ldr	r3, [r3]
 1061 0006 9B68     		ldr	r3, [r3, #8]
 1062 0008 0193     		str	r3, [sp, #4]
 1063              		.loc 7 430 0
 1064 000a 074B     		ldr	r3, .L67
 1065 000c 9B69     		ldr	r3, [r3, #24]
 1066 000e 9B68     		ldr	r3, [r3, #8]
 1067 0010 0093     		str	r3, [sp]
 1068              		.loc 7 441 0
 1069 0012 019A     		ldr	r2, [sp, #4]
 1070 0014 009B     		ldr	r3, [sp]
 1071 0016 9A42     		cmp	r2, r3
 1072 0018 8CBF     		ite	hi
 1073 001a 0123     		movhi	r3, #1
 1074 001c 0023     		movls	r3, #0
 1075 001e DBB2     		uxtb	r3, r3
 1076              		.loc 7 443 0
ARM GAS  /tmp/ccwmDzl4.s 			page 20


 1077 0020 1846     		mov	r0, r3
 1078 0022 02B0     		add	sp, sp, #8
 1079              		.cfi_def_cfa_offset 0
 1080              		@ sp needed
 1081 0024 7047     		bx	lr
 1082              	.L68:
 1083 0026 00BF     		.align	2
 1084              	.L67:
 1085 0028 00000000 		.word	ch
 1086              		.cfi_endproc
 1087              	.LFE238:
 1088              		.size	chSchIsPreemptionRequired, .-chSchIsPreemptionRequired
 1089              		.section	.text.chSchDoRescheduleBehind,"ax",%progbits
 1090              		.align	1
 1091              		.p2align 4,,15
 1092              		.global	chSchDoRescheduleBehind
 1093              		.syntax unified
 1094              		.thumb
 1095              		.thumb_func
 1096              		.fpu fpv4-sp-d16
 1097              		.type	chSchDoRescheduleBehind, %function
 1098              	chSchDoRescheduleBehind:
 1099              	.LFB239:
 1100              		.loc 7 455 0
 1101              		.cfi_startproc
 1102              		@ args = 0, pretend = 0, frame = 8
 1103              		@ frame_needed = 0, uses_anonymous_args = 0
 1104 0000 10B5     		push	{r4, lr}
 1105              		.cfi_def_cfa_offset 8
 1106              		.cfi_offset 4, -8
 1107              		.cfi_offset 14, -4
 1108 0002 82B0     		sub	sp, sp, #8
 1109              		.cfi_def_cfa_offset 16
 1110              		.loc 7 458 0
 1111 0004 174B     		ldr	r3, .L72
 1112 0006 9B69     		ldr	r3, [r3, #24]
 1113 0008 0193     		str	r3, [sp, #4]
 1114              		.loc 7 460 0
 1115 000a 1648     		ldr	r0, .L72
 1116 000c FFF7FEFF 		bl	queue_fifo_remove
 1117 0010 0246     		mov	r2, r0
 1118 0012 144B     		ldr	r3, .L72
 1119 0014 9A61     		str	r2, [r3, #24]
 1120              		.loc 7 466 0
 1121 0016 134B     		ldr	r3, .L72
 1122 0018 9B69     		ldr	r3, [r3, #24]
 1123 001a 0122     		movs	r2, #1
 1124 001c 83F82020 		strb	r2, [r3, #32]
 1125              		.loc 7 470 0
 1126 0020 0198     		ldr	r0, [sp, #4]
 1127 0022 FFF7FEFF 		bl	chSchReadyI
 1128              		.loc 7 471 0
 1129 0026 0F4B     		ldr	r3, .L72
 1130 0028 9B69     		ldr	r3, [r3, #24]
 1131 002a 0199     		ldr	r1, [sp, #4]
 1132 002c 1846     		mov	r0, r3
 1133 002e FFF7FEFF 		bl	_stats_ctxswc
ARM GAS  /tmp/ccwmDzl4.s 			page 21


 1134              	.LBB31:
 1135              	.LBB32:
 1136              	.LBB33:
 1137              		.loc 2 430 0
 1138              		.syntax unified
 1139              	@ 430 "../ChibiOS/os/ext/CMSIS/include/core_cmFunc.h" 1
 1140 0032 EFF30983 		MRS r3, psp
 1141              	
 1142              	@ 0 "" 2
 1143              		.thumb
 1144              		.syntax unified
 1145 0036 1C46     		mov	r4, r3
 1146              		.loc 2 431 0
 1147 0038 2346     		mov	r3, r4
 1148              	.LBE33:
 1149              	.LBE32:
 1150              		.loc 7 471 0
 1151 003a 0093     		str	r3, [sp]
 1152 003c 009B     		ldr	r3, [sp]
 1153 003e A3F16402 		sub	r2, r3, #100
 1154 0042 019B     		ldr	r3, [sp, #4]
 1155 0044 DB69     		ldr	r3, [r3, #28]
 1156 0046 9A42     		cmp	r2, r3
 1157 0048 02D2     		bcs	.L71
 1158              		.loc 7 471 0 is_stmt 0 discriminator 1
 1159 004a 0748     		ldr	r0, .L72+4
 1160 004c FFF7FEFF 		bl	chSysHalt
 1161              	.L71:
 1162              		.loc 7 471 0 discriminator 3
 1163 0050 044B     		ldr	r3, .L72
 1164 0052 9B69     		ldr	r3, [r3, #24]
 1165 0054 0199     		ldr	r1, [sp, #4]
 1166 0056 1846     		mov	r0, r3
 1167 0058 FFF7FEFF 		bl	_port_switch
 1168              	.LBE31:
 1169              		.loc 7 472 0 is_stmt 1 discriminator 3
 1170 005c 00BF     		nop
 1171 005e 02B0     		add	sp, sp, #8
 1172              		.cfi_def_cfa_offset 8
 1173              		@ sp needed
 1174 0060 10BD     		pop	{r4, pc}
 1175              	.L73:
 1176 0062 00BF     		.align	2
 1177              	.L72:
 1178 0064 00000000 		.word	ch
 1179 0068 00000000 		.word	.LC0
 1180              		.cfi_endproc
 1181              	.LFE239:
 1182              		.size	chSchDoRescheduleBehind, .-chSchDoRescheduleBehind
 1183              		.section	.text.chSchDoRescheduleAhead,"ax",%progbits
 1184              		.align	1
 1185              		.p2align 4,,15
 1186              		.global	chSchDoRescheduleAhead
 1187              		.syntax unified
 1188              		.thumb
 1189              		.thumb_func
 1190              		.fpu fpv4-sp-d16
ARM GAS  /tmp/ccwmDzl4.s 			page 22


 1191              		.type	chSchDoRescheduleAhead, %function
 1192              	chSchDoRescheduleAhead:
 1193              	.LFB240:
 1194              		.loc 7 483 0
 1195              		.cfi_startproc
 1196              		@ args = 0, pretend = 0, frame = 16
 1197              		@ frame_needed = 0, uses_anonymous_args = 0
 1198 0000 10B5     		push	{r4, lr}
 1199              		.cfi_def_cfa_offset 8
 1200              		.cfi_offset 4, -8
 1201              		.cfi_offset 14, -4
 1202 0002 84B0     		sub	sp, sp, #16
 1203              		.cfi_def_cfa_offset 24
 1204              		.loc 7 486 0
 1205 0004 244B     		ldr	r3, .L78
 1206 0006 9B69     		ldr	r3, [r3, #24]
 1207 0008 0293     		str	r3, [sp, #8]
 1208              		.loc 7 488 0
 1209 000a 2348     		ldr	r0, .L78
 1210 000c FFF7FEFF 		bl	queue_fifo_remove
 1211 0010 0246     		mov	r2, r0
 1212 0012 214B     		ldr	r3, .L78
 1213 0014 9A61     		str	r2, [r3, #24]
 1214              		.loc 7 494 0
 1215 0016 204B     		ldr	r3, .L78
 1216 0018 9B69     		ldr	r3, [r3, #24]
 1217 001a 0122     		movs	r2, #1
 1218 001c 83F82020 		strb	r2, [r3, #32]
 1219              		.loc 7 496 0
 1220 0020 029B     		ldr	r3, [sp, #8]
 1221 0022 0022     		movs	r2, #0
 1222 0024 83F82020 		strb	r2, [r3, #32]
 1223              		.loc 7 497 0
 1224 0028 1B4B     		ldr	r3, .L78
 1225 002a 0393     		str	r3, [sp, #12]
 1226              	.L75:
 1227              		.loc 7 499 0 discriminator 1
 1228 002c 039B     		ldr	r3, [sp, #12]
 1229 002e 1B68     		ldr	r3, [r3]
 1230 0030 0393     		str	r3, [sp, #12]
 1231              		.loc 7 500 0 discriminator 1
 1232 0032 039B     		ldr	r3, [sp, #12]
 1233 0034 9A68     		ldr	r2, [r3, #8]
 1234 0036 029B     		ldr	r3, [sp, #8]
 1235 0038 9B68     		ldr	r3, [r3, #8]
 1236 003a 9A42     		cmp	r2, r3
 1237 003c F6D8     		bhi	.L75
 1238              		.loc 7 502 0
 1239 003e 029B     		ldr	r3, [sp, #8]
 1240 0040 039A     		ldr	r2, [sp, #12]
 1241 0042 1A60     		str	r2, [r3]
 1242              		.loc 7 503 0
 1243 0044 039B     		ldr	r3, [sp, #12]
 1244 0046 5A68     		ldr	r2, [r3, #4]
 1245 0048 029B     		ldr	r3, [sp, #8]
 1246 004a 5A60     		str	r2, [r3, #4]
 1247              		.loc 7 504 0
ARM GAS  /tmp/ccwmDzl4.s 			page 23


 1248 004c 029B     		ldr	r3, [sp, #8]
 1249 004e 5B68     		ldr	r3, [r3, #4]
 1250 0050 029A     		ldr	r2, [sp, #8]
 1251 0052 1A60     		str	r2, [r3]
 1252              		.loc 7 505 0
 1253 0054 039B     		ldr	r3, [sp, #12]
 1254 0056 029A     		ldr	r2, [sp, #8]
 1255 0058 5A60     		str	r2, [r3, #4]
 1256              		.loc 7 507 0
 1257 005a 0F4B     		ldr	r3, .L78
 1258 005c 9B69     		ldr	r3, [r3, #24]
 1259 005e 0299     		ldr	r1, [sp, #8]
 1260 0060 1846     		mov	r0, r3
 1261 0062 FFF7FEFF 		bl	_stats_ctxswc
 1262              	.LBB34:
 1263              	.LBB35:
 1264              	.LBB36:
 1265              		.loc 2 430 0
 1266              		.syntax unified
 1267              	@ 430 "../ChibiOS/os/ext/CMSIS/include/core_cmFunc.h" 1
 1268 0066 EFF30983 		MRS r3, psp
 1269              	
 1270              	@ 0 "" 2
 1271              		.thumb
 1272              		.syntax unified
 1273 006a 1C46     		mov	r4, r3
 1274              		.loc 2 431 0
 1275 006c 2346     		mov	r3, r4
 1276              	.LBE36:
 1277              	.LBE35:
 1278              		.loc 7 507 0
 1279 006e 0193     		str	r3, [sp, #4]
 1280 0070 019B     		ldr	r3, [sp, #4]
 1281 0072 A3F16402 		sub	r2, r3, #100
 1282 0076 029B     		ldr	r3, [sp, #8]
 1283 0078 DB69     		ldr	r3, [r3, #28]
 1284 007a 9A42     		cmp	r2, r3
 1285 007c 02D2     		bcs	.L77
 1286              		.loc 7 507 0 is_stmt 0 discriminator 1
 1287 007e 0748     		ldr	r0, .L78+4
 1288 0080 FFF7FEFF 		bl	chSysHalt
 1289              	.L77:
 1290              		.loc 7 507 0 discriminator 3
 1291 0084 044B     		ldr	r3, .L78
 1292 0086 9B69     		ldr	r3, [r3, #24]
 1293 0088 0299     		ldr	r1, [sp, #8]
 1294 008a 1846     		mov	r0, r3
 1295 008c FFF7FEFF 		bl	_port_switch
 1296              	.LBE34:
 1297              		.loc 7 508 0 is_stmt 1 discriminator 3
 1298 0090 00BF     		nop
 1299 0092 04B0     		add	sp, sp, #16
 1300              		.cfi_def_cfa_offset 8
 1301              		@ sp needed
 1302 0094 10BD     		pop	{r4, pc}
 1303              	.L79:
 1304 0096 00BF     		.align	2
ARM GAS  /tmp/ccwmDzl4.s 			page 24


 1305              	.L78:
 1306 0098 00000000 		.word	ch
 1307 009c 00000000 		.word	.LC0
 1308              		.cfi_endproc
 1309              	.LFE240:
 1310              		.size	chSchDoRescheduleAhead, .-chSchDoRescheduleAhead
 1311              		.section	.text.chSchDoReschedule,"ax",%progbits
 1312              		.align	1
 1313              		.p2align 4,,15
 1314              		.global	chSchDoReschedule
 1315              		.syntax unified
 1316              		.thumb
 1317              		.thumb_func
 1318              		.fpu fpv4-sp-d16
 1319              		.type	chSchDoReschedule, %function
 1320              	chSchDoReschedule:
 1321              	.LFB241:
 1322              		.loc 7 520 0
 1323              		.cfi_startproc
 1324              		@ args = 0, pretend = 0, frame = 0
 1325              		@ frame_needed = 0, uses_anonymous_args = 0
 1326 0000 08B5     		push	{r3, lr}
 1327              		.cfi_def_cfa_offset 8
 1328              		.cfi_offset 3, -8
 1329              		.cfi_offset 14, -4
 1330              		.loc 7 538 0
 1331 0002 FFF7FEFF 		bl	chSchDoRescheduleAhead
 1332              		.loc 7 540 0
 1333 0006 00BF     		nop
 1334 0008 08BD     		pop	{r3, pc}
 1335              		.cfi_endproc
 1336              	.LFE241:
 1337              		.size	chSchDoReschedule, .-chSchDoReschedule
 1338 000a 00BF     		.section	.rodata.__func__.7862,"a",%progbits
 1339              		.align	2
 1340              		.type	__func__.7862, %object
 1341              		.size	__func__.7862, 12
 1342              	__func__.7862:
 1343 0000 63685363 		.ascii	"chSchReadyI\000"
 1343      68526561 
 1343      64794900 
 1344              		.section	.rodata.__func__.7890,"a",%progbits
 1345              		.align	2
 1346              		.type	__func__.7890, %object
 1347              		.size	__func__.7890, 13
 1348              	__func__.7890:
 1349 0000 63685363 		.ascii	"chSchWakeupS\000"
 1349      6857616B 
 1349      65757053 
 1349      00
 1350              		.text
 1351              	.Letext0:
 1352              		.file 8 "/usr/lib/gcc/arm-none-eabi/6.3.1/include/stddef.h"
 1353              		.file 9 "/usr/arm-none-eabi/include/machine/_default_types.h"
 1354              		.file 10 "/usr/arm-none-eabi/include/sys/_stdint.h"
 1355              		.file 11 "../ChibiOS/os/rt/ports/ARMCMx/compilers/GCC/chtypes.h"
 1356              		.file 12 "../ChibiOS/os/rt/include/chsystypes.h"
ARM GAS  /tmp/ccwmDzl4.s 			page 25


 1357              		.file 13 "../ChibiOS/os/ext/CMSIS/include/core_cm4.h"
 1358              		.file 14 "../ChibiOS/os/ext/CMSIS/ST/STM32F4xx/system_stm32f4xx.h"
 1359              		.file 15 "../ChibiOS/os/rt/ports/ARMCMx/chcore.h"
 1360              		.file 16 "../ChibiOS/os/rt/include/chtm.h"
 1361              		.file 17 "../ChibiOS/os/rt/include/chstats.h"
 1362              		.file 18 "../ChibiOS/os/rt/include/chmtx.h"
 1363              		.file 19 "../ChibiOS/os/rt/include/chregistry.h"