ARM GAS  /tmp/ccYYPMwG.s 			page 1


   1              		.cpu cortex-m4
   2              		.eabi_attribute 27, 1
   3              		.eabi_attribute 28, 1
   4              		.eabi_attribute 20, 1
   5              		.eabi_attribute 21, 1
   6              		.eabi_attribute 23, 3
   7              		.eabi_attribute 24, 1
   8              		.eabi_attribute 25, 1
   9              		.eabi_attribute 26, 1
  10              		.eabi_attribute 30, 6
  11              		.eabi_attribute 34, 1
  12              		.eabi_attribute 18, 4
  13              		.file	"chsem.c"
  14              		.text
  15              	.Ltext0:
  16              		.cfi_sections	.debug_frame
  17              		.section	.text.port_lock,"ax",%progbits
  18              		.align	1
  19              		.p2align 4,,15
  20              		.syntax unified
  21              		.thumb
  22              		.thumb_func
  23              		.fpu fpv4-sp-d16
  24              		.type	port_lock, %function
  25              	port_lock:
  26              	.LFB127:
  27              		.file 1 "../ChibiOS/os/rt/ports/ARMCMx/chcore_v7m.h"
  28              		.loc 1 456 0
  29              		.cfi_startproc
  30              		@ args = 0, pretend = 0, frame = 8
  31              		@ frame_needed = 0, uses_anonymous_args = 0
  32              		@ link register save eliminated.
  33 0000 82B0     		sub	sp, sp, #8
  34              		.cfi_def_cfa_offset 8
  35 0002 2023     		movs	r3, #32
  36 0004 0193     		str	r3, [sp, #4]
  37              	.LBB6:
  38              	.LBB7:
  39              		.file 2 "../ChibiOS/os/ext/CMSIS/include/core_cmFunc.h"
  40              		.loc 2 548 0
  41 0006 019B     		ldr	r3, [sp, #4]
  42              		.syntax unified
  43              	@ 548 "../ChibiOS/os/ext/CMSIS/include/core_cmFunc.h" 1
  44 0008 83F31188 		MSR basepri, r3
  45              	@ 0 "" 2
  46              		.thumb
  47              		.syntax unified
  48              	.LBE7:
  49              	.LBE6:
  50              		.loc 1 473 0
  51 000c 00BF     		nop
  52 000e 02B0     		add	sp, sp, #8
  53              		.cfi_def_cfa_offset 0
  54              		@ sp needed
  55 0010 7047     		bx	lr
  56              		.cfi_endproc
  57              	.LFE127:
ARM GAS  /tmp/ccYYPMwG.s 			page 2


  58              		.size	port_lock, .-port_lock
  59 0012 00BF     		.section	.text.port_unlock,"ax",%progbits
  60              		.align	1
  61              		.p2align 4,,15
  62              		.syntax unified
  63              		.thumb
  64              		.thumb_func
  65              		.fpu fpv4-sp-d16
  66              		.type	port_unlock, %function
  67              	port_unlock:
  68              	.LFB128:
  69              		.loc 1 480 0
  70              		.cfi_startproc
  71              		@ args = 0, pretend = 0, frame = 8
  72              		@ frame_needed = 0, uses_anonymous_args = 0
  73              		@ link register save eliminated.
  74 0000 82B0     		sub	sp, sp, #8
  75              		.cfi_def_cfa_offset 8
  76 0002 0023     		movs	r3, #0
  77 0004 0193     		str	r3, [sp, #4]
  78              	.LBB8:
  79              	.LBB9:
  80              		.loc 2 548 0
  81 0006 019B     		ldr	r3, [sp, #4]
  82              		.syntax unified
  83              	@ 548 "../ChibiOS/os/ext/CMSIS/include/core_cmFunc.h" 1
  84 0008 83F31188 		MSR basepri, r3
  85              	@ 0 "" 2
  86              		.thumb
  87              		.syntax unified
  88              	.LBE9:
  89              	.LBE8:
  90              		.loc 1 487 0
  91 000c 00BF     		nop
  92 000e 02B0     		add	sp, sp, #8
  93              		.cfi_def_cfa_offset 0
  94              		@ sp needed
  95 0010 7047     		bx	lr
  96              		.cfi_endproc
  97              	.LFE128:
  98              		.size	port_unlock, .-port_unlock
  99 0012 00BF     		.section	.text.queue_init,"ax",%progbits
 100              		.align	1
 101              		.p2align 4,,15
 102              		.syntax unified
 103              		.thumb
 104              		.thumb_func
 105              		.fpu fpv4-sp-d16
 106              		.type	queue_init, %function
 107              	queue_init:
 108              	.LFB139:
 109              		.file 3 "../ChibiOS/os/rt/include/chschd.h"
 110              		.loc 3 602 0
 111              		.cfi_startproc
 112              		@ args = 0, pretend = 0, frame = 8
 113              		@ frame_needed = 0, uses_anonymous_args = 0
 114              		@ link register save eliminated.
ARM GAS  /tmp/ccYYPMwG.s 			page 3


 115 0000 82B0     		sub	sp, sp, #8
 116              		.cfi_def_cfa_offset 8
 117 0002 0190     		str	r0, [sp, #4]
 118              		.loc 3 604 0
 119 0004 019B     		ldr	r3, [sp, #4]
 120 0006 019A     		ldr	r2, [sp, #4]
 121 0008 1A60     		str	r2, [r3]
 122              		.loc 3 605 0
 123 000a 019B     		ldr	r3, [sp, #4]
 124 000c 019A     		ldr	r2, [sp, #4]
 125 000e 5A60     		str	r2, [r3, #4]
 126              		.loc 3 606 0
 127 0010 00BF     		nop
 128 0012 02B0     		add	sp, sp, #8
 129              		.cfi_def_cfa_offset 0
 130              		@ sp needed
 131 0014 7047     		bx	lr
 132              		.cfi_endproc
 133              	.LFE139:
 134              		.size	queue_init, .-queue_init
 135              		.section	.text.queue_isempty,"ax",%progbits
 136              		.align	1
 137              		.p2align 4,,15
 138              		.syntax unified
 139              		.thumb
 140              		.thumb_func
 141              		.fpu fpv4-sp-d16
 142              		.type	queue_isempty, %function
 143              	queue_isempty:
 144              	.LFB140:
 145              		.loc 3 616 0
 146              		.cfi_startproc
 147              		@ args = 0, pretend = 0, frame = 8
 148              		@ frame_needed = 0, uses_anonymous_args = 0
 149              		@ link register save eliminated.
 150 0000 82B0     		sub	sp, sp, #8
 151              		.cfi_def_cfa_offset 8
 152 0002 0190     		str	r0, [sp, #4]
 153              		.loc 3 618 0
 154 0004 019B     		ldr	r3, [sp, #4]
 155 0006 1A68     		ldr	r2, [r3]
 156 0008 019B     		ldr	r3, [sp, #4]
 157 000a 9A42     		cmp	r2, r3
 158 000c 0CBF     		ite	eq
 159 000e 0123     		moveq	r3, #1
 160 0010 0023     		movne	r3, #0
 161 0012 DBB2     		uxtb	r3, r3
 162              		.loc 3 619 0
 163 0014 1846     		mov	r0, r3
 164 0016 02B0     		add	sp, sp, #8
 165              		.cfi_def_cfa_offset 0
 166              		@ sp needed
 167 0018 7047     		bx	lr
 168              		.cfi_endproc
 169              	.LFE140:
 170              		.size	queue_isempty, .-queue_isempty
 171 001a 00BF     		.section	.text.queue_notempty,"ax",%progbits
ARM GAS  /tmp/ccYYPMwG.s 			page 4


 172              		.align	1
 173              		.p2align 4,,15
 174              		.syntax unified
 175              		.thumb
 176              		.thumb_func
 177              		.fpu fpv4-sp-d16
 178              		.type	queue_notempty, %function
 179              	queue_notempty:
 180              	.LFB141:
 181              		.loc 3 629 0
 182              		.cfi_startproc
 183              		@ args = 0, pretend = 0, frame = 8
 184              		@ frame_needed = 0, uses_anonymous_args = 0
 185              		@ link register save eliminated.
 186 0000 82B0     		sub	sp, sp, #8
 187              		.cfi_def_cfa_offset 8
 188 0002 0190     		str	r0, [sp, #4]
 189              		.loc 3 631 0
 190 0004 019B     		ldr	r3, [sp, #4]
 191 0006 1A68     		ldr	r2, [r3]
 192 0008 019B     		ldr	r3, [sp, #4]
 193 000a 9A42     		cmp	r2, r3
 194 000c 14BF     		ite	ne
 195 000e 0123     		movne	r3, #1
 196 0010 0023     		moveq	r3, #0
 197 0012 DBB2     		uxtb	r3, r3
 198              		.loc 3 632 0
 199 0014 1846     		mov	r0, r3
 200 0016 02B0     		add	sp, sp, #8
 201              		.cfi_def_cfa_offset 0
 202              		@ sp needed
 203 0018 7047     		bx	lr
 204              		.cfi_endproc
 205              	.LFE141:
 206              		.size	queue_notempty, .-queue_notempty
 207 001a 00BF     		.section	.text.queue_insert,"ax",%progbits
 208              		.align	1
 209              		.p2align 4,,15
 210              		.syntax unified
 211              		.thumb
 212              		.thumb_func
 213              		.fpu fpv4-sp-d16
 214              		.type	queue_insert, %function
 215              	queue_insert:
 216              	.LFB145:
 217              		.loc 3 663 0
 218              		.cfi_startproc
 219              		@ args = 0, pretend = 0, frame = 8
 220              		@ frame_needed = 0, uses_anonymous_args = 0
 221              		@ link register save eliminated.
 222 0000 82B0     		sub	sp, sp, #8
 223              		.cfi_def_cfa_offset 8
 224 0002 0190     		str	r0, [sp, #4]
 225 0004 0091     		str	r1, [sp]
 226              		.loc 3 665 0
 227 0006 019B     		ldr	r3, [sp, #4]
 228 0008 009A     		ldr	r2, [sp]
ARM GAS  /tmp/ccYYPMwG.s 			page 5


 229 000a 1A60     		str	r2, [r3]
 230              		.loc 3 666 0
 231 000c 009B     		ldr	r3, [sp]
 232 000e 5A68     		ldr	r2, [r3, #4]
 233 0010 019B     		ldr	r3, [sp, #4]
 234 0012 5A60     		str	r2, [r3, #4]
 235              		.loc 3 667 0
 236 0014 019B     		ldr	r3, [sp, #4]
 237 0016 5B68     		ldr	r3, [r3, #4]
 238 0018 019A     		ldr	r2, [sp, #4]
 239 001a 1A60     		str	r2, [r3]
 240              		.loc 3 668 0
 241 001c 009B     		ldr	r3, [sp]
 242 001e 019A     		ldr	r2, [sp, #4]
 243 0020 5A60     		str	r2, [r3, #4]
 244              		.loc 3 669 0
 245 0022 00BF     		nop
 246 0024 02B0     		add	sp, sp, #8
 247              		.cfi_def_cfa_offset 0
 248              		@ sp needed
 249 0026 7047     		bx	lr
 250              		.cfi_endproc
 251              	.LFE145:
 252              		.size	queue_insert, .-queue_insert
 253              		.section	.text.queue_fifo_remove,"ax",%progbits
 254              		.align	1
 255              		.p2align 4,,15
 256              		.syntax unified
 257              		.thumb
 258              		.thumb_func
 259              		.fpu fpv4-sp-d16
 260              		.type	queue_fifo_remove, %function
 261              	queue_fifo_remove:
 262              	.LFB146:
 263              		.loc 3 671 0
 264              		.cfi_startproc
 265              		@ args = 0, pretend = 0, frame = 16
 266              		@ frame_needed = 0, uses_anonymous_args = 0
 267              		@ link register save eliminated.
 268 0000 84B0     		sub	sp, sp, #16
 269              		.cfi_def_cfa_offset 16
 270 0002 0190     		str	r0, [sp, #4]
 271              		.loc 3 672 0
 272 0004 019B     		ldr	r3, [sp, #4]
 273 0006 1B68     		ldr	r3, [r3]
 274 0008 0393     		str	r3, [sp, #12]
 275              		.loc 3 674 0
 276 000a 039B     		ldr	r3, [sp, #12]
 277 000c 1A68     		ldr	r2, [r3]
 278 000e 019B     		ldr	r3, [sp, #4]
 279 0010 1A60     		str	r2, [r3]
 280              		.loc 3 675 0
 281 0012 019B     		ldr	r3, [sp, #4]
 282 0014 1B68     		ldr	r3, [r3]
 283 0016 019A     		ldr	r2, [sp, #4]
 284 0018 5A60     		str	r2, [r3, #4]
 285              		.loc 3 677 0
ARM GAS  /tmp/ccYYPMwG.s 			page 6


 286 001a 039B     		ldr	r3, [sp, #12]
 287              		.loc 3 678 0
 288 001c 1846     		mov	r0, r3
 289 001e 04B0     		add	sp, sp, #16
 290              		.cfi_def_cfa_offset 0
 291              		@ sp needed
 292 0020 7047     		bx	lr
 293              		.cfi_endproc
 294              	.LFE146:
 295              		.size	queue_fifo_remove, .-queue_fifo_remove
 296 0022 00BF     		.section	.text.queue_lifo_remove,"ax",%progbits
 297              		.align	1
 298              		.p2align 4,,15
 299              		.syntax unified
 300              		.thumb
 301              		.thumb_func
 302              		.fpu fpv4-sp-d16
 303              		.type	queue_lifo_remove, %function
 304              	queue_lifo_remove:
 305              	.LFB147:
 306              		.loc 3 680 0
 307              		.cfi_startproc
 308              		@ args = 0, pretend = 0, frame = 16
 309              		@ frame_needed = 0, uses_anonymous_args = 0
 310              		@ link register save eliminated.
 311 0000 84B0     		sub	sp, sp, #16
 312              		.cfi_def_cfa_offset 16
 313 0002 0190     		str	r0, [sp, #4]
 314              		.loc 3 681 0
 315 0004 019B     		ldr	r3, [sp, #4]
 316 0006 5B68     		ldr	r3, [r3, #4]
 317 0008 0393     		str	r3, [sp, #12]
 318              		.loc 3 683 0
 319 000a 039B     		ldr	r3, [sp, #12]
 320 000c 5A68     		ldr	r2, [r3, #4]
 321 000e 019B     		ldr	r3, [sp, #4]
 322 0010 5A60     		str	r2, [r3, #4]
 323              		.loc 3 684 0
 324 0012 019B     		ldr	r3, [sp, #4]
 325 0014 5B68     		ldr	r3, [r3, #4]
 326 0016 019A     		ldr	r2, [sp, #4]
 327 0018 1A60     		str	r2, [r3]
 328              		.loc 3 686 0
 329 001a 039B     		ldr	r3, [sp, #12]
 330              		.loc 3 687 0
 331 001c 1846     		mov	r0, r3
 332 001e 04B0     		add	sp, sp, #16
 333              		.cfi_def_cfa_offset 0
 334              		@ sp needed
 335 0020 7047     		bx	lr
 336              		.cfi_endproc
 337              	.LFE147:
 338              		.size	queue_lifo_remove, .-queue_lifo_remove
 339 0022 00BF     		.section	.text.chSysLock,"ax",%progbits
 340              		.align	1
 341              		.p2align 4,,15
 342              		.syntax unified
ARM GAS  /tmp/ccYYPMwG.s 			page 7


 343              		.thumb
 344              		.thumb_func
 345              		.fpu fpv4-sp-d16
 346              		.type	chSysLock, %function
 347              	chSysLock:
 348              	.LFB156:
 349              		.file 4 "../ChibiOS/os/rt/include/chsys.h"
 350              		.loc 4 346 0
 351              		.cfi_startproc
 352              		@ args = 0, pretend = 0, frame = 0
 353              		@ frame_needed = 0, uses_anonymous_args = 0
 354 0000 08B5     		push	{r3, lr}
 355              		.cfi_def_cfa_offset 8
 356              		.cfi_offset 3, -8
 357              		.cfi_offset 14, -4
 358              		.loc 4 348 0
 359 0002 FFF7FEFF 		bl	port_lock
 360              		.loc 4 349 0
 361 0006 FFF7FEFF 		bl	_stats_start_measure_crit_thd
 362              		.loc 4 350 0
 363 000a FFF7FEFF 		bl	_dbg_check_lock
 364              		.loc 4 351 0
 365 000e 00BF     		nop
 366 0010 08BD     		pop	{r3, pc}
 367              		.cfi_endproc
 368              	.LFE156:
 369              		.size	chSysLock, .-chSysLock
 370 0012 00BF     		.section	.text.chSysUnlock,"ax",%progbits
 371              		.align	1
 372              		.p2align 4,,15
 373              		.syntax unified
 374              		.thumb
 375              		.thumb_func
 376              		.fpu fpv4-sp-d16
 377              		.type	chSysUnlock, %function
 378              	chSysUnlock:
 379              	.LFB157:
 380              		.loc 4 358 0
 381              		.cfi_startproc
 382              		@ args = 0, pretend = 0, frame = 0
 383              		@ frame_needed = 0, uses_anonymous_args = 0
 384 0000 08B5     		push	{r3, lr}
 385              		.cfi_def_cfa_offset 8
 386              		.cfi_offset 3, -8
 387              		.cfi_offset 14, -4
 388              		.loc 4 360 0
 389 0002 FFF7FEFF 		bl	_dbg_check_unlock
 390              		.loc 4 361 0
 391 0006 FFF7FEFF 		bl	_stats_stop_measure_crit_thd
 392              		.loc 4 367 0
 393 000a 0A4B     		ldr	r3, .L16
 394 000c 1B68     		ldr	r3, [r3]
 395 000e 094A     		ldr	r2, .L16
 396 0010 9342     		cmp	r3, r2
 397 0012 0AD0     		beq	.L15
 398              		.loc 4 367 0 is_stmt 0 discriminator 2
 399 0014 074B     		ldr	r3, .L16
ARM GAS  /tmp/ccYYPMwG.s 			page 8


 400 0016 9B69     		ldr	r3, [r3, #24]
 401 0018 9A68     		ldr	r2, [r3, #8]
 402 001a 064B     		ldr	r3, .L16
 403 001c 1B68     		ldr	r3, [r3]
 404 001e 9B68     		ldr	r3, [r3, #8]
 405 0020 9A42     		cmp	r2, r3
 406 0022 02D2     		bcs	.L15
 407              		.loc 4 367 0 discriminator 3
 408 0024 0448     		ldr	r0, .L16+4
 409 0026 FFF7FEFF 		bl	chSysHalt
 410              	.L15:
 411              		.loc 4 371 0 is_stmt 1
 412 002a FFF7FEFF 		bl	port_unlock
 413              		.loc 4 372 0
 414 002e 00BF     		nop
 415 0030 08BD     		pop	{r3, pc}
 416              	.L17:
 417 0032 00BF     		.align	2
 418              	.L16:
 419 0034 00000000 		.word	ch
 420 0038 00000000 		.word	__func__.7157
 421              		.cfi_endproc
 422              	.LFE157:
 423              		.size	chSysUnlock, .-chSysUnlock
 424              		.section	.text.chSemObjectInit,"ax",%progbits
 425              		.align	1
 426              		.p2align 4,,15
 427              		.global	chSemObjectInit
 428              		.syntax unified
 429              		.thumb
 430              		.thumb_func
 431              		.fpu fpv4-sp-d16
 432              		.type	chSemObjectInit, %function
 433              	chSemObjectInit:
 434              	.LFB231:
 435              		.file 5 "../ChibiOS/os/rt/src/chsem.c"
 436              		.loc 5 97 0
 437              		.cfi_startproc
 438              		@ args = 0, pretend = 0, frame = 8
 439              		@ frame_needed = 0, uses_anonymous_args = 0
 440 0000 00B5     		push	{lr}
 441              		.cfi_def_cfa_offset 4
 442              		.cfi_offset 14, -4
 443 0002 83B0     		sub	sp, sp, #12
 444              		.cfi_def_cfa_offset 16
 445 0004 0190     		str	r0, [sp, #4]
 446 0006 0091     		str	r1, [sp]
 447              		.loc 5 99 0
 448 0008 019B     		ldr	r3, [sp, #4]
 449 000a 002B     		cmp	r3, #0
 450 000c 02D0     		beq	.L19
 451              		.loc 5 99 0 is_stmt 0 discriminator 3
 452 000e 009B     		ldr	r3, [sp]
 453 0010 002B     		cmp	r3, #0
 454 0012 02DA     		bge	.L20
 455              	.L19:
 456              		.loc 5 99 0 discriminator 4
ARM GAS  /tmp/ccYYPMwG.s 			page 9


 457 0014 0648     		ldr	r0, .L21
 458 0016 FFF7FEFF 		bl	chSysHalt
 459              	.L20:
 460              		.loc 5 101 0 is_stmt 1
 461 001a 019B     		ldr	r3, [sp, #4]
 462 001c 1846     		mov	r0, r3
 463 001e FFF7FEFF 		bl	queue_init
 464              		.loc 5 102 0
 465 0022 019B     		ldr	r3, [sp, #4]
 466 0024 009A     		ldr	r2, [sp]
 467 0026 9A60     		str	r2, [r3, #8]
 468              		.loc 5 103 0
 469 0028 00BF     		nop
 470 002a 03B0     		add	sp, sp, #12
 471              		.cfi_def_cfa_offset 4
 472              		@ sp needed
 473 002c 5DF804FB 		ldr	pc, [sp], #4
 474              	.L22:
 475              		.align	2
 476              	.L21:
 477 0030 00000000 		.word	__func__.7858
 478              		.cfi_endproc
 479              	.LFE231:
 480              		.size	chSemObjectInit, .-chSemObjectInit
 481              		.section	.text.chSemReset,"ax",%progbits
 482              		.align	1
 483              		.p2align 4,,15
 484              		.global	chSemReset
 485              		.syntax unified
 486              		.thumb
 487              		.thumb_func
 488              		.fpu fpv4-sp-d16
 489              		.type	chSemReset, %function
 490              	chSemReset:
 491              	.LFB232:
 492              		.loc 5 120 0
 493              		.cfi_startproc
 494              		@ args = 0, pretend = 0, frame = 8
 495              		@ frame_needed = 0, uses_anonymous_args = 0
 496 0000 00B5     		push	{lr}
 497              		.cfi_def_cfa_offset 4
 498              		.cfi_offset 14, -4
 499 0002 83B0     		sub	sp, sp, #12
 500              		.cfi_def_cfa_offset 16
 501 0004 0190     		str	r0, [sp, #4]
 502 0006 0091     		str	r1, [sp]
 503              		.loc 5 122 0
 504 0008 FFF7FEFF 		bl	chSysLock
 505              		.loc 5 123 0
 506 000c 0099     		ldr	r1, [sp]
 507 000e 0198     		ldr	r0, [sp, #4]
 508 0010 FFF7FEFF 		bl	chSemResetI
 509              		.loc 5 124 0
 510 0014 FFF7FEFF 		bl	chSchRescheduleS
 511              		.loc 5 125 0
 512 0018 FFF7FEFF 		bl	chSysUnlock
 513              		.loc 5 126 0
ARM GAS  /tmp/ccYYPMwG.s 			page 10


 514 001c 00BF     		nop
 515 001e 03B0     		add	sp, sp, #12
 516              		.cfi_def_cfa_offset 4
 517              		@ sp needed
 518 0020 5DF804FB 		ldr	pc, [sp], #4
 519              		.cfi_endproc
 520              	.LFE232:
 521              		.size	chSemReset, .-chSemReset
 522              		.section	.text.chSemResetI,"ax",%progbits
 523              		.align	1
 524              		.p2align 4,,15
 525              		.global	chSemResetI
 526              		.syntax unified
 527              		.thumb
 528              		.thumb_func
 529              		.fpu fpv4-sp-d16
 530              		.type	chSemResetI, %function
 531              	chSemResetI:
 532              	.LFB233:
 533              		.loc 5 147 0
 534              		.cfi_startproc
 535              		@ args = 0, pretend = 0, frame = 16
 536              		@ frame_needed = 0, uses_anonymous_args = 0
 537 0000 00B5     		push	{lr}
 538              		.cfi_def_cfa_offset 4
 539              		.cfi_offset 14, -4
 540 0002 85B0     		sub	sp, sp, #20
 541              		.cfi_def_cfa_offset 24
 542 0004 0190     		str	r0, [sp, #4]
 543 0006 0091     		str	r1, [sp]
 544              		.loc 5 150 0
 545 0008 FFF7FEFF 		bl	chDbgCheckClassI
 546              		.loc 5 151 0
 547 000c 019B     		ldr	r3, [sp, #4]
 548 000e 002B     		cmp	r3, #0
 549 0010 02D0     		beq	.L25
 550              		.loc 5 151 0 is_stmt 0 discriminator 3
 551 0012 009B     		ldr	r3, [sp]
 552 0014 002B     		cmp	r3, #0
 553 0016 02DA     		bge	.L32
 554              	.L25:
 555              		.loc 5 151 0 discriminator 4
 556 0018 1F48     		ldr	r0, .L33
 557 001a FFF7FEFF 		bl	chSysHalt
 558              	.L32:
 559              		.loc 5 152 0 is_stmt 1 discriminator 1
 560 001e 019B     		ldr	r3, [sp, #4]
 561 0020 9B68     		ldr	r3, [r3, #8]
 562 0022 002B     		cmp	r3, #0
 563 0024 09DB     		blt	.L27
 564              		.loc 5 152 0 is_stmt 0 discriminator 3
 565 0026 019B     		ldr	r3, [sp, #4]
 566 0028 1846     		mov	r0, r3
 567 002a FFF7FEFF 		bl	queue_isempty
 568 002e 0346     		mov	r3, r0
 569 0030 83F00103 		eor	r3, r3, #1
 570 0034 DBB2     		uxtb	r3, r3
ARM GAS  /tmp/ccYYPMwG.s 			page 11


 571 0036 002B     		cmp	r3, #0
 572 0038 10D0     		beq	.L28
 573              	.L27:
 574              		.loc 5 152 0 discriminator 4
 575 003a 019B     		ldr	r3, [sp, #4]
 576 003c 9B68     		ldr	r3, [r3, #8]
 577 003e 002B     		cmp	r3, #0
 578 0040 09DA     		bge	.L29
 579              		.loc 5 152 0 discriminator 6
 580 0042 019B     		ldr	r3, [sp, #4]
 581 0044 1846     		mov	r0, r3
 582 0046 FFF7FEFF 		bl	queue_notempty
 583 004a 0346     		mov	r3, r0
 584 004c 83F00103 		eor	r3, r3, #1
 585 0050 DBB2     		uxtb	r3, r3
 586 0052 002B     		cmp	r3, #0
 587 0054 02D0     		beq	.L28
 588              	.L29:
 589              		.loc 5 152 0 discriminator 7
 590 0056 1048     		ldr	r0, .L33
 591 0058 FFF7FEFF 		bl	chSysHalt
 592              	.L28:
 593              		.loc 5 156 0 is_stmt 1
 594 005c 019B     		ldr	r3, [sp, #4]
 595 005e 9B68     		ldr	r3, [r3, #8]
 596 0060 0393     		str	r3, [sp, #12]
 597              		.loc 5 157 0
 598 0062 019B     		ldr	r3, [sp, #4]
 599 0064 009A     		ldr	r2, [sp]
 600 0066 9A60     		str	r2, [r3, #8]
 601              		.loc 5 158 0
 602 0068 0BE0     		b	.L30
 603              	.L31:
 604              		.loc 5 159 0
 605 006a 019B     		ldr	r3, [sp, #4]
 606 006c 1846     		mov	r0, r3
 607 006e FFF7FEFF 		bl	queue_lifo_remove
 608 0072 0346     		mov	r3, r0
 609 0074 1846     		mov	r0, r3
 610 0076 FFF7FEFF 		bl	chSchReadyI
 611 007a 0246     		mov	r2, r0
 612 007c 6FF00103 		mvn	r3, #1
 613 0080 5362     		str	r3, [r2, #36]
 614              	.L30:
 615              		.loc 5 158 0
 616 0082 039B     		ldr	r3, [sp, #12]
 617 0084 0133     		adds	r3, r3, #1
 618 0086 0393     		str	r3, [sp, #12]
 619 0088 039B     		ldr	r3, [sp, #12]
 620 008a 002B     		cmp	r3, #0
 621 008c EDDD     		ble	.L31
 622              		.loc 5 161 0
 623 008e 00BF     		nop
 624 0090 05B0     		add	sp, sp, #20
 625              		.cfi_def_cfa_offset 4
 626              		@ sp needed
 627 0092 5DF804FB 		ldr	pc, [sp], #4
ARM GAS  /tmp/ccYYPMwG.s 			page 12


 628              	.L34:
 629 0096 00BF     		.align	2
 630              	.L33:
 631 0098 00000000 		.word	__func__.7868
 632              		.cfi_endproc
 633              	.LFE233:
 634              		.size	chSemResetI, .-chSemResetI
 635              		.section	.text.chSemWait,"ax",%progbits
 636              		.align	1
 637              		.p2align 4,,15
 638              		.global	chSemWait
 639              		.syntax unified
 640              		.thumb
 641              		.thumb_func
 642              		.fpu fpv4-sp-d16
 643              		.type	chSemWait, %function
 644              	chSemWait:
 645              	.LFB234:
 646              		.loc 5 175 0
 647              		.cfi_startproc
 648              		@ args = 0, pretend = 0, frame = 16
 649              		@ frame_needed = 0, uses_anonymous_args = 0
 650 0000 00B5     		push	{lr}
 651              		.cfi_def_cfa_offset 4
 652              		.cfi_offset 14, -4
 653 0002 85B0     		sub	sp, sp, #20
 654              		.cfi_def_cfa_offset 24
 655 0004 0190     		str	r0, [sp, #4]
 656              		.loc 5 178 0
 657 0006 FFF7FEFF 		bl	chSysLock
 658              		.loc 5 179 0
 659 000a 0198     		ldr	r0, [sp, #4]
 660 000c FFF7FEFF 		bl	chSemWaitS
 661 0010 0390     		str	r0, [sp, #12]
 662              		.loc 5 180 0
 663 0012 FFF7FEFF 		bl	chSysUnlock
 664              		.loc 5 182 0
 665 0016 039B     		ldr	r3, [sp, #12]
 666              		.loc 5 183 0
 667 0018 1846     		mov	r0, r3
 668 001a 05B0     		add	sp, sp, #20
 669              		.cfi_def_cfa_offset 4
 670              		@ sp needed
 671 001c 5DF804FB 		ldr	pc, [sp], #4
 672              		.cfi_endproc
 673              	.LFE234:
 674              		.size	chSemWait, .-chSemWait
 675              		.section	.text.chSemWaitS,"ax",%progbits
 676              		.align	1
 677              		.p2align 4,,15
 678              		.global	chSemWaitS
 679              		.syntax unified
 680              		.thumb
 681              		.thumb_func
 682              		.fpu fpv4-sp-d16
 683              		.type	chSemWaitS, %function
 684              	chSemWaitS:
ARM GAS  /tmp/ccYYPMwG.s 			page 13


 685              	.LFB235:
 686              		.loc 5 197 0
 687              		.cfi_startproc
 688              		@ args = 0, pretend = 0, frame = 8
 689              		@ frame_needed = 0, uses_anonymous_args = 0
 690 0000 00B5     		push	{lr}
 691              		.cfi_def_cfa_offset 4
 692              		.cfi_offset 14, -4
 693 0002 83B0     		sub	sp, sp, #12
 694              		.cfi_def_cfa_offset 16
 695 0004 0190     		str	r0, [sp, #4]
 696              		.loc 5 199 0
 697 0006 FFF7FEFF 		bl	chDbgCheckClassS
 698              		.loc 5 200 0
 699 000a 019B     		ldr	r3, [sp, #4]
 700 000c 002B     		cmp	r3, #0
 701 000e 02D1     		bne	.L44
 702              		.loc 5 200 0 is_stmt 0 discriminator 2
 703 0010 2048     		ldr	r0, .L45
 704 0012 FFF7FEFF 		bl	chSysHalt
 705              	.L44:
 706              		.loc 5 201 0 is_stmt 1 discriminator 1
 707 0016 019B     		ldr	r3, [sp, #4]
 708 0018 9B68     		ldr	r3, [r3, #8]
 709 001a 002B     		cmp	r3, #0
 710 001c 09DB     		blt	.L39
 711              		.loc 5 201 0 is_stmt 0 discriminator 3
 712 001e 019B     		ldr	r3, [sp, #4]
 713 0020 1846     		mov	r0, r3
 714 0022 FFF7FEFF 		bl	queue_isempty
 715 0026 0346     		mov	r3, r0
 716 0028 83F00103 		eor	r3, r3, #1
 717 002c DBB2     		uxtb	r3, r3
 718 002e 002B     		cmp	r3, #0
 719 0030 10D0     		beq	.L40
 720              	.L39:
 721              		.loc 5 201 0 discriminator 4
 722 0032 019B     		ldr	r3, [sp, #4]
 723 0034 9B68     		ldr	r3, [r3, #8]
 724 0036 002B     		cmp	r3, #0
 725 0038 09DA     		bge	.L41
 726              		.loc 5 201 0 discriminator 6
 727 003a 019B     		ldr	r3, [sp, #4]
 728 003c 1846     		mov	r0, r3
 729 003e FFF7FEFF 		bl	queue_notempty
 730 0042 0346     		mov	r3, r0
 731 0044 83F00103 		eor	r3, r3, #1
 732 0048 DBB2     		uxtb	r3, r3
 733 004a 002B     		cmp	r3, #0
 734 004c 02D0     		beq	.L40
 735              	.L41:
 736              		.loc 5 201 0 discriminator 7
 737 004e 1148     		ldr	r0, .L45
 738 0050 FFF7FEFF 		bl	chSysHalt
 739              	.L40:
 740              		.loc 5 205 0 is_stmt 1
 741 0054 019B     		ldr	r3, [sp, #4]
ARM GAS  /tmp/ccYYPMwG.s 			page 14


 742 0056 9B68     		ldr	r3, [r3, #8]
 743 0058 5A1E     		subs	r2, r3, #1
 744 005a 019B     		ldr	r3, [sp, #4]
 745 005c 9A60     		str	r2, [r3, #8]
 746 005e 019B     		ldr	r3, [sp, #4]
 747 0060 9B68     		ldr	r3, [r3, #8]
 748 0062 002B     		cmp	r3, #0
 749 0064 11DA     		bge	.L42
 750              		.loc 5 206 0
 751 0066 0C4B     		ldr	r3, .L45+4
 752 0068 9B69     		ldr	r3, [r3, #24]
 753 006a 019A     		ldr	r2, [sp, #4]
 754 006c 5A62     		str	r2, [r3, #36]
 755              		.loc 5 207 0
 756 006e 0A4B     		ldr	r3, .L45+4
 757 0070 9B69     		ldr	r3, [r3, #24]
 758 0072 019A     		ldr	r2, [sp, #4]
 759 0074 1146     		mov	r1, r2
 760 0076 1846     		mov	r0, r3
 761 0078 FFF7FEFF 		bl	queue_insert
 762              		.loc 5 208 0
 763 007c 0520     		movs	r0, #5
 764 007e FFF7FEFF 		bl	chSchGoSleepS
 765              		.loc 5 210 0
 766 0082 054B     		ldr	r3, .L45+4
 767 0084 9B69     		ldr	r3, [r3, #24]
 768 0086 5B6A     		ldr	r3, [r3, #36]
 769 0088 00E0     		b	.L43
 770              	.L42:
 771              		.loc 5 213 0
 772 008a 0023     		movs	r3, #0
 773              	.L43:
 774              		.loc 5 214 0
 775 008c 1846     		mov	r0, r3
 776 008e 03B0     		add	sp, sp, #12
 777              		.cfi_def_cfa_offset 4
 778              		@ sp needed
 779 0090 5DF804FB 		ldr	pc, [sp], #4
 780              	.L46:
 781              		.align	2
 782              	.L45:
 783 0094 00000000 		.word	__func__.7879
 784 0098 00000000 		.word	ch
 785              		.cfi_endproc
 786              	.LFE235:
 787              		.size	chSemWaitS, .-chSemWaitS
 788              		.section	.text.chSemWaitTimeout,"ax",%progbits
 789              		.align	1
 790              		.p2align 4,,15
 791              		.global	chSemWaitTimeout
 792              		.syntax unified
 793              		.thumb
 794              		.thumb_func
 795              		.fpu fpv4-sp-d16
 796              		.type	chSemWaitTimeout, %function
 797              	chSemWaitTimeout:
 798              	.LFB236:
ARM GAS  /tmp/ccYYPMwG.s 			page 15


 799              		.loc 5 235 0
 800              		.cfi_startproc
 801              		@ args = 0, pretend = 0, frame = 16
 802              		@ frame_needed = 0, uses_anonymous_args = 0
 803 0000 00B5     		push	{lr}
 804              		.cfi_def_cfa_offset 4
 805              		.cfi_offset 14, -4
 806 0002 85B0     		sub	sp, sp, #20
 807              		.cfi_def_cfa_offset 24
 808 0004 0190     		str	r0, [sp, #4]
 809 0006 0091     		str	r1, [sp]
 810              		.loc 5 238 0
 811 0008 FFF7FEFF 		bl	chSysLock
 812              		.loc 5 239 0
 813 000c 0099     		ldr	r1, [sp]
 814 000e 0198     		ldr	r0, [sp, #4]
 815 0010 FFF7FEFF 		bl	chSemWaitTimeoutS
 816 0014 0390     		str	r0, [sp, #12]
 817              		.loc 5 240 0
 818 0016 FFF7FEFF 		bl	chSysUnlock
 819              		.loc 5 242 0
 820 001a 039B     		ldr	r3, [sp, #12]
 821              		.loc 5 243 0
 822 001c 1846     		mov	r0, r3
 823 001e 05B0     		add	sp, sp, #20
 824              		.cfi_def_cfa_offset 4
 825              		@ sp needed
 826 0020 5DF804FB 		ldr	pc, [sp], #4
 827              		.cfi_endproc
 828              	.LFE236:
 829              		.size	chSemWaitTimeout, .-chSemWaitTimeout
 830              		.section	.text.chSemWaitTimeoutS,"ax",%progbits
 831              		.align	1
 832              		.p2align 4,,15
 833              		.global	chSemWaitTimeoutS
 834              		.syntax unified
 835              		.thumb
 836              		.thumb_func
 837              		.fpu fpv4-sp-d16
 838              		.type	chSemWaitTimeoutS, %function
 839              	chSemWaitTimeoutS:
 840              	.LFB237:
 841              		.loc 5 264 0
 842              		.cfi_startproc
 843              		@ args = 0, pretend = 0, frame = 8
 844              		@ frame_needed = 0, uses_anonymous_args = 0
 845 0000 00B5     		push	{lr}
 846              		.cfi_def_cfa_offset 4
 847              		.cfi_offset 14, -4
 848 0002 83B0     		sub	sp, sp, #12
 849              		.cfi_def_cfa_offset 16
 850 0004 0190     		str	r0, [sp, #4]
 851 0006 0091     		str	r1, [sp]
 852              		.loc 5 266 0
 853 0008 FFF7FEFF 		bl	chDbgCheckClassS
 854              		.loc 5 267 0
 855 000c 019B     		ldr	r3, [sp, #4]
ARM GAS  /tmp/ccYYPMwG.s 			page 16


 856 000e 002B     		cmp	r3, #0
 857 0010 02D1     		bne	.L57
 858              		.loc 5 267 0 is_stmt 0 discriminator 2
 859 0012 2648     		ldr	r0, .L58
 860 0014 FFF7FEFF 		bl	chSysHalt
 861              	.L57:
 862              		.loc 5 268 0 is_stmt 1 discriminator 1
 863 0018 019B     		ldr	r3, [sp, #4]
 864 001a 9B68     		ldr	r3, [r3, #8]
 865 001c 002B     		cmp	r3, #0
 866 001e 09DB     		blt	.L51
 867              		.loc 5 268 0 is_stmt 0 discriminator 3
 868 0020 019B     		ldr	r3, [sp, #4]
 869 0022 1846     		mov	r0, r3
 870 0024 FFF7FEFF 		bl	queue_isempty
 871 0028 0346     		mov	r3, r0
 872 002a 83F00103 		eor	r3, r3, #1
 873 002e DBB2     		uxtb	r3, r3
 874 0030 002B     		cmp	r3, #0
 875 0032 10D0     		beq	.L52
 876              	.L51:
 877              		.loc 5 268 0 discriminator 4
 878 0034 019B     		ldr	r3, [sp, #4]
 879 0036 9B68     		ldr	r3, [r3, #8]
 880 0038 002B     		cmp	r3, #0
 881 003a 09DA     		bge	.L53
 882              		.loc 5 268 0 discriminator 6
 883 003c 019B     		ldr	r3, [sp, #4]
 884 003e 1846     		mov	r0, r3
 885 0040 FFF7FEFF 		bl	queue_notempty
 886 0044 0346     		mov	r3, r0
 887 0046 83F00103 		eor	r3, r3, #1
 888 004a DBB2     		uxtb	r3, r3
 889 004c 002B     		cmp	r3, #0
 890 004e 02D0     		beq	.L52
 891              	.L53:
 892              		.loc 5 268 0 discriminator 7
 893 0050 1648     		ldr	r0, .L58
 894 0052 FFF7FEFF 		bl	chSysHalt
 895              	.L52:
 896              		.loc 5 272 0 is_stmt 1
 897 0056 019B     		ldr	r3, [sp, #4]
 898 0058 9B68     		ldr	r3, [r3, #8]
 899 005a 5A1E     		subs	r2, r3, #1
 900 005c 019B     		ldr	r3, [sp, #4]
 901 005e 9A60     		str	r2, [r3, #8]
 902 0060 019B     		ldr	r3, [sp, #4]
 903 0062 9B68     		ldr	r3, [r3, #8]
 904 0064 002B     		cmp	r3, #0
 905 0066 1BDA     		bge	.L54
 906              		.loc 5 273 0
 907 0068 009B     		ldr	r3, [sp]
 908 006a 002B     		cmp	r3, #0
 909 006c 07D1     		bne	.L55
 910              		.loc 5 274 0
 911 006e 019B     		ldr	r3, [sp, #4]
 912 0070 9B68     		ldr	r3, [r3, #8]
ARM GAS  /tmp/ccYYPMwG.s 			page 17


 913 0072 5A1C     		adds	r2, r3, #1
 914 0074 019B     		ldr	r3, [sp, #4]
 915 0076 9A60     		str	r2, [r3, #8]
 916              		.loc 5 276 0
 917 0078 4FF0FF33 		mov	r3, #-1
 918 007c 11E0     		b	.L56
 919              	.L55:
 920              		.loc 5 278 0
 921 007e 0C4B     		ldr	r3, .L58+4
 922 0080 9B69     		ldr	r3, [r3, #24]
 923 0082 019A     		ldr	r2, [sp, #4]
 924 0084 5A62     		str	r2, [r3, #36]
 925              		.loc 5 279 0
 926 0086 0A4B     		ldr	r3, .L58+4
 927 0088 9B69     		ldr	r3, [r3, #24]
 928 008a 019A     		ldr	r2, [sp, #4]
 929 008c 1146     		mov	r1, r2
 930 008e 1846     		mov	r0, r3
 931 0090 FFF7FEFF 		bl	queue_insert
 932              		.loc 5 281 0
 933 0094 0099     		ldr	r1, [sp]
 934 0096 0520     		movs	r0, #5
 935 0098 FFF7FEFF 		bl	chSchGoSleepTimeoutS
 936 009c 0346     		mov	r3, r0
 937 009e 00E0     		b	.L56
 938              	.L54:
 939              		.loc 5 284 0
 940 00a0 0023     		movs	r3, #0
 941              	.L56:
 942              		.loc 5 285 0
 943 00a2 1846     		mov	r0, r3
 944 00a4 03B0     		add	sp, sp, #12
 945              		.cfi_def_cfa_offset 4
 946              		@ sp needed
 947 00a6 5DF804FB 		ldr	pc, [sp], #4
 948              	.L59:
 949 00aa 00BF     		.align	2
 950              	.L58:
 951 00ac 00000000 		.word	__func__.7889
 952 00b0 00000000 		.word	ch
 953              		.cfi_endproc
 954              	.LFE237:
 955              		.size	chSemWaitTimeoutS, .-chSemWaitTimeoutS
 956              		.section	.text.chSemSignal,"ax",%progbits
 957              		.align	1
 958              		.p2align 4,,15
 959              		.global	chSemSignal
 960              		.syntax unified
 961              		.thumb
 962              		.thumb_func
 963              		.fpu fpv4-sp-d16
 964              		.type	chSemSignal, %function
 965              	chSemSignal:
 966              	.LFB238:
 967              		.loc 5 294 0
 968              		.cfi_startproc
 969              		@ args = 0, pretend = 0, frame = 8
ARM GAS  /tmp/ccYYPMwG.s 			page 18


 970              		@ frame_needed = 0, uses_anonymous_args = 0
 971 0000 00B5     		push	{lr}
 972              		.cfi_def_cfa_offset 4
 973              		.cfi_offset 14, -4
 974 0002 83B0     		sub	sp, sp, #12
 975              		.cfi_def_cfa_offset 16
 976 0004 0190     		str	r0, [sp, #4]
 977              		.loc 5 296 0
 978 0006 019B     		ldr	r3, [sp, #4]
 979 0008 002B     		cmp	r3, #0
 980 000a 02D1     		bne	.L61
 981              		.loc 5 296 0 is_stmt 0 discriminator 2
 982 000c 1D48     		ldr	r0, .L66
 983 000e FFF7FEFF 		bl	chSysHalt
 984              	.L61:
 985              		.loc 5 298 0 is_stmt 1
 986 0012 FFF7FEFF 		bl	chSysLock
 987              		.loc 5 299 0
 988 0016 019B     		ldr	r3, [sp, #4]
 989 0018 9B68     		ldr	r3, [r3, #8]
 990 001a 002B     		cmp	r3, #0
 991 001c 09DB     		blt	.L62
 992              		.loc 5 299 0 is_stmt 0 discriminator 3
 993 001e 019B     		ldr	r3, [sp, #4]
 994 0020 1846     		mov	r0, r3
 995 0022 FFF7FEFF 		bl	queue_isempty
 996 0026 0346     		mov	r3, r0
 997 0028 83F00103 		eor	r3, r3, #1
 998 002c DBB2     		uxtb	r3, r3
 999 002e 002B     		cmp	r3, #0
 1000 0030 10D0     		beq	.L63
 1001              	.L62:
 1002              		.loc 5 299 0 discriminator 4
 1003 0032 019B     		ldr	r3, [sp, #4]
 1004 0034 9B68     		ldr	r3, [r3, #8]
 1005 0036 002B     		cmp	r3, #0
 1006 0038 09DA     		bge	.L64
 1007              		.loc 5 299 0 discriminator 6
 1008 003a 019B     		ldr	r3, [sp, #4]
 1009 003c 1846     		mov	r0, r3
 1010 003e FFF7FEFF 		bl	queue_notempty
 1011 0042 0346     		mov	r3, r0
 1012 0044 83F00103 		eor	r3, r3, #1
 1013 0048 DBB2     		uxtb	r3, r3
 1014 004a 002B     		cmp	r3, #0
 1015 004c 02D0     		beq	.L63
 1016              	.L64:
 1017              		.loc 5 299 0 discriminator 7
 1018 004e 0D48     		ldr	r0, .L66
 1019 0050 FFF7FEFF 		bl	chSysHalt
 1020              	.L63:
 1021              		.loc 5 302 0 is_stmt 1
 1022 0054 019B     		ldr	r3, [sp, #4]
 1023 0056 9B68     		ldr	r3, [r3, #8]
 1024 0058 5A1C     		adds	r2, r3, #1
 1025 005a 019B     		ldr	r3, [sp, #4]
 1026 005c 9A60     		str	r2, [r3, #8]
ARM GAS  /tmp/ccYYPMwG.s 			page 19


 1027 005e 019B     		ldr	r3, [sp, #4]
 1028 0060 9B68     		ldr	r3, [r3, #8]
 1029 0062 002B     		cmp	r3, #0
 1030 0064 08DC     		bgt	.L65
 1031              		.loc 5 303 0
 1032 0066 019B     		ldr	r3, [sp, #4]
 1033 0068 1846     		mov	r0, r3
 1034 006a FFF7FEFF 		bl	queue_fifo_remove
 1035 006e 0346     		mov	r3, r0
 1036 0070 0021     		movs	r1, #0
 1037 0072 1846     		mov	r0, r3
 1038 0074 FFF7FEFF 		bl	chSchWakeupS
 1039              	.L65:
 1040              		.loc 5 305 0
 1041 0078 FFF7FEFF 		bl	chSysUnlock
 1042              		.loc 5 306 0
 1043 007c 00BF     		nop
 1044 007e 03B0     		add	sp, sp, #12
 1045              		.cfi_def_cfa_offset 4
 1046              		@ sp needed
 1047 0080 5DF804FB 		ldr	pc, [sp], #4
 1048              	.L67:
 1049              		.align	2
 1050              	.L66:
 1051 0084 00000000 		.word	__func__.7893
 1052              		.cfi_endproc
 1053              	.LFE238:
 1054              		.size	chSemSignal, .-chSemSignal
 1055              		.section	.text.chSemSignalI,"ax",%progbits
 1056              		.align	1
 1057              		.p2align 4,,15
 1058              		.global	chSemSignalI
 1059              		.syntax unified
 1060              		.thumb
 1061              		.thumb_func
 1062              		.fpu fpv4-sp-d16
 1063              		.type	chSemSignalI, %function
 1064              	chSemSignalI:
 1065              	.LFB239:
 1066              		.loc 5 319 0
 1067              		.cfi_startproc
 1068              		@ args = 0, pretend = 0, frame = 16
 1069              		@ frame_needed = 0, uses_anonymous_args = 0
 1070 0000 00B5     		push	{lr}
 1071              		.cfi_def_cfa_offset 4
 1072              		.cfi_offset 14, -4
 1073 0002 85B0     		sub	sp, sp, #20
 1074              		.cfi_def_cfa_offset 24
 1075 0004 0190     		str	r0, [sp, #4]
 1076              		.loc 5 321 0
 1077 0006 FFF7FEFF 		bl	chDbgCheckClassI
 1078              		.loc 5 322 0
 1079 000a 019B     		ldr	r3, [sp, #4]
 1080 000c 002B     		cmp	r3, #0
 1081 000e 02D1     		bne	.L74
 1082              		.loc 5 322 0 is_stmt 0 discriminator 2
 1083 0010 1C48     		ldr	r0, .L76
ARM GAS  /tmp/ccYYPMwG.s 			page 20


 1084 0012 FFF7FEFF 		bl	chSysHalt
 1085              	.L74:
 1086              		.loc 5 323 0 is_stmt 1 discriminator 1
 1087 0016 019B     		ldr	r3, [sp, #4]
 1088 0018 9B68     		ldr	r3, [r3, #8]
 1089 001a 002B     		cmp	r3, #0
 1090 001c 09DB     		blt	.L70
 1091              		.loc 5 323 0 is_stmt 0 discriminator 3
 1092 001e 019B     		ldr	r3, [sp, #4]
 1093 0020 1846     		mov	r0, r3
 1094 0022 FFF7FEFF 		bl	queue_isempty
 1095 0026 0346     		mov	r3, r0
 1096 0028 83F00103 		eor	r3, r3, #1
 1097 002c DBB2     		uxtb	r3, r3
 1098 002e 002B     		cmp	r3, #0
 1099 0030 10D0     		beq	.L71
 1100              	.L70:
 1101              		.loc 5 323 0 discriminator 4
 1102 0032 019B     		ldr	r3, [sp, #4]
 1103 0034 9B68     		ldr	r3, [r3, #8]
 1104 0036 002B     		cmp	r3, #0
 1105 0038 09DA     		bge	.L72
 1106              		.loc 5 323 0 discriminator 6
 1107 003a 019B     		ldr	r3, [sp, #4]
 1108 003c 1846     		mov	r0, r3
 1109 003e FFF7FEFF 		bl	queue_notempty
 1110 0042 0346     		mov	r3, r0
 1111 0044 83F00103 		eor	r3, r3, #1
 1112 0048 DBB2     		uxtb	r3, r3
 1113 004a 002B     		cmp	r3, #0
 1114 004c 02D0     		beq	.L71
 1115              	.L72:
 1116              		.loc 5 323 0 discriminator 7
 1117 004e 0D48     		ldr	r0, .L76
 1118 0050 FFF7FEFF 		bl	chSysHalt
 1119              	.L71:
 1120              		.loc 5 327 0 is_stmt 1
 1121 0054 019B     		ldr	r3, [sp, #4]
 1122 0056 9B68     		ldr	r3, [r3, #8]
 1123 0058 5A1C     		adds	r2, r3, #1
 1124 005a 019B     		ldr	r3, [sp, #4]
 1125 005c 9A60     		str	r2, [r3, #8]
 1126 005e 019B     		ldr	r3, [sp, #4]
 1127 0060 9B68     		ldr	r3, [r3, #8]
 1128 0062 002B     		cmp	r3, #0
 1129 0064 0ADC     		bgt	.L75
 1130              	.LBB10:
 1131              		.loc 5 330 0
 1132 0066 019B     		ldr	r3, [sp, #4]
 1133 0068 1846     		mov	r0, r3
 1134 006a FFF7FEFF 		bl	queue_fifo_remove
 1135 006e 0390     		str	r0, [sp, #12]
 1136              		.loc 5 331 0
 1137 0070 039B     		ldr	r3, [sp, #12]
 1138 0072 0022     		movs	r2, #0
 1139 0074 5A62     		str	r2, [r3, #36]
 1140              		.loc 5 332 0
ARM GAS  /tmp/ccYYPMwG.s 			page 21


 1141 0076 0398     		ldr	r0, [sp, #12]
 1142 0078 FFF7FEFF 		bl	chSchReadyI
 1143              	.L75:
 1144              	.LBE10:
 1145              		.loc 5 334 0
 1146 007c 00BF     		nop
 1147 007e 05B0     		add	sp, sp, #20
 1148              		.cfi_def_cfa_offset 4
 1149              		@ sp needed
 1150 0080 5DF804FB 		ldr	pc, [sp], #4
 1151              	.L77:
 1152              		.align	2
 1153              	.L76:
 1154 0084 00000000 		.word	__func__.7897
 1155              		.cfi_endproc
 1156              	.LFE239:
 1157              		.size	chSemSignalI, .-chSemSignalI
 1158              		.section	.text.chSemAddCounterI,"ax",%progbits
 1159              		.align	1
 1160              		.p2align 4,,15
 1161              		.global	chSemAddCounterI
 1162              		.syntax unified
 1163              		.thumb
 1164              		.thumb_func
 1165              		.fpu fpv4-sp-d16
 1166              		.type	chSemAddCounterI, %function
 1167              	chSemAddCounterI:
 1168              	.LFB240:
 1169              		.loc 5 349 0
 1170              		.cfi_startproc
 1171              		@ args = 0, pretend = 0, frame = 8
 1172              		@ frame_needed = 0, uses_anonymous_args = 0
 1173 0000 00B5     		push	{lr}
 1174              		.cfi_def_cfa_offset 4
 1175              		.cfi_offset 14, -4
 1176 0002 83B0     		sub	sp, sp, #12
 1177              		.cfi_def_cfa_offset 16
 1178 0004 0190     		str	r0, [sp, #4]
 1179 0006 0091     		str	r1, [sp]
 1180              		.loc 5 351 0
 1181 0008 FFF7FEFF 		bl	chDbgCheckClassI
 1182              		.loc 5 352 0
 1183 000c 019B     		ldr	r3, [sp, #4]
 1184 000e 002B     		cmp	r3, #0
 1185 0010 02D0     		beq	.L79
 1186              		.loc 5 352 0 is_stmt 0 discriminator 3
 1187 0012 009B     		ldr	r3, [sp]
 1188 0014 002B     		cmp	r3, #0
 1189 0016 02DC     		bgt	.L87
 1190              	.L79:
 1191              		.loc 5 352 0 discriminator 4
 1192 0018 2048     		ldr	r0, .L88
 1193 001a FFF7FEFF 		bl	chSysHalt
 1194              	.L87:
 1195              		.loc 5 353 0 is_stmt 1 discriminator 1
 1196 001e 019B     		ldr	r3, [sp, #4]
 1197 0020 9B68     		ldr	r3, [r3, #8]
ARM GAS  /tmp/ccYYPMwG.s 			page 22


 1198 0022 002B     		cmp	r3, #0
 1199 0024 09DB     		blt	.L81
 1200              		.loc 5 353 0 is_stmt 0 discriminator 3
 1201 0026 019B     		ldr	r3, [sp, #4]
 1202 0028 1846     		mov	r0, r3
 1203 002a FFF7FEFF 		bl	queue_isempty
 1204 002e 0346     		mov	r3, r0
 1205 0030 83F00103 		eor	r3, r3, #1
 1206 0034 DBB2     		uxtb	r3, r3
 1207 0036 002B     		cmp	r3, #0
 1208 0038 28D0     		beq	.L84
 1209              	.L81:
 1210              		.loc 5 353 0 discriminator 4
 1211 003a 019B     		ldr	r3, [sp, #4]
 1212 003c 9B68     		ldr	r3, [r3, #8]
 1213 003e 002B     		cmp	r3, #0
 1214 0040 09DA     		bge	.L83
 1215              		.loc 5 353 0 discriminator 6
 1216 0042 019B     		ldr	r3, [sp, #4]
 1217 0044 1846     		mov	r0, r3
 1218 0046 FFF7FEFF 		bl	queue_notempty
 1219 004a 0346     		mov	r3, r0
 1220 004c 83F00103 		eor	r3, r3, #1
 1221 0050 DBB2     		uxtb	r3, r3
 1222 0052 002B     		cmp	r3, #0
 1223 0054 1AD0     		beq	.L84
 1224              	.L83:
 1225              		.loc 5 353 0 discriminator 7
 1226 0056 1148     		ldr	r0, .L88
 1227 0058 FFF7FEFF 		bl	chSysHalt
 1228              		.loc 5 357 0 is_stmt 1 discriminator 7
 1229 005c 16E0     		b	.L84
 1230              	.L86:
 1231              		.loc 5 358 0
 1232 005e 019B     		ldr	r3, [sp, #4]
 1233 0060 9B68     		ldr	r3, [r3, #8]
 1234 0062 5A1C     		adds	r2, r3, #1
 1235 0064 019B     		ldr	r3, [sp, #4]
 1236 0066 9A60     		str	r2, [r3, #8]
 1237 0068 019B     		ldr	r3, [sp, #4]
 1238 006a 9B68     		ldr	r3, [r3, #8]
 1239 006c 002B     		cmp	r3, #0
 1240 006e 0ADC     		bgt	.L85
 1241              		.loc 5 359 0
 1242 0070 019B     		ldr	r3, [sp, #4]
 1243 0072 1846     		mov	r0, r3
 1244 0074 FFF7FEFF 		bl	queue_fifo_remove
 1245 0078 0346     		mov	r3, r0
 1246 007a 1846     		mov	r0, r3
 1247 007c FFF7FEFF 		bl	chSchReadyI
 1248 0080 0246     		mov	r2, r0
 1249 0082 0023     		movs	r3, #0
 1250 0084 5362     		str	r3, [r2, #36]
 1251              	.L85:
 1252              		.loc 5 361 0
 1253 0086 009B     		ldr	r3, [sp]
 1254 0088 013B     		subs	r3, r3, #1
ARM GAS  /tmp/ccYYPMwG.s 			page 23


 1255 008a 0093     		str	r3, [sp]
 1256              	.L84:
 1257              		.loc 5 357 0
 1258 008c 009B     		ldr	r3, [sp]
 1259 008e 002B     		cmp	r3, #0
 1260 0090 E5DC     		bgt	.L86
 1261              		.loc 5 363 0
 1262 0092 00BF     		nop
 1263 0094 03B0     		add	sp, sp, #12
 1264              		.cfi_def_cfa_offset 4
 1265              		@ sp needed
 1266 0096 5DF804FB 		ldr	pc, [sp], #4
 1267              	.L89:
 1268 009a 00BF     		.align	2
 1269              	.L88:
 1270 009c 00000000 		.word	__func__.7903
 1271              		.cfi_endproc
 1272              	.LFE240:
 1273              		.size	chSemAddCounterI, .-chSemAddCounterI
 1274              		.section	.text.chSemSignalWait,"ax",%progbits
 1275              		.align	1
 1276              		.p2align 4,,15
 1277              		.global	chSemSignalWait
 1278              		.syntax unified
 1279              		.thumb
 1280              		.thumb_func
 1281              		.fpu fpv4-sp-d16
 1282              		.type	chSemSignalWait, %function
 1283              	chSemSignalWait:
 1284              	.LFB241:
 1285              		.loc 5 378 0
 1286              		.cfi_startproc
 1287              		@ args = 0, pretend = 0, frame = 16
 1288              		@ frame_needed = 0, uses_anonymous_args = 0
 1289 0000 00B5     		push	{lr}
 1290              		.cfi_def_cfa_offset 4
 1291              		.cfi_offset 14, -4
 1292 0002 85B0     		sub	sp, sp, #20
 1293              		.cfi_def_cfa_offset 24
 1294 0004 0190     		str	r0, [sp, #4]
 1295 0006 0091     		str	r1, [sp]
 1296              		.loc 5 381 0
 1297 0008 019B     		ldr	r3, [sp, #4]
 1298 000a 002B     		cmp	r3, #0
 1299 000c 02D0     		beq	.L91
 1300              		.loc 5 381 0 is_stmt 0 discriminator 3
 1301 000e 009B     		ldr	r3, [sp]
 1302 0010 002B     		cmp	r3, #0
 1303 0012 02D1     		bne	.L92
 1304              	.L91:
 1305              		.loc 5 381 0 discriminator 4
 1306 0014 3E48     		ldr	r0, .L104
 1307 0016 FFF7FEFF 		bl	chSysHalt
 1308              	.L92:
 1309              		.loc 5 383 0 is_stmt 1
 1310 001a FFF7FEFF 		bl	chSysLock
 1311              		.loc 5 384 0
ARM GAS  /tmp/ccYYPMwG.s 			page 24


 1312 001e 019B     		ldr	r3, [sp, #4]
 1313 0020 9B68     		ldr	r3, [r3, #8]
 1314 0022 002B     		cmp	r3, #0
 1315 0024 09DB     		blt	.L93
 1316              		.loc 5 384 0 is_stmt 0 discriminator 3
 1317 0026 019B     		ldr	r3, [sp, #4]
 1318 0028 1846     		mov	r0, r3
 1319 002a FFF7FEFF 		bl	queue_isempty
 1320 002e 0346     		mov	r3, r0
 1321 0030 83F00103 		eor	r3, r3, #1
 1322 0034 DBB2     		uxtb	r3, r3
 1323 0036 002B     		cmp	r3, #0
 1324 0038 10D0     		beq	.L103
 1325              	.L93:
 1326              		.loc 5 384 0 discriminator 4
 1327 003a 019B     		ldr	r3, [sp, #4]
 1328 003c 9B68     		ldr	r3, [r3, #8]
 1329 003e 002B     		cmp	r3, #0
 1330 0040 09DA     		bge	.L95
 1331              		.loc 5 384 0 discriminator 6
 1332 0042 019B     		ldr	r3, [sp, #4]
 1333 0044 1846     		mov	r0, r3
 1334 0046 FFF7FEFF 		bl	queue_notempty
 1335 004a 0346     		mov	r3, r0
 1336 004c 83F00103 		eor	r3, r3, #1
 1337 0050 DBB2     		uxtb	r3, r3
 1338 0052 002B     		cmp	r3, #0
 1339 0054 02D0     		beq	.L103
 1340              	.L95:
 1341              		.loc 5 384 0 discriminator 7
 1342 0056 2E48     		ldr	r0, .L104
 1343 0058 FFF7FEFF 		bl	chSysHalt
 1344              	.L103:
 1345              		.loc 5 387 0 is_stmt 1 discriminator 1
 1346 005c 009B     		ldr	r3, [sp]
 1347 005e 9B68     		ldr	r3, [r3, #8]
 1348 0060 002B     		cmp	r3, #0
 1349 0062 09DB     		blt	.L96
 1350              		.loc 5 387 0 is_stmt 0 discriminator 3
 1351 0064 009B     		ldr	r3, [sp]
 1352 0066 1846     		mov	r0, r3
 1353 0068 FFF7FEFF 		bl	queue_isempty
 1354 006c 0346     		mov	r3, r0
 1355 006e 83F00103 		eor	r3, r3, #1
 1356 0072 DBB2     		uxtb	r3, r3
 1357 0074 002B     		cmp	r3, #0
 1358 0076 10D0     		beq	.L97
 1359              	.L96:
 1360              		.loc 5 387 0 discriminator 4
 1361 0078 009B     		ldr	r3, [sp]
 1362 007a 9B68     		ldr	r3, [r3, #8]
 1363 007c 002B     		cmp	r3, #0
 1364 007e 09DA     		bge	.L98
 1365              		.loc 5 387 0 discriminator 6
 1366 0080 009B     		ldr	r3, [sp]
 1367 0082 1846     		mov	r0, r3
 1368 0084 FFF7FEFF 		bl	queue_notempty
ARM GAS  /tmp/ccYYPMwG.s 			page 25


 1369 0088 0346     		mov	r3, r0
 1370 008a 83F00103 		eor	r3, r3, #1
 1371 008e DBB2     		uxtb	r3, r3
 1372 0090 002B     		cmp	r3, #0
 1373 0092 02D0     		beq	.L97
 1374              	.L98:
 1375              		.loc 5 387 0 discriminator 7
 1376 0094 1E48     		ldr	r0, .L104
 1377 0096 FFF7FEFF 		bl	chSysHalt
 1378              	.L97:
 1379              		.loc 5 390 0 is_stmt 1
 1380 009a 019B     		ldr	r3, [sp, #4]
 1381 009c 9B68     		ldr	r3, [r3, #8]
 1382 009e 5A1C     		adds	r2, r3, #1
 1383 00a0 019B     		ldr	r3, [sp, #4]
 1384 00a2 9A60     		str	r2, [r3, #8]
 1385 00a4 019B     		ldr	r3, [sp, #4]
 1386 00a6 9B68     		ldr	r3, [r3, #8]
 1387 00a8 002B     		cmp	r3, #0
 1388 00aa 0ADC     		bgt	.L99
 1389              		.loc 5 391 0
 1390 00ac 019B     		ldr	r3, [sp, #4]
 1391 00ae 1846     		mov	r0, r3
 1392 00b0 FFF7FEFF 		bl	queue_fifo_remove
 1393 00b4 0346     		mov	r3, r0
 1394 00b6 1846     		mov	r0, r3
 1395 00b8 FFF7FEFF 		bl	chSchReadyI
 1396 00bc 0246     		mov	r2, r0
 1397 00be 0023     		movs	r3, #0
 1398 00c0 5362     		str	r3, [r2, #36]
 1399              	.L99:
 1400              		.loc 5 393 0
 1401 00c2 009B     		ldr	r3, [sp]
 1402 00c4 9B68     		ldr	r3, [r3, #8]
 1403 00c6 5A1E     		subs	r2, r3, #1
 1404 00c8 009B     		ldr	r3, [sp]
 1405 00ca 9A60     		str	r2, [r3, #8]
 1406 00cc 009B     		ldr	r3, [sp]
 1407 00ce 9B68     		ldr	r3, [r3, #8]
 1408 00d0 002B     		cmp	r3, #0
 1409 00d2 11DA     		bge	.L100
 1410              	.LBB11:
 1411              		.loc 5 394 0
 1412 00d4 0F4B     		ldr	r3, .L104+4
 1413 00d6 9B69     		ldr	r3, [r3, #24]
 1414 00d8 0293     		str	r3, [sp, #8]
 1415              		.loc 5 395 0
 1416 00da 009B     		ldr	r3, [sp]
 1417 00dc 1946     		mov	r1, r3
 1418 00de 0298     		ldr	r0, [sp, #8]
 1419 00e0 FFF7FEFF 		bl	queue_insert
 1420              		.loc 5 396 0
 1421 00e4 029B     		ldr	r3, [sp, #8]
 1422 00e6 009A     		ldr	r2, [sp]
 1423 00e8 5A62     		str	r2, [r3, #36]
 1424              		.loc 5 397 0
 1425 00ea 0520     		movs	r0, #5
ARM GAS  /tmp/ccYYPMwG.s 			page 26


 1426 00ec FFF7FEFF 		bl	chSchGoSleepS
 1427              		.loc 5 398 0
 1428 00f0 029B     		ldr	r3, [sp, #8]
 1429 00f2 5B6A     		ldr	r3, [r3, #36]
 1430 00f4 0393     		str	r3, [sp, #12]
 1431              	.LBE11:
 1432 00f6 03E0     		b	.L101
 1433              	.L100:
 1434              		.loc 5 401 0
 1435 00f8 FFF7FEFF 		bl	chSchRescheduleS
 1436              		.loc 5 402 0
 1437 00fc 0023     		movs	r3, #0
 1438 00fe 0393     		str	r3, [sp, #12]
 1439              	.L101:
 1440              		.loc 5 404 0
 1441 0100 FFF7FEFF 		bl	chSysUnlock
 1442              		.loc 5 406 0
 1443 0104 039B     		ldr	r3, [sp, #12]
 1444              		.loc 5 407 0
 1445 0106 1846     		mov	r0, r3
 1446 0108 05B0     		add	sp, sp, #20
 1447              		.cfi_def_cfa_offset 4
 1448              		@ sp needed
 1449 010a 5DF804FB 		ldr	pc, [sp], #4
 1450              	.L105:
 1451 010e 00BF     		.align	2
 1452              	.L104:
 1453 0110 00000000 		.word	__func__.7912
 1454 0114 00000000 		.word	ch
 1455              		.cfi_endproc
 1456              	.LFE241:
 1457              		.size	chSemSignalWait, .-chSemSignalWait
 1458              		.section	.rodata.__func__.7858,"a",%progbits
 1459              		.align	2
 1460              		.type	__func__.7858, %object
 1461              		.size	__func__.7858, 16
 1462              	__func__.7858:
 1463 0000 63685365 		.ascii	"chSemObjectInit\000"
 1463      6D4F626A 
 1463      65637449 
 1463      6E697400 
 1464              		.section	.rodata.__func__.7157,"a",%progbits
 1465              		.align	2
 1466              		.type	__func__.7157, %object
 1467              		.size	__func__.7157, 12
 1468              	__func__.7157:
 1469 0000 63685379 		.ascii	"chSysUnlock\000"
 1469      73556E6C 
 1469      6F636B00 
 1470              		.section	.rodata.__func__.7868,"a",%progbits
 1471              		.align	2
 1472              		.type	__func__.7868, %object
 1473              		.size	__func__.7868, 12
 1474              	__func__.7868:
 1475 0000 63685365 		.ascii	"chSemResetI\000"
 1475      6D526573 
 1475      65744900 
ARM GAS  /tmp/ccYYPMwG.s 			page 27


 1476              		.section	.rodata.__func__.7879,"a",%progbits
 1477              		.align	2
 1478              		.type	__func__.7879, %object
 1479              		.size	__func__.7879, 11
 1480              	__func__.7879:
 1481 0000 63685365 		.ascii	"chSemWaitS\000"
 1481      6D576169 
 1481      745300
 1482              		.section	.rodata.__func__.7889,"a",%progbits
 1483              		.align	2
 1484              		.type	__func__.7889, %object
 1485              		.size	__func__.7889, 18
 1486              	__func__.7889:
 1487 0000 63685365 		.ascii	"chSemWaitTimeoutS\000"
 1487      6D576169 
 1487      7454696D 
 1487      656F7574 
 1487      5300
 1488              		.section	.rodata.__func__.7893,"a",%progbits
 1489              		.align	2
 1490              		.type	__func__.7893, %object
 1491              		.size	__func__.7893, 12
 1492              	__func__.7893:
 1493 0000 63685365 		.ascii	"chSemSignal\000"
 1493      6D536967 
 1493      6E616C00 
 1494              		.section	.rodata.__func__.7897,"a",%progbits
 1495              		.align	2
 1496              		.type	__func__.7897, %object
 1497              		.size	__func__.7897, 13
 1498              	__func__.7897:
 1499 0000 63685365 		.ascii	"chSemSignalI\000"
 1499      6D536967 
 1499      6E616C49 
 1499      00
 1500              		.section	.rodata.__func__.7903,"a",%progbits
 1501              		.align	2
 1502              		.type	__func__.7903, %object
 1503              		.size	__func__.7903, 17
 1504              	__func__.7903:
 1505 0000 63685365 		.ascii	"chSemAddCounterI\000"
 1505      6D416464 
 1505      436F756E 
 1505      74657249 
 1505      00
 1506              		.section	.rodata.__func__.7912,"a",%progbits
 1507              		.align	2
 1508              		.type	__func__.7912, %object
 1509              		.size	__func__.7912, 16
 1510              	__func__.7912:
 1511 0000 63685365 		.ascii	"chSemSignalWait\000"
 1511      6D536967 
 1511      6E616C57 
 1511      61697400 
 1512              		.text
 1513              	.Letext0:
 1514              		.file 6 "/usr/arm-none-eabi/include/machine/_default_types.h"
ARM GAS  /tmp/ccYYPMwG.s 			page 28


 1515              		.file 7 "/usr/arm-none-eabi/include/sys/_stdint.h"
 1516              		.file 8 "../ChibiOS/os/rt/ports/ARMCMx/compilers/GCC/chtypes.h"
 1517              		.file 9 "../ChibiOS/os/rt/include/chsystypes.h"
 1518              		.file 10 "../ChibiOS/os/ext/CMSIS/include/core_cm4.h"
 1519              		.file 11 "../ChibiOS/os/ext/CMSIS/ST/STM32F4xx/system_stm32f4xx.h"
 1520              		.file 12 "../ChibiOS/os/rt/ports/ARMCMx/chcore.h"
 1521              		.file 13 "../ChibiOS/os/rt/include/chtm.h"
 1522              		.file 14 "../ChibiOS/os/rt/include/chstats.h"
 1523              		.file 15 "../ChibiOS/os/rt/include/chsem.h"
 1524              		.file 16 "../ChibiOS/os/rt/include/chmtx.h"
 1525              		.file 17 "../ChibiOS/os/rt/include/chregistry.h"