ARM GAS  /tmp/ccyvBxZF.s 			page 1


   1              		.cpu cortex-m4
   2              		.eabi_attribute 27, 1
   3              		.eabi_attribute 28, 1
   4              		.eabi_attribute 20, 1
   5              		.eabi_attribute 21, 1
   6              		.eabi_attribute 23, 3
   7              		.eabi_attribute 24, 1
   8              		.eabi_attribute 25, 1
   9              		.eabi_attribute 26, 1
  10              		.eabi_attribute 30, 6
  11              		.eabi_attribute 34, 1
  12              		.eabi_attribute 18, 4
  13              		.file	"chsys.c"
  14              		.text
  15              	.Ltext0:
  16              		.cfi_sections	.debug_frame
  17              		.section	.text.NVIC_SetPriorityGrouping,"ax",%progbits
  18              		.align	1
  19              		.p2align 4,,15
  20              		.syntax unified
  21              		.thumb
  22              		.thumb_func
  23              		.fpu fpv4-sp-d16
  24              		.type	NVIC_SetPriorityGrouping, %function
  25              	NVIC_SetPriorityGrouping:
  26              	.LFB106:
  27              		.file 1 "../ChibiOS/os/ext/CMSIS/include/core_cm4.h"
  28              		.loc 1 1516 0
  29              		.cfi_startproc
  30              		@ args = 0, pretend = 0, frame = 16
  31              		@ frame_needed = 0, uses_anonymous_args = 0
  32              		@ link register save eliminated.
  33 0000 84B0     		sub	sp, sp, #16
  34              		.cfi_def_cfa_offset 16
  35 0002 0190     		str	r0, [sp, #4]
  36              		.loc 1 1518 0
  37 0004 019B     		ldr	r3, [sp, #4]
  38 0006 03F00703 		and	r3, r3, #7
  39 000a 0393     		str	r3, [sp, #12]
  40              		.loc 1 1520 0
  41 000c 0B4B     		ldr	r3, .L2
  42 000e DB68     		ldr	r3, [r3, #12]
  43 0010 0293     		str	r3, [sp, #8]
  44              		.loc 1 1521 0
  45 0012 029A     		ldr	r2, [sp, #8]
  46 0014 4FF6FF03 		movw	r3, #63743
  47 0018 1340     		ands	r3, r3, r2
  48 001a 0293     		str	r3, [sp, #8]
  49              		.loc 1 1524 0
  50 001c 039B     		ldr	r3, [sp, #12]
  51 001e 1A02     		lsls	r2, r3, #8
  52              		.loc 1 1523 0
  53 0020 029B     		ldr	r3, [sp, #8]
  54 0022 1343     		orrs	r3, r3, r2
  55              		.loc 1 1522 0
  56 0024 43F0BF63 		orr	r3, r3, #100139008
  57 0028 43F40033 		orr	r3, r3, #131072
ARM GAS  /tmp/ccyvBxZF.s 			page 2


  58 002c 0293     		str	r3, [sp, #8]
  59              		.loc 1 1525 0
  60 002e 034A     		ldr	r2, .L2
  61 0030 029B     		ldr	r3, [sp, #8]
  62 0032 D360     		str	r3, [r2, #12]
  63              		.loc 1 1526 0
  64 0034 00BF     		nop
  65 0036 04B0     		add	sp, sp, #16
  66              		.cfi_def_cfa_offset 0
  67              		@ sp needed
  68 0038 7047     		bx	lr
  69              	.L3:
  70 003a 00BF     		.align	2
  71              	.L2:
  72 003c 00ED00E0 		.word	-536810240
  73              		.cfi_endproc
  74              	.LFE106:
  75              		.size	NVIC_SetPriorityGrouping, .-NVIC_SetPriorityGrouping
  76              		.section	.text.NVIC_SetPriority,"ax",%progbits
  77              		.align	1
  78              		.p2align 4,,15
  79              		.syntax unified
  80              		.thumb
  81              		.thumb_func
  82              		.fpu fpv4-sp-d16
  83              		.type	NVIC_SetPriority, %function
  84              	NVIC_SetPriority:
  85              	.LFB114:
  86              		.loc 1 1630 0
  87              		.cfi_startproc
  88              		@ args = 0, pretend = 0, frame = 8
  89              		@ frame_needed = 0, uses_anonymous_args = 0
  90              		@ link register save eliminated.
  91 0000 82B0     		sub	sp, sp, #8
  92              		.cfi_def_cfa_offset 8
  93 0002 0346     		mov	r3, r0
  94 0004 0091     		str	r1, [sp]
  95 0006 8DF80730 		strb	r3, [sp, #7]
  96              		.loc 1 1631 0
  97 000a 9DF90730 		ldrsb	r3, [sp, #7]
  98 000e 002B     		cmp	r3, #0
  99 0010 0CDA     		bge	.L5
 100              		.loc 1 1632 0
 101 0012 0D49     		ldr	r1, .L8
 102 0014 9DF80730 		ldrb	r3, [sp, #7]	@ zero_extendqisi2
 103 0018 03F00F03 		and	r3, r3, #15
 104 001c 043B     		subs	r3, r3, #4
 105 001e 009A     		ldr	r2, [sp]
 106 0020 D2B2     		uxtb	r2, r2
 107 0022 1201     		lsls	r2, r2, #4
 108 0024 D2B2     		uxtb	r2, r2
 109 0026 0B44     		add	r3, r3, r1
 110 0028 1A76     		strb	r2, [r3, #24]
 111              		.loc 1 1637 0
 112 002a 09E0     		b	.L7
 113              	.L5:
 114              		.loc 1 1635 0
ARM GAS  /tmp/ccyvBxZF.s 			page 3


 115 002c 0749     		ldr	r1, .L8+4
 116 002e 9DF90730 		ldrsb	r3, [sp, #7]
 117 0032 009A     		ldr	r2, [sp]
 118 0034 D2B2     		uxtb	r2, r2
 119 0036 1201     		lsls	r2, r2, #4
 120 0038 D2B2     		uxtb	r2, r2
 121 003a 0B44     		add	r3, r3, r1
 122 003c 83F80023 		strb	r2, [r3, #768]
 123              	.L7:
 124              		.loc 1 1637 0
 125 0040 00BF     		nop
 126 0042 02B0     		add	sp, sp, #8
 127              		.cfi_def_cfa_offset 0
 128              		@ sp needed
 129 0044 7047     		bx	lr
 130              	.L9:
 131 0046 00BF     		.align	2
 132              	.L8:
 133 0048 00ED00E0 		.word	-536810240
 134 004c 00E100E0 		.word	-536813312
 135              		.cfi_endproc
 136              	.LFE114:
 137              		.size	NVIC_SetPriority, .-NVIC_SetPriority
 138              		.section	.text.port_init,"ax",%progbits
 139              		.align	1
 140              		.p2align 4,,15
 141              		.syntax unified
 142              		.thumb
 143              		.thumb_func
 144              		.fpu fpv4-sp-d16
 145              		.type	port_init, %function
 146              	port_init:
 147              	.LFB123:
 148              		.file 2 "../ChibiOS/os/rt/ports/ARMCMx/chcore_v7m.h"
 149              		.loc 2 383 0
 150              		.cfi_startproc
 151              		@ args = 0, pretend = 0, frame = 0
 152              		@ frame_needed = 0, uses_anonymous_args = 0
 153 0000 08B5     		push	{r3, lr}
 154              		.cfi_def_cfa_offset 8
 155              		.cfi_offset 3, -8
 156              		.cfi_offset 14, -4
 157              		.loc 2 386 0
 158 0002 0F4B     		ldr	r3, .L11
 159 0004 0022     		movs	r2, #0
 160 0006 9A60     		str	r2, [r3, #8]
 161              		.loc 2 389 0
 162 0008 0320     		movs	r0, #3
 163 000a FFF7FEFF 		bl	NVIC_SetPriorityGrouping
 164              		.loc 2 392 0
 165 000e 0D4A     		ldr	r2, .L11+4
 166 0010 0C4B     		ldr	r3, .L11+4
 167 0012 DB68     		ldr	r3, [r3, #12]
 168 0014 43F08073 		orr	r3, r3, #16777216
 169 0018 D360     		str	r3, [r2, #12]
 170              		.loc 2 396 0
 171 001a 0B4A     		ldr	r2, .L11+8
ARM GAS  /tmp/ccyvBxZF.s 			page 4


 172 001c 0A4B     		ldr	r3, .L11+8
 173 001e 1B68     		ldr	r3, [r3]
 174 0020 43F00103 		orr	r3, r3, #1
 175 0024 1360     		str	r3, [r2]
 176              		.loc 2 400 0
 177 0026 0121     		movs	r1, #1
 178 0028 6FF00400 		mvn	r0, #4
 179 002c FFF7FEFF 		bl	NVIC_SetPriority
 180              		.loc 2 402 0
 181 0030 0221     		movs	r1, #2
 182 0032 6FF00100 		mvn	r0, #1
 183 0036 FFF7FEFF 		bl	NVIC_SetPriority
 184              		.loc 2 403 0
 185 003a 00BF     		nop
 186 003c 08BD     		pop	{r3, pc}
 187              	.L12:
 188 003e 00BF     		.align	2
 189              	.L11:
 190 0040 00ED00E0 		.word	-536810240
 191 0044 F0ED00E0 		.word	-536810000
 192 0048 001000E0 		.word	-536866816
 193              		.cfi_endproc
 194              	.LFE123:
 195              		.size	port_init, .-port_init
 196              		.section	.text.port_get_irq_status,"ax",%progbits
 197              		.align	1
 198              		.p2align 4,,15
 199              		.syntax unified
 200              		.thumb
 201              		.thumb_func
 202              		.fpu fpv4-sp-d16
 203              		.type	port_get_irq_status, %function
 204              	port_get_irq_status:
 205              	.LFB124:
 206              		.loc 2 410 0
 207              		.cfi_startproc
 208              		@ args = 0, pretend = 0, frame = 8
 209              		@ frame_needed = 0, uses_anonymous_args = 0
 210              		@ link register save eliminated.
 211 0000 82B0     		sub	sp, sp, #8
 212              		.cfi_def_cfa_offset 8
 213              	.LBB18:
 214              	.LBB19:
 215              		.file 3 "../ChibiOS/os/ext/CMSIS/include/core_cmFunc.h"
 216              		.loc 3 535 0
 217              		.syntax unified
 218              	@ 535 "../ChibiOS/os/ext/CMSIS/include/core_cmFunc.h" 1
 219 0002 EFF31183 		MRS r3, basepri
 220              	@ 0 "" 2
 221              		.thumb
 222              		.syntax unified
 223 0006 0093     		str	r3, [sp]
 224              		.loc 3 536 0
 225 0008 009B     		ldr	r3, [sp]
 226              	.LBE19:
 227              	.LBE18:
 228              		.loc 2 414 0
ARM GAS  /tmp/ccyvBxZF.s 			page 5


 229 000a 0193     		str	r3, [sp, #4]
 230              		.loc 2 418 0
 231 000c 019B     		ldr	r3, [sp, #4]
 232              		.loc 2 419 0
 233 000e 1846     		mov	r0, r3
 234 0010 02B0     		add	sp, sp, #8
 235              		.cfi_def_cfa_offset 0
 236              		@ sp needed
 237 0012 7047     		bx	lr
 238              		.cfi_endproc
 239              	.LFE124:
 240              		.size	port_get_irq_status, .-port_get_irq_status
 241              		.section	.text.port_irq_enabled,"ax",%progbits
 242              		.align	1
 243              		.p2align 4,,15
 244              		.syntax unified
 245              		.thumb
 246              		.thumb_func
 247              		.fpu fpv4-sp-d16
 248              		.type	port_irq_enabled, %function
 249              	port_irq_enabled:
 250              	.LFB125:
 251              		.loc 2 430 0
 252              		.cfi_startproc
 253              		@ args = 0, pretend = 0, frame = 8
 254              		@ frame_needed = 0, uses_anonymous_args = 0
 255              		@ link register save eliminated.
 256 0000 82B0     		sub	sp, sp, #8
 257              		.cfi_def_cfa_offset 8
 258 0002 0190     		str	r0, [sp, #4]
 259              		.loc 2 433 0
 260 0004 019B     		ldr	r3, [sp, #4]
 261 0006 002B     		cmp	r3, #0
 262 0008 0CBF     		ite	eq
 263 000a 0123     		moveq	r3, #1
 264 000c 0023     		movne	r3, #0
 265 000e DBB2     		uxtb	r3, r3
 266              		.loc 2 437 0
 267 0010 1846     		mov	r0, r3
 268 0012 02B0     		add	sp, sp, #8
 269              		.cfi_def_cfa_offset 0
 270              		@ sp needed
 271 0014 7047     		bx	lr
 272              		.cfi_endproc
 273              	.LFE125:
 274              		.size	port_irq_enabled, .-port_irq_enabled
 275 0016 00BF     		.section	.text.port_is_isr_context,"ax",%progbits
 276              		.align	1
 277              		.p2align 4,,15
 278              		.syntax unified
 279              		.thumb
 280              		.thumb_func
 281              		.fpu fpv4-sp-d16
 282              		.type	port_is_isr_context, %function
 283              	port_is_isr_context:
 284              	.LFB126:
 285              		.loc 2 446 0
ARM GAS  /tmp/ccyvBxZF.s 			page 6


 286              		.cfi_startproc
 287              		@ args = 0, pretend = 0, frame = 8
 288              		@ frame_needed = 0, uses_anonymous_args = 0
 289              		@ link register save eliminated.
 290 0000 82B0     		sub	sp, sp, #8
 291              		.cfi_def_cfa_offset 8
 292              	.LBB20:
 293              	.LBB21:
 294              		.loc 3 385 0
 295              		.syntax unified
 296              	@ 385 "../ChibiOS/os/ext/CMSIS/include/core_cmFunc.h" 1
 297 0002 EFF30583 		MRS r3, ipsr
 298              	@ 0 "" 2
 299              		.thumb
 300              		.syntax unified
 301 0006 0193     		str	r3, [sp, #4]
 302              		.loc 3 386 0
 303 0008 019B     		ldr	r3, [sp, #4]
 304              	.LBE21:
 305              	.LBE20:
 306              		.loc 2 448 0
 307 000a C3F30803 		ubfx	r3, r3, #0, #9
 308 000e 002B     		cmp	r3, #0
 309 0010 14BF     		ite	ne
 310 0012 0123     		movne	r3, #1
 311 0014 0023     		moveq	r3, #0
 312 0016 DBB2     		uxtb	r3, r3
 313              		.loc 2 449 0
 314 0018 1846     		mov	r0, r3
 315 001a 02B0     		add	sp, sp, #8
 316              		.cfi_def_cfa_offset 0
 317              		@ sp needed
 318 001c 7047     		bx	lr
 319              		.cfi_endproc
 320              	.LFE126:
 321              		.size	port_is_isr_context, .-port_is_isr_context
 322 001e 00BF     		.section	.text.port_lock,"ax",%progbits
 323              		.align	1
 324              		.p2align 4,,15
 325              		.syntax unified
 326              		.thumb
 327              		.thumb_func
 328              		.fpu fpv4-sp-d16
 329              		.type	port_lock, %function
 330              	port_lock:
 331              	.LFB127:
 332              		.loc 2 456 0
 333              		.cfi_startproc
 334              		@ args = 0, pretend = 0, frame = 8
 335              		@ frame_needed = 0, uses_anonymous_args = 0
 336              		@ link register save eliminated.
 337 0000 82B0     		sub	sp, sp, #8
 338              		.cfi_def_cfa_offset 8
 339 0002 2023     		movs	r3, #32
 340 0004 0193     		str	r3, [sp, #4]
 341              	.LBB22:
 342              	.LBB23:
ARM GAS  /tmp/ccyvBxZF.s 			page 7


 343              		.loc 3 548 0
 344 0006 019B     		ldr	r3, [sp, #4]
 345              		.syntax unified
 346              	@ 548 "../ChibiOS/os/ext/CMSIS/include/core_cmFunc.h" 1
 347 0008 83F31188 		MSR basepri, r3
 348              	@ 0 "" 2
 349              		.thumb
 350              		.syntax unified
 351              	.LBE23:
 352              	.LBE22:
 353              		.loc 2 473 0
 354 000c 00BF     		nop
 355 000e 02B0     		add	sp, sp, #8
 356              		.cfi_def_cfa_offset 0
 357              		@ sp needed
 358 0010 7047     		bx	lr
 359              		.cfi_endproc
 360              	.LFE127:
 361              		.size	port_lock, .-port_lock
 362 0012 00BF     		.section	.text.port_unlock,"ax",%progbits
 363              		.align	1
 364              		.p2align 4,,15
 365              		.syntax unified
 366              		.thumb
 367              		.thumb_func
 368              		.fpu fpv4-sp-d16
 369              		.type	port_unlock, %function
 370              	port_unlock:
 371              	.LFB128:
 372              		.loc 2 480 0
 373              		.cfi_startproc
 374              		@ args = 0, pretend = 0, frame = 8
 375              		@ frame_needed = 0, uses_anonymous_args = 0
 376              		@ link register save eliminated.
 377 0000 82B0     		sub	sp, sp, #8
 378              		.cfi_def_cfa_offset 8
 379 0002 0023     		movs	r3, #0
 380 0004 0193     		str	r3, [sp, #4]
 381              	.LBB24:
 382              	.LBB25:
 383              		.loc 3 548 0
 384 0006 019B     		ldr	r3, [sp, #4]
 385              		.syntax unified
 386              	@ 548 "../ChibiOS/os/ext/CMSIS/include/core_cmFunc.h" 1
 387 0008 83F31188 		MSR basepri, r3
 388              	@ 0 "" 2
 389              		.thumb
 390              		.syntax unified
 391              	.LBE25:
 392              	.LBE24:
 393              		.loc 2 487 0
 394 000c 00BF     		nop
 395 000e 02B0     		add	sp, sp, #8
 396              		.cfi_def_cfa_offset 0
 397              		@ sp needed
 398 0010 7047     		bx	lr
 399              		.cfi_endproc
ARM GAS  /tmp/ccyvBxZF.s 			page 8


 400              	.LFE128:
 401              		.size	port_unlock, .-port_unlock
 402 0012 00BF     		.section	.text.port_lock_from_isr,"ax",%progbits
 403              		.align	1
 404              		.p2align 4,,15
 405              		.syntax unified
 406              		.thumb
 407              		.thumb_func
 408              		.fpu fpv4-sp-d16
 409              		.type	port_lock_from_isr, %function
 410              	port_lock_from_isr:
 411              	.LFB129:
 412              		.loc 2 495 0
 413              		.cfi_startproc
 414              		@ args = 0, pretend = 0, frame = 0
 415              		@ frame_needed = 0, uses_anonymous_args = 0
 416 0000 08B5     		push	{r3, lr}
 417              		.cfi_def_cfa_offset 8
 418              		.cfi_offset 3, -8
 419              		.cfi_offset 14, -4
 420              		.loc 2 497 0
 421 0002 FFF7FEFF 		bl	port_lock
 422              		.loc 2 498 0
 423 0006 00BF     		nop
 424 0008 08BD     		pop	{r3, pc}
 425              		.cfi_endproc
 426              	.LFE129:
 427              		.size	port_lock_from_isr, .-port_lock_from_isr
 428              		.section	.text.port_unlock_from_isr,"ax",%progbits
 429              		.align	1
 430              		.p2align 4,,15
 431              		.syntax unified
 432              		.thumb
 433              		.thumb_func
 434              		.fpu fpv4-sp-d16
 435              		.type	port_unlock_from_isr, %function
 436              	port_unlock_from_isr:
 437              	.LFB130:
 438              		.loc 2 506 0
 439              		.cfi_startproc
 440              		@ args = 0, pretend = 0, frame = 0
 441              		@ frame_needed = 0, uses_anonymous_args = 0
 442 0000 08B5     		push	{r3, lr}
 443              		.cfi_def_cfa_offset 8
 444              		.cfi_offset 3, -8
 445              		.cfi_offset 14, -4
 446              		.loc 2 508 0
 447 0002 FFF7FEFF 		bl	port_unlock
 448              		.loc 2 509 0
 449 0006 00BF     		nop
 450 0008 08BD     		pop	{r3, pc}
 451              		.cfi_endproc
 452              	.LFE130:
 453              		.size	port_unlock_from_isr, .-port_unlock_from_isr
 454              		.section	.text.port_disable,"ax",%progbits
 455              		.align	1
 456              		.p2align 4,,15
ARM GAS  /tmp/ccyvBxZF.s 			page 9


 457              		.syntax unified
 458              		.thumb
 459              		.thumb_func
 460              		.fpu fpv4-sp-d16
 461              		.type	port_disable, %function
 462              	port_disable:
 463              	.LFB131:
 464              		.loc 2 516 0
 465              		.cfi_startproc
 466              		@ args = 0, pretend = 0, frame = 0
 467              		@ frame_needed = 0, uses_anonymous_args = 0
 468              		@ link register save eliminated.
 469              	.LBB26:
 470              	.LBB27:
 471              		.loc 3 344 0
 472              		.syntax unified
 473              	@ 344 "../ChibiOS/os/ext/CMSIS/include/core_cmFunc.h" 1
 474 0000 72B6     		cpsid i
 475              	@ 0 "" 2
 476              		.thumb
 477              		.syntax unified
 478              	.LBE27:
 479              	.LBE26:
 480              		.loc 2 519 0
 481 0002 00BF     		nop
 482 0004 7047     		bx	lr
 483              		.cfi_endproc
 484              	.LFE131:
 485              		.size	port_disable, .-port_disable
 486 0006 00BF     		.section	.text.port_enable,"ax",%progbits
 487              		.align	1
 488              		.p2align 4,,15
 489              		.syntax unified
 490              		.thumb
 491              		.thumb_func
 492              		.fpu fpv4-sp-d16
 493              		.type	port_enable, %function
 494              	port_enable:
 495              	.LFB133:
 496              		.loc 2 540 0
 497              		.cfi_startproc
 498              		@ args = 0, pretend = 0, frame = 8
 499              		@ frame_needed = 0, uses_anonymous_args = 0
 500              		@ link register save eliminated.
 501 0000 82B0     		sub	sp, sp, #8
 502              		.cfi_def_cfa_offset 8
 503 0002 0023     		movs	r3, #0
 504 0004 0193     		str	r3, [sp, #4]
 505              	.LBB28:
 506              	.LBB29:
 507              		.loc 3 548 0
 508 0006 019B     		ldr	r3, [sp, #4]
 509              		.syntax unified
 510              	@ 548 "../ChibiOS/os/ext/CMSIS/include/core_cmFunc.h" 1
 511 0008 83F31188 		MSR basepri, r3
 512              	@ 0 "" 2
 513              		.thumb
ARM GAS  /tmp/ccyvBxZF.s 			page 10


 514              		.syntax unified
 515              	.LBE29:
 516              	.LBE28:
 517              	.LBB30:
 518              	.LBB31:
 519              		.loc 3 333 0
 520              		.syntax unified
 521              	@ 333 "../ChibiOS/os/ext/CMSIS/include/core_cmFunc.h" 1
 522 000c 62B6     		cpsie i
 523              	@ 0 "" 2
 524              		.thumb
 525              		.syntax unified
 526              	.LBE31:
 527              	.LBE30:
 528              		.loc 2 546 0
 529 000e 00BF     		nop
 530 0010 02B0     		add	sp, sp, #8
 531              		.cfi_def_cfa_offset 0
 532              		@ sp needed
 533 0012 7047     		bx	lr
 534              		.cfi_endproc
 535              	.LFE133:
 536              		.size	port_enable, .-port_enable
 537              		.section	.text.port_wait_for_interrupt,"ax",%progbits
 538              		.align	1
 539              		.p2align 4,,15
 540              		.syntax unified
 541              		.thumb
 542              		.thumb_func
 543              		.fpu fpv4-sp-d16
 544              		.type	port_wait_for_interrupt, %function
 545              	port_wait_for_interrupt:
 546              	.LFB134:
 547              		.loc 2 556 0
 548              		.cfi_startproc
 549              		@ args = 0, pretend = 0, frame = 0
 550              		@ frame_needed = 0, uses_anonymous_args = 0
 551              		@ link register save eliminated.
 552              	.LBB32:
 553              	.LBB33:
 554              		.file 4 "../ChibiOS/os/ext/CMSIS/include/core_cmInstr.h"
 555              		.loc 4 434 0
 556              		.syntax unified
 557              	@ 434 "../ChibiOS/os/ext/CMSIS/include/core_cmInstr.h" 1
 558 0000 30BF     		wfi
 559              	@ 0 "" 2
 560              		.thumb
 561              		.syntax unified
 562              	.LBE33:
 563              	.LBE32:
 564              		.loc 2 561 0
 565 0002 00BF     		nop
 566 0004 7047     		bx	lr
 567              		.cfi_endproc
 568              	.LFE134:
 569              		.size	port_wait_for_interrupt, .-port_wait_for_interrupt
 570 0006 00BF     		.section	.text.port_rt_get_counter_value,"ax",%progbits
ARM GAS  /tmp/ccyvBxZF.s 			page 11


 571              		.align	1
 572              		.p2align 4,,15
 573              		.syntax unified
 574              		.thumb
 575              		.thumb_func
 576              		.fpu fpv4-sp-d16
 577              		.type	port_rt_get_counter_value, %function
 578              	port_rt_get_counter_value:
 579              	.LFB135:
 580              		.loc 2 568 0
 581              		.cfi_startproc
 582              		@ args = 0, pretend = 0, frame = 0
 583              		@ frame_needed = 0, uses_anonymous_args = 0
 584              		@ link register save eliminated.
 585              		.loc 2 570 0
 586 0000 014B     		ldr	r3, .L30
 587 0002 5B68     		ldr	r3, [r3, #4]
 588              		.loc 2 571 0
 589 0004 1846     		mov	r0, r3
 590 0006 7047     		bx	lr
 591              	.L31:
 592              		.align	2
 593              	.L30:
 594 0008 001000E0 		.word	-536866816
 595              		.cfi_endproc
 596              	.LFE135:
 597              		.size	port_rt_get_counter_value, .-port_rt_get_counter_value
 598              		.section	.text.chSysEnable,"ax",%progbits
 599              		.align	1
 600              		.p2align 4,,15
 601              		.syntax unified
 602              		.thumb
 603              		.thumb_func
 604              		.fpu fpv4-sp-d16
 605              		.type	chSysEnable, %function
 606              	chSysEnable:
 607              	.LFB155:
 608              		.file 5 "../ChibiOS/os/rt/include/chsys.h"
 609              		.loc 5 335 0
 610              		.cfi_startproc
 611              		@ args = 0, pretend = 0, frame = 0
 612              		@ frame_needed = 0, uses_anonymous_args = 0
 613 0000 08B5     		push	{r3, lr}
 614              		.cfi_def_cfa_offset 8
 615              		.cfi_offset 3, -8
 616              		.cfi_offset 14, -4
 617              		.loc 5 337 0
 618 0002 FFF7FEFF 		bl	_dbg_check_enable
 619              		.loc 5 338 0
 620 0006 FFF7FEFF 		bl	port_enable
 621              		.loc 5 339 0
 622 000a 00BF     		nop
 623 000c 08BD     		pop	{r3, pc}
 624              		.cfi_endproc
 625              	.LFE155:
 626              		.size	chSysEnable, .-chSysEnable
 627 000e 00BF     		.section	.text.chSysLock,"ax",%progbits
ARM GAS  /tmp/ccyvBxZF.s 			page 12


 628              		.align	1
 629              		.p2align 4,,15
 630              		.syntax unified
 631              		.thumb
 632              		.thumb_func
 633              		.fpu fpv4-sp-d16
 634              		.type	chSysLock, %function
 635              	chSysLock:
 636              	.LFB156:
 637              		.loc 5 346 0
 638              		.cfi_startproc
 639              		@ args = 0, pretend = 0, frame = 0
 640              		@ frame_needed = 0, uses_anonymous_args = 0
 641 0000 08B5     		push	{r3, lr}
 642              		.cfi_def_cfa_offset 8
 643              		.cfi_offset 3, -8
 644              		.cfi_offset 14, -4
 645              		.loc 5 348 0
 646 0002 FFF7FEFF 		bl	port_lock
 647              		.loc 5 349 0
 648 0006 FFF7FEFF 		bl	_stats_start_measure_crit_thd
 649              		.loc 5 350 0
 650 000a FFF7FEFF 		bl	_dbg_check_lock
 651              		.loc 5 351 0
 652 000e 00BF     		nop
 653 0010 08BD     		pop	{r3, pc}
 654              		.cfi_endproc
 655              	.LFE156:
 656              		.size	chSysLock, .-chSysLock
 657 0012 00BF     		.section	.text.chSysUnlock,"ax",%progbits
 658              		.align	1
 659              		.p2align 4,,15
 660              		.syntax unified
 661              		.thumb
 662              		.thumb_func
 663              		.fpu fpv4-sp-d16
 664              		.type	chSysUnlock, %function
 665              	chSysUnlock:
 666              	.LFB157:
 667              		.loc 5 358 0
 668              		.cfi_startproc
 669              		@ args = 0, pretend = 0, frame = 0
 670              		@ frame_needed = 0, uses_anonymous_args = 0
 671 0000 08B5     		push	{r3, lr}
 672              		.cfi_def_cfa_offset 8
 673              		.cfi_offset 3, -8
 674              		.cfi_offset 14, -4
 675              		.loc 5 360 0
 676 0002 FFF7FEFF 		bl	_dbg_check_unlock
 677              		.loc 5 361 0
 678 0006 FFF7FEFF 		bl	_stats_stop_measure_crit_thd
 679              		.loc 5 367 0
 680 000a 0A4B     		ldr	r3, .L36
 681 000c 1B68     		ldr	r3, [r3]
 682 000e 094A     		ldr	r2, .L36
 683 0010 9342     		cmp	r3, r2
 684 0012 0AD0     		beq	.L35
ARM GAS  /tmp/ccyvBxZF.s 			page 13


 685              		.loc 5 367 0 is_stmt 0 discriminator 2
 686 0014 074B     		ldr	r3, .L36
 687 0016 9B69     		ldr	r3, [r3, #24]
 688 0018 9A68     		ldr	r2, [r3, #8]
 689 001a 064B     		ldr	r3, .L36
 690 001c 1B68     		ldr	r3, [r3]
 691 001e 9B68     		ldr	r3, [r3, #8]
 692 0020 9A42     		cmp	r2, r3
 693 0022 02D2     		bcs	.L35
 694              		.loc 5 367 0 discriminator 3
 695 0024 0448     		ldr	r0, .L36+4
 696 0026 FFF7FEFF 		bl	chSysHalt
 697              	.L35:
 698              		.loc 5 371 0 is_stmt 1
 699 002a FFF7FEFF 		bl	port_unlock
 700              		.loc 5 372 0
 701 002e 00BF     		nop
 702 0030 08BD     		pop	{r3, pc}
 703              	.L37:
 704 0032 00BF     		.align	2
 705              	.L36:
 706 0034 00000000 		.word	ch
 707 0038 00000000 		.word	__func__.7157
 708              		.cfi_endproc
 709              	.LFE157:
 710              		.size	chSysUnlock, .-chSysUnlock
 711              		.section	.text.chSysLockFromISR,"ax",%progbits
 712              		.align	1
 713              		.p2align 4,,15
 714              		.syntax unified
 715              		.thumb
 716              		.thumb_func
 717              		.fpu fpv4-sp-d16
 718              		.type	chSysLockFromISR, %function
 719              	chSysLockFromISR:
 720              	.LFB158:
 721              		.loc 5 386 0
 722              		.cfi_startproc
 723              		@ args = 0, pretend = 0, frame = 0
 724              		@ frame_needed = 0, uses_anonymous_args = 0
 725 0000 08B5     		push	{r3, lr}
 726              		.cfi_def_cfa_offset 8
 727              		.cfi_offset 3, -8
 728              		.cfi_offset 14, -4
 729              		.loc 5 388 0
 730 0002 FFF7FEFF 		bl	port_lock_from_isr
 731              		.loc 5 389 0
 732 0006 FFF7FEFF 		bl	_stats_start_measure_crit_isr
 733              		.loc 5 390 0
 734 000a FFF7FEFF 		bl	_dbg_check_lock_from_isr
 735              		.loc 5 391 0
 736 000e 00BF     		nop
 737 0010 08BD     		pop	{r3, pc}
 738              		.cfi_endproc
 739              	.LFE158:
 740              		.size	chSysLockFromISR, .-chSysLockFromISR
 741 0012 00BF     		.section	.text.chSysUnlockFromISR,"ax",%progbits
ARM GAS  /tmp/ccyvBxZF.s 			page 14


 742              		.align	1
 743              		.p2align 4,,15
 744              		.syntax unified
 745              		.thumb
 746              		.thumb_func
 747              		.fpu fpv4-sp-d16
 748              		.type	chSysUnlockFromISR, %function
 749              	chSysUnlockFromISR:
 750              	.LFB159:
 751              		.loc 5 406 0
 752              		.cfi_startproc
 753              		@ args = 0, pretend = 0, frame = 0
 754              		@ frame_needed = 0, uses_anonymous_args = 0
 755 0000 08B5     		push	{r3, lr}
 756              		.cfi_def_cfa_offset 8
 757              		.cfi_offset 3, -8
 758              		.cfi_offset 14, -4
 759              		.loc 5 408 0
 760 0002 FFF7FEFF 		bl	_dbg_check_unlock_from_isr
 761              		.loc 5 409 0
 762 0006 FFF7FEFF 		bl	_stats_stop_measure_crit_isr
 763              		.loc 5 410 0
 764 000a FFF7FEFF 		bl	port_unlock_from_isr
 765              		.loc 5 411 0
 766 000e 00BF     		nop
 767 0010 08BD     		pop	{r3, pc}
 768              		.cfi_endproc
 769              	.LFE159:
 770              		.size	chSysUnlockFromISR, .-chSysUnlockFromISR
 771 0012 00BF     		.section	.text.chVTDoTickI,"ax",%progbits
 772              		.align	1
 773              		.p2align 4,,15
 774              		.syntax unified
 775              		.thumb
 776              		.thumb_func
 777              		.fpu fpv4-sp-d16
 778              		.type	chVTDoTickI, %function
 779              	chVTDoTickI:
 780              	.LFB177:
 781              		.file 6 "../ChibiOS/os/rt/include/chvt.h"
 782              		.loc 6 502 0
 783              		.cfi_startproc
 784              		@ args = 0, pretend = 0, frame = 8
 785              		@ frame_needed = 0, uses_anonymous_args = 0
 786 0000 00B5     		push	{lr}
 787              		.cfi_def_cfa_offset 4
 788              		.cfi_offset 14, -4
 789 0002 83B0     		sub	sp, sp, #12
 790              		.cfi_def_cfa_offset 16
 791              		.loc 6 504 0
 792 0004 FFF7FEFF 		bl	chDbgCheckClassI
 793              		.loc 6 507 0
 794 0008 194B     		ldr	r3, .L45
 795 000a 9B6A     		ldr	r3, [r3, #40]
 796 000c 0133     		adds	r3, r3, #1
 797 000e 184A     		ldr	r2, .L45
 798 0010 9362     		str	r3, [r2, #40]
ARM GAS  /tmp/ccyvBxZF.s 			page 15


 799              		.loc 6 508 0
 800 0012 174B     		ldr	r3, .L45
 801 0014 DB69     		ldr	r3, [r3, #28]
 802 0016 174A     		ldr	r2, .L45+4
 803 0018 9342     		cmp	r3, r2
 804 001a 24D0     		beq	.L44
 805              		.loc 6 510 0
 806 001c 144B     		ldr	r3, .L45
 807 001e DB69     		ldr	r3, [r3, #28]
 808 0020 9A68     		ldr	r2, [r3, #8]
 809 0022 013A     		subs	r2, r2, #1
 810 0024 9A60     		str	r2, [r3, #8]
 811              		.loc 6 511 0
 812 0026 19E0     		b	.L42
 813              	.L43:
 814              	.LBB34:
 815              		.loc 6 515 0
 816 0028 114B     		ldr	r3, .L45
 817 002a DB69     		ldr	r3, [r3, #28]
 818 002c 0193     		str	r3, [sp, #4]
 819              		.loc 6 516 0
 820 002e 019B     		ldr	r3, [sp, #4]
 821 0030 DB68     		ldr	r3, [r3, #12]
 822 0032 0093     		str	r3, [sp]
 823              		.loc 6 517 0
 824 0034 019B     		ldr	r3, [sp, #4]
 825 0036 0022     		movs	r2, #0
 826 0038 DA60     		str	r2, [r3, #12]
 827              		.loc 6 518 0
 828 003a 019B     		ldr	r3, [sp, #4]
 829 003c 1B68     		ldr	r3, [r3]
 830 003e 0D4A     		ldr	r2, .L45+4
 831 0040 5A60     		str	r2, [r3, #4]
 832              		.loc 6 519 0
 833 0042 019B     		ldr	r3, [sp, #4]
 834 0044 1B68     		ldr	r3, [r3]
 835 0046 0A4A     		ldr	r2, .L45
 836 0048 D361     		str	r3, [r2, #28]
 837              		.loc 6 520 0
 838 004a FFF7FEFF 		bl	chSysUnlockFromISR
 839              		.loc 6 521 0
 840 004e 019B     		ldr	r3, [sp, #4]
 841 0050 1A69     		ldr	r2, [r3, #16]
 842 0052 009B     		ldr	r3, [sp]
 843 0054 1046     		mov	r0, r2
 844 0056 9847     		blx	r3
 845              	.LVL0:
 846              		.loc 6 522 0
 847 0058 FFF7FEFF 		bl	chSysLockFromISR
 848              	.L42:
 849              	.LBE34:
 850              		.loc 6 511 0
 851 005c 044B     		ldr	r3, .L45
 852 005e DB69     		ldr	r3, [r3, #28]
 853 0060 9B68     		ldr	r3, [r3, #8]
 854 0062 002B     		cmp	r3, #0
 855 0064 E0D0     		beq	.L43
ARM GAS  /tmp/ccyvBxZF.s 			page 16


 856              	.L44:
 857              		.loc 6 587 0
 858 0066 00BF     		nop
 859 0068 03B0     		add	sp, sp, #12
 860              		.cfi_def_cfa_offset 4
 861              		@ sp needed
 862 006a 5DF804FB 		ldr	pc, [sp], #4
 863              	.L46:
 864 006e 00BF     		.align	2
 865              	.L45:
 866 0070 00000000 		.word	ch
 867 0074 1C000000 		.word	ch+28
 868              		.cfi_endproc
 869              	.LFE177:
 870              		.size	chVTDoTickI, .-chVTDoTickI
 871              		.section	.text.chRegSetThreadName,"ax",%progbits
 872              		.align	1
 873              		.p2align 4,,15
 874              		.syntax unified
 875              		.thumb
 876              		.thumb_func
 877              		.fpu fpv4-sp-d16
 878              		.type	chRegSetThreadName, %function
 879              	chRegSetThreadName:
 880              	.LFB187:
 881              		.file 7 "../ChibiOS/os/rt/include/chregistry.h"
 882              		.loc 7 132 0
 883              		.cfi_startproc
 884              		@ args = 0, pretend = 0, frame = 8
 885              		@ frame_needed = 0, uses_anonymous_args = 0
 886              		@ link register save eliminated.
 887 0000 82B0     		sub	sp, sp, #8
 888              		.cfi_def_cfa_offset 8
 889 0002 0190     		str	r0, [sp, #4]
 890              		.loc 7 135 0
 891 0004 034B     		ldr	r3, .L48
 892 0006 9B69     		ldr	r3, [r3, #24]
 893 0008 019A     		ldr	r2, [sp, #4]
 894 000a 9A61     		str	r2, [r3, #24]
 895              		.loc 7 139 0
 896 000c 00BF     		nop
 897 000e 02B0     		add	sp, sp, #8
 898              		.cfi_def_cfa_offset 0
 899              		@ sp needed
 900 0010 7047     		bx	lr
 901              	.L49:
 902 0012 00BF     		.align	2
 903              	.L48:
 904 0014 00000000 		.word	ch
 905              		.cfi_endproc
 906              	.LFE187:
 907              		.size	chRegSetThreadName, .-chRegSetThreadName
 908              		.section	.text.chRegSetThreadNameX,"ax",%progbits
 909              		.align	1
 910              		.p2align 4,,15
 911              		.syntax unified
 912              		.thumb
ARM GAS  /tmp/ccyvBxZF.s 			page 17


 913              		.thumb_func
 914              		.fpu fpv4-sp-d16
 915              		.type	chRegSetThreadNameX, %function
 916              	chRegSetThreadNameX:
 917              	.LFB189:
 918              		.loc 7 172 0
 919              		.cfi_startproc
 920              		@ args = 0, pretend = 0, frame = 8
 921              		@ frame_needed = 0, uses_anonymous_args = 0
 922              		@ link register save eliminated.
 923 0000 82B0     		sub	sp, sp, #8
 924              		.cfi_def_cfa_offset 8
 925 0002 0190     		str	r0, [sp, #4]
 926 0004 0091     		str	r1, [sp]
 927              		.loc 7 175 0
 928 0006 019B     		ldr	r3, [sp, #4]
 929 0008 009A     		ldr	r2, [sp]
 930 000a 9A61     		str	r2, [r3, #24]
 931              		.loc 7 180 0
 932 000c 00BF     		nop
 933 000e 02B0     		add	sp, sp, #8
 934              		.cfi_def_cfa_offset 0
 935              		@ sp needed
 936 0010 7047     		bx	lr
 937              		.cfi_endproc
 938              	.LFE189:
 939              		.size	chRegSetThreadNameX, .-chRegSetThreadNameX
 940 0012 00BF     		.section	.text._idle_thread,"ax",%progbits
 941              		.align	1
 942              		.p2align 4,,15
 943              		.syntax unified
 944              		.thumb
 945              		.thumb_func
 946              		.fpu fpv4-sp-d16
 947              		.type	_idle_thread, %function
 948              	_idle_thread:
 949              	.LFB231:
 950              		.file 8 "../ChibiOS/os/rt/src/chsys.c"
 951              		.loc 8 65 0
 952              		.cfi_startproc
 953              		@ args = 0, pretend = 0, frame = 8
 954              		@ frame_needed = 0, uses_anonymous_args = 0
 955 0000 00B5     		push	{lr}
 956              		.cfi_def_cfa_offset 4
 957              		.cfi_offset 14, -4
 958 0002 83B0     		sub	sp, sp, #12
 959              		.cfi_def_cfa_offset 16
 960 0004 0190     		str	r0, [sp, #4]
 961              	.L52:
 962              		.loc 8 72 0 discriminator 1
 963 0006 FFF7FEFF 		bl	port_wait_for_interrupt
 964 000a FCE7     		b	.L52
 965              		.cfi_endproc
 966              	.LFE231:
 967              		.size	_idle_thread, .-_idle_thread
 968              		.section	.rodata
 969              		.align	2
ARM GAS  /tmp/ccyvBxZF.s 			page 18


 970              	.LC0:
 971 0000 69646C65 		.ascii	"idle\000"
 971      00
 972              		.section	.text.chSysInit,"ax",%progbits
 973              		.align	1
 974              		.p2align 4,,15
 975              		.global	chSysInit
 976              		.syntax unified
 977              		.thumb
 978              		.thumb_func
 979              		.fpu fpv4-sp-d16
 980              		.type	chSysInit, %function
 981              	chSysInit:
 982              	.LFB232:
 983              		.loc 8 93 0
 984              		.cfi_startproc
 985              		@ args = 0, pretend = 0, frame = 8
 986              		@ frame_needed = 0, uses_anonymous_args = 0
 987 0000 00B5     		push	{lr}
 988              		.cfi_def_cfa_offset 4
 989              		.cfi_offset 14, -4
 990 0002 85B0     		sub	sp, sp, #20
 991              		.cfi_def_cfa_offset 24
 992              		.loc 8 98 0
 993 0004 FFF7FEFF 		bl	port_init
 994              		.loc 8 99 0
 995 0008 FFF7FEFF 		bl	_scheduler_init
 996              		.loc 8 100 0
 997 000c FFF7FEFF 		bl	_vt_init
 998              		.loc 8 102 0
 999 0010 FFF7FEFF 		bl	_tm_init
 1000              		.loc 8 105 0
 1001 0014 FFF7FEFF 		bl	_core_init
 1002              		.loc 8 108 0
 1003 0018 FFF7FEFF 		bl	_heap_init
 1004              		.loc 8 111 0
 1005 001c FFF7FEFF 		bl	_stats_init
 1006              		.loc 8 119 0
 1007 0020 4021     		movs	r1, #64
 1008 0022 1648     		ldr	r0, .L54
 1009 0024 FFF7FEFF 		bl	_thread_init
 1010 0028 0246     		mov	r2, r0
 1011 002a 154B     		ldr	r3, .L54+4
 1012 002c 9A61     		str	r2, [r3, #24]
 1013              		.loc 8 125 0
 1014 002e 144B     		ldr	r3, .L54+4
 1015 0030 9B69     		ldr	r3, [r3, #24]
 1016 0032 0122     		movs	r2, #1
 1017 0034 83F82020 		strb	r2, [r3, #32]
 1018              		.loc 8 129 0
 1019 0038 114B     		ldr	r3, .L54+4
 1020 003a 9B69     		ldr	r3, [r3, #24]
 1021 003c 114A     		ldr	r2, .L54+8
 1022 003e DA61     		str	r2, [r3, #28]
 1023              		.loc 8 134 0
 1024 0040 0F4B     		ldr	r3, .L54+4
 1025 0042 9B69     		ldr	r3, [r3, #24]
ARM GAS  /tmp/ccyvBxZF.s 			page 19


 1026 0044 4833     		adds	r3, r3, #72
 1027 0046 1846     		mov	r0, r3
 1028 0048 FFF7FEFF 		bl	chTMStartMeasurementX
 1029              		.loc 8 137 0
 1030 004c FFF7FEFF 		bl	chSysEnable
 1031              		.loc 8 142 0
 1032 0050 0D48     		ldr	r0, .L54+12
 1033 0052 FFF7FEFF 		bl	chRegSetThreadName
 1034              	.LBB35:
 1035              		.loc 8 150 0
 1036 0056 0023     		movs	r3, #0
 1037 0058 0093     		str	r3, [sp]
 1038 005a 0C4B     		ldr	r3, .L54+16
 1039 005c 0122     		movs	r2, #1
 1040 005e 4FF4C071 		mov	r1, #384
 1041 0062 0B48     		ldr	r0, .L54+20
 1042 0064 FFF7FEFF 		bl	chThdCreateStatic
 1043 0068 0390     		str	r0, [sp, #12]
 1044              		.loc 8 155 0
 1045 006a 0A49     		ldr	r1, .L54+24
 1046 006c 0398     		ldr	r0, [sp, #12]
 1047 006e FFF7FEFF 		bl	chRegSetThreadNameX
 1048              	.LBE35:
 1049              		.loc 8 158 0
 1050 0072 00BF     		nop
 1051 0074 05B0     		add	sp, sp, #20
 1052              		.cfi_def_cfa_offset 4
 1053              		@ sp needed
 1054 0076 5DF804FB 		ldr	pc, [sp], #4
 1055              	.L55:
 1056 007a 00BF     		.align	2
 1057              	.L54:
 1058 007c 38000000 		.word	ch+56
 1059 0080 00000000 		.word	ch
 1060 0084 00000000 		.word	__main_thread_stack_base__
 1061 0088 00000000 		.word	ch_debug
 1062 008c 00000000 		.word	_idle_thread
 1063 0090 D8000000 		.word	ch+216
 1064 0094 00000000 		.word	.LC0
 1065              		.cfi_endproc
 1066              	.LFE232:
 1067              		.size	chSysInit, .-chSysInit
 1068              		.section	.text.chSysHalt,"ax",%progbits
 1069              		.align	1
 1070              		.p2align 4,,15
 1071              		.global	chSysHalt
 1072              		.syntax unified
 1073              		.thumb
 1074              		.thumb_func
 1075              		.fpu fpv4-sp-d16
 1076              		.type	chSysHalt, %function
 1077              	chSysHalt:
 1078              	.LFB233:
 1079              		.loc 8 172 0
 1080              		.cfi_startproc
 1081              		@ args = 0, pretend = 0, frame = 8
 1082              		@ frame_needed = 0, uses_anonymous_args = 0
ARM GAS  /tmp/ccyvBxZF.s 			page 20


 1083 0000 00B5     		push	{lr}
 1084              		.cfi_def_cfa_offset 4
 1085              		.cfi_offset 14, -4
 1086 0002 83B0     		sub	sp, sp, #12
 1087              		.cfi_def_cfa_offset 16
 1088 0004 0190     		str	r0, [sp, #4]
 1089              		.loc 8 174 0
 1090 0006 FFF7FEFF 		bl	port_disable
 1091              		.loc 8 181 0
 1092 000a 024A     		ldr	r2, .L58
 1093 000c 019B     		ldr	r3, [sp, #4]
 1094 000e D362     		str	r3, [r2, #44]
 1095              	.L57:
 1096              		.loc 8 184 0 discriminator 1
 1097 0010 FEE7     		b	.L57
 1098              	.L59:
 1099 0012 00BF     		.align	2
 1100              	.L58:
 1101 0014 00000000 		.word	ch
 1102              		.cfi_endproc
 1103              	.LFE233:
 1104              		.size	chSysHalt, .-chSysHalt
 1105              		.section	.text.chSysIntegrityCheckI,"ax",%progbits
 1106              		.align	1
 1107              		.p2align 4,,15
 1108              		.global	chSysIntegrityCheckI
 1109              		.syntax unified
 1110              		.thumb
 1111              		.thumb_func
 1112              		.fpu fpv4-sp-d16
 1113              		.type	chSysIntegrityCheckI, %function
 1114              	chSysIntegrityCheckI:
 1115              	.LFB234:
 1116              		.loc 8 212 0
 1117              		.cfi_startproc
 1118              		@ args = 0, pretend = 0, frame = 24
 1119              		@ frame_needed = 0, uses_anonymous_args = 0
 1120 0000 00B5     		push	{lr}
 1121              		.cfi_def_cfa_offset 4
 1122              		.cfi_offset 14, -4
 1123 0002 87B0     		sub	sp, sp, #28
 1124              		.cfi_def_cfa_offset 32
 1125 0004 0190     		str	r0, [sp, #4]
 1126              		.loc 8 215 0
 1127 0006 FFF7FEFF 		bl	chDbgCheckClassI
 1128              		.loc 8 218 0
 1129 000a 019B     		ldr	r3, [sp, #4]
 1130 000c 03F00103 		and	r3, r3, #1
 1131 0010 002B     		cmp	r3, #0
 1132 0012 22D0     		beq	.L61
 1133              	.LBB36:
 1134              		.loc 8 222 0
 1135 0014 0023     		movs	r3, #0
 1136 0016 0593     		str	r3, [sp, #20]
 1137              		.loc 8 223 0
 1138 0018 3A4B     		ldr	r3, .L77
 1139 001a 1B68     		ldr	r3, [r3]
ARM GAS  /tmp/ccyvBxZF.s 			page 21


 1140 001c 0493     		str	r3, [sp, #16]
 1141              		.loc 8 224 0
 1142 001e 05E0     		b	.L62
 1143              	.L63:
 1144              		.loc 8 225 0
 1145 0020 059B     		ldr	r3, [sp, #20]
 1146 0022 0133     		adds	r3, r3, #1
 1147 0024 0593     		str	r3, [sp, #20]
 1148              		.loc 8 226 0
 1149 0026 049B     		ldr	r3, [sp, #16]
 1150 0028 1B68     		ldr	r3, [r3]
 1151 002a 0493     		str	r3, [sp, #16]
 1152              	.L62:
 1153              		.loc 8 224 0
 1154 002c 049B     		ldr	r3, [sp, #16]
 1155 002e 354A     		ldr	r2, .L77
 1156 0030 9342     		cmp	r3, r2
 1157 0032 F5D1     		bne	.L63
 1158              		.loc 8 230 0
 1159 0034 334B     		ldr	r3, .L77
 1160 0036 5B68     		ldr	r3, [r3, #4]
 1161 0038 0493     		str	r3, [sp, #16]
 1162              		.loc 8 231 0
 1163 003a 05E0     		b	.L64
 1164              	.L65:
 1165              		.loc 8 232 0
 1166 003c 059B     		ldr	r3, [sp, #20]
 1167 003e 013B     		subs	r3, r3, #1
 1168 0040 0593     		str	r3, [sp, #20]
 1169              		.loc 8 233 0
 1170 0042 049B     		ldr	r3, [sp, #16]
 1171 0044 5B68     		ldr	r3, [r3, #4]
 1172 0046 0493     		str	r3, [sp, #16]
 1173              	.L64:
 1174              		.loc 8 231 0
 1175 0048 049B     		ldr	r3, [sp, #16]
 1176 004a 2E4A     		ldr	r2, .L77
 1177 004c 9342     		cmp	r3, r2
 1178 004e F5D1     		bne	.L65
 1179              		.loc 8 237 0
 1180 0050 059B     		ldr	r3, [sp, #20]
 1181 0052 002B     		cmp	r3, #0
 1182 0054 01D0     		beq	.L61
 1183              		.loc 8 238 0
 1184 0056 0123     		movs	r3, #1
 1185 0058 50E0     		b	.L66
 1186              	.L61:
 1187              	.LBE36:
 1188              		.loc 8 243 0
 1189 005a 019B     		ldr	r3, [sp, #4]
 1190 005c 03F00203 		and	r3, r3, #2
 1191 0060 002B     		cmp	r3, #0
 1192 0062 22D0     		beq	.L67
 1193              	.LBB37:
 1194              		.loc 8 247 0
 1195 0064 0023     		movs	r3, #0
 1196 0066 0593     		str	r3, [sp, #20]
ARM GAS  /tmp/ccyvBxZF.s 			page 22


 1197              		.loc 8 248 0
 1198 0068 264B     		ldr	r3, .L77
 1199 006a DB69     		ldr	r3, [r3, #28]
 1200 006c 0393     		str	r3, [sp, #12]
 1201              		.loc 8 249 0
 1202 006e 05E0     		b	.L68
 1203              	.L69:
 1204              		.loc 8 250 0
 1205 0070 059B     		ldr	r3, [sp, #20]
 1206 0072 0133     		adds	r3, r3, #1
 1207 0074 0593     		str	r3, [sp, #20]
 1208              		.loc 8 251 0
 1209 0076 039B     		ldr	r3, [sp, #12]
 1210 0078 1B68     		ldr	r3, [r3]
 1211 007a 0393     		str	r3, [sp, #12]
 1212              	.L68:
 1213              		.loc 8 249 0
 1214 007c 039B     		ldr	r3, [sp, #12]
 1215 007e 224A     		ldr	r2, .L77+4
 1216 0080 9342     		cmp	r3, r2
 1217 0082 F5D1     		bne	.L69
 1218              		.loc 8 255 0
 1219 0084 1F4B     		ldr	r3, .L77
 1220 0086 1B6A     		ldr	r3, [r3, #32]
 1221 0088 0393     		str	r3, [sp, #12]
 1222              		.loc 8 256 0
 1223 008a 05E0     		b	.L70
 1224              	.L71:
 1225              		.loc 8 257 0
 1226 008c 059B     		ldr	r3, [sp, #20]
 1227 008e 013B     		subs	r3, r3, #1
 1228 0090 0593     		str	r3, [sp, #20]
 1229              		.loc 8 258 0
 1230 0092 039B     		ldr	r3, [sp, #12]
 1231 0094 5B68     		ldr	r3, [r3, #4]
 1232 0096 0393     		str	r3, [sp, #12]
 1233              	.L70:
 1234              		.loc 8 256 0
 1235 0098 039B     		ldr	r3, [sp, #12]
 1236 009a 1B4A     		ldr	r2, .L77+4
 1237 009c 9342     		cmp	r3, r2
 1238 009e F5D1     		bne	.L71
 1239              		.loc 8 262 0
 1240 00a0 059B     		ldr	r3, [sp, #20]
 1241 00a2 002B     		cmp	r3, #0
 1242 00a4 01D0     		beq	.L67
 1243              		.loc 8 263 0
 1244 00a6 0123     		movs	r3, #1
 1245 00a8 28E0     		b	.L66
 1246              	.L67:
 1247              	.LBE37:
 1248              		.loc 8 268 0
 1249 00aa 019B     		ldr	r3, [sp, #4]
 1250 00ac 03F00403 		and	r3, r3, #4
 1251 00b0 002B     		cmp	r3, #0
 1252 00b2 22D0     		beq	.L72
 1253              	.LBB38:
ARM GAS  /tmp/ccyvBxZF.s 			page 23


 1254              		.loc 8 272 0
 1255 00b4 0023     		movs	r3, #0
 1256 00b6 0593     		str	r3, [sp, #20]
 1257              		.loc 8 273 0
 1258 00b8 124B     		ldr	r3, .L77
 1259 00ba 1B69     		ldr	r3, [r3, #16]
 1260 00bc 0293     		str	r3, [sp, #8]
 1261              		.loc 8 274 0
 1262 00be 05E0     		b	.L73
 1263              	.L74:
 1264              		.loc 8 275 0
 1265 00c0 059B     		ldr	r3, [sp, #20]
 1266 00c2 0133     		adds	r3, r3, #1
 1267 00c4 0593     		str	r3, [sp, #20]
 1268              		.loc 8 276 0
 1269 00c6 029B     		ldr	r3, [sp, #8]
 1270 00c8 1B69     		ldr	r3, [r3, #16]
 1271 00ca 0293     		str	r3, [sp, #8]
 1272              	.L73:
 1273              		.loc 8 274 0
 1274 00cc 029B     		ldr	r3, [sp, #8]
 1275 00ce 0D4A     		ldr	r2, .L77
 1276 00d0 9342     		cmp	r3, r2
 1277 00d2 F5D1     		bne	.L74
 1278              		.loc 8 280 0
 1279 00d4 0B4B     		ldr	r3, .L77
 1280 00d6 5B69     		ldr	r3, [r3, #20]
 1281 00d8 0293     		str	r3, [sp, #8]
 1282              		.loc 8 281 0
 1283 00da 05E0     		b	.L75
 1284              	.L76:
 1285              		.loc 8 282 0
 1286 00dc 059B     		ldr	r3, [sp, #20]
 1287 00de 013B     		subs	r3, r3, #1
 1288 00e0 0593     		str	r3, [sp, #20]
 1289              		.loc 8 283 0
 1290 00e2 029B     		ldr	r3, [sp, #8]
 1291 00e4 5B69     		ldr	r3, [r3, #20]
 1292 00e6 0293     		str	r3, [sp, #8]
 1293              	.L75:
 1294              		.loc 8 281 0
 1295 00e8 029B     		ldr	r3, [sp, #8]
 1296 00ea 064A     		ldr	r2, .L77
 1297 00ec 9342     		cmp	r3, r2
 1298 00ee F5D1     		bne	.L76
 1299              		.loc 8 287 0
 1300 00f0 059B     		ldr	r3, [sp, #20]
 1301 00f2 002B     		cmp	r3, #0
 1302 00f4 01D0     		beq	.L72
 1303              		.loc 8 288 0
 1304 00f6 0123     		movs	r3, #1
 1305 00f8 00E0     		b	.L66
 1306              	.L72:
 1307              	.LBE38:
 1308              		.loc 8 299 0
 1309 00fa 0023     		movs	r3, #0
 1310              	.L66:
ARM GAS  /tmp/ccyvBxZF.s 			page 24


 1311              		.loc 8 300 0
 1312 00fc 1846     		mov	r0, r3
 1313 00fe 07B0     		add	sp, sp, #28
 1314              		.cfi_def_cfa_offset 4
 1315              		@ sp needed
 1316 0100 5DF804FB 		ldr	pc, [sp], #4
 1317              	.L78:
 1318              		.align	2
 1319              	.L77:
 1320 0104 00000000 		.word	ch
 1321 0108 1C000000 		.word	ch+28
 1322              		.cfi_endproc
 1323              	.LFE234:
 1324              		.size	chSysIntegrityCheckI, .-chSysIntegrityCheckI
 1325              		.section	.text.chSysTimerHandlerI,"ax",%progbits
 1326              		.align	1
 1327              		.p2align 4,,15
 1328              		.global	chSysTimerHandlerI
 1329              		.syntax unified
 1330              		.thumb
 1331              		.thumb_func
 1332              		.fpu fpv4-sp-d16
 1333              		.type	chSysTimerHandlerI, %function
 1334              	chSysTimerHandlerI:
 1335              	.LFB235:
 1336              		.loc 8 313 0
 1337              		.cfi_startproc
 1338              		@ args = 0, pretend = 0, frame = 0
 1339              		@ frame_needed = 0, uses_anonymous_args = 0
 1340 0000 08B5     		push	{r3, lr}
 1341              		.cfi_def_cfa_offset 8
 1342              		.cfi_offset 3, -8
 1343              		.cfi_offset 14, -4
 1344              		.loc 8 315 0
 1345 0002 FFF7FEFF 		bl	chDbgCheckClassI
 1346              		.loc 8 327 0
 1347 0006 FFF7FEFF 		bl	chVTDoTickI
 1348              		.loc 8 331 0
 1349 000a 00BF     		nop
 1350 000c 08BD     		pop	{r3, pc}
 1351              		.cfi_endproc
 1352              	.LFE235:
 1353              		.size	chSysTimerHandlerI, .-chSysTimerHandlerI
 1354 000e 00BF     		.section	.text.chSysGetStatusAndLockX,"ax",%progbits
 1355              		.align	1
 1356              		.p2align 4,,15
 1357              		.global	chSysGetStatusAndLockX
 1358              		.syntax unified
 1359              		.thumb
 1360              		.thumb_func
 1361              		.fpu fpv4-sp-d16
 1362              		.type	chSysGetStatusAndLockX, %function
 1363              	chSysGetStatusAndLockX:
 1364              	.LFB236:
 1365              		.loc 8 346 0
 1366              		.cfi_startproc
 1367              		@ args = 0, pretend = 0, frame = 8
ARM GAS  /tmp/ccyvBxZF.s 			page 25


 1368              		@ frame_needed = 0, uses_anonymous_args = 0
 1369 0000 00B5     		push	{lr}
 1370              		.cfi_def_cfa_offset 4
 1371              		.cfi_offset 14, -4
 1372 0002 83B0     		sub	sp, sp, #12
 1373              		.cfi_def_cfa_offset 16
 1374              		.loc 8 348 0
 1375 0004 FFF7FEFF 		bl	port_get_irq_status
 1376 0008 0190     		str	r0, [sp, #4]
 1377              		.loc 8 349 0
 1378 000a 0198     		ldr	r0, [sp, #4]
 1379 000c FFF7FEFF 		bl	port_irq_enabled
 1380 0010 0346     		mov	r3, r0
 1381 0012 002B     		cmp	r3, #0
 1382 0014 09D0     		beq	.L81
 1383              		.loc 8 350 0
 1384 0016 FFF7FEFF 		bl	port_is_isr_context
 1385 001a 0346     		mov	r3, r0
 1386 001c 002B     		cmp	r3, #0
 1387 001e 02D0     		beq	.L82
 1388              		.loc 8 351 0
 1389 0020 FFF7FEFF 		bl	chSysLockFromISR
 1390 0024 01E0     		b	.L81
 1391              	.L82:
 1392              		.loc 8 354 0
 1393 0026 FFF7FEFF 		bl	chSysLock
 1394              	.L81:
 1395              		.loc 8 357 0
 1396 002a 019B     		ldr	r3, [sp, #4]
 1397              		.loc 8 358 0
 1398 002c 1846     		mov	r0, r3
 1399 002e 03B0     		add	sp, sp, #12
 1400              		.cfi_def_cfa_offset 4
 1401              		@ sp needed
 1402 0030 5DF804FB 		ldr	pc, [sp], #4
 1403              		.cfi_endproc
 1404              	.LFE236:
 1405              		.size	chSysGetStatusAndLockX, .-chSysGetStatusAndLockX
 1406              		.section	.text.chSysRestoreStatusX,"ax",%progbits
 1407              		.align	1
 1408              		.p2align 4,,15
 1409              		.global	chSysRestoreStatusX
 1410              		.syntax unified
 1411              		.thumb
 1412              		.thumb_func
 1413              		.fpu fpv4-sp-d16
 1414              		.type	chSysRestoreStatusX, %function
 1415              	chSysRestoreStatusX:
 1416              	.LFB237:
 1417              		.loc 8 369 0
 1418              		.cfi_startproc
 1419              		@ args = 0, pretend = 0, frame = 8
 1420              		@ frame_needed = 0, uses_anonymous_args = 0
 1421 0000 00B5     		push	{lr}
 1422              		.cfi_def_cfa_offset 4
 1423              		.cfi_offset 14, -4
 1424 0002 83B0     		sub	sp, sp, #12
ARM GAS  /tmp/ccyvBxZF.s 			page 26


 1425              		.cfi_def_cfa_offset 16
 1426 0004 0190     		str	r0, [sp, #4]
 1427              		.loc 8 371 0
 1428 0006 0198     		ldr	r0, [sp, #4]
 1429 0008 FFF7FEFF 		bl	port_irq_enabled
 1430 000c 0346     		mov	r3, r0
 1431 000e 002B     		cmp	r3, #0
 1432 0010 0BD0     		beq	.L87
 1433              		.loc 8 372 0
 1434 0012 FFF7FEFF 		bl	port_is_isr_context
 1435 0016 0346     		mov	r3, r0
 1436 0018 002B     		cmp	r3, #0
 1437 001a 02D0     		beq	.L86
 1438              		.loc 8 373 0
 1439 001c FFF7FEFF 		bl	chSysUnlockFromISR
 1440              		.loc 8 380 0
 1441 0020 03E0     		b	.L87
 1442              	.L86:
 1443              		.loc 8 376 0
 1444 0022 FFF7FEFF 		bl	chSchRescheduleS
 1445              		.loc 8 377 0
 1446 0026 FFF7FEFF 		bl	chSysUnlock
 1447              	.L87:
 1448              		.loc 8 380 0
 1449 002a 00BF     		nop
 1450 002c 03B0     		add	sp, sp, #12
 1451              		.cfi_def_cfa_offset 4
 1452              		@ sp needed
 1453 002e 5DF804FB 		ldr	pc, [sp], #4
 1454              		.cfi_endproc
 1455              	.LFE237:
 1456              		.size	chSysRestoreStatusX, .-chSysRestoreStatusX
 1457 0032 00BF     		.section	.text.chSysIsCounterWithinX,"ax",%progbits
 1458              		.align	1
 1459              		.p2align 4,,15
 1460              		.global	chSysIsCounterWithinX
 1461              		.syntax unified
 1462              		.thumb
 1463              		.thumb_func
 1464              		.fpu fpv4-sp-d16
 1465              		.type	chSysIsCounterWithinX, %function
 1466              	chSysIsCounterWithinX:
 1467              	.LFB238:
 1468              		.loc 8 401 0
 1469              		.cfi_startproc
 1470              		@ args = 0, pretend = 0, frame = 16
 1471              		@ frame_needed = 0, uses_anonymous_args = 0
 1472              		@ link register save eliminated.
 1473 0000 84B0     		sub	sp, sp, #16
 1474              		.cfi_def_cfa_offset 16
 1475 0002 0390     		str	r0, [sp, #12]
 1476 0004 0291     		str	r1, [sp, #8]
 1477 0006 0192     		str	r2, [sp, #4]
 1478              		.loc 8 403 0
 1479 0008 039A     		ldr	r2, [sp, #12]
 1480 000a 029B     		ldr	r3, [sp, #8]
 1481 000c D21A     		subs	r2, r2, r3
ARM GAS  /tmp/ccyvBxZF.s 			page 27


 1482 000e 0199     		ldr	r1, [sp, #4]
 1483 0010 029B     		ldr	r3, [sp, #8]
 1484 0012 CB1A     		subs	r3, r1, r3
 1485 0014 9A42     		cmp	r2, r3
 1486 0016 34BF     		ite	cc
 1487 0018 0123     		movcc	r3, #1
 1488 001a 0023     		movcs	r3, #0
 1489 001c DBB2     		uxtb	r3, r3
 1490              		.loc 8 404 0
 1491 001e 1846     		mov	r0, r3
 1492 0020 04B0     		add	sp, sp, #16
 1493              		.cfi_def_cfa_offset 0
 1494              		@ sp needed
 1495 0022 7047     		bx	lr
 1496              		.cfi_endproc
 1497              	.LFE238:
 1498              		.size	chSysIsCounterWithinX, .-chSysIsCounterWithinX
 1499              		.section	.text.chSysPolledDelayX,"ax",%progbits
 1500              		.align	1
 1501              		.p2align 4,,15
 1502              		.global	chSysPolledDelayX
 1503              		.syntax unified
 1504              		.thumb
 1505              		.thumb_func
 1506              		.fpu fpv4-sp-d16
 1507              		.type	chSysPolledDelayX, %function
 1508              	chSysPolledDelayX:
 1509              	.LFB239:
 1510              		.loc 8 417 0
 1511              		.cfi_startproc
 1512              		@ args = 0, pretend = 0, frame = 16
 1513              		@ frame_needed = 0, uses_anonymous_args = 0
 1514 0000 00B5     		push	{lr}
 1515              		.cfi_def_cfa_offset 4
 1516              		.cfi_offset 14, -4
 1517 0002 85B0     		sub	sp, sp, #20
 1518              		.cfi_def_cfa_offset 24
 1519 0004 0190     		str	r0, [sp, #4]
 1520              		.loc 8 418 0
 1521 0006 FFF7FEFF 		bl	port_rt_get_counter_value
 1522 000a 0390     		str	r0, [sp, #12]
 1523              		.loc 8 419 0
 1524 000c 039A     		ldr	r2, [sp, #12]
 1525 000e 019B     		ldr	r3, [sp, #4]
 1526 0010 1344     		add	r3, r3, r2
 1527 0012 0293     		str	r3, [sp, #8]
 1528              		.loc 8 421 0
 1529 0014 00BF     		nop
 1530              	.L91:
 1531              		.loc 8 421 0 is_stmt 0 discriminator 1
 1532 0016 FFF7FEFF 		bl	port_rt_get_counter_value
 1533 001a 0346     		mov	r3, r0
 1534 001c 029A     		ldr	r2, [sp, #8]
 1535 001e 0399     		ldr	r1, [sp, #12]
 1536 0020 1846     		mov	r0, r3
 1537 0022 FFF7FEFF 		bl	chSysIsCounterWithinX
 1538 0026 0346     		mov	r3, r0
ARM GAS  /tmp/ccyvBxZF.s 			page 28


 1539 0028 002B     		cmp	r3, #0
 1540 002a F4D1     		bne	.L91
 1541              		.loc 8 423 0 is_stmt 1
 1542 002c 00BF     		nop
 1543 002e 05B0     		add	sp, sp, #20
 1544              		.cfi_def_cfa_offset 4
 1545              		@ sp needed
 1546 0030 5DF804FB 		ldr	pc, [sp], #4
 1547              		.cfi_endproc
 1548              	.LFE239:
 1549              		.size	chSysPolledDelayX, .-chSysPolledDelayX
 1550              		.section	.rodata.__func__.7157,"a",%progbits
 1551              		.align	2
 1552              		.type	__func__.7157, %object
 1553              		.size	__func__.7157, 12
 1554              	__func__.7157:
 1555 0000 63685379 		.ascii	"chSysUnlock\000"
 1555      73556E6C 
 1555      6F636B00 
 1556              		.text
 1557              	.Letext0:
 1558              		.file 9 "/usr/arm-none-eabi/include/machine/_default_types.h"
 1559              		.file 10 "/usr/arm-none-eabi/include/sys/_stdint.h"
 1560              		.file 11 "../ChibiOS/os/rt/ports/ARMCMx/compilers/GCC/chtypes.h"
 1561              		.file 12 "../ChibiOS/os/rt/include/chsystypes.h"
 1562              		.file 13 "../ChibiOS/os/rt/include/chschd.h"
 1563              		.file 14 "../ChibiOS/os/ext/CMSIS/ST/STM32F4xx/stm32f437xx.h"
 1564              		.file 15 "../ChibiOS/os/ext/CMSIS/ST/STM32F4xx/system_stm32f4xx.h"
 1565              		.file 16 "../ChibiOS/os/rt/ports/ARMCMx/chcore.h"
 1566              		.file 17 "../ChibiOS/os/rt/include/chtm.h"
 1567              		.file 18 "../ChibiOS/os/rt/include/chstats.h"
 1568              		.file 19 "../ChibiOS/os/rt/include/chsem.h"
 1569              		.file 20 "../ChibiOS/os/rt/include/chmtx.h"
 1570              		.file 21 "../ChibiOS/os/rt/include/chthreads.h"