ARM GAS  /tmp/cc00Xwh4.s 			page 1


   1              		.cpu cortex-m4
   2              		.eabi_attribute 27, 1
   3              		.eabi_attribute 28, 1
   4              		.eabi_attribute 20, 1
   5              		.eabi_attribute 21, 1
   6              		.eabi_attribute 23, 3
   7              		.eabi_attribute 24, 1
   8              		.eabi_attribute 25, 1
   9              		.eabi_attribute 26, 1
  10              		.eabi_attribute 30, 6
  11              		.eabi_attribute 34, 1
  12              		.eabi_attribute 18, 4
  13              		.file	"chthreads.c"
  14              		.text
  15              	.Ltext0:
  16              		.cfi_sections	.debug_frame
  17              		.section	.text.port_lock,"ax",%progbits
  18              		.align	1
  19              		.p2align 4,,15
  20              		.syntax unified
  21              		.thumb
  22              		.thumb_func
  23              		.fpu fpv4-sp-d16
  24              		.type	port_lock, %function
  25              	port_lock:
  26              	.LFB127:
  27              		.file 1 "../ChibiOS/os/rt/ports/ARMCMx/chcore_v7m.h"
  28              		.loc 1 456 0
  29              		.cfi_startproc
  30              		@ args = 0, pretend = 0, frame = 8
  31              		@ frame_needed = 0, uses_anonymous_args = 0
  32              		@ link register save eliminated.
  33 0000 82B0     		sub	sp, sp, #8
  34              		.cfi_def_cfa_offset 8
  35 0002 2023     		movs	r3, #32
  36 0004 0193     		str	r3, [sp, #4]
  37              	.LBB6:
  38              	.LBB7:
  39              		.file 2 "../ChibiOS/os/ext/CMSIS/include/core_cmFunc.h"
  40              		.loc 2 548 0
  41 0006 019B     		ldr	r3, [sp, #4]
  42              		.syntax unified
  43              	@ 548 "../ChibiOS/os/ext/CMSIS/include/core_cmFunc.h" 1
  44 0008 83F31188 		MSR basepri, r3
  45              	@ 0 "" 2
  46              		.thumb
  47              		.syntax unified
  48              	.LBE7:
  49              	.LBE6:
  50              		.loc 1 473 0
  51 000c 00BF     		nop
  52 000e 02B0     		add	sp, sp, #8
  53              		.cfi_def_cfa_offset 0
  54              		@ sp needed
  55 0010 7047     		bx	lr
  56              		.cfi_endproc
  57              	.LFE127:
ARM GAS  /tmp/cc00Xwh4.s 			page 2


  58              		.size	port_lock, .-port_lock
  59 0012 00BF     		.section	.text.port_unlock,"ax",%progbits
  60              		.align	1
  61              		.p2align 4,,15
  62              		.syntax unified
  63              		.thumb
  64              		.thumb_func
  65              		.fpu fpv4-sp-d16
  66              		.type	port_unlock, %function
  67              	port_unlock:
  68              	.LFB128:
  69              		.loc 1 480 0
  70              		.cfi_startproc
  71              		@ args = 0, pretend = 0, frame = 8
  72              		@ frame_needed = 0, uses_anonymous_args = 0
  73              		@ link register save eliminated.
  74 0000 82B0     		sub	sp, sp, #8
  75              		.cfi_def_cfa_offset 8
  76 0002 0023     		movs	r3, #0
  77 0004 0193     		str	r3, [sp, #4]
  78              	.LBB8:
  79              	.LBB9:
  80              		.loc 2 548 0
  81 0006 019B     		ldr	r3, [sp, #4]
  82              		.syntax unified
  83              	@ 548 "../ChibiOS/os/ext/CMSIS/include/core_cmFunc.h" 1
  84 0008 83F31188 		MSR basepri, r3
  85              	@ 0 "" 2
  86              		.thumb
  87              		.syntax unified
  88              	.LBE9:
  89              	.LBE8:
  90              		.loc 1 487 0
  91 000c 00BF     		nop
  92 000e 02B0     		add	sp, sp, #8
  93              		.cfi_def_cfa_offset 0
  94              		@ sp needed
  95 0010 7047     		bx	lr
  96              		.cfi_endproc
  97              	.LFE128:
  98              		.size	port_unlock, .-port_unlock
  99 0012 00BF     		.section	.text.list_init,"ax",%progbits
 100              		.align	1
 101              		.p2align 4,,15
 102              		.syntax unified
 103              		.thumb
 104              		.thumb_func
 105              		.fpu fpv4-sp-d16
 106              		.type	list_init, %function
 107              	list_init:
 108              	.LFB136:
 109              		.file 3 "../ChibiOS/os/rt/include/chschd.h"
 110              		.loc 3 564 0
 111              		.cfi_startproc
 112              		@ args = 0, pretend = 0, frame = 8
 113              		@ frame_needed = 0, uses_anonymous_args = 0
 114              		@ link register save eliminated.
ARM GAS  /tmp/cc00Xwh4.s 			page 3


 115 0000 82B0     		sub	sp, sp, #8
 116              		.cfi_def_cfa_offset 8
 117 0002 0190     		str	r0, [sp, #4]
 118              		.loc 3 566 0
 119 0004 019B     		ldr	r3, [sp, #4]
 120 0006 019A     		ldr	r2, [sp, #4]
 121 0008 1A60     		str	r2, [r3]
 122              		.loc 3 567 0
 123 000a 00BF     		nop
 124 000c 02B0     		add	sp, sp, #8
 125              		.cfi_def_cfa_offset 0
 126              		@ sp needed
 127 000e 7047     		bx	lr
 128              		.cfi_endproc
 129              	.LFE136:
 130              		.size	list_init, .-list_init
 131              		.section	.text.list_notempty,"ax",%progbits
 132              		.align	1
 133              		.p2align 4,,15
 134              		.syntax unified
 135              		.thumb
 136              		.thumb_func
 137              		.fpu fpv4-sp-d16
 138              		.type	list_notempty, %function
 139              	list_notempty:
 140              	.LFB138:
 141              		.loc 3 590 0
 142              		.cfi_startproc
 143              		@ args = 0, pretend = 0, frame = 8
 144              		@ frame_needed = 0, uses_anonymous_args = 0
 145              		@ link register save eliminated.
 146 0000 82B0     		sub	sp, sp, #8
 147              		.cfi_def_cfa_offset 8
 148 0002 0190     		str	r0, [sp, #4]
 149              		.loc 3 592 0
 150 0004 019B     		ldr	r3, [sp, #4]
 151 0006 1A68     		ldr	r2, [r3]
 152 0008 019B     		ldr	r3, [sp, #4]
 153 000a 9A42     		cmp	r2, r3
 154 000c 14BF     		ite	ne
 155 000e 0123     		movne	r3, #1
 156 0010 0023     		moveq	r3, #0
 157 0012 DBB2     		uxtb	r3, r3
 158              		.loc 3 593 0
 159 0014 1846     		mov	r0, r3
 160 0016 02B0     		add	sp, sp, #8
 161              		.cfi_def_cfa_offset 0
 162              		@ sp needed
 163 0018 7047     		bx	lr
 164              		.cfi_endproc
 165              	.LFE138:
 166              		.size	list_notempty, .-list_notempty
 167 001a 00BF     		.section	.text.queue_init,"ax",%progbits
 168              		.align	1
 169              		.p2align 4,,15
 170              		.syntax unified
 171              		.thumb
ARM GAS  /tmp/cc00Xwh4.s 			page 4


 172              		.thumb_func
 173              		.fpu fpv4-sp-d16
 174              		.type	queue_init, %function
 175              	queue_init:
 176              	.LFB139:
 177              		.loc 3 602 0
 178              		.cfi_startproc
 179              		@ args = 0, pretend = 0, frame = 8
 180              		@ frame_needed = 0, uses_anonymous_args = 0
 181              		@ link register save eliminated.
 182 0000 82B0     		sub	sp, sp, #8
 183              		.cfi_def_cfa_offset 8
 184 0002 0190     		str	r0, [sp, #4]
 185              		.loc 3 604 0
 186 0004 019B     		ldr	r3, [sp, #4]
 187 0006 019A     		ldr	r2, [sp, #4]
 188 0008 1A60     		str	r2, [r3]
 189              		.loc 3 605 0
 190 000a 019B     		ldr	r3, [sp, #4]
 191 000c 019A     		ldr	r2, [sp, #4]
 192 000e 5A60     		str	r2, [r3, #4]
 193              		.loc 3 606 0
 194 0010 00BF     		nop
 195 0012 02B0     		add	sp, sp, #8
 196              		.cfi_def_cfa_offset 0
 197              		@ sp needed
 198 0014 7047     		bx	lr
 199              		.cfi_endproc
 200              	.LFE139:
 201              		.size	queue_init, .-queue_init
 202 0016 00BF     		.section	.text.queue_notempty,"ax",%progbits
 203              		.align	1
 204              		.p2align 4,,15
 205              		.syntax unified
 206              		.thumb
 207              		.thumb_func
 208              		.fpu fpv4-sp-d16
 209              		.type	queue_notempty, %function
 210              	queue_notempty:
 211              	.LFB141:
 212              		.loc 3 629 0
 213              		.cfi_startproc
 214              		@ args = 0, pretend = 0, frame = 8
 215              		@ frame_needed = 0, uses_anonymous_args = 0
 216              		@ link register save eliminated.
 217 0000 82B0     		sub	sp, sp, #8
 218              		.cfi_def_cfa_offset 8
 219 0002 0190     		str	r0, [sp, #4]
 220              		.loc 3 631 0
 221 0004 019B     		ldr	r3, [sp, #4]
 222 0006 1A68     		ldr	r2, [r3]
 223 0008 019B     		ldr	r3, [sp, #4]
 224 000a 9A42     		cmp	r2, r3
 225 000c 14BF     		ite	ne
 226 000e 0123     		movne	r3, #1
 227 0010 0023     		moveq	r3, #0
 228 0012 DBB2     		uxtb	r3, r3
ARM GAS  /tmp/cc00Xwh4.s 			page 5


 229              		.loc 3 632 0
 230 0014 1846     		mov	r0, r3
 231 0016 02B0     		add	sp, sp, #8
 232              		.cfi_def_cfa_offset 0
 233              		@ sp needed
 234 0018 7047     		bx	lr
 235              		.cfi_endproc
 236              	.LFE141:
 237              		.size	queue_notempty, .-queue_notempty
 238 001a 00BF     		.section	.text.list_insert,"ax",%progbits
 239              		.align	1
 240              		.p2align 4,,15
 241              		.syntax unified
 242              		.thumb
 243              		.thumb_func
 244              		.fpu fpv4-sp-d16
 245              		.type	list_insert, %function
 246              	list_insert:
 247              	.LFB142:
 248              		.loc 3 637 0
 249              		.cfi_startproc
 250              		@ args = 0, pretend = 0, frame = 8
 251              		@ frame_needed = 0, uses_anonymous_args = 0
 252              		@ link register save eliminated.
 253 0000 82B0     		sub	sp, sp, #8
 254              		.cfi_def_cfa_offset 8
 255 0002 0190     		str	r0, [sp, #4]
 256 0004 0091     		str	r1, [sp]
 257              		.loc 3 639 0
 258 0006 009B     		ldr	r3, [sp]
 259 0008 1A68     		ldr	r2, [r3]
 260 000a 019B     		ldr	r3, [sp, #4]
 261 000c 1A60     		str	r2, [r3]
 262              		.loc 3 640 0
 263 000e 009B     		ldr	r3, [sp]
 264 0010 019A     		ldr	r2, [sp, #4]
 265 0012 1A60     		str	r2, [r3]
 266              		.loc 3 641 0
 267 0014 00BF     		nop
 268 0016 02B0     		add	sp, sp, #8
 269              		.cfi_def_cfa_offset 0
 270              		@ sp needed
 271 0018 7047     		bx	lr
 272              		.cfi_endproc
 273              	.LFE142:
 274              		.size	list_insert, .-list_insert
 275 001a 00BF     		.section	.text.list_remove,"ax",%progbits
 276              		.align	1
 277              		.p2align 4,,15
 278              		.syntax unified
 279              		.thumb
 280              		.thumb_func
 281              		.fpu fpv4-sp-d16
 282              		.type	list_remove, %function
 283              	list_remove:
 284              	.LFB143:
 285              		.loc 3 643 0
ARM GAS  /tmp/cc00Xwh4.s 			page 6


 286              		.cfi_startproc
 287              		@ args = 0, pretend = 0, frame = 16
 288              		@ frame_needed = 0, uses_anonymous_args = 0
 289              		@ link register save eliminated.
 290 0000 84B0     		sub	sp, sp, #16
 291              		.cfi_def_cfa_offset 16
 292 0002 0190     		str	r0, [sp, #4]
 293              		.loc 3 645 0
 294 0004 019B     		ldr	r3, [sp, #4]
 295 0006 1B68     		ldr	r3, [r3]
 296 0008 0393     		str	r3, [sp, #12]
 297              		.loc 3 646 0
 298 000a 039B     		ldr	r3, [sp, #12]
 299 000c 1A68     		ldr	r2, [r3]
 300 000e 019B     		ldr	r3, [sp, #4]
 301 0010 1A60     		str	r2, [r3]
 302              		.loc 3 648 0
 303 0012 039B     		ldr	r3, [sp, #12]
 304              		.loc 3 649 0
 305 0014 1846     		mov	r0, r3
 306 0016 04B0     		add	sp, sp, #16
 307              		.cfi_def_cfa_offset 0
 308              		@ sp needed
 309 0018 7047     		bx	lr
 310              		.cfi_endproc
 311              	.LFE143:
 312              		.size	list_remove, .-list_remove
 313 001a 00BF     		.section	.text.queue_insert,"ax",%progbits
 314              		.align	1
 315              		.p2align 4,,15
 316              		.syntax unified
 317              		.thumb
 318              		.thumb_func
 319              		.fpu fpv4-sp-d16
 320              		.type	queue_insert, %function
 321              	queue_insert:
 322              	.LFB145:
 323              		.loc 3 663 0
 324              		.cfi_startproc
 325              		@ args = 0, pretend = 0, frame = 8
 326              		@ frame_needed = 0, uses_anonymous_args = 0
 327              		@ link register save eliminated.
 328 0000 82B0     		sub	sp, sp, #8
 329              		.cfi_def_cfa_offset 8
 330 0002 0190     		str	r0, [sp, #4]
 331 0004 0091     		str	r1, [sp]
 332              		.loc 3 665 0
 333 0006 019B     		ldr	r3, [sp, #4]
 334 0008 009A     		ldr	r2, [sp]
 335 000a 1A60     		str	r2, [r3]
 336              		.loc 3 666 0
 337 000c 009B     		ldr	r3, [sp]
 338 000e 5A68     		ldr	r2, [r3, #4]
 339 0010 019B     		ldr	r3, [sp, #4]
 340 0012 5A60     		str	r2, [r3, #4]
 341              		.loc 3 667 0
 342 0014 019B     		ldr	r3, [sp, #4]
ARM GAS  /tmp/cc00Xwh4.s 			page 7


 343 0016 5B68     		ldr	r3, [r3, #4]
 344 0018 019A     		ldr	r2, [sp, #4]
 345 001a 1A60     		str	r2, [r3]
 346              		.loc 3 668 0
 347 001c 009B     		ldr	r3, [sp]
 348 001e 019A     		ldr	r2, [sp, #4]
 349 0020 5A60     		str	r2, [r3, #4]
 350              		.loc 3 669 0
 351 0022 00BF     		nop
 352 0024 02B0     		add	sp, sp, #8
 353              		.cfi_def_cfa_offset 0
 354              		@ sp needed
 355 0026 7047     		bx	lr
 356              		.cfi_endproc
 357              	.LFE145:
 358              		.size	queue_insert, .-queue_insert
 359              		.section	.text.queue_fifo_remove,"ax",%progbits
 360              		.align	1
 361              		.p2align 4,,15
 362              		.syntax unified
 363              		.thumb
 364              		.thumb_func
 365              		.fpu fpv4-sp-d16
 366              		.type	queue_fifo_remove, %function
 367              	queue_fifo_remove:
 368              	.LFB146:
 369              		.loc 3 671 0
 370              		.cfi_startproc
 371              		@ args = 0, pretend = 0, frame = 16
 372              		@ frame_needed = 0, uses_anonymous_args = 0
 373              		@ link register save eliminated.
 374 0000 84B0     		sub	sp, sp, #16
 375              		.cfi_def_cfa_offset 16
 376 0002 0190     		str	r0, [sp, #4]
 377              		.loc 3 672 0
 378 0004 019B     		ldr	r3, [sp, #4]
 379 0006 1B68     		ldr	r3, [r3]
 380 0008 0393     		str	r3, [sp, #12]
 381              		.loc 3 674 0
 382 000a 039B     		ldr	r3, [sp, #12]
 383 000c 1A68     		ldr	r2, [r3]
 384 000e 019B     		ldr	r3, [sp, #4]
 385 0010 1A60     		str	r2, [r3]
 386              		.loc 3 675 0
 387 0012 019B     		ldr	r3, [sp, #4]
 388 0014 1B68     		ldr	r3, [r3]
 389 0016 019A     		ldr	r2, [sp, #4]
 390 0018 5A60     		str	r2, [r3, #4]
 391              		.loc 3 677 0
 392 001a 039B     		ldr	r3, [sp, #12]
 393              		.loc 3 678 0
 394 001c 1846     		mov	r0, r3
 395 001e 04B0     		add	sp, sp, #16
 396              		.cfi_def_cfa_offset 0
 397              		@ sp needed
 398 0020 7047     		bx	lr
 399              		.cfi_endproc
ARM GAS  /tmp/cc00Xwh4.s 			page 8


 400              	.LFE146:
 401              		.size	queue_fifo_remove, .-queue_fifo_remove
 402 0022 00BF     		.section	.text.chSchCanYieldS,"ax",%progbits
 403              		.align	1
 404              		.p2align 4,,15
 405              		.syntax unified
 406              		.thumb
 407              		.thumb_func
 408              		.fpu fpv4-sp-d16
 409              		.type	chSchCanYieldS, %function
 410              	chSchCanYieldS:
 411              	.LFB150:
 412              		.loc 3 727 0
 413              		.cfi_startproc
 414              		@ args = 0, pretend = 0, frame = 0
 415              		@ frame_needed = 0, uses_anonymous_args = 0
 416 0000 08B5     		push	{r3, lr}
 417              		.cfi_def_cfa_offset 8
 418              		.cfi_offset 3, -8
 419              		.cfi_offset 14, -4
 420              		.loc 3 729 0
 421 0002 FFF7FEFF 		bl	chDbgCheckClassS
 422              		.loc 3 731 0
 423 0006 064B     		ldr	r3, .L17
 424 0008 1B68     		ldr	r3, [r3]
 425 000a 9A68     		ldr	r2, [r3, #8]
 426 000c 044B     		ldr	r3, .L17
 427 000e 9B69     		ldr	r3, [r3, #24]
 428 0010 9B68     		ldr	r3, [r3, #8]
 429 0012 9A42     		cmp	r2, r3
 430 0014 2CBF     		ite	cs
 431 0016 0123     		movcs	r3, #1
 432 0018 0023     		movcc	r3, #0
 433 001a DBB2     		uxtb	r3, r3
 434              		.loc 3 732 0
 435 001c 1846     		mov	r0, r3
 436 001e 08BD     		pop	{r3, pc}
 437              	.L18:
 438              		.align	2
 439              	.L17:
 440 0020 00000000 		.word	ch
 441              		.cfi_endproc
 442              	.LFE150:
 443              		.size	chSchCanYieldS, .-chSchCanYieldS
 444              		.section	.text.chSchDoYieldS,"ax",%progbits
 445              		.align	1
 446              		.p2align 4,,15
 447              		.syntax unified
 448              		.thumb
 449              		.thumb_func
 450              		.fpu fpv4-sp-d16
 451              		.type	chSchDoYieldS, %function
 452              	chSchDoYieldS:
 453              	.LFB151:
 454              		.loc 3 741 0
 455              		.cfi_startproc
 456              		@ args = 0, pretend = 0, frame = 0
ARM GAS  /tmp/cc00Xwh4.s 			page 9


 457              		@ frame_needed = 0, uses_anonymous_args = 0
 458 0000 08B5     		push	{r3, lr}
 459              		.cfi_def_cfa_offset 8
 460              		.cfi_offset 3, -8
 461              		.cfi_offset 14, -4
 462              		.loc 3 743 0
 463 0002 FFF7FEFF 		bl	chDbgCheckClassS
 464              		.loc 3 745 0
 465 0006 FFF7FEFF 		bl	chSchCanYieldS
 466 000a 0346     		mov	r3, r0
 467 000c 002B     		cmp	r3, #0
 468 000e 01D0     		beq	.L21
 469              		.loc 3 746 0
 470 0010 FFF7FEFF 		bl	chSchDoRescheduleBehind
 471              	.L21:
 472              		.loc 3 748 0
 473 0014 00BF     		nop
 474 0016 08BD     		pop	{r3, pc}
 475              		.cfi_endproc
 476              	.LFE151:
 477              		.size	chSchDoYieldS, .-chSchDoYieldS
 478              		.section	.text.chSysLock,"ax",%progbits
 479              		.align	1
 480              		.p2align 4,,15
 481              		.syntax unified
 482              		.thumb
 483              		.thumb_func
 484              		.fpu fpv4-sp-d16
 485              		.type	chSysLock, %function
 486              	chSysLock:
 487              	.LFB156:
 488              		.file 4 "../ChibiOS/os/rt/include/chsys.h"
 489              		.loc 4 346 0
 490              		.cfi_startproc
 491              		@ args = 0, pretend = 0, frame = 0
 492              		@ frame_needed = 0, uses_anonymous_args = 0
 493 0000 08B5     		push	{r3, lr}
 494              		.cfi_def_cfa_offset 8
 495              		.cfi_offset 3, -8
 496              		.cfi_offset 14, -4
 497              		.loc 4 348 0
 498 0002 FFF7FEFF 		bl	port_lock
 499              		.loc 4 349 0
 500 0006 FFF7FEFF 		bl	_stats_start_measure_crit_thd
 501              		.loc 4 350 0
 502 000a FFF7FEFF 		bl	_dbg_check_lock
 503              		.loc 4 351 0
 504 000e 00BF     		nop
 505 0010 08BD     		pop	{r3, pc}
 506              		.cfi_endproc
 507              	.LFE156:
 508              		.size	chSysLock, .-chSysLock
 509 0012 00BF     		.section	.text.chSysUnlock,"ax",%progbits
 510              		.align	1
 511              		.p2align 4,,15
 512              		.syntax unified
 513              		.thumb
ARM GAS  /tmp/cc00Xwh4.s 			page 10


 514              		.thumb_func
 515              		.fpu fpv4-sp-d16
 516              		.type	chSysUnlock, %function
 517              	chSysUnlock:
 518              	.LFB157:
 519              		.loc 4 358 0
 520              		.cfi_startproc
 521              		@ args = 0, pretend = 0, frame = 0
 522              		@ frame_needed = 0, uses_anonymous_args = 0
 523 0000 08B5     		push	{r3, lr}
 524              		.cfi_def_cfa_offset 8
 525              		.cfi_offset 3, -8
 526              		.cfi_offset 14, -4
 527              		.loc 4 360 0
 528 0002 FFF7FEFF 		bl	_dbg_check_unlock
 529              		.loc 4 361 0
 530 0006 FFF7FEFF 		bl	_stats_stop_measure_crit_thd
 531              		.loc 4 367 0
 532 000a 0A4B     		ldr	r3, .L25
 533 000c 1B68     		ldr	r3, [r3]
 534 000e 094A     		ldr	r2, .L25
 535 0010 9342     		cmp	r3, r2
 536 0012 0AD0     		beq	.L24
 537              		.loc 4 367 0 is_stmt 0 discriminator 2
 538 0014 074B     		ldr	r3, .L25
 539 0016 9B69     		ldr	r3, [r3, #24]
 540 0018 9A68     		ldr	r2, [r3, #8]
 541 001a 064B     		ldr	r3, .L25
 542 001c 1B68     		ldr	r3, [r3]
 543 001e 9B68     		ldr	r3, [r3, #8]
 544 0020 9A42     		cmp	r2, r3
 545 0022 02D2     		bcs	.L24
 546              		.loc 4 367 0 discriminator 3
 547 0024 0448     		ldr	r0, .L25+4
 548 0026 FFF7FEFF 		bl	chSysHalt
 549              	.L24:
 550              		.loc 4 371 0 is_stmt 1
 551 002a FFF7FEFF 		bl	port_unlock
 552              		.loc 4 372 0
 553 002e 00BF     		nop
 554 0030 08BD     		pop	{r3, pc}
 555              	.L26:
 556 0032 00BF     		.align	2
 557              	.L25:
 558 0034 00000000 		.word	ch
 559 0038 00000000 		.word	__func__.7157
 560              		.cfi_endproc
 561              	.LFE157:
 562              		.size	chSysUnlock, .-chSysUnlock
 563              		.section	.text.chVTGetSystemTimeX,"ax",%progbits
 564              		.align	1
 565              		.p2align 4,,15
 566              		.syntax unified
 567              		.thumb
 568              		.thumb_func
 569              		.fpu fpv4-sp-d16
 570              		.type	chVTGetSystemTimeX, %function
ARM GAS  /tmp/cc00Xwh4.s 			page 11


 571              	chVTGetSystemTimeX:
 572              	.LFB164:
 573              		.file 5 "../ChibiOS/os/rt/include/chvt.h"
 574              		.loc 5 228 0
 575              		.cfi_startproc
 576              		@ args = 0, pretend = 0, frame = 0
 577              		@ frame_needed = 0, uses_anonymous_args = 0
 578              		@ link register save eliminated.
 579              		.loc 5 231 0
 580 0000 014B     		ldr	r3, .L29
 581 0002 9B6A     		ldr	r3, [r3, #40]
 582              		.loc 5 235 0
 583 0004 1846     		mov	r0, r3
 584 0006 7047     		bx	lr
 585              	.L30:
 586              		.align	2
 587              	.L29:
 588 0008 00000000 		.word	ch
 589              		.cfi_endproc
 590              	.LFE164:
 591              		.size	chVTGetSystemTimeX, .-chVTGetSystemTimeX
 592              		.section	.text.chVTIsTimeWithinX,"ax",%progbits
 593              		.align	1
 594              		.p2align 4,,15
 595              		.syntax unified
 596              		.thumb
 597              		.thumb_func
 598              		.fpu fpv4-sp-d16
 599              		.type	chVTIsTimeWithinX, %function
 600              	chVTIsTimeWithinX:
 601              	.LFB167:
 602              		.loc 5 286 0
 603              		.cfi_startproc
 604              		@ args = 0, pretend = 0, frame = 16
 605              		@ frame_needed = 0, uses_anonymous_args = 0
 606              		@ link register save eliminated.
 607 0000 84B0     		sub	sp, sp, #16
 608              		.cfi_def_cfa_offset 16
 609 0002 0390     		str	r0, [sp, #12]
 610 0004 0291     		str	r1, [sp, #8]
 611 0006 0192     		str	r2, [sp, #4]
 612              		.loc 5 288 0
 613 0008 039A     		ldr	r2, [sp, #12]
 614 000a 029B     		ldr	r3, [sp, #8]
 615 000c D21A     		subs	r2, r2, r3
 616 000e 0199     		ldr	r1, [sp, #4]
 617 0010 029B     		ldr	r3, [sp, #8]
 618 0012 CB1A     		subs	r3, r1, r3
 619 0014 9A42     		cmp	r2, r3
 620 0016 34BF     		ite	cc
 621 0018 0123     		movcc	r3, #1
 622 001a 0023     		movcs	r3, #0
 623 001c DBB2     		uxtb	r3, r3
 624              		.loc 5 289 0
 625 001e 1846     		mov	r0, r3
 626 0020 04B0     		add	sp, sp, #16
 627              		.cfi_def_cfa_offset 0
ARM GAS  /tmp/cc00Xwh4.s 			page 12


 628              		@ sp needed
 629 0022 7047     		bx	lr
 630              		.cfi_endproc
 631              	.LFE167:
 632              		.size	chVTIsTimeWithinX, .-chVTIsTimeWithinX
 633              		.section	.text.chThdGetSelfX,"ax",%progbits
 634              		.align	1
 635              		.p2align 4,,15
 636              		.syntax unified
 637              		.thumb
 638              		.thumb_func
 639              		.fpu fpv4-sp-d16
 640              		.type	chThdGetSelfX, %function
 641              	chThdGetSelfX:
 642              	.LFB178:
 643              		.file 6 "../ChibiOS/os/rt/include/chthreads.h"
 644              		.loc 6 174 0
 645              		.cfi_startproc
 646              		@ args = 0, pretend = 0, frame = 0
 647              		@ frame_needed = 0, uses_anonymous_args = 0
 648              		@ link register save eliminated.
 649              		.loc 6 176 0
 650 0000 014B     		ldr	r3, .L35
 651 0002 9B69     		ldr	r3, [r3, #24]
 652              		.loc 6 177 0
 653 0004 1846     		mov	r0, r3
 654 0006 7047     		bx	lr
 655              	.L36:
 656              		.align	2
 657              	.L35:
 658 0008 00000000 		.word	ch
 659              		.cfi_endproc
 660              	.LFE178:
 661              		.size	chThdGetSelfX, .-chThdGetSelfX
 662              		.section	.text.chThdStartI,"ax",%progbits
 663              		.align	1
 664              		.p2align 4,,15
 665              		.syntax unified
 666              		.thumb
 667              		.thumb_func
 668              		.fpu fpv4-sp-d16
 669              		.type	chThdStartI, %function
 670              	chThdStartI:
 671              	.LFB182:
 672              		.loc 6 245 0
 673              		.cfi_startproc
 674              		@ args = 0, pretend = 0, frame = 8
 675              		@ frame_needed = 0, uses_anonymous_args = 0
 676 0000 00B5     		push	{lr}
 677              		.cfi_def_cfa_offset 4
 678              		.cfi_offset 14, -4
 679 0002 83B0     		sub	sp, sp, #12
 680              		.cfi_def_cfa_offset 16
 681 0004 0190     		str	r0, [sp, #4]
 682              		.loc 6 247 0
 683 0006 019B     		ldr	r3, [sp, #4]
 684 0008 93F82030 		ldrb	r3, [r3, #32]	@ zero_extendqisi2
ARM GAS  /tmp/cc00Xwh4.s 			page 13


 685 000c 022B     		cmp	r3, #2
 686 000e 02D0     		beq	.L38
 687              		.loc 6 247 0 is_stmt 0 discriminator 2
 688 0010 0548     		ldr	r0, .L40
 689 0012 FFF7FEFF 		bl	chSysHalt
 690              	.L38:
 691              		.loc 6 249 0 is_stmt 1
 692 0016 0198     		ldr	r0, [sp, #4]
 693 0018 FFF7FEFF 		bl	chSchReadyI
 694 001c 0346     		mov	r3, r0
 695              		.loc 6 250 0
 696 001e 1846     		mov	r0, r3
 697 0020 03B0     		add	sp, sp, #12
 698              		.cfi_def_cfa_offset 4
 699              		@ sp needed
 700 0022 5DF804FB 		ldr	pc, [sp], #4
 701              	.L41:
 702 0026 00BF     		.align	2
 703              	.L40:
 704 0028 00000000 		.word	__func__.7324
 705              		.cfi_endproc
 706              	.LFE182:
 707              		.size	chThdStartI, .-chThdStartI
 708              		.section	.text.chThdSleepS,"ax",%progbits
 709              		.align	1
 710              		.p2align 4,,15
 711              		.syntax unified
 712              		.thumb
 713              		.thumb_func
 714              		.fpu fpv4-sp-d16
 715              		.type	chThdSleepS, %function
 716              	chThdSleepS:
 717              	.LFB183:
 718              		.loc 6 264 0
 719              		.cfi_startproc
 720              		@ args = 0, pretend = 0, frame = 8
 721              		@ frame_needed = 0, uses_anonymous_args = 0
 722 0000 00B5     		push	{lr}
 723              		.cfi_def_cfa_offset 4
 724              		.cfi_offset 14, -4
 725 0002 83B0     		sub	sp, sp, #12
 726              		.cfi_def_cfa_offset 16
 727 0004 0190     		str	r0, [sp, #4]
 728              		.loc 6 266 0
 729 0006 019B     		ldr	r3, [sp, #4]
 730 0008 002B     		cmp	r3, #0
 731 000a 02D1     		bne	.L43
 732              		.loc 6 266 0 is_stmt 0 discriminator 2
 733 000c 0548     		ldr	r0, .L44
 734 000e FFF7FEFF 		bl	chSysHalt
 735              	.L43:
 736              		.loc 6 268 0 is_stmt 1
 737 0012 0199     		ldr	r1, [sp, #4]
 738 0014 0820     		movs	r0, #8
 739 0016 FFF7FEFF 		bl	chSchGoSleepTimeoutS
 740              		.loc 6 269 0
 741 001a 00BF     		nop
ARM GAS  /tmp/cc00Xwh4.s 			page 14


 742 001c 03B0     		add	sp, sp, #12
 743              		.cfi_def_cfa_offset 4
 744              		@ sp needed
 745 001e 5DF804FB 		ldr	pc, [sp], #4
 746              	.L45:
 747 0022 00BF     		.align	2
 748              	.L44:
 749 0024 00000000 		.word	__func__.7328
 750              		.cfi_endproc
 751              	.LFE183:
 752              		.size	chThdSleepS, .-chThdSleepS
 753              		.section	.text.chThdDoDequeueNextI,"ax",%progbits
 754              		.align	1
 755              		.p2align 4,,15
 756              		.syntax unified
 757              		.thumb
 758              		.thumb_func
 759              		.fpu fpv4-sp-d16
 760              		.type	chThdDoDequeueNextI, %function
 761              	chThdDoDequeueNextI:
 762              	.LFB186:
 763              		.loc 6 311 0
 764              		.cfi_startproc
 765              		@ args = 0, pretend = 0, frame = 16
 766              		@ frame_needed = 0, uses_anonymous_args = 0
 767 0000 00B5     		push	{lr}
 768              		.cfi_def_cfa_offset 4
 769              		.cfi_offset 14, -4
 770 0002 85B0     		sub	sp, sp, #20
 771              		.cfi_def_cfa_offset 24
 772 0004 0190     		str	r0, [sp, #4]
 773 0006 0091     		str	r1, [sp]
 774              		.loc 6 314 0
 775 0008 0198     		ldr	r0, [sp, #4]
 776 000a FFF7FEFF 		bl	queue_notempty
 777 000e 0346     		mov	r3, r0
 778 0010 83F00103 		eor	r3, r3, #1
 779 0014 DBB2     		uxtb	r3, r3
 780 0016 002B     		cmp	r3, #0
 781 0018 02D0     		beq	.L47
 782              		.loc 6 314 0 is_stmt 0 discriminator 2
 783 001a 0C48     		ldr	r0, .L49
 784 001c FFF7FEFF 		bl	chSysHalt
 785              	.L47:
 786              		.loc 6 316 0 is_stmt 1
 787 0020 0198     		ldr	r0, [sp, #4]
 788 0022 FFF7FEFF 		bl	queue_fifo_remove
 789 0026 0390     		str	r0, [sp, #12]
 790              		.loc 6 318 0
 791 0028 039B     		ldr	r3, [sp, #12]
 792 002a 93F82030 		ldrb	r3, [r3, #32]	@ zero_extendqisi2
 793 002e 042B     		cmp	r3, #4
 794 0030 02D0     		beq	.L48
 795              		.loc 6 318 0 is_stmt 0 discriminator 2
 796 0032 0648     		ldr	r0, .L49
 797 0034 FFF7FEFF 		bl	chSysHalt
 798              	.L48:
ARM GAS  /tmp/cc00Xwh4.s 			page 15


 799              		.loc 6 320 0 is_stmt 1
 800 0038 039B     		ldr	r3, [sp, #12]
 801 003a 009A     		ldr	r2, [sp]
 802 003c 5A62     		str	r2, [r3, #36]
 803              		.loc 6 321 0
 804 003e 0398     		ldr	r0, [sp, #12]
 805 0040 FFF7FEFF 		bl	chSchReadyI
 806              		.loc 6 322 0
 807 0044 00BF     		nop
 808 0046 05B0     		add	sp, sp, #20
 809              		.cfi_def_cfa_offset 4
 810              		@ sp needed
 811 0048 5DF804FB 		ldr	pc, [sp], #4
 812              	.L50:
 813              		.align	2
 814              	.L49:
 815 004c 00000000 		.word	__func__.7340
 816              		.cfi_endproc
 817              	.LFE186:
 818              		.size	chThdDoDequeueNextI, .-chThdDoDequeueNextI
 819              		.section	.text._thread_init,"ax",%progbits
 820              		.align	1
 821              		.p2align 4,,15
 822              		.global	_thread_init
 823              		.syntax unified
 824              		.thumb
 825              		.thumb_func
 826              		.fpu fpv4-sp-d16
 827              		.type	_thread_init, %function
 828              	_thread_init:
 829              	.LFB231:
 830              		.file 7 "../ChibiOS/os/rt/src/chthreads.c"
 831              		.loc 7 91 0
 832              		.cfi_startproc
 833              		@ args = 0, pretend = 0, frame = 8
 834              		@ frame_needed = 0, uses_anonymous_args = 0
 835 0000 00B5     		push	{lr}
 836              		.cfi_def_cfa_offset 4
 837              		.cfi_offset 14, -4
 838 0002 83B0     		sub	sp, sp, #12
 839              		.cfi_def_cfa_offset 16
 840 0004 0190     		str	r0, [sp, #4]
 841 0006 0091     		str	r1, [sp]
 842              		.loc 7 93 0
 843 0008 019B     		ldr	r3, [sp, #4]
 844 000a 009A     		ldr	r2, [sp]
 845 000c 9A60     		str	r2, [r3, #8]
 846              		.loc 7 94 0
 847 000e 019B     		ldr	r3, [sp, #4]
 848 0010 0222     		movs	r2, #2
 849 0012 83F82020 		strb	r2, [r3, #32]
 850              		.loc 7 95 0
 851 0016 019B     		ldr	r3, [sp, #4]
 852 0018 0022     		movs	r2, #0
 853 001a 83F82120 		strb	r2, [r3, #33]
 854              		.loc 7 100 0
 855 001e 019B     		ldr	r3, [sp, #4]
ARM GAS  /tmp/cc00Xwh4.s 			page 16


 856 0020 009A     		ldr	r2, [sp]
 857 0022 1A64     		str	r2, [r3, #64]
 858              		.loc 7 101 0
 859 0024 019B     		ldr	r3, [sp, #4]
 860 0026 0022     		movs	r2, #0
 861 0028 DA63     		str	r2, [r3, #60]
 862              		.loc 7 104 0
 863 002a 019B     		ldr	r3, [sp, #4]
 864 002c 0022     		movs	r2, #0
 865 002e 9A63     		str	r2, [r3, #56]
 866              		.loc 7 110 0
 867 0030 019B     		ldr	r3, [sp, #4]
 868 0032 0122     		movs	r2, #1
 869 0034 83F82220 		strb	r2, [r3, #34]
 870              		.loc 7 113 0
 871 0038 019B     		ldr	r3, [sp, #4]
 872 003a 0022     		movs	r2, #0
 873 003c 9A61     		str	r2, [r3, #24]
 874              		.loc 7 114 0
 875 003e 019B     		ldr	r3, [sp, #4]
 876 0040 124A     		ldr	r2, .L53
 877 0042 1A61     		str	r2, [r3, #16]
 878 0044 114B     		ldr	r3, .L53
 879 0046 5A69     		ldr	r2, [r3, #20]
 880 0048 019B     		ldr	r3, [sp, #4]
 881 004a 5A61     		str	r2, [r3, #20]
 882 004c 019B     		ldr	r3, [sp, #4]
 883 004e 5B69     		ldr	r3, [r3, #20]
 884 0050 019A     		ldr	r2, [sp, #4]
 885 0052 1A61     		str	r2, [r3, #16]
 886 0054 0D4A     		ldr	r2, .L53
 887 0056 019B     		ldr	r3, [sp, #4]
 888 0058 5361     		str	r3, [r2, #20]
 889              		.loc 7 117 0
 890 005a 019B     		ldr	r3, [sp, #4]
 891 005c 2833     		adds	r3, r3, #40
 892 005e 1846     		mov	r0, r3
 893 0060 FFF7FEFF 		bl	list_init
 894              		.loc 7 120 0
 895 0064 019B     		ldr	r3, [sp, #4]
 896 0066 2C33     		adds	r3, r3, #44
 897 0068 1846     		mov	r0, r3
 898 006a FFF7FEFF 		bl	queue_init
 899              		.loc 7 123 0
 900 006e 019B     		ldr	r3, [sp, #4]
 901 0070 03F16002 		add	r2, r3, #96
 902 0074 019B     		ldr	r3, [sp, #4]
 903 0076 DA61     		str	r2, [r3, #28]
 904              		.loc 7 126 0
 905 0078 019B     		ldr	r3, [sp, #4]
 906 007a 4833     		adds	r3, r3, #72
 907 007c 1846     		mov	r0, r3
 908 007e FFF7FEFF 		bl	chTMObjectInit
 909              		.loc 7 131 0
 910 0082 019B     		ldr	r3, [sp, #4]
 911              		.loc 7 132 0
 912 0084 1846     		mov	r0, r3
ARM GAS  /tmp/cc00Xwh4.s 			page 17


 913 0086 03B0     		add	sp, sp, #12
 914              		.cfi_def_cfa_offset 4
 915              		@ sp needed
 916 0088 5DF804FB 		ldr	pc, [sp], #4
 917              	.L54:
 918              		.align	2
 919              	.L53:
 920 008c 00000000 		.word	ch
 921              		.cfi_endproc
 922              	.LFE231:
 923              		.size	_thread_init, .-_thread_init
 924              		.section	.text._thread_memfill,"ax",%progbits
 925              		.align	1
 926              		.p2align 4,,15
 927              		.global	_thread_memfill
 928              		.syntax unified
 929              		.thumb
 930              		.thumb_func
 931              		.fpu fpv4-sp-d16
 932              		.type	_thread_memfill, %function
 933              	_thread_memfill:
 934              	.LFB232:
 935              		.loc 7 144 0
 936              		.cfi_startproc
 937              		@ args = 0, pretend = 0, frame = 16
 938              		@ frame_needed = 0, uses_anonymous_args = 0
 939              		@ link register save eliminated.
 940 0000 84B0     		sub	sp, sp, #16
 941              		.cfi_def_cfa_offset 16
 942 0002 0390     		str	r0, [sp, #12]
 943 0004 0291     		str	r1, [sp, #8]
 944 0006 1346     		mov	r3, r2
 945 0008 8DF80730 		strb	r3, [sp, #7]
 946              		.loc 7 146 0
 947 000c 05E0     		b	.L56
 948              	.L57:
 949              		.loc 7 147 0
 950 000e 039B     		ldr	r3, [sp, #12]
 951 0010 5A1C     		adds	r2, r3, #1
 952 0012 0392     		str	r2, [sp, #12]
 953 0014 9DF80720 		ldrb	r2, [sp, #7]
 954 0018 1A70     		strb	r2, [r3]
 955              	.L56:
 956              		.loc 7 146 0
 957 001a 039A     		ldr	r2, [sp, #12]
 958 001c 029B     		ldr	r3, [sp, #8]
 959 001e 9A42     		cmp	r2, r3
 960 0020 F5D3     		bcc	.L57
 961              		.loc 7 149 0
 962 0022 00BF     		nop
 963 0024 04B0     		add	sp, sp, #16
 964              		.cfi_def_cfa_offset 0
 965              		@ sp needed
 966 0026 7047     		bx	lr
 967              		.cfi_endproc
 968              	.LFE232:
 969              		.size	_thread_memfill, .-_thread_memfill
ARM GAS  /tmp/cc00Xwh4.s 			page 18


 970              		.section	.text.chThdCreateI,"ax",%progbits
 971              		.align	1
 972              		.p2align 4,,15
 973              		.global	chThdCreateI
 974              		.syntax unified
 975              		.thumb
 976              		.thumb_func
 977              		.fpu fpv4-sp-d16
 978              		.type	chThdCreateI, %function
 979              	chThdCreateI:
 980              	.LFB233:
 981              		.loc 7 177 0
 982              		.cfi_startproc
 983              		@ args = 4, pretend = 0, frame = 24
 984              		@ frame_needed = 0, uses_anonymous_args = 0
 985 0000 00B5     		push	{lr}
 986              		.cfi_def_cfa_offset 4
 987              		.cfi_offset 14, -4
 988 0002 87B0     		sub	sp, sp, #28
 989              		.cfi_def_cfa_offset 32
 990 0004 0390     		str	r0, [sp, #12]
 991 0006 0291     		str	r1, [sp, #8]
 992 0008 0192     		str	r2, [sp, #4]
 993 000a 0093     		str	r3, [sp]
 994              		.loc 7 180 0
 995 000c 039B     		ldr	r3, [sp, #12]
 996 000e 0593     		str	r3, [sp, #20]
 997              		.loc 7 182 0
 998 0010 FFF7FEFF 		bl	chDbgCheckClassI
 999              		.loc 7 183 0
 1000 0014 039B     		ldr	r3, [sp, #12]
 1001 0016 002B     		cmp	r3, #0
 1002 0018 09D0     		beq	.L59
 1003              		.loc 7 183 0 is_stmt 0 discriminator 3
 1004 001a 029B     		ldr	r3, [sp, #8]
 1005 001c B3F5B87F 		cmp	r3, #368
 1006 0020 05D3     		bcc	.L59
 1007              		.loc 7 183 0 discriminator 5
 1008 0022 019B     		ldr	r3, [sp, #4]
 1009 0024 7F2B     		cmp	r3, #127
 1010 0026 02D8     		bhi	.L59
 1011              		.loc 7 183 0 discriminator 7
 1012 0028 009B     		ldr	r3, [sp]
 1013 002a 002B     		cmp	r3, #0
 1014 002c 02D1     		bne	.L60
 1015              	.L59:
 1016              		.loc 7 183 0 discriminator 8
 1017 002e 0F48     		ldr	r0, .L62
 1018 0030 FFF7FEFF 		bl	chSysHalt
 1019              	.L60:
 1020              		.loc 7 186 0 is_stmt 1
 1021 0034 029B     		ldr	r3, [sp, #8]
 1022 0036 643B     		subs	r3, r3, #100
 1023 0038 039A     		ldr	r2, [sp, #12]
 1024 003a 1A44     		add	r2, r2, r3
 1025 003c 059B     		ldr	r3, [sp, #20]
 1026 003e DA60     		str	r2, [r3, #12]
ARM GAS  /tmp/cc00Xwh4.s 			page 19


 1027 0040 059B     		ldr	r3, [sp, #20]
 1028 0042 DB68     		ldr	r3, [r3, #12]
 1029 0044 009A     		ldr	r2, [sp]
 1030 0046 1A64     		str	r2, [r3, #64]
 1031 0048 059B     		ldr	r3, [sp, #20]
 1032 004a DB68     		ldr	r3, [r3, #12]
 1033 004c 089A     		ldr	r2, [sp, #32]
 1034 004e 5A64     		str	r2, [r3, #68]
 1035 0050 059B     		ldr	r3, [sp, #20]
 1036 0052 DB68     		ldr	r3, [r3, #12]
 1037 0054 064A     		ldr	r2, .L62+4
 1038 0056 1A66     		str	r2, [r3, #96]
 1039              		.loc 7 188 0
 1040 0058 0199     		ldr	r1, [sp, #4]
 1041 005a 0598     		ldr	r0, [sp, #20]
 1042 005c FFF7FEFF 		bl	_thread_init
 1043 0060 0346     		mov	r3, r0
 1044              		.loc 7 189 0
 1045 0062 1846     		mov	r0, r3
 1046 0064 07B0     		add	sp, sp, #28
 1047              		.cfi_def_cfa_offset 4
 1048              		@ sp needed
 1049 0066 5DF804FB 		ldr	pc, [sp], #4
 1050              	.L63:
 1051 006a 00BF     		.align	2
 1052              	.L62:
 1053 006c 00000000 		.word	__func__.7874
 1054 0070 00000000 		.word	_port_thread_start
 1055              		.cfi_endproc
 1056              	.LFE233:
 1057              		.size	chThdCreateI, .-chThdCreateI
 1058              		.section	.text.chThdCreateStatic,"ax",%progbits
 1059              		.align	1
 1060              		.p2align 4,,15
 1061              		.global	chThdCreateStatic
 1062              		.syntax unified
 1063              		.thumb
 1064              		.thumb_func
 1065              		.fpu fpv4-sp-d16
 1066              		.type	chThdCreateStatic, %function
 1067              	chThdCreateStatic:
 1068              	.LFB234:
 1069              		.loc 7 208 0
 1070              		.cfi_startproc
 1071              		@ args = 4, pretend = 0, frame = 24
 1072              		@ frame_needed = 0, uses_anonymous_args = 0
 1073 0000 00B5     		push	{lr}
 1074              		.cfi_def_cfa_offset 4
 1075              		.cfi_offset 14, -4
 1076 0002 89B0     		sub	sp, sp, #36
 1077              		.cfi_def_cfa_offset 40
 1078 0004 0590     		str	r0, [sp, #20]
 1079 0006 0491     		str	r1, [sp, #16]
 1080 0008 0392     		str	r2, [sp, #12]
 1081 000a 0293     		str	r3, [sp, #8]
 1082              		.loc 7 212 0
 1083 000c 059B     		ldr	r3, [sp, #20]
ARM GAS  /tmp/cc00Xwh4.s 			page 20


 1084 000e 6033     		adds	r3, r3, #96
 1085 0010 FF22     		movs	r2, #255
 1086 0012 1946     		mov	r1, r3
 1087 0014 0598     		ldr	r0, [sp, #20]
 1088 0016 FFF7FEFF 		bl	_thread_memfill
 1089              		.loc 7 215 0
 1090 001a 059B     		ldr	r3, [sp, #20]
 1091 001c 03F16000 		add	r0, r3, #96
 1092 0020 059A     		ldr	r2, [sp, #20]
 1093 0022 049B     		ldr	r3, [sp, #16]
 1094 0024 1344     		add	r3, r3, r2
 1095 0026 5522     		movs	r2, #85
 1096 0028 1946     		mov	r1, r3
 1097 002a FFF7FEFF 		bl	_thread_memfill
 1098              		.loc 7 220 0
 1099 002e FFF7FEFF 		bl	chSysLock
 1100              		.loc 7 221 0
 1101 0032 0A9B     		ldr	r3, [sp, #40]
 1102 0034 0093     		str	r3, [sp]
 1103 0036 029B     		ldr	r3, [sp, #8]
 1104 0038 039A     		ldr	r2, [sp, #12]
 1105 003a 0499     		ldr	r1, [sp, #16]
 1106 003c 0598     		ldr	r0, [sp, #20]
 1107 003e FFF7FEFF 		bl	chThdCreateI
 1108 0042 0790     		str	r0, [sp, #28]
 1109              		.loc 7 222 0
 1110 0044 0021     		movs	r1, #0
 1111 0046 0798     		ldr	r0, [sp, #28]
 1112 0048 FFF7FEFF 		bl	chSchWakeupS
 1113              		.loc 7 223 0
 1114 004c FFF7FEFF 		bl	chSysUnlock
 1115              		.loc 7 225 0
 1116 0050 079B     		ldr	r3, [sp, #28]
 1117              		.loc 7 226 0
 1118 0052 1846     		mov	r0, r3
 1119 0054 09B0     		add	sp, sp, #36
 1120              		.cfi_def_cfa_offset 4
 1121              		@ sp needed
 1122 0056 5DF804FB 		ldr	pc, [sp], #4
 1123              		.cfi_endproc
 1124              	.LFE234:
 1125              		.size	chThdCreateStatic, .-chThdCreateStatic
 1126 005a 00BF     		.section	.text.chThdStart,"ax",%progbits
 1127              		.align	1
 1128              		.p2align 4,,15
 1129              		.global	chThdStart
 1130              		.syntax unified
 1131              		.thumb
 1132              		.thumb_func
 1133              		.fpu fpv4-sp-d16
 1134              		.type	chThdStart, %function
 1135              	chThdStart:
 1136              	.LFB235:
 1137              		.loc 7 237 0
 1138              		.cfi_startproc
 1139              		@ args = 0, pretend = 0, frame = 8
 1140              		@ frame_needed = 0, uses_anonymous_args = 0
ARM GAS  /tmp/cc00Xwh4.s 			page 21


 1141 0000 00B5     		push	{lr}
 1142              		.cfi_def_cfa_offset 4
 1143              		.cfi_offset 14, -4
 1144 0002 83B0     		sub	sp, sp, #12
 1145              		.cfi_def_cfa_offset 16
 1146 0004 0190     		str	r0, [sp, #4]
 1147              		.loc 7 239 0
 1148 0006 FFF7FEFF 		bl	chSysLock
 1149              		.loc 7 240 0
 1150 000a 0198     		ldr	r0, [sp, #4]
 1151 000c FFF7FEFF 		bl	chThdStartI
 1152 0010 0190     		str	r0, [sp, #4]
 1153              		.loc 7 241 0
 1154 0012 FFF7FEFF 		bl	chSysUnlock
 1155              		.loc 7 243 0
 1156 0016 019B     		ldr	r3, [sp, #4]
 1157              		.loc 7 244 0
 1158 0018 1846     		mov	r0, r3
 1159 001a 03B0     		add	sp, sp, #12
 1160              		.cfi_def_cfa_offset 4
 1161              		@ sp needed
 1162 001c 5DF804FB 		ldr	pc, [sp], #4
 1163              		.cfi_endproc
 1164              	.LFE235:
 1165              		.size	chThdStart, .-chThdStart
 1166              		.section	.text.chThdSetPriority,"ax",%progbits
 1167              		.align	1
 1168              		.p2align 4,,15
 1169              		.global	chThdSetPriority
 1170              		.syntax unified
 1171              		.thumb
 1172              		.thumb_func
 1173              		.fpu fpv4-sp-d16
 1174              		.type	chThdSetPriority, %function
 1175              	chThdSetPriority:
 1176              	.LFB236:
 1177              		.loc 7 258 0
 1178              		.cfi_startproc
 1179              		@ args = 0, pretend = 0, frame = 16
 1180              		@ frame_needed = 0, uses_anonymous_args = 0
 1181 0000 00B5     		push	{lr}
 1182              		.cfi_def_cfa_offset 4
 1183              		.cfi_offset 14, -4
 1184 0002 85B0     		sub	sp, sp, #20
 1185              		.cfi_def_cfa_offset 24
 1186 0004 0190     		str	r0, [sp, #4]
 1187              		.loc 7 261 0
 1188 0006 019B     		ldr	r3, [sp, #4]
 1189 0008 7F2B     		cmp	r3, #127
 1190 000a 02D9     		bls	.L69
 1191              		.loc 7 261 0 is_stmt 0 discriminator 2
 1192 000c 1348     		ldr	r0, .L73
 1193 000e FFF7FEFF 		bl	chSysHalt
 1194              	.L69:
 1195              		.loc 7 263 0 is_stmt 1
 1196 0012 FFF7FEFF 		bl	chSysLock
 1197              		.loc 7 265 0
ARM GAS  /tmp/cc00Xwh4.s 			page 22


 1198 0016 124B     		ldr	r3, .L73+4
 1199 0018 9B69     		ldr	r3, [r3, #24]
 1200 001a 1B6C     		ldr	r3, [r3, #64]
 1201 001c 0393     		str	r3, [sp, #12]
 1202              		.loc 7 266 0
 1203 001e 104B     		ldr	r3, .L73+4
 1204 0020 9B69     		ldr	r3, [r3, #24]
 1205 0022 9A68     		ldr	r2, [r3, #8]
 1206 0024 0E4B     		ldr	r3, .L73+4
 1207 0026 9B69     		ldr	r3, [r3, #24]
 1208 0028 1B6C     		ldr	r3, [r3, #64]
 1209 002a 9A42     		cmp	r2, r3
 1210 002c 05D0     		beq	.L70
 1211              		.loc 7 266 0 is_stmt 0 discriminator 1
 1212 002e 0C4B     		ldr	r3, .L73+4
 1213 0030 9B69     		ldr	r3, [r3, #24]
 1214 0032 9A68     		ldr	r2, [r3, #8]
 1215 0034 019B     		ldr	r3, [sp, #4]
 1216 0036 9A42     		cmp	r2, r3
 1217 0038 03D2     		bcs	.L71
 1218              	.L70:
 1219              		.loc 7 267 0 is_stmt 1
 1220 003a 094B     		ldr	r3, .L73+4
 1221 003c 9B69     		ldr	r3, [r3, #24]
 1222 003e 019A     		ldr	r2, [sp, #4]
 1223 0040 9A60     		str	r2, [r3, #8]
 1224              	.L71:
 1225              		.loc 7 269 0
 1226 0042 074B     		ldr	r3, .L73+4
 1227 0044 9B69     		ldr	r3, [r3, #24]
 1228 0046 019A     		ldr	r2, [sp, #4]
 1229 0048 1A64     		str	r2, [r3, #64]
 1230              		.loc 7 274 0
 1231 004a FFF7FEFF 		bl	chSchRescheduleS
 1232              		.loc 7 275 0
 1233 004e FFF7FEFF 		bl	chSysUnlock
 1234              		.loc 7 277 0
 1235 0052 039B     		ldr	r3, [sp, #12]
 1236              		.loc 7 278 0
 1237 0054 1846     		mov	r0, r3
 1238 0056 05B0     		add	sp, sp, #20
 1239              		.cfi_def_cfa_offset 4
 1240              		@ sp needed
 1241 0058 5DF804FB 		ldr	pc, [sp], #4
 1242              	.L74:
 1243              		.align	2
 1244              	.L73:
 1245 005c 00000000 		.word	__func__.7890
 1246 0060 00000000 		.word	ch
 1247              		.cfi_endproc
 1248              	.LFE236:
 1249              		.size	chThdSetPriority, .-chThdSetPriority
 1250              		.section	.text.chThdTerminate,"ax",%progbits
 1251              		.align	1
 1252              		.p2align 4,,15
 1253              		.global	chThdTerminate
 1254              		.syntax unified
ARM GAS  /tmp/cc00Xwh4.s 			page 23


 1255              		.thumb
 1256              		.thumb_func
 1257              		.fpu fpv4-sp-d16
 1258              		.type	chThdTerminate, %function
 1259              	chThdTerminate:
 1260              	.LFB237:
 1261              		.loc 7 292 0
 1262              		.cfi_startproc
 1263              		@ args = 0, pretend = 0, frame = 8
 1264              		@ frame_needed = 0, uses_anonymous_args = 0
 1265 0000 00B5     		push	{lr}
 1266              		.cfi_def_cfa_offset 4
 1267              		.cfi_offset 14, -4
 1268 0002 83B0     		sub	sp, sp, #12
 1269              		.cfi_def_cfa_offset 16
 1270 0004 0190     		str	r0, [sp, #4]
 1271              		.loc 7 294 0
 1272 0006 FFF7FEFF 		bl	chSysLock
 1273              		.loc 7 295 0
 1274 000a 019B     		ldr	r3, [sp, #4]
 1275 000c 93F82130 		ldrb	r3, [r3, #33]	@ zero_extendqisi2
 1276 0010 43F00403 		orr	r3, r3, #4
 1277 0014 DAB2     		uxtb	r2, r3
 1278 0016 019B     		ldr	r3, [sp, #4]
 1279 0018 83F82120 		strb	r2, [r3, #33]
 1280              		.loc 7 296 0
 1281 001c FFF7FEFF 		bl	chSysUnlock
 1282              		.loc 7 297 0
 1283 0020 00BF     		nop
 1284 0022 03B0     		add	sp, sp, #12
 1285              		.cfi_def_cfa_offset 4
 1286              		@ sp needed
 1287 0024 5DF804FB 		ldr	pc, [sp], #4
 1288              		.cfi_endproc
 1289              	.LFE237:
 1290              		.size	chThdTerminate, .-chThdTerminate
 1291              		.section	.text.chThdSleep,"ax",%progbits
 1292              		.align	1
 1293              		.p2align 4,,15
 1294              		.global	chThdSleep
 1295              		.syntax unified
 1296              		.thumb
 1297              		.thumb_func
 1298              		.fpu fpv4-sp-d16
 1299              		.type	chThdSleep, %function
 1300              	chThdSleep:
 1301              	.LFB238:
 1302              		.loc 7 311 0
 1303              		.cfi_startproc
 1304              		@ args = 0, pretend = 0, frame = 8
 1305              		@ frame_needed = 0, uses_anonymous_args = 0
 1306 0000 00B5     		push	{lr}
 1307              		.cfi_def_cfa_offset 4
 1308              		.cfi_offset 14, -4
 1309 0002 83B0     		sub	sp, sp, #12
 1310              		.cfi_def_cfa_offset 16
 1311 0004 0190     		str	r0, [sp, #4]
ARM GAS  /tmp/cc00Xwh4.s 			page 24


 1312              		.loc 7 313 0
 1313 0006 FFF7FEFF 		bl	chSysLock
 1314              		.loc 7 314 0
 1315 000a 0198     		ldr	r0, [sp, #4]
 1316 000c FFF7FEFF 		bl	chThdSleepS
 1317              		.loc 7 315 0
 1318 0010 FFF7FEFF 		bl	chSysUnlock
 1319              		.loc 7 316 0
 1320 0014 00BF     		nop
 1321 0016 03B0     		add	sp, sp, #12
 1322              		.cfi_def_cfa_offset 4
 1323              		@ sp needed
 1324 0018 5DF804FB 		ldr	pc, [sp], #4
 1325              		.cfi_endproc
 1326              	.LFE238:
 1327              		.size	chThdSleep, .-chThdSleep
 1328              		.section	.text.chThdSleepUntil,"ax",%progbits
 1329              		.align	1
 1330              		.p2align 4,,15
 1331              		.global	chThdSleepUntil
 1332              		.syntax unified
 1333              		.thumb
 1334              		.thumb_func
 1335              		.fpu fpv4-sp-d16
 1336              		.type	chThdSleepUntil, %function
 1337              	chThdSleepUntil:
 1338              	.LFB239:
 1339              		.loc 7 331 0
 1340              		.cfi_startproc
 1341              		@ args = 0, pretend = 0, frame = 8
 1342              		@ frame_needed = 0, uses_anonymous_args = 0
 1343 0000 00B5     		push	{lr}
 1344              		.cfi_def_cfa_offset 4
 1345              		.cfi_offset 14, -4
 1346 0002 83B0     		sub	sp, sp, #12
 1347              		.cfi_def_cfa_offset 16
 1348 0004 0190     		str	r0, [sp, #4]
 1349              		.loc 7 333 0
 1350 0006 FFF7FEFF 		bl	chSysLock
 1351              		.loc 7 334 0
 1352 000a FFF7FEFF 		bl	chVTGetSystemTimeX
 1353 000e 0246     		mov	r2, r0
 1354 0010 019B     		ldr	r3, [sp, #4]
 1355 0012 9B1A     		subs	r3, r3, r2
 1356 0014 0193     		str	r3, [sp, #4]
 1357              		.loc 7 335 0
 1358 0016 019B     		ldr	r3, [sp, #4]
 1359 0018 002B     		cmp	r3, #0
 1360 001a 02D0     		beq	.L78
 1361              		.loc 7 336 0
 1362 001c 0198     		ldr	r0, [sp, #4]
 1363 001e FFF7FEFF 		bl	chThdSleepS
 1364              	.L78:
 1365              		.loc 7 338 0
 1366 0022 FFF7FEFF 		bl	chSysUnlock
 1367              		.loc 7 339 0
 1368 0026 00BF     		nop
ARM GAS  /tmp/cc00Xwh4.s 			page 25


 1369 0028 03B0     		add	sp, sp, #12
 1370              		.cfi_def_cfa_offset 4
 1371              		@ sp needed
 1372 002a 5DF804FB 		ldr	pc, [sp], #4
 1373              		.cfi_endproc
 1374              	.LFE239:
 1375              		.size	chThdSleepUntil, .-chThdSleepUntil
 1376 002e 00BF     		.section	.text.chThdSleepUntilWindowed,"ax",%progbits
 1377              		.align	1
 1378              		.p2align 4,,15
 1379              		.global	chThdSleepUntilWindowed
 1380              		.syntax unified
 1381              		.thumb
 1382              		.thumb_func
 1383              		.fpu fpv4-sp-d16
 1384              		.type	chThdSleepUntilWindowed, %function
 1385              	chThdSleepUntilWindowed:
 1386              	.LFB240:
 1387              		.loc 7 355 0
 1388              		.cfi_startproc
 1389              		@ args = 0, pretend = 0, frame = 16
 1390              		@ frame_needed = 0, uses_anonymous_args = 0
 1391 0000 00B5     		push	{lr}
 1392              		.cfi_def_cfa_offset 4
 1393              		.cfi_offset 14, -4
 1394 0002 85B0     		sub	sp, sp, #20
 1395              		.cfi_def_cfa_offset 24
 1396 0004 0190     		str	r0, [sp, #4]
 1397 0006 0091     		str	r1, [sp]
 1398              		.loc 7 358 0
 1399 0008 FFF7FEFF 		bl	chSysLock
 1400              		.loc 7 359 0
 1401 000c FFF7FEFF 		bl	chVTGetSystemTimeX
 1402 0010 0390     		str	r0, [sp, #12]
 1403              		.loc 7 360 0
 1404 0012 009A     		ldr	r2, [sp]
 1405 0014 0199     		ldr	r1, [sp, #4]
 1406 0016 0398     		ldr	r0, [sp, #12]
 1407 0018 FFF7FEFF 		bl	chVTIsTimeWithinX
 1408 001c 0346     		mov	r3, r0
 1409 001e 002B     		cmp	r3, #0
 1410 0020 05D0     		beq	.L80
 1411              		.loc 7 361 0
 1412 0022 009A     		ldr	r2, [sp]
 1413 0024 039B     		ldr	r3, [sp, #12]
 1414 0026 D31A     		subs	r3, r2, r3
 1415 0028 1846     		mov	r0, r3
 1416 002a FFF7FEFF 		bl	chThdSleepS
 1417              	.L80:
 1418              		.loc 7 363 0
 1419 002e FFF7FEFF 		bl	chSysUnlock
 1420              		.loc 7 365 0
 1421 0032 009B     		ldr	r3, [sp]
 1422              		.loc 7 366 0
 1423 0034 1846     		mov	r0, r3
 1424 0036 05B0     		add	sp, sp, #20
 1425              		.cfi_def_cfa_offset 4
ARM GAS  /tmp/cc00Xwh4.s 			page 26


 1426              		@ sp needed
 1427 0038 5DF804FB 		ldr	pc, [sp], #4
 1428              		.cfi_endproc
 1429              	.LFE240:
 1430              		.size	chThdSleepUntilWindowed, .-chThdSleepUntilWindowed
 1431              		.section	.text.chThdYield,"ax",%progbits
 1432              		.align	1
 1433              		.p2align 4,,15
 1434              		.global	chThdYield
 1435              		.syntax unified
 1436              		.thumb
 1437              		.thumb_func
 1438              		.fpu fpv4-sp-d16
 1439              		.type	chThdYield, %function
 1440              	chThdYield:
 1441              	.LFB241:
 1442              		.loc 7 375 0
 1443              		.cfi_startproc
 1444              		@ args = 0, pretend = 0, frame = 0
 1445              		@ frame_needed = 0, uses_anonymous_args = 0
 1446 0000 08B5     		push	{r3, lr}
 1447              		.cfi_def_cfa_offset 8
 1448              		.cfi_offset 3, -8
 1449              		.cfi_offset 14, -4
 1450              		.loc 7 377 0
 1451 0002 FFF7FEFF 		bl	chSysLock
 1452              		.loc 7 378 0
 1453 0006 FFF7FEFF 		bl	chSchDoYieldS
 1454              		.loc 7 379 0
 1455 000a FFF7FEFF 		bl	chSysUnlock
 1456              		.loc 7 380 0
 1457 000e 00BF     		nop
 1458 0010 08BD     		pop	{r3, pc}
 1459              		.cfi_endproc
 1460              	.LFE241:
 1461              		.size	chThdYield, .-chThdYield
 1462 0012 00BF     		.section	.text.chThdExit,"ax",%progbits
 1463              		.align	1
 1464              		.p2align 4,,15
 1465              		.global	chThdExit
 1466              		.syntax unified
 1467              		.thumb
 1468              		.thumb_func
 1469              		.fpu fpv4-sp-d16
 1470              		.type	chThdExit, %function
 1471              	chThdExit:
 1472              	.LFB242:
 1473              		.loc 7 396 0
 1474              		.cfi_startproc
 1475              		@ args = 0, pretend = 0, frame = 8
 1476              		@ frame_needed = 0, uses_anonymous_args = 0
 1477 0000 00B5     		push	{lr}
 1478              		.cfi_def_cfa_offset 4
 1479              		.cfi_offset 14, -4
 1480 0002 83B0     		sub	sp, sp, #12
 1481              		.cfi_def_cfa_offset 16
 1482 0004 0190     		str	r0, [sp, #4]
ARM GAS  /tmp/cc00Xwh4.s 			page 27


 1483              		.loc 7 398 0
 1484 0006 FFF7FEFF 		bl	chSysLock
 1485              		.loc 7 399 0
 1486 000a 0198     		ldr	r0, [sp, #4]
 1487 000c FFF7FEFF 		bl	chThdExitS
 1488              		.loc 7 401 0
 1489 0010 00BF     		nop
 1490 0012 03B0     		add	sp, sp, #12
 1491              		.cfi_def_cfa_offset 4
 1492              		@ sp needed
 1493 0014 5DF804FB 		ldr	pc, [sp], #4
 1494              		.cfi_endproc
 1495              	.LFE242:
 1496              		.size	chThdExit, .-chThdExit
 1497              		.section	.text.chThdExitS,"ax",%progbits
 1498              		.align	1
 1499              		.p2align 4,,15
 1500              		.global	chThdExitS
 1501              		.syntax unified
 1502              		.thumb
 1503              		.thumb_func
 1504              		.fpu fpv4-sp-d16
 1505              		.type	chThdExitS, %function
 1506              	chThdExitS:
 1507              	.LFB243:
 1508              		.loc 7 417 0
 1509              		.cfi_startproc
 1510              		@ args = 0, pretend = 0, frame = 16
 1511              		@ frame_needed = 0, uses_anonymous_args = 0
 1512 0000 00B5     		push	{lr}
 1513              		.cfi_def_cfa_offset 4
 1514              		.cfi_offset 14, -4
 1515 0002 85B0     		sub	sp, sp, #20
 1516              		.cfi_def_cfa_offset 24
 1517 0004 0190     		str	r0, [sp, #4]
 1518              		.loc 7 418 0
 1519 0006 194B     		ldr	r3, .L88
 1520 0008 9B69     		ldr	r3, [r3, #24]
 1521 000a 0393     		str	r3, [sp, #12]
 1522              		.loc 7 420 0
 1523 000c 039B     		ldr	r3, [sp, #12]
 1524 000e 019A     		ldr	r2, [sp, #4]
 1525 0010 5A62     		str	r2, [r3, #36]
 1526              		.loc 7 425 0
 1527 0012 08E0     		b	.L85
 1528              	.L86:
 1529              		.loc 7 426 0
 1530 0014 039B     		ldr	r3, [sp, #12]
 1531 0016 2833     		adds	r3, r3, #40
 1532 0018 1846     		mov	r0, r3
 1533 001a FFF7FEFF 		bl	list_remove
 1534 001e 0346     		mov	r3, r0
 1535 0020 1846     		mov	r0, r3
 1536 0022 FFF7FEFF 		bl	chSchReadyI
 1537              	.L85:
 1538              		.loc 7 425 0
 1539 0026 039B     		ldr	r3, [sp, #12]
ARM GAS  /tmp/cc00Xwh4.s 			page 28


 1540 0028 2833     		adds	r3, r3, #40
 1541 002a 1846     		mov	r0, r3
 1542 002c FFF7FEFF 		bl	list_notempty
 1543 0030 0346     		mov	r3, r0
 1544 0032 002B     		cmp	r3, #0
 1545 0034 EED1     		bne	.L86
 1546              		.loc 7 432 0
 1547 0036 039B     		ldr	r3, [sp, #12]
 1548 0038 93F82130 		ldrb	r3, [r3, #33]	@ zero_extendqisi2
 1549 003c 03F00303 		and	r3, r3, #3
 1550 0040 002B     		cmp	r3, #0
 1551 0042 09D1     		bne	.L87
 1552              		.loc 7 433 0
 1553 0044 039B     		ldr	r3, [sp, #12]
 1554 0046 5B69     		ldr	r3, [r3, #20]
 1555 0048 039A     		ldr	r2, [sp, #12]
 1556 004a 1269     		ldr	r2, [r2, #16]
 1557 004c 1A61     		str	r2, [r3, #16]
 1558 004e 039B     		ldr	r3, [sp, #12]
 1559 0050 1B69     		ldr	r3, [r3, #16]
 1560 0052 039A     		ldr	r2, [sp, #12]
 1561 0054 5269     		ldr	r2, [r2, #20]
 1562 0056 5A61     		str	r2, [r3, #20]
 1563              	.L87:
 1564              		.loc 7 436 0
 1565 0058 0F20     		movs	r0, #15
 1566 005a FFF7FEFF 		bl	chSchGoSleepS
 1567              		.loc 7 439 0
 1568 005e 0448     		ldr	r0, .L88+4
 1569 0060 FFF7FEFF 		bl	chSysHalt
 1570              		.loc 7 440 0
 1571 0064 00BF     		nop
 1572 0066 05B0     		add	sp, sp, #20
 1573              		.cfi_def_cfa_offset 4
 1574              		@ sp needed
 1575 0068 5DF804FB 		ldr	pc, [sp], #4
 1576              	.L89:
 1577              		.align	2
 1578              	.L88:
 1579 006c 00000000 		.word	ch
 1580 0070 00000000 		.word	__func__.7918
 1581              		.cfi_endproc
 1582              	.LFE243:
 1583              		.size	chThdExitS, .-chThdExitS
 1584              		.section	.text.chThdWait,"ax",%progbits
 1585              		.align	1
 1586              		.p2align 4,,15
 1587              		.global	chThdWait
 1588              		.syntax unified
 1589              		.thumb
 1590              		.thumb_func
 1591              		.fpu fpv4-sp-d16
 1592              		.type	chThdWait, %function
 1593              	chThdWait:
 1594              	.LFB244:
 1595              		.loc 7 474 0
 1596              		.cfi_startproc
ARM GAS  /tmp/cc00Xwh4.s 			page 29


 1597              		@ args = 0, pretend = 0, frame = 16
 1598              		@ frame_needed = 0, uses_anonymous_args = 0
 1599 0000 00B5     		push	{lr}
 1600              		.cfi_def_cfa_offset 4
 1601              		.cfi_offset 14, -4
 1602 0002 85B0     		sub	sp, sp, #20
 1603              		.cfi_def_cfa_offset 24
 1604 0004 0190     		str	r0, [sp, #4]
 1605              		.loc 7 477 0
 1606 0006 019B     		ldr	r3, [sp, #4]
 1607 0008 002B     		cmp	r3, #0
 1608 000a 02D1     		bne	.L91
 1609              		.loc 7 477 0 is_stmt 0 discriminator 2
 1610 000c 1848     		ldr	r0, .L97
 1611 000e FFF7FEFF 		bl	chSysHalt
 1612              	.L91:
 1613              		.loc 7 479 0 is_stmt 1
 1614 0012 FFF7FEFF 		bl	chSysLock
 1615              		.loc 7 480 0
 1616 0016 174B     		ldr	r3, .L97+4
 1617 0018 9A69     		ldr	r2, [r3, #24]
 1618 001a 019B     		ldr	r3, [sp, #4]
 1619 001c 9A42     		cmp	r2, r3
 1620 001e 02D1     		bne	.L96
 1621              		.loc 7 480 0 is_stmt 0 discriminator 2
 1622 0020 1348     		ldr	r0, .L97
 1623 0022 FFF7FEFF 		bl	chSysHalt
 1624              	.L96:
 1625              		.loc 7 482 0 is_stmt 1 discriminator 1
 1626 0026 019B     		ldr	r3, [sp, #4]
 1627 0028 93F82230 		ldrb	r3, [r3, #34]	@ zero_extendqisi2
 1628 002c 002B     		cmp	r3, #0
 1629 002e 02D1     		bne	.L93
 1630              		.loc 7 482 0 is_stmt 0 discriminator 2
 1631 0030 0F48     		ldr	r0, .L97
 1632 0032 FFF7FEFF 		bl	chSysHalt
 1633              	.L93:
 1634              		.loc 7 484 0 is_stmt 1
 1635 0036 019B     		ldr	r3, [sp, #4]
 1636 0038 93F82030 		ldrb	r3, [r3, #32]	@ zero_extendqisi2
 1637 003c 0F2B     		cmp	r3, #15
 1638 003e 0AD0     		beq	.L94
 1639              		.loc 7 485 0
 1640 0040 0C4B     		ldr	r3, .L97+4
 1641 0042 9A69     		ldr	r2, [r3, #24]
 1642 0044 019B     		ldr	r3, [sp, #4]
 1643 0046 2833     		adds	r3, r3, #40
 1644 0048 1946     		mov	r1, r3
 1645 004a 1046     		mov	r0, r2
 1646 004c FFF7FEFF 		bl	list_insert
 1647              		.loc 7 486 0
 1648 0050 0920     		movs	r0, #9
 1649 0052 FFF7FEFF 		bl	chSchGoSleepS
 1650              	.L94:
 1651              		.loc 7 488 0
 1652 0056 019B     		ldr	r3, [sp, #4]
 1653 0058 5B6A     		ldr	r3, [r3, #36]
ARM GAS  /tmp/cc00Xwh4.s 			page 30


 1654 005a 0393     		str	r3, [sp, #12]
 1655              		.loc 7 489 0
 1656 005c FFF7FEFF 		bl	chSysUnlock
 1657              		.loc 7 493 0
 1658 0060 0198     		ldr	r0, [sp, #4]
 1659 0062 FFF7FEFF 		bl	chThdRelease
 1660              		.loc 7 496 0
 1661 0066 039B     		ldr	r3, [sp, #12]
 1662              		.loc 7 497 0
 1663 0068 1846     		mov	r0, r3
 1664 006a 05B0     		add	sp, sp, #20
 1665              		.cfi_def_cfa_offset 4
 1666              		@ sp needed
 1667 006c 5DF804FB 		ldr	pc, [sp], #4
 1668              	.L98:
 1669              		.align	2
 1670              	.L97:
 1671 0070 00000000 		.word	__func__.7923
 1672 0074 00000000 		.word	ch
 1673              		.cfi_endproc
 1674              	.LFE244:
 1675              		.size	chThdWait, .-chThdWait
 1676              		.section	.text.chThdSuspendS,"ax",%progbits
 1677              		.align	1
 1678              		.p2align 4,,15
 1679              		.global	chThdSuspendS
 1680              		.syntax unified
 1681              		.thumb
 1682              		.thumb_func
 1683              		.fpu fpv4-sp-d16
 1684              		.type	chThdSuspendS, %function
 1685              	chThdSuspendS:
 1686              	.LFB245:
 1687              		.loc 7 510 0
 1688              		.cfi_startproc
 1689              		@ args = 0, pretend = 0, frame = 16
 1690              		@ frame_needed = 0, uses_anonymous_args = 0
 1691 0000 00B5     		push	{lr}
 1692              		.cfi_def_cfa_offset 4
 1693              		.cfi_offset 14, -4
 1694 0002 85B0     		sub	sp, sp, #20
 1695              		.cfi_def_cfa_offset 24
 1696 0004 0190     		str	r0, [sp, #4]
 1697              		.loc 7 511 0
 1698 0006 FFF7FEFF 		bl	chThdGetSelfX
 1699 000a 0390     		str	r0, [sp, #12]
 1700              		.loc 7 513 0
 1701 000c 019B     		ldr	r3, [sp, #4]
 1702 000e 1B68     		ldr	r3, [r3]
 1703 0010 002B     		cmp	r3, #0
 1704 0012 02D0     		beq	.L100
 1705              		.loc 7 513 0 is_stmt 0 discriminator 2
 1706 0014 0948     		ldr	r0, .L102
 1707 0016 FFF7FEFF 		bl	chSysHalt
 1708              	.L100:
 1709              		.loc 7 515 0 is_stmt 1
 1710 001a 019B     		ldr	r3, [sp, #4]
ARM GAS  /tmp/cc00Xwh4.s 			page 31


 1711 001c 039A     		ldr	r2, [sp, #12]
 1712 001e 1A60     		str	r2, [r3]
 1713              		.loc 7 516 0
 1714 0020 039B     		ldr	r3, [sp, #12]
 1715 0022 019A     		ldr	r2, [sp, #4]
 1716 0024 5A62     		str	r2, [r3, #36]
 1717              		.loc 7 517 0
 1718 0026 0320     		movs	r0, #3
 1719 0028 FFF7FEFF 		bl	chSchGoSleepS
 1720              		.loc 7 519 0
 1721 002c FFF7FEFF 		bl	chThdGetSelfX
 1722 0030 0346     		mov	r3, r0
 1723 0032 5B6A     		ldr	r3, [r3, #36]
 1724              		.loc 7 520 0
 1725 0034 1846     		mov	r0, r3
 1726 0036 05B0     		add	sp, sp, #20
 1727              		.cfi_def_cfa_offset 4
 1728              		@ sp needed
 1729 0038 5DF804FB 		ldr	pc, [sp], #4
 1730              	.L103:
 1731              		.align	2
 1732              	.L102:
 1733 003c 00000000 		.word	__func__.7928
 1734              		.cfi_endproc
 1735              	.LFE245:
 1736              		.size	chThdSuspendS, .-chThdSuspendS
 1737              		.section	.text.chThdSuspendTimeoutS,"ax",%progbits
 1738              		.align	1
 1739              		.p2align 4,,15
 1740              		.global	chThdSuspendTimeoutS
 1741              		.syntax unified
 1742              		.thumb
 1743              		.thumb_func
 1744              		.fpu fpv4-sp-d16
 1745              		.type	chThdSuspendTimeoutS, %function
 1746              	chThdSuspendTimeoutS:
 1747              	.LFB246:
 1748              		.loc 7 541 0
 1749              		.cfi_startproc
 1750              		@ args = 0, pretend = 0, frame = 16
 1751              		@ frame_needed = 0, uses_anonymous_args = 0
 1752 0000 00B5     		push	{lr}
 1753              		.cfi_def_cfa_offset 4
 1754              		.cfi_offset 14, -4
 1755 0002 85B0     		sub	sp, sp, #20
 1756              		.cfi_def_cfa_offset 24
 1757 0004 0190     		str	r0, [sp, #4]
 1758 0006 0091     		str	r1, [sp]
 1759              		.loc 7 542 0
 1760 0008 FFF7FEFF 		bl	chThdGetSelfX
 1761 000c 0390     		str	r0, [sp, #12]
 1762              		.loc 7 544 0
 1763 000e 019B     		ldr	r3, [sp, #4]
 1764 0010 1B68     		ldr	r3, [r3]
 1765 0012 002B     		cmp	r3, #0
 1766 0014 02D0     		beq	.L105
 1767              		.loc 7 544 0 is_stmt 0 discriminator 2
ARM GAS  /tmp/cc00Xwh4.s 			page 32


 1768 0016 0C48     		ldr	r0, .L108
 1769 0018 FFF7FEFF 		bl	chSysHalt
 1770              	.L105:
 1771              		.loc 7 546 0 is_stmt 1
 1772 001c 009B     		ldr	r3, [sp]
 1773 001e 002B     		cmp	r3, #0
 1774 0020 02D1     		bne	.L106
 1775              		.loc 7 547 0
 1776 0022 4FF0FF33 		mov	r3, #-1
 1777 0026 0AE0     		b	.L107
 1778              	.L106:
 1779              		.loc 7 550 0
 1780 0028 019B     		ldr	r3, [sp, #4]
 1781 002a 039A     		ldr	r2, [sp, #12]
 1782 002c 1A60     		str	r2, [r3]
 1783              		.loc 7 551 0
 1784 002e 039B     		ldr	r3, [sp, #12]
 1785 0030 019A     		ldr	r2, [sp, #4]
 1786 0032 5A62     		str	r2, [r3, #36]
 1787              		.loc 7 553 0
 1788 0034 0099     		ldr	r1, [sp]
 1789 0036 0320     		movs	r0, #3
 1790 0038 FFF7FEFF 		bl	chSchGoSleepTimeoutS
 1791 003c 0346     		mov	r3, r0
 1792              	.L107:
 1793              		.loc 7 554 0
 1794 003e 1846     		mov	r0, r3
 1795 0040 05B0     		add	sp, sp, #20
 1796              		.cfi_def_cfa_offset 4
 1797              		@ sp needed
 1798 0042 5DF804FB 		ldr	pc, [sp], #4
 1799              	.L109:
 1800 0046 00BF     		.align	2
 1801              	.L108:
 1802 0048 00000000 		.word	__func__.7934
 1803              		.cfi_endproc
 1804              	.LFE246:
 1805              		.size	chThdSuspendTimeoutS, .-chThdSuspendTimeoutS
 1806              		.section	.text.chThdResumeI,"ax",%progbits
 1807              		.align	1
 1808              		.p2align 4,,15
 1809              		.global	chThdResumeI
 1810              		.syntax unified
 1811              		.thumb
 1812              		.thumb_func
 1813              		.fpu fpv4-sp-d16
 1814              		.type	chThdResumeI, %function
 1815              	chThdResumeI:
 1816              	.LFB247:
 1817              		.loc 7 566 0
 1818              		.cfi_startproc
 1819              		@ args = 0, pretend = 0, frame = 16
 1820              		@ frame_needed = 0, uses_anonymous_args = 0
 1821 0000 00B5     		push	{lr}
 1822              		.cfi_def_cfa_offset 4
 1823              		.cfi_offset 14, -4
 1824 0002 85B0     		sub	sp, sp, #20
ARM GAS  /tmp/cc00Xwh4.s 			page 33


 1825              		.cfi_def_cfa_offset 24
 1826 0004 0190     		str	r0, [sp, #4]
 1827 0006 0091     		str	r1, [sp]
 1828              		.loc 7 568 0
 1829 0008 019B     		ldr	r3, [sp, #4]
 1830 000a 1B68     		ldr	r3, [r3]
 1831 000c 002B     		cmp	r3, #0
 1832 000e 13D0     		beq	.L113
 1833              	.LBB10:
 1834              		.loc 7 569 0
 1835 0010 019B     		ldr	r3, [sp, #4]
 1836 0012 1B68     		ldr	r3, [r3]
 1837 0014 0393     		str	r3, [sp, #12]
 1838              		.loc 7 571 0
 1839 0016 039B     		ldr	r3, [sp, #12]
 1840 0018 93F82030 		ldrb	r3, [r3, #32]	@ zero_extendqisi2
 1841 001c 032B     		cmp	r3, #3
 1842 001e 02D0     		beq	.L112
 1843              		.loc 7 571 0 is_stmt 0 discriminator 2
 1844 0020 0748     		ldr	r0, .L114
 1845 0022 FFF7FEFF 		bl	chSysHalt
 1846              	.L112:
 1847              		.loc 7 574 0 is_stmt 1
 1848 0026 019B     		ldr	r3, [sp, #4]
 1849 0028 0022     		movs	r2, #0
 1850 002a 1A60     		str	r2, [r3]
 1851              		.loc 7 575 0
 1852 002c 039B     		ldr	r3, [sp, #12]
 1853 002e 009A     		ldr	r2, [sp]
 1854 0030 5A62     		str	r2, [r3, #36]
 1855              		.loc 7 576 0
 1856 0032 0398     		ldr	r0, [sp, #12]
 1857 0034 FFF7FEFF 		bl	chSchReadyI
 1858              	.L113:
 1859              	.LBE10:
 1860              		.loc 7 578 0
 1861 0038 00BF     		nop
 1862 003a 05B0     		add	sp, sp, #20
 1863              		.cfi_def_cfa_offset 4
 1864              		@ sp needed
 1865 003c 5DF804FB 		ldr	pc, [sp], #4
 1866              	.L115:
 1867              		.align	2
 1868              	.L114:
 1869 0040 00000000 		.word	__func__.7940
 1870              		.cfi_endproc
 1871              	.LFE247:
 1872              		.size	chThdResumeI, .-chThdResumeI
 1873              		.section	.text.chThdResumeS,"ax",%progbits
 1874              		.align	1
 1875              		.p2align 4,,15
 1876              		.global	chThdResumeS
 1877              		.syntax unified
 1878              		.thumb
 1879              		.thumb_func
 1880              		.fpu fpv4-sp-d16
 1881              		.type	chThdResumeS, %function
ARM GAS  /tmp/cc00Xwh4.s 			page 34


 1882              	chThdResumeS:
 1883              	.LFB248:
 1884              		.loc 7 590 0
 1885              		.cfi_startproc
 1886              		@ args = 0, pretend = 0, frame = 16
 1887              		@ frame_needed = 0, uses_anonymous_args = 0
 1888 0000 00B5     		push	{lr}
 1889              		.cfi_def_cfa_offset 4
 1890              		.cfi_offset 14, -4
 1891 0002 85B0     		sub	sp, sp, #20
 1892              		.cfi_def_cfa_offset 24
 1893 0004 0190     		str	r0, [sp, #4]
 1894 0006 0091     		str	r1, [sp]
 1895              		.loc 7 592 0
 1896 0008 019B     		ldr	r3, [sp, #4]
 1897 000a 1B68     		ldr	r3, [r3]
 1898 000c 002B     		cmp	r3, #0
 1899 000e 11D0     		beq	.L119
 1900              	.LBB11:
 1901              		.loc 7 593 0
 1902 0010 019B     		ldr	r3, [sp, #4]
 1903 0012 1B68     		ldr	r3, [r3]
 1904 0014 0393     		str	r3, [sp, #12]
 1905              		.loc 7 595 0
 1906 0016 039B     		ldr	r3, [sp, #12]
 1907 0018 93F82030 		ldrb	r3, [r3, #32]	@ zero_extendqisi2
 1908 001c 032B     		cmp	r3, #3
 1909 001e 02D0     		beq	.L118
 1910              		.loc 7 595 0 is_stmt 0 discriminator 2
 1911 0020 0648     		ldr	r0, .L120
 1912 0022 FFF7FEFF 		bl	chSysHalt
 1913              	.L118:
 1914              		.loc 7 598 0 is_stmt 1
 1915 0026 019B     		ldr	r3, [sp, #4]
 1916 0028 0022     		movs	r2, #0
 1917 002a 1A60     		str	r2, [r3]
 1918              		.loc 7 599 0
 1919 002c 0099     		ldr	r1, [sp]
 1920 002e 0398     		ldr	r0, [sp, #12]
 1921 0030 FFF7FEFF 		bl	chSchWakeupS
 1922              	.L119:
 1923              	.LBE11:
 1924              		.loc 7 601 0
 1925 0034 00BF     		nop
 1926 0036 05B0     		add	sp, sp, #20
 1927              		.cfi_def_cfa_offset 4
 1928              		@ sp needed
 1929 0038 5DF804FB 		ldr	pc, [sp], #4
 1930              	.L121:
 1931              		.align	2
 1932              	.L120:
 1933 003c 00000000 		.word	__func__.7946
 1934              		.cfi_endproc
 1935              	.LFE248:
 1936              		.size	chThdResumeS, .-chThdResumeS
 1937              		.section	.text.chThdResume,"ax",%progbits
 1938              		.align	1
ARM GAS  /tmp/cc00Xwh4.s 			page 35


 1939              		.p2align 4,,15
 1940              		.global	chThdResume
 1941              		.syntax unified
 1942              		.thumb
 1943              		.thumb_func
 1944              		.fpu fpv4-sp-d16
 1945              		.type	chThdResume, %function
 1946              	chThdResume:
 1947              	.LFB249:
 1948              		.loc 7 613 0
 1949              		.cfi_startproc
 1950              		@ args = 0, pretend = 0, frame = 8
 1951              		@ frame_needed = 0, uses_anonymous_args = 0
 1952 0000 00B5     		push	{lr}
 1953              		.cfi_def_cfa_offset 4
 1954              		.cfi_offset 14, -4
 1955 0002 83B0     		sub	sp, sp, #12
 1956              		.cfi_def_cfa_offset 16
 1957 0004 0190     		str	r0, [sp, #4]
 1958 0006 0091     		str	r1, [sp]
 1959              		.loc 7 615 0
 1960 0008 FFF7FEFF 		bl	chSysLock
 1961              		.loc 7 616 0
 1962 000c 0099     		ldr	r1, [sp]
 1963 000e 0198     		ldr	r0, [sp, #4]
 1964 0010 FFF7FEFF 		bl	chThdResumeS
 1965              		.loc 7 617 0
 1966 0014 FFF7FEFF 		bl	chSysUnlock
 1967              		.loc 7 618 0
 1968 0018 00BF     		nop
 1969 001a 03B0     		add	sp, sp, #12
 1970              		.cfi_def_cfa_offset 4
 1971              		@ sp needed
 1972 001c 5DF804FB 		ldr	pc, [sp], #4
 1973              		.cfi_endproc
 1974              	.LFE249:
 1975              		.size	chThdResume, .-chThdResume
 1976              		.section	.text.chThdEnqueueTimeoutS,"ax",%progbits
 1977              		.align	1
 1978              		.p2align 4,,15
 1979              		.global	chThdEnqueueTimeoutS
 1980              		.syntax unified
 1981              		.thumb
 1982              		.thumb_func
 1983              		.fpu fpv4-sp-d16
 1984              		.type	chThdEnqueueTimeoutS, %function
 1985              	chThdEnqueueTimeoutS:
 1986              	.LFB250:
 1987              		.loc 7 643 0
 1988              		.cfi_startproc
 1989              		@ args = 0, pretend = 0, frame = 8
 1990              		@ frame_needed = 0, uses_anonymous_args = 0
 1991 0000 00B5     		push	{lr}
 1992              		.cfi_def_cfa_offset 4
 1993              		.cfi_offset 14, -4
 1994 0002 83B0     		sub	sp, sp, #12
 1995              		.cfi_def_cfa_offset 16
ARM GAS  /tmp/cc00Xwh4.s 			page 36


 1996 0004 0190     		str	r0, [sp, #4]
 1997 0006 0091     		str	r1, [sp]
 1998              		.loc 7 645 0
 1999 0008 009B     		ldr	r3, [sp]
 2000 000a 002B     		cmp	r3, #0
 2001 000c 02D1     		bne	.L124
 2002              		.loc 7 646 0
 2003 000e 4FF0FF33 		mov	r3, #-1
 2004 0012 0AE0     		b	.L125
 2005              	.L124:
 2006              		.loc 7 649 0
 2007 0014 074B     		ldr	r3, .L126
 2008 0016 9B69     		ldr	r3, [r3, #24]
 2009 0018 0199     		ldr	r1, [sp, #4]
 2010 001a 1846     		mov	r0, r3
 2011 001c FFF7FEFF 		bl	queue_insert
 2012              		.loc 7 651 0
 2013 0020 0099     		ldr	r1, [sp]
 2014 0022 0420     		movs	r0, #4
 2015 0024 FFF7FEFF 		bl	chSchGoSleepTimeoutS
 2016 0028 0346     		mov	r3, r0
 2017              	.L125:
 2018              		.loc 7 652 0
 2019 002a 1846     		mov	r0, r3
 2020 002c 03B0     		add	sp, sp, #12
 2021              		.cfi_def_cfa_offset 4
 2022              		@ sp needed
 2023 002e 5DF804FB 		ldr	pc, [sp], #4
 2024              	.L127:
 2025 0032 00BF     		.align	2
 2026              	.L126:
 2027 0034 00000000 		.word	ch
 2028              		.cfi_endproc
 2029              	.LFE250:
 2030              		.size	chThdEnqueueTimeoutS, .-chThdEnqueueTimeoutS
 2031              		.section	.text.chThdDequeueNextI,"ax",%progbits
 2032              		.align	1
 2033              		.p2align 4,,15
 2034              		.global	chThdDequeueNextI
 2035              		.syntax unified
 2036              		.thumb
 2037              		.thumb_func
 2038              		.fpu fpv4-sp-d16
 2039              		.type	chThdDequeueNextI, %function
 2040              	chThdDequeueNextI:
 2041              	.LFB251:
 2042              		.loc 7 663 0
 2043              		.cfi_startproc
 2044              		@ args = 0, pretend = 0, frame = 8
 2045              		@ frame_needed = 0, uses_anonymous_args = 0
 2046 0000 00B5     		push	{lr}
 2047              		.cfi_def_cfa_offset 4
 2048              		.cfi_offset 14, -4
 2049 0002 83B0     		sub	sp, sp, #12
 2050              		.cfi_def_cfa_offset 16
 2051 0004 0190     		str	r0, [sp, #4]
 2052 0006 0091     		str	r1, [sp]
ARM GAS  /tmp/cc00Xwh4.s 			page 37


 2053              		.loc 7 665 0
 2054 0008 0198     		ldr	r0, [sp, #4]
 2055 000a FFF7FEFF 		bl	queue_notempty
 2056 000e 0346     		mov	r3, r0
 2057 0010 002B     		cmp	r3, #0
 2058 0012 03D0     		beq	.L130
 2059              		.loc 7 666 0
 2060 0014 0099     		ldr	r1, [sp]
 2061 0016 0198     		ldr	r0, [sp, #4]
 2062 0018 FFF7FEFF 		bl	chThdDoDequeueNextI
 2063              	.L130:
 2064              		.loc 7 668 0
 2065 001c 00BF     		nop
 2066 001e 03B0     		add	sp, sp, #12
 2067              		.cfi_def_cfa_offset 4
 2068              		@ sp needed
 2069 0020 5DF804FB 		ldr	pc, [sp], #4
 2070              		.cfi_endproc
 2071              	.LFE251:
 2072              		.size	chThdDequeueNextI, .-chThdDequeueNextI
 2073              		.section	.text.chThdDequeueAllI,"ax",%progbits
 2074              		.align	1
 2075              		.p2align 4,,15
 2076              		.global	chThdDequeueAllI
 2077              		.syntax unified
 2078              		.thumb
 2079              		.thumb_func
 2080              		.fpu fpv4-sp-d16
 2081              		.type	chThdDequeueAllI, %function
 2082              	chThdDequeueAllI:
 2083              	.LFB252:
 2084              		.loc 7 678 0
 2085              		.cfi_startproc
 2086              		@ args = 0, pretend = 0, frame = 8
 2087              		@ frame_needed = 0, uses_anonymous_args = 0
 2088 0000 00B5     		push	{lr}
 2089              		.cfi_def_cfa_offset 4
 2090              		.cfi_offset 14, -4
 2091 0002 83B0     		sub	sp, sp, #12
 2092              		.cfi_def_cfa_offset 16
 2093 0004 0190     		str	r0, [sp, #4]
 2094 0006 0091     		str	r1, [sp]
 2095              		.loc 7 680 0
 2096 0008 03E0     		b	.L132
 2097              	.L133:
 2098              		.loc 7 681 0
 2099 000a 0099     		ldr	r1, [sp]
 2100 000c 0198     		ldr	r0, [sp, #4]
 2101 000e FFF7FEFF 		bl	chThdDoDequeueNextI
 2102              	.L132:
 2103              		.loc 7 680 0
 2104 0012 0198     		ldr	r0, [sp, #4]
 2105 0014 FFF7FEFF 		bl	queue_notempty
 2106 0018 0346     		mov	r3, r0
 2107 001a 002B     		cmp	r3, #0
 2108 001c F5D1     		bne	.L133
 2109              		.loc 7 683 0
ARM GAS  /tmp/cc00Xwh4.s 			page 38


 2110 001e 00BF     		nop
 2111 0020 03B0     		add	sp, sp, #12
 2112              		.cfi_def_cfa_offset 4
 2113              		@ sp needed
 2114 0022 5DF804FB 		ldr	pc, [sp], #4
 2115              		.cfi_endproc
 2116              	.LFE252:
 2117              		.size	chThdDequeueAllI, .-chThdDequeueAllI
 2118 0026 00BF     		.section	.rodata.__func__.7874,"a",%progbits
 2119              		.align	2
 2120              		.type	__func__.7874, %object
 2121              		.size	__func__.7874, 13
 2122              	__func__.7874:
 2123 0000 63685468 		.ascii	"chThdCreateI\000"
 2123      64437265 
 2123      61746549 
 2123      00
 2124              		.section	.rodata.__func__.7157,"a",%progbits
 2125              		.align	2
 2126              		.type	__func__.7157, %object
 2127              		.size	__func__.7157, 12
 2128              	__func__.7157:
 2129 0000 63685379 		.ascii	"chSysUnlock\000"
 2129      73556E6C 
 2129      6F636B00 
 2130              		.section	.rodata.__func__.7324,"a",%progbits
 2131              		.align	2
 2132              		.type	__func__.7324, %object
 2133              		.size	__func__.7324, 12
 2134              	__func__.7324:
 2135 0000 63685468 		.ascii	"chThdStartI\000"
 2135      64537461 
 2135      72744900 
 2136              		.section	.rodata.__func__.7890,"a",%progbits
 2137              		.align	2
 2138              		.type	__func__.7890, %object
 2139              		.size	__func__.7890, 17
 2140              	__func__.7890:
 2141 0000 63685468 		.ascii	"chThdSetPriority\000"
 2141      64536574 
 2141      5072696F 
 2141      72697479 
 2141      00
 2142              		.section	.rodata.__func__.7328,"a",%progbits
 2143              		.align	2
 2144              		.type	__func__.7328, %object
 2145              		.size	__func__.7328, 12
 2146              	__func__.7328:
 2147 0000 63685468 		.ascii	"chThdSleepS\000"
 2147      64536C65 
 2147      65705300 
 2148              		.section	.rodata.__func__.7918,"a",%progbits
 2149              		.align	2
 2150              		.type	__func__.7918, %object
 2151              		.size	__func__.7918, 11
 2152              	__func__.7918:
 2153 0000 63685468 		.ascii	"chThdExitS\000"
ARM GAS  /tmp/cc00Xwh4.s 			page 39


 2153      64457869 
 2153      745300
 2154              		.section	.rodata.__func__.7923,"a",%progbits
 2155              		.align	2
 2156              		.type	__func__.7923, %object
 2157              		.size	__func__.7923, 10
 2158              	__func__.7923:
 2159 0000 63685468 		.ascii	"chThdWait\000"
 2159      64576169 
 2159      7400
 2160              		.section	.rodata.__func__.7928,"a",%progbits
 2161              		.align	2
 2162              		.type	__func__.7928, %object
 2163              		.size	__func__.7928, 14
 2164              	__func__.7928:
 2165 0000 63685468 		.ascii	"chThdSuspendS\000"
 2165      64537573 
 2165      70656E64 
 2165      5300
 2166              		.section	.rodata.__func__.7934,"a",%progbits
 2167              		.align	2
 2168              		.type	__func__.7934, %object
 2169              		.size	__func__.7934, 21
 2170              	__func__.7934:
 2171 0000 63685468 		.ascii	"chThdSuspendTimeoutS\000"
 2171      64537573 
 2171      70656E64 
 2171      54696D65 
 2171      6F757453 
 2172              		.section	.rodata.__func__.7940,"a",%progbits
 2173              		.align	2
 2174              		.type	__func__.7940, %object
 2175              		.size	__func__.7940, 13
 2176              	__func__.7940:
 2177 0000 63685468 		.ascii	"chThdResumeI\000"
 2177      64526573 
 2177      756D6549 
 2177      00
 2178              		.section	.rodata.__func__.7946,"a",%progbits
 2179              		.align	2
 2180              		.type	__func__.7946, %object
 2181              		.size	__func__.7946, 13
 2182              	__func__.7946:
 2183 0000 63685468 		.ascii	"chThdResumeS\000"
 2183      64526573 
 2183      756D6553 
 2183      00
 2184              		.section	.rodata.__func__.7340,"a",%progbits
 2185              		.align	2
 2186              		.type	__func__.7340, %object
 2187              		.size	__func__.7340, 20
 2188              	__func__.7340:
 2189 0000 63685468 		.ascii	"chThdDoDequeueNextI\000"
 2189      64446F44 
 2189      65717565 
 2189      75654E65 
 2189      78744900 
ARM GAS  /tmp/cc00Xwh4.s 			page 40


 2190              		.text
 2191              	.Letext0:
 2192              		.file 8 "/usr/lib/gcc/arm-none-eabi/6.3.1/include/stddef.h"
 2193              		.file 9 "/usr/arm-none-eabi/include/machine/_default_types.h"
 2194              		.file 10 "/usr/arm-none-eabi/include/sys/_stdint.h"
 2195              		.file 11 "../ChibiOS/os/rt/ports/ARMCMx/compilers/GCC/chtypes.h"
 2196              		.file 12 "../ChibiOS/os/rt/include/chsystypes.h"
 2197              		.file 13 "../ChibiOS/os/ext/CMSIS/include/core_cm4.h"
 2198              		.file 14 "../ChibiOS/os/ext/CMSIS/ST/STM32F4xx/system_stm32f4xx.h"
 2199              		.file 15 "../ChibiOS/os/rt/ports/ARMCMx/chcore.h"
 2200              		.file 16 "../ChibiOS/os/rt/include/chtm.h"
 2201              		.file 17 "../ChibiOS/os/rt/include/chstats.h"
 2202              		.file 18 "../ChibiOS/os/rt/include/chsem.h"
 2203              		.file 19 "../ChibiOS/os/rt/include/chmtx.h"
 2204              		.file 20 "../ChibiOS/os/rt/include/chregistry.h"