ARM GAS  /tmp/ccCZPrYX.s 			page 1


   1              		.cpu cortex-m4
   2              		.eabi_attribute 27, 1
   3              		.eabi_attribute 28, 1
   4              		.eabi_attribute 20, 1
   5              		.eabi_attribute 21, 1
   6              		.eabi_attribute 23, 3
   7              		.eabi_attribute 24, 1
   8              		.eabi_attribute 25, 1
   9              		.eabi_attribute 26, 1
  10              		.eabi_attribute 30, 6
  11              		.eabi_attribute 34, 1
  12              		.eabi_attribute 18, 4
  13              		.file	"chvt.c"
  14              		.text
  15              	.Ltext0:
  16              		.cfi_sections	.debug_frame
  17              		.section	.text._vt_init,"ax",%progbits
  18              		.align	1
  19              		.p2align 4,,15
  20              		.global	_vt_init
  21              		.syntax unified
  22              		.thumb
  23              		.thumb_func
  24              		.fpu fpv4-sp-d16
  25              		.type	_vt_init, %function
  26              	_vt_init:
  27              	.LFB231:
  28              		.file 1 "../ChibiOS/os/rt/src/chvt.c"
  29              		.loc 1 61 0
  30              		.cfi_startproc
  31              		@ args = 0, pretend = 0, frame = 0
  32              		@ frame_needed = 0, uses_anonymous_args = 0
  33              		@ link register save eliminated.
  34              		.loc 1 63 0
  35 0000 074B     		ldr	r3, .L2
  36 0002 084A     		ldr	r2, .L2+4
  37 0004 DA61     		str	r2, [r3, #28]
  38              		.loc 1 64 0
  39 0006 064B     		ldr	r3, .L2
  40 0008 064A     		ldr	r2, .L2+4
  41 000a 1A62     		str	r2, [r3, #32]
  42              		.loc 1 65 0
  43 000c 044B     		ldr	r3, .L2
  44 000e 4FF0FF32 		mov	r2, #-1
  45 0012 5A62     		str	r2, [r3, #36]
  46              		.loc 1 67 0
  47 0014 024B     		ldr	r3, .L2
  48 0016 0022     		movs	r2, #0
  49 0018 9A62     		str	r2, [r3, #40]
  50              		.loc 1 71 0
  51 001a 00BF     		nop
  52 001c 7047     		bx	lr
  53              	.L3:
  54 001e 00BF     		.align	2
  55              	.L2:
  56 0020 00000000 		.word	ch
  57 0024 1C000000 		.word	ch+28
ARM GAS  /tmp/ccCZPrYX.s 			page 2


  58              		.cfi_endproc
  59              	.LFE231:
  60              		.size	_vt_init, .-_vt_init
  61              		.section	.text.chVTDoSetI,"ax",%progbits
  62              		.align	1
  63              		.p2align 4,,15
  64              		.global	chVTDoSetI
  65              		.syntax unified
  66              		.thumb
  67              		.thumb_func
  68              		.fpu fpv4-sp-d16
  69              		.type	chVTDoSetI, %function
  70              	chVTDoSetI:
  71              	.LFB232:
  72              		.loc 1 96 0
  73              		.cfi_startproc
  74              		@ args = 0, pretend = 0, frame = 24
  75              		@ frame_needed = 0, uses_anonymous_args = 0
  76 0000 00B5     		push	{lr}
  77              		.cfi_def_cfa_offset 4
  78              		.cfi_offset 14, -4
  79 0002 87B0     		sub	sp, sp, #28
  80              		.cfi_def_cfa_offset 32
  81 0004 0390     		str	r0, [sp, #12]
  82 0006 0291     		str	r1, [sp, #8]
  83 0008 0192     		str	r2, [sp, #4]
  84 000a 0093     		str	r3, [sp]
  85              		.loc 1 100 0
  86 000c FFF7FEFF 		bl	chDbgCheckClassI
  87              		.loc 1 101 0
  88 0010 039B     		ldr	r3, [sp, #12]
  89 0012 002B     		cmp	r3, #0
  90 0014 05D0     		beq	.L5
  91              		.loc 1 101 0 is_stmt 0 discriminator 3
  92 0016 019B     		ldr	r3, [sp, #4]
  93 0018 002B     		cmp	r3, #0
  94 001a 02D0     		beq	.L5
  95              		.loc 1 101 0 discriminator 5
  96 001c 029B     		ldr	r3, [sp, #8]
  97 001e 002B     		cmp	r3, #0
  98 0020 02D1     		bne	.L6
  99              	.L5:
 100              		.loc 1 101 0 discriminator 6
 101 0022 2148     		ldr	r0, .L10
 102 0024 FFF7FEFF 		bl	chSysHalt
 103              	.L6:
 104              		.loc 1 103 0 is_stmt 1
 105 0028 039B     		ldr	r3, [sp, #12]
 106 002a 009A     		ldr	r2, [sp]
 107 002c 1A61     		str	r2, [r3, #16]
 108              		.loc 1 104 0
 109 002e 039B     		ldr	r3, [sp, #12]
 110 0030 019A     		ldr	r2, [sp, #4]
 111 0032 DA60     		str	r2, [r3, #12]
 112              		.loc 1 156 0
 113 0034 029B     		ldr	r3, [sp, #8]
 114 0036 0493     		str	r3, [sp, #16]
ARM GAS  /tmp/ccCZPrYX.s 			page 3


 115              		.loc 1 159 0
 116 0038 1C4B     		ldr	r3, .L10+4
 117 003a DB69     		ldr	r3, [r3, #28]
 118 003c 0593     		str	r3, [sp, #20]
 119              		.loc 1 164 0
 120 003e 0EE0     		b	.L7
 121              	.L9:
 122              		.loc 1 166 0 discriminator 1
 123 0040 059A     		ldr	r2, [sp, #20]
 124 0042 039B     		ldr	r3, [sp, #12]
 125 0044 9A42     		cmp	r2, r3
 126 0046 02D1     		bne	.L8
 127              		.loc 1 166 0 is_stmt 0 discriminator 2
 128 0048 1748     		ldr	r0, .L10
 129 004a FFF7FEFF 		bl	chSysHalt
 130              	.L8:
 131              		.loc 1 168 0 is_stmt 1
 132 004e 059B     		ldr	r3, [sp, #20]
 133 0050 9B68     		ldr	r3, [r3, #8]
 134 0052 049A     		ldr	r2, [sp, #16]
 135 0054 D31A     		subs	r3, r2, r3
 136 0056 0493     		str	r3, [sp, #16]
 137              		.loc 1 169 0
 138 0058 059B     		ldr	r3, [sp, #20]
 139 005a 1B68     		ldr	r3, [r3]
 140 005c 0593     		str	r3, [sp, #20]
 141              	.L7:
 142              		.loc 1 164 0
 143 005e 059B     		ldr	r3, [sp, #20]
 144 0060 9A68     		ldr	r2, [r3, #8]
 145 0062 049B     		ldr	r3, [sp, #16]
 146 0064 9A42     		cmp	r2, r3
 147 0066 EBD3     		bcc	.L9
 148              		.loc 1 173 0
 149 0068 039B     		ldr	r3, [sp, #12]
 150 006a 059A     		ldr	r2, [sp, #20]
 151 006c 1A60     		str	r2, [r3]
 152              		.loc 1 174 0
 153 006e 039B     		ldr	r3, [sp, #12]
 154 0070 1B68     		ldr	r3, [r3]
 155 0072 5A68     		ldr	r2, [r3, #4]
 156 0074 039B     		ldr	r3, [sp, #12]
 157 0076 5A60     		str	r2, [r3, #4]
 158              		.loc 1 175 0
 159 0078 039B     		ldr	r3, [sp, #12]
 160 007a 5B68     		ldr	r3, [r3, #4]
 161 007c 039A     		ldr	r2, [sp, #12]
 162 007e 1A60     		str	r2, [r3]
 163              		.loc 1 176 0
 164 0080 059B     		ldr	r3, [sp, #20]
 165 0082 039A     		ldr	r2, [sp, #12]
 166 0084 5A60     		str	r2, [r3, #4]
 167              		.loc 1 177 0
 168 0086 039B     		ldr	r3, [sp, #12]
 169 0088 049A     		ldr	r2, [sp, #16]
 170 008a 9A60     		str	r2, [r3, #8]
 171              		.loc 1 180 0
ARM GAS  /tmp/ccCZPrYX.s 			page 4


 172 008c 059B     		ldr	r3, [sp, #20]
 173 008e 9A68     		ldr	r2, [r3, #8]
 174 0090 049B     		ldr	r3, [sp, #16]
 175 0092 D21A     		subs	r2, r2, r3
 176 0094 059B     		ldr	r3, [sp, #20]
 177 0096 9A60     		str	r2, [r3, #8]
 178              		.loc 1 184 0
 179 0098 044B     		ldr	r3, .L10+4
 180 009a 4FF0FF32 		mov	r2, #-1
 181 009e 5A62     		str	r2, [r3, #36]
 182              		.loc 1 185 0
 183 00a0 00BF     		nop
 184 00a2 07B0     		add	sp, sp, #28
 185              		.cfi_def_cfa_offset 4
 186              		@ sp needed
 187 00a4 5DF804FB 		ldr	pc, [sp], #4
 188              	.L11:
 189              		.align	2
 190              	.L10:
 191 00a8 00000000 		.word	__func__.7865
 192 00ac 00000000 		.word	ch
 193              		.cfi_endproc
 194              	.LFE232:
 195              		.size	chVTDoSetI, .-chVTDoSetI
 196              		.section	.text.chVTDoResetI,"ax",%progbits
 197              		.align	1
 198              		.p2align 4,,15
 199              		.global	chVTDoResetI
 200              		.syntax unified
 201              		.thumb
 202              		.thumb_func
 203              		.fpu fpv4-sp-d16
 204              		.type	chVTDoResetI, %function
 205              	chVTDoResetI:
 206              	.LFB233:
 207              		.loc 1 195 0
 208              		.cfi_startproc
 209              		@ args = 0, pretend = 0, frame = 8
 210              		@ frame_needed = 0, uses_anonymous_args = 0
 211 0000 00B5     		push	{lr}
 212              		.cfi_def_cfa_offset 4
 213              		.cfi_offset 14, -4
 214 0002 83B0     		sub	sp, sp, #12
 215              		.cfi_def_cfa_offset 16
 216 0004 0190     		str	r0, [sp, #4]
 217              		.loc 1 197 0
 218 0006 FFF7FEFF 		bl	chDbgCheckClassI
 219              		.loc 1 198 0
 220 000a 019B     		ldr	r3, [sp, #4]
 221 000c 002B     		cmp	r3, #0
 222 000e 02D1     		bne	.L15
 223              		.loc 1 198 0 is_stmt 0 discriminator 2
 224 0010 1348     		ldr	r0, .L16
 225 0012 FFF7FEFF 		bl	chSysHalt
 226              	.L15:
 227              		.loc 1 199 0 is_stmt 1 discriminator 1
 228 0016 019B     		ldr	r3, [sp, #4]
ARM GAS  /tmp/ccCZPrYX.s 			page 5


 229 0018 DB68     		ldr	r3, [r3, #12]
 230 001a 002B     		cmp	r3, #0
 231 001c 02D1     		bne	.L14
 232              		.loc 1 199 0 is_stmt 0 discriminator 2
 233 001e 1048     		ldr	r0, .L16
 234 0020 FFF7FEFF 		bl	chSysHalt
 235              	.L14:
 236              		.loc 1 204 0 is_stmt 1
 237 0024 019B     		ldr	r3, [sp, #4]
 238 0026 1B68     		ldr	r3, [r3]
 239 0028 019A     		ldr	r2, [sp, #4]
 240 002a 1268     		ldr	r2, [r2]
 241 002c 9168     		ldr	r1, [r2, #8]
 242 002e 019A     		ldr	r2, [sp, #4]
 243 0030 9268     		ldr	r2, [r2, #8]
 244 0032 0A44     		add	r2, r2, r1
 245 0034 9A60     		str	r2, [r3, #8]
 246              		.loc 1 207 0
 247 0036 019B     		ldr	r3, [sp, #4]
 248 0038 5B68     		ldr	r3, [r3, #4]
 249 003a 019A     		ldr	r2, [sp, #4]
 250 003c 1268     		ldr	r2, [r2]
 251 003e 1A60     		str	r2, [r3]
 252              		.loc 1 208 0
 253 0040 019B     		ldr	r3, [sp, #4]
 254 0042 1B68     		ldr	r3, [r3]
 255 0044 019A     		ldr	r2, [sp, #4]
 256 0046 5268     		ldr	r2, [r2, #4]
 257 0048 5A60     		str	r2, [r3, #4]
 258              		.loc 1 209 0
 259 004a 019B     		ldr	r3, [sp, #4]
 260 004c 0022     		movs	r2, #0
 261 004e DA60     		str	r2, [r3, #12]
 262              		.loc 1 213 0
 263 0050 044B     		ldr	r3, .L16+4
 264 0052 4FF0FF32 		mov	r2, #-1
 265 0056 5A62     		str	r2, [r3, #36]
 266              		.loc 1 273 0
 267 0058 00BF     		nop
 268 005a 03B0     		add	sp, sp, #12
 269              		.cfi_def_cfa_offset 4
 270              		@ sp needed
 271 005c 5DF804FB 		ldr	pc, [sp], #4
 272              	.L17:
 273              		.align	2
 274              	.L16:
 275 0060 00000000 		.word	__func__.7872
 276 0064 00000000 		.word	ch
 277              		.cfi_endproc
 278              	.LFE233:
 279              		.size	chVTDoResetI, .-chVTDoResetI
 280              		.section	.rodata.__func__.7865,"a",%progbits
 281              		.align	2
 282              		.type	__func__.7865, %object
 283              		.size	__func__.7865, 11
 284              	__func__.7865:
 285 0000 63685654 		.ascii	"chVTDoSetI\000"
ARM GAS  /tmp/ccCZPrYX.s 			page 6


 285      446F5365 
 285      744900
 286              		.section	.rodata.__func__.7872,"a",%progbits
 287              		.align	2
 288              		.type	__func__.7872, %object
 289              		.size	__func__.7872, 13
 290              	__func__.7872:
 291 0000 63685654 		.ascii	"chVTDoResetI\000"
 291      446F5265 
 291      73657449 
 291      00
 292              		.text
 293              	.Letext0:
 294              		.file 2 "/usr/arm-none-eabi/include/machine/_default_types.h"
 295              		.file 3 "/usr/arm-none-eabi/include/sys/_stdint.h"
 296              		.file 4 "../ChibiOS/os/rt/ports/ARMCMx/compilers/GCC/chtypes.h"
 297              		.file 5 "../ChibiOS/os/rt/include/chsystypes.h"
 298              		.file 6 "../ChibiOS/os/rt/include/chschd.h"
 299              		.file 7 "../ChibiOS/os/ext/CMSIS/include/core_cm4.h"
 300              		.file 8 "../ChibiOS/os/ext/CMSIS/ST/STM32F4xx/system_stm32f4xx.h"
 301              		.file 9 "../ChibiOS/os/rt/ports/ARMCMx/chcore.h"
 302              		.file 10 "../ChibiOS/os/rt/ports/ARMCMx/chcore_v7m.h"
 303              		.file 11 "../ChibiOS/os/rt/include/chtm.h"
 304              		.file 12 "../ChibiOS/os/rt/include/chstats.h"
 305              		.file 13 "../ChibiOS/os/rt/include/chsem.h"
 306              		.file 14 "../ChibiOS/os/rt/include/chmtx.h"
 307              		.file 15 "../ChibiOS/os/rt/include/chregistry.h"