ARM GAS  /tmp/ccCZPrYX.s 			page 1


   1              		.cpu cortex-m4
   2              		.eabi_attribute 27, 1
   3              		.eabi_attribute 28, 1
   4              		.eabi_attribute 20, 1
   5              		.eabi_attribute 21, 1
   6              		.eabi_attribute 23, 3
   7              		.eabi_attribute 24, 1
   8              		.eabi_attribute 25, 1
   9              		.eabi_attribute 26, 1
  10              		.eabi_attribute 30, 6
  11              		.eabi_attribute 34, 1
  12              		.eabi_attribute 18, 4
  13              		.file	"chvt.c"
  14              		.text
  15              	.Ltext0:
  16              		.cfi_sections	.debug_frame
  17              		.section	.text._vt_init,"ax",%progbits
  18              		.align	1
  19              		.p2align 4,,15
  20              		.global	_vt_init
  21              		.syntax unified
  22              		.thumb
  23              		.thumb_func
  24              		.fpu fpv4-sp-d16
  25              		.type	_vt_init, %function
  26              	_vt_init:
  27              	.LFB231:
  28              		.file 1 "../ChibiOS/os/rt/src/chvt.c"
  29              		.loc 1 61 0
  30              		.cfi_startproc
  31              		@ args = 0, pretend = 0, frame = 0
  32              		@ frame_needed = 0, uses_anonymous_args = 0
  33              		@ link register save eliminated.
  34              		.loc 1 63 0
  35 0000 074B     		ldr	r3, .L2
  36 0002 084A     		ldr	r2, .L2+4
  37 0004 DA61     		str	r2, [r3, #28]
  38              		.loc 1 64 0
  39 0006 064B     		ldr	r3, .L2
  40 0008 064A     		ldr	r2, .L2+4
  41 000a 1A62     		str	r2, [r3, #32]
  42              		.loc 1 65 0
  43 000c 044B     		ldr	r3, .L2
  44 000e 4FF0FF32 		mov	r2, #-1
  45 0012 5A62     		str	r2, [r3, #36]
  46              		.loc 1 67 0
  47 0014 024B     		ldr	r3, .L2
  48 0016 0022     		movs	r2, #0
  49 0018 9A62     		str	r2, [r3, #40]
  50              		.loc 1 71 0
  51 001a 00BF     		nop
  52 001c 7047     		bx	lr
  53              	.L3:
  54 001e 00BF     		.align	2
  55              	.L2:
  56 0020 00000000 		.word	ch
  57 0024 1C000000 		.word	ch+28
ARM GAS  /tmp/ccCZPrYX.s 			page 2


  58              		.cfi_endproc
  59              	.LFE231:
  60              		.size	_vt_init, .-_vt_init
  61              		.section	.text.chVTDoSetI,"ax",%progbits
  62              		.align	1
  63              		.p2align 4,,15
  64              		.global	chVTDoSetI
  65              		.syntax unified
  66              		.thumb
  67              		.thumb_func
  68              		.fpu fpv4-sp-d16
  69              		.type	chVTDoSetI, %function
  70              	chVTDoSetI:
  71              	.LFB232:
  72              		.loc 1 96 0
  73              		.cfi_startproc
  74              		@ args = 0, pretend = 0, frame = 24
  75              		@ frame_needed = 0, uses_anonymous_args = 0
  76 0000 00B5     		push	{lr}
  77              		.cfi_def_cfa_offset 4
  78              		.cfi_offset 14, -4
  79 0002 87B0     		sub	sp, sp, #28
  80              		.cfi_def_cfa_offset 32
  81 0004 0390     		str	r0, [sp, #12]
  82 0006 0291     		str	r1, [sp, #8]
  83 0008 0192     		str	r2, [sp, #4]
  84 000a 0093     		str	r3, [sp]
  85              		.loc 1 100 0
  86 000c FFF7FEFF 		bl	chDbgCheckClassI
  87              		.loc 1 101 0
  88 0010 039B     		ldr	r3, [sp, #12]
  89 0012 002B     		cmp	r3, #0
  90 0014 05D0     		beq	.L5
  91              		.loc 1 101 0 is_stmt 0 discriminator 3
  92 0016 019B     		ldr	r3, [sp, #4]
  93 0018 002B     		cmp	r3, #0
  94 001a 02D0     		beq	.L5
  95              		.loc 1 101 0 discriminator 5
  96 001c 029B     		ldr	r3, [sp, #8]
  97 001e 002B     		cmp	r3, #0
  98 0020 02D1     		bne	.L6
  99              	.L5:
 100              		.loc 1 101 0 discriminator 6
 101 0022 2148     		ldr	r0, .L10
 102 0024 FFF7FEFF 		bl	chSysHalt
 103              	.L6:
 104              		.loc 1 103 0 is_stmt 1
 105 0028 039B     		ldr	r3, [sp, #12]
 106 002a 009A     		ldr	r2, [sp]
 107 002c 1A61     		str	r2, [r3, #16]
 108              		.loc 1 104 0
 109 002e 039B     		ldr	r3, [sp, #12]
 110 0030 019A     		ldr	r2, [sp, #4]
 111 0032 DA60     		str	r2, [r3, #12]
 112              		.loc 1 156 0
 113 0034 029B     		ldr	r3, [sp, #8]
 114 0036 0493     		str	r3, [sp, #16]
ARM GAS  /tmp/ccCZPrYX.s 			page 3


 115              		.loc 1 159 0
 116 0038 1C4B     		ldr	r3, .L10+4
 117 003a DB69     		ldr	r3, [r3, #28]
 118 003c 0593     		str	r3, [sp, #20]
 119              		.loc 1 164 0
 120 003e 0EE0     		b	.L7
 121              	.L9:
 122              		.loc 1 166 0 discriminator 1
 123 0040 059A     		ldr	r2, [sp, #20]
 124 0042 039B     		ldr	r3, [sp, #12]
 125 0044 9A42     		cmp	r2, r3
 126 0046 02D1     		bne	.L8
 127              		.loc 1 166 0 is_stmt 0 discriminator 2
 128 0048 1748     		ldr	r0, .L10
 129 004a FFF7FEFF 		bl	chSysHalt
 130              	.L8:
 131              		.loc 1 168 0 is_stmt 1
 132 004e 059B     		ldr	r3, [sp, #20]
 133 0050 9B68     		ldr	r3, [r3, #8]
 134 0052 049A     		ldr	r2, [sp, #16]
 135 0054 D31A     		subs	r3, r2, r3
 136 0056 0493     		str	r3, [sp, #16]
 137              		.loc 1 169 0
 138 0058 059B     		ldr	r3, [sp, #20]
 139 005a 1B68     		ldr	r3, [r3]
 140 005c 0593     		str	r3, [sp, #20]
 141              	.L7:
 142              		.loc 1 164 0
 143 005e 059B     		ldr	r3, [sp, #20]
 144 0060 9A68     		ldr	r2, [r3, #8]
 145 0062 049B     		ldr	r3, [sp, #16]
 146 0064 9A42     		cmp	r2, r3
 147 0066 EBD3     		bcc	.L9
 148              		.loc 1 173 0
 149 0068 039B     		ldr	r3, [sp, #12]
 150 006a 059A     		ldr	r2, [sp, #20]
 151 006c 1A60     		str	r2, [r3]
 152              		.loc 1 174 0
 153 006e 039B     		ldr	r3, [sp, #12]
 154 0070 1B68     		ldr	r3, [r3]
 155 0072 5A68     		ldr	r2, [r3, #4]
 156 0074 039B     		ldr	r3, [sp, #12]
 157 0076 5A60     		str	r2, [r3, #4]
 158              		.loc 1 175 0
 159 0078 039B     		ldr	r3, [sp, #12]
 160 007a 5B68     		ldr	r3, [r3, #4]
 161 007c 039A     		ldr	r2, [sp, #12]
 162 007e 1A60     		str	r2, [r3]
 163              		.loc 1 176 0
 164 0080 059B     		ldr	r3, [sp, #20]
 165 0082 039A     		ldr	r2, [sp, #12]
 166 0084 5A60     		str	r2, [r3, #4]
 167              		.loc 1 177 0
 168 0086 039B     		ldr	r3, [sp, #12]
 169 0088 049A     		ldr	r2, [sp, #16]
 170 008a 9A60     		str	r2, [r3, #8]
 171              		.loc 1 180 0
ARM GAS  /tmp/ccCZPrYX.s 			page 4


 172 008c 059B     		ldr	r3, [sp, #20]
 173 008e 9A68     		ldr	r2, [r3, #8]
 174 0090 049B     		ldr	r3, [sp, #16]
 175 0092 D21A     		subs	r2, r2, r3
 176 0094 059B     		ldr	r3, [sp, #20]
 177 0096 9A60     		str	r2, [r3, #8]
 178              		.loc 1 184 0
 179 0098 044B     		ldr	r3, .L10+4
 180 009a 4FF0FF32 		mov	r2, #-1
 181 009e 5A62     		str	r2, [r3, #36]
 182              		.loc 1 185 0
 183 00a0 00BF     		nop
 184 00a2 07B0     		add	sp, sp, #28
 185              		.cfi_def_cfa_offset 4
 186              		@ sp needed
 187 00a4 5DF804FB 		ldr	pc, [sp], #4
 188              	.L11:
 189              		.align	2
 190              	.L10:
 191 00a8 00000000 		.word	__func__.7865
 192 00ac 00000000 		.word	ch
 193              		.cfi_endproc
 194              	.LFE232:
 195              		.size	chVTDoSetI, .-chVTDoSetI
 196              		.section	.text.chVTDoResetI,"ax",%progbits
 197              		.align	1
 198              		.p2align 4,,15
 199              		.global	chVTDoResetI
 200              		.syntax unified
 201              		.thumb
 202              		.thumb_func
 203              		.fpu fpv4-sp-d16
 204              		.type	chVTDoResetI, %function
 205              	chVTDoResetI:
 206              	.LFB233:
 207              		.loc 1 195 0
 208              		.cfi_startproc
 209              		@ args = 0, pretend = 0, frame = 8
 210              		@ frame_needed = 0, uses_anonymous_args = 0
 211 0000 00B5     		push	{lr}
 212              		.cfi_def_cfa_offset 4
 213              		.cfi_offset 14, -4
 214 0002 83B0     		sub	sp, sp, #12
 215              		.cfi_def_cfa_offset 16
 216 0004 0190     		str	r0, [sp, #4]
 217              		.loc 1 197 0
 218 0006 FFF7FEFF 		bl	chDbgCheckClassI
 219              		.loc 1 198 0
 220 000a 019B     		ldr	r3, [sp, #4]
 221 000c 002B     		cmp	r3, #0
 222 000e 02D1     		bne	.L15
 223              		.loc 1 198 0 is_stmt 0 discriminator 2
 224 0010 1348     		ldr	r0, .L16
 225 0012 FFF7FEFF 		bl	chSysHalt
 226              	.L15:
 227              		.loc 1 199 0 is_stmt 1 discriminator 1
 228 0016 019B     		ldr	r3, [sp, #4]
ARM GAS  /tmp/ccCZPrYX.s 			page 5


 229 0018 DB68     		ldr	r3, [r3, #12]
 230 001a 002B     		cmp	r3, #0
 231 001c 02D1     		bne	.L14
 232              		.loc 1 199 0 is_stmt 0 discriminator 2
 233 001e 1048     		ldr	r0, .L16
 234 0020 FFF7FEFF 		bl	chSysHalt
 235              	.L14:
 236              		.loc 1 204 0 is_stmt 1
 237 0024 019B     		ldr	r3, [sp, #4]
 238 0026 1B68     		ldr	r3, [r3]
 239 0028 019A     		ldr	r2, [sp, #4]
 240 002a 1268     		ldr	r2, [r2]
 241 002c 9168     		ldr	r1, [r2, #8]
 242 002e 019A     		ldr	r2, [sp, #4]
 243 0030 9268     		ldr	r2, [r2, #8]
 244 0032 0A44     		add	r2, r2, r1
 245 0034 9A60     		str	r2, [r3, #8]
 246              		.loc 1 207 0
 247 0036 019B     		ldr	r3, [sp, #4]
 248 0038 5B68     		ldr	r3, [r3, #4]
 249 003a 019A     		ldr	r2, [sp, #4]
 250 003c 1268     		ldr	r2, [r2]
 251 003e 1A60     		str	r2, [r3]
 252              		.loc 1 208 0
 253 0040 019B     		ldr	r3, [sp, #4]
 254 0042 1B68     		ldr	r3, [r3]
 255 0044 019A     		ldr	r2, [sp, #4]
 256 0046 5268     		ldr	r2, [r2, #4]
 257 0048 5A60     		str	r2, [r3, #4]
 258              		.loc 1 209 0
 259 004a 019B     		ldr	r3, [sp, #4]
 260 004c 0022     		movs	r2, #0
 261 004e DA60     		str	r2, [r3, #12]
 262              		.loc 1 213 0
 263 0050 044B     		ldr	r3, .L16+4
 264 0052 4FF0FF32 		mov	r2, #-1
 265 0056 5A62     		str	r2, [r3, #36]
 266              		.loc 1 273 0
 267 0058 00BF     		nop
 268 005a 03B0     		add	sp, sp, #12
 269              		.cfi_def_cfa_offset 4
 270              		@ sp needed
 271 005c 5DF804FB 		ldr	pc, [sp], #4
 272              	.L17:
 273              		.align	2
 274              	.L16:
 275 0060 00000000 		.word	__func__.7872
 276 0064 00000000 		.word	ch
 277              		.cfi_endproc
 278              	.LFE233:
 279              		.size	chVTDoResetI, .-chVTDoResetI
 280              		.section	.rodata.__func__.7865,"a",%progbits
 281              		.align	2
 282              		.type	__func__.7865, %object
 283              		.size	__func__.7865, 11
 284              	__func__.7865:
 285 0000 63685654 		.ascii	"chVTDoSetI\000"
ARM GAS  /tmp/ccCZPrYX.s 			page 6


 285      446F5365 
 285      744900
 286              		.section	.rodata.__func__.7872,"a",%progbits
 287              		.align	2
 288              		.type	__func__.7872, %object
 289              		.size	__func__.7872, 13
 290              	__func__.7872:
 291 0000 63685654 		.ascii	"chVTDoResetI\000"
 291      446F5265 
 291      73657449 
 291      00
 292              		.text
 293              	.Letext0:
 294              		.file 2 "/usr/arm-none-eabi/include/machine/_default_types.h"
 295              		.file 3 "/usr/arm-none-eabi/include/sys/_stdint.h"
 296              		.file 4 "../ChibiOS/os/rt/ports/ARMCMx/compilers/GCC/chtypes.h"
 297              		.file 5 "../ChibiOS/os/rt/include/chsystypes.h"
 298              		.file 6 "../ChibiOS/os/rt/include/chschd.h"
 299              		.file 7 "../ChibiOS/os/ext/CMSIS/include/core_cm4.h"
 300              		.file 8 "../ChibiOS/os/ext/CMSIS/ST/STM32F4xx/system_stm32f4xx.h"
 301              		.file 9 "../ChibiOS/os/rt/ports/ARMCMx/chcore.h"
 302              		.file 10 "../ChibiOS/os/rt/ports/ARMCMx/chcore_v7m.h"
 303              		.file 11 "../ChibiOS/os/rt/include/chtm.h"
 304              		.file 12 "../ChibiOS/os/rt/include/chstats.h"
 305              		.file 13 "../ChibiOS/os/rt/include/chsem.h"
 306              		.file 14 "../ChibiOS/os/rt/include/chmtx.h"
 307              		.file 15 "../ChibiOS/os/rt/include/chregistry.h"
 308              		.section	.debug_info,"",%progbits
 309              	.Ldebug_info0:
 310 0000 110A0000 		.4byte	0xa11
 311 0004 0400     		.2byte	0x4
 312 0006 00000000 		.4byte	.Ldebug_abbrev0
 313 000a 04       		.byte	0x4
 314 000b 01       		.uleb128 0x1
 315 000c B3010000 		.4byte	.LASF150
 316 0010 0C       		.byte	0xc
 317 0011 85000000 		.4byte	.LASF151
 318 0015 64030000 		.4byte	.LASF152
 319 0019 00000000 		.4byte	.Ldebug_ranges0+0
 320 001d 00000000 		.4byte	0
 321 0021 00000000 		.4byte	.Ldebug_line0
 322 0025 02       		.uleb128 0x2
 323 0026 04       		.byte	0x4
 324 0027 05       		.byte	0x5
 325 0028 696E7400 		.ascii	"int\000"
 326 002c 03       		.uleb128 0x3
 327 002d 04       		.byte	0x4
 328 002e 07       		.byte	0x7
 329 002f 36030000 		.4byte	.LASF0
 330 0033 03       		.uleb128 0x3
 331 0034 08       		.byte	0x8
 332 0035 05       		.byte	0x5
 333 0036 49010000 		.4byte	.LASF1
 334 003a 03       		.uleb128 0x3
 335 003b 08       		.byte	0x8
 336 003c 04       		.byte	0x4
 337 003d B4040000 		.4byte	.LASF2
ARM GAS  /tmp/ccCZPrYX.s 			page 7


 338 0041 03       		.uleb128 0x3
 339 0042 01       		.byte	0x1
 340 0043 06       		.byte	0x6
 341 0044 57010000 		.4byte	.LASF3
 342 0048 04       		.uleb128 0x4
 343 0049 4F000000 		.4byte	.LASF6
 344 004d 02       		.byte	0x2
 345 004e 2B       		.byte	0x2b
 346 004f 53000000 		.4byte	0x53
 347 0053 03       		.uleb128 0x3
 348 0054 01       		.byte	0x1
 349 0055 08       		.byte	0x8
 350 0056 6E050000 		.4byte	.LASF4
 351 005a 03       		.uleb128 0x3
 352 005b 02       		.byte	0x2
 353 005c 05       		.byte	0x5
 354 005d 8C050000 		.4byte	.LASF5
 355 0061 04       		.uleb128 0x4
 356 0062 7C060000 		.4byte	.LASF7
 357 0066 02       		.byte	0x2
 358 0067 39       		.byte	0x39
 359 0068 6C000000 		.4byte	0x6c
 360 006c 03       		.uleb128 0x3
 361 006d 02       		.byte	0x2
 362 006e 07       		.byte	0x7
 363 006f D8030000 		.4byte	.LASF8
 364 0073 04       		.uleb128 0x4
 365 0074 52040000 		.4byte	.LASF9
 366 0078 02       		.byte	0x2
 367 0079 4D       		.byte	0x4d
 368 007a 7E000000 		.4byte	0x7e
 369 007e 03       		.uleb128 0x3
 370 007f 04       		.byte	0x4
 371 0080 05       		.byte	0x5
 372 0081 A1010000 		.4byte	.LASF10
 373 0085 04       		.uleb128 0x4
 374 0086 BA060000 		.4byte	.LASF11
 375 008a 02       		.byte	0x2
 376 008b 4F       		.byte	0x4f
 377 008c 90000000 		.4byte	0x90
 378 0090 03       		.uleb128 0x3
 379 0091 04       		.byte	0x4
 380 0092 07       		.byte	0x7
 381 0093 5E060000 		.4byte	.LASF12
 382 0097 04       		.uleb128 0x4
 383 0098 0F050000 		.4byte	.LASF13
 384 009c 02       		.byte	0x2
 385 009d 69       		.byte	0x69
 386 009e A2000000 		.4byte	0xa2
 387 00a2 03       		.uleb128 0x3
 388 00a3 08       		.byte	0x8
 389 00a4 07       		.byte	0x7
 390 00a5 BA000000 		.4byte	.LASF14
 391 00a9 04       		.uleb128 0x4
 392 00aa 23070000 		.4byte	.LASF15
 393 00ae 03       		.byte	0x3
 394 00af 18       		.byte	0x18
ARM GAS  /tmp/ccCZPrYX.s 			page 8


 395 00b0 48000000 		.4byte	0x48
 396 00b4 04       		.uleb128 0x4
 397 00b5 4B030000 		.4byte	.LASF16
 398 00b9 03       		.byte	0x3
 399 00ba 24       		.byte	0x24
 400 00bb 61000000 		.4byte	0x61
 401 00bf 04       		.uleb128 0x4
 402 00c0 66050000 		.4byte	.LASF17
 403 00c4 03       		.byte	0x3
 404 00c5 2C       		.byte	0x2c
 405 00c6 73000000 		.4byte	0x73
 406 00ca 05       		.uleb128 0x5
 407 00cb BF000000 		.4byte	0xbf
 408 00cf 04       		.uleb128 0x4
 409 00d0 29060000 		.4byte	.LASF18
 410 00d4 03       		.byte	0x3
 411 00d5 30       		.byte	0x30
 412 00d6 85000000 		.4byte	0x85
 413 00da 04       		.uleb128 0x4
 414 00db 2D000000 		.4byte	.LASF19
 415 00df 03       		.byte	0x3
 416 00e0 3C       		.byte	0x3c
 417 00e1 97000000 		.4byte	0x97
 418 00e5 04       		.uleb128 0x4
 419 00e6 E4060000 		.4byte	.LASF20
 420 00ea 04       		.byte	0x4
 421 00eb 39       		.byte	0x39
 422 00ec CF000000 		.4byte	0xcf
 423 00f0 04       		.uleb128 0x4
 424 00f1 23010000 		.4byte	.LASF21
 425 00f5 04       		.byte	0x4
 426 00f6 3A       		.byte	0x3a
 427 00f7 DA000000 		.4byte	0xda
 428 00fb 04       		.uleb128 0x4
 429 00fc B3050000 		.4byte	.LASF22
 430 0100 04       		.byte	0x4
 431 0101 3C       		.byte	0x3c
 432 0102 A9000000 		.4byte	0xa9
 433 0106 04       		.uleb128 0x4
 434 0107 AA010000 		.4byte	.LASF23
 435 010b 04       		.byte	0x4
 436 010c 3D       		.byte	0x3d
 437 010d A9000000 		.4byte	0xa9
 438 0111 04       		.uleb128 0x4
 439 0112 25050000 		.4byte	.LASF24
 440 0116 04       		.byte	0x4
 441 0117 3E       		.byte	0x3e
 442 0118 A9000000 		.4byte	0xa9
 443 011c 04       		.uleb128 0x4
 444 011d 4F050000 		.4byte	.LASF25
 445 0121 04       		.byte	0x4
 446 0122 40       		.byte	0x40
 447 0123 CF000000 		.4byte	0xcf
 448 0127 04       		.uleb128 0x4
 449 0128 04040000 		.4byte	.LASF26
 450 012c 04       		.byte	0x4
 451 012d 41       		.byte	0x41
ARM GAS  /tmp/ccCZPrYX.s 			page 9


 452 012e BF000000 		.4byte	0xbf
 453 0132 04       		.uleb128 0x4
 454 0133 43000000 		.4byte	.LASF27
 455 0137 04       		.byte	0x4
 456 0138 43       		.byte	0x43
 457 0139 CF000000 		.4byte	0xcf
 458 013d 04       		.uleb128 0x4
 459 013e 25030000 		.4byte	.LASF28
 460 0142 04       		.byte	0x4
 461 0143 45       		.byte	0x45
 462 0144 BF000000 		.4byte	0xbf
 463 0148 04       		.uleb128 0x4
 464 0149 0F040000 		.4byte	.LASF29
 465 014d 04       		.byte	0x4
 466 014e 46       		.byte	0x46
 467 014f CF000000 		.4byte	0xcf
 468 0153 04       		.uleb128 0x4
 469 0154 9C060000 		.4byte	.LASF30
 470 0158 05       		.byte	0x5
 471 0159 33       		.byte	0x33
 472 015a CF000000 		.4byte	0xcf
 473 015e 05       		.uleb128 0x5
 474 015f 53010000 		.4byte	0x153
 475 0163 04       		.uleb128 0x4
 476 0164 87060000 		.4byte	.LASF31
 477 0168 05       		.byte	0x5
 478 0169 3F       		.byte	0x3f
 479 016a 6E010000 		.4byte	0x16e
 480 016e 06       		.uleb128 0x6
 481 016f FA030000 		.4byte	.LASF53
 482 0173 60       		.byte	0x60
 483 0174 06       		.byte	0x6
 484 0175 C2       		.byte	0xc2
 485 0176 74020000 		.4byte	0x274
 486 017a 07       		.uleb128 0x7
 487 017b AC050000 		.4byte	.LASF32
 488 017f 06       		.byte	0x6
 489 0180 C3       		.byte	0xc3
 490 0181 7F020000 		.4byte	0x27f
 491 0185 00       		.byte	0
 492 0186 07       		.uleb128 0x7
 493 0187 48050000 		.4byte	.LASF33
 494 018b 06       		.byte	0x6
 495 018c C5       		.byte	0xc5
 496 018d 7F020000 		.4byte	0x27f
 497 0191 04       		.byte	0x4
 498 0192 07       		.uleb128 0x7
 499 0193 2C010000 		.4byte	.LASF34
 500 0197 06       		.byte	0x6
 501 0198 C7       		.byte	0xc7
 502 0199 1C010000 		.4byte	0x11c
 503 019d 08       		.byte	0x8
 504 019e 07       		.uleb128 0x7
 505 019f E6040000 		.4byte	.LASF35
 506 01a3 06       		.byte	0x6
 507 01a4 C8       		.byte	0xc8
 508 01a5 ED040000 		.4byte	0x4ed
ARM GAS  /tmp/ccCZPrYX.s 			page 10


 509 01a9 0C       		.byte	0xc
 510 01aa 07       		.uleb128 0x7
 511 01ab CC020000 		.4byte	.LASF36
 512 01af 06       		.byte	0x6
 513 01b0 CA       		.byte	0xca
 514 01b1 7F020000 		.4byte	0x27f
 515 01b5 10       		.byte	0x10
 516 01b6 07       		.uleb128 0x7
 517 01b7 D8040000 		.4byte	.LASF37
 518 01bb 06       		.byte	0x6
 519 01bc CB       		.byte	0xcb
 520 01bd 7F020000 		.4byte	0x27f
 521 01c1 14       		.byte	0x14
 522 01c2 07       		.uleb128 0x7
 523 01c3 45070000 		.4byte	.LASF38
 524 01c7 06       		.byte	0x6
 525 01c8 D2       		.byte	0xd2
 526 01c9 CD070000 		.4byte	0x7cd
 527 01cd 18       		.byte	0x18
 528 01ce 07       		.uleb128 0x7
 529 01cf 2B030000 		.4byte	.LASF39
 530 01d3 06       		.byte	0x6
 531 01d4 D8       		.byte	0xd8
 532 01d5 E4070000 		.4byte	0x7e4
 533 01d9 1C       		.byte	0x1c
 534 01da 07       		.uleb128 0x7
 535 01db 96050000 		.4byte	.LASF40
 536 01df 06       		.byte	0x6
 537 01e0 DD       		.byte	0xdd
 538 01e1 06010000 		.4byte	0x106
 539 01e5 20       		.byte	0x20
 540 01e6 07       		.uleb128 0x7
 541 01e7 CA050000 		.4byte	.LASF41
 542 01eb 06       		.byte	0x6
 543 01ec E1       		.byte	0xe1
 544 01ed FB000000 		.4byte	0xfb
 545 01f1 21       		.byte	0x21
 546 01f2 07       		.uleb128 0x7
 547 01f3 0E070000 		.4byte	.LASF42
 548 01f7 06       		.byte	0x6
 549 01f8 E6       		.byte	0xe6
 550 01f9 11010000 		.4byte	0x111
 551 01fd 22       		.byte	0x22
 552 01fe 08       		.uleb128 0x8
 553 01ff 705F7500 		.ascii	"p_u\000"
 554 0203 06       		.byte	0x6
 555 0204 3101     		.2byte	0x131
 556 0206 08070000 		.4byte	0x708
 557 020a 24       		.byte	0x24
 558 020b 09       		.uleb128 0x9
 559 020c 8A040000 		.4byte	.LASF43
 560 0210 06       		.byte	0x6
 561 0211 3601     		.2byte	0x136
 562 0213 85020000 		.4byte	0x285
 563 0217 28       		.byte	0x28
 564 0218 09       		.uleb128 0x9
 565 0219 B8030000 		.4byte	.LASF44
ARM GAS  /tmp/ccCZPrYX.s 			page 11


 566 021d 06       		.byte	0x6
 567 021e 3C01     		.2byte	0x13c
 568 0220 A9020000 		.4byte	0x2a9
 569 0224 2C       		.byte	0x2c
 570 0225 09       		.uleb128 0x9
 571 0226 DE060000 		.4byte	.LASF45
 572 022a 06       		.byte	0x6
 573 022b 4001     		.2byte	0x140
 574 022d 27010000 		.4byte	0x127
 575 0231 34       		.byte	0x34
 576 0232 09       		.uleb128 0x9
 577 0233 1E060000 		.4byte	.LASF46
 578 0237 06       		.byte	0x6
 579 0238 4601     		.2byte	0x146
 580 023a 32010000 		.4byte	0x132
 581 023e 38       		.byte	0x38
 582 023f 09       		.uleb128 0x9
 583 0240 82050000 		.4byte	.LASF47
 584 0244 06       		.byte	0x6
 585 0245 4D01     		.2byte	0x14d
 586 0247 C7070000 		.4byte	0x7c7
 587 024b 3C       		.byte	0x3c
 588 024c 09       		.uleb128 0x9
 589 024d A6060000 		.4byte	.LASF48
 590 0251 06       		.byte	0x6
 591 0252 5101     		.2byte	0x151
 592 0254 1C010000 		.4byte	0x11c
 593 0258 40       		.byte	0x40
 594 0259 09       		.uleb128 0x9
 595 025a 80010000 		.4byte	.LASF49
 596 025e 06       		.byte	0x6
 597 025f 5801     		.2byte	0x158
 598 0261 5C030000 		.4byte	0x35c
 599 0265 44       		.byte	0x44
 600 0266 09       		.uleb128 0x9
 601 0267 DB050000 		.4byte	.LASF50
 602 026b 06       		.byte	0x6
 603 026c 5E01     		.2byte	0x15e
 604 026e B9060000 		.4byte	0x6b9
 605 0272 48       		.byte	0x48
 606 0273 00       		.byte	0
 607 0274 04       		.uleb128 0x4
 608 0275 2B070000 		.4byte	.LASF51
 609 0279 05       		.byte	0x5
 610 027a 44       		.byte	0x44
 611 027b 7F020000 		.4byte	0x27f
 612 027f 0A       		.uleb128 0xa
 613 0280 04       		.byte	0x4
 614 0281 63010000 		.4byte	0x163
 615 0285 04       		.uleb128 0x4
 616 0286 67040000 		.4byte	.LASF52
 617 028a 05       		.byte	0x5
 618 028b 49       		.byte	0x49
 619 028c 90020000 		.4byte	0x290
 620 0290 06       		.uleb128 0x6
 621 0291 46060000 		.4byte	.LASF54
 622 0295 04       		.byte	0x4
ARM GAS  /tmp/ccCZPrYX.s 			page 12


 623 0296 06       		.byte	0x6
 624 0297 B0       		.byte	0xb0
 625 0298 A9020000 		.4byte	0x2a9
 626 029c 07       		.uleb128 0x7
 627 029d AC050000 		.4byte	.LASF32
 628 02a1 06       		.byte	0x6
 629 02a2 B1       		.byte	0xb1
 630 02a3 7F020000 		.4byte	0x27f
 631 02a7 00       		.byte	0
 632 02a8 00       		.byte	0
 633 02a9 04       		.uleb128 0x4
 634 02aa E3050000 		.4byte	.LASF55
 635 02ae 05       		.byte	0x5
 636 02af 50       		.byte	0x50
 637 02b0 B4020000 		.4byte	0x2b4
 638 02b4 06       		.uleb128 0x6
 639 02b5 65000000 		.4byte	.LASF56
 640 02b9 08       		.byte	0x8
 641 02ba 06       		.byte	0x6
 642 02bb B7       		.byte	0xb7
 643 02bc D9020000 		.4byte	0x2d9
 644 02c0 07       		.uleb128 0x7
 645 02c1 AC050000 		.4byte	.LASF32
 646 02c5 06       		.byte	0x6
 647 02c6 B8       		.byte	0xb8
 648 02c7 7F020000 		.4byte	0x27f
 649 02cb 00       		.byte	0
 650 02cc 07       		.uleb128 0x7
 651 02cd 48050000 		.4byte	.LASF33
 652 02d1 06       		.byte	0x6
 653 02d2 B9       		.byte	0xb9
 654 02d3 7F020000 		.4byte	0x27f
 655 02d7 04       		.byte	0x4
 656 02d8 00       		.byte	0
 657 02d9 04       		.uleb128 0x4
 658 02da 0D000000 		.4byte	.LASF57
 659 02de 05       		.byte	0x5
 660 02df 57       		.byte	0x57
 661 02e0 E4020000 		.4byte	0x2e4
 662 02e4 0B       		.uleb128 0xb
 663 02e5 39040000 		.4byte	.LASF58
 664 02e9 1C       		.byte	0x1c
 665 02ea 06       		.byte	0x6
 666 02eb 9001     		.2byte	0x190
 667 02ed 40030000 		.4byte	0x340
 668 02f1 09       		.uleb128 0x9
 669 02f2 3E060000 		.4byte	.LASF59
 670 02f6 06       		.byte	0x6
 671 02f7 9101     		.2byte	0x191
 672 02f9 A9020000 		.4byte	0x2a9
 673 02fd 00       		.byte	0
 674 02fe 09       		.uleb128 0x9
 675 02ff 9E050000 		.4byte	.LASF60
 676 0303 06       		.byte	0x6
 677 0304 9201     		.2byte	0x192
 678 0306 1C010000 		.4byte	0x11c
 679 030a 08       		.byte	0x8
ARM GAS  /tmp/ccCZPrYX.s 			page 13


 680 030b 09       		.uleb128 0x9
 681 030c E0040000 		.4byte	.LASF61
 682 0310 06       		.byte	0x6
 683 0311 9401     		.2byte	0x194
 684 0313 ED040000 		.4byte	0x4ed
 685 0317 0C       		.byte	0xc
 686 0318 09       		.uleb128 0x9
 687 0319 DC020000 		.4byte	.LASF62
 688 031d 06       		.byte	0x6
 689 031e 9701     		.2byte	0x197
 690 0320 7F020000 		.4byte	0x27f
 691 0324 10       		.byte	0x10
 692 0325 09       		.uleb128 0x9
 693 0326 07050000 		.4byte	.LASF63
 694 032a 06       		.byte	0x6
 695 032b 9801     		.2byte	0x198
 696 032d 7F020000 		.4byte	0x27f
 697 0331 14       		.byte	0x14
 698 0332 09       		.uleb128 0x9
 699 0333 FD040000 		.4byte	.LASF64
 700 0337 06       		.byte	0x6
 701 0338 9B01     		.2byte	0x19b
 702 033a 7F020000 		.4byte	0x27f
 703 033e 18       		.byte	0x18
 704 033f 00       		.byte	0
 705 0340 04       		.uleb128 0x4
 706 0341 B1060000 		.4byte	.LASF65
 707 0345 05       		.byte	0x5
 708 0346 5C       		.byte	0x5c
 709 0347 4B030000 		.4byte	0x34b
 710 034b 0A       		.uleb128 0xa
 711 034c 04       		.byte	0x4
 712 034d 51030000 		.4byte	0x351
 713 0351 0C       		.uleb128 0xc
 714 0352 5C030000 		.4byte	0x35c
 715 0356 0D       		.uleb128 0xd
 716 0357 5C030000 		.4byte	0x35c
 717 035b 00       		.byte	0
 718 035c 0E       		.uleb128 0xe
 719 035d 04       		.byte	0x4
 720 035e 04       		.uleb128 0x4
 721 035f 38050000 		.4byte	.LASF66
 722 0363 05       		.byte	0x5
 723 0364 61       		.byte	0x61
 724 0365 69030000 		.4byte	0x369
 725 0369 0B       		.uleb128 0xb
 726 036a F3050000 		.4byte	.LASF67
 727 036e 14       		.byte	0x14
 728 036f 06       		.byte	0x6
 729 0370 6B01     		.2byte	0x16b
 730 0372 B8030000 		.4byte	0x3b8
 731 0376 09       		.uleb128 0x9
 732 0377 43030000 		.4byte	.LASF68
 733 037b 06       		.byte	0x6
 734 037c 6C01     		.2byte	0x16c
 735 037e EA070000 		.4byte	0x7ea
 736 0382 00       		.byte	0
ARM GAS  /tmp/ccCZPrYX.s 			page 14


 737 0383 09       		.uleb128 0x9
 738 0384 ED020000 		.4byte	.LASF69
 739 0388 06       		.byte	0x6
 740 0389 6D01     		.2byte	0x16d
 741 038b EA070000 		.4byte	0x7ea
 742 038f 04       		.byte	0x4
 743 0390 09       		.uleb128 0x9
 744 0391 AF030000 		.4byte	.LASF70
 745 0395 06       		.byte	0x6
 746 0396 6E01     		.2byte	0x16e
 747 0398 53010000 		.4byte	0x153
 748 039c 08       		.byte	0x8
 749 039d 09       		.uleb128 0x9
 750 039e 8D070000 		.4byte	.LASF71
 751 03a2 06       		.byte	0x6
 752 03a3 6F01     		.2byte	0x16f
 753 03a5 40030000 		.4byte	0x340
 754 03a9 0C       		.byte	0xc
 755 03aa 09       		.uleb128 0x9
 756 03ab EC060000 		.4byte	.LASF72
 757 03af 06       		.byte	0x6
 758 03b0 7101     		.2byte	0x171
 759 03b2 5C030000 		.4byte	0x35c
 760 03b6 10       		.byte	0x10
 761 03b7 00       		.byte	0
 762 03b8 04       		.uleb128 0x4
 763 03b9 00010000 		.4byte	.LASF73
 764 03bd 05       		.byte	0x5
 765 03be 66       		.byte	0x66
 766 03bf C3030000 		.4byte	0x3c3
 767 03c3 0B       		.uleb128 0xb
 768 03c4 9D040000 		.4byte	.LASF74
 769 03c8 10       		.byte	0x10
 770 03c9 06       		.byte	0x6
 771 03ca 7B01     		.2byte	0x17b
 772 03cc 05040000 		.4byte	0x405
 773 03d0 09       		.uleb128 0x9
 774 03d1 43030000 		.4byte	.LASF68
 775 03d5 06       		.byte	0x6
 776 03d6 7C01     		.2byte	0x17c
 777 03d8 EA070000 		.4byte	0x7ea
 778 03dc 00       		.byte	0
 779 03dd 09       		.uleb128 0x9
 780 03de ED020000 		.4byte	.LASF69
 781 03e2 06       		.byte	0x6
 782 03e3 7E01     		.2byte	0x17e
 783 03e5 EA070000 		.4byte	0x7ea
 784 03e9 04       		.byte	0x4
 785 03ea 09       		.uleb128 0x9
 786 03eb AF030000 		.4byte	.LASF70
 787 03ef 06       		.byte	0x6
 788 03f0 8001     		.2byte	0x180
 789 03f2 53010000 		.4byte	0x153
 790 03f6 08       		.byte	0x8
 791 03f7 09       		.uleb128 0x9
 792 03f8 4C070000 		.4byte	.LASF75
 793 03fc 06       		.byte	0x6
ARM GAS  /tmp/ccCZPrYX.s 			page 15


 794 03fd 8201     		.2byte	0x182
 795 03ff 5E010000 		.4byte	0x15e
 796 0403 0C       		.byte	0xc
 797 0404 00       		.byte	0
 798 0405 04       		.uleb128 0x4
 799 0406 76000000 		.4byte	.LASF76
 800 040a 05       		.byte	0x5
 801 040b 6B       		.byte	0x6b
 802 040c 10040000 		.4byte	0x410
 803 0410 0B       		.uleb128 0xb
 804 0411 F5020000 		.4byte	.LASF77
 805 0415 0C       		.byte	0xc
 806 0416 06       		.byte	0x6
 807 0417 A201     		.2byte	0x1a2
 808 0419 45040000 		.4byte	0x445
 809 041d 09       		.uleb128 0x9
 810 041e C5060000 		.4byte	.LASF78
 811 0422 06       		.byte	0x6
 812 0423 AA01     		.2byte	0x1aa
 813 0425 D3070000 		.4byte	0x7d3
 814 0429 00       		.byte	0
 815 042a 09       		.uleb128 0x9
 816 042b 15070000 		.4byte	.LASF79
 817 042f 06       		.byte	0x6
 818 0430 AF01     		.2byte	0x1af
 819 0432 3D010000 		.4byte	0x13d
 820 0436 04       		.byte	0x4
 821 0437 09       		.uleb128 0x9
 822 0438 0D030000 		.4byte	.LASF80
 823 043c 06       		.byte	0x6
 824 043d B301     		.2byte	0x1b3
 825 043f 3D010000 		.4byte	0x13d
 826 0443 08       		.byte	0x8
 827 0444 00       		.byte	0
 828 0445 04       		.uleb128 0x4
 829 0446 16040000 		.4byte	.LASF81
 830 044a 05       		.byte	0x5
 831 044b 70       		.byte	0x70
 832 044c 50040000 		.4byte	0x450
 833 0450 0F       		.uleb128 0xf
 834 0451 97010000 		.4byte	.LASF82
 835 0455 5802     		.2byte	0x258
 836 0457 06       		.byte	0x6
 837 0458 C201     		.2byte	0x1c2
 838 045a B9040000 		.4byte	0x4b9
 839 045e 09       		.uleb128 0x9
 840 045f 1D070000 		.4byte	.LASF83
 841 0463 06       		.byte	0x6
 842 0464 C601     		.2byte	0x1c6
 843 0466 D9020000 		.4byte	0x2d9
 844 046a 00       		.byte	0
 845 046b 09       		.uleb128 0x9
 846 046c 90010000 		.4byte	.LASF84
 847 0470 06       		.byte	0x6
 848 0471 CA01     		.2byte	0x1ca
 849 0473 B8030000 		.4byte	0x3b8
 850 0477 1C       		.byte	0x1c
ARM GAS  /tmp/ccCZPrYX.s 			page 16


 851 0478 08       		.uleb128 0x8
 852 0479 64626700 		.ascii	"dbg\000"
 853 047d 06       		.byte	0x6
 854 047e CE01     		.2byte	0x1ce
 855 0480 05040000 		.4byte	0x405
 856 0484 2C       		.byte	0x2c
 857 0485 09       		.uleb128 0x9
 858 0486 F5000000 		.4byte	.LASF85
 859 048a 06       		.byte	0x6
 860 048b D201     		.2byte	0x1d2
 861 048d 63010000 		.4byte	0x163
 862 0491 38       		.byte	0x38
 863 0492 08       		.uleb128 0x8
 864 0493 746D00   		.ascii	"tm\000"
 865 0496 06       		.byte	0x6
 866 0497 D701     		.2byte	0x1d7
 867 0499 6B060000 		.4byte	0x66b
 868 049d 98       		.byte	0x98
 869 049e 09       		.uleb128 0x9
 870 049f 36000000 		.4byte	.LASF86
 871 04a3 06       		.byte	0x6
 872 04a4 DD01     		.2byte	0x1dd
 873 04a6 FD060000 		.4byte	0x6fd
 874 04aa A0       		.byte	0xa0
 875 04ab 09       		.uleb128 0x9
 876 04ac 16030000 		.4byte	.LASF87
 877 04b0 06       		.byte	0x6
 878 04b1 E301     		.2byte	0x1e3
 879 04b3 F0070000 		.4byte	0x7f0
 880 04b7 D8       		.byte	0xd8
 881 04b8 00       		.byte	0
 882 04b9 03       		.uleb128 0x3
 883 04ba 04       		.byte	0x4
 884 04bb 07       		.byte	0x7
 885 04bc 94040000 		.4byte	.LASF88
 886 04c0 10       		.uleb128 0x10
 887 04c1 16010000 		.4byte	.LASF89
 888 04c5 07       		.byte	0x7
 889 04c6 FA06     		.2byte	0x6fa
 890 04c8 CA000000 		.4byte	0xca
 891 04cc 11       		.uleb128 0x11
 892 04cd 54030000 		.4byte	.LASF90
 893 04d1 08       		.byte	0x8
 894 04d2 4C       		.byte	0x4c
 895 04d3 CF000000 		.4byte	0xcf
 896 04d7 04       		.uleb128 0x4
 897 04d8 E4020000 		.4byte	.LASF91
 898 04dc 09       		.byte	0x9
 899 04dd 65       		.byte	0x65
 900 04de 5C030000 		.4byte	0x35c
 901 04e2 04       		.uleb128 0x4
 902 04e3 5C040000 		.4byte	.LASF92
 903 04e7 09       		.byte	0x9
 904 04e8 6D       		.byte	0x6d
 905 04e9 DA000000 		.4byte	0xda
 906 04ed 06       		.uleb128 0x6
 907 04ee D6060000 		.4byte	.LASF93
ARM GAS  /tmp/ccCZPrYX.s 			page 17


 908 04f2 04       		.byte	0x4
 909 04f3 09       		.byte	0x9
 910 04f4 89       		.byte	0x89
 911 04f5 06050000 		.4byte	0x506
 912 04f9 12       		.uleb128 0x12
 913 04fa 72313300 		.ascii	"r13\000"
 914 04fe 09       		.byte	0x9
 915 04ff 8A       		.byte	0x8a
 916 0500 50060000 		.4byte	0x650
 917 0504 00       		.byte	0
 918 0505 00       		.byte	0
 919 0506 06       		.uleb128 0x6
 920 0507 59000000 		.4byte	.LASF94
 921 050b 64       		.byte	0x64
 922 050c 0A       		.byte	0xa
 923 050d FD       		.byte	0xfd
 924 050e 50060000 		.4byte	0x650
 925 0512 12       		.uleb128 0x12
 926 0513 73313600 		.ascii	"s16\000"
 927 0517 0A       		.byte	0xa
 928 0518 FF       		.byte	0xff
 929 0519 D7040000 		.4byte	0x4d7
 930 051d 00       		.byte	0
 931 051e 08       		.uleb128 0x8
 932 051f 73313700 		.ascii	"s17\000"
 933 0523 0A       		.byte	0xa
 934 0524 0001     		.2byte	0x100
 935 0526 D7040000 		.4byte	0x4d7
 936 052a 04       		.byte	0x4
 937 052b 08       		.uleb128 0x8
 938 052c 73313800 		.ascii	"s18\000"
 939 0530 0A       		.byte	0xa
 940 0531 0101     		.2byte	0x101
 941 0533 D7040000 		.4byte	0x4d7
 942 0537 08       		.byte	0x8
 943 0538 08       		.uleb128 0x8
 944 0539 73313900 		.ascii	"s19\000"
 945 053d 0A       		.byte	0xa
 946 053e 0201     		.2byte	0x102
 947 0540 D7040000 		.4byte	0x4d7
 948 0544 0C       		.byte	0xc
 949 0545 08       		.uleb128 0x8
 950 0546 73323000 		.ascii	"s20\000"
 951 054a 0A       		.byte	0xa
 952 054b 0301     		.2byte	0x103
 953 054d D7040000 		.4byte	0x4d7
 954 0551 10       		.byte	0x10
 955 0552 08       		.uleb128 0x8
 956 0553 73323100 		.ascii	"s21\000"
 957 0557 0A       		.byte	0xa
 958 0558 0401     		.2byte	0x104
 959 055a D7040000 		.4byte	0x4d7
 960 055e 14       		.byte	0x14
 961 055f 08       		.uleb128 0x8
 962 0560 73323200 		.ascii	"s22\000"
 963 0564 0A       		.byte	0xa
 964 0565 0501     		.2byte	0x105
ARM GAS  /tmp/ccCZPrYX.s 			page 18


 965 0567 D7040000 		.4byte	0x4d7
 966 056b 18       		.byte	0x18
 967 056c 08       		.uleb128 0x8
 968 056d 73323300 		.ascii	"s23\000"
 969 0571 0A       		.byte	0xa
 970 0572 0601     		.2byte	0x106
 971 0574 D7040000 		.4byte	0x4d7
 972 0578 1C       		.byte	0x1c
 973 0579 08       		.uleb128 0x8
 974 057a 73323400 		.ascii	"s24\000"
 975 057e 0A       		.byte	0xa
 976 057f 0701     		.2byte	0x107
 977 0581 D7040000 		.4byte	0x4d7
 978 0585 20       		.byte	0x20
 979 0586 08       		.uleb128 0x8
 980 0587 73323500 		.ascii	"s25\000"
 981 058b 0A       		.byte	0xa
 982 058c 0801     		.2byte	0x108
 983 058e D7040000 		.4byte	0x4d7
 984 0592 24       		.byte	0x24
 985 0593 08       		.uleb128 0x8
 986 0594 73323600 		.ascii	"s26\000"
 987 0598 0A       		.byte	0xa
 988 0599 0901     		.2byte	0x109
 989 059b D7040000 		.4byte	0x4d7
 990 059f 28       		.byte	0x28
 991 05a0 08       		.uleb128 0x8
 992 05a1 73323700 		.ascii	"s27\000"
 993 05a5 0A       		.byte	0xa
 994 05a6 0A01     		.2byte	0x10a
 995 05a8 D7040000 		.4byte	0x4d7
 996 05ac 2C       		.byte	0x2c
 997 05ad 08       		.uleb128 0x8
 998 05ae 73323800 		.ascii	"s28\000"
 999 05b2 0A       		.byte	0xa
 1000 05b3 0B01     		.2byte	0x10b
 1001 05b5 D7040000 		.4byte	0x4d7
 1002 05b9 30       		.byte	0x30
 1003 05ba 08       		.uleb128 0x8
 1004 05bb 73323900 		.ascii	"s29\000"
 1005 05bf 0A       		.byte	0xa
 1006 05c0 0C01     		.2byte	0x10c
 1007 05c2 D7040000 		.4byte	0x4d7
 1008 05c6 34       		.byte	0x34
 1009 05c7 08       		.uleb128 0x8
 1010 05c8 73333000 		.ascii	"s30\000"
 1011 05cc 0A       		.byte	0xa
 1012 05cd 0D01     		.2byte	0x10d
 1013 05cf D7040000 		.4byte	0x4d7
 1014 05d3 38       		.byte	0x38
 1015 05d4 08       		.uleb128 0x8
 1016 05d5 73333100 		.ascii	"s31\000"
 1017 05d9 0A       		.byte	0xa
 1018 05da 0E01     		.2byte	0x10e
 1019 05dc D7040000 		.4byte	0x4d7
 1020 05e0 3C       		.byte	0x3c
 1021 05e1 08       		.uleb128 0x8
ARM GAS  /tmp/ccCZPrYX.s 			page 19


 1022 05e2 723400   		.ascii	"r4\000"
 1023 05e5 0A       		.byte	0xa
 1024 05e6 1001     		.2byte	0x110
 1025 05e8 D7040000 		.4byte	0x4d7
 1026 05ec 40       		.byte	0x40
 1027 05ed 08       		.uleb128 0x8
 1028 05ee 723500   		.ascii	"r5\000"
 1029 05f1 0A       		.byte	0xa
 1030 05f2 1101     		.2byte	0x111
 1031 05f4 D7040000 		.4byte	0x4d7
 1032 05f8 44       		.byte	0x44
 1033 05f9 08       		.uleb128 0x8
 1034 05fa 723600   		.ascii	"r6\000"
 1035 05fd 0A       		.byte	0xa
 1036 05fe 1201     		.2byte	0x112
 1037 0600 D7040000 		.4byte	0x4d7
 1038 0604 48       		.byte	0x48
 1039 0605 08       		.uleb128 0x8
 1040 0606 723700   		.ascii	"r7\000"
 1041 0609 0A       		.byte	0xa
 1042 060a 1301     		.2byte	0x113
 1043 060c D7040000 		.4byte	0x4d7
 1044 0610 4C       		.byte	0x4c
 1045 0611 08       		.uleb128 0x8
 1046 0612 723800   		.ascii	"r8\000"
 1047 0615 0A       		.byte	0xa
 1048 0616 1401     		.2byte	0x114
 1049 0618 D7040000 		.4byte	0x4d7
 1050 061c 50       		.byte	0x50
 1051 061d 08       		.uleb128 0x8
 1052 061e 723900   		.ascii	"r9\000"
 1053 0621 0A       		.byte	0xa
 1054 0622 1501     		.2byte	0x115
 1055 0624 D7040000 		.4byte	0x4d7
 1056 0628 54       		.byte	0x54
 1057 0629 08       		.uleb128 0x8
 1058 062a 72313000 		.ascii	"r10\000"
 1059 062e 0A       		.byte	0xa
 1060 062f 1601     		.2byte	0x116
 1061 0631 D7040000 		.4byte	0x4d7
 1062 0635 58       		.byte	0x58
 1063 0636 08       		.uleb128 0x8
 1064 0637 72313100 		.ascii	"r11\000"
 1065 063b 0A       		.byte	0xa
 1066 063c 1701     		.2byte	0x117
 1067 063e D7040000 		.4byte	0x4d7
 1068 0642 5C       		.byte	0x5c
 1069 0643 08       		.uleb128 0x8
 1070 0644 6C7200   		.ascii	"lr\000"
 1071 0647 0A       		.byte	0xa
 1072 0648 1801     		.2byte	0x118
 1073 064a D7040000 		.4byte	0x4d7
 1074 064e 60       		.byte	0x60
 1075 064f 00       		.byte	0
 1076 0650 0A       		.uleb128 0xa
 1077 0651 04       		.byte	0x4
 1078 0652 06050000 		.4byte	0x506
ARM GAS  /tmp/ccCZPrYX.s 			page 20


 1079 0656 13       		.uleb128 0x13
 1080 0657 04       		.byte	0x4
 1081 0658 0B       		.byte	0xb
 1082 0659 38       		.byte	0x38
 1083 065a 6B060000 		.4byte	0x66b
 1084 065e 07       		.uleb128 0x7
 1085 065f CF060000 		.4byte	.LASF95
 1086 0663 0B       		.byte	0xb
 1087 0664 3C       		.byte	0x3c
 1088 0665 E5000000 		.4byte	0xe5
 1089 0669 00       		.byte	0
 1090 066a 00       		.byte	0
 1091 066b 04       		.uleb128 0x4
 1092 066c EC040000 		.4byte	.LASF96
 1093 0670 0B       		.byte	0xb
 1094 0671 3D       		.byte	0x3d
 1095 0672 56060000 		.4byte	0x656
 1096 0676 13       		.uleb128 0x13
 1097 0677 18       		.byte	0x18
 1098 0678 0B       		.byte	0xb
 1099 0679 48       		.byte	0x48
 1100 067a B9060000 		.4byte	0x6b9
 1101 067e 07       		.uleb128 0x7
 1102 067f 90060000 		.4byte	.LASF97
 1103 0683 0B       		.byte	0xb
 1104 0684 49       		.byte	0x49
 1105 0685 E5000000 		.4byte	0xe5
 1106 0689 00       		.byte	0
 1107 068a 07       		.uleb128 0x7
 1108 068b A1000000 		.4byte	.LASF98
 1109 068f 0B       		.byte	0xb
 1110 0690 4A       		.byte	0x4a
 1111 0691 E5000000 		.4byte	0xe5
 1112 0695 04       		.byte	0x4
 1113 0696 07       		.uleb128 0x7
 1114 0697 0A040000 		.4byte	.LASF99
 1115 069b 0B       		.byte	0xb
 1116 069c 4B       		.byte	0x4b
 1117 069d E5000000 		.4byte	0xe5
 1118 06a1 08       		.byte	0x8
 1119 06a2 12       		.uleb128 0x12
 1120 06a3 6E00     		.ascii	"n\000"
 1121 06a5 0B       		.byte	0xb
 1122 06a6 4C       		.byte	0x4c
 1123 06a7 48010000 		.4byte	0x148
 1124 06ab 0C       		.byte	0xc
 1125 06ac 07       		.uleb128 0x7
 1126 06ad 1A050000 		.4byte	.LASF100
 1127 06b1 0B       		.byte	0xb
 1128 06b2 4D       		.byte	0x4d
 1129 06b3 F0000000 		.4byte	0xf0
 1130 06b7 10       		.byte	0x10
 1131 06b8 00       		.byte	0
 1132 06b9 04       		.uleb128 0x4
 1133 06ba A7000000 		.4byte	.LASF101
 1134 06be 0B       		.byte	0xb
 1135 06bf 4E       		.byte	0x4e
ARM GAS  /tmp/ccCZPrYX.s 			page 21


 1136 06c0 76060000 		.4byte	0x676
 1137 06c4 13       		.uleb128 0x13
 1138 06c5 38       		.byte	0x38
 1139 06c6 0C       		.byte	0xc
 1140 06c7 38       		.byte	0x38
 1141 06c8 FD060000 		.4byte	0x6fd
 1142 06cc 07       		.uleb128 0x7
 1143 06cd CC030000 		.4byte	.LASF102
 1144 06d1 0C       		.byte	0xc
 1145 06d2 39       		.byte	0x39
 1146 06d3 48010000 		.4byte	0x148
 1147 06d7 00       		.byte	0
 1148 06d8 07       		.uleb128 0x7
 1149 06d9 57050000 		.4byte	.LASF103
 1150 06dd 0C       		.byte	0xc
 1151 06de 3A       		.byte	0x3a
 1152 06df 48010000 		.4byte	0x148
 1153 06e3 04       		.byte	0x4
 1154 06e4 07       		.uleb128 0x7
 1155 06e5 62070000 		.4byte	.LASF104
 1156 06e9 0C       		.byte	0xc
 1157 06ea 3B       		.byte	0x3b
 1158 06eb B9060000 		.4byte	0x6b9
 1159 06ef 08       		.byte	0x8
 1160 06f0 07       		.uleb128 0x7
 1161 06f1 2E040000 		.4byte	.LASF105
 1162 06f5 0C       		.byte	0xc
 1163 06f6 3D       		.byte	0x3d
 1164 06f7 B9060000 		.4byte	0x6b9
 1165 06fb 20       		.byte	0x20
 1166 06fc 00       		.byte	0
 1167 06fd 04       		.uleb128 0x4
 1168 06fe EB030000 		.4byte	.LASF106
 1169 0702 0C       		.byte	0xc
 1170 0703 3F       		.byte	0x3f
 1171 0704 C4060000 		.4byte	0x6c4
 1172 0708 14       		.uleb128 0x14
 1173 0709 04       		.byte	0x4
 1174 070a 06       		.byte	0x6
 1175 070b FA       		.byte	0xfa
 1176 070c 65070000 		.4byte	0x765
 1177 0710 15       		.uleb128 0x15
 1178 0711 26000000 		.4byte	.LASF107
 1179 0715 06       		.byte	0x6
 1180 0716 0101     		.2byte	0x101
 1181 0718 27010000 		.4byte	0x127
 1182 071c 15       		.uleb128 0x15
 1183 071d EC000000 		.4byte	.LASF108
 1184 0721 06       		.byte	0x6
 1185 0722 0801     		.2byte	0x108
 1186 0724 27010000 		.4byte	0x127
 1187 0728 15       		.uleb128 0x15
 1188 0729 3E070000 		.4byte	.LASF109
 1189 072d 06       		.byte	0x6
 1190 072e 0F01     		.2byte	0x10f
 1191 0730 5C030000 		.4byte	0x35c
 1192 0734 15       		.uleb128 0x15
ARM GAS  /tmp/ccCZPrYX.s 			page 22


 1193 0735 1A000000 		.4byte	.LASF110
 1194 0739 06       		.byte	0x6
 1195 073a 1601     		.2byte	0x116
 1196 073c 65070000 		.4byte	0x765
 1197 0740 15       		.uleb128 0x15
 1198 0741 A8030000 		.4byte	.LASF111
 1199 0745 06       		.byte	0x6
 1200 0746 1E01     		.2byte	0x11e
 1201 0748 90070000 		.4byte	0x790
 1202 074c 15       		.uleb128 0x15
 1203 074d 75060000 		.4byte	.LASF112
 1204 0751 06       		.byte	0x6
 1205 0752 2701     		.2byte	0x127
 1206 0754 C7070000 		.4byte	0x7c7
 1207 0758 15       		.uleb128 0x15
 1208 0759 A5050000 		.4byte	.LASF113
 1209 075d 06       		.byte	0x6
 1210 075e 2F01     		.2byte	0x12f
 1211 0760 32010000 		.4byte	0x132
 1212 0764 00       		.byte	0
 1213 0765 0A       		.uleb128 0xa
 1214 0766 04       		.byte	0x4
 1215 0767 74020000 		.4byte	0x274
 1216 076b 06       		.uleb128 0x6
 1217 076c 11060000 		.4byte	.LASF114
 1218 0770 0C       		.byte	0xc
 1219 0771 0D       		.byte	0xd
 1220 0772 34       		.byte	0x34
 1221 0773 90070000 		.4byte	0x790
 1222 0777 07       		.uleb128 0x7
 1223 0778 D4020000 		.4byte	.LASF115
 1224 077c 0D       		.byte	0xd
 1225 077d 35       		.byte	0x35
 1226 077e A9020000 		.4byte	0x2a9
 1227 0782 00       		.byte	0
 1228 0783 07       		.uleb128 0x7
 1229 0784 D2030000 		.4byte	.LASF116
 1230 0788 0D       		.byte	0xd
 1231 0789 37       		.byte	0x37
 1232 078a 3D010000 		.4byte	0x13d
 1233 078e 08       		.byte	0x8
 1234 078f 00       		.byte	0
 1235 0790 0A       		.uleb128 0xa
 1236 0791 04       		.byte	0x4
 1237 0792 6B070000 		.4byte	0x76b
 1238 0796 06       		.uleb128 0x6
 1239 0797 05070000 		.4byte	.LASF117
 1240 079b 10       		.byte	0x10
 1241 079c 0E       		.byte	0xe
 1242 079d 39       		.byte	0x39
 1243 079e C7070000 		.4byte	0x7c7
 1244 07a2 07       		.uleb128 0x7
 1245 07a3 88010000 		.4byte	.LASF118
 1246 07a7 0E       		.byte	0xe
 1247 07a8 3A       		.byte	0x3a
 1248 07a9 A9020000 		.4byte	0x2a9
 1249 07ad 00       		.byte	0
ARM GAS  /tmp/ccCZPrYX.s 			page 23


 1250 07ae 07       		.uleb128 0x7
 1251 07af 6D070000 		.4byte	.LASF119
 1252 07b3 0E       		.byte	0xe
 1253 07b4 3C       		.byte	0x3c
 1254 07b5 7F020000 		.4byte	0x27f
 1255 07b9 08       		.byte	0x8
 1256 07ba 07       		.uleb128 0x7
 1257 07bb 95060000 		.4byte	.LASF120
 1258 07bf 0E       		.byte	0xe
 1259 07c0 3E       		.byte	0x3e
 1260 07c1 22090000 		.4byte	0x922
 1261 07c5 0C       		.byte	0xc
 1262 07c6 00       		.byte	0
 1263 07c7 0A       		.uleb128 0xa
 1264 07c8 04       		.byte	0x4
 1265 07c9 96070000 		.4byte	0x796
 1266 07cd 0A       		.uleb128 0xa
 1267 07ce 04       		.byte	0x4
 1268 07cf DF070000 		.4byte	0x7df
 1269 07d3 05       		.uleb128 0x5
 1270 07d4 CD070000 		.4byte	0x7cd
 1271 07d8 03       		.uleb128 0x3
 1272 07d9 01       		.byte	0x1
 1273 07da 08       		.byte	0x8
 1274 07db 70060000 		.4byte	.LASF121
 1275 07df 16       		.uleb128 0x16
 1276 07e0 D8070000 		.4byte	0x7d8
 1277 07e4 0A       		.uleb128 0xa
 1278 07e5 04       		.byte	0x4
 1279 07e6 E2040000 		.4byte	0x4e2
 1280 07ea 0A       		.uleb128 0xa
 1281 07eb 04       		.byte	0x4
 1282 07ec 5E030000 		.4byte	0x35e
 1283 07f0 17       		.uleb128 0x17
 1284 07f1 E2040000 		.4byte	0x4e2
 1285 07f5 00080000 		.4byte	0x800
 1286 07f9 18       		.uleb128 0x18
 1287 07fa B9040000 		.4byte	0x4b9
 1288 07fe 2F       		.byte	0x2f
 1289 07ff 00       		.byte	0
 1290 0800 19       		.uleb128 0x19
 1291 0801 636800   		.ascii	"ch\000"
 1292 0804 06       		.byte	0x6
 1293 0805 0902     		.2byte	0x209
 1294 0807 45040000 		.4byte	0x445
 1295 080b 13       		.uleb128 0x13
 1296 080c 16       		.byte	0x16
 1297 080d 0F       		.byte	0xf
 1298 080e 34       		.byte	0x34
 1299 080f EC080000 		.4byte	0x8ec
 1300 0813 07       		.uleb128 0x7
 1301 0814 7F070000 		.4byte	.LASF122
 1302 0818 0F       		.byte	0xf
 1303 0819 35       		.byte	0x35
 1304 081a EC080000 		.4byte	0x8ec
 1305 081e 00       		.byte	0
 1306 081f 07       		.uleb128 0x7
ARM GAS  /tmp/ccCZPrYX.s 			page 24


 1307 0820 76040000 		.4byte	.LASF123
 1308 0824 0F       		.byte	0xf
 1309 0825 36       		.byte	0x36
 1310 0826 A9000000 		.4byte	0xa9
 1311 082a 04       		.byte	0x4
 1312 082b 07       		.uleb128 0x7
 1313 082c 56060000 		.4byte	.LASF124
 1314 0830 0F       		.byte	0xf
 1315 0831 37       		.byte	0x37
 1316 0832 A9000000 		.4byte	0xa9
 1317 0836 05       		.byte	0x5
 1318 0837 07       		.uleb128 0x7
 1319 0838 57070000 		.4byte	.LASF125
 1320 083c 0F       		.byte	0xf
 1321 083d 38       		.byte	0x38
 1322 083e B4000000 		.4byte	0xb4
 1323 0842 06       		.byte	0x6
 1324 0843 07       		.uleb128 0x7
 1325 0844 2D050000 		.4byte	.LASF126
 1326 0848 0F       		.byte	0xf
 1327 0849 39       		.byte	0x39
 1328 084a A9000000 		.4byte	0xa9
 1329 084e 08       		.byte	0x8
 1330 084f 07       		.uleb128 0x7
 1331 0850 C0040000 		.4byte	.LASF127
 1332 0854 0F       		.byte	0xf
 1333 0855 3A       		.byte	0x3a
 1334 0856 A9000000 		.4byte	0xa9
 1335 085a 09       		.byte	0x9
 1336 085b 07       		.uleb128 0x7
 1337 085c D1000000 		.4byte	.LASF128
 1338 0860 0F       		.byte	0xf
 1339 0861 3B       		.byte	0x3b
 1340 0862 A9000000 		.4byte	0xa9
 1341 0866 0A       		.byte	0xa
 1342 0867 07       		.uleb128 0x7
 1343 0868 32060000 		.4byte	.LASF129
 1344 086c 0F       		.byte	0xf
 1345 086d 3C       		.byte	0x3c
 1346 086e A9000000 		.4byte	0xa9
 1347 0872 0B       		.byte	0xb
 1348 0873 07       		.uleb128 0x7
 1349 0874 FA060000 		.4byte	.LASF130
 1350 0878 0F       		.byte	0xf
 1351 0879 3D       		.byte	0x3d
 1352 087a A9000000 		.4byte	0xa9
 1353 087e 0C       		.byte	0xc
 1354 087f 07       		.uleb128 0x7
 1355 0880 04060000 		.4byte	.LASF131
 1356 0884 0F       		.byte	0xf
 1357 0885 3E       		.byte	0x3e
 1358 0886 A9000000 		.4byte	0xa9
 1359 088a 0D       		.byte	0xd
 1360 088b 07       		.uleb128 0x7
 1361 088c 00000000 		.4byte	.LASF132
 1362 0890 0F       		.byte	0xf
 1363 0891 3F       		.byte	0x3f
ARM GAS  /tmp/ccCZPrYX.s 			page 25


 1364 0892 A9000000 		.4byte	0xa9
 1365 0896 0E       		.byte	0xe
 1366 0897 07       		.uleb128 0x7
 1367 0898 CC040000 		.4byte	.LASF133
 1368 089c 0F       		.byte	0xf
 1369 089d 40       		.byte	0x40
 1370 089e A9000000 		.4byte	0xa9
 1371 08a2 0F       		.byte	0xf
 1372 08a3 07       		.uleb128 0x7
 1373 08a4 63010000 		.4byte	.LASF134
 1374 08a8 0F       		.byte	0xf
 1375 08a9 41       		.byte	0x41
 1376 08aa A9000000 		.4byte	0xa9
 1377 08ae 10       		.byte	0x10
 1378 08af 07       		.uleb128 0x7
 1379 08b0 33010000 		.4byte	.LASF135
 1380 08b4 0F       		.byte	0xf
 1381 08b5 43       		.byte	0x43
 1382 08b6 A9000000 		.4byte	0xa9
 1383 08ba 11       		.byte	0x11
 1384 08bb 07       		.uleb128 0x7
 1385 08bc 73010000 		.4byte	.LASF136
 1386 08c0 0F       		.byte	0xf
 1387 08c1 44       		.byte	0x44
 1388 08c2 A9000000 		.4byte	0xa9
 1389 08c6 12       		.byte	0x12
 1390 08c7 07       		.uleb128 0x7
 1391 08c8 7E040000 		.4byte	.LASF137
 1392 08cc 0F       		.byte	0xf
 1393 08cd 45       		.byte	0x45
 1394 08ce A9000000 		.4byte	0xa9
 1395 08d2 13       		.byte	0x13
 1396 08d3 07       		.uleb128 0x7
 1397 08d4 BB050000 		.4byte	.LASF138
 1398 08d8 0F       		.byte	0xf
 1399 08d9 46       		.byte	0x46
 1400 08da A9000000 		.4byte	0xa9
 1401 08de 14       		.byte	0x14
 1402 08df 07       		.uleb128 0x7
 1403 08e0 22040000 		.4byte	.LASF139
 1404 08e4 0F       		.byte	0xf
 1405 08e5 48       		.byte	0x48
 1406 08e6 A9000000 		.4byte	0xa9
 1407 08ea 15       		.byte	0x15
 1408 08eb 00       		.byte	0
 1409 08ec 17       		.uleb128 0x17
 1410 08ed D8070000 		.4byte	0x7d8
 1411 08f1 FC080000 		.4byte	0x8fc
 1412 08f5 18       		.uleb128 0x18
 1413 08f6 B9040000 		.4byte	0x4b9
 1414 08fa 03       		.byte	0x3
 1415 08fb 00       		.byte	0
 1416 08fc 04       		.uleb128 0x4
 1417 08fd 75070000 		.4byte	.LASF140
 1418 0901 0F       		.byte	0xf
 1419 0902 49       		.byte	0x49
 1420 0903 0B080000 		.4byte	0x80b
ARM GAS  /tmp/ccCZPrYX.s 			page 26


 1421 0907 16       		.uleb128 0x16
 1422 0908 FC080000 		.4byte	0x8fc
 1423 090c 11       		.uleb128 0x11
 1424 090d C3030000 		.4byte	.LASF141
 1425 0911 0F       		.byte	0xf
 1426 0912 6E       		.byte	0x6e
 1427 0913 07090000 		.4byte	0x907
 1428 0917 04       		.uleb128 0x4
 1429 0918 05030000 		.4byte	.LASF142
 1430 091c 0E       		.byte	0xe
 1431 091d 34       		.byte	0x34
 1432 091e 96070000 		.4byte	0x796
 1433 0922 0A       		.uleb128 0xa
 1434 0923 04       		.byte	0x4
 1435 0924 17090000 		.4byte	0x917
 1436 0928 03       		.uleb128 0x3
 1437 0929 01       		.byte	0x1
 1438 092a 02       		.byte	0x2
 1439 092b 60050000 		.4byte	.LASF143
 1440 092f 1A       		.uleb128 0x1a
 1441 0930 DF000000 		.4byte	.LASF144
 1442 0934 01       		.byte	0x1
 1443 0935 C3       		.byte	0xc3
 1444 0936 00000000 		.4byte	.LFB233
 1445 093a 68000000 		.4byte	.LFE233-.LFB233
 1446 093e 01       		.uleb128 0x1
 1447 093f 9C       		.byte	0x9c
 1448 0940 62090000 		.4byte	0x962
 1449 0944 1B       		.uleb128 0x1b
 1450 0945 76747000 		.ascii	"vtp\000"
 1451 0949 01       		.byte	0x1
 1452 094a C3       		.byte	0xc3
 1453 094b EA070000 		.4byte	0x7ea
 1454 094f 02       		.uleb128 0x2
 1455 0950 91       		.byte	0x91
 1456 0951 74       		.sleb128 -12
 1457 0952 1C       		.uleb128 0x1c
 1458 0953 D2050000 		.4byte	.LASF149
 1459 0957 72090000 		.4byte	0x972
 1460 095b 05       		.uleb128 0x5
 1461 095c 03       		.byte	0x3
 1462 095d 00000000 		.4byte	__func__.7872
 1463 0961 00       		.byte	0
 1464 0962 17       		.uleb128 0x17
 1465 0963 DF070000 		.4byte	0x7df
 1466 0967 72090000 		.4byte	0x972
 1467 096b 18       		.uleb128 0x18
 1468 096c B9040000 		.4byte	0x4b9
 1469 0970 0C       		.byte	0xc
 1470 0971 00       		.byte	0
 1471 0972 16       		.uleb128 0x16
 1472 0973 62090000 		.4byte	0x962
 1473 0977 1A       		.uleb128 0x1a
 1474 0978 47040000 		.4byte	.LASF145
 1475 097c 01       		.byte	0x1
 1476 097d 5F       		.byte	0x5f
 1477 097e 00000000 		.4byte	.LFB232
ARM GAS  /tmp/ccCZPrYX.s 			page 27


 1478 0982 B0000000 		.4byte	.LFE232-.LFB232
 1479 0986 01       		.uleb128 0x1
 1480 0987 9C       		.byte	0x9c
 1481 0988 EE090000 		.4byte	0x9ee
 1482 098c 1B       		.uleb128 0x1b
 1483 098d 76747000 		.ascii	"vtp\000"
 1484 0991 01       		.byte	0x1
 1485 0992 5F       		.byte	0x5f
 1486 0993 EA070000 		.4byte	0x7ea
 1487 0997 02       		.uleb128 0x2
 1488 0998 91       		.byte	0x91
 1489 0999 6C       		.sleb128 -20
 1490 099a 1D       		.uleb128 0x1d
 1491 099b 7C050000 		.4byte	.LASF146
 1492 099f 01       		.byte	0x1
 1493 09a0 5F       		.byte	0x5f
 1494 09a1 53010000 		.4byte	0x153
 1495 09a5 02       		.uleb128 0x2
 1496 09a6 91       		.byte	0x91
 1497 09a7 68       		.sleb128 -24
 1498 09a8 1D       		.uleb128 0x1d
 1499 09a9 F3060000 		.4byte	.LASF147
 1500 09ad 01       		.byte	0x1
 1501 09ae 60       		.byte	0x60
 1502 09af 40030000 		.4byte	0x340
 1503 09b3 02       		.uleb128 0x2
 1504 09b4 91       		.byte	0x91
 1505 09b5 64       		.sleb128 -28
 1506 09b6 1B       		.uleb128 0x1b
 1507 09b7 70617200 		.ascii	"par\000"
 1508 09bb 01       		.byte	0x1
 1509 09bc 60       		.byte	0x60
 1510 09bd 5C030000 		.4byte	0x35c
 1511 09c1 02       		.uleb128 0x2
 1512 09c2 91       		.byte	0x91
 1513 09c3 60       		.sleb128 -32
 1514 09c4 1E       		.uleb128 0x1e
 1515 09c5 7000     		.ascii	"p\000"
 1516 09c7 01       		.byte	0x1
 1517 09c8 61       		.byte	0x61
 1518 09c9 EA070000 		.4byte	0x7ea
 1519 09cd 02       		.uleb128 0x2
 1520 09ce 91       		.byte	0x91
 1521 09cf 74       		.sleb128 -12
 1522 09d0 1F       		.uleb128 0x1f
 1523 09d1 20000000 		.4byte	.LASF148
 1524 09d5 01       		.byte	0x1
 1525 09d6 62       		.byte	0x62
 1526 09d7 53010000 		.4byte	0x153
 1527 09db 02       		.uleb128 0x2
 1528 09dc 91       		.byte	0x91
 1529 09dd 70       		.sleb128 -16
 1530 09de 1C       		.uleb128 0x1c
 1531 09df D2050000 		.4byte	.LASF149
 1532 09e3 FE090000 		.4byte	0x9fe
 1533 09e7 05       		.uleb128 0x5
 1534 09e8 03       		.byte	0x3
ARM GAS  /tmp/ccCZPrYX.s 			page 28


 1535 09e9 00000000 		.4byte	__func__.7865
 1536 09ed 00       		.byte	0
 1537 09ee 17       		.uleb128 0x17
 1538 09ef DF070000 		.4byte	0x7df
 1539 09f3 FE090000 		.4byte	0x9fe
 1540 09f7 18       		.uleb128 0x18
 1541 09f8 B9040000 		.4byte	0x4b9
 1542 09fc 0A       		.byte	0xa
 1543 09fd 00       		.byte	0
 1544 09fe 16       		.uleb128 0x16
 1545 09ff EE090000 		.4byte	0x9ee
 1546 0a03 20       		.uleb128 0x20
 1547 0a04 40010000 		.4byte	.LASF153
 1548 0a08 01       		.byte	0x1
 1549 0a09 3D       		.byte	0x3d
 1550 0a0a 00000000 		.4byte	.LFB231
 1551 0a0e 28000000 		.4byte	.LFE231-.LFB231
 1552 0a12 01       		.uleb128 0x1
 1553 0a13 9C       		.byte	0x9c
 1554 0a14 00       		.byte	0
 1555              		.section	.debug_abbrev,"",%progbits
 1556              	.Ldebug_abbrev0:
 1557 0000 01       		.uleb128 0x1
 1558 0001 11       		.uleb128 0x11
 1559 0002 01       		.byte	0x1
 1560 0003 25       		.uleb128 0x25
 1561 0004 0E       		.uleb128 0xe
 1562 0005 13       		.uleb128 0x13
 1563 0006 0B       		.uleb128 0xb
 1564 0007 03       		.uleb128 0x3
 1565 0008 0E       		.uleb128 0xe
 1566 0009 1B       		.uleb128 0x1b
 1567 000a 0E       		.uleb128 0xe
 1568 000b 55       		.uleb128 0x55
 1569 000c 17       		.uleb128 0x17
 1570 000d 11       		.uleb128 0x11
 1571 000e 01       		.uleb128 0x1
 1572 000f 10       		.uleb128 0x10
 1573 0010 17       		.uleb128 0x17
 1574 0011 00       		.byte	0
 1575 0012 00       		.byte	0
 1576 0013 02       		.uleb128 0x2
 1577 0014 24       		.uleb128 0x24
 1578 0015 00       		.byte	0
 1579 0016 0B       		.uleb128 0xb
 1580 0017 0B       		.uleb128 0xb
 1581 0018 3E       		.uleb128 0x3e
 1582 0019 0B       		.uleb128 0xb
 1583 001a 03       		.uleb128 0x3
 1584 001b 08       		.uleb128 0x8
 1585 001c 00       		.byte	0
 1586 001d 00       		.byte	0
 1587 001e 03       		.uleb128 0x3
 1588 001f 24       		.uleb128 0x24
 1589 0020 00       		.byte	0
 1590 0021 0B       		.uleb128 0xb
 1591 0022 0B       		.uleb128 0xb
ARM GAS  /tmp/ccCZPrYX.s 			page 29


 1592 0023 3E       		.uleb128 0x3e
 1593 0024 0B       		.uleb128 0xb
 1594 0025 03       		.uleb128 0x3
 1595 0026 0E       		.uleb128 0xe
 1596 0027 00       		.byte	0
 1597 0028 00       		.byte	0
 1598 0029 04       		.uleb128 0x4
 1599 002a 16       		.uleb128 0x16
 1600 002b 00       		.byte	0
 1601 002c 03       		.uleb128 0x3
 1602 002d 0E       		.uleb128 0xe
 1603 002e 3A       		.uleb128 0x3a
 1604 002f 0B       		.uleb128 0xb
 1605 0030 3B       		.uleb128 0x3b
 1606 0031 0B       		.uleb128 0xb
 1607 0032 49       		.uleb128 0x49
 1608 0033 13       		.uleb128 0x13
 1609 0034 00       		.byte	0
 1610 0035 00       		.byte	0
 1611 0036 05       		.uleb128 0x5
 1612 0037 35       		.uleb128 0x35
 1613 0038 00       		.byte	0
 1614 0039 49       		.uleb128 0x49
 1615 003a 13       		.uleb128 0x13
 1616 003b 00       		.byte	0
 1617 003c 00       		.byte	0
 1618 003d 06       		.uleb128 0x6
 1619 003e 13       		.uleb128 0x13
 1620 003f 01       		.byte	0x1
 1621 0040 03       		.uleb128 0x3
 1622 0041 0E       		.uleb128 0xe
 1623 0042 0B       		.uleb128 0xb
 1624 0043 0B       		.uleb128 0xb
 1625 0044 3A       		.uleb128 0x3a
 1626 0045 0B       		.uleb128 0xb
 1627 0046 3B       		.uleb128 0x3b
 1628 0047 0B       		.uleb128 0xb
 1629 0048 01       		.uleb128 0x1
 1630 0049 13       		.uleb128 0x13
 1631 004a 00       		.byte	0
 1632 004b 00       		.byte	0
 1633 004c 07       		.uleb128 0x7
 1634 004d 0D       		.uleb128 0xd
 1635 004e 00       		.byte	0
 1636 004f 03       		.uleb128 0x3
 1637 0050 0E       		.uleb128 0xe
 1638 0051 3A       		.uleb128 0x3a
 1639 0052 0B       		.uleb128 0xb
 1640 0053 3B       		.uleb128 0x3b
 1641 0054 0B       		.uleb128 0xb
 1642 0055 49       		.uleb128 0x49
 1643 0056 13       		.uleb128 0x13
 1644 0057 38       		.uleb128 0x38
 1645 0058 0B       		.uleb128 0xb
 1646 0059 00       		.byte	0
 1647 005a 00       		.byte	0
 1648 005b 08       		.uleb128 0x8
ARM GAS  /tmp/ccCZPrYX.s 			page 30


 1649 005c 0D       		.uleb128 0xd
 1650 005d 00       		.byte	0
 1651 005e 03       		.uleb128 0x3
 1652 005f 08       		.uleb128 0x8
 1653 0060 3A       		.uleb128 0x3a
 1654 0061 0B       		.uleb128 0xb
 1655 0062 3B       		.uleb128 0x3b
 1656 0063 05       		.uleb128 0x5
 1657 0064 49       		.uleb128 0x49
 1658 0065 13       		.uleb128 0x13
 1659 0066 38       		.uleb128 0x38
 1660 0067 0B       		.uleb128 0xb
 1661 0068 00       		.byte	0
 1662 0069 00       		.byte	0
 1663 006a 09       		.uleb128 0x9
 1664 006b 0D       		.uleb128 0xd
 1665 006c 00       		.byte	0
 1666 006d 03       		.uleb128 0x3
 1667 006e 0E       		.uleb128 0xe
 1668 006f 3A       		.uleb128 0x3a
 1669 0070 0B       		.uleb128 0xb
 1670 0071 3B       		.uleb128 0x3b
 1671 0072 05       		.uleb128 0x5
 1672 0073 49       		.uleb128 0x49
 1673 0074 13       		.uleb128 0x13
 1674 0075 38       		.uleb128 0x38
 1675 0076 0B       		.uleb128 0xb
 1676 0077 00       		.byte	0
 1677 0078 00       		.byte	0
 1678 0079 0A       		.uleb128 0xa
 1679 007a 0F       		.uleb128 0xf
 1680 007b 00       		.byte	0
 1681 007c 0B       		.uleb128 0xb
 1682 007d 0B       		.uleb128 0xb
 1683 007e 49       		.uleb128 0x49
 1684 007f 13       		.uleb128 0x13
 1685 0080 00       		.byte	0
 1686 0081 00       		.byte	0
 1687 0082 0B       		.uleb128 0xb
 1688 0083 13       		.uleb128 0x13
 1689 0084 01       		.byte	0x1
 1690 0085 03       		.uleb128 0x3
 1691 0086 0E       		.uleb128 0xe
 1692 0087 0B       		.uleb128 0xb
 1693 0088 0B       		.uleb128 0xb
 1694 0089 3A       		.uleb128 0x3a
 1695 008a 0B       		.uleb128 0xb
 1696 008b 3B       		.uleb128 0x3b
 1697 008c 05       		.uleb128 0x5
 1698 008d 01       		.uleb128 0x1
 1699 008e 13       		.uleb128 0x13
 1700 008f 00       		.byte	0
 1701 0090 00       		.byte	0
 1702 0091 0C       		.uleb128 0xc
 1703 0092 15       		.uleb128 0x15
 1704 0093 01       		.byte	0x1
 1705 0094 27       		.uleb128 0x27
ARM GAS  /tmp/ccCZPrYX.s 			page 31


 1706 0095 19       		.uleb128 0x19
 1707 0096 01       		.uleb128 0x1
 1708 0097 13       		.uleb128 0x13
 1709 0098 00       		.byte	0
 1710 0099 00       		.byte	0
 1711 009a 0D       		.uleb128 0xd
 1712 009b 05       		.uleb128 0x5
 1713 009c 00       		.byte	0
 1714 009d 49       		.uleb128 0x49
 1715 009e 13       		.uleb128 0x13
 1716 009f 00       		.byte	0
 1717 00a0 00       		.byte	0
 1718 00a1 0E       		.uleb128 0xe
 1719 00a2 0F       		.uleb128 0xf
 1720 00a3 00       		.byte	0
 1721 00a4 0B       		.uleb128 0xb
 1722 00a5 0B       		.uleb128 0xb
 1723 00a6 00       		.byte	0
 1724 00a7 00       		.byte	0
 1725 00a8 0F       		.uleb128 0xf
 1726 00a9 13       		.uleb128 0x13
 1727 00aa 01       		.byte	0x1
 1728 00ab 03       		.uleb128 0x3
 1729 00ac 0E       		.uleb128 0xe
 1730 00ad 0B       		.uleb128 0xb
 1731 00ae 05       		.uleb128 0x5
 1732 00af 3A       		.uleb128 0x3a
 1733 00b0 0B       		.uleb128 0xb
 1734 00b1 3B       		.uleb128 0x3b
 1735 00b2 05       		.uleb128 0x5
 1736 00b3 01       		.uleb128 0x1
 1737 00b4 13       		.uleb128 0x13
 1738 00b5 00       		.byte	0
 1739 00b6 00       		.byte	0
 1740 00b7 10       		.uleb128 0x10
 1741 00b8 34       		.uleb128 0x34
 1742 00b9 00       		.byte	0
 1743 00ba 03       		.uleb128 0x3
 1744 00bb 0E       		.uleb128 0xe
 1745 00bc 3A       		.uleb128 0x3a
 1746 00bd 0B       		.uleb128 0xb
 1747 00be 3B       		.uleb128 0x3b
 1748 00bf 05       		.uleb128 0x5
 1749 00c0 49       		.uleb128 0x49
 1750 00c1 13       		.uleb128 0x13
 1751 00c2 3F       		.uleb128 0x3f
 1752 00c3 19       		.uleb128 0x19
 1753 00c4 3C       		.uleb128 0x3c
 1754 00c5 19       		.uleb128 0x19
 1755 00c6 00       		.byte	0
 1756 00c7 00       		.byte	0
 1757 00c8 11       		.uleb128 0x11
 1758 00c9 34       		.uleb128 0x34
 1759 00ca 00       		.byte	0
 1760 00cb 03       		.uleb128 0x3
 1761 00cc 0E       		.uleb128 0xe
 1762 00cd 3A       		.uleb128 0x3a
ARM GAS  /tmp/ccCZPrYX.s 			page 32


 1763 00ce 0B       		.uleb128 0xb
 1764 00cf 3B       		.uleb128 0x3b
 1765 00d0 0B       		.uleb128 0xb
 1766 00d1 49       		.uleb128 0x49
 1767 00d2 13       		.uleb128 0x13
 1768 00d3 3F       		.uleb128 0x3f
 1769 00d4 19       		.uleb128 0x19
 1770 00d5 3C       		.uleb128 0x3c
 1771 00d6 19       		.uleb128 0x19
 1772 00d7 00       		.byte	0
 1773 00d8 00       		.byte	0
 1774 00d9 12       		.uleb128 0x12
 1775 00da 0D       		.uleb128 0xd
 1776 00db 00       		.byte	0
 1777 00dc 03       		.uleb128 0x3
 1778 00dd 08       		.uleb128 0x8
 1779 00de 3A       		.uleb128 0x3a
 1780 00df 0B       		.uleb128 0xb
 1781 00e0 3B       		.uleb128 0x3b
 1782 00e1 0B       		.uleb128 0xb
 1783 00e2 49       		.uleb128 0x49
 1784 00e3 13       		.uleb128 0x13
 1785 00e4 38       		.uleb128 0x38
 1786 00e5 0B       		.uleb128 0xb
 1787 00e6 00       		.byte	0
 1788 00e7 00       		.byte	0
 1789 00e8 13       		.uleb128 0x13
 1790 00e9 13       		.uleb128 0x13
 1791 00ea 01       		.byte	0x1
 1792 00eb 0B       		.uleb128 0xb
 1793 00ec 0B       		.uleb128 0xb
 1794 00ed 3A       		.uleb128 0x3a
 1795 00ee 0B       		.uleb128 0xb
 1796 00ef 3B       		.uleb128 0x3b
 1797 00f0 0B       		.uleb128 0xb
 1798 00f1 01       		.uleb128 0x1
 1799 00f2 13       		.uleb128 0x13
 1800 00f3 00       		.byte	0
 1801 00f4 00       		.byte	0
 1802 00f5 14       		.uleb128 0x14
 1803 00f6 17       		.uleb128 0x17
 1804 00f7 01       		.byte	0x1
 1805 00f8 0B       		.uleb128 0xb
 1806 00f9 0B       		.uleb128 0xb
 1807 00fa 3A       		.uleb128 0x3a
 1808 00fb 0B       		.uleb128 0xb
 1809 00fc 3B       		.uleb128 0x3b
 1810 00fd 0B       		.uleb128 0xb
 1811 00fe 01       		.uleb128 0x1
 1812 00ff 13       		.uleb128 0x13
 1813 0100 00       		.byte	0
 1814 0101 00       		.byte	0
 1815 0102 15       		.uleb128 0x15
 1816 0103 0D       		.uleb128 0xd
 1817 0104 00       		.byte	0
 1818 0105 03       		.uleb128 0x3
 1819 0106 0E       		.uleb128 0xe
ARM GAS  /tmp/ccCZPrYX.s 			page 33


 1820 0107 3A       		.uleb128 0x3a
 1821 0108 0B       		.uleb128 0xb
 1822 0109 3B       		.uleb128 0x3b
 1823 010a 05       		.uleb128 0x5
 1824 010b 49       		.uleb128 0x49
 1825 010c 13       		.uleb128 0x13
 1826 010d 00       		.byte	0
 1827 010e 00       		.byte	0
 1828 010f 16       		.uleb128 0x16
 1829 0110 26       		.uleb128 0x26
 1830 0111 00       		.byte	0
 1831 0112 49       		.uleb128 0x49
 1832 0113 13       		.uleb128 0x13
 1833 0114 00       		.byte	0
 1834 0115 00       		.byte	0
 1835 0116 17       		.uleb128 0x17
 1836 0117 01       		.uleb128 0x1
 1837 0118 01       		.byte	0x1
 1838 0119 49       		.uleb128 0x49
 1839 011a 13       		.uleb128 0x13
 1840 011b 01       		.uleb128 0x1
 1841 011c 13       		.uleb128 0x13
 1842 011d 00       		.byte	0
 1843 011e 00       		.byte	0
 1844 011f 18       		.uleb128 0x18
 1845 0120 21       		.uleb128 0x21
 1846 0121 00       		.byte	0
 1847 0122 49       		.uleb128 0x49
 1848 0123 13       		.uleb128 0x13
 1849 0124 2F       		.uleb128 0x2f
 1850 0125 0B       		.uleb128 0xb
 1851 0126 00       		.byte	0
 1852 0127 00       		.byte	0
 1853 0128 19       		.uleb128 0x19
 1854 0129 34       		.uleb128 0x34
 1855 012a 00       		.byte	0
 1856 012b 03       		.uleb128 0x3
 1857 012c 08       		.uleb128 0x8
 1858 012d 3A       		.uleb128 0x3a
 1859 012e 0B       		.uleb128 0xb
 1860 012f 3B       		.uleb128 0x3b
 1861 0130 05       		.uleb128 0x5
 1862 0131 49       		.uleb128 0x49
 1863 0132 13       		.uleb128 0x13
 1864 0133 3F       		.uleb128 0x3f
 1865 0134 19       		.uleb128 0x19
 1866 0135 3C       		.uleb128 0x3c
 1867 0136 19       		.uleb128 0x19
 1868 0137 00       		.byte	0
 1869 0138 00       		.byte	0
 1870 0139 1A       		.uleb128 0x1a
 1871 013a 2E       		.uleb128 0x2e
 1872 013b 01       		.byte	0x1
 1873 013c 3F       		.uleb128 0x3f
 1874 013d 19       		.uleb128 0x19
 1875 013e 03       		.uleb128 0x3
 1876 013f 0E       		.uleb128 0xe
ARM GAS  /tmp/ccCZPrYX.s 			page 34


 1877 0140 3A       		.uleb128 0x3a
 1878 0141 0B       		.uleb128 0xb
 1879 0142 3B       		.uleb128 0x3b
 1880 0143 0B       		.uleb128 0xb
 1881 0144 27       		.uleb128 0x27
 1882 0145 19       		.uleb128 0x19
 1883 0146 11       		.uleb128 0x11
 1884 0147 01       		.uleb128 0x1
 1885 0148 12       		.uleb128 0x12
 1886 0149 06       		.uleb128 0x6
 1887 014a 40       		.uleb128 0x40
 1888 014b 18       		.uleb128 0x18
 1889 014c 9642     		.uleb128 0x2116
 1890 014e 19       		.uleb128 0x19
 1891 014f 01       		.uleb128 0x1
 1892 0150 13       		.uleb128 0x13
 1893 0151 00       		.byte	0
 1894 0152 00       		.byte	0
 1895 0153 1B       		.uleb128 0x1b
 1896 0154 05       		.uleb128 0x5
 1897 0155 00       		.byte	0
 1898 0156 03       		.uleb128 0x3
 1899 0157 08       		.uleb128 0x8
 1900 0158 3A       		.uleb128 0x3a
 1901 0159 0B       		.uleb128 0xb
 1902 015a 3B       		.uleb128 0x3b
 1903 015b 0B       		.uleb128 0xb
 1904 015c 49       		.uleb128 0x49
 1905 015d 13       		.uleb128 0x13
 1906 015e 02       		.uleb128 0x2
 1907 015f 18       		.uleb128 0x18
 1908 0160 00       		.byte	0
 1909 0161 00       		.byte	0
 1910 0162 1C       		.uleb128 0x1c
 1911 0163 34       		.uleb128 0x34
 1912 0164 00       		.byte	0
 1913 0165 03       		.uleb128 0x3
 1914 0166 0E       		.uleb128 0xe
 1915 0167 49       		.uleb128 0x49
 1916 0168 13       		.uleb128 0x13
 1917 0169 34       		.uleb128 0x34
 1918 016a 19       		.uleb128 0x19
 1919 016b 02       		.uleb128 0x2
 1920 016c 18       		.uleb128 0x18
 1921 016d 00       		.byte	0
 1922 016e 00       		.byte	0
 1923 016f 1D       		.uleb128 0x1d
 1924 0170 05       		.uleb128 0x5
 1925 0171 00       		.byte	0
 1926 0172 03       		.uleb128 0x3
 1927 0173 0E       		.uleb128 0xe
 1928 0174 3A       		.uleb128 0x3a
 1929 0175 0B       		.uleb128 0xb
 1930 0176 3B       		.uleb128 0x3b
 1931 0177 0B       		.uleb128 0xb
 1932 0178 49       		.uleb128 0x49
 1933 0179 13       		.uleb128 0x13
ARM GAS  /tmp/ccCZPrYX.s 			page 35


 1934 017a 02       		.uleb128 0x2
 1935 017b 18       		.uleb128 0x18
 1936 017c 00       		.byte	0
 1937 017d 00       		.byte	0
 1938 017e 1E       		.uleb128 0x1e
 1939 017f 34       		.uleb128 0x34
 1940 0180 00       		.byte	0
 1941 0181 03       		.uleb128 0x3
 1942 0182 08       		.uleb128 0x8
 1943 0183 3A       		.uleb128 0x3a
 1944 0184 0B       		.uleb128 0xb
 1945 0185 3B       		.uleb128 0x3b
 1946 0186 0B       		.uleb128 0xb
 1947 0187 49       		.uleb128 0x49
 1948 0188 13       		.uleb128 0x13
 1949 0189 02       		.uleb128 0x2
 1950 018a 18       		.uleb128 0x18
 1951 018b 00       		.byte	0
 1952 018c 00       		.byte	0
 1953 018d 1F       		.uleb128 0x1f
 1954 018e 34       		.uleb128 0x34
 1955 018f 00       		.byte	0
 1956 0190 03       		.uleb128 0x3
 1957 0191 0E       		.uleb128 0xe
 1958 0192 3A       		.uleb128 0x3a
 1959 0193 0B       		.uleb128 0xb
 1960 0194 3B       		.uleb128 0x3b
 1961 0195 0B       		.uleb128 0xb
 1962 0196 49       		.uleb128 0x49
 1963 0197 13       		.uleb128 0x13
 1964 0198 02       		.uleb128 0x2
 1965 0199 18       		.uleb128 0x18
 1966 019a 00       		.byte	0
 1967 019b 00       		.byte	0
 1968 019c 20       		.uleb128 0x20
 1969 019d 2E       		.uleb128 0x2e
 1970 019e 00       		.byte	0
 1971 019f 3F       		.uleb128 0x3f
 1972 01a0 19       		.uleb128 0x19
 1973 01a1 03       		.uleb128 0x3
 1974 01a2 0E       		.uleb128 0xe
 1975 01a3 3A       		.uleb128 0x3a
 1976 01a4 0B       		.uleb128 0xb
 1977 01a5 3B       		.uleb128 0x3b
 1978 01a6 0B       		.uleb128 0xb
 1979 01a7 27       		.uleb128 0x27
 1980 01a8 19       		.uleb128 0x19
 1981 01a9 11       		.uleb128 0x11
 1982 01aa 01       		.uleb128 0x1
 1983 01ab 12       		.uleb128 0x12
 1984 01ac 06       		.uleb128 0x6
 1985 01ad 40       		.uleb128 0x40
 1986 01ae 18       		.uleb128 0x18
 1987 01af 9742     		.uleb128 0x2117
 1988 01b1 19       		.uleb128 0x19
 1989 01b2 00       		.byte	0
 1990 01b3 00       		.byte	0
ARM GAS  /tmp/ccCZPrYX.s 			page 36


 1991 01b4 00       		.byte	0
 1992              		.section	.debug_aranges,"",%progbits
 1993 0000 2C000000 		.4byte	0x2c
 1994 0004 0200     		.2byte	0x2
 1995 0006 00000000 		.4byte	.Ldebug_info0
 1996 000a 04       		.byte	0x4
 1997 000b 00       		.byte	0
 1998 000c 0000     		.2byte	0
 1999 000e 0000     		.2byte	0
 2000 0010 00000000 		.4byte	.LFB231
 2001 0014 28000000 		.4byte	.LFE231-.LFB231
 2002 0018 00000000 		.4byte	.LFB232
 2003 001c B0000000 		.4byte	.LFE232-.LFB232
 2004 0020 00000000 		.4byte	.LFB233
 2005 0024 68000000 		.4byte	.LFE233-.LFB233
 2006 0028 00000000 		.4byte	0
 2007 002c 00000000 		.4byte	0
 2008              		.section	.debug_ranges,"",%progbits
 2009              	.Ldebug_ranges0:
 2010 0000 00000000 		.4byte	.LFB231
 2011 0004 28000000 		.4byte	.LFE231
 2012 0008 00000000 		.4byte	.LFB232
 2013 000c B0000000 		.4byte	.LFE232
 2014 0010 00000000 		.4byte	.LFB233
 2015 0014 68000000 		.4byte	.LFE233
 2016 0018 00000000 		.4byte	0
 2017 001c 00000000 		.4byte	0
 2018              		.section	.debug_line,"",%progbits
 2019              	.Ldebug_line0:
 2020 0000 6D020000 		.section	.debug_str,"MS",%progbits,1
 2020      0200E301 
 2020      00000201 
 2020      FB0E0D00 
 2020      01010101 
 2021              	.LASF132:
 2022 0000 63665F6F 		.ascii	"cf_off_older\000"
 2022      66665F6F 
 2022      6C646572 
 2022      00
 2023              	.LASF57:
 2024 000d 72656164 		.ascii	"ready_list_t\000"
 2024      795F6C69 
 2024      73745F74 
 2024      00
 2025              	.LASF110:
 2026 001a 77747472 		.ascii	"wttrp\000"
 2026      7000
 2027              	.LASF148:
 2028 0020 64656C74 		.ascii	"delta\000"
 2028      6100
 2029              	.LASF107:
 2030 0026 7264796D 		.ascii	"rdymsg\000"
 2030      736700
 2031              	.LASF19:
 2032 002d 75696E74 		.ascii	"uint64_t\000"
 2032      36345F74 
 2032      00
ARM GAS  /tmp/ccCZPrYX.s 			page 37


 2033              	.LASF86:
 2034 0036 6B65726E 		.ascii	"kernel_stats\000"
 2034      656C5F73 
 2034      74617473 
 2034      00
 2035              	.LASF27:
 2036 0043 6576656E 		.ascii	"eventmask_t\000"
 2036      746D6173 
 2036      6B5F7400 
 2037              	.LASF6:
 2038 004f 5F5F7569 		.ascii	"__uint8_t\000"
 2038      6E74385F 
 2038      7400
 2039              	.LASF94:
 2040 0059 706F7274 		.ascii	"port_intctx\000"
 2040      5F696E74 
 2040      63747800 
 2041              	.LASF56:
 2042 0065 63685F74 		.ascii	"ch_threads_queue\000"
 2042      68726561 
 2042      64735F71 
 2042      75657565 
 2042      00
 2043              	.LASF76:
 2044 0076 73797374 		.ascii	"system_debug_t\000"
 2044      656D5F64 
 2044      65627567 
 2044      5F7400
 2045              	.LASF151:
 2046 0085 2E2E2F43 		.ascii	"../ChibiOS/os/rt/src/chvt.c\000"
 2046      68696269 
 2046      4F532F6F 
 2046      732F7274 
 2046      2F737263 
 2047              	.LASF98:
 2048 00a1 776F7273 		.ascii	"worst\000"
 2048      7400
 2049              	.LASF101:
 2050 00a7 74696D65 		.ascii	"time_measurement_t\000"
 2050      5F6D6561 
 2050      73757265 
 2050      6D656E74 
 2050      5F7400
 2051              	.LASF14:
 2052 00ba 6C6F6E67 		.ascii	"long long unsigned int\000"
 2052      206C6F6E 
 2052      6720756E 
 2052      7369676E 
 2052      65642069 
 2053              	.LASF128:
 2054 00d1 63685F74 		.ascii	"ch_threadsize\000"
 2054      68726561 
 2054      6473697A 
 2054      6500
 2055              	.LASF144:
 2056 00df 63685654 		.ascii	"chVTDoResetI\000"
 2056      446F5265 
ARM GAS  /tmp/ccCZPrYX.s 			page 38


 2056      73657449 
 2056      00
 2057              	.LASF108:
 2058 00ec 65786974 		.ascii	"exitcode\000"
 2058      636F6465 
 2058      00
 2059              	.LASF85:
 2060 00f5 6D61696E 		.ascii	"mainthread\000"
 2060      74687265 
 2060      616400
 2061              	.LASF73:
 2062 0100 76697274 		.ascii	"virtual_timers_list_t\000"
 2062      75616C5F 
 2062      74696D65 
 2062      72735F6C 
 2062      6973745F 
 2063              	.LASF89:
 2064 0116 49544D5F 		.ascii	"ITM_RxBuffer\000"
 2064      52784275 
 2064      66666572 
 2064      00
 2065              	.LASF21:
 2066 0123 72747469 		.ascii	"rttime_t\000"
 2066      6D655F74 
 2066      00
 2067              	.LASF34:
 2068 012c 705F7072 		.ascii	"p_prio\000"
 2068      696F00
 2069              	.LASF135:
 2070 0133 63665F6F 		.ascii	"cf_off_state\000"
 2070      66665F73 
 2070      74617465 
 2070      00
 2071              	.LASF153:
 2072 0140 5F76745F 		.ascii	"_vt_init\000"
 2072      696E6974 
 2072      00
 2073              	.LASF1:
 2074 0149 6C6F6E67 		.ascii	"long long int\000"
 2074      206C6F6E 
 2074      6720696E 
 2074      7400
 2075              	.LASF3:
 2076 0157 7369676E 		.ascii	"signed char\000"
 2076      65642063 
 2076      68617200 
 2077              	.LASF134:
 2078 0163 63665F6F 		.ascii	"cf_off_stklimit\000"
 2078      66665F73 
 2078      746B6C69 
 2078      6D697400 
 2079              	.LASF136:
 2080 0173 63665F6F 		.ascii	"cf_off_flags\000"
 2080      66665F66 
 2080      6C616773 
 2080      00
 2081              	.LASF49:
ARM GAS  /tmp/ccCZPrYX.s 			page 39


 2082 0180 705F6D70 		.ascii	"p_mpool\000"
 2082      6F6F6C00 
 2083              	.LASF118:
 2084 0188 6D5F7175 		.ascii	"m_queue\000"
 2084      65756500 
 2085              	.LASF84:
 2086 0190 76746C69 		.ascii	"vtlist\000"
 2086      737400
 2087              	.LASF82:
 2088 0197 63685F73 		.ascii	"ch_system\000"
 2088      79737465 
 2088      6D00
 2089              	.LASF10:
 2090 01a1 6C6F6E67 		.ascii	"long int\000"
 2090      20696E74 
 2090      00
 2091              	.LASF23:
 2092 01aa 74737461 		.ascii	"tstate_t\000"
 2092      74655F74 
 2092      00
 2093              	.LASF150:
 2094 01b3 474E5520 		.ascii	"GNU C11 6.3.1 20170620 (release) [ARM/embedded-6-br"
 2094      43313120 
 2094      362E332E 
 2094      31203230 
 2094      31373036 
 2095 01e6 616E6368 		.ascii	"anch revision 249437] -mcpu=cortex-m4 -mfloat-abi=h"
 2095      20726576 
 2095      6973696F 
 2095      6E203234 
 2095      39343337 
 2096 0219 61726420 		.ascii	"ard -mfpu=fpv4-sp-d16 -mno-thumb-interwork -mthumb "
 2096      2D6D6670 
 2096      753D6670 
 2096      76342D73 
 2096      702D6431 
 2097 024c 2D676764 		.ascii	"-ggdb -O0 -fomit-frame-pointer -falign-functions=16"
 2097      62202D4F 
 2097      30202D66 
 2097      6F6D6974 
 2097      2D667261 
 2098 027f 202D6666 		.ascii	" -ffunction-sections -fdata-sections -fno-common -f"
 2098      756E6374 
 2098      696F6E2D 
 2098      73656374 
 2098      696F6E73 
 2099 02b2 73696E67 		.ascii	"single-precision-constant\000"
 2099      6C652D70 
 2099      72656369 
 2099      73696F6E 
 2099      2D636F6E 
 2100              	.LASF36:
 2101 02cc 705F6E65 		.ascii	"p_newer\000"
 2101      77657200 
 2102              	.LASF115:
 2103 02d4 735F7175 		.ascii	"s_queue\000"
 2103      65756500 
ARM GAS  /tmp/ccCZPrYX.s 			page 40


 2104              	.LASF62:
 2105 02dc 725F6E65 		.ascii	"r_newer\000"
 2105      77657200 
 2106              	.LASF91:
 2107 02e4 72656761 		.ascii	"regarm_t\000"
 2107      726D5F74 
 2107      00
 2108              	.LASF69:
 2109 02ed 76745F70 		.ascii	"vt_prev\000"
 2109      72657600 
 2110              	.LASF77:
 2111 02f5 63685F73 		.ascii	"ch_system_debug\000"
 2111      79737465 
 2111      6D5F6465 
 2111      62756700 
 2112              	.LASF142:
 2113 0305 6D757465 		.ascii	"mutex_t\000"
 2113      785F7400 
 2114              	.LASF80:
 2115 030d 6C6F636B 		.ascii	"lock_cnt\000"
 2115      5F636E74 
 2115      00
 2116              	.LASF87:
 2117 0316 69646C65 		.ascii	"idle_thread_wa\000"
 2117      5F746872 
 2117      6561645F 
 2117      776100
 2118              	.LASF28:
 2119 0325 636E745F 		.ascii	"cnt_t\000"
 2119      7400
 2120              	.LASF39:
 2121 032b 705F7374 		.ascii	"p_stklimit\000"
 2121      6B6C696D 
 2121      697400
 2122              	.LASF0:
 2123 0336 756E7369 		.ascii	"unsigned int\000"
 2123      676E6564 
 2123      20696E74 
 2123      00
 2124              	.LASF68:
 2125 0343 76745F6E 		.ascii	"vt_next\000"
 2125      65787400 
 2126              	.LASF16:
 2127 034b 75696E74 		.ascii	"uint16_t\000"
 2127      31365F74 
 2127      00
 2128              	.LASF90:
 2129 0354 53797374 		.ascii	"SystemCoreClock\000"
 2129      656D436F 
 2129      7265436C 
 2129      6F636B00 
 2130              	.LASF152:
 2131 0364 2F686F6D 		.ascii	"/home/matt/Documents/fibre-link/header-detection/pc"
 2131      652F6D61 
 2131      74742F44 
 2131      6F63756D 
 2131      656E7473 
ARM GAS  /tmp/ccCZPrYX.s 			page 41


 2132 0397 622F7374 		.ascii	"b/stm32/firmware\000"
 2132      6D33322F 
 2132      6669726D 
 2132      77617265 
 2132      00
 2133              	.LASF111:
 2134 03a8 77747365 		.ascii	"wtsemp\000"
 2134      6D7000
 2135              	.LASF70:
 2136 03af 76745F64 		.ascii	"vt_delta\000"
 2136      656C7461 
 2136      00
 2137              	.LASF44:
 2138 03b8 705F6D73 		.ascii	"p_msgqueue\000"
 2138      67717565 
 2138      756500
 2139              	.LASF141:
 2140 03c3 63685F64 		.ascii	"ch_debug\000"
 2140      65627567 
 2140      00
 2141              	.LASF102:
 2142 03cc 6E5F6972 		.ascii	"n_irq\000"
 2142      7100
 2143              	.LASF116:
 2144 03d2 735F636E 		.ascii	"s_cnt\000"
 2144      7400
 2145              	.LASF8:
 2146 03d8 73686F72 		.ascii	"short unsigned int\000"
 2146      7420756E 
 2146      7369676E 
 2146      65642069 
 2146      6E7400
 2147              	.LASF106:
 2148 03eb 6B65726E 		.ascii	"kernel_stats_t\000"
 2148      656C5F73 
 2148      74617473 
 2148      5F7400
 2149              	.LASF53:
 2150 03fa 63685F74 		.ascii	"ch_thread\000"
 2150      68726561 
 2150      6400
 2151              	.LASF26:
 2152 0404 6D73675F 		.ascii	"msg_t\000"
 2152      7400
 2153              	.LASF99:
 2154 040a 6C617374 		.ascii	"last\000"
 2154      00
 2155              	.LASF29:
 2156 040f 75636E74 		.ascii	"ucnt_t\000"
 2156      5F7400
 2157              	.LASF81:
 2158 0416 63685F73 		.ascii	"ch_system_t\000"
 2158      79737465 
 2158      6D5F7400 
 2159              	.LASF139:
 2160 0422 63665F6F 		.ascii	"cf_off_time\000"
 2160      66665F74 
ARM GAS  /tmp/ccCZPrYX.s 			page 42


 2160      696D6500 
 2161              	.LASF105:
 2162 042e 6D5F6372 		.ascii	"m_crit_isr\000"
 2162      69745F69 
 2162      737200
 2163              	.LASF58:
 2164 0439 63685F72 		.ascii	"ch_ready_list\000"
 2164      65616479 
 2164      5F6C6973 
 2164      7400
 2165              	.LASF145:
 2166 0447 63685654 		.ascii	"chVTDoSetI\000"
 2166      446F5365 
 2166      744900
 2167              	.LASF9:
 2168 0452 5F5F696E 		.ascii	"__int32_t\000"
 2168      7433325F 
 2168      7400
 2169              	.LASF92:
 2170 045c 73746B61 		.ascii	"stkalign_t\000"
 2170      6C69676E 
 2170      5F7400
 2171              	.LASF52:
 2172 0467 74687265 		.ascii	"threads_list_t\000"
 2172      6164735F 
 2172      6C697374 
 2172      5F7400
 2173              	.LASF123:
 2174 0476 63685F7A 		.ascii	"ch_zero\000"
 2174      65726F00 
 2175              	.LASF137:
 2176 047e 63665F6F 		.ascii	"cf_off_refs\000"
 2176      66665F72 
 2176      65667300 
 2177              	.LASF43:
 2178 048a 705F7761 		.ascii	"p_waiting\000"
 2178      6974696E 
 2178      6700
 2179              	.LASF88:
 2180 0494 73697A65 		.ascii	"sizetype\000"
 2180      74797065 
 2180      00
 2181              	.LASF74:
 2182 049d 63685F76 		.ascii	"ch_virtual_timers_list\000"
 2182      69727475 
 2182      616C5F74 
 2182      696D6572 
 2182      735F6C69 
 2183              	.LASF2:
 2184 04b4 6C6F6E67 		.ascii	"long double\000"
 2184      20646F75 
 2184      626C6500 
 2185              	.LASF127:
 2186 04c0 63685F74 		.ascii	"ch_timesize\000"
 2186      696D6573 
 2186      697A6500 
 2187              	.LASF133:
ARM GAS  /tmp/ccCZPrYX.s 			page 43


 2188 04cc 63665F6F 		.ascii	"cf_off_name\000"
 2188      66665F6E 
 2188      616D6500 
 2189              	.LASF37:
 2190 04d8 705F6F6C 		.ascii	"p_older\000"
 2190      64657200 
 2191              	.LASF61:
 2192 04e0 725F6374 		.ascii	"r_ctx\000"
 2192      7800
 2193              	.LASF35:
 2194 04e6 705F6374 		.ascii	"p_ctx\000"
 2194      7800
 2195              	.LASF96:
 2196 04ec 746D5F63 		.ascii	"tm_calibration_t\000"
 2196      616C6962 
 2196      72617469 
 2196      6F6E5F74 
 2196      00
 2197              	.LASF64:
 2198 04fd 725F6375 		.ascii	"r_current\000"
 2198      7272656E 
 2198      7400
 2199              	.LASF63:
 2200 0507 725F6F6C 		.ascii	"r_older\000"
 2200      64657200 
 2201              	.LASF13:
 2202 050f 5F5F7569 		.ascii	"__uint64_t\000"
 2202      6E743634 
 2202      5F7400
 2203              	.LASF100:
 2204 051a 63756D75 		.ascii	"cumulative\000"
 2204      6C617469 
 2204      766500
 2205              	.LASF24:
 2206 0525 74726566 		.ascii	"trefs_t\000"
 2206      735F7400 
 2207              	.LASF126:
 2208 052d 63685F70 		.ascii	"ch_ptrsize\000"
 2208      74727369 
 2208      7A6500
 2209              	.LASF66:
 2210 0538 76697274 		.ascii	"virtual_timer_t\000"
 2210      75616C5F 
 2210      74696D65 
 2210      725F7400 
 2211              	.LASF33:
 2212 0548 705F7072 		.ascii	"p_prev\000"
 2212      657600
 2213              	.LASF25:
 2214 054f 74707269 		.ascii	"tprio_t\000"
 2214      6F5F7400 
 2215              	.LASF103:
 2216 0557 6E5F6374 		.ascii	"n_ctxswc\000"
 2216      78737763 
 2216      00
 2217              	.LASF143:
 2218 0560 5F426F6F 		.ascii	"_Bool\000"
ARM GAS  /tmp/ccCZPrYX.s 			page 44


 2218      6C00
 2219              	.LASF17:
 2220 0566 696E7433 		.ascii	"int32_t\000"
 2220      325F7400 
 2221              	.LASF4:
 2222 056e 756E7369 		.ascii	"unsigned char\000"
 2222      676E6564 
 2222      20636861 
 2222      7200
 2223              	.LASF146:
 2224 057c 64656C61 		.ascii	"delay\000"
 2224      7900
 2225              	.LASF47:
 2226 0582 705F6D74 		.ascii	"p_mtxlist\000"
 2226      786C6973 
 2226      7400
 2227              	.LASF5:
 2228 058c 73686F72 		.ascii	"short int\000"
 2228      7420696E 
 2228      7400
 2229              	.LASF40:
 2230 0596 705F7374 		.ascii	"p_state\000"
 2230      61746500 
 2231              	.LASF60:
 2232 059e 725F7072 		.ascii	"r_prio\000"
 2232      696F00
 2233              	.LASF113:
 2234 05a5 65776D61 		.ascii	"ewmask\000"
 2234      736B00
 2235              	.LASF32:
 2236 05ac 705F6E65 		.ascii	"p_next\000"
 2236      787400
 2237              	.LASF22:
 2238 05b3 746D6F64 		.ascii	"tmode_t\000"
 2238      655F7400 
 2239              	.LASF138:
 2240 05bb 63665F6F 		.ascii	"cf_off_preempt\000"
 2240      66665F70 
 2240      7265656D 
 2240      707400
 2241              	.LASF41:
 2242 05ca 705F666C 		.ascii	"p_flags\000"
 2242      61677300 
 2243              	.LASF149:
 2244 05d2 5F5F6675 		.ascii	"__func__\000"
 2244      6E635F5F 
 2244      00
 2245              	.LASF50:
 2246 05db 705F7374 		.ascii	"p_stats\000"
 2246      61747300 
 2247              	.LASF55:
 2248 05e3 74687265 		.ascii	"threads_queue_t\000"
 2248      6164735F 
 2248      71756575 
 2248      655F7400 
 2249              	.LASF67:
 2250 05f3 63685F76 		.ascii	"ch_virtual_timer\000"
ARM GAS  /tmp/ccCZPrYX.s 			page 45


 2250      69727475 
 2250      616C5F74 
 2250      696D6572 
 2250      00
 2251              	.LASF131:
 2252 0604 63665F6F 		.ascii	"cf_off_newer\000"
 2252      66665F6E 
 2252      65776572 
 2252      00
 2253              	.LASF114:
 2254 0611 63685F73 		.ascii	"ch_semaphore\000"
 2254      656D6170 
 2254      686F7265 
 2254      00
 2255              	.LASF46:
 2256 061e 705F6570 		.ascii	"p_epending\000"
 2256      656E6469 
 2256      6E6700
 2257              	.LASF18:
 2258 0629 75696E74 		.ascii	"uint32_t\000"
 2258      33325F74 
 2258      00
 2259              	.LASF129:
 2260 0632 63665F6F 		.ascii	"cf_off_prio\000"
 2260      66665F70 
 2260      72696F00 
 2261              	.LASF59:
 2262 063e 725F7175 		.ascii	"r_queue\000"
 2262      65756500 
 2263              	.LASF54:
 2264 0646 63685F74 		.ascii	"ch_threads_list\000"
 2264      68726561 
 2264      64735F6C 
 2264      69737400 
 2265              	.LASF124:
 2266 0656 63685F73 		.ascii	"ch_size\000"
 2266      697A6500 
 2267              	.LASF12:
 2268 065e 6C6F6E67 		.ascii	"long unsigned int\000"
 2268      20756E73 
 2268      69676E65 
 2268      6420696E 
 2268      7400
 2269              	.LASF121:
 2270 0670 63686172 		.ascii	"char\000"
 2270      00
 2271              	.LASF112:
 2272 0675 77746D74 		.ascii	"wtmtxp\000"
 2272      787000
 2273              	.LASF7:
 2274 067c 5F5F7569 		.ascii	"__uint16_t\000"
 2274      6E743136 
 2274      5F7400
 2275              	.LASF31:
 2276 0687 74687265 		.ascii	"thread_t\000"
 2276      61645F74 
 2276      00
ARM GAS  /tmp/ccCZPrYX.s 			page 46


 2277              	.LASF97:
 2278 0690 62657374 		.ascii	"best\000"
 2278      00
 2279              	.LASF120:
 2280 0695 6D5F6E65 		.ascii	"m_next\000"
 2280      787400
 2281              	.LASF30:
 2282 069c 73797374 		.ascii	"systime_t\000"
 2282      696D655F 
 2282      7400
 2283              	.LASF48:
 2284 06a6 705F7265 		.ascii	"p_realprio\000"
 2284      616C7072 
 2284      696F00
 2285              	.LASF65:
 2286 06b1 76746675 		.ascii	"vtfunc_t\000"
 2286      6E635F74 
 2286      00
 2287              	.LASF11:
 2288 06ba 5F5F7569 		.ascii	"__uint32_t\000"
 2288      6E743332 
 2288      5F7400
 2289              	.LASF78:
 2290 06c5 70616E69 		.ascii	"panic_msg\000"
 2290      635F6D73 
 2290      6700
 2291              	.LASF95:
 2292 06cf 6F666673 		.ascii	"offset\000"
 2292      657400
 2293              	.LASF93:
 2294 06d6 636F6E74 		.ascii	"context\000"
 2294      65787400 
 2295              	.LASF45:
 2296 06de 705F6D73 		.ascii	"p_msg\000"
 2296      6700
 2297              	.LASF20:
 2298 06e4 7274636E 		.ascii	"rtcnt_t\000"
 2298      745F7400 
 2299              	.LASF72:
 2300 06ec 76745F70 		.ascii	"vt_par\000"
 2300      617200
 2301              	.LASF147:
 2302 06f3 76746675 		.ascii	"vtfunc\000"
 2302      6E6300
 2303              	.LASF130:
 2304 06fa 63665F6F 		.ascii	"cf_off_ctx\000"
 2304      66665F63 
 2304      747800
 2305              	.LASF117:
 2306 0705 63685F6D 		.ascii	"ch_mutex\000"
 2306      75746578 
 2306      00
 2307              	.LASF42:
 2308 070e 705F7265 		.ascii	"p_refs\000"
 2308      667300
 2309              	.LASF79:
 2310 0715 6973725F 		.ascii	"isr_cnt\000"
ARM GAS  /tmp/ccCZPrYX.s 			page 47


 2310      636E7400 
 2311              	.LASF83:
 2312 071d 726C6973 		.ascii	"rlist\000"
 2312      7400
 2313              	.LASF15:
 2314 0723 75696E74 		.ascii	"uint8_t\000"
 2314      385F7400 
 2315              	.LASF51:
 2316 072b 74687265 		.ascii	"thread_reference_t\000"
 2316      61645F72 
 2316      65666572 
 2316      656E6365 
 2316      5F7400
 2317              	.LASF109:
 2318 073e 77746F62 		.ascii	"wtobjp\000"
 2318      6A7000
 2319              	.LASF38:
 2320 0745 705F6E61 		.ascii	"p_name\000"
 2320      6D6500
 2321              	.LASF75:
 2322 074c 76745F73 		.ascii	"vt_systime\000"
 2322      79737469 
 2322      6D6500
 2323              	.LASF125:
 2324 0757 63685F76 		.ascii	"ch_version\000"
 2324      65727369 
 2324      6F6E00
 2325              	.LASF104:
 2326 0762 6D5F6372 		.ascii	"m_crit_thd\000"
 2326      69745F74 
 2326      686400
 2327              	.LASF119:
 2328 076d 6D5F6F77 		.ascii	"m_owner\000"
 2328      6E657200 
 2329              	.LASF140:
 2330 0775 63686465 		.ascii	"chdebug_t\000"
 2330      6275675F 
 2330      7400
 2331              	.LASF122:
 2332 077f 63685F69 		.ascii	"ch_identifier\000"
 2332      64656E74 
 2332      69666965 
 2332      7200
 2333              	.LASF71:
 2334 078d 76745F66 		.ascii	"vt_func\000"
 2334      756E6300 
 2335              		.ident	"GCC: (GNU Tools for ARM Embedded Processors 6-2017-q2-update) 6.3.1 20170620 (release) [AR
ARM GAS  /tmp/ccCZPrYX.s 			page 48


DEFINED SYMBOLS
                            *ABS*:0000000000000000 chvt.c
     /tmp/ccCZPrYX.s:18     .text._vt_init:0000000000000000 $t
     /tmp/ccCZPrYX.s:26     .text._vt_init:0000000000000000 _vt_init
     /tmp/ccCZPrYX.s:56     .text._vt_init:0000000000000020 $d
     /tmp/ccCZPrYX.s:62     .text.chVTDoSetI:0000000000000000 $t
     /tmp/ccCZPrYX.s:70     .text.chVTDoSetI:0000000000000000 chVTDoSetI
     /tmp/ccCZPrYX.s:191    .text.chVTDoSetI:00000000000000a8 $d
     /tmp/ccCZPrYX.s:284    .rodata.__func__.7865:0000000000000000 __func__.7865
     /tmp/ccCZPrYX.s:197    .text.chVTDoResetI:0000000000000000 $t
     /tmp/ccCZPrYX.s:205    .text.chVTDoResetI:0000000000000000 chVTDoResetI
     /tmp/ccCZPrYX.s:275    .text.chVTDoResetI:0000000000000060 $d
     /tmp/ccCZPrYX.s:290    .rodata.__func__.7872:0000000000000000 __func__.7872
     /tmp/ccCZPrYX.s:281    .rodata.__func__.7865:0000000000000000 $d
     /tmp/ccCZPrYX.s:287    .rodata.__func__.7872:0000000000000000 $d
                     .debug_frame:0000000000000010 $d

UNDEFINED SYMBOLS
ch
chDbgCheckClassI
chSysHalt
