ARM GAS  /tmp/ccvytU5E.s 			page 1


   1              		.cpu cortex-m4
   2              		.eabi_attribute 27, 1
   3              		.eabi_attribute 28, 1
   4              		.eabi_attribute 20, 1
   5              		.eabi_attribute 21, 1
   6              		.eabi_attribute 23, 3
   7              		.eabi_attribute 24, 1
   8              		.eabi_attribute 25, 1
   9              		.eabi_attribute 26, 1
  10              		.eabi_attribute 30, 6
  11              		.eabi_attribute 34, 1
  12              		.eabi_attribute 18, 4
  13              		.file	"ext_lld_isr.c"
  14              		.text
  15              	.Ltext0:
  16              		.cfi_sections	.debug_frame
  17              		.section	.text.Vector58,"ax",%progbits
  18              		.align	1
  19              		.p2align 4,,15
  20              		.global	Vector58
  21              		.syntax unified
  22              		.thumb
  23              		.thumb_func
  24              		.fpu fpv4-sp-d16
  25              		.type	Vector58, %function
  26              	Vector58:
  27              	.LFB268:
  28              		.file 1 "../ChibiOS/os/hal/ports/STM32/STM32F4xx/ext_lld_isr.c"
  29              		.loc 1 56 0
  30              		.cfi_startproc
  31              		@ args = 0, pretend = 0, frame = 8
  32              		@ frame_needed = 0, uses_anonymous_args = 0
  33 0000 00B5     		push	{lr}
  34              		.cfi_def_cfa_offset 4
  35              		.cfi_offset 14, -4
  36 0002 83B0     		sub	sp, sp, #12
  37              		.cfi_def_cfa_offset 16
  38              		.loc 1 59 0
  39 0004 FFF7FEFF 		bl	_stats_increase_irq
  40 0008 FFF7FEFF 		bl	_dbg_check_enter_isr
  41              		.loc 1 61 0
  42 000c 0F4B     		ldr	r3, .L3
  43 000e 5B69     		ldr	r3, [r3, #20]
  44 0010 0193     		str	r3, [sp, #4]
  45              		.loc 1 62 0
  46 0012 0E4B     		ldr	r3, .L3
  47 0014 1B68     		ldr	r3, [r3]
  48 0016 03F00103 		and	r3, r3, #1
  49 001a 019A     		ldr	r2, [sp, #4]
  50 001c 1340     		ands	r3, r3, r2
  51 001e 0193     		str	r3, [sp, #4]
  52              		.loc 1 63 0
  53 0020 0A4A     		ldr	r2, .L3
  54 0022 019B     		ldr	r3, [sp, #4]
  55 0024 5361     		str	r3, [r2, #20]
  56              		.loc 1 64 0
  57 0026 019B     		ldr	r3, [sp, #4]
ARM GAS  /tmp/ccvytU5E.s 			page 2


  58 0028 03F00103 		and	r3, r3, #1
  59 002c 002B     		cmp	r3, #0
  60 002e 05D0     		beq	.L2
  61              		.loc 1 65 0
  62 0030 074B     		ldr	r3, .L3+4
  63 0032 5B68     		ldr	r3, [r3, #4]
  64 0034 5B68     		ldr	r3, [r3, #4]
  65 0036 0021     		movs	r1, #0
  66 0038 0548     		ldr	r0, .L3+4
  67 003a 9847     		blx	r3
  68              	.LVL0:
  69              	.L2:
  70              		.loc 1 67 0
  71 003c FFF7FEFF 		bl	_dbg_check_leave_isr
  72 0040 FFF7FEFF 		bl	_port_irq_epilogue
  73              		.loc 1 68 0
  74 0044 00BF     		nop
  75 0046 03B0     		add	sp, sp, #12
  76              		.cfi_def_cfa_offset 4
  77              		@ sp needed
  78 0048 5DF804FB 		ldr	pc, [sp], #4
  79              	.L4:
  80              		.align	2
  81              	.L3:
  82 004c 003C0140 		.word	1073822720
  83 0050 00000000 		.word	EXTD1
  84              		.cfi_endproc
  85              	.LFE268:
  86              		.size	Vector58, .-Vector58
  87              		.section	.text.Vector5C,"ax",%progbits
  88              		.align	1
  89              		.p2align 4,,15
  90              		.global	Vector5C
  91              		.syntax unified
  92              		.thumb
  93              		.thumb_func
  94              		.fpu fpv4-sp-d16
  95              		.type	Vector5C, %function
  96              	Vector5C:
  97              	.LFB269:
  98              		.loc 1 75 0
  99              		.cfi_startproc
 100              		@ args = 0, pretend = 0, frame = 8
 101              		@ frame_needed = 0, uses_anonymous_args = 0
 102 0000 00B5     		push	{lr}
 103              		.cfi_def_cfa_offset 4
 104              		.cfi_offset 14, -4
 105 0002 83B0     		sub	sp, sp, #12
 106              		.cfi_def_cfa_offset 16
 107              		.loc 1 78 0
 108 0004 FFF7FEFF 		bl	_stats_increase_irq
 109 0008 FFF7FEFF 		bl	_dbg_check_enter_isr
 110              		.loc 1 80 0
 111 000c 0F4B     		ldr	r3, .L7
 112 000e 5B69     		ldr	r3, [r3, #20]
 113 0010 0193     		str	r3, [sp, #4]
 114              		.loc 1 81 0
ARM GAS  /tmp/ccvytU5E.s 			page 3


 115 0012 0E4B     		ldr	r3, .L7
 116 0014 1B68     		ldr	r3, [r3]
 117 0016 03F00203 		and	r3, r3, #2
 118 001a 019A     		ldr	r2, [sp, #4]
 119 001c 1340     		ands	r3, r3, r2
 120 001e 0193     		str	r3, [sp, #4]
 121              		.loc 1 82 0
 122 0020 0A4A     		ldr	r2, .L7
 123 0022 019B     		ldr	r3, [sp, #4]
 124 0024 5361     		str	r3, [r2, #20]
 125              		.loc 1 83 0
 126 0026 019B     		ldr	r3, [sp, #4]
 127 0028 03F00203 		and	r3, r3, #2
 128 002c 002B     		cmp	r3, #0
 129 002e 05D0     		beq	.L6
 130              		.loc 1 84 0
 131 0030 074B     		ldr	r3, .L7+4
 132 0032 5B68     		ldr	r3, [r3, #4]
 133 0034 DB68     		ldr	r3, [r3, #12]
 134 0036 0121     		movs	r1, #1
 135 0038 0548     		ldr	r0, .L7+4
 136 003a 9847     		blx	r3
 137              	.LVL1:
 138              	.L6:
 139              		.loc 1 86 0
 140 003c FFF7FEFF 		bl	_dbg_check_leave_isr
 141 0040 FFF7FEFF 		bl	_port_irq_epilogue
 142              		.loc 1 87 0
 143 0044 00BF     		nop
 144 0046 03B0     		add	sp, sp, #12
 145              		.cfi_def_cfa_offset 4
 146              		@ sp needed
 147 0048 5DF804FB 		ldr	pc, [sp], #4
 148              	.L8:
 149              		.align	2
 150              	.L7:
 151 004c 003C0140 		.word	1073822720
 152 0050 00000000 		.word	EXTD1
 153              		.cfi_endproc
 154              	.LFE269:
 155              		.size	Vector5C, .-Vector5C
 156              		.section	.text.Vector60,"ax",%progbits
 157              		.align	1
 158              		.p2align 4,,15
 159              		.global	Vector60
 160              		.syntax unified
 161              		.thumb
 162              		.thumb_func
 163              		.fpu fpv4-sp-d16
 164              		.type	Vector60, %function
 165              	Vector60:
 166              	.LFB270:
 167              		.loc 1 94 0
 168              		.cfi_startproc
 169              		@ args = 0, pretend = 0, frame = 8
 170              		@ frame_needed = 0, uses_anonymous_args = 0
 171 0000 00B5     		push	{lr}
ARM GAS  /tmp/ccvytU5E.s 			page 4


 172              		.cfi_def_cfa_offset 4
 173              		.cfi_offset 14, -4
 174 0002 83B0     		sub	sp, sp, #12
 175              		.cfi_def_cfa_offset 16
 176              		.loc 1 97 0
 177 0004 FFF7FEFF 		bl	_stats_increase_irq
 178 0008 FFF7FEFF 		bl	_dbg_check_enter_isr
 179              		.loc 1 99 0
 180 000c 0F4B     		ldr	r3, .L11
 181 000e 5B69     		ldr	r3, [r3, #20]
 182 0010 0193     		str	r3, [sp, #4]
 183              		.loc 1 100 0
 184 0012 0E4B     		ldr	r3, .L11
 185 0014 1B68     		ldr	r3, [r3]
 186 0016 03F00403 		and	r3, r3, #4
 187 001a 019A     		ldr	r2, [sp, #4]
 188 001c 1340     		ands	r3, r3, r2
 189 001e 0193     		str	r3, [sp, #4]
 190              		.loc 1 101 0
 191 0020 0A4A     		ldr	r2, .L11
 192 0022 019B     		ldr	r3, [sp, #4]
 193 0024 5361     		str	r3, [r2, #20]
 194              		.loc 1 102 0
 195 0026 019B     		ldr	r3, [sp, #4]
 196 0028 03F00403 		and	r3, r3, #4
 197 002c 002B     		cmp	r3, #0
 198 002e 05D0     		beq	.L10
 199              		.loc 1 103 0
 200 0030 074B     		ldr	r3, .L11+4
 201 0032 5B68     		ldr	r3, [r3, #4]
 202 0034 5B69     		ldr	r3, [r3, #20]
 203 0036 0221     		movs	r1, #2
 204 0038 0548     		ldr	r0, .L11+4
 205 003a 9847     		blx	r3
 206              	.LVL2:
 207              	.L10:
 208              		.loc 1 105 0
 209 003c FFF7FEFF 		bl	_dbg_check_leave_isr
 210 0040 FFF7FEFF 		bl	_port_irq_epilogue
 211              		.loc 1 106 0
 212 0044 00BF     		nop
 213 0046 03B0     		add	sp, sp, #12
 214              		.cfi_def_cfa_offset 4
 215              		@ sp needed
 216 0048 5DF804FB 		ldr	pc, [sp], #4
 217              	.L12:
 218              		.align	2
 219              	.L11:
 220 004c 003C0140 		.word	1073822720
 221 0050 00000000 		.word	EXTD1
 222              		.cfi_endproc
 223              	.LFE270:
 224              		.size	Vector60, .-Vector60
 225              		.section	.text.Vector64,"ax",%progbits
 226              		.align	1
 227              		.p2align 4,,15
 228              		.global	Vector64
ARM GAS  /tmp/ccvytU5E.s 			page 5


 229              		.syntax unified
 230              		.thumb
 231              		.thumb_func
 232              		.fpu fpv4-sp-d16
 233              		.type	Vector64, %function
 234              	Vector64:
 235              	.LFB271:
 236              		.loc 1 113 0
 237              		.cfi_startproc
 238              		@ args = 0, pretend = 0, frame = 8
 239              		@ frame_needed = 0, uses_anonymous_args = 0
 240 0000 00B5     		push	{lr}
 241              		.cfi_def_cfa_offset 4
 242              		.cfi_offset 14, -4
 243 0002 83B0     		sub	sp, sp, #12
 244              		.cfi_def_cfa_offset 16
 245              		.loc 1 116 0
 246 0004 FFF7FEFF 		bl	_stats_increase_irq
 247 0008 FFF7FEFF 		bl	_dbg_check_enter_isr
 248              		.loc 1 118 0
 249 000c 0F4B     		ldr	r3, .L15
 250 000e 5B69     		ldr	r3, [r3, #20]
 251 0010 0193     		str	r3, [sp, #4]
 252              		.loc 1 119 0
 253 0012 0E4B     		ldr	r3, .L15
 254 0014 1B68     		ldr	r3, [r3]
 255 0016 03F00803 		and	r3, r3, #8
 256 001a 019A     		ldr	r2, [sp, #4]
 257 001c 1340     		ands	r3, r3, r2
 258 001e 0193     		str	r3, [sp, #4]
 259              		.loc 1 120 0
 260 0020 0A4A     		ldr	r2, .L15
 261 0022 019B     		ldr	r3, [sp, #4]
 262 0024 5361     		str	r3, [r2, #20]
 263              		.loc 1 121 0
 264 0026 019B     		ldr	r3, [sp, #4]
 265 0028 03F00803 		and	r3, r3, #8
 266 002c 002B     		cmp	r3, #0
 267 002e 05D0     		beq	.L14
 268              		.loc 1 122 0
 269 0030 074B     		ldr	r3, .L15+4
 270 0032 5B68     		ldr	r3, [r3, #4]
 271 0034 DB69     		ldr	r3, [r3, #28]
 272 0036 0321     		movs	r1, #3
 273 0038 0548     		ldr	r0, .L15+4
 274 003a 9847     		blx	r3
 275              	.LVL3:
 276              	.L14:
 277              		.loc 1 124 0
 278 003c FFF7FEFF 		bl	_dbg_check_leave_isr
 279 0040 FFF7FEFF 		bl	_port_irq_epilogue
 280              		.loc 1 125 0
 281 0044 00BF     		nop
 282 0046 03B0     		add	sp, sp, #12
 283              		.cfi_def_cfa_offset 4
 284              		@ sp needed
 285 0048 5DF804FB 		ldr	pc, [sp], #4
ARM GAS  /tmp/ccvytU5E.s 			page 6


 286              	.L16:
 287              		.align	2
 288              	.L15:
 289 004c 003C0140 		.word	1073822720
 290 0050 00000000 		.word	EXTD1
 291              		.cfi_endproc
 292              	.LFE271:
 293              		.size	Vector64, .-Vector64
 294              		.section	.text.Vector68,"ax",%progbits
 295              		.align	1
 296              		.p2align 4,,15
 297              		.global	Vector68
 298              		.syntax unified
 299              		.thumb
 300              		.thumb_func
 301              		.fpu fpv4-sp-d16
 302              		.type	Vector68, %function
 303              	Vector68:
 304              	.LFB272:
 305              		.loc 1 132 0
 306              		.cfi_startproc
 307              		@ args = 0, pretend = 0, frame = 8
 308              		@ frame_needed = 0, uses_anonymous_args = 0
 309 0000 00B5     		push	{lr}
 310              		.cfi_def_cfa_offset 4
 311              		.cfi_offset 14, -4
 312 0002 83B0     		sub	sp, sp, #12
 313              		.cfi_def_cfa_offset 16
 314              		.loc 1 135 0
 315 0004 FFF7FEFF 		bl	_stats_increase_irq
 316 0008 FFF7FEFF 		bl	_dbg_check_enter_isr
 317              		.loc 1 137 0
 318 000c 0F4B     		ldr	r3, .L19
 319 000e 5B69     		ldr	r3, [r3, #20]
 320 0010 0193     		str	r3, [sp, #4]
 321              		.loc 1 138 0
 322 0012 0E4B     		ldr	r3, .L19
 323 0014 1B68     		ldr	r3, [r3]
 324 0016 03F01003 		and	r3, r3, #16
 325 001a 019A     		ldr	r2, [sp, #4]
 326 001c 1340     		ands	r3, r3, r2
 327 001e 0193     		str	r3, [sp, #4]
 328              		.loc 1 139 0
 329 0020 0A4A     		ldr	r2, .L19
 330 0022 019B     		ldr	r3, [sp, #4]
 331 0024 5361     		str	r3, [r2, #20]
 332              		.loc 1 140 0
 333 0026 019B     		ldr	r3, [sp, #4]
 334 0028 03F01003 		and	r3, r3, #16
 335 002c 002B     		cmp	r3, #0
 336 002e 05D0     		beq	.L18
 337              		.loc 1 141 0
 338 0030 074B     		ldr	r3, .L19+4
 339 0032 5B68     		ldr	r3, [r3, #4]
 340 0034 5B6A     		ldr	r3, [r3, #36]
 341 0036 0421     		movs	r1, #4
 342 0038 0548     		ldr	r0, .L19+4
ARM GAS  /tmp/ccvytU5E.s 			page 7


 343 003a 9847     		blx	r3
 344              	.LVL4:
 345              	.L18:
 346              		.loc 1 143 0
 347 003c FFF7FEFF 		bl	_dbg_check_leave_isr
 348 0040 FFF7FEFF 		bl	_port_irq_epilogue
 349              		.loc 1 144 0
 350 0044 00BF     		nop
 351 0046 03B0     		add	sp, sp, #12
 352              		.cfi_def_cfa_offset 4
 353              		@ sp needed
 354 0048 5DF804FB 		ldr	pc, [sp], #4
 355              	.L20:
 356              		.align	2
 357              	.L19:
 358 004c 003C0140 		.word	1073822720
 359 0050 00000000 		.word	EXTD1
 360              		.cfi_endproc
 361              	.LFE272:
 362              		.size	Vector68, .-Vector68
 363              		.section	.text.Vector9C,"ax",%progbits
 364              		.align	1
 365              		.p2align 4,,15
 366              		.global	Vector9C
 367              		.syntax unified
 368              		.thumb
 369              		.thumb_func
 370              		.fpu fpv4-sp-d16
 371              		.type	Vector9C, %function
 372              	Vector9C:
 373              	.LFB273:
 374              		.loc 1 151 0
 375              		.cfi_startproc
 376              		@ args = 0, pretend = 0, frame = 8
 377              		@ frame_needed = 0, uses_anonymous_args = 0
 378 0000 00B5     		push	{lr}
 379              		.cfi_def_cfa_offset 4
 380              		.cfi_offset 14, -4
 381 0002 83B0     		sub	sp, sp, #12
 382              		.cfi_def_cfa_offset 16
 383              		.loc 1 154 0
 384 0004 FFF7FEFF 		bl	_stats_increase_irq
 385 0008 FFF7FEFF 		bl	_dbg_check_enter_isr
 386              		.loc 1 156 0
 387 000c 254B     		ldr	r3, .L27
 388 000e 5B69     		ldr	r3, [r3, #20]
 389 0010 0193     		str	r3, [sp, #4]
 390              		.loc 1 157 0
 391 0012 244B     		ldr	r3, .L27
 392 0014 1B68     		ldr	r3, [r3]
 393 0016 03F47873 		and	r3, r3, #992
 394 001a 019A     		ldr	r2, [sp, #4]
 395 001c 1340     		ands	r3, r3, r2
 396 001e 0193     		str	r3, [sp, #4]
 397              		.loc 1 159 0
 398 0020 204A     		ldr	r2, .L27
 399 0022 019B     		ldr	r3, [sp, #4]
ARM GAS  /tmp/ccvytU5E.s 			page 8


 400 0024 5361     		str	r3, [r2, #20]
 401              		.loc 1 160 0
 402 0026 019B     		ldr	r3, [sp, #4]
 403 0028 03F02003 		and	r3, r3, #32
 404 002c 002B     		cmp	r3, #0
 405 002e 05D0     		beq	.L22
 406              		.loc 1 161 0
 407 0030 1D4B     		ldr	r3, .L27+4
 408 0032 5B68     		ldr	r3, [r3, #4]
 409 0034 DB6A     		ldr	r3, [r3, #44]
 410 0036 0521     		movs	r1, #5
 411 0038 1B48     		ldr	r0, .L27+4
 412 003a 9847     		blx	r3
 413              	.LVL5:
 414              	.L22:
 415              		.loc 1 162 0
 416 003c 019B     		ldr	r3, [sp, #4]
 417 003e 03F04003 		and	r3, r3, #64
 418 0042 002B     		cmp	r3, #0
 419 0044 05D0     		beq	.L23
 420              		.loc 1 163 0
 421 0046 184B     		ldr	r3, .L27+4
 422 0048 5B68     		ldr	r3, [r3, #4]
 423 004a 5B6B     		ldr	r3, [r3, #52]
 424 004c 0621     		movs	r1, #6
 425 004e 1648     		ldr	r0, .L27+4
 426 0050 9847     		blx	r3
 427              	.LVL6:
 428              	.L23:
 429              		.loc 1 164 0
 430 0052 019B     		ldr	r3, [sp, #4]
 431 0054 03F08003 		and	r3, r3, #128
 432 0058 002B     		cmp	r3, #0
 433 005a 05D0     		beq	.L24
 434              		.loc 1 165 0
 435 005c 124B     		ldr	r3, .L27+4
 436 005e 5B68     		ldr	r3, [r3, #4]
 437 0060 DB6B     		ldr	r3, [r3, #60]
 438 0062 0721     		movs	r1, #7
 439 0064 1048     		ldr	r0, .L27+4
 440 0066 9847     		blx	r3
 441              	.LVL7:
 442              	.L24:
 443              		.loc 1 166 0
 444 0068 019B     		ldr	r3, [sp, #4]
 445 006a 03F48073 		and	r3, r3, #256
 446 006e 002B     		cmp	r3, #0
 447 0070 05D0     		beq	.L25
 448              		.loc 1 167 0
 449 0072 0D4B     		ldr	r3, .L27+4
 450 0074 5B68     		ldr	r3, [r3, #4]
 451 0076 5B6C     		ldr	r3, [r3, #68]
 452 0078 0821     		movs	r1, #8
 453 007a 0B48     		ldr	r0, .L27+4
 454 007c 9847     		blx	r3
 455              	.LVL8:
 456              	.L25:
ARM GAS  /tmp/ccvytU5E.s 			page 9


 457              		.loc 1 168 0
 458 007e 019B     		ldr	r3, [sp, #4]
 459 0080 03F40073 		and	r3, r3, #512
 460 0084 002B     		cmp	r3, #0
 461 0086 05D0     		beq	.L26
 462              		.loc 1 169 0
 463 0088 074B     		ldr	r3, .L27+4
 464 008a 5B68     		ldr	r3, [r3, #4]
 465 008c DB6C     		ldr	r3, [r3, #76]
 466 008e 0921     		movs	r1, #9
 467 0090 0548     		ldr	r0, .L27+4
 468 0092 9847     		blx	r3
 469              	.LVL9:
 470              	.L26:
 471              		.loc 1 171 0
 472 0094 FFF7FEFF 		bl	_dbg_check_leave_isr
 473 0098 FFF7FEFF 		bl	_port_irq_epilogue
 474              		.loc 1 172 0
 475 009c 00BF     		nop
 476 009e 03B0     		add	sp, sp, #12
 477              		.cfi_def_cfa_offset 4
 478              		@ sp needed
 479 00a0 5DF804FB 		ldr	pc, [sp], #4
 480              	.L28:
 481              		.align	2
 482              	.L27:
 483 00a4 003C0140 		.word	1073822720
 484 00a8 00000000 		.word	EXTD1
 485              		.cfi_endproc
 486              	.LFE273:
 487              		.size	Vector9C, .-Vector9C
 488              		.section	.text.VectorE0,"ax",%progbits
 489              		.align	1
 490              		.p2align 4,,15
 491              		.global	VectorE0
 492              		.syntax unified
 493              		.thumb
 494              		.thumb_func
 495              		.fpu fpv4-sp-d16
 496              		.type	VectorE0, %function
 497              	VectorE0:
 498              	.LFB274:
 499              		.loc 1 179 0
 500              		.cfi_startproc
 501              		@ args = 0, pretend = 0, frame = 8
 502              		@ frame_needed = 0, uses_anonymous_args = 0
 503 0000 00B5     		push	{lr}
 504              		.cfi_def_cfa_offset 4
 505              		.cfi_offset 14, -4
 506 0002 83B0     		sub	sp, sp, #12
 507              		.cfi_def_cfa_offset 16
 508              		.loc 1 182 0
 509 0004 FFF7FEFF 		bl	_stats_increase_irq
 510 0008 FFF7FEFF 		bl	_dbg_check_enter_isr
 511              		.loc 1 184 0
 512 000c 2B4B     		ldr	r3, .L36
 513 000e 5B69     		ldr	r3, [r3, #20]
ARM GAS  /tmp/ccvytU5E.s 			page 10


 514 0010 0193     		str	r3, [sp, #4]
 515              		.loc 1 185 0
 516 0012 2A4B     		ldr	r3, .L36
 517 0014 1B68     		ldr	r3, [r3]
 518 0016 03F47C43 		and	r3, r3, #64512
 519 001a 019A     		ldr	r2, [sp, #4]
 520 001c 1340     		ands	r3, r3, r2
 521 001e 0193     		str	r3, [sp, #4]
 522              		.loc 1 187 0
 523 0020 264A     		ldr	r2, .L36
 524 0022 019B     		ldr	r3, [sp, #4]
 525 0024 5361     		str	r3, [r2, #20]
 526              		.loc 1 188 0
 527 0026 019B     		ldr	r3, [sp, #4]
 528 0028 03F48063 		and	r3, r3, #1024
 529 002c 002B     		cmp	r3, #0
 530 002e 05D0     		beq	.L30
 531              		.loc 1 189 0
 532 0030 234B     		ldr	r3, .L36+4
 533 0032 5B68     		ldr	r3, [r3, #4]
 534 0034 5B6D     		ldr	r3, [r3, #84]
 535 0036 0A21     		movs	r1, #10
 536 0038 2148     		ldr	r0, .L36+4
 537 003a 9847     		blx	r3
 538              	.LVL10:
 539              	.L30:
 540              		.loc 1 190 0
 541 003c 019B     		ldr	r3, [sp, #4]
 542 003e 03F40063 		and	r3, r3, #2048
 543 0042 002B     		cmp	r3, #0
 544 0044 05D0     		beq	.L31
 545              		.loc 1 191 0
 546 0046 1E4B     		ldr	r3, .L36+4
 547 0048 5B68     		ldr	r3, [r3, #4]
 548 004a DB6D     		ldr	r3, [r3, #92]
 549 004c 0B21     		movs	r1, #11
 550 004e 1C48     		ldr	r0, .L36+4
 551 0050 9847     		blx	r3
 552              	.LVL11:
 553              	.L31:
 554              		.loc 1 192 0
 555 0052 019B     		ldr	r3, [sp, #4]
 556 0054 03F48053 		and	r3, r3, #4096
 557 0058 002B     		cmp	r3, #0
 558 005a 05D0     		beq	.L32
 559              		.loc 1 193 0
 560 005c 184B     		ldr	r3, .L36+4
 561 005e 5B68     		ldr	r3, [r3, #4]
 562 0060 5B6E     		ldr	r3, [r3, #100]
 563 0062 0C21     		movs	r1, #12
 564 0064 1648     		ldr	r0, .L36+4
 565 0066 9847     		blx	r3
 566              	.LVL12:
 567              	.L32:
 568              		.loc 1 194 0
 569 0068 019B     		ldr	r3, [sp, #4]
 570 006a 03F40053 		and	r3, r3, #8192
ARM GAS  /tmp/ccvytU5E.s 			page 11


 571 006e 002B     		cmp	r3, #0
 572 0070 05D0     		beq	.L33
 573              		.loc 1 195 0
 574 0072 134B     		ldr	r3, .L36+4
 575 0074 5B68     		ldr	r3, [r3, #4]
 576 0076 DB6E     		ldr	r3, [r3, #108]
 577 0078 0D21     		movs	r1, #13
 578 007a 1148     		ldr	r0, .L36+4
 579 007c 9847     		blx	r3
 580              	.LVL13:
 581              	.L33:
 582              		.loc 1 196 0
 583 007e 019B     		ldr	r3, [sp, #4]
 584 0080 03F48043 		and	r3, r3, #16384
 585 0084 002B     		cmp	r3, #0
 586 0086 05D0     		beq	.L34
 587              		.loc 1 197 0
 588 0088 0D4B     		ldr	r3, .L36+4
 589 008a 5B68     		ldr	r3, [r3, #4]
 590 008c 5B6F     		ldr	r3, [r3, #116]
 591 008e 0E21     		movs	r1, #14
 592 0090 0B48     		ldr	r0, .L36+4
 593 0092 9847     		blx	r3
 594              	.LVL14:
 595              	.L34:
 596              		.loc 1 198 0
 597 0094 019B     		ldr	r3, [sp, #4]
 598 0096 03F40043 		and	r3, r3, #32768
 599 009a 002B     		cmp	r3, #0
 600 009c 05D0     		beq	.L35
 601              		.loc 1 199 0
 602 009e 084B     		ldr	r3, .L36+4
 603 00a0 5B68     		ldr	r3, [r3, #4]
 604 00a2 DB6F     		ldr	r3, [r3, #124]
 605 00a4 0F21     		movs	r1, #15
 606 00a6 0648     		ldr	r0, .L36+4
 607 00a8 9847     		blx	r3
 608              	.LVL15:
 609              	.L35:
 610              		.loc 1 201 0
 611 00aa FFF7FEFF 		bl	_dbg_check_leave_isr
 612 00ae FFF7FEFF 		bl	_port_irq_epilogue
 613              		.loc 1 202 0
 614 00b2 00BF     		nop
 615 00b4 03B0     		add	sp, sp, #12
 616              		.cfi_def_cfa_offset 4
 617              		@ sp needed
 618 00b6 5DF804FB 		ldr	pc, [sp], #4
 619              	.L37:
 620 00ba 00BF     		.align	2
 621              	.L36:
 622 00bc 003C0140 		.word	1073822720
 623 00c0 00000000 		.word	EXTD1
 624              		.cfi_endproc
 625              	.LFE274:
 626              		.size	VectorE0, .-VectorE0
 627              		.section	.text.Vector44,"ax",%progbits
ARM GAS  /tmp/ccvytU5E.s 			page 12


 628              		.align	1
 629              		.p2align 4,,15
 630              		.global	Vector44
 631              		.syntax unified
 632              		.thumb
 633              		.thumb_func
 634              		.fpu fpv4-sp-d16
 635              		.type	Vector44, %function
 636              	Vector44:
 637              	.LFB275:
 638              		.loc 1 209 0
 639              		.cfi_startproc
 640              		@ args = 0, pretend = 0, frame = 8
 641              		@ frame_needed = 0, uses_anonymous_args = 0
 642 0000 00B5     		push	{lr}
 643              		.cfi_def_cfa_offset 4
 644              		.cfi_offset 14, -4
 645 0002 83B0     		sub	sp, sp, #12
 646              		.cfi_def_cfa_offset 16
 647              		.loc 1 212 0
 648 0004 FFF7FEFF 		bl	_stats_increase_irq
 649 0008 FFF7FEFF 		bl	_dbg_check_enter_isr
 650              		.loc 1 214 0
 651 000c 104B     		ldr	r3, .L40
 652 000e 5B69     		ldr	r3, [r3, #20]
 653 0010 0193     		str	r3, [sp, #4]
 654              		.loc 1 215 0
 655 0012 0F4B     		ldr	r3, .L40
 656 0014 1B68     		ldr	r3, [r3]
 657 0016 03F48033 		and	r3, r3, #65536
 658 001a 019A     		ldr	r2, [sp, #4]
 659 001c 1340     		ands	r3, r3, r2
 660 001e 0193     		str	r3, [sp, #4]
 661              		.loc 1 216 0
 662 0020 0B4A     		ldr	r2, .L40
 663 0022 019B     		ldr	r3, [sp, #4]
 664 0024 5361     		str	r3, [r2, #20]
 665              		.loc 1 217 0
 666 0026 019B     		ldr	r3, [sp, #4]
 667 0028 03F48033 		and	r3, r3, #65536
 668 002c 002B     		cmp	r3, #0
 669 002e 06D0     		beq	.L39
 670              		.loc 1 218 0
 671 0030 084B     		ldr	r3, .L40+4
 672 0032 5B68     		ldr	r3, [r3, #4]
 673 0034 D3F88430 		ldr	r3, [r3, #132]
 674 0038 1021     		movs	r1, #16
 675 003a 0648     		ldr	r0, .L40+4
 676 003c 9847     		blx	r3
 677              	.LVL16:
 678              	.L39:
 679              		.loc 1 220 0
 680 003e FFF7FEFF 		bl	_dbg_check_leave_isr
 681 0042 FFF7FEFF 		bl	_port_irq_epilogue
 682              		.loc 1 221 0
 683 0046 00BF     		nop
 684 0048 03B0     		add	sp, sp, #12
ARM GAS  /tmp/ccvytU5E.s 			page 13


 685              		.cfi_def_cfa_offset 4
 686              		@ sp needed
 687 004a 5DF804FB 		ldr	pc, [sp], #4
 688              	.L41:
 689 004e 00BF     		.align	2
 690              	.L40:
 691 0050 003C0140 		.word	1073822720
 692 0054 00000000 		.word	EXTD1
 693              		.cfi_endproc
 694              	.LFE275:
 695              		.size	Vector44, .-Vector44
 696              		.section	.text.VectorE4,"ax",%progbits
 697              		.align	1
 698              		.p2align 4,,15
 699              		.global	VectorE4
 700              		.syntax unified
 701              		.thumb
 702              		.thumb_func
 703              		.fpu fpv4-sp-d16
 704              		.type	VectorE4, %function
 705              	VectorE4:
 706              	.LFB276:
 707              		.loc 1 228 0
 708              		.cfi_startproc
 709              		@ args = 0, pretend = 0, frame = 8
 710              		@ frame_needed = 0, uses_anonymous_args = 0
 711 0000 00B5     		push	{lr}
 712              		.cfi_def_cfa_offset 4
 713              		.cfi_offset 14, -4
 714 0002 83B0     		sub	sp, sp, #12
 715              		.cfi_def_cfa_offset 16
 716              		.loc 1 231 0
 717 0004 FFF7FEFF 		bl	_stats_increase_irq
 718 0008 FFF7FEFF 		bl	_dbg_check_enter_isr
 719              		.loc 1 233 0
 720 000c 104B     		ldr	r3, .L44
 721 000e 5B69     		ldr	r3, [r3, #20]
 722 0010 0193     		str	r3, [sp, #4]
 723              		.loc 1 234 0
 724 0012 0F4B     		ldr	r3, .L44
 725 0014 1B68     		ldr	r3, [r3]
 726 0016 03F40033 		and	r3, r3, #131072
 727 001a 019A     		ldr	r2, [sp, #4]
 728 001c 1340     		ands	r3, r3, r2
 729 001e 0193     		str	r3, [sp, #4]
 730              		.loc 1 235 0
 731 0020 0B4A     		ldr	r2, .L44
 732 0022 019B     		ldr	r3, [sp, #4]
 733 0024 5361     		str	r3, [r2, #20]
 734              		.loc 1 236 0
 735 0026 019B     		ldr	r3, [sp, #4]
 736 0028 03F40033 		and	r3, r3, #131072
 737 002c 002B     		cmp	r3, #0
 738 002e 06D0     		beq	.L43
 739              		.loc 1 237 0
 740 0030 084B     		ldr	r3, .L44+4
 741 0032 5B68     		ldr	r3, [r3, #4]
ARM GAS  /tmp/ccvytU5E.s 			page 14


 742 0034 D3F88C30 		ldr	r3, [r3, #140]
 743 0038 1121     		movs	r1, #17
 744 003a 0648     		ldr	r0, .L44+4
 745 003c 9847     		blx	r3
 746              	.LVL17:
 747              	.L43:
 748              		.loc 1 239 0
 749 003e FFF7FEFF 		bl	_dbg_check_leave_isr
 750 0042 FFF7FEFF 		bl	_port_irq_epilogue
 751              		.loc 1 240 0
 752 0046 00BF     		nop
 753 0048 03B0     		add	sp, sp, #12
 754              		.cfi_def_cfa_offset 4
 755              		@ sp needed
 756 004a 5DF804FB 		ldr	pc, [sp], #4
 757              	.L45:
 758 004e 00BF     		.align	2
 759              	.L44:
 760 0050 003C0140 		.word	1073822720
 761 0054 00000000 		.word	EXTD1
 762              		.cfi_endproc
 763              	.LFE276:
 764              		.size	VectorE4, .-VectorE4
 765              		.section	.text.VectorE8,"ax",%progbits
 766              		.align	1
 767              		.p2align 4,,15
 768              		.global	VectorE8
 769              		.syntax unified
 770              		.thumb
 771              		.thumb_func
 772              		.fpu fpv4-sp-d16
 773              		.type	VectorE8, %function
 774              	VectorE8:
 775              	.LFB277:
 776              		.loc 1 247 0
 777              		.cfi_startproc
 778              		@ args = 0, pretend = 0, frame = 8
 779              		@ frame_needed = 0, uses_anonymous_args = 0
 780 0000 00B5     		push	{lr}
 781              		.cfi_def_cfa_offset 4
 782              		.cfi_offset 14, -4
 783 0002 83B0     		sub	sp, sp, #12
 784              		.cfi_def_cfa_offset 16
 785              		.loc 1 250 0
 786 0004 FFF7FEFF 		bl	_stats_increase_irq
 787 0008 FFF7FEFF 		bl	_dbg_check_enter_isr
 788              		.loc 1 252 0
 789 000c 104B     		ldr	r3, .L48
 790 000e 5B69     		ldr	r3, [r3, #20]
 791 0010 0193     		str	r3, [sp, #4]
 792              		.loc 1 253 0
 793 0012 0F4B     		ldr	r3, .L48
 794 0014 1B68     		ldr	r3, [r3]
 795 0016 03F48023 		and	r3, r3, #262144
 796 001a 019A     		ldr	r2, [sp, #4]
 797 001c 1340     		ands	r3, r3, r2
 798 001e 0193     		str	r3, [sp, #4]
ARM GAS  /tmp/ccvytU5E.s 			page 15


 799              		.loc 1 254 0
 800 0020 0B4A     		ldr	r2, .L48
 801 0022 019B     		ldr	r3, [sp, #4]
 802 0024 5361     		str	r3, [r2, #20]
 803              		.loc 1 255 0
 804 0026 019B     		ldr	r3, [sp, #4]
 805 0028 03F48023 		and	r3, r3, #262144
 806 002c 002B     		cmp	r3, #0
 807 002e 06D0     		beq	.L47
 808              		.loc 1 256 0
 809 0030 084B     		ldr	r3, .L48+4
 810 0032 5B68     		ldr	r3, [r3, #4]
 811 0034 D3F89430 		ldr	r3, [r3, #148]
 812 0038 1221     		movs	r1, #18
 813 003a 0648     		ldr	r0, .L48+4
 814 003c 9847     		blx	r3
 815              	.LVL18:
 816              	.L47:
 817              		.loc 1 258 0
 818 003e FFF7FEFF 		bl	_dbg_check_leave_isr
 819 0042 FFF7FEFF 		bl	_port_irq_epilogue
 820              		.loc 1 259 0
 821 0046 00BF     		nop
 822 0048 03B0     		add	sp, sp, #12
 823              		.cfi_def_cfa_offset 4
 824              		@ sp needed
 825 004a 5DF804FB 		ldr	pc, [sp], #4
 826              	.L49:
 827 004e 00BF     		.align	2
 828              	.L48:
 829 0050 003C0140 		.word	1073822720
 830 0054 00000000 		.word	EXTD1
 831              		.cfi_endproc
 832              	.LFE277:
 833              		.size	VectorE8, .-VectorE8
 834              		.section	.text.Vector138,"ax",%progbits
 835              		.align	1
 836              		.p2align 4,,15
 837              		.global	Vector138
 838              		.syntax unified
 839              		.thumb
 840              		.thumb_func
 841              		.fpu fpv4-sp-d16
 842              		.type	Vector138, %function
 843              	Vector138:
 844              	.LFB278:
 845              		.loc 1 267 0
 846              		.cfi_startproc
 847              		@ args = 0, pretend = 0, frame = 8
 848              		@ frame_needed = 0, uses_anonymous_args = 0
 849 0000 00B5     		push	{lr}
 850              		.cfi_def_cfa_offset 4
 851              		.cfi_offset 14, -4
 852 0002 83B0     		sub	sp, sp, #12
 853              		.cfi_def_cfa_offset 16
 854              		.loc 1 270 0
 855 0004 FFF7FEFF 		bl	_stats_increase_irq
ARM GAS  /tmp/ccvytU5E.s 			page 16


 856 0008 FFF7FEFF 		bl	_dbg_check_enter_isr
 857              		.loc 1 272 0
 858 000c 104B     		ldr	r3, .L52
 859 000e 5B69     		ldr	r3, [r3, #20]
 860 0010 0193     		str	r3, [sp, #4]
 861              		.loc 1 273 0
 862 0012 0F4B     		ldr	r3, .L52
 863 0014 1B68     		ldr	r3, [r3]
 864 0016 03F40023 		and	r3, r3, #524288
 865 001a 019A     		ldr	r2, [sp, #4]
 866 001c 1340     		ands	r3, r3, r2
 867 001e 0193     		str	r3, [sp, #4]
 868              		.loc 1 274 0
 869 0020 0B4A     		ldr	r2, .L52
 870 0022 019B     		ldr	r3, [sp, #4]
 871 0024 5361     		str	r3, [r2, #20]
 872              		.loc 1 275 0
 873 0026 019B     		ldr	r3, [sp, #4]
 874 0028 03F40023 		and	r3, r3, #524288
 875 002c 002B     		cmp	r3, #0
 876 002e 06D0     		beq	.L51
 877              		.loc 1 276 0
 878 0030 084B     		ldr	r3, .L52+4
 879 0032 5B68     		ldr	r3, [r3, #4]
 880 0034 D3F89C30 		ldr	r3, [r3, #156]
 881 0038 1321     		movs	r1, #19
 882 003a 0648     		ldr	r0, .L52+4
 883 003c 9847     		blx	r3
 884              	.LVL19:
 885              	.L51:
 886              		.loc 1 278 0
 887 003e FFF7FEFF 		bl	_dbg_check_leave_isr
 888 0042 FFF7FEFF 		bl	_port_irq_epilogue
 889              		.loc 1 279 0
 890 0046 00BF     		nop
 891 0048 03B0     		add	sp, sp, #12
 892              		.cfi_def_cfa_offset 4
 893              		@ sp needed
 894 004a 5DF804FB 		ldr	pc, [sp], #4
 895              	.L53:
 896 004e 00BF     		.align	2
 897              	.L52:
 898 0050 003C0140 		.word	1073822720
 899 0054 00000000 		.word	EXTD1
 900              		.cfi_endproc
 901              	.LFE278:
 902              		.size	Vector138, .-Vector138
 903              		.section	.text.Vector170,"ax",%progbits
 904              		.align	1
 905              		.p2align 4,,15
 906              		.global	Vector170
 907              		.syntax unified
 908              		.thumb
 909              		.thumb_func
 910              		.fpu fpv4-sp-d16
 911              		.type	Vector170, %function
 912              	Vector170:
ARM GAS  /tmp/ccvytU5E.s 			page 17


 913              	.LFB279:
 914              		.loc 1 288 0
 915              		.cfi_startproc
 916              		@ args = 0, pretend = 0, frame = 8
 917              		@ frame_needed = 0, uses_anonymous_args = 0
 918 0000 00B5     		push	{lr}
 919              		.cfi_def_cfa_offset 4
 920              		.cfi_offset 14, -4
 921 0002 83B0     		sub	sp, sp, #12
 922              		.cfi_def_cfa_offset 16
 923              		.loc 1 291 0
 924 0004 FFF7FEFF 		bl	_stats_increase_irq
 925 0008 FFF7FEFF 		bl	_dbg_check_enter_isr
 926              		.loc 1 293 0
 927 000c 104B     		ldr	r3, .L56
 928 000e 5B69     		ldr	r3, [r3, #20]
 929 0010 0193     		str	r3, [sp, #4]
 930              		.loc 1 294 0
 931 0012 0F4B     		ldr	r3, .L56
 932 0014 1B68     		ldr	r3, [r3]
 933 0016 03F48013 		and	r3, r3, #1048576
 934 001a 019A     		ldr	r2, [sp, #4]
 935 001c 1340     		ands	r3, r3, r2
 936 001e 0193     		str	r3, [sp, #4]
 937              		.loc 1 295 0
 938 0020 0B4A     		ldr	r2, .L56
 939 0022 019B     		ldr	r3, [sp, #4]
 940 0024 5361     		str	r3, [r2, #20]
 941              		.loc 1 296 0
 942 0026 019B     		ldr	r3, [sp, #4]
 943 0028 03F48013 		and	r3, r3, #1048576
 944 002c 002B     		cmp	r3, #0
 945 002e 06D0     		beq	.L55
 946              		.loc 1 297 0
 947 0030 084B     		ldr	r3, .L56+4
 948 0032 5B68     		ldr	r3, [r3, #4]
 949 0034 D3F8A430 		ldr	r3, [r3, #164]
 950 0038 1421     		movs	r1, #20
 951 003a 0648     		ldr	r0, .L56+4
 952 003c 9847     		blx	r3
 953              	.LVL20:
 954              	.L55:
 955              		.loc 1 299 0
 956 003e FFF7FEFF 		bl	_dbg_check_leave_isr
 957 0042 FFF7FEFF 		bl	_port_irq_epilogue
 958              		.loc 1 300 0
 959 0046 00BF     		nop
 960 0048 03B0     		add	sp, sp, #12
 961              		.cfi_def_cfa_offset 4
 962              		@ sp needed
 963 004a 5DF804FB 		ldr	pc, [sp], #4
 964              	.L57:
 965 004e 00BF     		.align	2
 966              	.L56:
 967 0050 003C0140 		.word	1073822720
 968 0054 00000000 		.word	EXTD1
 969              		.cfi_endproc
ARM GAS  /tmp/ccvytU5E.s 			page 18


 970              	.LFE279:
 971              		.size	Vector170, .-Vector170
 972              		.section	.text.Vector48,"ax",%progbits
 973              		.align	1
 974              		.p2align 4,,15
 975              		.global	Vector48
 976              		.syntax unified
 977              		.thumb
 978              		.thumb_func
 979              		.fpu fpv4-sp-d16
 980              		.type	Vector48, %function
 981              	Vector48:
 982              	.LFB280:
 983              		.loc 1 309 0
 984              		.cfi_startproc
 985              		@ args = 0, pretend = 0, frame = 8
 986              		@ frame_needed = 0, uses_anonymous_args = 0
 987 0000 00B5     		push	{lr}
 988              		.cfi_def_cfa_offset 4
 989              		.cfi_offset 14, -4
 990 0002 83B0     		sub	sp, sp, #12
 991              		.cfi_def_cfa_offset 16
 992              		.loc 1 312 0
 993 0004 FFF7FEFF 		bl	_stats_increase_irq
 994 0008 FFF7FEFF 		bl	_dbg_check_enter_isr
 995              		.loc 1 314 0
 996 000c 104B     		ldr	r3, .L60
 997 000e 5B69     		ldr	r3, [r3, #20]
 998 0010 0193     		str	r3, [sp, #4]
 999              		.loc 1 315 0
 1000 0012 0F4B     		ldr	r3, .L60
 1001 0014 1B68     		ldr	r3, [r3]
 1002 0016 03F40013 		and	r3, r3, #2097152
 1003 001a 019A     		ldr	r2, [sp, #4]
 1004 001c 1340     		ands	r3, r3, r2
 1005 001e 0193     		str	r3, [sp, #4]
 1006              		.loc 1 316 0
 1007 0020 0B4A     		ldr	r2, .L60
 1008 0022 019B     		ldr	r3, [sp, #4]
 1009 0024 5361     		str	r3, [r2, #20]
 1010              		.loc 1 317 0
 1011 0026 019B     		ldr	r3, [sp, #4]
 1012 0028 03F40013 		and	r3, r3, #2097152
 1013 002c 002B     		cmp	r3, #0
 1014 002e 06D0     		beq	.L59
 1015              		.loc 1 318 0
 1016 0030 084B     		ldr	r3, .L60+4
 1017 0032 5B68     		ldr	r3, [r3, #4]
 1018 0034 D3F8AC30 		ldr	r3, [r3, #172]
 1019 0038 1521     		movs	r1, #21
 1020 003a 0648     		ldr	r0, .L60+4
 1021 003c 9847     		blx	r3
 1022              	.LVL21:
 1023              	.L59:
 1024              		.loc 1 320 0
 1025 003e FFF7FEFF 		bl	_dbg_check_leave_isr
 1026 0042 FFF7FEFF 		bl	_port_irq_epilogue
ARM GAS  /tmp/ccvytU5E.s 			page 19


 1027              		.loc 1 321 0
 1028 0046 00BF     		nop
 1029 0048 03B0     		add	sp, sp, #12
 1030              		.cfi_def_cfa_offset 4
 1031              		@ sp needed
 1032 004a 5DF804FB 		ldr	pc, [sp], #4
 1033              	.L61:
 1034 004e 00BF     		.align	2
 1035              	.L60:
 1036 0050 003C0140 		.word	1073822720
 1037 0054 00000000 		.word	EXTD1
 1038              		.cfi_endproc
 1039              	.LFE280:
 1040              		.size	Vector48, .-Vector48
 1041              		.section	.text.Vector4C,"ax",%progbits
 1042              		.align	1
 1043              		.p2align 4,,15
 1044              		.global	Vector4C
 1045              		.syntax unified
 1046              		.thumb
 1047              		.thumb_func
 1048              		.fpu fpv4-sp-d16
 1049              		.type	Vector4C, %function
 1050              	Vector4C:
 1051              	.LFB281:
 1052              		.loc 1 329 0
 1053              		.cfi_startproc
 1054              		@ args = 0, pretend = 0, frame = 8
 1055              		@ frame_needed = 0, uses_anonymous_args = 0
 1056 0000 00B5     		push	{lr}
 1057              		.cfi_def_cfa_offset 4
 1058              		.cfi_offset 14, -4
 1059 0002 83B0     		sub	sp, sp, #12
 1060              		.cfi_def_cfa_offset 16
 1061              		.loc 1 332 0
 1062 0004 FFF7FEFF 		bl	_stats_increase_irq
 1063 0008 FFF7FEFF 		bl	_dbg_check_enter_isr
 1064              		.loc 1 334 0
 1065 000c 104B     		ldr	r3, .L64
 1066 000e 5B69     		ldr	r3, [r3, #20]
 1067 0010 0193     		str	r3, [sp, #4]
 1068              		.loc 1 335 0
 1069 0012 0F4B     		ldr	r3, .L64
 1070 0014 1B68     		ldr	r3, [r3]
 1071 0016 03F48003 		and	r3, r3, #4194304
 1072 001a 019A     		ldr	r2, [sp, #4]
 1073 001c 1340     		ands	r3, r3, r2
 1074 001e 0193     		str	r3, [sp, #4]
 1075              		.loc 1 336 0
 1076 0020 0B4A     		ldr	r2, .L64
 1077 0022 019B     		ldr	r3, [sp, #4]
 1078 0024 5361     		str	r3, [r2, #20]
 1079              		.loc 1 337 0
 1080 0026 019B     		ldr	r3, [sp, #4]
 1081 0028 03F48003 		and	r3, r3, #4194304
 1082 002c 002B     		cmp	r3, #0
 1083 002e 06D0     		beq	.L63
ARM GAS  /tmp/ccvytU5E.s 			page 20


 1084              		.loc 1 338 0
 1085 0030 084B     		ldr	r3, .L64+4
 1086 0032 5B68     		ldr	r3, [r3, #4]
 1087 0034 D3F8B430 		ldr	r3, [r3, #180]
 1088 0038 1621     		movs	r1, #22
 1089 003a 0648     		ldr	r0, .L64+4
 1090 003c 9847     		blx	r3
 1091              	.LVL22:
 1092              	.L63:
 1093              		.loc 1 340 0
 1094 003e FFF7FEFF 		bl	_dbg_check_leave_isr
 1095 0042 FFF7FEFF 		bl	_port_irq_epilogue
 1096              		.loc 1 341 0
 1097 0046 00BF     		nop
 1098 0048 03B0     		add	sp, sp, #12
 1099              		.cfi_def_cfa_offset 4
 1100              		@ sp needed
 1101 004a 5DF804FB 		ldr	pc, [sp], #4
 1102              	.L65:
 1103 004e 00BF     		.align	2
 1104              	.L64:
 1105 0050 003C0140 		.word	1073822720
 1106 0054 00000000 		.word	EXTD1
 1107              		.cfi_endproc
 1108              	.LFE281:
 1109              		.size	Vector4C, .-Vector4C
 1110              		.section	.text.ext_lld_exti_irq_enable,"ax",%progbits
 1111              		.align	1
 1112              		.p2align 4,,15
 1113              		.global	ext_lld_exti_irq_enable
 1114              		.syntax unified
 1115              		.thumb
 1116              		.thumb_func
 1117              		.fpu fpv4-sp-d16
 1118              		.type	ext_lld_exti_irq_enable, %function
 1119              	ext_lld_exti_irq_enable:
 1120              	.LFB282:
 1121              		.loc 1 352 0
 1122              		.cfi_startproc
 1123              		@ args = 0, pretend = 0, frame = 0
 1124              		@ frame_needed = 0, uses_anonymous_args = 0
 1125 0000 08B5     		push	{r3, lr}
 1126              		.cfi_def_cfa_offset 8
 1127              		.cfi_offset 3, -8
 1128              		.cfi_offset 14, -4
 1129              		.loc 1 354 0
 1130 0002 0621     		movs	r1, #6
 1131 0004 0620     		movs	r0, #6
 1132 0006 FFF7FEFF 		bl	nvicEnableVector
 1133              		.loc 1 355 0
 1134 000a 0621     		movs	r1, #6
 1135 000c 0720     		movs	r0, #7
 1136 000e FFF7FEFF 		bl	nvicEnableVector
 1137              		.loc 1 356 0
 1138 0012 0621     		movs	r1, #6
 1139 0014 0820     		movs	r0, #8
 1140 0016 FFF7FEFF 		bl	nvicEnableVector
ARM GAS  /tmp/ccvytU5E.s 			page 21


 1141              		.loc 1 357 0
 1142 001a 0621     		movs	r1, #6
 1143 001c 0920     		movs	r0, #9
 1144 001e FFF7FEFF 		bl	nvicEnableVector
 1145              		.loc 1 358 0
 1146 0022 0621     		movs	r1, #6
 1147 0024 0A20     		movs	r0, #10
 1148 0026 FFF7FEFF 		bl	nvicEnableVector
 1149              		.loc 1 359 0
 1150 002a 0621     		movs	r1, #6
 1151 002c 1720     		movs	r0, #23
 1152 002e FFF7FEFF 		bl	nvicEnableVector
 1153              		.loc 1 360 0
 1154 0032 0621     		movs	r1, #6
 1155 0034 2820     		movs	r0, #40
 1156 0036 FFF7FEFF 		bl	nvicEnableVector
 1157              		.loc 1 361 0
 1158 003a 0621     		movs	r1, #6
 1159 003c 0120     		movs	r0, #1
 1160 003e FFF7FEFF 		bl	nvicEnableVector
 1161              		.loc 1 362 0
 1162 0042 0F21     		movs	r1, #15
 1163 0044 2920     		movs	r0, #41
 1164 0046 FFF7FEFF 		bl	nvicEnableVector
 1165              		.loc 1 363 0
 1166 004a 0621     		movs	r1, #6
 1167 004c 2A20     		movs	r0, #42
 1168 004e FFF7FEFF 		bl	nvicEnableVector
 1169              		.loc 1 365 0
 1170 0052 0621     		movs	r1, #6
 1171 0054 3E20     		movs	r0, #62
 1172 0056 FFF7FEFF 		bl	nvicEnableVector
 1173              		.loc 1 368 0
 1174 005a 0621     		movs	r1, #6
 1175 005c 4C20     		movs	r0, #76
 1176 005e FFF7FEFF 		bl	nvicEnableVector
 1177              		.loc 1 371 0
 1178 0062 0F21     		movs	r1, #15
 1179 0064 0220     		movs	r0, #2
 1180 0066 FFF7FEFF 		bl	nvicEnableVector
 1181              		.loc 1 373 0
 1182 006a 0F21     		movs	r1, #15
 1183 006c 0320     		movs	r0, #3
 1184 006e FFF7FEFF 		bl	nvicEnableVector
 1185              		.loc 1 374 0
 1186 0072 00BF     		nop
 1187 0074 08BD     		pop	{r3, pc}
 1188              		.cfi_endproc
 1189              	.LFE282:
 1190              		.size	ext_lld_exti_irq_enable, .-ext_lld_exti_irq_enable
 1191 0076 00BF     		.section	.text.ext_lld_exti_irq_disable,"ax",%progbits
 1192              		.align	1
 1193              		.p2align 4,,15
 1194              		.global	ext_lld_exti_irq_disable
 1195              		.syntax unified
 1196              		.thumb
 1197              		.thumb_func
ARM GAS  /tmp/ccvytU5E.s 			page 22


 1198              		.fpu fpv4-sp-d16
 1199              		.type	ext_lld_exti_irq_disable, %function
 1200              	ext_lld_exti_irq_disable:
 1201              	.LFB283:
 1202              		.loc 1 381 0
 1203              		.cfi_startproc
 1204              		@ args = 0, pretend = 0, frame = 0
 1205              		@ frame_needed = 0, uses_anonymous_args = 0
 1206 0000 08B5     		push	{r3, lr}
 1207              		.cfi_def_cfa_offset 8
 1208              		.cfi_offset 3, -8
 1209              		.cfi_offset 14, -4
 1210              		.loc 1 383 0
 1211 0002 0620     		movs	r0, #6
 1212 0004 FFF7FEFF 		bl	nvicDisableVector
 1213              		.loc 1 384 0
 1214 0008 0720     		movs	r0, #7
 1215 000a FFF7FEFF 		bl	nvicDisableVector
 1216              		.loc 1 385 0
 1217 000e 0820     		movs	r0, #8
 1218 0010 FFF7FEFF 		bl	nvicDisableVector
 1219              		.loc 1 386 0
 1220 0014 0920     		movs	r0, #9
 1221 0016 FFF7FEFF 		bl	nvicDisableVector
 1222              		.loc 1 387 0
 1223 001a 0A20     		movs	r0, #10
 1224 001c FFF7FEFF 		bl	nvicDisableVector
 1225              		.loc 1 388 0
 1226 0020 1720     		movs	r0, #23
 1227 0022 FFF7FEFF 		bl	nvicDisableVector
 1228              		.loc 1 389 0
 1229 0026 2820     		movs	r0, #40
 1230 0028 FFF7FEFF 		bl	nvicDisableVector
 1231              		.loc 1 390 0
 1232 002c 0120     		movs	r0, #1
 1233 002e FFF7FEFF 		bl	nvicDisableVector
 1234              		.loc 1 391 0
 1235 0032 2920     		movs	r0, #41
 1236 0034 FFF7FEFF 		bl	nvicDisableVector
 1237              		.loc 1 392 0
 1238 0038 2A20     		movs	r0, #42
 1239 003a FFF7FEFF 		bl	nvicDisableVector
 1240              		.loc 1 394 0
 1241 003e 3E20     		movs	r0, #62
 1242 0040 FFF7FEFF 		bl	nvicDisableVector
 1243              		.loc 1 397 0
 1244 0044 4C20     		movs	r0, #76
 1245 0046 FFF7FEFF 		bl	nvicDisableVector
 1246              		.loc 1 400 0
 1247 004a 0220     		movs	r0, #2
 1248 004c FFF7FEFF 		bl	nvicDisableVector
 1249              		.loc 1 402 0
 1250 0050 0320     		movs	r0, #3
 1251 0052 FFF7FEFF 		bl	nvicDisableVector
 1252              		.loc 1 403 0
 1253 0056 00BF     		nop
 1254 0058 08BD     		pop	{r3, pc}
ARM GAS  /tmp/ccvytU5E.s 			page 23


 1255              		.cfi_endproc
 1256              	.LFE283:
 1257              		.size	ext_lld_exti_irq_disable, .-ext_lld_exti_irq_disable
 1258 005a 00BF     		.text
 1259              	.Letext0:
 1260              		.file 2 "/usr/lib/gcc/arm-none-eabi/6.3.1/include/stddef.h"
 1261              		.file 3 "/usr/arm-none-eabi/include/machine/_default_types.h"
 1262              		.file 4 "/usr/arm-none-eabi/include/sys/_stdint.h"
 1263              		.file 5 "../ChibiOS/os/rt/ports/ARMCMx/compilers/GCC/chtypes.h"
 1264              		.file 6 "../ChibiOS/os/rt/include/chsystypes.h"
 1265              		.file 7 "../ChibiOS/os/rt/include/chschd.h"
 1266              		.file 8 "../ChibiOS/os/ext/CMSIS/include/core_cm4.h"
 1267              		.file 9 "../ChibiOS/os/ext/CMSIS/ST/STM32F4xx/system_stm32f4xx.h"
 1268              		.file 10 "../ChibiOS/os/ext/CMSIS/ST/STM32F4xx/stm32f437xx.h"
 1269              		.file 11 "../ChibiOS/os/rt/ports/ARMCMx/chcore.h"
 1270              		.file 12 "../ChibiOS/os/rt/ports/ARMCMx/chcore_v7m.h"
 1271              		.file 13 "../ChibiOS/os/rt/include/chtm.h"
 1272              		.file 14 "../ChibiOS/os/rt/include/chstats.h"
 1273              		.file 15 "../ChibiOS/os/rt/include/chsem.h"
 1274              		.file 16 "../ChibiOS/os/rt/include/chmtx.h"
 1275              		.file 17 "../ChibiOS/os/rt/include/chregistry.h"
 1276              		.file 18 "../ChibiOS/os/rt/include/chevents.h"
 1277              		.file 19 "../ChibiOS/os/rt/include/chqueues.h"
 1278              		.file 20 "../ChibiOS/os/hal/ports/STM32/LLD/DMAv2/stm32_dma.h"
 1279              		.file 21 "../ChibiOS/os/hal/ports/STM32/LLD/GPIOv2/pal_lld.h"
 1280              		.file 22 "../ChibiOS/os/hal/include/ext.h"
 1281              		.file 23 "../ChibiOS/os/hal/ports/STM32/LLD/EXTIv1/ext_lld.h"
 1282              		.file 24 "../ChibiOS/os/hal/include/gpt.h"
 1283              		.file 25 "../ChibiOS/os/hal/ports/STM32/LLD/TIMv1/gpt_lld.h"
 1284              		.file 26 "../ChibiOS/os/hal/ports/STM32/LLD/TIMv1/stm32_tim.h"
 1285              		.file 27 "../ChibiOS/os/hal/include/pwm.h"
 1286              		.file 28 "../ChibiOS/os/hal/ports/STM32/LLD/TIMv1/pwm_lld.h"
 1287              		.file 29 "../ChibiOS/os/hal/include/serial.h"
 1288              		.file 30 "../ChibiOS/os/hal/ports/STM32/LLD/USARTv1/serial_lld.h"
 1289              		.file 31 "../ChibiOS/os/hal/include/usb.h"
 1290              		.file 32 "../ChibiOS/os/hal/ports/STM32/LLD/OTGv1/usb_lld.h"
 1291              		.file 33 "../ChibiOS/os/hal/ports/STM32/LLD/OTGv1/stm32_otg.h"