ARM GAS  /tmp/ccfazuZ2.s 			page 1


   1              		.cpu cortex-m4
   2              		.eabi_attribute 27, 1
   3              		.eabi_attribute 28, 1
   4              		.eabi_attribute 20, 1
   5              		.eabi_attribute 21, 1
   6              		.eabi_attribute 23, 3
   7              		.eabi_attribute 24, 1
   8              		.eabi_attribute 25, 1
   9              		.eabi_attribute 26, 1
  10              		.eabi_attribute 30, 6
  11              		.eabi_attribute 34, 1
  12              		.eabi_attribute 18, 4
  13              		.file	"gpt.c"
  14              		.text
  15              	.Ltext0:
  16              		.cfi_sections	.debug_frame
  17              		.section	.text.port_lock,"ax",%progbits
  18              		.align	1
  19              		.p2align 4,,15
  20              		.syntax unified
  21              		.thumb
  22              		.thumb_func
  23              		.fpu fpv4-sp-d16
  24              		.type	port_lock, %function
  25              	port_lock:
  26              	.LFB127:
  27              		.file 1 "../ChibiOS/os/rt/ports/ARMCMx/chcore_v7m.h"
  28              		.loc 1 456 0
  29              		.cfi_startproc
  30              		@ args = 0, pretend = 0, frame = 8
  31              		@ frame_needed = 0, uses_anonymous_args = 0
  32              		@ link register save eliminated.
  33 0000 82B0     		sub	sp, sp, #8
  34              		.cfi_def_cfa_offset 8
  35 0002 2023     		movs	r3, #32
  36 0004 0193     		str	r3, [sp, #4]
  37              	.LBB6:
  38              	.LBB7:
  39              		.file 2 "../ChibiOS/os/ext/CMSIS/include/core_cmFunc.h"
  40              		.loc 2 548 0
  41 0006 019B     		ldr	r3, [sp, #4]
  42              		.syntax unified
  43              	@ 548 "../ChibiOS/os/ext/CMSIS/include/core_cmFunc.h" 1
  44 0008 83F31188 		MSR basepri, r3
  45              	@ 0 "" 2
  46              		.thumb
  47              		.syntax unified
  48              	.LBE7:
  49              	.LBE6:
  50              		.loc 1 473 0
  51 000c 00BF     		nop
  52 000e 02B0     		add	sp, sp, #8
  53              		.cfi_def_cfa_offset 0
  54              		@ sp needed
  55 0010 7047     		bx	lr
  56              		.cfi_endproc
  57              	.LFE127:
ARM GAS  /tmp/ccfazuZ2.s 			page 2


  58              		.size	port_lock, .-port_lock
  59 0012 00BF     		.section	.text.port_unlock,"ax",%progbits
  60              		.align	1
  61              		.p2align 4,,15
  62              		.syntax unified
  63              		.thumb
  64              		.thumb_func
  65              		.fpu fpv4-sp-d16
  66              		.type	port_unlock, %function
  67              	port_unlock:
  68              	.LFB128:
  69              		.loc 1 480 0
  70              		.cfi_startproc
  71              		@ args = 0, pretend = 0, frame = 8
  72              		@ frame_needed = 0, uses_anonymous_args = 0
  73              		@ link register save eliminated.
  74 0000 82B0     		sub	sp, sp, #8
  75              		.cfi_def_cfa_offset 8
  76 0002 0023     		movs	r3, #0
  77 0004 0193     		str	r3, [sp, #4]
  78              	.LBB8:
  79              	.LBB9:
  80              		.loc 2 548 0
  81 0006 019B     		ldr	r3, [sp, #4]
  82              		.syntax unified
  83              	@ 548 "../ChibiOS/os/ext/CMSIS/include/core_cmFunc.h" 1
  84 0008 83F31188 		MSR basepri, r3
  85              	@ 0 "" 2
  86              		.thumb
  87              		.syntax unified
  88              	.LBE9:
  89              	.LBE8:
  90              		.loc 1 487 0
  91 000c 00BF     		nop
  92 000e 02B0     		add	sp, sp, #8
  93              		.cfi_def_cfa_offset 0
  94              		@ sp needed
  95 0010 7047     		bx	lr
  96              		.cfi_endproc
  97              	.LFE128:
  98              		.size	port_unlock, .-port_unlock
  99 0012 00BF     		.section	.text.chSysLock,"ax",%progbits
 100              		.align	1
 101              		.p2align 4,,15
 102              		.syntax unified
 103              		.thumb
 104              		.thumb_func
 105              		.fpu fpv4-sp-d16
 106              		.type	chSysLock, %function
 107              	chSysLock:
 108              	.LFB156:
 109              		.file 3 "../ChibiOS/os/rt/include/chsys.h"
 110              		.loc 3 346 0
 111              		.cfi_startproc
 112              		@ args = 0, pretend = 0, frame = 0
 113              		@ frame_needed = 0, uses_anonymous_args = 0
 114 0000 08B5     		push	{r3, lr}
ARM GAS  /tmp/ccfazuZ2.s 			page 3


 115              		.cfi_def_cfa_offset 8
 116              		.cfi_offset 3, -8
 117              		.cfi_offset 14, -4
 118              		.loc 3 348 0
 119 0002 FFF7FEFF 		bl	port_lock
 120              		.loc 3 349 0
 121 0006 FFF7FEFF 		bl	_stats_start_measure_crit_thd
 122              		.loc 3 350 0
 123 000a FFF7FEFF 		bl	_dbg_check_lock
 124              		.loc 3 351 0
 125 000e 00BF     		nop
 126 0010 08BD     		pop	{r3, pc}
 127              		.cfi_endproc
 128              	.LFE156:
 129              		.size	chSysLock, .-chSysLock
 130 0012 00BF     		.section	.text.chSysUnlock,"ax",%progbits
 131              		.align	1
 132              		.p2align 4,,15
 133              		.syntax unified
 134              		.thumb
 135              		.thumb_func
 136              		.fpu fpv4-sp-d16
 137              		.type	chSysUnlock, %function
 138              	chSysUnlock:
 139              	.LFB157:
 140              		.loc 3 358 0
 141              		.cfi_startproc
 142              		@ args = 0, pretend = 0, frame = 0
 143              		@ frame_needed = 0, uses_anonymous_args = 0
 144 0000 08B5     		push	{r3, lr}
 145              		.cfi_def_cfa_offset 8
 146              		.cfi_offset 3, -8
 147              		.cfi_offset 14, -4
 148              		.loc 3 360 0
 149 0002 FFF7FEFF 		bl	_dbg_check_unlock
 150              		.loc 3 361 0
 151 0006 FFF7FEFF 		bl	_stats_stop_measure_crit_thd
 152              		.loc 3 367 0
 153 000a 0A4B     		ldr	r3, .L6
 154 000c 1B68     		ldr	r3, [r3]
 155 000e 094A     		ldr	r2, .L6
 156 0010 9342     		cmp	r3, r2
 157 0012 0AD0     		beq	.L5
 158              		.loc 3 367 0 is_stmt 0 discriminator 2
 159 0014 074B     		ldr	r3, .L6
 160 0016 9B69     		ldr	r3, [r3, #24]
 161 0018 9A68     		ldr	r2, [r3, #8]
 162 001a 064B     		ldr	r3, .L6
 163 001c 1B68     		ldr	r3, [r3]
 164 001e 9B68     		ldr	r3, [r3, #8]
 165 0020 9A42     		cmp	r2, r3
 166 0022 02D2     		bcs	.L5
 167              		.loc 3 367 0 discriminator 3
 168 0024 0448     		ldr	r0, .L6+4
 169 0026 FFF7FEFF 		bl	chSysHalt
 170              	.L5:
 171              		.loc 3 371 0 is_stmt 1
ARM GAS  /tmp/ccfazuZ2.s 			page 4


 172 002a FFF7FEFF 		bl	port_unlock
 173              		.loc 3 372 0
 174 002e 00BF     		nop
 175 0030 08BD     		pop	{r3, pc}
 176              	.L7:
 177 0032 00BF     		.align	2
 178              	.L6:
 179 0034 00000000 		.word	ch
 180 0038 00000000 		.word	__func__.7157
 181              		.cfi_endproc
 182              	.LFE157:
 183              		.size	chSysUnlock, .-chSysUnlock
 184              		.section	.text.osalSysLock,"ax",%progbits
 185              		.align	1
 186              		.p2align 4,,15
 187              		.syntax unified
 188              		.thumb
 189              		.thumb_func
 190              		.fpu fpv4-sp-d16
 191              		.type	osalSysLock, %function
 192              	osalSysLock:
 193              	.LFB235:
 194              		.file 4 "../ChibiOS/os/hal/osal/rt/osal.h"
 195              		.loc 4 491 0
 196              		.cfi_startproc
 197              		@ args = 0, pretend = 0, frame = 0
 198              		@ frame_needed = 0, uses_anonymous_args = 0
 199 0000 08B5     		push	{r3, lr}
 200              		.cfi_def_cfa_offset 8
 201              		.cfi_offset 3, -8
 202              		.cfi_offset 14, -4
 203              		.loc 4 493 0
 204 0002 FFF7FEFF 		bl	chSysLock
 205              		.loc 4 494 0
 206 0006 00BF     		nop
 207 0008 08BD     		pop	{r3, pc}
 208              		.cfi_endproc
 209              	.LFE235:
 210              		.size	osalSysLock, .-osalSysLock
 211 000a 00BF     		.section	.text.osalSysUnlock,"ax",%progbits
 212              		.align	1
 213              		.p2align 4,,15
 214              		.syntax unified
 215              		.thumb
 216              		.thumb_func
 217              		.fpu fpv4-sp-d16
 218              		.type	osalSysUnlock, %function
 219              	osalSysUnlock:
 220              	.LFB236:
 221              		.loc 4 502 0
 222              		.cfi_startproc
 223              		@ args = 0, pretend = 0, frame = 0
 224              		@ frame_needed = 0, uses_anonymous_args = 0
 225 0000 08B5     		push	{r3, lr}
 226              		.cfi_def_cfa_offset 8
 227              		.cfi_offset 3, -8
 228              		.cfi_offset 14, -4
ARM GAS  /tmp/ccfazuZ2.s 			page 5


 229              		.loc 4 504 0
 230 0002 FFF7FEFF 		bl	chSysUnlock
 231              		.loc 4 505 0
 232 0006 00BF     		nop
 233 0008 08BD     		pop	{r3, pc}
 234              		.cfi_endproc
 235              	.LFE236:
 236              		.size	osalSysUnlock, .-osalSysUnlock
 237              		.section	.text.gptInit,"ax",%progbits
 238              		.align	1
 239              		.p2align 4,,15
 240              		.global	gptInit
 241              		.syntax unified
 242              		.thumb
 243              		.thumb_func
 244              		.fpu fpv4-sp-d16
 245              		.type	gptInit, %function
 246              	gptInit:
 247              	.LFB268:
 248              		.file 5 "../ChibiOS/os/hal/src/gpt.c"
 249              		.loc 5 56 0
 250              		.cfi_startproc
 251              		@ args = 0, pretend = 0, frame = 0
 252              		@ frame_needed = 0, uses_anonymous_args = 0
 253 0000 08B5     		push	{r3, lr}
 254              		.cfi_def_cfa_offset 8
 255              		.cfi_offset 3, -8
 256              		.cfi_offset 14, -4
 257              		.loc 5 58 0
 258 0002 FFF7FEFF 		bl	gpt_lld_init
 259              		.loc 5 59 0
 260 0006 00BF     		nop
 261 0008 08BD     		pop	{r3, pc}
 262              		.cfi_endproc
 263              	.LFE268:
 264              		.size	gptInit, .-gptInit
 265 000a 00BF     		.section	.text.gptObjectInit,"ax",%progbits
 266              		.align	1
 267              		.p2align 4,,15
 268              		.global	gptObjectInit
 269              		.syntax unified
 270              		.thumb
 271              		.thumb_func
 272              		.fpu fpv4-sp-d16
 273              		.type	gptObjectInit, %function
 274              	gptObjectInit:
 275              	.LFB269:
 276              		.loc 5 68 0
 277              		.cfi_startproc
 278              		@ args = 0, pretend = 0, frame = 8
 279              		@ frame_needed = 0, uses_anonymous_args = 0
 280              		@ link register save eliminated.
 281 0000 82B0     		sub	sp, sp, #8
 282              		.cfi_def_cfa_offset 8
 283 0002 0190     		str	r0, [sp, #4]
 284              		.loc 5 70 0
 285 0004 019B     		ldr	r3, [sp, #4]
ARM GAS  /tmp/ccfazuZ2.s 			page 6


 286 0006 0122     		movs	r2, #1
 287 0008 1A70     		strb	r2, [r3]
 288              		.loc 5 71 0
 289 000a 019B     		ldr	r3, [sp, #4]
 290 000c 0022     		movs	r2, #0
 291 000e 5A60     		str	r2, [r3, #4]
 292              		.loc 5 72 0
 293 0010 00BF     		nop
 294 0012 02B0     		add	sp, sp, #8
 295              		.cfi_def_cfa_offset 0
 296              		@ sp needed
 297 0014 7047     		bx	lr
 298              		.cfi_endproc
 299              	.LFE269:
 300              		.size	gptObjectInit, .-gptObjectInit
 301              		.section	.text.gptStart,"ax",%progbits
 302              		.align	1
 303              		.p2align 4,,15
 304              		.global	gptStart
 305              		.syntax unified
 306              		.thumb
 307              		.thumb_func
 308              		.fpu fpv4-sp-d16
 309              		.type	gptStart, %function
 310              	gptStart:
 311              	.LFB270:
 312              		.loc 5 82 0
 313              		.cfi_startproc
 314              		@ args = 0, pretend = 0, frame = 8
 315              		@ frame_needed = 0, uses_anonymous_args = 0
 316 0000 00B5     		push	{lr}
 317              		.cfi_def_cfa_offset 4
 318              		.cfi_offset 14, -4
 319 0002 83B0     		sub	sp, sp, #12
 320              		.cfi_def_cfa_offset 16
 321 0004 0190     		str	r0, [sp, #4]
 322 0006 0091     		str	r1, [sp]
 323              		.loc 5 84 0
 324 0008 019B     		ldr	r3, [sp, #4]
 325 000a 002B     		cmp	r3, #0
 326 000c 02D0     		beq	.L13
 327              		.loc 5 84 0 is_stmt 0 discriminator 3
 328 000e 009B     		ldr	r3, [sp]
 329 0010 002B     		cmp	r3, #0
 330 0012 02D1     		bne	.L14
 331              	.L13:
 332              		.loc 5 84 0 discriminator 4
 333 0014 0F48     		ldr	r0, .L16
 334 0016 FFF7FEFF 		bl	chSysHalt
 335              	.L14:
 336              		.loc 5 86 0 is_stmt 1
 337 001a FFF7FEFF 		bl	osalSysLock
 338              		.loc 5 87 0
 339 001e 019B     		ldr	r3, [sp, #4]
 340 0020 1B78     		ldrb	r3, [r3]	@ zero_extendqisi2
 341 0022 012B     		cmp	r3, #1
 342 0024 06D0     		beq	.L15
ARM GAS  /tmp/ccfazuZ2.s 			page 7


 343              		.loc 5 87 0 is_stmt 0 discriminator 2
 344 0026 019B     		ldr	r3, [sp, #4]
 345 0028 1B78     		ldrb	r3, [r3]	@ zero_extendqisi2
 346 002a 022B     		cmp	r3, #2
 347 002c 02D0     		beq	.L15
 348              		.loc 5 87 0 discriminator 3
 349 002e 0948     		ldr	r0, .L16
 350 0030 FFF7FEFF 		bl	chSysHalt
 351              	.L15:
 352              		.loc 5 89 0 is_stmt 1
 353 0034 019B     		ldr	r3, [sp, #4]
 354 0036 009A     		ldr	r2, [sp]
 355 0038 5A60     		str	r2, [r3, #4]
 356              		.loc 5 90 0
 357 003a 0198     		ldr	r0, [sp, #4]
 358 003c FFF7FEFF 		bl	gpt_lld_start
 359              		.loc 5 91 0
 360 0040 019B     		ldr	r3, [sp, #4]
 361 0042 0222     		movs	r2, #2
 362 0044 1A70     		strb	r2, [r3]
 363              		.loc 5 92 0
 364 0046 FFF7FEFF 		bl	osalSysUnlock
 365              		.loc 5 93 0
 366 004a 00BF     		nop
 367 004c 03B0     		add	sp, sp, #12
 368              		.cfi_def_cfa_offset 4
 369              		@ sp needed
 370 004e 5DF804FB 		ldr	pc, [sp], #4
 371              	.L17:
 372 0052 00BF     		.align	2
 373              	.L16:
 374 0054 00000000 		.word	__func__.9034
 375              		.cfi_endproc
 376              	.LFE270:
 377              		.size	gptStart, .-gptStart
 378              		.section	.text.gptStop,"ax",%progbits
 379              		.align	1
 380              		.p2align 4,,15
 381              		.global	gptStop
 382              		.syntax unified
 383              		.thumb
 384              		.thumb_func
 385              		.fpu fpv4-sp-d16
 386              		.type	gptStop, %function
 387              	gptStop:
 388              	.LFB271:
 389              		.loc 5 102 0
 390              		.cfi_startproc
 391              		@ args = 0, pretend = 0, frame = 8
 392              		@ frame_needed = 0, uses_anonymous_args = 0
 393 0000 00B5     		push	{lr}
 394              		.cfi_def_cfa_offset 4
 395              		.cfi_offset 14, -4
 396 0002 83B0     		sub	sp, sp, #12
 397              		.cfi_def_cfa_offset 16
 398 0004 0190     		str	r0, [sp, #4]
 399              		.loc 5 104 0
ARM GAS  /tmp/ccfazuZ2.s 			page 8


 400 0006 019B     		ldr	r3, [sp, #4]
 401 0008 002B     		cmp	r3, #0
 402 000a 02D1     		bne	.L19
 403              		.loc 5 104 0 is_stmt 0 discriminator 2
 404 000c 0D48     		ldr	r0, .L21
 405 000e FFF7FEFF 		bl	chSysHalt
 406              	.L19:
 407              		.loc 5 106 0 is_stmt 1
 408 0012 FFF7FEFF 		bl	osalSysLock
 409              		.loc 5 107 0
 410 0016 019B     		ldr	r3, [sp, #4]
 411 0018 1B78     		ldrb	r3, [r3]	@ zero_extendqisi2
 412 001a 012B     		cmp	r3, #1
 413 001c 06D0     		beq	.L20
 414              		.loc 5 107 0 is_stmt 0 discriminator 2
 415 001e 019B     		ldr	r3, [sp, #4]
 416 0020 1B78     		ldrb	r3, [r3]	@ zero_extendqisi2
 417 0022 022B     		cmp	r3, #2
 418 0024 02D0     		beq	.L20
 419              		.loc 5 107 0 discriminator 3
 420 0026 0748     		ldr	r0, .L21
 421 0028 FFF7FEFF 		bl	chSysHalt
 422              	.L20:
 423              		.loc 5 109 0 is_stmt 1
 424 002c 0198     		ldr	r0, [sp, #4]
 425 002e FFF7FEFF 		bl	gpt_lld_stop
 426              		.loc 5 110 0
 427 0032 019B     		ldr	r3, [sp, #4]
 428 0034 0122     		movs	r2, #1
 429 0036 1A70     		strb	r2, [r3]
 430              		.loc 5 111 0
 431 0038 FFF7FEFF 		bl	osalSysUnlock
 432              		.loc 5 112 0
 433 003c 00BF     		nop
 434 003e 03B0     		add	sp, sp, #12
 435              		.cfi_def_cfa_offset 4
 436              		@ sp needed
 437 0040 5DF804FB 		ldr	pc, [sp], #4
 438              	.L22:
 439              		.align	2
 440              	.L21:
 441 0044 00000000 		.word	__func__.9038
 442              		.cfi_endproc
 443              	.LFE271:
 444              		.size	gptStop, .-gptStop
 445              		.section	.text.gptChangeInterval,"ax",%progbits
 446              		.align	1
 447              		.p2align 4,,15
 448              		.global	gptChangeInterval
 449              		.syntax unified
 450              		.thumb
 451              		.thumb_func
 452              		.fpu fpv4-sp-d16
 453              		.type	gptChangeInterval, %function
 454              	gptChangeInterval:
 455              	.LFB272:
 456              		.loc 5 125 0
ARM GAS  /tmp/ccfazuZ2.s 			page 9


 457              		.cfi_startproc
 458              		@ args = 0, pretend = 0, frame = 8
 459              		@ frame_needed = 0, uses_anonymous_args = 0
 460 0000 00B5     		push	{lr}
 461              		.cfi_def_cfa_offset 4
 462              		.cfi_offset 14, -4
 463 0002 83B0     		sub	sp, sp, #12
 464              		.cfi_def_cfa_offset 16
 465 0004 0190     		str	r0, [sp, #4]
 466 0006 0091     		str	r1, [sp]
 467              		.loc 5 127 0
 468 0008 019B     		ldr	r3, [sp, #4]
 469 000a 002B     		cmp	r3, #0
 470 000c 02D1     		bne	.L24
 471              		.loc 5 127 0 is_stmt 0 discriminator 2
 472 000e 0B48     		ldr	r0, .L26
 473 0010 FFF7FEFF 		bl	chSysHalt
 474              	.L24:
 475              		.loc 5 129 0 is_stmt 1
 476 0014 FFF7FEFF 		bl	osalSysLock
 477              		.loc 5 130 0
 478 0018 019B     		ldr	r3, [sp, #4]
 479 001a 1B78     		ldrb	r3, [r3]	@ zero_extendqisi2
 480 001c 032B     		cmp	r3, #3
 481 001e 02D0     		beq	.L25
 482              		.loc 5 130 0 is_stmt 0 discriminator 2
 483 0020 0648     		ldr	r0, .L26
 484 0022 FFF7FEFF 		bl	chSysHalt
 485              	.L25:
 486              		.loc 5 132 0 is_stmt 1
 487 0026 019B     		ldr	r3, [sp, #4]
 488 0028 DB68     		ldr	r3, [r3, #12]
 489 002a 009A     		ldr	r2, [sp]
 490 002c 013A     		subs	r2, r2, #1
 491 002e DA62     		str	r2, [r3, #44]
 492              		.loc 5 133 0
 493 0030 FFF7FEFF 		bl	osalSysUnlock
 494              		.loc 5 134 0
 495 0034 00BF     		nop
 496 0036 03B0     		add	sp, sp, #12
 497              		.cfi_def_cfa_offset 4
 498              		@ sp needed
 499 0038 5DF804FB 		ldr	pc, [sp], #4
 500              	.L27:
 501              		.align	2
 502              	.L26:
 503 003c 00000000 		.word	__func__.9043
 504              		.cfi_endproc
 505              	.LFE272:
 506              		.size	gptChangeInterval, .-gptChangeInterval
 507              		.section	.text.gptStartContinuous,"ax",%progbits
 508              		.align	1
 509              		.p2align 4,,15
 510              		.global	gptStartContinuous
 511              		.syntax unified
 512              		.thumb
 513              		.thumb_func
ARM GAS  /tmp/ccfazuZ2.s 			page 10


 514              		.fpu fpv4-sp-d16
 515              		.type	gptStartContinuous, %function
 516              	gptStartContinuous:
 517              	.LFB273:
 518              		.loc 5 144 0
 519              		.cfi_startproc
 520              		@ args = 0, pretend = 0, frame = 8
 521              		@ frame_needed = 0, uses_anonymous_args = 0
 522 0000 00B5     		push	{lr}
 523              		.cfi_def_cfa_offset 4
 524              		.cfi_offset 14, -4
 525 0002 83B0     		sub	sp, sp, #12
 526              		.cfi_def_cfa_offset 16
 527 0004 0190     		str	r0, [sp, #4]
 528 0006 0091     		str	r1, [sp]
 529              		.loc 5 146 0
 530 0008 FFF7FEFF 		bl	osalSysLock
 531              		.loc 5 147 0
 532 000c 0099     		ldr	r1, [sp]
 533 000e 0198     		ldr	r0, [sp, #4]
 534 0010 FFF7FEFF 		bl	gptStartContinuousI
 535              		.loc 5 148 0
 536 0014 FFF7FEFF 		bl	osalSysUnlock
 537              		.loc 5 149 0
 538 0018 00BF     		nop
 539 001a 03B0     		add	sp, sp, #12
 540              		.cfi_def_cfa_offset 4
 541              		@ sp needed
 542 001c 5DF804FB 		ldr	pc, [sp], #4
 543              		.cfi_endproc
 544              	.LFE273:
 545              		.size	gptStartContinuous, .-gptStartContinuous
 546              		.section	.text.gptStartContinuousI,"ax",%progbits
 547              		.align	1
 548              		.p2align 4,,15
 549              		.global	gptStartContinuousI
 550              		.syntax unified
 551              		.thumb
 552              		.thumb_func
 553              		.fpu fpv4-sp-d16
 554              		.type	gptStartContinuousI, %function
 555              	gptStartContinuousI:
 556              	.LFB274:
 557              		.loc 5 159 0
 558              		.cfi_startproc
 559              		@ args = 0, pretend = 0, frame = 8
 560              		@ frame_needed = 0, uses_anonymous_args = 0
 561 0000 00B5     		push	{lr}
 562              		.cfi_def_cfa_offset 4
 563              		.cfi_offset 14, -4
 564 0002 83B0     		sub	sp, sp, #12
 565              		.cfi_def_cfa_offset 16
 566 0004 0190     		str	r0, [sp, #4]
 567 0006 0091     		str	r1, [sp]
 568              		.loc 5 161 0
 569 0008 FFF7FEFF 		bl	chDbgCheckClassI
 570              		.loc 5 162 0
ARM GAS  /tmp/ccfazuZ2.s 			page 11


 571 000c 019B     		ldr	r3, [sp, #4]
 572 000e 002B     		cmp	r3, #0
 573 0010 02D1     		bne	.L32
 574              		.loc 5 162 0 is_stmt 0 discriminator 2
 575 0012 0A48     		ldr	r0, .L33
 576 0014 FFF7FEFF 		bl	chSysHalt
 577              	.L32:
 578              		.loc 5 163 0 is_stmt 1 discriminator 1
 579 0018 019B     		ldr	r3, [sp, #4]
 580 001a 1B78     		ldrb	r3, [r3]	@ zero_extendqisi2
 581 001c 022B     		cmp	r3, #2
 582 001e 02D0     		beq	.L31
 583              		.loc 5 163 0 is_stmt 0 discriminator 2
 584 0020 0648     		ldr	r0, .L33
 585 0022 FFF7FEFF 		bl	chSysHalt
 586              	.L31:
 587              		.loc 5 166 0 is_stmt 1
 588 0026 019B     		ldr	r3, [sp, #4]
 589 0028 0322     		movs	r2, #3
 590 002a 1A70     		strb	r2, [r3]
 591              		.loc 5 167 0
 592 002c 0099     		ldr	r1, [sp]
 593 002e 0198     		ldr	r0, [sp, #4]
 594 0030 FFF7FEFF 		bl	gpt_lld_start_timer
 595              		.loc 5 168 0
 596 0034 00BF     		nop
 597 0036 03B0     		add	sp, sp, #12
 598              		.cfi_def_cfa_offset 4
 599              		@ sp needed
 600 0038 5DF804FB 		ldr	pc, [sp], #4
 601              	.L34:
 602              		.align	2
 603              	.L33:
 604 003c 00000000 		.word	__func__.9052
 605              		.cfi_endproc
 606              	.LFE274:
 607              		.size	gptStartContinuousI, .-gptStartContinuousI
 608              		.section	.text.gptStartOneShot,"ax",%progbits
 609              		.align	1
 610              		.p2align 4,,15
 611              		.global	gptStartOneShot
 612              		.syntax unified
 613              		.thumb
 614              		.thumb_func
 615              		.fpu fpv4-sp-d16
 616              		.type	gptStartOneShot, %function
 617              	gptStartOneShot:
 618              	.LFB275:
 619              		.loc 5 178 0
 620              		.cfi_startproc
 621              		@ args = 0, pretend = 0, frame = 8
 622              		@ frame_needed = 0, uses_anonymous_args = 0
 623 0000 00B5     		push	{lr}
 624              		.cfi_def_cfa_offset 4
 625              		.cfi_offset 14, -4
 626 0002 83B0     		sub	sp, sp, #12
 627              		.cfi_def_cfa_offset 16
ARM GAS  /tmp/ccfazuZ2.s 			page 12


 628 0004 0190     		str	r0, [sp, #4]
 629 0006 0091     		str	r1, [sp]
 630              		.loc 5 180 0
 631 0008 FFF7FEFF 		bl	osalSysLock
 632              		.loc 5 181 0
 633 000c 0099     		ldr	r1, [sp]
 634 000e 0198     		ldr	r0, [sp, #4]
 635 0010 FFF7FEFF 		bl	gptStartOneShotI
 636              		.loc 5 182 0
 637 0014 FFF7FEFF 		bl	osalSysUnlock
 638              		.loc 5 183 0
 639 0018 00BF     		nop
 640 001a 03B0     		add	sp, sp, #12
 641              		.cfi_def_cfa_offset 4
 642              		@ sp needed
 643 001c 5DF804FB 		ldr	pc, [sp], #4
 644              		.cfi_endproc
 645              	.LFE275:
 646              		.size	gptStartOneShot, .-gptStartOneShot
 647              		.section	.text.gptStartOneShotI,"ax",%progbits
 648              		.align	1
 649              		.p2align 4,,15
 650              		.global	gptStartOneShotI
 651              		.syntax unified
 652              		.thumb
 653              		.thumb_func
 654              		.fpu fpv4-sp-d16
 655              		.type	gptStartOneShotI, %function
 656              	gptStartOneShotI:
 657              	.LFB276:
 658              		.loc 5 193 0
 659              		.cfi_startproc
 660              		@ args = 0, pretend = 0, frame = 8
 661              		@ frame_needed = 0, uses_anonymous_args = 0
 662 0000 00B5     		push	{lr}
 663              		.cfi_def_cfa_offset 4
 664              		.cfi_offset 14, -4
 665 0002 83B0     		sub	sp, sp, #12
 666              		.cfi_def_cfa_offset 16
 667 0004 0190     		str	r0, [sp, #4]
 668 0006 0091     		str	r1, [sp]
 669              		.loc 5 195 0
 670 0008 FFF7FEFF 		bl	chDbgCheckClassI
 671              		.loc 5 196 0
 672 000c 019B     		ldr	r3, [sp, #4]
 673 000e 002B     		cmp	r3, #0
 674 0010 02D1     		bne	.L40
 675              		.loc 5 196 0 is_stmt 0 discriminator 2
 676 0012 0E48     		ldr	r0, .L42
 677 0014 FFF7FEFF 		bl	chSysHalt
 678              	.L40:
 679              		.loc 5 197 0 is_stmt 1 discriminator 1
 680 0018 019B     		ldr	r3, [sp, #4]
 681 001a 5B68     		ldr	r3, [r3, #4]
 682 001c 5B68     		ldr	r3, [r3, #4]
 683 001e 002B     		cmp	r3, #0
 684 0020 02D1     		bne	.L41
ARM GAS  /tmp/ccfazuZ2.s 			page 13


 685              		.loc 5 197 0 is_stmt 0 discriminator 2
 686 0022 0A48     		ldr	r0, .L42
 687 0024 FFF7FEFF 		bl	chSysHalt
 688              	.L41:
 689              		.loc 5 198 0 is_stmt 1 discriminator 1
 690 0028 019B     		ldr	r3, [sp, #4]
 691 002a 1B78     		ldrb	r3, [r3]	@ zero_extendqisi2
 692 002c 022B     		cmp	r3, #2
 693 002e 02D0     		beq	.L39
 694              		.loc 5 198 0 is_stmt 0 discriminator 2
 695 0030 0648     		ldr	r0, .L42
 696 0032 FFF7FEFF 		bl	chSysHalt
 697              	.L39:
 698              		.loc 5 201 0 is_stmt 1
 699 0036 019B     		ldr	r3, [sp, #4]
 700 0038 0422     		movs	r2, #4
 701 003a 1A70     		strb	r2, [r3]
 702              		.loc 5 202 0
 703 003c 0099     		ldr	r1, [sp]
 704 003e 0198     		ldr	r0, [sp, #4]
 705 0040 FFF7FEFF 		bl	gpt_lld_start_timer
 706              		.loc 5 203 0
 707 0044 00BF     		nop
 708 0046 03B0     		add	sp, sp, #12
 709              		.cfi_def_cfa_offset 4
 710              		@ sp needed
 711 0048 5DF804FB 		ldr	pc, [sp], #4
 712              	.L43:
 713              		.align	2
 714              	.L42:
 715 004c 00000000 		.word	__func__.9061
 716              		.cfi_endproc
 717              	.LFE276:
 718              		.size	gptStartOneShotI, .-gptStartOneShotI
 719              		.section	.text.gptStopTimer,"ax",%progbits
 720              		.align	1
 721              		.p2align 4,,15
 722              		.global	gptStopTimer
 723              		.syntax unified
 724              		.thumb
 725              		.thumb_func
 726              		.fpu fpv4-sp-d16
 727              		.type	gptStopTimer, %function
 728              	gptStopTimer:
 729              	.LFB277:
 730              		.loc 5 212 0
 731              		.cfi_startproc
 732              		@ args = 0, pretend = 0, frame = 8
 733              		@ frame_needed = 0, uses_anonymous_args = 0
 734 0000 00B5     		push	{lr}
 735              		.cfi_def_cfa_offset 4
 736              		.cfi_offset 14, -4
 737 0002 83B0     		sub	sp, sp, #12
 738              		.cfi_def_cfa_offset 16
 739 0004 0190     		str	r0, [sp, #4]
 740              		.loc 5 214 0
 741 0006 FFF7FEFF 		bl	osalSysLock
ARM GAS  /tmp/ccfazuZ2.s 			page 14


 742              		.loc 5 215 0
 743 000a 0198     		ldr	r0, [sp, #4]
 744 000c FFF7FEFF 		bl	gptStopTimerI
 745              		.loc 5 216 0
 746 0010 FFF7FEFF 		bl	osalSysUnlock
 747              		.loc 5 217 0
 748 0014 00BF     		nop
 749 0016 03B0     		add	sp, sp, #12
 750              		.cfi_def_cfa_offset 4
 751              		@ sp needed
 752 0018 5DF804FB 		ldr	pc, [sp], #4
 753              		.cfi_endproc
 754              	.LFE277:
 755              		.size	gptStopTimer, .-gptStopTimer
 756              		.section	.text.gptStopTimerI,"ax",%progbits
 757              		.align	1
 758              		.p2align 4,,15
 759              		.global	gptStopTimerI
 760              		.syntax unified
 761              		.thumb
 762              		.thumb_func
 763              		.fpu fpv4-sp-d16
 764              		.type	gptStopTimerI, %function
 765              	gptStopTimerI:
 766              	.LFB278:
 767              		.loc 5 226 0
 768              		.cfi_startproc
 769              		@ args = 0, pretend = 0, frame = 8
 770              		@ frame_needed = 0, uses_anonymous_args = 0
 771 0000 00B5     		push	{lr}
 772              		.cfi_def_cfa_offset 4
 773              		.cfi_offset 14, -4
 774 0002 83B0     		sub	sp, sp, #12
 775              		.cfi_def_cfa_offset 16
 776 0004 0190     		str	r0, [sp, #4]
 777              		.loc 5 228 0
 778 0006 FFF7FEFF 		bl	chDbgCheckClassI
 779              		.loc 5 229 0
 780 000a 019B     		ldr	r3, [sp, #4]
 781 000c 002B     		cmp	r3, #0
 782 000e 02D1     		bne	.L48
 783              		.loc 5 229 0 is_stmt 0 discriminator 2
 784 0010 0D48     		ldr	r0, .L49
 785 0012 FFF7FEFF 		bl	chSysHalt
 786              	.L48:
 787              		.loc 5 230 0 is_stmt 1 discriminator 1
 788 0016 019B     		ldr	r3, [sp, #4]
 789 0018 1B78     		ldrb	r3, [r3]	@ zero_extendqisi2
 790 001a 022B     		cmp	r3, #2
 791 001c 0AD0     		beq	.L47
 792              		.loc 5 230 0 is_stmt 0 discriminator 2
 793 001e 019B     		ldr	r3, [sp, #4]
 794 0020 1B78     		ldrb	r3, [r3]	@ zero_extendqisi2
 795 0022 032B     		cmp	r3, #3
 796 0024 06D0     		beq	.L47
 797              		.loc 5 230 0 discriminator 3
 798 0026 019B     		ldr	r3, [sp, #4]
ARM GAS  /tmp/ccfazuZ2.s 			page 15


 799 0028 1B78     		ldrb	r3, [r3]	@ zero_extendqisi2
 800 002a 042B     		cmp	r3, #4
 801 002c 02D0     		beq	.L47
 802              		.loc 5 230 0 discriminator 4
 803 002e 0648     		ldr	r0, .L49
 804 0030 FFF7FEFF 		bl	chSysHalt
 805              	.L47:
 806              		.loc 5 234 0 is_stmt 1
 807 0034 019B     		ldr	r3, [sp, #4]
 808 0036 0222     		movs	r2, #2
 809 0038 1A70     		strb	r2, [r3]
 810              		.loc 5 235 0
 811 003a 0198     		ldr	r0, [sp, #4]
 812 003c FFF7FEFF 		bl	gpt_lld_stop_timer
 813              		.loc 5 236 0
 814 0040 00BF     		nop
 815 0042 03B0     		add	sp, sp, #12
 816              		.cfi_def_cfa_offset 4
 817              		@ sp needed
 818 0044 5DF804FB 		ldr	pc, [sp], #4
 819              	.L50:
 820              		.align	2
 821              	.L49:
 822 0048 00000000 		.word	__func__.9068
 823              		.cfi_endproc
 824              	.LFE278:
 825              		.size	gptStopTimerI, .-gptStopTimerI
 826              		.section	.text.gptPolledDelay,"ax",%progbits
 827              		.align	1
 828              		.p2align 4,,15
 829              		.global	gptPolledDelay
 830              		.syntax unified
 831              		.thumb
 832              		.thumb_func
 833              		.fpu fpv4-sp-d16
 834              		.type	gptPolledDelay, %function
 835              	gptPolledDelay:
 836              	.LFB279:
 837              		.loc 5 250 0
 838              		.cfi_startproc
 839              		@ args = 0, pretend = 0, frame = 8
 840              		@ frame_needed = 0, uses_anonymous_args = 0
 841 0000 00B5     		push	{lr}
 842              		.cfi_def_cfa_offset 4
 843              		.cfi_offset 14, -4
 844 0002 83B0     		sub	sp, sp, #12
 845              		.cfi_def_cfa_offset 16
 846 0004 0190     		str	r0, [sp, #4]
 847 0006 0091     		str	r1, [sp]
 848              		.loc 5 252 0
 849 0008 019B     		ldr	r3, [sp, #4]
 850 000a 1B78     		ldrb	r3, [r3]	@ zero_extendqisi2
 851 000c 022B     		cmp	r3, #2
 852 000e 02D0     		beq	.L52
 853              		.loc 5 252 0 is_stmt 0 discriminator 2
 854 0010 0848     		ldr	r0, .L53
 855 0012 FFF7FEFF 		bl	chSysHalt
ARM GAS  /tmp/ccfazuZ2.s 			page 16


 856              	.L52:
 857              		.loc 5 255 0 is_stmt 1
 858 0016 019B     		ldr	r3, [sp, #4]
 859 0018 0422     		movs	r2, #4
 860 001a 1A70     		strb	r2, [r3]
 861              		.loc 5 256 0
 862 001c 0099     		ldr	r1, [sp]
 863 001e 0198     		ldr	r0, [sp, #4]
 864 0020 FFF7FEFF 		bl	gpt_lld_polled_delay
 865              		.loc 5 257 0
 866 0024 019B     		ldr	r3, [sp, #4]
 867 0026 0222     		movs	r2, #2
 868 0028 1A70     		strb	r2, [r3]
 869              		.loc 5 258 0
 870 002a 00BF     		nop
 871 002c 03B0     		add	sp, sp, #12
 872              		.cfi_def_cfa_offset 4
 873              		@ sp needed
 874 002e 5DF804FB 		ldr	pc, [sp], #4
 875              	.L54:
 876 0032 00BF     		.align	2
 877              	.L53:
 878 0034 00000000 		.word	__func__.9073
 879              		.cfi_endproc
 880              	.LFE279:
 881              		.size	gptPolledDelay, .-gptPolledDelay
 882              		.section	.rodata.__func__.9034,"a",%progbits
 883              		.align	2
 884              		.type	__func__.9034, %object
 885              		.size	__func__.9034, 9
 886              	__func__.9034:
 887 0000 67707453 		.ascii	"gptStart\000"
 887      74617274 
 887      00
 888              		.section	.rodata.__func__.7157,"a",%progbits
 889              		.align	2
 890              		.type	__func__.7157, %object
 891              		.size	__func__.7157, 12
 892              	__func__.7157:
 893 0000 63685379 		.ascii	"chSysUnlock\000"
 893      73556E6C 
 893      6F636B00 
 894              		.section	.rodata.__func__.9038,"a",%progbits
 895              		.align	2
 896              		.type	__func__.9038, %object
 897              		.size	__func__.9038, 8
 898              	__func__.9038:
 899 0000 67707453 		.ascii	"gptStop\000"
 899      746F7000 
 900              		.section	.rodata.__func__.9043,"a",%progbits
 901              		.align	2
 902              		.type	__func__.9043, %object
 903              		.size	__func__.9043, 18
 904              	__func__.9043:
 905 0000 67707443 		.ascii	"gptChangeInterval\000"
 905      68616E67 
 905      65496E74 
ARM GAS  /tmp/ccfazuZ2.s 			page 17


 905      65727661 
 905      6C00
 906              		.section	.rodata.__func__.9052,"a",%progbits
 907              		.align	2
 908              		.type	__func__.9052, %object
 909              		.size	__func__.9052, 20
 910              	__func__.9052:
 911 0000 67707453 		.ascii	"gptStartContinuousI\000"
 911      74617274 
 911      436F6E74 
 911      696E756F 
 911      75734900 
 912              		.section	.rodata.__func__.9061,"a",%progbits
 913              		.align	2
 914              		.type	__func__.9061, %object
 915              		.size	__func__.9061, 17
 916              	__func__.9061:
 917 0000 67707453 		.ascii	"gptStartOneShotI\000"
 917      74617274 
 917      4F6E6553 
 917      686F7449 
 917      00
 918              		.section	.rodata.__func__.9068,"a",%progbits
 919              		.align	2
 920              		.type	__func__.9068, %object
 921              		.size	__func__.9068, 14
 922              	__func__.9068:
 923 0000 67707453 		.ascii	"gptStopTimerI\000"
 923      746F7054 
 923      696D6572 
 923      4900
 924              		.section	.rodata.__func__.9073,"a",%progbits
 925              		.align	2
 926              		.type	__func__.9073, %object
 927              		.size	__func__.9073, 15
 928              	__func__.9073:
 929 0000 67707450 		.ascii	"gptPolledDelay\000"
 929      6F6C6C65 
 929      6444656C 
 929      617900
 930              		.text
 931              	.Letext0:
 932              		.file 6 "/usr/lib/gcc/arm-none-eabi/6.3.1/include/stddef.h"
 933              		.file 7 "/usr/arm-none-eabi/include/machine/_default_types.h"
 934              		.file 8 "/usr/arm-none-eabi/include/sys/_stdint.h"
 935              		.file 9 "../ChibiOS/os/rt/ports/ARMCMx/compilers/GCC/chtypes.h"
 936              		.file 10 "../ChibiOS/os/rt/include/chsystypes.h"
 937              		.file 11 "../ChibiOS/os/rt/include/chschd.h"
 938              		.file 12 "../ChibiOS/os/ext/CMSIS/include/core_cm4.h"
 939              		.file 13 "../ChibiOS/os/ext/CMSIS/ST/STM32F4xx/system_stm32f4xx.h"
 940              		.file 14 "../ChibiOS/os/ext/CMSIS/ST/STM32F4xx/stm32f437xx.h"
 941              		.file 15 "../ChibiOS/os/rt/ports/ARMCMx/chcore.h"
 942              		.file 16 "../ChibiOS/os/rt/include/chtm.h"
 943              		.file 17 "../ChibiOS/os/rt/include/chstats.h"
 944              		.file 18 "../ChibiOS/os/rt/include/chsem.h"
 945              		.file 19 "../ChibiOS/os/rt/include/chmtx.h"
 946              		.file 20 "../ChibiOS/os/rt/include/chregistry.h"
ARM GAS  /tmp/ccfazuZ2.s 			page 18


 947              		.file 21 "../ChibiOS/os/rt/include/chevents.h"
 948              		.file 22 "../ChibiOS/os/rt/include/chqueues.h"
 949              		.file 23 "../ChibiOS/os/hal/ports/STM32/LLD/DMAv2/stm32_dma.h"
 950              		.file 24 "../ChibiOS/os/hal/ports/STM32/LLD/GPIOv2/pal_lld.h"
 951              		.file 25 "../ChibiOS/os/hal/include/ext.h"
 952              		.file 26 "../ChibiOS/os/hal/ports/STM32/LLD/EXTIv1/ext_lld.h"
 953              		.file 27 "../ChibiOS/os/hal/include/gpt.h"
 954              		.file 28 "../ChibiOS/os/hal/ports/STM32/LLD/TIMv1/gpt_lld.h"
 955              		.file 29 "../ChibiOS/os/hal/ports/STM32/LLD/TIMv1/stm32_tim.h"
 956              		.file 30 "../ChibiOS/os/hal/include/pwm.h"
 957              		.file 31 "../ChibiOS/os/hal/ports/STM32/LLD/TIMv1/pwm_lld.h"
 958              		.file 32 "../ChibiOS/os/hal/include/serial.h"
 959              		.file 33 "../ChibiOS/os/hal/ports/STM32/LLD/USARTv1/serial_lld.h"
 960              		.file 34 "../ChibiOS/os/hal/include/usb.h"
 961              		.file 35 "../ChibiOS/os/hal/ports/STM32/LLD/OTGv1/usb_lld.h"
 962              		.file 36 "../ChibiOS/os/hal/ports/STM32/LLD/OTGv1/stm32_otg.h"