ARM GAS  /tmp/cc8n5QuF.s 			page 1


   1              		.cpu cortex-m4
   2              		.eabi_attribute 27, 1
   3              		.eabi_attribute 28, 1
   4              		.eabi_attribute 20, 1
   5              		.eabi_attribute 21, 1
   6              		.eabi_attribute 23, 3
   7              		.eabi_attribute 24, 1
   8              		.eabi_attribute 25, 1
   9              		.eabi_attribute 26, 1
  10              		.eabi_attribute 30, 6
  11              		.eabi_attribute 34, 1
  12              		.eabi_attribute 18, 4
  13              		.file	"header.c"
  14              		.text
  15              	.Ltext0:
  16              		.cfi_sections	.debug_frame
  17              		.section	.text.port_lock,"ax",%progbits
  18              		.align	1
  19              		.p2align 4,,15
  20              		.syntax unified
  21              		.thumb
  22              		.thumb_func
  23              		.fpu fpv4-sp-d16
  24              		.type	port_lock, %function
  25              	port_lock:
  26              	.LFB127:
  27              		.file 1 "../ChibiOS/os/rt/ports/ARMCMx/chcore_v7m.h"
  28              		.loc 1 456 0
  29              		.cfi_startproc
  30              		@ args = 0, pretend = 0, frame = 8
  31              		@ frame_needed = 0, uses_anonymous_args = 0
  32              		@ link register save eliminated.
  33 0000 82B0     		sub	sp, sp, #8
  34              		.cfi_def_cfa_offset 8
  35 0002 2023     		movs	r3, #32
  36 0004 0193     		str	r3, [sp, #4]
  37              	.LBB6:
  38              	.LBB7:
  39              		.file 2 "../ChibiOS/os/ext/CMSIS/include/core_cmFunc.h"
  40              		.loc 2 548 0
  41 0006 019B     		ldr	r3, [sp, #4]
  42              		.syntax unified
  43              	@ 548 "../ChibiOS/os/ext/CMSIS/include/core_cmFunc.h" 1
  44 0008 83F31188 		MSR basepri, r3
  45              	@ 0 "" 2
  46              		.thumb
  47              		.syntax unified
  48              	.LBE7:
  49              	.LBE6:
  50              		.loc 1 473 0
  51 000c 00BF     		nop
  52 000e 02B0     		add	sp, sp, #8
  53              		.cfi_def_cfa_offset 0
  54              		@ sp needed
  55 0010 7047     		bx	lr
  56              		.cfi_endproc
  57              	.LFE127:
ARM GAS  /tmp/cc8n5QuF.s 			page 2


  58              		.size	port_lock, .-port_lock
  59 0012 00BF     		.section	.text.port_unlock,"ax",%progbits
  60              		.align	1
  61              		.p2align 4,,15
  62              		.syntax unified
  63              		.thumb
  64              		.thumb_func
  65              		.fpu fpv4-sp-d16
  66              		.type	port_unlock, %function
  67              	port_unlock:
  68              	.LFB128:
  69              		.loc 1 480 0
  70              		.cfi_startproc
  71              		@ args = 0, pretend = 0, frame = 8
  72              		@ frame_needed = 0, uses_anonymous_args = 0
  73              		@ link register save eliminated.
  74 0000 82B0     		sub	sp, sp, #8
  75              		.cfi_def_cfa_offset 8
  76 0002 0023     		movs	r3, #0
  77 0004 0193     		str	r3, [sp, #4]
  78              	.LBB8:
  79              	.LBB9:
  80              		.loc 2 548 0
  81 0006 019B     		ldr	r3, [sp, #4]
  82              		.syntax unified
  83              	@ 548 "../ChibiOS/os/ext/CMSIS/include/core_cmFunc.h" 1
  84 0008 83F31188 		MSR basepri, r3
  85              	@ 0 "" 2
  86              		.thumb
  87              		.syntax unified
  88              	.LBE9:
  89              	.LBE8:
  90              		.loc 1 487 0
  91 000c 00BF     		nop
  92 000e 02B0     		add	sp, sp, #8
  93              		.cfi_def_cfa_offset 0
  94              		@ sp needed
  95 0010 7047     		bx	lr
  96              		.cfi_endproc
  97              	.LFE128:
  98              		.size	port_unlock, .-port_unlock
  99 0012 00BF     		.section	.text.port_lock_from_isr,"ax",%progbits
 100              		.align	1
 101              		.p2align 4,,15
 102              		.syntax unified
 103              		.thumb
 104              		.thumb_func
 105              		.fpu fpv4-sp-d16
 106              		.type	port_lock_from_isr, %function
 107              	port_lock_from_isr:
 108              	.LFB129:
 109              		.loc 1 495 0
 110              		.cfi_startproc
 111              		@ args = 0, pretend = 0, frame = 0
 112              		@ frame_needed = 0, uses_anonymous_args = 0
 113 0000 08B5     		push	{r3, lr}
 114              		.cfi_def_cfa_offset 8
ARM GAS  /tmp/cc8n5QuF.s 			page 3


 115              		.cfi_offset 3, -8
 116              		.cfi_offset 14, -4
 117              		.loc 1 497 0
 118 0002 FFF7FEFF 		bl	port_lock
 119              		.loc 1 498 0
 120 0006 00BF     		nop
 121 0008 08BD     		pop	{r3, pc}
 122              		.cfi_endproc
 123              	.LFE129:
 124              		.size	port_lock_from_isr, .-port_lock_from_isr
 125              		.section	.text.port_unlock_from_isr,"ax",%progbits
 126              		.align	1
 127              		.p2align 4,,15
 128              		.syntax unified
 129              		.thumb
 130              		.thumb_func
 131              		.fpu fpv4-sp-d16
 132              		.type	port_unlock_from_isr, %function
 133              	port_unlock_from_isr:
 134              	.LFB130:
 135              		.loc 1 506 0
 136              		.cfi_startproc
 137              		@ args = 0, pretend = 0, frame = 0
 138              		@ frame_needed = 0, uses_anonymous_args = 0
 139 0000 08B5     		push	{r3, lr}
 140              		.cfi_def_cfa_offset 8
 141              		.cfi_offset 3, -8
 142              		.cfi_offset 14, -4
 143              		.loc 1 508 0
 144 0002 FFF7FEFF 		bl	port_unlock
 145              		.loc 1 509 0
 146 0006 00BF     		nop
 147 0008 08BD     		pop	{r3, pc}
 148              		.cfi_endproc
 149              	.LFE130:
 150              		.size	port_unlock_from_isr, .-port_unlock_from_isr
 151              		.section	.text.chSysLock,"ax",%progbits
 152              		.align	1
 153              		.p2align 4,,15
 154              		.syntax unified
 155              		.thumb
 156              		.thumb_func
 157              		.fpu fpv4-sp-d16
 158              		.type	chSysLock, %function
 159              	chSysLock:
 160              	.LFB156:
 161              		.file 3 "../ChibiOS/os/rt/include/chsys.h"
 162              		.loc 3 346 0
 163              		.cfi_startproc
 164              		@ args = 0, pretend = 0, frame = 0
 165              		@ frame_needed = 0, uses_anonymous_args = 0
 166 0000 08B5     		push	{r3, lr}
 167              		.cfi_def_cfa_offset 8
 168              		.cfi_offset 3, -8
 169              		.cfi_offset 14, -4
 170              		.loc 3 348 0
 171 0002 FFF7FEFF 		bl	port_lock
ARM GAS  /tmp/cc8n5QuF.s 			page 4


 172              		.loc 3 349 0
 173 0006 FFF7FEFF 		bl	_stats_start_measure_crit_thd
 174              		.loc 3 350 0
 175 000a FFF7FEFF 		bl	_dbg_check_lock
 176              		.loc 3 351 0
 177 000e 00BF     		nop
 178 0010 08BD     		pop	{r3, pc}
 179              		.cfi_endproc
 180              	.LFE156:
 181              		.size	chSysLock, .-chSysLock
 182 0012 00BF     		.section	.text.chSysUnlock,"ax",%progbits
 183              		.align	1
 184              		.p2align 4,,15
 185              		.syntax unified
 186              		.thumb
 187              		.thumb_func
 188              		.fpu fpv4-sp-d16
 189              		.type	chSysUnlock, %function
 190              	chSysUnlock:
 191              	.LFB157:
 192              		.loc 3 358 0
 193              		.cfi_startproc
 194              		@ args = 0, pretend = 0, frame = 0
 195              		@ frame_needed = 0, uses_anonymous_args = 0
 196 0000 08B5     		push	{r3, lr}
 197              		.cfi_def_cfa_offset 8
 198              		.cfi_offset 3, -8
 199              		.cfi_offset 14, -4
 200              		.loc 3 360 0
 201 0002 FFF7FEFF 		bl	_dbg_check_unlock
 202              		.loc 3 361 0
 203 0006 FFF7FEFF 		bl	_stats_stop_measure_crit_thd
 204              		.loc 3 367 0
 205 000a 0A4B     		ldr	r3, .L8
 206 000c 1B68     		ldr	r3, [r3]
 207 000e 094A     		ldr	r2, .L8
 208 0010 9342     		cmp	r3, r2
 209 0012 0AD0     		beq	.L7
 210              		.loc 3 367 0 is_stmt 0 discriminator 2
 211 0014 074B     		ldr	r3, .L8
 212 0016 9B69     		ldr	r3, [r3, #24]
 213 0018 9A68     		ldr	r2, [r3, #8]
 214 001a 064B     		ldr	r3, .L8
 215 001c 1B68     		ldr	r3, [r3]
 216 001e 9B68     		ldr	r3, [r3, #8]
 217 0020 9A42     		cmp	r2, r3
 218 0022 02D2     		bcs	.L7
 219              		.loc 3 367 0 discriminator 3
 220 0024 0448     		ldr	r0, .L8+4
 221 0026 FFF7FEFF 		bl	chSysHalt
 222              	.L7:
 223              		.loc 3 371 0 is_stmt 1
 224 002a FFF7FEFF 		bl	port_unlock
 225              		.loc 3 372 0
 226 002e 00BF     		nop
 227 0030 08BD     		pop	{r3, pc}
 228              	.L9:
ARM GAS  /tmp/cc8n5QuF.s 			page 5


 229 0032 00BF     		.align	2
 230              	.L8:
 231 0034 00000000 		.word	ch
 232 0038 00000000 		.word	__func__.7157
 233              		.cfi_endproc
 234              	.LFE157:
 235              		.size	chSysUnlock, .-chSysUnlock
 236              		.section	.text.chSysLockFromISR,"ax",%progbits
 237              		.align	1
 238              		.p2align 4,,15
 239              		.syntax unified
 240              		.thumb
 241              		.thumb_func
 242              		.fpu fpv4-sp-d16
 243              		.type	chSysLockFromISR, %function
 244              	chSysLockFromISR:
 245              	.LFB158:
 246              		.loc 3 386 0
 247              		.cfi_startproc
 248              		@ args = 0, pretend = 0, frame = 0
 249              		@ frame_needed = 0, uses_anonymous_args = 0
 250 0000 08B5     		push	{r3, lr}
 251              		.cfi_def_cfa_offset 8
 252              		.cfi_offset 3, -8
 253              		.cfi_offset 14, -4
 254              		.loc 3 388 0
 255 0002 FFF7FEFF 		bl	port_lock_from_isr
 256              		.loc 3 389 0
 257 0006 FFF7FEFF 		bl	_stats_start_measure_crit_isr
 258              		.loc 3 390 0
 259 000a FFF7FEFF 		bl	_dbg_check_lock_from_isr
 260              		.loc 3 391 0
 261 000e 00BF     		nop
 262 0010 08BD     		pop	{r3, pc}
 263              		.cfi_endproc
 264              	.LFE158:
 265              		.size	chSysLockFromISR, .-chSysLockFromISR
 266 0012 00BF     		.section	.text.chSysUnlockFromISR,"ax",%progbits
 267              		.align	1
 268              		.p2align 4,,15
 269              		.syntax unified
 270              		.thumb
 271              		.thumb_func
 272              		.fpu fpv4-sp-d16
 273              		.type	chSysUnlockFromISR, %function
 274              	chSysUnlockFromISR:
 275              	.LFB159:
 276              		.loc 3 406 0
 277              		.cfi_startproc
 278              		@ args = 0, pretend = 0, frame = 0
 279              		@ frame_needed = 0, uses_anonymous_args = 0
 280 0000 08B5     		push	{r3, lr}
 281              		.cfi_def_cfa_offset 8
 282              		.cfi_offset 3, -8
 283              		.cfi_offset 14, -4
 284              		.loc 3 408 0
 285 0002 FFF7FEFF 		bl	_dbg_check_unlock_from_isr
ARM GAS  /tmp/cc8n5QuF.s 			page 6


 286              		.loc 3 409 0
 287 0006 FFF7FEFF 		bl	_stats_stop_measure_crit_isr
 288              		.loc 3 410 0
 289 000a FFF7FEFF 		bl	port_unlock_from_isr
 290              		.loc 3 411 0
 291 000e 00BF     		nop
 292 0010 08BD     		pop	{r3, pc}
 293              		.cfi_endproc
 294              	.LFE159:
 295              		.size	chSysUnlockFromISR, .-chSysUnlockFromISR
 296 0012 00BF     		.section	.text.chVTGetSystemTimeX,"ax",%progbits
 297              		.align	1
 298              		.p2align 4,,15
 299              		.syntax unified
 300              		.thumb
 301              		.thumb_func
 302              		.fpu fpv4-sp-d16
 303              		.type	chVTGetSystemTimeX, %function
 304              	chVTGetSystemTimeX:
 305              	.LFB164:
 306              		.file 4 "../ChibiOS/os/rt/include/chvt.h"
 307              		.loc 4 228 0
 308              		.cfi_startproc
 309              		@ args = 0, pretend = 0, frame = 0
 310              		@ frame_needed = 0, uses_anonymous_args = 0
 311              		@ link register save eliminated.
 312              		.loc 4 231 0
 313 0000 014B     		ldr	r3, .L14
 314 0002 9B6A     		ldr	r3, [r3, #40]
 315              		.loc 4 235 0
 316 0004 1846     		mov	r0, r3
 317 0006 7047     		bx	lr
 318              	.L15:
 319              		.align	2
 320              	.L14:
 321 0008 00000000 		.word	ch
 322              		.cfi_endproc
 323              	.LFE164:
 324              		.size	chVTGetSystemTimeX, .-chVTGetSystemTimeX
 325              		.section	.text.chVTGetSystemTime,"ax",%progbits
 326              		.align	1
 327              		.p2align 4,,15
 328              		.syntax unified
 329              		.thumb
 330              		.thumb_func
 331              		.fpu fpv4-sp-d16
 332              		.type	chVTGetSystemTime, %function
 333              	chVTGetSystemTime:
 334              	.LFB165:
 335              		.loc 4 247 0
 336              		.cfi_startproc
 337              		@ args = 0, pretend = 0, frame = 8
 338              		@ frame_needed = 0, uses_anonymous_args = 0
 339 0000 00B5     		push	{lr}
 340              		.cfi_def_cfa_offset 4
 341              		.cfi_offset 14, -4
 342 0002 83B0     		sub	sp, sp, #12
ARM GAS  /tmp/cc8n5QuF.s 			page 7


 343              		.cfi_def_cfa_offset 16
 344              		.loc 4 250 0
 345 0004 FFF7FEFF 		bl	chSysLock
 346              		.loc 4 251 0
 347 0008 FFF7FEFF 		bl	chVTGetSystemTimeX
 348 000c 0190     		str	r0, [sp, #4]
 349              		.loc 4 252 0
 350 000e FFF7FEFF 		bl	chSysUnlock
 351              		.loc 4 254 0
 352 0012 019B     		ldr	r3, [sp, #4]
 353              		.loc 4 255 0
 354 0014 1846     		mov	r0, r3
 355 0016 03B0     		add	sp, sp, #12
 356              		.cfi_def_cfa_offset 4
 357              		@ sp needed
 358 0018 5DF804FB 		ldr	pc, [sp], #4
 359              		.cfi_endproc
 360              	.LFE165:
 361              		.size	chVTGetSystemTime, .-chVTGetSystemTime
 362              		.section	.text.chBSemWait,"ax",%progbits
 363              		.align	1
 364              		.p2align 4,,15
 365              		.syntax unified
 366              		.thumb
 367              		.thumb_func
 368              		.fpu fpv4-sp-d16
 369              		.type	chBSemWait, %function
 370              	chBSemWait:
 371              	.LFB194:
 372              		.file 5 "../ChibiOS/os/rt/include/chbsem.h"
 373              		.loc 5 141 0
 374              		.cfi_startproc
 375              		@ args = 0, pretend = 0, frame = 8
 376              		@ frame_needed = 0, uses_anonymous_args = 0
 377 0000 00B5     		push	{lr}
 378              		.cfi_def_cfa_offset 4
 379              		.cfi_offset 14, -4
 380 0002 83B0     		sub	sp, sp, #12
 381              		.cfi_def_cfa_offset 16
 382 0004 0190     		str	r0, [sp, #4]
 383              		.loc 5 143 0
 384 0006 019B     		ldr	r3, [sp, #4]
 385 0008 1846     		mov	r0, r3
 386 000a FFF7FEFF 		bl	chSemWait
 387 000e 0346     		mov	r3, r0
 388              		.loc 5 144 0
 389 0010 1846     		mov	r0, r3
 390 0012 03B0     		add	sp, sp, #12
 391              		.cfi_def_cfa_offset 4
 392              		@ sp needed
 393 0014 5DF804FB 		ldr	pc, [sp], #4
 394              		.cfi_endproc
 395              	.LFE194:
 396              		.size	chBSemWait, .-chBSemWait
 397              		.section	.text.chBSemSignalI,"ax",%progbits
 398              		.align	1
 399              		.p2align 4,,15
ARM GAS  /tmp/cc8n5QuF.s 			page 8


 400              		.syntax unified
 401              		.thumb
 402              		.thumb_func
 403              		.fpu fpv4-sp-d16
 404              		.type	chBSemSignalI, %function
 405              	chBSemSignalI:
 406              	.LFB200:
 407              		.loc 5 266 0
 408              		.cfi_startproc
 409              		@ args = 0, pretend = 0, frame = 8
 410              		@ frame_needed = 0, uses_anonymous_args = 0
 411 0000 00B5     		push	{lr}
 412              		.cfi_def_cfa_offset 4
 413              		.cfi_offset 14, -4
 414 0002 83B0     		sub	sp, sp, #12
 415              		.cfi_def_cfa_offset 16
 416 0004 0190     		str	r0, [sp, #4]
 417              		.loc 5 268 0
 418 0006 FFF7FEFF 		bl	chDbgCheckClassI
 419              		.loc 5 270 0
 420 000a 019B     		ldr	r3, [sp, #4]
 421 000c 9B68     		ldr	r3, [r3, #8]
 422 000e 002B     		cmp	r3, #0
 423 0010 03DC     		bgt	.L22
 424              		.loc 5 271 0
 425 0012 019B     		ldr	r3, [sp, #4]
 426 0014 1846     		mov	r0, r3
 427 0016 FFF7FEFF 		bl	chSemSignalI
 428              	.L22:
 429              		.loc 5 273 0
 430 001a 00BF     		nop
 431 001c 03B0     		add	sp, sp, #12
 432              		.cfi_def_cfa_offset 4
 433              		@ sp needed
 434 001e 5DF804FB 		ldr	pc, [sp], #4
 435              		.cfi_endproc
 436              	.LFE200:
 437              		.size	chBSemSignalI, .-chBSemSignalI
 438              		.global	clock_evt
 439 0022 00BF     		.section	.data.clock_evt,"aw",%progbits
 440              		.align	2
 441              		.type	clock_evt, %object
 442              		.size	clock_evt, 12
 443              	clock_evt:
 444 0000 00000000 		.word	clock_evt
 445 0004 00000000 		.word	clock_evt
 446 0008 00000000 		.word	0
 447              		.global	state_table
 448              		.section	.rodata.state_table,"a",%progbits
 449              		.align	2
 450              		.type	state_table, %object
 451              		.size	state_table, 20
 452              	state_table:
 453 0000 00000000 		.word	do_state_a
 454 0004 00000000 		.word	do_state_b
 455 0008 00000000 		.word	do_state_c
 456 000c 00000000 		.word	do_state_d
ARM GAS  /tmp/cc8n5QuF.s 			page 9


 457 0010 00000000 		.word	do_state_e
 458              		.section	.text.run_state,"ax",%progbits
 459              		.align	1
 460              		.p2align 4,,15
 461              		.global	run_state
 462              		.syntax unified
 463              		.thumb
 464              		.thumb_func
 465              		.fpu fpv4-sp-d16
 466              		.type	run_state, %function
 467              	run_state:
 468              	.LFB268:
 469              		.file 6 "header.c"
 470              		.loc 6 32 0
 471              		.cfi_startproc
 472              		@ args = 0, pretend = 0, frame = 8
 473              		@ frame_needed = 0, uses_anonymous_args = 0
 474 0000 00B5     		push	{lr}
 475              		.cfi_def_cfa_offset 4
 476              		.cfi_offset 14, -4
 477 0002 83B0     		sub	sp, sp, #12
 478              		.cfi_def_cfa_offset 16
 479 0004 0346     		mov	r3, r0
 480 0006 8DF80730 		strb	r3, [sp, #7]
 481              		.loc 6 33 0
 482 000a 9DF80730 		ldrb	r3, [sp, #7]	@ zero_extendqisi2
 483 000e 044A     		ldr	r2, .L25
 484 0010 52F82330 		ldr	r3, [r2, r3, lsl #2]
 485 0014 9847     		blx	r3
 486              	.LVL0:
 487 0016 0346     		mov	r3, r0
 488              		.loc 6 34 0
 489 0018 1846     		mov	r0, r3
 490 001a 03B0     		add	sp, sp, #12
 491              		.cfi_def_cfa_offset 4
 492              		@ sp needed
 493 001c 5DF804FB 		ldr	pc, [sp], #4
 494              	.L26:
 495              		.align	2
 496              	.L25:
 497 0020 00000000 		.word	state_table
 498              		.cfi_endproc
 499              	.LFE268:
 500              		.size	run_state, .-run_state
 501              		.global	counts
 502              		.section	.bss.counts,"aw",%nobits
 503              		.align	2
 504              		.type	counts, %object
 505              		.size	counts, 4
 506              	counts:
 507 0000 00000000 		.space	4
 508              		.global	cur_state
 509              		.section	.bss.cur_state,"aw",%nobits
 510              		.type	cur_state, %object
 511              		.size	cur_state, 1
 512              	cur_state:
 513 0000 00       		.space	1
ARM GAS  /tmp/cc8n5QuF.s 			page 10


 514              		.global	prevtime
 515              		.section	.bss.prevtime,"aw",%nobits
 516              		.align	2
 517              		.type	prevtime, %object
 518              		.size	prevtime, 4
 519              	prevtime:
 520 0000 00000000 		.space	4
 521              		.section	.text.tick_state,"ax",%progbits
 522              		.align	1
 523              		.p2align 4,,15
 524              		.global	tick_state
 525              		.syntax unified
 526              		.thumb
 527              		.thumb_func
 528              		.fpu fpv4-sp-d16
 529              		.type	tick_state, %function
 530              	tick_state:
 531              	.LFB269:
 532              		.loc 6 43 0
 533              		.cfi_startproc
 534              		@ args = 0, pretend = 0, frame = 8
 535              		@ frame_needed = 0, uses_anonymous_args = 0
 536 0000 00B5     		push	{lr}
 537              		.cfi_def_cfa_offset 4
 538              		.cfi_offset 14, -4
 539 0002 83B0     		sub	sp, sp, #12
 540              		.cfi_def_cfa_offset 16
 541 0004 0190     		str	r0, [sp, #4]
 542 0006 0091     		str	r1, [sp]
 543              		.loc 6 48 0
 544 0008 FFF7FEFF 		bl	chSysLockFromISR
 545              		.loc 6 49 0
 546 000c 0448     		ldr	r0, .L28
 547 000e FFF7FEFF 		bl	chBSemSignalI
 548              		.loc 6 50 0
 549 0012 FFF7FEFF 		bl	chSysUnlockFromISR
 550              		.loc 6 52 0
 551 0016 00BF     		nop
 552 0018 03B0     		add	sp, sp, #12
 553              		.cfi_def_cfa_offset 4
 554              		@ sp needed
 555 001a 5DF804FB 		ldr	pc, [sp], #4
 556              	.L29:
 557 001e 00BF     		.align	2
 558              	.L28:
 559 0020 00000000 		.word	clock_evt
 560              		.cfi_endproc
 561              	.LFE269:
 562              		.size	tick_state, .-tick_state
 563              		.section	.bss.waHEAD,"aw",%nobits
 564              		.align	3
 565              		.type	waHEAD, %object
 566              		.size	waHEAD, 4464
 567              	waHEAD:
 568 0000 00000000 		.space	4464
 568      00000000 
 568      00000000 
ARM GAS  /tmp/cc8n5QuF.s 			page 11


 568      00000000 
 568      00000000 
 569              		.section	.text.HEAD,"ax",%progbits
 570              		.align	1
 571              		.p2align 4,,15
 572              		.syntax unified
 573              		.thumb
 574              		.thumb_func
 575              		.fpu fpv4-sp-d16
 576              		.type	HEAD, %function
 577              	HEAD:
 578              	.LFB270:
 579              		.loc 6 57 0
 580              		.cfi_startproc
 581              		@ args = 0, pretend = 0, frame = 8
 582              		@ frame_needed = 0, uses_anonymous_args = 0
 583 0000 00B5     		push	{lr}
 584              		.cfi_def_cfa_offset 4
 585              		.cfi_offset 14, -4
 586 0002 83B0     		sub	sp, sp, #12
 587              		.cfi_def_cfa_offset 16
 588 0004 0190     		str	r0, [sp, #4]
 589              	.L32:
 590              		.loc 6 64 0
 591 0006 1248     		ldr	r0, .L33
 592 0008 FFF7FEFF 		bl	chBSemWait
 593              		.loc 6 67 0
 594 000c 114B     		ldr	r3, .L33+4
 595 000e 1B78     		ldrb	r3, [r3]	@ zero_extendqisi2
 596 0010 1846     		mov	r0, r3
 597 0012 FFF7FEFF 		bl	run_state
 598 0016 0346     		mov	r3, r0
 599 0018 1A46     		mov	r2, r3
 600 001a 0E4B     		ldr	r3, .L33+4
 601 001c 1A70     		strb	r2, [r3]
 602              		.loc 6 69 0
 603 001e FFF7FEFF 		bl	chVTGetSystemTime
 604 0022 0246     		mov	r2, r0
 605 0024 0C4B     		ldr	r3, .L33+8
 606 0026 1B68     		ldr	r3, [r3]
 607 0028 D31A     		subs	r3, r2, r3
 608 002a 42F21072 		movw	r2, #10000
 609 002e 9342     		cmp	r3, r2
 610 0030 E9D9     		bls	.L32
 611              		.loc 6 71 0
 612 0032 FFF7FEFF 		bl	chVTGetSystemTime
 613 0036 0246     		mov	r2, r0
 614 0038 074B     		ldr	r3, .L33+8
 615 003a 1A60     		str	r2, [r3]
 616              		.loc 6 72 0
 617 003c 074B     		ldr	r3, .L33+12
 618 003e 1B68     		ldr	r3, [r3]
 619 0040 1846     		mov	r0, r3
 620 0042 FFF7FEFF 		bl	upload_counts
 621              		.loc 6 73 0
 622 0046 054B     		ldr	r3, .L33+12
 623 0048 0022     		movs	r2, #0
ARM GAS  /tmp/cc8n5QuF.s 			page 12


 624 004a 1A60     		str	r2, [r3]
 625              		.loc 6 64 0
 626 004c DBE7     		b	.L32
 627              	.L34:
 628 004e 00BF     		.align	2
 629              	.L33:
 630 0050 00000000 		.word	clock_evt
 631 0054 00000000 		.word	cur_state
 632 0058 00000000 		.word	prevtime
 633 005c 00000000 		.word	counts
 634              		.cfi_endproc
 635              	.LFE270:
 636              		.size	HEAD, .-HEAD
 637              		.section	.text.do_state_a,"ax",%progbits
 638              		.align	1
 639              		.p2align 4,,15
 640              		.syntax unified
 641              		.thumb
 642              		.thumb_func
 643              		.fpu fpv4-sp-d16
 644              		.type	do_state_a, %function
 645              	do_state_a:
 646              	.LFB271:
 647              		.loc 6 80 0
 648              		.cfi_startproc
 649              		@ args = 0, pretend = 0, frame = 0
 650              		@ frame_needed = 0, uses_anonymous_args = 0
 651              		@ link register save eliminated.
 652              		.loc 6 82 0
 653 0000 054B     		ldr	r3, .L38
 654 0002 1B69     		ldr	r3, [r3, #16]
 655 0004 5B0A     		lsrs	r3, r3, #9
 656 0006 03F00103 		and	r3, r3, #1
 657 000a 012B     		cmp	r3, #1
 658 000c 01D1     		bne	.L36
 659              		.loc 6 83 0
 660 000e 0123     		movs	r3, #1
 661 0010 00E0     		b	.L37
 662              	.L36:
 663              		.loc 6 85 0
 664 0012 0023     		movs	r3, #0
 665              	.L37:
 666              		.loc 6 87 0
 667 0014 1846     		mov	r0, r3
 668 0016 7047     		bx	lr
 669              	.L39:
 670              		.align	2
 671              	.L38:
 672 0018 00000240 		.word	1073872896
 673              		.cfi_endproc
 674              	.LFE271:
 675              		.size	do_state_a, .-do_state_a
 676              		.section	.text.do_state_b,"ax",%progbits
 677              		.align	1
 678              		.p2align 4,,15
 679              		.syntax unified
 680              		.thumb
ARM GAS  /tmp/cc8n5QuF.s 			page 13


 681              		.thumb_func
 682              		.fpu fpv4-sp-d16
 683              		.type	do_state_b, %function
 684              	do_state_b:
 685              	.LFB272:
 686              		.loc 6 91 0
 687              		.cfi_startproc
 688              		@ args = 0, pretend = 0, frame = 0
 689              		@ frame_needed = 0, uses_anonymous_args = 0
 690              		@ link register save eliminated.
 691              		.loc 6 93 0
 692 0000 054B     		ldr	r3, .L43
 693 0002 1B69     		ldr	r3, [r3, #16]
 694 0004 5B0A     		lsrs	r3, r3, #9
 695 0006 03F00103 		and	r3, r3, #1
 696 000a 012B     		cmp	r3, #1
 697 000c 01D1     		bne	.L41
 698              		.loc 6 94 0
 699 000e 0123     		movs	r3, #1
 700 0010 00E0     		b	.L42
 701              	.L41:
 702              		.loc 6 96 0
 703 0012 0223     		movs	r3, #2
 704              	.L42:
 705              		.loc 6 98 0
 706 0014 1846     		mov	r0, r3
 707 0016 7047     		bx	lr
 708              	.L44:
 709              		.align	2
 710              	.L43:
 711 0018 00000240 		.word	1073872896
 712              		.cfi_endproc
 713              	.LFE272:
 714              		.size	do_state_b, .-do_state_b
 715              		.section	.text.do_state_c,"ax",%progbits
 716              		.align	1
 717              		.p2align 4,,15
 718              		.syntax unified
 719              		.thumb
 720              		.thumb_func
 721              		.fpu fpv4-sp-d16
 722              		.type	do_state_c, %function
 723              	do_state_c:
 724              	.LFB273:
 725              		.loc 6 102 0
 726              		.cfi_startproc
 727              		@ args = 0, pretend = 0, frame = 0
 728              		@ frame_needed = 0, uses_anonymous_args = 0
 729              		@ link register save eliminated.
 730              		.loc 6 104 0
 731 0000 054B     		ldr	r3, .L48
 732 0002 1B69     		ldr	r3, [r3, #16]
 733 0004 5B0A     		lsrs	r3, r3, #9
 734 0006 03F00103 		and	r3, r3, #1
 735 000a 012B     		cmp	r3, #1
 736 000c 01D1     		bne	.L46
 737              		.loc 6 105 0
ARM GAS  /tmp/cc8n5QuF.s 			page 14


 738 000e 0123     		movs	r3, #1
 739 0010 00E0     		b	.L47
 740              	.L46:
 741              		.loc 6 107 0
 742 0012 0323     		movs	r3, #3
 743              	.L47:
 744              		.loc 6 109 0
 745 0014 1846     		mov	r0, r3
 746 0016 7047     		bx	lr
 747              	.L49:
 748              		.align	2
 749              	.L48:
 750 0018 00000240 		.word	1073872896
 751              		.cfi_endproc
 752              	.LFE273:
 753              		.size	do_state_c, .-do_state_c
 754              		.section	.text.do_state_d,"ax",%progbits
 755              		.align	1
 756              		.p2align 4,,15
 757              		.syntax unified
 758              		.thumb
 759              		.thumb_func
 760              		.fpu fpv4-sp-d16
 761              		.type	do_state_d, %function
 762              	do_state_d:
 763              	.LFB274:
 764              		.loc 6 113 0
 765              		.cfi_startproc
 766              		@ args = 0, pretend = 0, frame = 0
 767              		@ frame_needed = 0, uses_anonymous_args = 0
 768              		@ link register save eliminated.
 769              		.loc 6 115 0
 770 0000 054B     		ldr	r3, .L53
 771 0002 1B69     		ldr	r3, [r3, #16]
 772 0004 5B0A     		lsrs	r3, r3, #9
 773 0006 03F00103 		and	r3, r3, #1
 774 000a 012B     		cmp	r3, #1
 775 000c 01D1     		bne	.L51
 776              		.loc 6 116 0
 777 000e 0423     		movs	r3, #4
 778 0010 00E0     		b	.L52
 779              	.L51:
 780              		.loc 6 118 0
 781 0012 0023     		movs	r3, #0
 782              	.L52:
 783              		.loc 6 120 0
 784 0014 1846     		mov	r0, r3
 785 0016 7047     		bx	lr
 786              	.L54:
 787              		.align	2
 788              	.L53:
 789 0018 00000240 		.word	1073872896
 790              		.cfi_endproc
 791              	.LFE274:
 792              		.size	do_state_d, .-do_state_d
 793              		.section	.text.do_state_e,"ax",%progbits
 794              		.align	1
ARM GAS  /tmp/cc8n5QuF.s 			page 15


 795              		.p2align 4,,15
 796              		.syntax unified
 797              		.thumb
 798              		.thumb_func
 799              		.fpu fpv4-sp-d16
 800              		.type	do_state_e, %function
 801              	do_state_e:
 802              	.LFB275:
 803              		.loc 6 124 0
 804              		.cfi_startproc
 805              		@ args = 0, pretend = 0, frame = 0
 806              		@ frame_needed = 0, uses_anonymous_args = 0
 807              		@ link register save eliminated.
 808              		.loc 6 126 0
 809 0000 084B     		ldr	r3, .L58
 810 0002 1B68     		ldr	r3, [r3]
 811 0004 0133     		adds	r3, r3, #1
 812 0006 074A     		ldr	r2, .L58
 813 0008 1360     		str	r3, [r2]
 814              		.loc 6 128 0
 815 000a 074B     		ldr	r3, .L58+4
 816 000c 1B69     		ldr	r3, [r3, #16]
 817 000e 5B0A     		lsrs	r3, r3, #9
 818 0010 03F00103 		and	r3, r3, #1
 819 0014 012B     		cmp	r3, #1
 820 0016 01D1     		bne	.L56
 821              		.loc 6 129 0
 822 0018 0123     		movs	r3, #1
 823 001a 00E0     		b	.L57
 824              	.L56:
 825              		.loc 6 131 0
 826 001c 0023     		movs	r3, #0
 827              	.L57:
 828              		.loc 6 133 0
 829 001e 1846     		mov	r0, r3
 830 0020 7047     		bx	lr
 831              	.L59:
 832 0022 00BF     		.align	2
 833              	.L58:
 834 0024 00000000 		.word	counts
 835 0028 00000240 		.word	1073872896
 836              		.cfi_endproc
 837              	.LFE275:
 838              		.size	do_state_e, .-do_state_e
 839              		.section	.text.begin_header_detection,"ax",%progbits
 840              		.align	1
 841              		.p2align 4,,15
 842              		.global	begin_header_detection
 843              		.syntax unified
 844              		.thumb
 845              		.thumb_func
 846              		.fpu fpv4-sp-d16
 847              		.type	begin_header_detection, %function
 848              	begin_header_detection:
 849              	.LFB276:
 850              		.loc 6 137 0
 851              		.cfi_startproc
ARM GAS  /tmp/cc8n5QuF.s 			page 16


 852              		@ args = 0, pretend = 0, frame = 0
 853              		@ frame_needed = 0, uses_anonymous_args = 0
 854 0000 00B5     		push	{lr}
 855              		.cfi_def_cfa_offset 4
 856              		.cfi_offset 14, -4
 857 0002 83B0     		sub	sp, sp, #12
 858              		.cfi_def_cfa_offset 16
 859              		.loc 6 139 0
 860 0004 0023     		movs	r3, #0
 861 0006 0093     		str	r3, [sp]
 862 0008 054B     		ldr	r3, .L61
 863 000a 4022     		movs	r2, #64
 864 000c 41F27011 		movw	r1, #4464
 865 0010 0448     		ldr	r0, .L61+4
 866 0012 FFF7FEFF 		bl	chThdCreateStatic
 867              		.loc 6 140 0
 868 0016 00BF     		nop
 869 0018 03B0     		add	sp, sp, #12
 870              		.cfi_def_cfa_offset 4
 871              		@ sp needed
 872 001a 5DF804FB 		ldr	pc, [sp], #4
 873              	.L62:
 874 001e 00BF     		.align	2
 875              	.L61:
 876 0020 00000000 		.word	HEAD
 877 0024 00000000 		.word	waHEAD
 878              		.cfi_endproc
 879              	.LFE276:
 880              		.size	begin_header_detection, .-begin_header_detection
 881              		.section	.rodata.__func__.7157,"a",%progbits
 882              		.align	2
 883              		.type	__func__.7157, %object
 884              		.size	__func__.7157, 12
 885              	__func__.7157:
 886 0000 63685379 		.ascii	"chSysUnlock\000"
 886      73556E6C 
 886      6F636B00 
 887              		.text
 888              	.Letext0:
 889              		.file 7 "/usr/lib/gcc/arm-none-eabi/6.3.1/include/stddef.h"
 890              		.file 8 "/usr/arm-none-eabi/include/machine/_default_types.h"
 891              		.file 9 "/usr/arm-none-eabi/include/sys/_stdint.h"
 892              		.file 10 "../ChibiOS/os/rt/ports/ARMCMx/compilers/GCC/chtypes.h"
 893              		.file 11 "../ChibiOS/os/rt/include/chsystypes.h"
 894              		.file 12 "../ChibiOS/os/rt/include/chschd.h"
 895              		.file 13 "../ChibiOS/os/ext/CMSIS/include/core_cm4.h"
 896              		.file 14 "../ChibiOS/os/ext/CMSIS/ST/STM32F4xx/system_stm32f4xx.h"
 897              		.file 15 "../ChibiOS/os/ext/CMSIS/ST/STM32F4xx/stm32f437xx.h"
 898              		.file 16 "../ChibiOS/os/rt/ports/ARMCMx/chcore.h"
 899              		.file 17 "../ChibiOS/os/rt/include/chtm.h"
 900              		.file 18 "../ChibiOS/os/rt/include/chstats.h"
 901              		.file 19 "../ChibiOS/os/rt/include/chsem.h"
 902              		.file 20 "../ChibiOS/os/rt/include/chmtx.h"
 903              		.file 21 "../ChibiOS/os/rt/include/chregistry.h"
 904              		.file 22 "../ChibiOS/os/rt/include/chevents.h"
 905              		.file 23 "../ChibiOS/os/rt/include/chqueues.h"
 906              		.file 24 "../ChibiOS/os/hal/ports/STM32/LLD/DMAv2/stm32_dma.h"
ARM GAS  /tmp/cc8n5QuF.s 			page 17


 907              		.file 25 "../ChibiOS/os/hal/ports/STM32/LLD/GPIOv2/pal_lld.h"
 908              		.file 26 "../ChibiOS/os/hal/include/ext.h"
 909              		.file 27 "../ChibiOS/os/hal/ports/STM32/LLD/EXTIv1/ext_lld.h"
 910              		.file 28 "../ChibiOS/os/hal/include/gpt.h"
 911              		.file 29 "../ChibiOS/os/hal/ports/STM32/LLD/TIMv1/gpt_lld.h"
 912              		.file 30 "../ChibiOS/os/hal/ports/STM32/LLD/TIMv1/stm32_tim.h"
 913              		.file 31 "../ChibiOS/os/hal/include/pwm.h"
 914              		.file 32 "../ChibiOS/os/hal/ports/STM32/LLD/TIMv1/pwm_lld.h"
 915              		.file 33 "../ChibiOS/os/hal/include/serial.h"
 916              		.file 34 "../ChibiOS/os/hal/ports/STM32/LLD/USARTv1/serial_lld.h"
 917              		.file 35 "../ChibiOS/os/hal/include/usb.h"
 918              		.file 36 "../ChibiOS/os/hal/ports/STM32/LLD/OTGv1/usb_lld.h"
 919              		.file 37 "../ChibiOS/os/hal/ports/STM32/LLD/OTGv1/stm32_otg.h"