ARM GAS  /tmp/ccfUWPKb.s 			page 1


   1              		.cpu cortex-m4
   2              		.eabi_attribute 27, 1
   3              		.eabi_attribute 28, 1
   4              		.eabi_attribute 20, 1
   5              		.eabi_attribute 21, 1
   6              		.eabi_attribute 23, 3
   7              		.eabi_attribute 24, 1
   8              		.eabi_attribute 25, 1
   9              		.eabi_attribute 26, 1
  10              		.eabi_attribute 30, 6
  11              		.eabi_attribute 34, 1
  12              		.eabi_attribute 18, 4
  13              		.file	"pal.c"
  14              		.text
  15              	.Ltext0:
  16              		.cfi_sections	.debug_frame
  17              		.section	.text.palReadBus,"ax",%progbits
  18              		.align	1
  19              		.p2align 4,,15
  20              		.global	palReadBus
  21              		.syntax unified
  22              		.thumb
  23              		.thumb_func
  24              		.fpu fpv4-sp-d16
  25              		.type	palReadBus, %function
  26              	palReadBus:
  27              	.LFB268:
  28              		.file 1 "../ChibiOS/os/hal/src/pal.c"
  29              		.loc 1 65 0
  30              		.cfi_startproc
  31              		@ args = 0, pretend = 0, frame = 8
  32              		@ frame_needed = 0, uses_anonymous_args = 0
  33 0000 00B5     		push	{lr}
  34              		.cfi_def_cfa_offset 4
  35              		.cfi_offset 14, -4
  36 0002 83B0     		sub	sp, sp, #12
  37              		.cfi_def_cfa_offset 16
  38 0004 0190     		str	r0, [sp, #4]
  39              		.loc 1 67 0
  40 0006 019B     		ldr	r3, [sp, #4]
  41 0008 002B     		cmp	r3, #0
  42 000a 03D0     		beq	.L2
  43              		.loc 1 67 0 is_stmt 0 discriminator 3
  44 000c 019B     		ldr	r3, [sp, #4]
  45 000e 9B68     		ldr	r3, [r3, #8]
  46 0010 0F2B     		cmp	r3, #15
  47 0012 02D9     		bls	.L3
  48              	.L2:
  49              		.loc 1 67 0 discriminator 4
  50 0014 0748     		ldr	r0, .L5
  51 0016 FFF7FEFF 		bl	chSysHalt
  52              	.L3:
  53              		.loc 1 69 0 is_stmt 1
  54 001a 019B     		ldr	r3, [sp, #4]
  55 001c 1B68     		ldr	r3, [r3]
  56 001e 1A69     		ldr	r2, [r3, #16]
  57 0020 019B     		ldr	r3, [sp, #4]
ARM GAS  /tmp/ccfUWPKb.s 			page 2


  58 0022 9B68     		ldr	r3, [r3, #8]
  59 0024 DA40     		lsrs	r2, r2, r3
  60 0026 019B     		ldr	r3, [sp, #4]
  61 0028 5B68     		ldr	r3, [r3, #4]
  62 002a 1340     		ands	r3, r3, r2
  63              		.loc 1 70 0
  64 002c 1846     		mov	r0, r3
  65 002e 03B0     		add	sp, sp, #12
  66              		.cfi_def_cfa_offset 4
  67              		@ sp needed
  68 0030 5DF804FB 		ldr	pc, [sp], #4
  69              	.L6:
  70              		.align	2
  71              	.L5:
  72 0034 00000000 		.word	__func__.9027
  73              		.cfi_endproc
  74              	.LFE268:
  75              		.size	palReadBus, .-palReadBus
  76              		.section	.text.palWriteBus,"ax",%progbits
  77              		.align	1
  78              		.p2align 4,,15
  79              		.global	palWriteBus
  80              		.syntax unified
  81              		.thumb
  82              		.thumb_func
  83              		.fpu fpv4-sp-d16
  84              		.type	palWriteBus, %function
  85              	palWriteBus:
  86              	.LFB269:
  87              		.loc 1 90 0
  88              		.cfi_startproc
  89              		@ args = 0, pretend = 0, frame = 8
  90              		@ frame_needed = 0, uses_anonymous_args = 0
  91 0000 00B5     		push	{lr}
  92              		.cfi_def_cfa_offset 4
  93              		.cfi_offset 14, -4
  94 0002 83B0     		sub	sp, sp, #12
  95              		.cfi_def_cfa_offset 16
  96 0004 0190     		str	r0, [sp, #4]
  97 0006 0091     		str	r1, [sp]
  98              		.loc 1 92 0
  99 0008 019B     		ldr	r3, [sp, #4]
 100 000a 002B     		cmp	r3, #0
 101 000c 03D0     		beq	.L8
 102              		.loc 1 92 0 is_stmt 0 discriminator 3
 103 000e 019B     		ldr	r3, [sp, #4]
 104 0010 9B68     		ldr	r3, [r3, #8]
 105 0012 0F2B     		cmp	r3, #15
 106 0014 02D9     		bls	.L9
 107              	.L8:
 108              		.loc 1 92 0 discriminator 4
 109 0016 0E48     		ldr	r0, .L10
 110 0018 FFF7FEFF 		bl	chSysHalt
 111              	.L9:
 112              		.loc 1 94 0 is_stmt 1
 113 001c 019B     		ldr	r3, [sp, #4]
 114 001e 1B68     		ldr	r3, [r3]
ARM GAS  /tmp/ccfUWPKb.s 			page 3


 115 0020 009A     		ldr	r2, [sp]
 116 0022 D143     		mvns	r1, r2
 117 0024 019A     		ldr	r2, [sp, #4]
 118 0026 5268     		ldr	r2, [r2, #4]
 119 0028 1140     		ands	r1, r1, r2
 120 002a 019A     		ldr	r2, [sp, #4]
 121 002c 9268     		ldr	r2, [r2, #8]
 122 002e 1032     		adds	r2, r2, #16
 123 0030 9140     		lsls	r1, r1, r2
 124 0032 019A     		ldr	r2, [sp, #4]
 125 0034 5068     		ldr	r0, [r2, #4]
 126 0036 009A     		ldr	r2, [sp]
 127 0038 1040     		ands	r0, r0, r2
 128 003a 019A     		ldr	r2, [sp, #4]
 129 003c 9268     		ldr	r2, [r2, #8]
 130 003e 00FA02F2 		lsl	r2, r0, r2
 131 0042 0A43     		orrs	r2, r2, r1
 132 0044 9A61     		str	r2, [r3, #24]
 133              		.loc 1 95 0
 134 0046 00BF     		nop
 135 0048 03B0     		add	sp, sp, #12
 136              		.cfi_def_cfa_offset 4
 137              		@ sp needed
 138 004a 5DF804FB 		ldr	pc, [sp], #4
 139              	.L11:
 140 004e 00BF     		.align	2
 141              	.L10:
 142 0050 00000000 		.word	__func__.9032
 143              		.cfi_endproc
 144              	.LFE269:
 145              		.size	palWriteBus, .-palWriteBus
 146              		.section	.text.palSetBusMode,"ax",%progbits
 147              		.align	1
 148              		.p2align 4,,15
 149              		.global	palSetBusMode
 150              		.syntax unified
 151              		.thumb
 152              		.thumb_func
 153              		.fpu fpv4-sp-d16
 154              		.type	palSetBusMode, %function
 155              	palSetBusMode:
 156              	.LFB270:
 157              		.loc 1 113 0
 158              		.cfi_startproc
 159              		@ args = 0, pretend = 0, frame = 8
 160              		@ frame_needed = 0, uses_anonymous_args = 0
 161 0000 00B5     		push	{lr}
 162              		.cfi_def_cfa_offset 4
 163              		.cfi_offset 14, -4
 164 0002 83B0     		sub	sp, sp, #12
 165              		.cfi_def_cfa_offset 16
 166 0004 0190     		str	r0, [sp, #4]
 167 0006 0091     		str	r1, [sp]
 168              		.loc 1 115 0
 169 0008 019B     		ldr	r3, [sp, #4]
 170 000a 002B     		cmp	r3, #0
 171 000c 03D0     		beq	.L13
ARM GAS  /tmp/ccfUWPKb.s 			page 4


 172              		.loc 1 115 0 is_stmt 0 discriminator 3
 173 000e 019B     		ldr	r3, [sp, #4]
 174 0010 9B68     		ldr	r3, [r3, #8]
 175 0012 0F2B     		cmp	r3, #15
 176 0014 02D9     		bls	.L14
 177              	.L13:
 178              		.loc 1 115 0 discriminator 4
 179 0016 0948     		ldr	r0, .L15
 180 0018 FFF7FEFF 		bl	chSysHalt
 181              	.L14:
 182              		.loc 1 117 0 is_stmt 1
 183 001c 019B     		ldr	r3, [sp, #4]
 184 001e 1868     		ldr	r0, [r3]
 185 0020 019B     		ldr	r3, [sp, #4]
 186 0022 5A68     		ldr	r2, [r3, #4]
 187 0024 019B     		ldr	r3, [sp, #4]
 188 0026 9B68     		ldr	r3, [r3, #8]
 189 0028 02FA03F3 		lsl	r3, r2, r3
 190 002c 009A     		ldr	r2, [sp]
 191 002e 1946     		mov	r1, r3
 192 0030 FFF7FEFF 		bl	_pal_lld_setgroupmode
 193              		.loc 1 118 0
 194 0034 00BF     		nop
 195 0036 03B0     		add	sp, sp, #12
 196              		.cfi_def_cfa_offset 4
 197              		@ sp needed
 198 0038 5DF804FB 		ldr	pc, [sp], #4
 199              	.L16:
 200              		.align	2
 201              	.L15:
 202 003c 00000000 		.word	__func__.9037
 203              		.cfi_endproc
 204              	.LFE270:
 205              		.size	palSetBusMode, .-palSetBusMode
 206              		.section	.rodata.__func__.9027,"a",%progbits
 207              		.align	2
 208              		.type	__func__.9027, %object
 209              		.size	__func__.9027, 11
 210              	__func__.9027:
 211 0000 70616C52 		.ascii	"palReadBus\000"
 211      65616442 
 211      757300
 212              		.section	.rodata.__func__.9032,"a",%progbits
 213              		.align	2
 214              		.type	__func__.9032, %object
 215              		.size	__func__.9032, 12
 216              	__func__.9032:
 217 0000 70616C57 		.ascii	"palWriteBus\000"
 217      72697465 
 217      42757300 
 218              		.section	.rodata.__func__.9037,"a",%progbits
 219              		.align	2
 220              		.type	__func__.9037, %object
 221              		.size	__func__.9037, 14
 222              	__func__.9037:
 223 0000 70616C53 		.ascii	"palSetBusMode\000"
 223      65744275 
ARM GAS  /tmp/ccfUWPKb.s 			page 5


 223      734D6F64 
 223      6500
 224              		.text
 225              	.Letext0:
 226              		.file 2 "/usr/lib/gcc/arm-none-eabi/6.3.1/include/stddef.h"
 227              		.file 3 "/usr/arm-none-eabi/include/machine/_default_types.h"
 228              		.file 4 "/usr/arm-none-eabi/include/sys/_stdint.h"
 229              		.file 5 "/usr/arm-none-eabi/include/stdint.h"
 230              		.file 6 "../ChibiOS/os/rt/ports/ARMCMx/compilers/GCC/chtypes.h"
 231              		.file 7 "../ChibiOS/os/rt/include/chsystypes.h"
 232              		.file 8 "../ChibiOS/os/rt/include/chschd.h"
 233              		.file 9 "../ChibiOS/os/ext/CMSIS/include/core_cm4.h"
 234              		.file 10 "../ChibiOS/os/ext/CMSIS/ST/STM32F4xx/system_stm32f4xx.h"
 235              		.file 11 "../ChibiOS/os/ext/CMSIS/ST/STM32F4xx/stm32f437xx.h"
 236              		.file 12 "../ChibiOS/os/rt/ports/ARMCMx/chcore.h"
 237              		.file 13 "../ChibiOS/os/rt/ports/ARMCMx/chcore_v7m.h"
 238              		.file 14 "../ChibiOS/os/rt/include/chtm.h"
 239              		.file 15 "../ChibiOS/os/rt/include/chstats.h"
 240              		.file 16 "../ChibiOS/os/rt/include/chsem.h"
 241              		.file 17 "../ChibiOS/os/rt/include/chmtx.h"
 242              		.file 18 "../ChibiOS/os/rt/include/chregistry.h"
 243              		.file 19 "../ChibiOS/os/rt/include/chevents.h"
 244              		.file 20 "../ChibiOS/os/rt/include/chqueues.h"
 245              		.file 21 "../ChibiOS/os/hal/ports/STM32/LLD/DMAv2/stm32_dma.h"
 246              		.file 22 "../ChibiOS/os/hal/ports/STM32/LLD/GPIOv2/pal_lld.h"
 247              		.file 23 "../ChibiOS/os/hal/include/pal.h"
 248              		.file 24 "../ChibiOS/os/hal/include/ext.h"
 249              		.file 25 "../ChibiOS/os/hal/ports/STM32/LLD/EXTIv1/ext_lld.h"
 250              		.file 26 "../ChibiOS/os/hal/include/gpt.h"
 251              		.file 27 "../ChibiOS/os/hal/ports/STM32/LLD/TIMv1/gpt_lld.h"
 252              		.file 28 "../ChibiOS/os/hal/ports/STM32/LLD/TIMv1/stm32_tim.h"
 253              		.file 29 "../ChibiOS/os/hal/include/pwm.h"
 254              		.file 30 "../ChibiOS/os/hal/ports/STM32/LLD/TIMv1/pwm_lld.h"
 255              		.file 31 "../ChibiOS/os/hal/include/serial.h"
 256              		.file 32 "../ChibiOS/os/hal/ports/STM32/LLD/USARTv1/serial_lld.h"
 257              		.file 33 "../ChibiOS/os/hal/include/usb.h"
 258              		.file 34 "../ChibiOS/os/hal/ports/STM32/LLD/OTGv1/usb_lld.h"
 259              		.file 35 "../ChibiOS/os/hal/ports/STM32/LLD/OTGv1/stm32_otg.h"