ARM GAS  /tmp/cceOnO2h.s 			page 1


   1              		.cpu cortex-m4
   2              		.eabi_attribute 27, 1
   3              		.eabi_attribute 28, 1
   4              		.eabi_attribute 20, 1
   5              		.eabi_attribute 21, 1
   6              		.eabi_attribute 23, 3
   7              		.eabi_attribute 24, 1
   8              		.eabi_attribute 25, 1
   9              		.eabi_attribute 26, 1
  10              		.eabi_attribute 30, 6
  11              		.eabi_attribute 34, 1
  12              		.eabi_attribute 18, 4
  13              		.file	"pwm_lld.c"
  14              		.text
  15              	.Ltext0:
  16              		.cfi_sections	.debug_frame
  17              		.global	PWMD1
  18              		.section	.bss.PWMD1,"aw",%nobits
  19              		.align	2
  20              		.type	PWMD1, %object
  21              		.size	PWMD1, 28
  22              	PWMD1:
  23 0000 00000000 		.space	28
  23      00000000 
  23      00000000 
  23      00000000 
  23      00000000 
  24              		.section	.text.VectorA4,"ax",%progbits
  25              		.align	1
  26              		.p2align 4,,15
  27              		.global	VectorA4
  28              		.syntax unified
  29              		.thumb
  30              		.thumb_func
  31              		.fpu fpv4-sp-d16
  32              		.type	VectorA4, %function
  33              	VectorA4:
  34              	.LFB268:
  35              		.file 1 "../ChibiOS/os/hal/ports/STM32/LLD/TIMv1/pwm_lld.c"
  36              		.loc 1 118 0
  37              		.cfi_startproc
  38              		@ args = 0, pretend = 0, frame = 0
  39              		@ frame_needed = 0, uses_anonymous_args = 0
  40 0000 08B5     		push	{r3, lr}
  41              		.cfi_def_cfa_offset 8
  42              		.cfi_offset 3, -8
  43              		.cfi_offset 14, -4
  44              		.loc 1 120 0
  45 0002 FFF7FEFF 		bl	_stats_increase_irq
  46 0006 FFF7FEFF 		bl	_dbg_check_enter_isr
  47              		.loc 1 122 0
  48 000a 0448     		ldr	r0, .L2
  49 000c FFF7FEFF 		bl	pwm_lld_serve_interrupt
  50              		.loc 1 124 0
  51 0010 FFF7FEFF 		bl	_dbg_check_leave_isr
  52 0014 FFF7FEFF 		bl	_port_irq_epilogue
  53              		.loc 1 125 0
ARM GAS  /tmp/cceOnO2h.s 			page 2


  54 0018 00BF     		nop
  55 001a 08BD     		pop	{r3, pc}
  56              	.L3:
  57              		.align	2
  58              	.L2:
  59 001c 00000000 		.word	PWMD1
  60              		.cfi_endproc
  61              	.LFE268:
  62              		.size	VectorA4, .-VectorA4
  63              		.section	.text.VectorAC,"ax",%progbits
  64              		.align	1
  65              		.p2align 4,,15
  66              		.global	VectorAC
  67              		.syntax unified
  68              		.thumb
  69              		.thumb_func
  70              		.fpu fpv4-sp-d16
  71              		.type	VectorAC, %function
  72              	VectorAC:
  73              	.LFB269:
  74              		.loc 1 138 0
  75              		.cfi_startproc
  76              		@ args = 0, pretend = 0, frame = 0
  77              		@ frame_needed = 0, uses_anonymous_args = 0
  78 0000 08B5     		push	{r3, lr}
  79              		.cfi_def_cfa_offset 8
  80              		.cfi_offset 3, -8
  81              		.cfi_offset 14, -4
  82              		.loc 1 140 0
  83 0002 FFF7FEFF 		bl	_stats_increase_irq
  84 0006 FFF7FEFF 		bl	_dbg_check_enter_isr
  85              		.loc 1 142 0
  86 000a 0448     		ldr	r0, .L5
  87 000c FFF7FEFF 		bl	pwm_lld_serve_interrupt
  88              		.loc 1 144 0
  89 0010 FFF7FEFF 		bl	_dbg_check_leave_isr
  90 0014 FFF7FEFF 		bl	_port_irq_epilogue
  91              		.loc 1 145 0
  92 0018 00BF     		nop
  93 001a 08BD     		pop	{r3, pc}
  94              	.L6:
  95              		.align	2
  96              	.L5:
  97 001c 00000000 		.word	PWMD1
  98              		.cfi_endproc
  99              	.LFE269:
 100              		.size	VectorAC, .-VectorAC
 101              		.section	.text.pwm_lld_init,"ax",%progbits
 102              		.align	1
 103              		.p2align 4,,15
 104              		.global	pwm_lld_init
 105              		.syntax unified
 106              		.thumb
 107              		.thumb_func
 108              		.fpu fpv4-sp-d16
 109              		.type	pwm_lld_init, %function
 110              	pwm_lld_init:
ARM GAS  /tmp/cceOnO2h.s 			page 3


 111              	.LFB270:
 112              		.loc 1 307 0
 113              		.cfi_startproc
 114              		@ args = 0, pretend = 0, frame = 0
 115              		@ frame_needed = 0, uses_anonymous_args = 0
 116 0000 08B5     		push	{r3, lr}
 117              		.cfi_def_cfa_offset 8
 118              		.cfi_offset 3, -8
 119              		.cfi_offset 14, -4
 120              		.loc 1 311 0
 121 0002 0548     		ldr	r0, .L8
 122 0004 FFF7FEFF 		bl	pwmObjectInit
 123              		.loc 1 312 0
 124 0008 034B     		ldr	r3, .L8
 125 000a 0422     		movs	r2, #4
 126 000c 1A74     		strb	r2, [r3, #16]
 127              		.loc 1 313 0
 128 000e 024B     		ldr	r3, .L8
 129 0010 024A     		ldr	r2, .L8+4
 130 0012 9A61     		str	r2, [r3, #24]
 131              		.loc 1 357 0
 132 0014 00BF     		nop
 133 0016 08BD     		pop	{r3, pc}
 134              	.L9:
 135              		.align	2
 136              	.L8:
 137 0018 00000000 		.word	PWMD1
 138 001c 00000140 		.word	1073807360
 139              		.cfi_endproc
 140              	.LFE270:
 141              		.size	pwm_lld_init, .-pwm_lld_init
 142              		.section	.text.pwm_lld_start,"ax",%progbits
 143              		.align	1
 144              		.p2align 4,,15
 145              		.global	pwm_lld_start
 146              		.syntax unified
 147              		.thumb
 148              		.thumb_func
 149              		.fpu fpv4-sp-d16
 150              		.type	pwm_lld_start, %function
 151              	pwm_lld_start:
 152              	.LFB271:
 153              		.loc 1 368 0
 154              		.cfi_startproc
 155              		@ args = 0, pretend = 0, frame = 16
 156              		@ frame_needed = 0, uses_anonymous_args = 0
 157 0000 00B5     		push	{lr}
 158              		.cfi_def_cfa_offset 4
 159              		.cfi_offset 14, -4
 160 0002 85B0     		sub	sp, sp, #20
 161              		.cfi_def_cfa_offset 24
 162 0004 0190     		str	r0, [sp, #4]
 163              		.loc 1 372 0
 164 0006 019B     		ldr	r3, [sp, #4]
 165 0008 1B78     		ldrb	r3, [r3]	@ zero_extendqisi2
 166 000a 012B     		cmp	r3, #1
 167 000c 28D1     		bne	.L11
ARM GAS  /tmp/cceOnO2h.s 			page 4


 168              		.loc 1 375 0
 169 000e 019B     		ldr	r3, [sp, #4]
 170 0010 684A     		ldr	r2, .L28
 171 0012 9342     		cmp	r3, r2
 172 0014 19D1     		bne	.L12
 173              		.loc 1 376 0
 174 0016 684A     		ldr	r2, .L28+4
 175 0018 674B     		ldr	r3, .L28+4
 176 001a 5B6C     		ldr	r3, [r3, #68]
 177 001c 43F00103 		orr	r3, r3, #1
 178 0020 5364     		str	r3, [r2, #68]
 179              		.loc 1 377 0
 180 0022 654A     		ldr	r2, .L28+4
 181 0024 644B     		ldr	r3, .L28+4
 182 0026 5B6A     		ldr	r3, [r3, #36]
 183 0028 43F00103 		orr	r3, r3, #1
 184 002c 5362     		str	r3, [r2, #36]
 185 002e 624B     		ldr	r3, .L28+4
 186 0030 0022     		movs	r2, #0
 187 0032 5A62     		str	r2, [r3, #36]
 188              		.loc 1 379 0
 189 0034 0721     		movs	r1, #7
 190 0036 1920     		movs	r0, #25
 191 0038 FFF7FEFF 		bl	nvicEnableVector
 192              		.loc 1 380 0
 193 003c 0721     		movs	r1, #7
 194 003e 1B20     		movs	r0, #27
 195 0040 FFF7FEFF 		bl	nvicEnableVector
 196              		.loc 1 385 0
 197 0044 019B     		ldr	r3, [sp, #4]
 198 0046 5D4A     		ldr	r2, .L28+8
 199 0048 5A61     		str	r2, [r3, #20]
 200              	.L12:
 201              		.loc 1 483 0
 202 004a 019B     		ldr	r3, [sp, #4]
 203 004c 9B69     		ldr	r3, [r3, #24]
 204 004e 46F66802 		movw	r2, #26728
 205 0052 9A61     		str	r2, [r3, #24]
 206              		.loc 1 485 0
 207 0054 019B     		ldr	r3, [sp, #4]
 208 0056 9B69     		ldr	r3, [r3, #24]
 209 0058 46F66802 		movw	r2, #26728
 210 005c DA61     		str	r2, [r3, #28]
 211 005e 17E0     		b	.L13
 212              	.L11:
 213              		.loc 1 494 0
 214 0060 019B     		ldr	r3, [sp, #4]
 215 0062 9B69     		ldr	r3, [r3, #24]
 216 0064 0022     		movs	r2, #0
 217 0066 1A60     		str	r2, [r3]
 218              		.loc 1 495 0
 219 0068 019B     		ldr	r3, [sp, #4]
 220 006a 9B69     		ldr	r3, [r3, #24]
 221 006c 0022     		movs	r2, #0
 222 006e 5A63     		str	r2, [r3, #52]
 223              		.loc 1 496 0
 224 0070 019B     		ldr	r3, [sp, #4]
ARM GAS  /tmp/cceOnO2h.s 			page 5


 225 0072 9B69     		ldr	r3, [r3, #24]
 226 0074 0022     		movs	r2, #0
 227 0076 9A63     		str	r2, [r3, #56]
 228              		.loc 1 497 0
 229 0078 019B     		ldr	r3, [sp, #4]
 230 007a 9B69     		ldr	r3, [r3, #24]
 231 007c 0022     		movs	r2, #0
 232 007e DA63     		str	r2, [r3, #60]
 233              		.loc 1 498 0
 234 0080 019B     		ldr	r3, [sp, #4]
 235 0082 9B69     		ldr	r3, [r3, #24]
 236 0084 0022     		movs	r2, #0
 237 0086 1A64     		str	r2, [r3, #64]
 238              		.loc 1 505 0
 239 0088 019B     		ldr	r3, [sp, #4]
 240 008a 9B69     		ldr	r3, [r3, #24]
 241 008c 0022     		movs	r2, #0
 242 008e 5A62     		str	r2, [r3, #36]
 243              	.L13:
 244              		.loc 1 509 0
 245 0090 019B     		ldr	r3, [sp, #4]
 246 0092 5A69     		ldr	r2, [r3, #20]
 247 0094 019B     		ldr	r3, [sp, #4]
 248 0096 5B68     		ldr	r3, [r3, #4]
 249 0098 1B68     		ldr	r3, [r3]
 250 009a B2FBF3F3 		udiv	r3, r2, r3
 251 009e 013B     		subs	r3, r3, #1
 252 00a0 0293     		str	r3, [sp, #8]
 253              		.loc 1 510 0
 254 00a2 029B     		ldr	r3, [sp, #8]
 255 00a4 B3F5803F 		cmp	r3, #65536
 256 00a8 0AD2     		bcs	.L14
 257              		.loc 1 510 0 is_stmt 0 discriminator 3
 258 00aa 029B     		ldr	r3, [sp, #8]
 259 00ac 0133     		adds	r3, r3, #1
 260 00ae 019A     		ldr	r2, [sp, #4]
 261 00b0 5268     		ldr	r2, [r2, #4]
 262 00b2 1268     		ldr	r2, [r2]
 263 00b4 02FB03F2 		mul	r2, r2, r3
 264 00b8 019B     		ldr	r3, [sp, #4]
 265 00ba 5B69     		ldr	r3, [r3, #20]
 266 00bc 9A42     		cmp	r2, r3
 267 00be 02D0     		beq	.L15
 268              	.L14:
 269              		.loc 1 510 0 discriminator 4
 270 00c0 3F48     		ldr	r0, .L28+12
 271 00c2 FFF7FEFF 		bl	chSysHalt
 272              	.L15:
 273              		.loc 1 513 0 is_stmt 1
 274 00c6 019B     		ldr	r3, [sp, #4]
 275 00c8 9B69     		ldr	r3, [r3, #24]
 276 00ca 029A     		ldr	r2, [sp, #8]
 277 00cc 9A62     		str	r2, [r3, #40]
 278              		.loc 1 514 0
 279 00ce 019B     		ldr	r3, [sp, #4]
 280 00d0 9B69     		ldr	r3, [r3, #24]
 281 00d2 019A     		ldr	r2, [sp, #4]
ARM GAS  /tmp/cceOnO2h.s 			page 6


 282 00d4 9268     		ldr	r2, [r2, #8]
 283 00d6 013A     		subs	r2, r2, #1
 284 00d8 DA62     		str	r2, [r3, #44]
 285              		.loc 1 515 0
 286 00da 019B     		ldr	r3, [sp, #4]
 287 00dc 9B69     		ldr	r3, [r3, #24]
 288 00de 019A     		ldr	r2, [sp, #4]
 289 00e0 5268     		ldr	r2, [r2, #4]
 290 00e2 D26A     		ldr	r2, [r2, #44]
 291 00e4 5A60     		str	r2, [r3, #4]
 292              		.loc 1 518 0
 293 00e6 0023     		movs	r3, #0
 294 00e8 0393     		str	r3, [sp, #12]
 295              		.loc 1 519 0
 296 00ea 019B     		ldr	r3, [sp, #4]
 297 00ec 5B68     		ldr	r3, [r3, #4]
 298 00ee DB68     		ldr	r3, [r3, #12]
 299 00f0 03F00F03 		and	r3, r3, #15
 300 00f4 012B     		cmp	r3, #1
 301 00f6 05D0     		beq	.L17
 302 00f8 022B     		cmp	r3, #2
 303 00fa 07D1     		bne	.L16
 304              		.loc 1 521 0
 305 00fc 039B     		ldr	r3, [sp, #12]
 306 00fe 43F00203 		orr	r3, r3, #2
 307 0102 0393     		str	r3, [sp, #12]
 308              	.L17:
 309              		.loc 1 523 0
 310 0104 039B     		ldr	r3, [sp, #12]
 311 0106 43F00103 		orr	r3, r3, #1
 312 010a 0393     		str	r3, [sp, #12]
 313              	.L16:
 314              		.loc 1 527 0
 315 010c 019B     		ldr	r3, [sp, #4]
 316 010e 5B68     		ldr	r3, [r3, #4]
 317 0110 5B69     		ldr	r3, [r3, #20]
 318 0112 03F00F03 		and	r3, r3, #15
 319 0116 012B     		cmp	r3, #1
 320 0118 05D0     		beq	.L20
 321 011a 022B     		cmp	r3, #2
 322 011c 07D1     		bne	.L19
 323              		.loc 1 529 0
 324 011e 039B     		ldr	r3, [sp, #12]
 325 0120 43F02003 		orr	r3, r3, #32
 326 0124 0393     		str	r3, [sp, #12]
 327              	.L20:
 328              		.loc 1 531 0
 329 0126 039B     		ldr	r3, [sp, #12]
 330 0128 43F01003 		orr	r3, r3, #16
 331 012c 0393     		str	r3, [sp, #12]
 332              	.L19:
 333              		.loc 1 535 0
 334 012e 019B     		ldr	r3, [sp, #4]
 335 0130 5B68     		ldr	r3, [r3, #4]
 336 0132 DB69     		ldr	r3, [r3, #28]
 337 0134 03F00F03 		and	r3, r3, #15
 338 0138 012B     		cmp	r3, #1
ARM GAS  /tmp/cceOnO2h.s 			page 7


 339 013a 05D0     		beq	.L23
 340 013c 022B     		cmp	r3, #2
 341 013e 07D1     		bne	.L22
 342              		.loc 1 537 0
 343 0140 039B     		ldr	r3, [sp, #12]
 344 0142 43F40073 		orr	r3, r3, #512
 345 0146 0393     		str	r3, [sp, #12]
 346              	.L23:
 347              		.loc 1 539 0
 348 0148 039B     		ldr	r3, [sp, #12]
 349 014a 43F48073 		orr	r3, r3, #256
 350 014e 0393     		str	r3, [sp, #12]
 351              	.L22:
 352              		.loc 1 543 0
 353 0150 019B     		ldr	r3, [sp, #4]
 354 0152 5B68     		ldr	r3, [r3, #4]
 355 0154 5B6A     		ldr	r3, [r3, #36]
 356 0156 03F00F03 		and	r3, r3, #15
 357 015a 012B     		cmp	r3, #1
 358 015c 05D0     		beq	.L26
 359 015e 022B     		cmp	r3, #2
 360 0160 07D1     		bne	.L25
 361              		.loc 1 545 0
 362 0162 039B     		ldr	r3, [sp, #12]
 363 0164 43F40053 		orr	r3, r3, #8192
 364 0168 0393     		str	r3, [sp, #12]
 365              	.L26:
 366              		.loc 1 547 0
 367 016a 039B     		ldr	r3, [sp, #12]
 368 016c 43F48053 		orr	r3, r3, #4096
 369 0170 0393     		str	r3, [sp, #12]
 370              	.L25:
 371              		.loc 1 588 0
 372 0172 019B     		ldr	r3, [sp, #4]
 373 0174 9B69     		ldr	r3, [r3, #24]
 374 0176 039A     		ldr	r2, [sp, #12]
 375 0178 1A62     		str	r2, [r3, #32]
 376              		.loc 1 589 0
 377 017a 019B     		ldr	r3, [sp, #4]
 378 017c 9B69     		ldr	r3, [r3, #24]
 379 017e 0122     		movs	r2, #1
 380 0180 5A61     		str	r2, [r3, #20]
 381              		.loc 1 590 0
 382 0182 019B     		ldr	r3, [sp, #4]
 383 0184 9B69     		ldr	r3, [r3, #24]
 384 0186 0022     		movs	r2, #0
 385 0188 1A61     		str	r2, [r3, #16]
 386              		.loc 1 591 0
 387 018a 019B     		ldr	r3, [sp, #4]
 388 018c 9B69     		ldr	r3, [r3, #24]
 389 018e 019A     		ldr	r2, [sp, #4]
 390 0190 5268     		ldr	r2, [r2, #4]
 391 0192 126B     		ldr	r2, [r2, #48]
 392 0194 22F0FF02 		bic	r2, r2, #255
 393 0198 DA60     		str	r2, [r3, #12]
 394              		.loc 1 597 0
 395 019a 019B     		ldr	r3, [sp, #4]
ARM GAS  /tmp/cceOnO2h.s 			page 8


 396 019c 9B69     		ldr	r3, [r3, #24]
 397 019e 4FF40042 		mov	r2, #32768
 398 01a2 5A64     		str	r2, [r3, #68]
 399              		.loc 1 601 0
 400 01a4 019B     		ldr	r3, [sp, #4]
 401 01a6 9B69     		ldr	r3, [r3, #24]
 402 01a8 8522     		movs	r2, #133
 403 01aa 1A60     		str	r2, [r3]
 404              		.loc 1 603 0
 405 01ac 00BF     		nop
 406 01ae 05B0     		add	sp, sp, #20
 407              		.cfi_def_cfa_offset 4
 408              		@ sp needed
 409 01b0 5DF804FB 		ldr	pc, [sp], #4
 410              	.L29:
 411              		.align	2
 412              	.L28:
 413 01b4 00000000 		.word	PWMD1
 414 01b8 00380240 		.word	1073887232
 415 01bc 007A030A 		.word	168000000
 416 01c0 00000000 		.word	__func__.9039
 417              		.cfi_endproc
 418              	.LFE271:
 419              		.size	pwm_lld_start, .-pwm_lld_start
 420              		.section	.text.pwm_lld_stop,"ax",%progbits
 421              		.align	1
 422              		.p2align 4,,15
 423              		.global	pwm_lld_stop
 424              		.syntax unified
 425              		.thumb
 426              		.thumb_func
 427              		.fpu fpv4-sp-d16
 428              		.type	pwm_lld_stop, %function
 429              	pwm_lld_stop:
 430              	.LFB272:
 431              		.loc 1 612 0
 432              		.cfi_startproc
 433              		@ args = 0, pretend = 0, frame = 8
 434              		@ frame_needed = 0, uses_anonymous_args = 0
 435 0000 00B5     		push	{lr}
 436              		.cfi_def_cfa_offset 4
 437              		.cfi_offset 14, -4
 438 0002 83B0     		sub	sp, sp, #12
 439              		.cfi_def_cfa_offset 16
 440 0004 0190     		str	r0, [sp, #4]
 441              		.loc 1 615 0
 442 0006 019B     		ldr	r3, [sp, #4]
 443 0008 1B78     		ldrb	r3, [r3]	@ zero_extendqisi2
 444 000a 022B     		cmp	r3, #2
 445 000c 1FD1     		bne	.L32
 446              		.loc 1 616 0
 447 000e 019B     		ldr	r3, [sp, #4]
 448 0010 9B69     		ldr	r3, [r3, #24]
 449 0012 0022     		movs	r2, #0
 450 0014 1A60     		str	r2, [r3]
 451              		.loc 1 617 0
 452 0016 019B     		ldr	r3, [sp, #4]
ARM GAS  /tmp/cceOnO2h.s 			page 9


 453 0018 9B69     		ldr	r3, [r3, #24]
 454 001a 0022     		movs	r2, #0
 455 001c DA60     		str	r2, [r3, #12]
 456              		.loc 1 618 0
 457 001e 019B     		ldr	r3, [sp, #4]
 458 0020 9B69     		ldr	r3, [r3, #24]
 459 0022 0022     		movs	r2, #0
 460 0024 1A61     		str	r2, [r3, #16]
 461              		.loc 1 620 0
 462 0026 019B     		ldr	r3, [sp, #4]
 463 0028 9B69     		ldr	r3, [r3, #24]
 464 002a 0022     		movs	r2, #0
 465 002c 5A64     		str	r2, [r3, #68]
 466              		.loc 1 624 0
 467 002e 019B     		ldr	r3, [sp, #4]
 468 0030 094A     		ldr	r2, .L33
 469 0032 9342     		cmp	r3, r2
 470 0034 0BD1     		bne	.L32
 471              		.loc 1 626 0
 472 0036 1920     		movs	r0, #25
 473 0038 FFF7FEFF 		bl	nvicDisableVector
 474              		.loc 1 627 0
 475 003c 1B20     		movs	r0, #27
 476 003e FFF7FEFF 		bl	nvicDisableVector
 477              		.loc 1 629 0
 478 0042 064A     		ldr	r2, .L33+4
 479 0044 054B     		ldr	r3, .L33+4
 480 0046 5B6C     		ldr	r3, [r3, #68]
 481 0048 23F00103 		bic	r3, r3, #1
 482 004c 5364     		str	r3, [r2, #68]
 483              	.L32:
 484              		.loc 1 688 0
 485 004e 00BF     		nop
 486 0050 03B0     		add	sp, sp, #12
 487              		.cfi_def_cfa_offset 4
 488              		@ sp needed
 489 0052 5DF804FB 		ldr	pc, [sp], #4
 490              	.L34:
 491 0056 00BF     		.align	2
 492              	.L33:
 493 0058 00000000 		.word	PWMD1
 494 005c 00380240 		.word	1073887232
 495              		.cfi_endproc
 496              	.LFE272:
 497              		.size	pwm_lld_stop, .-pwm_lld_stop
 498              		.section	.text.pwm_lld_enable_channel,"ax",%progbits
 499              		.align	1
 500              		.p2align 4,,15
 501              		.global	pwm_lld_enable_channel
 502              		.syntax unified
 503              		.thumb
 504              		.thumb_func
 505              		.fpu fpv4-sp-d16
 506              		.type	pwm_lld_enable_channel, %function
 507              	pwm_lld_enable_channel:
 508              	.LFB273:
 509              		.loc 1 705 0
ARM GAS  /tmp/cceOnO2h.s 			page 10


 510              		.cfi_startproc
 511              		@ args = 0, pretend = 0, frame = 16
 512              		@ frame_needed = 0, uses_anonymous_args = 0
 513              		@ link register save eliminated.
 514 0000 84B0     		sub	sp, sp, #16
 515              		.cfi_def_cfa_offset 16
 516 0002 0390     		str	r0, [sp, #12]
 517 0004 0B46     		mov	r3, r1
 518 0006 0192     		str	r2, [sp, #4]
 519 0008 8DF80B30 		strb	r3, [sp, #11]
 520              		.loc 1 709 0
 521 000c 039B     		ldr	r3, [sp, #12]
 522 000e 9A69     		ldr	r2, [r3, #24]
 523 0010 9DF80B30 		ldrb	r3, [sp, #11]	@ zero_extendqisi2
 524 0014 0C33     		adds	r3, r3, #12
 525 0016 9B00     		lsls	r3, r3, #2
 526 0018 1344     		add	r3, r3, r2
 527 001a 019A     		ldr	r2, [sp, #4]
 528 001c 5A60     		str	r2, [r3, #4]
 529              		.loc 1 716 0
 530 001e 00BF     		nop
 531 0020 04B0     		add	sp, sp, #16
 532              		.cfi_def_cfa_offset 0
 533              		@ sp needed
 534 0022 7047     		bx	lr
 535              		.cfi_endproc
 536              	.LFE273:
 537              		.size	pwm_lld_enable_channel, .-pwm_lld_enable_channel
 538              		.section	.text.pwm_lld_disable_channel,"ax",%progbits
 539              		.align	1
 540              		.p2align 4,,15
 541              		.global	pwm_lld_disable_channel
 542              		.syntax unified
 543              		.thumb
 544              		.thumb_func
 545              		.fpu fpv4-sp-d16
 546              		.type	pwm_lld_disable_channel, %function
 547              	pwm_lld_disable_channel:
 548              	.LFB274:
 549              		.loc 1 730 0
 550              		.cfi_startproc
 551              		@ args = 0, pretend = 0, frame = 8
 552              		@ frame_needed = 0, uses_anonymous_args = 0
 553              		@ link register save eliminated.
 554 0000 82B0     		sub	sp, sp, #8
 555              		.cfi_def_cfa_offset 8
 556 0002 0190     		str	r0, [sp, #4]
 557 0004 0B46     		mov	r3, r1
 558 0006 8DF80330 		strb	r3, [sp, #3]
 559              		.loc 1 733 0
 560 000a 019B     		ldr	r3, [sp, #4]
 561 000c 9A69     		ldr	r2, [r3, #24]
 562 000e 9DF80330 		ldrb	r3, [sp, #3]	@ zero_extendqisi2
 563 0012 0C33     		adds	r3, r3, #12
 564 0014 9B00     		lsls	r3, r3, #2
 565 0016 1344     		add	r3, r3, r2
 566 0018 0022     		movs	r2, #0
ARM GAS  /tmp/cceOnO2h.s 			page 11


 567 001a 5A60     		str	r2, [r3, #4]
 568              		.loc 1 734 0
 569 001c 019B     		ldr	r3, [sp, #4]
 570 001e 9B69     		ldr	r3, [r3, #24]
 571 0020 019A     		ldr	r2, [sp, #4]
 572 0022 9269     		ldr	r2, [r2, #24]
 573 0024 D268     		ldr	r2, [r2, #12]
 574 0026 9DF80310 		ldrb	r1, [sp, #3]	@ zero_extendqisi2
 575 002a 0220     		movs	r0, #2
 576 002c 00FA01F1 		lsl	r1, r0, r1
 577 0030 C943     		mvns	r1, r1
 578 0032 0A40     		ands	r2, r2, r1
 579 0034 DA60     		str	r2, [r3, #12]
 580              		.loc 1 743 0
 581 0036 00BF     		nop
 582 0038 02B0     		add	sp, sp, #8
 583              		.cfi_def_cfa_offset 0
 584              		@ sp needed
 585 003a 7047     		bx	lr
 586              		.cfi_endproc
 587              	.LFE274:
 588              		.size	pwm_lld_disable_channel, .-pwm_lld_disable_channel
 589              		.section	.text.pwm_lld_enable_periodic_notification,"ax",%progbits
 590              		.align	1
 591              		.p2align 4,,15
 592              		.global	pwm_lld_enable_periodic_notification
 593              		.syntax unified
 594              		.thumb
 595              		.thumb_func
 596              		.fpu fpv4-sp-d16
 597              		.type	pwm_lld_enable_periodic_notification, %function
 598              	pwm_lld_enable_periodic_notification:
 599              	.LFB275:
 600              		.loc 1 754 0
 601              		.cfi_startproc
 602              		@ args = 0, pretend = 0, frame = 16
 603              		@ frame_needed = 0, uses_anonymous_args = 0
 604              		@ link register save eliminated.
 605 0000 84B0     		sub	sp, sp, #16
 606              		.cfi_def_cfa_offset 16
 607 0002 0190     		str	r0, [sp, #4]
 608              		.loc 1 755 0
 609 0004 019B     		ldr	r3, [sp, #4]
 610 0006 9B69     		ldr	r3, [r3, #24]
 611 0008 DB68     		ldr	r3, [r3, #12]
 612 000a 0393     		str	r3, [sp, #12]
 613              		.loc 1 759 0
 614 000c 039B     		ldr	r3, [sp, #12]
 615 000e 03F00103 		and	r3, r3, #1
 616 0012 002B     		cmp	r3, #0
 617 0014 0DD1     		bne	.L39
 618              		.loc 1 760 0
 619 0016 019B     		ldr	r3, [sp, #4]
 620 0018 9B69     		ldr	r3, [r3, #24]
 621 001a 039A     		ldr	r2, [sp, #12]
 622 001c 42F00102 		orr	r2, r2, #1
 623 0020 DA60     		str	r2, [r3, #12]
ARM GAS  /tmp/cceOnO2h.s 			page 12


 624              		.loc 1 761 0
 625 0022 019B     		ldr	r3, [sp, #4]
 626 0024 9B69     		ldr	r3, [r3, #24]
 627 0026 019A     		ldr	r2, [sp, #4]
 628 0028 9269     		ldr	r2, [r2, #24]
 629 002a 1269     		ldr	r2, [r2, #16]
 630 002c 02F00102 		and	r2, r2, #1
 631 0030 1A61     		str	r2, [r3, #16]
 632              	.L39:
 633              		.loc 1 763 0
 634 0032 00BF     		nop
 635 0034 04B0     		add	sp, sp, #16
 636              		.cfi_def_cfa_offset 0
 637              		@ sp needed
 638 0036 7047     		bx	lr
 639              		.cfi_endproc
 640              	.LFE275:
 641              		.size	pwm_lld_enable_periodic_notification, .-pwm_lld_enable_periodic_notification
 642              		.section	.text.pwm_lld_disable_periodic_notification,"ax",%progbits
 643              		.align	1
 644              		.p2align 4,,15
 645              		.global	pwm_lld_disable_periodic_notification
 646              		.syntax unified
 647              		.thumb
 648              		.thumb_func
 649              		.fpu fpv4-sp-d16
 650              		.type	pwm_lld_disable_periodic_notification, %function
 651              	pwm_lld_disable_periodic_notification:
 652              	.LFB276:
 653              		.loc 1 774 0
 654              		.cfi_startproc
 655              		@ args = 0, pretend = 0, frame = 8
 656              		@ frame_needed = 0, uses_anonymous_args = 0
 657              		@ link register save eliminated.
 658 0000 82B0     		sub	sp, sp, #8
 659              		.cfi_def_cfa_offset 8
 660 0002 0190     		str	r0, [sp, #4]
 661              		.loc 1 776 0
 662 0004 019B     		ldr	r3, [sp, #4]
 663 0006 9B69     		ldr	r3, [r3, #24]
 664 0008 019A     		ldr	r2, [sp, #4]
 665 000a 9269     		ldr	r2, [r2, #24]
 666 000c D268     		ldr	r2, [r2, #12]
 667 000e 22F00102 		bic	r2, r2, #1
 668 0012 DA60     		str	r2, [r3, #12]
 669              		.loc 1 777 0
 670 0014 00BF     		nop
 671 0016 02B0     		add	sp, sp, #8
 672              		.cfi_def_cfa_offset 0
 673              		@ sp needed
 674 0018 7047     		bx	lr
 675              		.cfi_endproc
 676              	.LFE276:
 677              		.size	pwm_lld_disable_periodic_notification, .-pwm_lld_disable_periodic_notification
 678 001a 00BF     		.section	.text.pwm_lld_enable_channel_notification,"ax",%progbits
 679              		.align	1
 680              		.p2align 4,,15
ARM GAS  /tmp/cceOnO2h.s 			page 13


 681              		.global	pwm_lld_enable_channel_notification
 682              		.syntax unified
 683              		.thumb
 684              		.thumb_func
 685              		.fpu fpv4-sp-d16
 686              		.type	pwm_lld_enable_channel_notification, %function
 687              	pwm_lld_enable_channel_notification:
 688              	.LFB277:
 689              		.loc 1 791 0
 690              		.cfi_startproc
 691              		@ args = 0, pretend = 0, frame = 16
 692              		@ frame_needed = 0, uses_anonymous_args = 0
 693              		@ link register save eliminated.
 694 0000 84B0     		sub	sp, sp, #16
 695              		.cfi_def_cfa_offset 16
 696 0002 0190     		str	r0, [sp, #4]
 697 0004 0B46     		mov	r3, r1
 698 0006 8DF80330 		strb	r3, [sp, #3]
 699              		.loc 1 792 0
 700 000a 019B     		ldr	r3, [sp, #4]
 701 000c 9B69     		ldr	r3, [r3, #24]
 702 000e DB68     		ldr	r3, [r3, #12]
 703 0010 0393     		str	r3, [sp, #12]
 704              		.loc 1 801 0
 705 0012 9DF80330 		ldrb	r3, [sp, #3]	@ zero_extendqisi2
 706 0016 0222     		movs	r2, #2
 707 0018 02FA03F3 		lsl	r3, r2, r3
 708 001c 1A46     		mov	r2, r3
 709 001e 039B     		ldr	r3, [sp, #12]
 710 0020 1340     		ands	r3, r3, r2
 711 0022 002B     		cmp	r3, #0
 712 0024 13D1     		bne	.L43
 713              		.loc 1 802 0
 714 0026 019B     		ldr	r3, [sp, #4]
 715 0028 9B69     		ldr	r3, [r3, #24]
 716 002a 9DF80320 		ldrb	r2, [sp, #3]	@ zero_extendqisi2
 717 002e 0221     		movs	r1, #2
 718 0030 01FA02F2 		lsl	r2, r1, r2
 719 0034 1146     		mov	r1, r2
 720 0036 039A     		ldr	r2, [sp, #12]
 721 0038 0A43     		orrs	r2, r2, r1
 722 003a DA60     		str	r2, [r3, #12]
 723              		.loc 1 803 0
 724 003c 019B     		ldr	r3, [sp, #4]
 725 003e 9B69     		ldr	r3, [r3, #24]
 726 0040 9DF80320 		ldrb	r2, [sp, #3]	@ zero_extendqisi2
 727 0044 0221     		movs	r1, #2
 728 0046 01FA02F2 		lsl	r2, r1, r2
 729 004a D243     		mvns	r2, r2
 730 004c 1A61     		str	r2, [r3, #16]
 731              	.L43:
 732              		.loc 1 805 0
 733 004e 00BF     		nop
 734 0050 04B0     		add	sp, sp, #16
 735              		.cfi_def_cfa_offset 0
 736              		@ sp needed
 737 0052 7047     		bx	lr
ARM GAS  /tmp/cceOnO2h.s 			page 14


 738              		.cfi_endproc
 739              	.LFE277:
 740              		.size	pwm_lld_enable_channel_notification, .-pwm_lld_enable_channel_notification
 741              		.section	.text.pwm_lld_disable_channel_notification,"ax",%progbits
 742              		.align	1
 743              		.p2align 4,,15
 744              		.global	pwm_lld_disable_channel_notification
 745              		.syntax unified
 746              		.thumb
 747              		.thumb_func
 748              		.fpu fpv4-sp-d16
 749              		.type	pwm_lld_disable_channel_notification, %function
 750              	pwm_lld_disable_channel_notification:
 751              	.LFB278:
 752              		.loc 1 819 0
 753              		.cfi_startproc
 754              		@ args = 0, pretend = 0, frame = 8
 755              		@ frame_needed = 0, uses_anonymous_args = 0
 756              		@ link register save eliminated.
 757 0000 82B0     		sub	sp, sp, #8
 758              		.cfi_def_cfa_offset 8
 759 0002 0190     		str	r0, [sp, #4]
 760 0004 0B46     		mov	r3, r1
 761 0006 8DF80330 		strb	r3, [sp, #3]
 762              		.loc 1 821 0
 763 000a 019B     		ldr	r3, [sp, #4]
 764 000c 9B69     		ldr	r3, [r3, #24]
 765 000e 019A     		ldr	r2, [sp, #4]
 766 0010 9269     		ldr	r2, [r2, #24]
 767 0012 D268     		ldr	r2, [r2, #12]
 768 0014 9DF80310 		ldrb	r1, [sp, #3]	@ zero_extendqisi2
 769 0018 0220     		movs	r0, #2
 770 001a 00FA01F1 		lsl	r1, r0, r1
 771 001e C943     		mvns	r1, r1
 772 0020 0A40     		ands	r2, r2, r1
 773 0022 DA60     		str	r2, [r3, #12]
 774              		.loc 1 822 0
 775 0024 00BF     		nop
 776 0026 02B0     		add	sp, sp, #8
 777              		.cfi_def_cfa_offset 0
 778              		@ sp needed
 779 0028 7047     		bx	lr
 780              		.cfi_endproc
 781              	.LFE278:
 782              		.size	pwm_lld_disable_channel_notification, .-pwm_lld_disable_channel_notification
 783 002a 00BF     		.section	.text.pwm_lld_serve_interrupt,"ax",%progbits
 784              		.align	1
 785              		.p2align 4,,15
 786              		.global	pwm_lld_serve_interrupt
 787              		.syntax unified
 788              		.thumb
 789              		.thumb_func
 790              		.fpu fpv4-sp-d16
 791              		.type	pwm_lld_serve_interrupt, %function
 792              	pwm_lld_serve_interrupt:
 793              	.LFB279:
 794              		.loc 1 834 0
ARM GAS  /tmp/cceOnO2h.s 			page 15


 795              		.cfi_startproc
 796              		@ args = 0, pretend = 0, frame = 16
 797              		@ frame_needed = 0, uses_anonymous_args = 0
 798 0000 00B5     		push	{lr}
 799              		.cfi_def_cfa_offset 4
 800              		.cfi_offset 14, -4
 801 0002 85B0     		sub	sp, sp, #20
 802              		.cfi_def_cfa_offset 24
 803 0004 0190     		str	r0, [sp, #4]
 804              		.loc 1 837 0
 805 0006 019B     		ldr	r3, [sp, #4]
 806 0008 9B69     		ldr	r3, [r3, #24]
 807 000a 1B69     		ldr	r3, [r3, #16]
 808 000c 0393     		str	r3, [sp, #12]
 809              		.loc 1 838 0
 810 000e 019B     		ldr	r3, [sp, #4]
 811 0010 9B69     		ldr	r3, [r3, #24]
 812 0012 DB68     		ldr	r3, [r3, #12]
 813 0014 DBB2     		uxtb	r3, r3
 814 0016 039A     		ldr	r2, [sp, #12]
 815 0018 1340     		ands	r3, r3, r2
 816 001a 0393     		str	r3, [sp, #12]
 817              		.loc 1 839 0
 818 001c 019B     		ldr	r3, [sp, #4]
 819 001e 9B69     		ldr	r3, [r3, #24]
 820 0020 039A     		ldr	r2, [sp, #12]
 821 0022 D243     		mvns	r2, r2
 822 0024 1A61     		str	r2, [r3, #16]
 823              		.loc 1 840 0
 824 0026 039B     		ldr	r3, [sp, #12]
 825 0028 03F00203 		and	r3, r3, #2
 826 002c 002B     		cmp	r3, #0
 827 002e 09D0     		beq	.L46
 828              		.loc 1 841 0 discriminator 1
 829 0030 019B     		ldr	r3, [sp, #4]
 830 0032 5B68     		ldr	r3, [r3, #4]
 831 0034 1B69     		ldr	r3, [r3, #16]
 832              		.loc 1 840 0 discriminator 1
 833 0036 002B     		cmp	r3, #0
 834 0038 04D0     		beq	.L46
 835              		.loc 1 842 0
 836 003a 019B     		ldr	r3, [sp, #4]
 837 003c 5B68     		ldr	r3, [r3, #4]
 838 003e 1B69     		ldr	r3, [r3, #16]
 839 0040 0198     		ldr	r0, [sp, #4]
 840 0042 9847     		blx	r3
 841              	.LVL0:
 842              	.L46:
 843              		.loc 1 843 0
 844 0044 039B     		ldr	r3, [sp, #12]
 845 0046 03F00403 		and	r3, r3, #4
 846 004a 002B     		cmp	r3, #0
 847 004c 09D0     		beq	.L47
 848              		.loc 1 844 0 discriminator 1
 849 004e 019B     		ldr	r3, [sp, #4]
 850 0050 5B68     		ldr	r3, [r3, #4]
 851 0052 9B69     		ldr	r3, [r3, #24]
ARM GAS  /tmp/cceOnO2h.s 			page 16


 852              		.loc 1 843 0 discriminator 1
 853 0054 002B     		cmp	r3, #0
 854 0056 04D0     		beq	.L47
 855              		.loc 1 845 0
 856 0058 019B     		ldr	r3, [sp, #4]
 857 005a 5B68     		ldr	r3, [r3, #4]
 858 005c 9B69     		ldr	r3, [r3, #24]
 859 005e 0198     		ldr	r0, [sp, #4]
 860 0060 9847     		blx	r3
 861              	.LVL1:
 862              	.L47:
 863              		.loc 1 846 0
 864 0062 039B     		ldr	r3, [sp, #12]
 865 0064 03F00803 		and	r3, r3, #8
 866 0068 002B     		cmp	r3, #0
 867 006a 09D0     		beq	.L48
 868              		.loc 1 847 0 discriminator 1
 869 006c 019B     		ldr	r3, [sp, #4]
 870 006e 5B68     		ldr	r3, [r3, #4]
 871 0070 1B6A     		ldr	r3, [r3, #32]
 872              		.loc 1 846 0 discriminator 1
 873 0072 002B     		cmp	r3, #0
 874 0074 04D0     		beq	.L48
 875              		.loc 1 848 0
 876 0076 019B     		ldr	r3, [sp, #4]
 877 0078 5B68     		ldr	r3, [r3, #4]
 878 007a 1B6A     		ldr	r3, [r3, #32]
 879 007c 0198     		ldr	r0, [sp, #4]
 880 007e 9847     		blx	r3
 881              	.LVL2:
 882              	.L48:
 883              		.loc 1 849 0
 884 0080 039B     		ldr	r3, [sp, #12]
 885 0082 03F01003 		and	r3, r3, #16
 886 0086 002B     		cmp	r3, #0
 887 0088 09D0     		beq	.L49
 888              		.loc 1 850 0 discriminator 1
 889 008a 019B     		ldr	r3, [sp, #4]
 890 008c 5B68     		ldr	r3, [r3, #4]
 891 008e 9B6A     		ldr	r3, [r3, #40]
 892              		.loc 1 849 0 discriminator 1
 893 0090 002B     		cmp	r3, #0
 894 0092 04D0     		beq	.L49
 895              		.loc 1 851 0
 896 0094 019B     		ldr	r3, [sp, #4]
 897 0096 5B68     		ldr	r3, [r3, #4]
 898 0098 9B6A     		ldr	r3, [r3, #40]
 899 009a 0198     		ldr	r0, [sp, #4]
 900 009c 9847     		blx	r3
 901              	.LVL3:
 902              	.L49:
 903              		.loc 1 852 0
 904 009e 039B     		ldr	r3, [sp, #12]
 905 00a0 03F00103 		and	r3, r3, #1
 906 00a4 002B     		cmp	r3, #0
 907 00a6 09D0     		beq	.L51
 908              		.loc 1 852 0 is_stmt 0 discriminator 1
ARM GAS  /tmp/cceOnO2h.s 			page 17


 909 00a8 019B     		ldr	r3, [sp, #4]
 910 00aa 5B68     		ldr	r3, [r3, #4]
 911 00ac 9B68     		ldr	r3, [r3, #8]
 912 00ae 002B     		cmp	r3, #0
 913 00b0 04D0     		beq	.L51
 914              		.loc 1 853 0 is_stmt 1
 915 00b2 019B     		ldr	r3, [sp, #4]
 916 00b4 5B68     		ldr	r3, [r3, #4]
 917 00b6 9B68     		ldr	r3, [r3, #8]
 918 00b8 0198     		ldr	r0, [sp, #4]
 919 00ba 9847     		blx	r3
 920              	.LVL4:
 921              	.L51:
 922              		.loc 1 854 0
 923 00bc 00BF     		nop
 924 00be 05B0     		add	sp, sp, #20
 925              		.cfi_def_cfa_offset 4
 926              		@ sp needed
 927 00c0 5DF804FB 		ldr	pc, [sp], #4
 928              		.cfi_endproc
 929              	.LFE279:
 930              		.size	pwm_lld_serve_interrupt, .-pwm_lld_serve_interrupt
 931              		.section	.rodata.__func__.9039,"a",%progbits
 932              		.align	2
 933              		.type	__func__.9039, %object
 934              		.size	__func__.9039, 14
 935              	__func__.9039:
 936 0000 70776D5F 		.ascii	"pwm_lld_start\000"
 936      6C6C645F 
 936      73746172 
 936      7400
 937              		.text
 938              	.Letext0:
 939              		.file 2 "/usr/lib/gcc/arm-none-eabi/6.3.1/include/stddef.h"
 940              		.file 3 "/usr/arm-none-eabi/include/machine/_default_types.h"
 941              		.file 4 "/usr/arm-none-eabi/include/sys/_stdint.h"
 942              		.file 5 "../ChibiOS/os/rt/ports/ARMCMx/compilers/GCC/chtypes.h"
 943              		.file 6 "../ChibiOS/os/rt/include/chsystypes.h"
 944              		.file 7 "../ChibiOS/os/rt/include/chschd.h"
 945              		.file 8 "../ChibiOS/os/ext/CMSIS/include/core_cm4.h"
 946              		.file 9 "../ChibiOS/os/ext/CMSIS/ST/STM32F4xx/system_stm32f4xx.h"
 947              		.file 10 "../ChibiOS/os/ext/CMSIS/ST/STM32F4xx/stm32f437xx.h"
 948              		.file 11 "../ChibiOS/os/rt/ports/ARMCMx/chcore.h"
 949              		.file 12 "../ChibiOS/os/rt/ports/ARMCMx/chcore_v7m.h"
 950              		.file 13 "../ChibiOS/os/rt/include/chtm.h"
 951              		.file 14 "../ChibiOS/os/rt/include/chstats.h"
 952              		.file 15 "../ChibiOS/os/rt/include/chsem.h"
 953              		.file 16 "../ChibiOS/os/rt/include/chmtx.h"
 954              		.file 17 "../ChibiOS/os/rt/include/chregistry.h"
 955              		.file 18 "../ChibiOS/os/rt/include/chevents.h"
 956              		.file 19 "../ChibiOS/os/rt/include/chqueues.h"
 957              		.file 20 "../ChibiOS/os/hal/ports/STM32/LLD/DMAv2/stm32_dma.h"
 958              		.file 21 "../ChibiOS/os/hal/ports/STM32/LLD/GPIOv2/pal_lld.h"
 959              		.file 22 "../ChibiOS/os/hal/include/ext.h"
 960              		.file 23 "../ChibiOS/os/hal/ports/STM32/LLD/EXTIv1/ext_lld.h"
 961              		.file 24 "../ChibiOS/os/hal/include/gpt.h"
 962              		.file 25 "../ChibiOS/os/hal/ports/STM32/LLD/TIMv1/gpt_lld.h"
ARM GAS  /tmp/cceOnO2h.s 			page 18


 963              		.file 26 "../ChibiOS/os/hal/ports/STM32/LLD/TIMv1/stm32_tim.h"
 964              		.file 27 "../ChibiOS/os/hal/include/pwm.h"
 965              		.file 28 "../ChibiOS/os/hal/ports/STM32/LLD/TIMv1/pwm_lld.h"
 966              		.file 29 "../ChibiOS/os/hal/include/serial.h"
 967              		.file 30 "../ChibiOS/os/hal/ports/STM32/LLD/USARTv1/serial_lld.h"
 968              		.file 31 "../ChibiOS/os/hal/include/usb.h"
 969              		.file 32 "../ChibiOS/os/hal/ports/STM32/LLD/OTGv1/usb_lld.h"
 970              		.file 33 "../ChibiOS/os/hal/ports/STM32/LLD/OTGv1/stm32_otg.h"