ARM GAS  /tmp/ccck2fKm.s 			page 1


   1              		.cpu cortex-m4
   2              		.eabi_attribute 27, 1
   3              		.eabi_attribute 28, 1
   4              		.eabi_attribute 20, 1
   5              		.eabi_attribute 21, 1
   6              		.eabi_attribute 23, 3
   7              		.eabi_attribute 24, 1
   8              		.eabi_attribute 25, 1
   9              		.eabi_attribute 26, 1
  10              		.eabi_attribute 30, 6
  11              		.eabi_attribute 34, 1
  12              		.eabi_attribute 18, 4
  13              		.file	"serial.c"
  14              		.text
  15              	.Ltext0:
  16              		.cfi_sections	.debug_frame
  17              		.section	.text.port_lock,"ax",%progbits
  18              		.align	1
  19              		.p2align 4,,15
  20              		.syntax unified
  21              		.thumb
  22              		.thumb_func
  23              		.fpu fpv4-sp-d16
  24              		.type	port_lock, %function
  25              	port_lock:
  26              	.LFB127:
  27              		.file 1 "../ChibiOS/os/rt/ports/ARMCMx/chcore_v7m.h"
  28              		.loc 1 456 0
  29              		.cfi_startproc
  30              		@ args = 0, pretend = 0, frame = 8
  31              		@ frame_needed = 0, uses_anonymous_args = 0
  32              		@ link register save eliminated.
  33 0000 82B0     		sub	sp, sp, #8
  34              		.cfi_def_cfa_offset 8
  35 0002 2023     		movs	r3, #32
  36 0004 0193     		str	r3, [sp, #4]
  37              	.LBB6:
  38              	.LBB7:
  39              		.file 2 "../ChibiOS/os/ext/CMSIS/include/core_cmFunc.h"
  40              		.loc 2 548 0
  41 0006 019B     		ldr	r3, [sp, #4]
  42              		.syntax unified
  43              	@ 548 "../ChibiOS/os/ext/CMSIS/include/core_cmFunc.h" 1
  44 0008 83F31188 		MSR basepri, r3
  45              	@ 0 "" 2
  46              		.thumb
  47              		.syntax unified
  48              	.LBE7:
  49              	.LBE6:
  50              		.loc 1 473 0
  51 000c 00BF     		nop
  52 000e 02B0     		add	sp, sp, #8
  53              		.cfi_def_cfa_offset 0
  54              		@ sp needed
  55 0010 7047     		bx	lr
  56              		.cfi_endproc
  57              	.LFE127:
ARM GAS  /tmp/ccck2fKm.s 			page 2


  58              		.size	port_lock, .-port_lock
  59 0012 00BF     		.section	.text.port_unlock,"ax",%progbits
  60              		.align	1
  61              		.p2align 4,,15
  62              		.syntax unified
  63              		.thumb
  64              		.thumb_func
  65              		.fpu fpv4-sp-d16
  66              		.type	port_unlock, %function
  67              	port_unlock:
  68              	.LFB128:
  69              		.loc 1 480 0
  70              		.cfi_startproc
  71              		@ args = 0, pretend = 0, frame = 8
  72              		@ frame_needed = 0, uses_anonymous_args = 0
  73              		@ link register save eliminated.
  74 0000 82B0     		sub	sp, sp, #8
  75              		.cfi_def_cfa_offset 8
  76 0002 0023     		movs	r3, #0
  77 0004 0193     		str	r3, [sp, #4]
  78              	.LBB8:
  79              	.LBB9:
  80              		.loc 2 548 0
  81 0006 019B     		ldr	r3, [sp, #4]
  82              		.syntax unified
  83              	@ 548 "../ChibiOS/os/ext/CMSIS/include/core_cmFunc.h" 1
  84 0008 83F31188 		MSR basepri, r3
  85              	@ 0 "" 2
  86              		.thumb
  87              		.syntax unified
  88              	.LBE9:
  89              	.LBE8:
  90              		.loc 1 487 0
  91 000c 00BF     		nop
  92 000e 02B0     		add	sp, sp, #8
  93              		.cfi_def_cfa_offset 0
  94              		@ sp needed
  95 0010 7047     		bx	lr
  96              		.cfi_endproc
  97              	.LFE128:
  98              		.size	port_unlock, .-port_unlock
  99 0012 00BF     		.section	.text.chSysLock,"ax",%progbits
 100              		.align	1
 101              		.p2align 4,,15
 102              		.syntax unified
 103              		.thumb
 104              		.thumb_func
 105              		.fpu fpv4-sp-d16
 106              		.type	chSysLock, %function
 107              	chSysLock:
 108              	.LFB156:
 109              		.file 3 "../ChibiOS/os/rt/include/chsys.h"
 110              		.loc 3 346 0
 111              		.cfi_startproc
 112              		@ args = 0, pretend = 0, frame = 0
 113              		@ frame_needed = 0, uses_anonymous_args = 0
 114 0000 08B5     		push	{r3, lr}
ARM GAS  /tmp/ccck2fKm.s 			page 3


 115              		.cfi_def_cfa_offset 8
 116              		.cfi_offset 3, -8
 117              		.cfi_offset 14, -4
 118              		.loc 3 348 0
 119 0002 FFF7FEFF 		bl	port_lock
 120              		.loc 3 349 0
 121 0006 FFF7FEFF 		bl	_stats_start_measure_crit_thd
 122              		.loc 3 350 0
 123 000a FFF7FEFF 		bl	_dbg_check_lock
 124              		.loc 3 351 0
 125 000e 00BF     		nop
 126 0010 08BD     		pop	{r3, pc}
 127              		.cfi_endproc
 128              	.LFE156:
 129              		.size	chSysLock, .-chSysLock
 130 0012 00BF     		.section	.text.chSysUnlock,"ax",%progbits
 131              		.align	1
 132              		.p2align 4,,15
 133              		.syntax unified
 134              		.thumb
 135              		.thumb_func
 136              		.fpu fpv4-sp-d16
 137              		.type	chSysUnlock, %function
 138              	chSysUnlock:
 139              	.LFB157:
 140              		.loc 3 358 0
 141              		.cfi_startproc
 142              		@ args = 0, pretend = 0, frame = 0
 143              		@ frame_needed = 0, uses_anonymous_args = 0
 144 0000 08B5     		push	{r3, lr}
 145              		.cfi_def_cfa_offset 8
 146              		.cfi_offset 3, -8
 147              		.cfi_offset 14, -4
 148              		.loc 3 360 0
 149 0002 FFF7FEFF 		bl	_dbg_check_unlock
 150              		.loc 3 361 0
 151 0006 FFF7FEFF 		bl	_stats_stop_measure_crit_thd
 152              		.loc 3 367 0
 153 000a 0A4B     		ldr	r3, .L6
 154 000c 1B68     		ldr	r3, [r3]
 155 000e 094A     		ldr	r2, .L6
 156 0010 9342     		cmp	r3, r2
 157 0012 0AD0     		beq	.L5
 158              		.loc 3 367 0 is_stmt 0 discriminator 2
 159 0014 074B     		ldr	r3, .L6
 160 0016 9B69     		ldr	r3, [r3, #24]
 161 0018 9A68     		ldr	r2, [r3, #8]
 162 001a 064B     		ldr	r3, .L6
 163 001c 1B68     		ldr	r3, [r3]
 164 001e 9B68     		ldr	r3, [r3, #8]
 165 0020 9A42     		cmp	r2, r3
 166 0022 02D2     		bcs	.L5
 167              		.loc 3 367 0 discriminator 3
 168 0024 0448     		ldr	r0, .L6+4
 169 0026 FFF7FEFF 		bl	chSysHalt
 170              	.L5:
 171              		.loc 3 371 0 is_stmt 1
ARM GAS  /tmp/ccck2fKm.s 			page 4


 172 002a FFF7FEFF 		bl	port_unlock
 173              		.loc 3 372 0
 174 002e 00BF     		nop
 175 0030 08BD     		pop	{r3, pc}
 176              	.L7:
 177 0032 00BF     		.align	2
 178              	.L6:
 179 0034 00000000 		.word	ch
 180 0038 00000000 		.word	__func__.7157
 181              		.cfi_endproc
 182              	.LFE157:
 183              		.size	chSysUnlock, .-chSysUnlock
 184              		.section	.text.chEvtObjectInit,"ax",%progbits
 185              		.align	1
 186              		.p2align 4,,15
 187              		.syntax unified
 188              		.thumb
 189              		.thumb_func
 190              		.fpu fpv4-sp-d16
 191              		.type	chEvtObjectInit, %function
 192              	chEvtObjectInit:
 193              	.LFB205:
 194              		.file 4 "../ChibiOS/os/rt/include/chevents.h"
 195              		.loc 4 170 0
 196              		.cfi_startproc
 197              		@ args = 0, pretend = 0, frame = 8
 198              		@ frame_needed = 0, uses_anonymous_args = 0
 199              		@ link register save eliminated.
 200 0000 82B0     		sub	sp, sp, #8
 201              		.cfi_def_cfa_offset 8
 202 0002 0190     		str	r0, [sp, #4]
 203              		.loc 4 172 0
 204 0004 019B     		ldr	r3, [sp, #4]
 205 0006 019A     		ldr	r2, [sp, #4]
 206 0008 1A60     		str	r2, [r3]
 207              		.loc 4 173 0
 208 000a 00BF     		nop
 209 000c 02B0     		add	sp, sp, #8
 210              		.cfi_def_cfa_offset 0
 211              		@ sp needed
 212 000e 7047     		bx	lr
 213              		.cfi_endproc
 214              	.LFE205:
 215              		.size	chEvtObjectInit, .-chEvtObjectInit
 216              		.section	.text.chIQIsEmptyI,"ax",%progbits
 217              		.align	1
 218              		.p2align 4,,15
 219              		.syntax unified
 220              		.thumb
 221              		.thumb_func
 222              		.fpu fpv4-sp-d16
 223              		.type	chIQIsEmptyI, %function
 224              	chIQIsEmptyI:
 225              	.LFB223:
 226              		.file 5 "../ChibiOS/os/rt/include/chqueues.h"
 227              		.loc 5 303 0
 228              		.cfi_startproc
ARM GAS  /tmp/ccck2fKm.s 			page 5


 229              		@ args = 0, pretend = 0, frame = 8
 230              		@ frame_needed = 0, uses_anonymous_args = 0
 231 0000 00B5     		push	{lr}
 232              		.cfi_def_cfa_offset 4
 233              		.cfi_offset 14, -4
 234 0002 83B0     		sub	sp, sp, #12
 235              		.cfi_def_cfa_offset 16
 236 0004 0190     		str	r0, [sp, #4]
 237              		.loc 5 305 0
 238 0006 FFF7FEFF 		bl	chDbgCheckClassI
 239              		.loc 5 307 0
 240 000a 019B     		ldr	r3, [sp, #4]
 241 000c 9B68     		ldr	r3, [r3, #8]
 242 000e 002B     		cmp	r3, #0
 243 0010 0CBF     		ite	eq
 244 0012 0123     		moveq	r3, #1
 245 0014 0023     		movne	r3, #0
 246 0016 DBB2     		uxtb	r3, r3
 247              		.loc 5 308 0
 248 0018 1846     		mov	r0, r3
 249 001a 03B0     		add	sp, sp, #12
 250              		.cfi_def_cfa_offset 4
 251              		@ sp needed
 252 001c 5DF804FB 		ldr	pc, [sp], #4
 253              		.cfi_endproc
 254              	.LFE223:
 255              		.size	chIQIsEmptyI, .-chIQIsEmptyI
 256              		.section	.text.chOQIsFullI,"ax",%progbits
 257              		.align	1
 258              		.p2align 4,,15
 259              		.syntax unified
 260              		.thumb
 261              		.thumb_func
 262              		.fpu fpv4-sp-d16
 263              		.type	chOQIsFullI, %function
 264              	chOQIsFullI:
 265              	.LFB229:
 266              		.loc 5 407 0
 267              		.cfi_startproc
 268              		@ args = 0, pretend = 0, frame = 8
 269              		@ frame_needed = 0, uses_anonymous_args = 0
 270 0000 00B5     		push	{lr}
 271              		.cfi_def_cfa_offset 4
 272              		.cfi_offset 14, -4
 273 0002 83B0     		sub	sp, sp, #12
 274              		.cfi_def_cfa_offset 16
 275 0004 0190     		str	r0, [sp, #4]
 276              		.loc 5 409 0
 277 0006 FFF7FEFF 		bl	chDbgCheckClassI
 278              		.loc 5 411 0
 279 000a 019B     		ldr	r3, [sp, #4]
 280 000c 9B68     		ldr	r3, [r3, #8]
 281 000e 002B     		cmp	r3, #0
 282 0010 0CBF     		ite	eq
 283 0012 0123     		moveq	r3, #1
 284 0014 0023     		movne	r3, #0
 285 0016 DBB2     		uxtb	r3, r3
ARM GAS  /tmp/ccck2fKm.s 			page 6


 286              		.loc 5 412 0
 287 0018 1846     		mov	r0, r3
 288 001a 03B0     		add	sp, sp, #12
 289              		.cfi_def_cfa_offset 4
 290              		@ sp needed
 291 001c 5DF804FB 		ldr	pc, [sp], #4
 292              		.cfi_endproc
 293              	.LFE229:
 294              		.size	chOQIsFullI, .-chOQIsFullI
 295              		.section	.text.osalSysLock,"ax",%progbits
 296              		.align	1
 297              		.p2align 4,,15
 298              		.syntax unified
 299              		.thumb
 300              		.thumb_func
 301              		.fpu fpv4-sp-d16
 302              		.type	osalSysLock, %function
 303              	osalSysLock:
 304              	.LFB235:
 305              		.file 6 "../ChibiOS/os/hal/osal/rt/osal.h"
 306              		.loc 6 491 0
 307              		.cfi_startproc
 308              		@ args = 0, pretend = 0, frame = 0
 309              		@ frame_needed = 0, uses_anonymous_args = 0
 310 0000 08B5     		push	{r3, lr}
 311              		.cfi_def_cfa_offset 8
 312              		.cfi_offset 3, -8
 313              		.cfi_offset 14, -4
 314              		.loc 6 493 0
 315 0002 FFF7FEFF 		bl	chSysLock
 316              		.loc 6 494 0
 317 0006 00BF     		nop
 318 0008 08BD     		pop	{r3, pc}
 319              		.cfi_endproc
 320              	.LFE235:
 321              		.size	osalSysLock, .-osalSysLock
 322 000a 00BF     		.section	.text.osalSysUnlock,"ax",%progbits
 323              		.align	1
 324              		.p2align 4,,15
 325              		.syntax unified
 326              		.thumb
 327              		.thumb_func
 328              		.fpu fpv4-sp-d16
 329              		.type	osalSysUnlock, %function
 330              	osalSysUnlock:
 331              	.LFB236:
 332              		.loc 6 502 0
 333              		.cfi_startproc
 334              		@ args = 0, pretend = 0, frame = 0
 335              		@ frame_needed = 0, uses_anonymous_args = 0
 336 0000 08B5     		push	{r3, lr}
 337              		.cfi_def_cfa_offset 8
 338              		.cfi_offset 3, -8
 339              		.cfi_offset 14, -4
 340              		.loc 6 504 0
 341 0002 FFF7FEFF 		bl	chSysUnlock
 342              		.loc 6 505 0
ARM GAS  /tmp/ccck2fKm.s 			page 7


 343 0006 00BF     		nop
 344 0008 08BD     		pop	{r3, pc}
 345              		.cfi_endproc
 346              	.LFE236:
 347              		.size	osalSysUnlock, .-osalSysUnlock
 348              		.section	.text.osalOsRescheduleS,"ax",%progbits
 349              		.align	1
 350              		.p2align 4,,15
 351              		.syntax unified
 352              		.thumb
 353              		.thumb_func
 354              		.fpu fpv4-sp-d16
 355              		.type	osalOsRescheduleS, %function
 356              	osalOsRescheduleS:
 357              	.LFB243:
 358              		.loc 6 598 0
 359              		.cfi_startproc
 360              		@ args = 0, pretend = 0, frame = 0
 361              		@ frame_needed = 0, uses_anonymous_args = 0
 362 0000 08B5     		push	{r3, lr}
 363              		.cfi_def_cfa_offset 8
 364              		.cfi_offset 3, -8
 365              		.cfi_offset 14, -4
 366              		.loc 6 600 0
 367 0002 FFF7FEFF 		bl	chSchRescheduleS
 368              		.loc 6 601 0
 369 0006 00BF     		nop
 370 0008 08BD     		pop	{r3, pc}
 371              		.cfi_endproc
 372              	.LFE243:
 373              		.size	osalOsRescheduleS, .-osalOsRescheduleS
 374              		.section	.text.osalEventObjectInit,"ax",%progbits
 375              		.align	1
 376              		.p2align 4,,15
 377              		.syntax unified
 378              		.thumb
 379              		.thumb_func
 380              		.fpu fpv4-sp-d16
 381              		.type	osalEventObjectInit, %function
 382              	osalEventObjectInit:
 383              	.LFB256:
 384              		.loc 6 821 0
 385              		.cfi_startproc
 386              		@ args = 0, pretend = 0, frame = 8
 387              		@ frame_needed = 0, uses_anonymous_args = 0
 388 0000 00B5     		push	{lr}
 389              		.cfi_def_cfa_offset 4
 390              		.cfi_offset 14, -4
 391 0002 83B0     		sub	sp, sp, #12
 392              		.cfi_def_cfa_offset 16
 393 0004 0190     		str	r0, [sp, #4]
 394              		.loc 6 823 0
 395 0006 0198     		ldr	r0, [sp, #4]
 396 0008 FFF7FEFF 		bl	chEvtObjectInit
 397              		.loc 6 824 0
 398 000c 00BF     		nop
 399 000e 03B0     		add	sp, sp, #12
ARM GAS  /tmp/ccck2fKm.s 			page 8


 400              		.cfi_def_cfa_offset 4
 401              		@ sp needed
 402 0010 5DF804FB 		ldr	pc, [sp], #4
 403              		.cfi_endproc
 404              	.LFE256:
 405              		.size	osalEventObjectInit, .-osalEventObjectInit
 406              		.section	.text.osalEventBroadcastFlagsI,"ax",%progbits
 407              		.align	1
 408              		.p2align 4,,15
 409              		.syntax unified
 410              		.thumb
 411              		.thumb_func
 412              		.fpu fpv4-sp-d16
 413              		.type	osalEventBroadcastFlagsI, %function
 414              	osalEventBroadcastFlagsI:
 415              	.LFB257:
 416              		.loc 6 842 0
 417              		.cfi_startproc
 418              		@ args = 0, pretend = 0, frame = 8
 419              		@ frame_needed = 0, uses_anonymous_args = 0
 420 0000 00B5     		push	{lr}
 421              		.cfi_def_cfa_offset 4
 422              		.cfi_offset 14, -4
 423 0002 83B0     		sub	sp, sp, #12
 424              		.cfi_def_cfa_offset 16
 425 0004 0190     		str	r0, [sp, #4]
 426 0006 0091     		str	r1, [sp]
 427              		.loc 6 844 0
 428 0008 0099     		ldr	r1, [sp]
 429 000a 0198     		ldr	r0, [sp, #4]
 430 000c FFF7FEFF 		bl	chEvtBroadcastFlagsI
 431              		.loc 6 845 0
 432 0010 00BF     		nop
 433 0012 03B0     		add	sp, sp, #12
 434              		.cfi_def_cfa_offset 4
 435              		@ sp needed
 436 0014 5DF804FB 		ldr	pc, [sp], #4
 437              		.cfi_endproc
 438              	.LFE257:
 439              		.size	osalEventBroadcastFlagsI, .-osalEventBroadcastFlagsI
 440              		.section	.text.write,"ax",%progbits
 441              		.align	1
 442              		.p2align 4,,15
 443              		.syntax unified
 444              		.thumb
 445              		.thumb_func
 446              		.fpu fpv4-sp-d16
 447              		.type	write, %function
 448              	write:
 449              	.LFB268:
 450              		.file 7 "../ChibiOS/os/hal/src/serial.c"
 451              		.loc 7 50 0
 452              		.cfi_startproc
 453              		@ args = 0, pretend = 0, frame = 16
 454              		@ frame_needed = 0, uses_anonymous_args = 0
 455 0000 00B5     		push	{lr}
 456              		.cfi_def_cfa_offset 4
ARM GAS  /tmp/ccck2fKm.s 			page 9


 457              		.cfi_offset 14, -4
 458 0002 85B0     		sub	sp, sp, #20
 459              		.cfi_def_cfa_offset 24
 460 0004 0390     		str	r0, [sp, #12]
 461 0006 0291     		str	r1, [sp, #8]
 462 0008 0192     		str	r2, [sp, #4]
 463              		.loc 7 52 0
 464 000a 039B     		ldr	r3, [sp, #12]
 465 000c 03F13000 		add	r0, r3, #48
 466 0010 4FF0FF33 		mov	r3, #-1
 467 0014 019A     		ldr	r2, [sp, #4]
 468 0016 0299     		ldr	r1, [sp, #8]
 469 0018 FFF7FEFF 		bl	chOQWriteTimeout
 470 001c 0346     		mov	r3, r0
 471              		.loc 7 54 0
 472 001e 1846     		mov	r0, r3
 473 0020 05B0     		add	sp, sp, #20
 474              		.cfi_def_cfa_offset 4
 475              		@ sp needed
 476 0022 5DF804FB 		ldr	pc, [sp], #4
 477              		.cfi_endproc
 478              	.LFE268:
 479              		.size	write, .-write
 480 0026 00BF     		.section	.text.read,"ax",%progbits
 481              		.align	1
 482              		.p2align 4,,15
 483              		.syntax unified
 484              		.thumb
 485              		.thumb_func
 486              		.fpu fpv4-sp-d16
 487              		.type	read, %function
 488              	read:
 489              	.LFB269:
 490              		.loc 7 56 0
 491              		.cfi_startproc
 492              		@ args = 0, pretend = 0, frame = 16
 493              		@ frame_needed = 0, uses_anonymous_args = 0
 494 0000 00B5     		push	{lr}
 495              		.cfi_def_cfa_offset 4
 496              		.cfi_offset 14, -4
 497 0002 85B0     		sub	sp, sp, #20
 498              		.cfi_def_cfa_offset 24
 499 0004 0390     		str	r0, [sp, #12]
 500 0006 0291     		str	r1, [sp, #8]
 501 0008 0192     		str	r2, [sp, #4]
 502              		.loc 7 58 0
 503 000a 039B     		ldr	r3, [sp, #12]
 504 000c 03F10C00 		add	r0, r3, #12
 505 0010 4FF0FF33 		mov	r3, #-1
 506 0014 019A     		ldr	r2, [sp, #4]
 507 0016 0299     		ldr	r1, [sp, #8]
 508 0018 FFF7FEFF 		bl	chIQReadTimeout
 509 001c 0346     		mov	r3, r0
 510              		.loc 7 60 0
 511 001e 1846     		mov	r0, r3
 512 0020 05B0     		add	sp, sp, #20
 513              		.cfi_def_cfa_offset 4
ARM GAS  /tmp/ccck2fKm.s 			page 10


 514              		@ sp needed
 515 0022 5DF804FB 		ldr	pc, [sp], #4
 516              		.cfi_endproc
 517              	.LFE269:
 518              		.size	read, .-read
 519 0026 00BF     		.section	.text.put,"ax",%progbits
 520              		.align	1
 521              		.p2align 4,,15
 522              		.syntax unified
 523              		.thumb
 524              		.thumb_func
 525              		.fpu fpv4-sp-d16
 526              		.type	put, %function
 527              	put:
 528              	.LFB270:
 529              		.loc 7 62 0
 530              		.cfi_startproc
 531              		@ args = 0, pretend = 0, frame = 8
 532              		@ frame_needed = 0, uses_anonymous_args = 0
 533 0000 00B5     		push	{lr}
 534              		.cfi_def_cfa_offset 4
 535              		.cfi_offset 14, -4
 536 0002 83B0     		sub	sp, sp, #12
 537              		.cfi_def_cfa_offset 16
 538 0004 0190     		str	r0, [sp, #4]
 539 0006 0B46     		mov	r3, r1
 540 0008 8DF80330 		strb	r3, [sp, #3]
 541              		.loc 7 64 0
 542 000c 019B     		ldr	r3, [sp, #4]
 543 000e 3033     		adds	r3, r3, #48
 544 0010 9DF80310 		ldrb	r1, [sp, #3]	@ zero_extendqisi2
 545 0014 4FF0FF32 		mov	r2, #-1
 546 0018 1846     		mov	r0, r3
 547 001a FFF7FEFF 		bl	chOQPutTimeout
 548 001e 0346     		mov	r3, r0
 549              		.loc 7 65 0
 550 0020 1846     		mov	r0, r3
 551 0022 03B0     		add	sp, sp, #12
 552              		.cfi_def_cfa_offset 4
 553              		@ sp needed
 554 0024 5DF804FB 		ldr	pc, [sp], #4
 555              		.cfi_endproc
 556              	.LFE270:
 557              		.size	put, .-put
 558              		.section	.text.get,"ax",%progbits
 559              		.align	1
 560              		.p2align 4,,15
 561              		.syntax unified
 562              		.thumb
 563              		.thumb_func
 564              		.fpu fpv4-sp-d16
 565              		.type	get, %function
 566              	get:
 567              	.LFB271:
 568              		.loc 7 67 0
 569              		.cfi_startproc
 570              		@ args = 0, pretend = 0, frame = 8
ARM GAS  /tmp/ccck2fKm.s 			page 11


 571              		@ frame_needed = 0, uses_anonymous_args = 0
 572 0000 00B5     		push	{lr}
 573              		.cfi_def_cfa_offset 4
 574              		.cfi_offset 14, -4
 575 0002 83B0     		sub	sp, sp, #12
 576              		.cfi_def_cfa_offset 16
 577 0004 0190     		str	r0, [sp, #4]
 578              		.loc 7 69 0
 579 0006 019B     		ldr	r3, [sp, #4]
 580 0008 0C33     		adds	r3, r3, #12
 581 000a 4FF0FF31 		mov	r1, #-1
 582 000e 1846     		mov	r0, r3
 583 0010 FFF7FEFF 		bl	chIQGetTimeout
 584 0014 0346     		mov	r3, r0
 585              		.loc 7 70 0
 586 0016 1846     		mov	r0, r3
 587 0018 03B0     		add	sp, sp, #12
 588              		.cfi_def_cfa_offset 4
 589              		@ sp needed
 590 001a 5DF804FB 		ldr	pc, [sp], #4
 591              		.cfi_endproc
 592              	.LFE271:
 593              		.size	get, .-get
 594 001e 00BF     		.section	.text.putt,"ax",%progbits
 595              		.align	1
 596              		.p2align 4,,15
 597              		.syntax unified
 598              		.thumb
 599              		.thumb_func
 600              		.fpu fpv4-sp-d16
 601              		.type	putt, %function
 602              	putt:
 603              	.LFB272:
 604              		.loc 7 72 0
 605              		.cfi_startproc
 606              		@ args = 0, pretend = 0, frame = 16
 607              		@ frame_needed = 0, uses_anonymous_args = 0
 608 0000 00B5     		push	{lr}
 609              		.cfi_def_cfa_offset 4
 610              		.cfi_offset 14, -4
 611 0002 85B0     		sub	sp, sp, #20
 612              		.cfi_def_cfa_offset 24
 613 0004 0390     		str	r0, [sp, #12]
 614 0006 0B46     		mov	r3, r1
 615 0008 0192     		str	r2, [sp, #4]
 616 000a 8DF80B30 		strb	r3, [sp, #11]
 617              		.loc 7 74 0
 618 000e 039B     		ldr	r3, [sp, #12]
 619 0010 3033     		adds	r3, r3, #48
 620 0012 9DF80B10 		ldrb	r1, [sp, #11]	@ zero_extendqisi2
 621 0016 019A     		ldr	r2, [sp, #4]
 622 0018 1846     		mov	r0, r3
 623 001a FFF7FEFF 		bl	chOQPutTimeout
 624 001e 0346     		mov	r3, r0
 625              		.loc 7 75 0
 626 0020 1846     		mov	r0, r3
 627 0022 05B0     		add	sp, sp, #20
ARM GAS  /tmp/ccck2fKm.s 			page 12


 628              		.cfi_def_cfa_offset 4
 629              		@ sp needed
 630 0024 5DF804FB 		ldr	pc, [sp], #4
 631              		.cfi_endproc
 632              	.LFE272:
 633              		.size	putt, .-putt
 634              		.section	.text.gett,"ax",%progbits
 635              		.align	1
 636              		.p2align 4,,15
 637              		.syntax unified
 638              		.thumb
 639              		.thumb_func
 640              		.fpu fpv4-sp-d16
 641              		.type	gett, %function
 642              	gett:
 643              	.LFB273:
 644              		.loc 7 77 0
 645              		.cfi_startproc
 646              		@ args = 0, pretend = 0, frame = 8
 647              		@ frame_needed = 0, uses_anonymous_args = 0
 648 0000 00B5     		push	{lr}
 649              		.cfi_def_cfa_offset 4
 650              		.cfi_offset 14, -4
 651 0002 83B0     		sub	sp, sp, #12
 652              		.cfi_def_cfa_offset 16
 653 0004 0190     		str	r0, [sp, #4]
 654 0006 0091     		str	r1, [sp]
 655              		.loc 7 79 0
 656 0008 019B     		ldr	r3, [sp, #4]
 657 000a 0C33     		adds	r3, r3, #12
 658 000c 0099     		ldr	r1, [sp]
 659 000e 1846     		mov	r0, r3
 660 0010 FFF7FEFF 		bl	chIQGetTimeout
 661 0014 0346     		mov	r3, r0
 662              		.loc 7 80 0
 663 0016 1846     		mov	r0, r3
 664 0018 03B0     		add	sp, sp, #12
 665              		.cfi_def_cfa_offset 4
 666              		@ sp needed
 667 001a 5DF804FB 		ldr	pc, [sp], #4
 668              		.cfi_endproc
 669              	.LFE273:
 670              		.size	gett, .-gett
 671 001e 00BF     		.section	.text.writet,"ax",%progbits
 672              		.align	1
 673              		.p2align 4,,15
 674              		.syntax unified
 675              		.thumb
 676              		.thumb_func
 677              		.fpu fpv4-sp-d16
 678              		.type	writet, %function
 679              	writet:
 680              	.LFB274:
 681              		.loc 7 82 0
 682              		.cfi_startproc
 683              		@ args = 0, pretend = 0, frame = 16
 684              		@ frame_needed = 0, uses_anonymous_args = 0
ARM GAS  /tmp/ccck2fKm.s 			page 13


 685 0000 00B5     		push	{lr}
 686              		.cfi_def_cfa_offset 4
 687              		.cfi_offset 14, -4
 688 0002 85B0     		sub	sp, sp, #20
 689              		.cfi_def_cfa_offset 24
 690 0004 0390     		str	r0, [sp, #12]
 691 0006 0291     		str	r1, [sp, #8]
 692 0008 0192     		str	r2, [sp, #4]
 693 000a 0093     		str	r3, [sp]
 694              		.loc 7 84 0
 695 000c 039B     		ldr	r3, [sp, #12]
 696 000e 03F13000 		add	r0, r3, #48
 697 0012 009B     		ldr	r3, [sp]
 698 0014 019A     		ldr	r2, [sp, #4]
 699 0016 0299     		ldr	r1, [sp, #8]
 700 0018 FFF7FEFF 		bl	chOQWriteTimeout
 701 001c 0346     		mov	r3, r0
 702              		.loc 7 85 0
 703 001e 1846     		mov	r0, r3
 704 0020 05B0     		add	sp, sp, #20
 705              		.cfi_def_cfa_offset 4
 706              		@ sp needed
 707 0022 5DF804FB 		ldr	pc, [sp], #4
 708              		.cfi_endproc
 709              	.LFE274:
 710              		.size	writet, .-writet
 711 0026 00BF     		.section	.text.readt,"ax",%progbits
 712              		.align	1
 713              		.p2align 4,,15
 714              		.syntax unified
 715              		.thumb
 716              		.thumb_func
 717              		.fpu fpv4-sp-d16
 718              		.type	readt, %function
 719              	readt:
 720              	.LFB275:
 721              		.loc 7 87 0
 722              		.cfi_startproc
 723              		@ args = 0, pretend = 0, frame = 16
 724              		@ frame_needed = 0, uses_anonymous_args = 0
 725 0000 00B5     		push	{lr}
 726              		.cfi_def_cfa_offset 4
 727              		.cfi_offset 14, -4
 728 0002 85B0     		sub	sp, sp, #20
 729              		.cfi_def_cfa_offset 24
 730 0004 0390     		str	r0, [sp, #12]
 731 0006 0291     		str	r1, [sp, #8]
 732 0008 0192     		str	r2, [sp, #4]
 733 000a 0093     		str	r3, [sp]
 734              		.loc 7 89 0
 735 000c 039B     		ldr	r3, [sp, #12]
 736 000e 03F10C00 		add	r0, r3, #12
 737 0012 009B     		ldr	r3, [sp]
 738 0014 019A     		ldr	r2, [sp, #4]
 739 0016 0299     		ldr	r1, [sp, #8]
 740 0018 FFF7FEFF 		bl	chIQReadTimeout
 741 001c 0346     		mov	r3, r0
ARM GAS  /tmp/ccck2fKm.s 			page 14


 742              		.loc 7 90 0
 743 001e 1846     		mov	r0, r3
 744 0020 05B0     		add	sp, sp, #20
 745              		.cfi_def_cfa_offset 4
 746              		@ sp needed
 747 0022 5DF804FB 		ldr	pc, [sp], #4
 748              		.cfi_endproc
 749              	.LFE275:
 750              		.size	readt, .-readt
 751 0026 00BF     		.section	.rodata.vmt,"a",%progbits
 752              		.align	2
 753              		.type	vmt, %object
 754              		.size	vmt, 32
 755              	vmt:
 756 0000 00000000 		.word	write
 757 0004 00000000 		.word	read
 758 0008 00000000 		.word	put
 759 000c 00000000 		.word	get
 760 0010 00000000 		.word	putt
 761 0014 00000000 		.word	gett
 762 0018 00000000 		.word	writet
 763 001c 00000000 		.word	readt
 764              		.section	.text.sdInit,"ax",%progbits
 765              		.align	1
 766              		.p2align 4,,15
 767              		.global	sdInit
 768              		.syntax unified
 769              		.thumb
 770              		.thumb_func
 771              		.fpu fpv4-sp-d16
 772              		.type	sdInit, %function
 773              	sdInit:
 774              	.LFB276:
 775              		.loc 7 108 0
 776              		.cfi_startproc
 777              		@ args = 0, pretend = 0, frame = 0
 778              		@ frame_needed = 0, uses_anonymous_args = 0
 779 0000 08B5     		push	{r3, lr}
 780              		.cfi_def_cfa_offset 8
 781              		.cfi_offset 3, -8
 782              		.cfi_offset 14, -4
 783              		.loc 7 110 0
 784 0002 FFF7FEFF 		bl	sd_lld_init
 785              		.loc 7 111 0
 786 0006 00BF     		nop
 787 0008 08BD     		pop	{r3, pc}
 788              		.cfi_endproc
 789              	.LFE276:
 790              		.size	sdInit, .-sdInit
 791 000a 00BF     		.section	.text.sdObjectInit,"ax",%progbits
 792              		.align	1
 793              		.p2align 4,,15
 794              		.global	sdObjectInit
 795              		.syntax unified
 796              		.thumb
 797              		.thumb_func
 798              		.fpu fpv4-sp-d16
ARM GAS  /tmp/ccck2fKm.s 			page 15


 799              		.type	sdObjectInit, %function
 800              	sdObjectInit:
 801              	.LFB277:
 802              		.loc 7 128 0
 803              		.cfi_startproc
 804              		@ args = 0, pretend = 0, frame = 16
 805              		@ frame_needed = 0, uses_anonymous_args = 0
 806 0000 00B5     		push	{lr}
 807              		.cfi_def_cfa_offset 4
 808              		.cfi_offset 14, -4
 809 0002 87B0     		sub	sp, sp, #28
 810              		.cfi_def_cfa_offset 32
 811 0004 0590     		str	r0, [sp, #20]
 812 0006 0491     		str	r1, [sp, #16]
 813 0008 0392     		str	r2, [sp, #12]
 814              		.loc 7 130 0
 815 000a 059B     		ldr	r3, [sp, #20]
 816 000c 134A     		ldr	r2, .L36
 817 000e 1A60     		str	r2, [r3]
 818              		.loc 7 131 0
 819 0010 059B     		ldr	r3, [sp, #20]
 820 0012 0433     		adds	r3, r3, #4
 821 0014 1846     		mov	r0, r3
 822 0016 FFF7FEFF 		bl	osalEventObjectInit
 823              		.loc 7 132 0
 824 001a 059B     		ldr	r3, [sp, #20]
 825 001c 0122     		movs	r2, #1
 826 001e 1A72     		strb	r2, [r3, #8]
 827              		.loc 7 133 0
 828 0020 059B     		ldr	r3, [sp, #20]
 829 0022 03F10C00 		add	r0, r3, #12
 830 0026 059B     		ldr	r3, [sp, #20]
 831 0028 03F15401 		add	r1, r3, #84
 832 002c 059B     		ldr	r3, [sp, #20]
 833 002e 0093     		str	r3, [sp]
 834 0030 049B     		ldr	r3, [sp, #16]
 835 0032 4FF48072 		mov	r2, #256
 836 0036 FFF7FEFF 		bl	chIQObjectInit
 837              		.loc 7 134 0
 838 003a 059B     		ldr	r3, [sp, #20]
 839 003c 03F13000 		add	r0, r3, #48
 840 0040 059B     		ldr	r3, [sp, #20]
 841 0042 03F5AA71 		add	r1, r3, #340
 842 0046 059B     		ldr	r3, [sp, #20]
 843 0048 0093     		str	r3, [sp]
 844 004a 039B     		ldr	r3, [sp, #12]
 845 004c 4FF48072 		mov	r2, #256
 846 0050 FFF7FEFF 		bl	chOQObjectInit
 847              		.loc 7 135 0
 848 0054 00BF     		nop
 849 0056 07B0     		add	sp, sp, #28
 850              		.cfi_def_cfa_offset 4
 851              		@ sp needed
 852 0058 5DF804FB 		ldr	pc, [sp], #4
 853              	.L37:
 854              		.align	2
 855              	.L36:
ARM GAS  /tmp/ccck2fKm.s 			page 16


 856 005c 00000000 		.word	vmt
 857              		.cfi_endproc
 858              	.LFE277:
 859              		.size	sdObjectInit, .-sdObjectInit
 860              		.section	.text.sdStart,"ax",%progbits
 861              		.align	1
 862              		.p2align 4,,15
 863              		.global	sdStart
 864              		.syntax unified
 865              		.thumb
 866              		.thumb_func
 867              		.fpu fpv4-sp-d16
 868              		.type	sdStart, %function
 869              	sdStart:
 870              	.LFB278:
 871              		.loc 7 147 0
 872              		.cfi_startproc
 873              		@ args = 0, pretend = 0, frame = 8
 874              		@ frame_needed = 0, uses_anonymous_args = 0
 875 0000 00B5     		push	{lr}
 876              		.cfi_def_cfa_offset 4
 877              		.cfi_offset 14, -4
 878 0002 83B0     		sub	sp, sp, #12
 879              		.cfi_def_cfa_offset 16
 880 0004 0190     		str	r0, [sp, #4]
 881 0006 0091     		str	r1, [sp]
 882              		.loc 7 149 0
 883 0008 019B     		ldr	r3, [sp, #4]
 884 000a 002B     		cmp	r3, #0
 885 000c 02D1     		bne	.L39
 886              		.loc 7 149 0 is_stmt 0 discriminator 2
 887 000e 0E48     		ldr	r0, .L41
 888 0010 FFF7FEFF 		bl	chSysHalt
 889              	.L39:
 890              		.loc 7 151 0 is_stmt 1
 891 0014 FFF7FEFF 		bl	osalSysLock
 892              		.loc 7 152 0
 893 0018 019B     		ldr	r3, [sp, #4]
 894 001a 1B7A     		ldrb	r3, [r3, #8]	@ zero_extendqisi2
 895 001c 012B     		cmp	r3, #1
 896 001e 06D0     		beq	.L40
 897              		.loc 7 152 0 is_stmt 0 discriminator 2
 898 0020 019B     		ldr	r3, [sp, #4]
 899 0022 1B7A     		ldrb	r3, [r3, #8]	@ zero_extendqisi2
 900 0024 022B     		cmp	r3, #2
 901 0026 02D0     		beq	.L40
 902              		.loc 7 152 0 discriminator 3
 903 0028 0748     		ldr	r0, .L41
 904 002a FFF7FEFF 		bl	chSysHalt
 905              	.L40:
 906              		.loc 7 154 0 is_stmt 1
 907 002e 0099     		ldr	r1, [sp]
 908 0030 0198     		ldr	r0, [sp, #4]
 909 0032 FFF7FEFF 		bl	sd_lld_start
 910              		.loc 7 155 0
 911 0036 019B     		ldr	r3, [sp, #4]
 912 0038 0222     		movs	r2, #2
ARM GAS  /tmp/ccck2fKm.s 			page 17


 913 003a 1A72     		strb	r2, [r3, #8]
 914              		.loc 7 156 0
 915 003c FFF7FEFF 		bl	osalSysUnlock
 916              		.loc 7 157 0
 917 0040 00BF     		nop
 918 0042 03B0     		add	sp, sp, #12
 919              		.cfi_def_cfa_offset 4
 920              		@ sp needed
 921 0044 5DF804FB 		ldr	pc, [sp], #4
 922              	.L42:
 923              		.align	2
 924              	.L41:
 925 0048 00000000 		.word	__func__.9075
 926              		.cfi_endproc
 927              	.LFE278:
 928              		.size	sdStart, .-sdStart
 929              		.section	.text.sdStop,"ax",%progbits
 930              		.align	1
 931              		.p2align 4,,15
 932              		.global	sdStop
 933              		.syntax unified
 934              		.thumb
 935              		.thumb_func
 936              		.fpu fpv4-sp-d16
 937              		.type	sdStop, %function
 938              	sdStop:
 939              	.LFB279:
 940              		.loc 7 168 0
 941              		.cfi_startproc
 942              		@ args = 0, pretend = 0, frame = 8
 943              		@ frame_needed = 0, uses_anonymous_args = 0
 944 0000 00B5     		push	{lr}
 945              		.cfi_def_cfa_offset 4
 946              		.cfi_offset 14, -4
 947 0002 83B0     		sub	sp, sp, #12
 948              		.cfi_def_cfa_offset 16
 949 0004 0190     		str	r0, [sp, #4]
 950              		.loc 7 170 0
 951 0006 019B     		ldr	r3, [sp, #4]
 952 0008 002B     		cmp	r3, #0
 953 000a 02D1     		bne	.L44
 954              		.loc 7 170 0 is_stmt 0 discriminator 2
 955 000c 1348     		ldr	r0, .L46
 956 000e FFF7FEFF 		bl	chSysHalt
 957              	.L44:
 958              		.loc 7 172 0 is_stmt 1
 959 0012 FFF7FEFF 		bl	osalSysLock
 960              		.loc 7 173 0
 961 0016 019B     		ldr	r3, [sp, #4]
 962 0018 1B7A     		ldrb	r3, [r3, #8]	@ zero_extendqisi2
 963 001a 012B     		cmp	r3, #1
 964 001c 06D0     		beq	.L45
 965              		.loc 7 173 0 is_stmt 0 discriminator 2
 966 001e 019B     		ldr	r3, [sp, #4]
 967 0020 1B7A     		ldrb	r3, [r3, #8]	@ zero_extendqisi2
 968 0022 022B     		cmp	r3, #2
 969 0024 02D0     		beq	.L45
ARM GAS  /tmp/ccck2fKm.s 			page 18


 970              		.loc 7 173 0 discriminator 3
 971 0026 0D48     		ldr	r0, .L46
 972 0028 FFF7FEFF 		bl	chSysHalt
 973              	.L45:
 974              		.loc 7 175 0 is_stmt 1
 975 002c 0198     		ldr	r0, [sp, #4]
 976 002e FFF7FEFF 		bl	sd_lld_stop
 977              		.loc 7 176 0
 978 0032 019B     		ldr	r3, [sp, #4]
 979 0034 0122     		movs	r2, #1
 980 0036 1A72     		strb	r2, [r3, #8]
 981              		.loc 7 177 0
 982 0038 019B     		ldr	r3, [sp, #4]
 983 003a 3033     		adds	r3, r3, #48
 984 003c 1846     		mov	r0, r3
 985 003e FFF7FEFF 		bl	chOQResetI
 986              		.loc 7 178 0
 987 0042 019B     		ldr	r3, [sp, #4]
 988 0044 0C33     		adds	r3, r3, #12
 989 0046 1846     		mov	r0, r3
 990 0048 FFF7FEFF 		bl	chIQResetI
 991              		.loc 7 179 0
 992 004c FFF7FEFF 		bl	osalOsRescheduleS
 993              		.loc 7 180 0
 994 0050 FFF7FEFF 		bl	osalSysUnlock
 995              		.loc 7 181 0
 996 0054 00BF     		nop
 997 0056 03B0     		add	sp, sp, #12
 998              		.cfi_def_cfa_offset 4
 999              		@ sp needed
 1000 0058 5DF804FB 		ldr	pc, [sp], #4
 1001              	.L47:
 1002              		.align	2
 1003              	.L46:
 1004 005c 00000000 		.word	__func__.9079
 1005              		.cfi_endproc
 1006              	.LFE279:
 1007              		.size	sdStop, .-sdStop
 1008              		.section	.text.sdIncomingDataI,"ax",%progbits
 1009              		.align	1
 1010              		.p2align 4,,15
 1011              		.global	sdIncomingDataI
 1012              		.syntax unified
 1013              		.thumb
 1014              		.thumb_func
 1015              		.fpu fpv4-sp-d16
 1016              		.type	sdIncomingDataI, %function
 1017              	sdIncomingDataI:
 1018              	.LFB280:
 1019              		.loc 7 199 0
 1020              		.cfi_startproc
 1021              		@ args = 0, pretend = 0, frame = 8
 1022              		@ frame_needed = 0, uses_anonymous_args = 0
 1023 0000 00B5     		push	{lr}
 1024              		.cfi_def_cfa_offset 4
 1025              		.cfi_offset 14, -4
 1026 0002 83B0     		sub	sp, sp, #12
ARM GAS  /tmp/ccck2fKm.s 			page 19


 1027              		.cfi_def_cfa_offset 16
 1028 0004 0190     		str	r0, [sp, #4]
 1029 0006 0B46     		mov	r3, r1
 1030 0008 8DF80330 		strb	r3, [sp, #3]
 1031              		.loc 7 201 0
 1032 000c FFF7FEFF 		bl	chDbgCheckClassI
 1033              		.loc 7 202 0
 1034 0010 019B     		ldr	r3, [sp, #4]
 1035 0012 002B     		cmp	r3, #0
 1036 0014 02D1     		bne	.L49
 1037              		.loc 7 202 0 is_stmt 0 discriminator 2
 1038 0016 1348     		ldr	r0, .L53
 1039 0018 FFF7FEFF 		bl	chSysHalt
 1040              	.L49:
 1041              		.loc 7 204 0 is_stmt 1
 1042 001c 019B     		ldr	r3, [sp, #4]
 1043 001e 0C33     		adds	r3, r3, #12
 1044 0020 1846     		mov	r0, r3
 1045 0022 FFF7FEFF 		bl	chIQIsEmptyI
 1046 0026 0346     		mov	r3, r0
 1047 0028 002B     		cmp	r3, #0
 1048 002a 05D0     		beq	.L50
 1049              		.loc 7 205 0
 1050 002c 019B     		ldr	r3, [sp, #4]
 1051 002e 0433     		adds	r3, r3, #4
 1052 0030 0421     		movs	r1, #4
 1053 0032 1846     		mov	r0, r3
 1054 0034 FFF7FEFF 		bl	osalEventBroadcastFlagsI
 1055              	.L50:
 1056              		.loc 7 206 0
 1057 0038 019B     		ldr	r3, [sp, #4]
 1058 003a 0C33     		adds	r3, r3, #12
 1059 003c 9DF80320 		ldrb	r2, [sp, #3]	@ zero_extendqisi2
 1060 0040 1146     		mov	r1, r2
 1061 0042 1846     		mov	r0, r3
 1062 0044 FFF7FEFF 		bl	chIQPutI
 1063 0048 0346     		mov	r3, r0
 1064 004a 002B     		cmp	r3, #0
 1065 004c 05DA     		bge	.L52
 1066              		.loc 7 207 0
 1067 004e 019B     		ldr	r3, [sp, #4]
 1068 0050 0433     		adds	r3, r3, #4
 1069 0052 8021     		movs	r1, #128
 1070 0054 1846     		mov	r0, r3
 1071 0056 FFF7FEFF 		bl	osalEventBroadcastFlagsI
 1072              	.L52:
 1073              		.loc 7 208 0
 1074 005a 00BF     		nop
 1075 005c 03B0     		add	sp, sp, #12
 1076              		.cfi_def_cfa_offset 4
 1077              		@ sp needed
 1078 005e 5DF804FB 		ldr	pc, [sp], #4
 1079              	.L54:
 1080 0062 00BF     		.align	2
 1081              	.L53:
 1082 0064 00000000 		.word	__func__.9084
 1083              		.cfi_endproc
ARM GAS  /tmp/ccck2fKm.s 			page 20


 1084              	.LFE280:
 1085              		.size	sdIncomingDataI, .-sdIncomingDataI
 1086              		.section	.text.sdRequestDataI,"ax",%progbits
 1087              		.align	1
 1088              		.p2align 4,,15
 1089              		.global	sdRequestDataI
 1090              		.syntax unified
 1091              		.thumb
 1092              		.thumb_func
 1093              		.fpu fpv4-sp-d16
 1094              		.type	sdRequestDataI, %function
 1095              	sdRequestDataI:
 1096              	.LFB281:
 1097              		.loc 7 225 0
 1098              		.cfi_startproc
 1099              		@ args = 0, pretend = 0, frame = 16
 1100              		@ frame_needed = 0, uses_anonymous_args = 0
 1101 0000 00B5     		push	{lr}
 1102              		.cfi_def_cfa_offset 4
 1103              		.cfi_offset 14, -4
 1104 0002 85B0     		sub	sp, sp, #20
 1105              		.cfi_def_cfa_offset 24
 1106 0004 0190     		str	r0, [sp, #4]
 1107              		.loc 7 228 0
 1108 0006 FFF7FEFF 		bl	chDbgCheckClassI
 1109              		.loc 7 229 0
 1110 000a 019B     		ldr	r3, [sp, #4]
 1111 000c 002B     		cmp	r3, #0
 1112 000e 02D1     		bne	.L56
 1113              		.loc 7 229 0 is_stmt 0 discriminator 2
 1114 0010 0B48     		ldr	r0, .L59
 1115 0012 FFF7FEFF 		bl	chSysHalt
 1116              	.L56:
 1117              		.loc 7 231 0 is_stmt 1
 1118 0016 019B     		ldr	r3, [sp, #4]
 1119 0018 3033     		adds	r3, r3, #48
 1120 001a 1846     		mov	r0, r3
 1121 001c FFF7FEFF 		bl	chOQGetI
 1122 0020 0390     		str	r0, [sp, #12]
 1123              		.loc 7 232 0
 1124 0022 039B     		ldr	r3, [sp, #12]
 1125 0024 002B     		cmp	r3, #0
 1126 0026 05DA     		bge	.L57
 1127              		.loc 7 233 0
 1128 0028 019B     		ldr	r3, [sp, #4]
 1129 002a 0433     		adds	r3, r3, #4
 1130 002c 0821     		movs	r1, #8
 1131 002e 1846     		mov	r0, r3
 1132 0030 FFF7FEFF 		bl	osalEventBroadcastFlagsI
 1133              	.L57:
 1134              		.loc 7 234 0
 1135 0034 039B     		ldr	r3, [sp, #12]
 1136              		.loc 7 235 0
 1137 0036 1846     		mov	r0, r3
 1138 0038 05B0     		add	sp, sp, #20
 1139              		.cfi_def_cfa_offset 4
 1140              		@ sp needed
ARM GAS  /tmp/ccck2fKm.s 			page 21


 1141 003a 5DF804FB 		ldr	pc, [sp], #4
 1142              	.L60:
 1143 003e 00BF     		.align	2
 1144              	.L59:
 1145 0040 00000000 		.word	__func__.9089
 1146              		.cfi_endproc
 1147              	.LFE281:
 1148              		.size	sdRequestDataI, .-sdRequestDataI
 1149              		.section	.text.sdPutWouldBlock,"ax",%progbits
 1150              		.align	1
 1151              		.p2align 4,,15
 1152              		.global	sdPutWouldBlock
 1153              		.syntax unified
 1154              		.thumb
 1155              		.thumb_func
 1156              		.fpu fpv4-sp-d16
 1157              		.type	sdPutWouldBlock, %function
 1158              	sdPutWouldBlock:
 1159              	.LFB282:
 1160              		.loc 7 252 0
 1161              		.cfi_startproc
 1162              		@ args = 0, pretend = 0, frame = 16
 1163              		@ frame_needed = 0, uses_anonymous_args = 0
 1164 0000 00B5     		push	{lr}
 1165              		.cfi_def_cfa_offset 4
 1166              		.cfi_offset 14, -4
 1167 0002 85B0     		sub	sp, sp, #20
 1168              		.cfi_def_cfa_offset 24
 1169 0004 0190     		str	r0, [sp, #4]
 1170              		.loc 7 255 0
 1171 0006 FFF7FEFF 		bl	osalSysLock
 1172              		.loc 7 256 0
 1173 000a 019B     		ldr	r3, [sp, #4]
 1174 000c 3033     		adds	r3, r3, #48
 1175 000e 1846     		mov	r0, r3
 1176 0010 FFF7FEFF 		bl	chOQIsFullI
 1177 0014 0346     		mov	r3, r0
 1178 0016 8DF80F30 		strb	r3, [sp, #15]
 1179              		.loc 7 257 0
 1180 001a FFF7FEFF 		bl	osalSysUnlock
 1181              		.loc 7 259 0
 1182 001e 9DF80F30 		ldrb	r3, [sp, #15]	@ zero_extendqisi2
 1183              		.loc 7 260 0
 1184 0022 1846     		mov	r0, r3
 1185 0024 05B0     		add	sp, sp, #20
 1186              		.cfi_def_cfa_offset 4
 1187              		@ sp needed
 1188 0026 5DF804FB 		ldr	pc, [sp], #4
 1189              		.cfi_endproc
 1190              	.LFE282:
 1191              		.size	sdPutWouldBlock, .-sdPutWouldBlock
 1192 002a 00BF     		.section	.text.sdGetWouldBlock,"ax",%progbits
 1193              		.align	1
 1194              		.p2align 4,,15
 1195              		.global	sdGetWouldBlock
 1196              		.syntax unified
 1197              		.thumb
ARM GAS  /tmp/ccck2fKm.s 			page 22


 1198              		.thumb_func
 1199              		.fpu fpv4-sp-d16
 1200              		.type	sdGetWouldBlock, %function
 1201              	sdGetWouldBlock:
 1202              	.LFB283:
 1203              		.loc 7 277 0
 1204              		.cfi_startproc
 1205              		@ args = 0, pretend = 0, frame = 16
 1206              		@ frame_needed = 0, uses_anonymous_args = 0
 1207 0000 00B5     		push	{lr}
 1208              		.cfi_def_cfa_offset 4
 1209              		.cfi_offset 14, -4
 1210 0002 85B0     		sub	sp, sp, #20
 1211              		.cfi_def_cfa_offset 24
 1212 0004 0190     		str	r0, [sp, #4]
 1213              		.loc 7 280 0
 1214 0006 FFF7FEFF 		bl	osalSysLock
 1215              		.loc 7 281 0
 1216 000a 019B     		ldr	r3, [sp, #4]
 1217 000c 0C33     		adds	r3, r3, #12
 1218 000e 1846     		mov	r0, r3
 1219 0010 FFF7FEFF 		bl	chIQIsEmptyI
 1220 0014 0346     		mov	r3, r0
 1221 0016 8DF80F30 		strb	r3, [sp, #15]
 1222              		.loc 7 282 0
 1223 001a FFF7FEFF 		bl	osalSysUnlock
 1224              		.loc 7 284 0
 1225 001e 9DF80F30 		ldrb	r3, [sp, #15]	@ zero_extendqisi2
 1226              		.loc 7 285 0
 1227 0022 1846     		mov	r0, r3
 1228 0024 05B0     		add	sp, sp, #20
 1229              		.cfi_def_cfa_offset 4
 1230              		@ sp needed
 1231 0026 5DF804FB 		ldr	pc, [sp], #4
 1232              		.cfi_endproc
 1233              	.LFE283:
 1234              		.size	sdGetWouldBlock, .-sdGetWouldBlock
 1235 002a 00BF     		.section	.rodata.__func__.9075,"a",%progbits
 1236              		.align	2
 1237              		.type	__func__.9075, %object
 1238              		.size	__func__.9075, 8
 1239              	__func__.9075:
 1240 0000 73645374 		.ascii	"sdStart\000"
 1240      61727400 
 1241              		.section	.rodata.__func__.7157,"a",%progbits
 1242              		.align	2
 1243              		.type	__func__.7157, %object
 1244              		.size	__func__.7157, 12
 1245              	__func__.7157:
 1246 0000 63685379 		.ascii	"chSysUnlock\000"
 1246      73556E6C 
 1246      6F636B00 
 1247              		.section	.rodata.__func__.9079,"a",%progbits
 1248              		.align	2
 1249              		.type	__func__.9079, %object
 1250              		.size	__func__.9079, 7
 1251              	__func__.9079:
ARM GAS  /tmp/ccck2fKm.s 			page 23


 1252 0000 73645374 		.ascii	"sdStop\000"
 1252      6F7000
 1253              		.section	.rodata.__func__.9084,"a",%progbits
 1254              		.align	2
 1255              		.type	__func__.9084, %object
 1256              		.size	__func__.9084, 16
 1257              	__func__.9084:
 1258 0000 7364496E 		.ascii	"sdIncomingDataI\000"
 1258      636F6D69 
 1258      6E674461 
 1258      74614900 
 1259              		.section	.rodata.__func__.9089,"a",%progbits
 1260              		.align	2
 1261              		.type	__func__.9089, %object
 1262              		.size	__func__.9089, 15
 1263              	__func__.9089:
 1264 0000 73645265 		.ascii	"sdRequestDataI\000"
 1264      71756573 
 1264      74446174 
 1264      614900
 1265              		.text
 1266              	.Letext0:
 1267              		.file 8 "/usr/lib/gcc/arm-none-eabi/6.3.1/include/stddef.h"
 1268              		.file 9 "/usr/arm-none-eabi/include/machine/_default_types.h"
 1269              		.file 10 "/usr/arm-none-eabi/include/sys/_stdint.h"
 1270              		.file 11 "../ChibiOS/os/rt/ports/ARMCMx/compilers/GCC/chtypes.h"
 1271              		.file 12 "../ChibiOS/os/rt/include/chsystypes.h"
 1272              		.file 13 "../ChibiOS/os/rt/include/chschd.h"
 1273              		.file 14 "../ChibiOS/os/ext/CMSIS/include/core_cm4.h"
 1274              		.file 15 "../ChibiOS/os/ext/CMSIS/ST/STM32F4xx/system_stm32f4xx.h"
 1275              		.file 16 "../ChibiOS/os/ext/CMSIS/ST/STM32F4xx/stm32f437xx.h"
 1276              		.file 17 "../ChibiOS/os/rt/ports/ARMCMx/chcore.h"
 1277              		.file 18 "../ChibiOS/os/rt/include/chtm.h"
 1278              		.file 19 "../ChibiOS/os/rt/include/chstats.h"
 1279              		.file 20 "../ChibiOS/os/rt/include/chsem.h"
 1280              		.file 21 "../ChibiOS/os/rt/include/chmtx.h"
 1281              		.file 22 "../ChibiOS/os/rt/include/chregistry.h"
 1282              		.file 23 "../ChibiOS/os/hal/ports/STM32/LLD/DMAv2/stm32_dma.h"
 1283              		.file 24 "../ChibiOS/os/hal/ports/STM32/LLD/GPIOv2/pal_lld.h"
 1284              		.file 25 "../ChibiOS/os/hal/include/ext.h"
 1285              		.file 26 "../ChibiOS/os/hal/ports/STM32/LLD/EXTIv1/ext_lld.h"
 1286              		.file 27 "../ChibiOS/os/hal/include/gpt.h"
 1287              		.file 28 "../ChibiOS/os/hal/ports/STM32/LLD/TIMv1/gpt_lld.h"
 1288              		.file 29 "../ChibiOS/os/hal/ports/STM32/LLD/TIMv1/stm32_tim.h"
 1289              		.file 30 "../ChibiOS/os/hal/include/pwm.h"
 1290              		.file 31 "../ChibiOS/os/hal/ports/STM32/LLD/TIMv1/pwm_lld.h"
 1291              		.file 32 "../ChibiOS/os/hal/include/serial.h"
 1292              		.file 33 "../ChibiOS/os/hal/ports/STM32/LLD/USARTv1/serial_lld.h"
 1293              		.file 34 "../ChibiOS/os/hal/include/usb.h"
 1294              		.file 35 "../ChibiOS/os/hal/ports/STM32/LLD/OTGv1/usb_lld.h"
 1295              		.file 36 "../ChibiOS/os/hal/ports/STM32/LLD/OTGv1/stm32_otg.h"