ARM GAS  /tmp/ccxyj9HS.s 			page 1


   1              		.cpu cortex-m4
   2              		.eabi_attribute 27, 1
   3              		.eabi_attribute 28, 1
   4              		.eabi_attribute 20, 1
   5              		.eabi_attribute 21, 1
   6              		.eabi_attribute 23, 3
   7              		.eabi_attribute 24, 1
   8              		.eabi_attribute 25, 1
   9              		.eabi_attribute 26, 1
  10              		.eabi_attribute 30, 6
  11              		.eabi_attribute 34, 1
  12              		.eabi_attribute 18, 4
  13              		.file	"testpools.c"
  14              		.text
  15              	.Ltext0:
  16              		.cfi_sections	.debug_frame
  17              		.section	.data.mp1,"aw",%progbits
  18              		.align	2
  19              		.type	mp1, %object
  20              		.size	mp1, 12
  21              	mp1:
  22 0000 00000000 		.word	0
  23 0004 F0010000 		.word	496
  24 0008 00000000 		.word	0
  25              		.section	.text.null_provider,"ax",%progbits
  26              		.align	1
  27              		.p2align 4,,15
  28              		.syntax unified
  29              		.thumb
  30              		.thumb_func
  31              		.fpu fpv4-sp-d16
  32              		.type	null_provider, %function
  33              	null_provider:
  34              	.LFB231:
  35              		.file 1 "../ChibiOS/test/rt/testpools.c"
  36              		.loc 1 60 0
  37              		.cfi_startproc
  38              		@ args = 0, pretend = 0, frame = 8
  39              		@ frame_needed = 0, uses_anonymous_args = 0
  40              		@ link register save eliminated.
  41 0000 82B0     		sub	sp, sp, #8
  42              		.cfi_def_cfa_offset 8
  43 0002 0190     		str	r0, [sp, #4]
  44              		.loc 1 63 0
  45 0004 0023     		movs	r3, #0
  46              		.loc 1 64 0
  47 0006 1846     		mov	r0, r3
  48 0008 02B0     		add	sp, sp, #8
  49              		.cfi_def_cfa_offset 0
  50              		@ sp needed
  51 000a 7047     		bx	lr
  52              		.cfi_endproc
  53              	.LFE231:
  54              		.size	null_provider, .-null_provider
  55              		.section	.text.pools1_setup,"ax",%progbits
  56              		.align	1
  57              		.p2align 4,,15
ARM GAS  /tmp/ccxyj9HS.s 			page 2


  58              		.syntax unified
  59              		.thumb
  60              		.thumb_func
  61              		.fpu fpv4-sp-d16
  62              		.type	pools1_setup, %function
  63              	pools1_setup:
  64              	.LFB232:
  65              		.loc 1 66 0
  66              		.cfi_startproc
  67              		@ args = 0, pretend = 0, frame = 0
  68              		@ frame_needed = 0, uses_anonymous_args = 0
  69 0000 08B5     		push	{r3, lr}
  70              		.cfi_def_cfa_offset 8
  71              		.cfi_offset 3, -8
  72              		.cfi_offset 14, -4
  73              		.loc 1 68 0
  74 0002 0022     		movs	r2, #0
  75 0004 4FF4F871 		mov	r1, #496
  76 0008 0248     		ldr	r0, .L4
  77 000a FFF7FEFF 		bl	chPoolObjectInit
  78              		.loc 1 69 0
  79 000e 00BF     		nop
  80 0010 08BD     		pop	{r3, pc}
  81              	.L5:
  82 0012 00BF     		.align	2
  83              	.L4:
  84 0014 00000000 		.word	mp1
  85              		.cfi_endproc
  86              	.LFE232:
  87              		.size	pools1_setup, .-pools1_setup
  88              		.section	.text.pools1_execute,"ax",%progbits
  89              		.align	1
  90              		.p2align 4,,15
  91              		.syntax unified
  92              		.thumb
  93              		.thumb_func
  94              		.fpu fpv4-sp-d16
  95              		.type	pools1_execute, %function
  96              	pools1_execute:
  97              	.LFB233:
  98              		.loc 1 71 0
  99              		.cfi_startproc
 100              		@ args = 0, pretend = 0, frame = 8
 101              		@ frame_needed = 0, uses_anonymous_args = 0
 102 0000 00B5     		push	{lr}
 103              		.cfi_def_cfa_offset 4
 104              		.cfi_offset 14, -4
 105 0002 83B0     		sub	sp, sp, #12
 106              		.cfi_def_cfa_offset 16
 107              		.loc 1 75 0
 108 0004 444B     		ldr	r3, .L22
 109 0006 1B68     		ldr	r3, [r3]
 110 0008 0522     		movs	r2, #5
 111 000a 1946     		mov	r1, r3
 112 000c 4348     		ldr	r0, .L22+4
 113 000e FFF7FEFF 		bl	chPoolLoadArray
 114              		.loc 1 78 0
ARM GAS  /tmp/ccxyj9HS.s 			page 3


 115 0012 0023     		movs	r3, #0
 116 0014 0193     		str	r3, [sp, #4]
 117 0016 12E0     		b	.L7
 118              	.L10:
 119              		.loc 1 79 0
 120 0018 4048     		ldr	r0, .L22+4
 121 001a FFF7FEFF 		bl	chPoolAlloc
 122 001e 0346     		mov	r3, r0
 123 0020 002B     		cmp	r3, #0
 124 0022 14BF     		ite	ne
 125 0024 0123     		movne	r3, #1
 126 0026 0023     		moveq	r3, #0
 127 0028 DBB2     		uxtb	r3, r3
 128 002a 1946     		mov	r1, r3
 129 002c 0120     		movs	r0, #1
 130 002e FFF7FEFF 		bl	_test_assert
 131 0032 0346     		mov	r3, r0
 132 0034 002B     		cmp	r3, #0
 133 0036 64D1     		bne	.L18
 134              		.loc 1 78 0 discriminator 2
 135 0038 019B     		ldr	r3, [sp, #4]
 136 003a 0133     		adds	r3, r3, #1
 137 003c 0193     		str	r3, [sp, #4]
 138              	.L7:
 139              		.loc 1 78 0 is_stmt 0 discriminator 1
 140 003e 019B     		ldr	r3, [sp, #4]
 141 0040 042B     		cmp	r3, #4
 142 0042 E9DD     		ble	.L10
 143              		.loc 1 82 0 is_stmt 1
 144 0044 3548     		ldr	r0, .L22+4
 145 0046 FFF7FEFF 		bl	chPoolAlloc
 146 004a 0346     		mov	r3, r0
 147 004c 002B     		cmp	r3, #0
 148 004e 0CBF     		ite	eq
 149 0050 0123     		moveq	r3, #1
 150 0052 0023     		movne	r3, #0
 151 0054 DBB2     		uxtb	r3, r3
 152 0056 1946     		mov	r1, r3
 153 0058 0220     		movs	r0, #2
 154 005a FFF7FEFF 		bl	_test_assert
 155 005e 0346     		mov	r3, r0
 156 0060 002B     		cmp	r3, #0
 157 0062 50D1     		bne	.L19
 158              		.loc 1 85 0
 159 0064 0023     		movs	r3, #0
 160 0066 0193     		str	r3, [sp, #4]
 161 0068 0AE0     		b	.L12
 162              	.L13:
 163              		.loc 1 86 0 discriminator 3
 164 006a 2B4A     		ldr	r2, .L22
 165 006c 019B     		ldr	r3, [sp, #4]
 166 006e 52F82330 		ldr	r3, [r2, r3, lsl #2]
 167 0072 1946     		mov	r1, r3
 168 0074 2948     		ldr	r0, .L22+4
 169 0076 FFF7FEFF 		bl	chPoolFree
 170              		.loc 1 85 0 discriminator 3
 171 007a 019B     		ldr	r3, [sp, #4]
ARM GAS  /tmp/ccxyj9HS.s 			page 4


 172 007c 0133     		adds	r3, r3, #1
 173 007e 0193     		str	r3, [sp, #4]
 174              	.L12:
 175              		.loc 1 85 0 is_stmt 0 discriminator 1
 176 0080 019B     		ldr	r3, [sp, #4]
 177 0082 042B     		cmp	r3, #4
 178 0084 F1DD     		ble	.L13
 179              		.loc 1 89 0 is_stmt 1
 180 0086 0023     		movs	r3, #0
 181 0088 0193     		str	r3, [sp, #4]
 182 008a 12E0     		b	.L14
 183              	.L16:
 184              		.loc 1 90 0
 185 008c 2348     		ldr	r0, .L22+4
 186 008e FFF7FEFF 		bl	chPoolAlloc
 187 0092 0346     		mov	r3, r0
 188 0094 002B     		cmp	r3, #0
 189 0096 14BF     		ite	ne
 190 0098 0123     		movne	r3, #1
 191 009a 0023     		moveq	r3, #0
 192 009c DBB2     		uxtb	r3, r3
 193 009e 1946     		mov	r1, r3
 194 00a0 0320     		movs	r0, #3
 195 00a2 FFF7FEFF 		bl	_test_assert
 196 00a6 0346     		mov	r3, r0
 197 00a8 002B     		cmp	r3, #0
 198 00aa 2ED1     		bne	.L20
 199              		.loc 1 89 0 discriminator 2
 200 00ac 019B     		ldr	r3, [sp, #4]
 201 00ae 0133     		adds	r3, r3, #1
 202 00b0 0193     		str	r3, [sp, #4]
 203              	.L14:
 204              		.loc 1 89 0 is_stmt 0 discriminator 1
 205 00b2 019B     		ldr	r3, [sp, #4]
 206 00b4 042B     		cmp	r3, #4
 207 00b6 E9DD     		ble	.L16
 208              		.loc 1 93 0 is_stmt 1
 209 00b8 1848     		ldr	r0, .L22+4
 210 00ba FFF7FEFF 		bl	chPoolAlloc
 211 00be 0346     		mov	r3, r0
 212 00c0 002B     		cmp	r3, #0
 213 00c2 0CBF     		ite	eq
 214 00c4 0123     		moveq	r3, #1
 215 00c6 0023     		movne	r3, #0
 216 00c8 DBB2     		uxtb	r3, r3
 217 00ca 1946     		mov	r1, r3
 218 00cc 0420     		movs	r0, #4
 219 00ce FFF7FEFF 		bl	_test_assert
 220 00d2 0346     		mov	r3, r0
 221 00d4 002B     		cmp	r3, #0
 222 00d6 1AD1     		bne	.L21
 223              		.loc 1 96 0
 224 00d8 114A     		ldr	r2, .L22+8
 225 00da 1021     		movs	r1, #16
 226 00dc 0F48     		ldr	r0, .L22+4
 227 00de FFF7FEFF 		bl	chPoolObjectInit
 228              		.loc 1 97 0
ARM GAS  /tmp/ccxyj9HS.s 			page 5


 229 00e2 0E48     		ldr	r0, .L22+4
 230 00e4 FFF7FEFF 		bl	chPoolAlloc
 231 00e8 0346     		mov	r3, r0
 232 00ea 002B     		cmp	r3, #0
 233 00ec 0CBF     		ite	eq
 234 00ee 0123     		moveq	r3, #1
 235 00f0 0023     		movne	r3, #0
 236 00f2 DBB2     		uxtb	r3, r3
 237 00f4 1946     		mov	r1, r3
 238 00f6 0520     		movs	r0, #5
 239 00f8 FFF7FEFF 		bl	_test_assert
 240 00fc 0346     		mov	r3, r0
 241 00fe 002B     		cmp	r3, #0
 242 0100 06E0     		b	.L6
 243              	.L18:
 244              		.loc 1 79 0
 245 0102 00BF     		nop
 246 0104 04E0     		b	.L6
 247              	.L19:
 248              		.loc 1 82 0
 249 0106 00BF     		nop
 250 0108 02E0     		b	.L6
 251              	.L20:
 252              		.loc 1 90 0
 253 010a 00BF     		nop
 254 010c 00E0     		b	.L6
 255              	.L21:
 256              		.loc 1 93 0
 257 010e 00BF     		nop
 258              	.L6:
 259              		.loc 1 98 0
 260 0110 03B0     		add	sp, sp, #12
 261              		.cfi_def_cfa_offset 4
 262              		@ sp needed
 263 0112 5DF804FB 		ldr	pc, [sp], #4
 264              	.L23:
 265 0116 00BF     		.align	2
 266              	.L22:
 267 0118 00000000 		.word	wa
 268 011c 00000000 		.word	mp1
 269 0120 00000000 		.word	null_provider
 270              		.cfi_endproc
 271              	.LFE233:
 272              		.size	pools1_execute, .-pools1_execute
 273              		.global	testpools1
 274              		.section	.rodata
 275              		.align	2
 276              	.LC0:
 277 0000 4D656D6F 		.ascii	"Memory Pools, queue/dequeue\000"
 277      72792050 
 277      6F6F6C73 
 277      2C207175 
 277      6575652F 
 278              		.section	.rodata.testpools1,"a",%progbits
 279              		.align	2
 280              		.type	testpools1, %object
 281              		.size	testpools1, 16
ARM GAS  /tmp/ccxyj9HS.s 			page 6


 282              	testpools1:
 283 0000 00000000 		.word	.LC0
 284 0004 00000000 		.word	pools1_setup
 285 0008 00000000 		.word	0
 286 000c 00000000 		.word	pools1_execute
 287              		.global	patternpools
 288              		.section	.rodata.patternpools,"a",%progbits
 289              		.align	2
 290              		.type	patternpools, %object
 291              		.size	patternpools, 8
 292              	patternpools:
 293 0000 00000000 		.word	testpools1
 294 0004 00000000 		.word	0
 295              		.text
 296              	.Letext0:
 297              		.file 2 "/usr/lib/gcc/arm-none-eabi/6.3.1/include/stddef.h"
 298              		.file 3 "/usr/arm-none-eabi/include/machine/_default_types.h"
 299              		.file 4 "/usr/arm-none-eabi/include/sys/_stdint.h"
 300              		.file 5 "../ChibiOS/os/rt/ports/ARMCMx/compilers/GCC/chtypes.h"
 301              		.file 6 "../ChibiOS/os/rt/include/chsystypes.h"
 302              		.file 7 "../ChibiOS/os/rt/include/chschd.h"
 303              		.file 8 "../ChibiOS/os/ext/CMSIS/include/core_cm4.h"
 304              		.file 9 "../ChibiOS/os/ext/CMSIS/ST/STM32F4xx/system_stm32f4xx.h"
 305              		.file 10 "../ChibiOS/os/rt/ports/ARMCMx/chcore.h"
 306              		.file 11 "../ChibiOS/os/rt/ports/ARMCMx/chcore_v7m.h"
 307              		.file 12 "../ChibiOS/os/rt/include/chtm.h"
 308              		.file 13 "../ChibiOS/os/rt/include/chstats.h"
 309              		.file 14 "../ChibiOS/os/rt/include/chsem.h"
 310              		.file 15 "../ChibiOS/os/rt/include/chmtx.h"
 311              		.file 16 "../ChibiOS/os/rt/include/chregistry.h"
 312              		.file 17 "../ChibiOS/os/rt/include/chmemcore.h"
 313              		.file 18 "../ChibiOS/os/rt/include/chmempools.h"
 314              		.file 19 "../ChibiOS/test/rt/test.h"