ARM GAS  /tmp/ccxyj9HS.s 			page 1


   1              		.cpu cortex-m4
   2              		.eabi_attribute 27, 1
   3              		.eabi_attribute 28, 1
   4              		.eabi_attribute 20, 1
   5              		.eabi_attribute 21, 1
   6              		.eabi_attribute 23, 3
   7              		.eabi_attribute 24, 1
   8              		.eabi_attribute 25, 1
   9              		.eabi_attribute 26, 1
  10              		.eabi_attribute 30, 6
  11              		.eabi_attribute 34, 1
  12              		.eabi_attribute 18, 4
  13              		.file	"testpools.c"
  14              		.text
  15              	.Ltext0:
  16              		.cfi_sections	.debug_frame
  17              		.section	.data.mp1,"aw",%progbits
  18              		.align	2
  19              		.type	mp1, %object
  20              		.size	mp1, 12
  21              	mp1:
  22 0000 00000000 		.word	0
  23 0004 F0010000 		.word	496
  24 0008 00000000 		.word	0
  25              		.section	.text.null_provider,"ax",%progbits
  26              		.align	1
  27              		.p2align 4,,15
  28              		.syntax unified
  29              		.thumb
  30              		.thumb_func
  31              		.fpu fpv4-sp-d16
  32              		.type	null_provider, %function
  33              	null_provider:
  34              	.LFB231:
  35              		.file 1 "../ChibiOS/test/rt/testpools.c"
  36              		.loc 1 60 0
  37              		.cfi_startproc
  38              		@ args = 0, pretend = 0, frame = 8
  39              		@ frame_needed = 0, uses_anonymous_args = 0
  40              		@ link register save eliminated.
  41 0000 82B0     		sub	sp, sp, #8
  42              		.cfi_def_cfa_offset 8
  43 0002 0190     		str	r0, [sp, #4]
  44              		.loc 1 63 0
  45 0004 0023     		movs	r3, #0
  46              		.loc 1 64 0
  47 0006 1846     		mov	r0, r3
  48 0008 02B0     		add	sp, sp, #8
  49              		.cfi_def_cfa_offset 0
  50              		@ sp needed
  51 000a 7047     		bx	lr
  52              		.cfi_endproc
  53              	.LFE231:
  54              		.size	null_provider, .-null_provider
  55              		.section	.text.pools1_setup,"ax",%progbits
  56              		.align	1
  57              		.p2align 4,,15
ARM GAS  /tmp/ccxyj9HS.s 			page 2


  58              		.syntax unified
  59              		.thumb
  60              		.thumb_func
  61              		.fpu fpv4-sp-d16
  62              		.type	pools1_setup, %function
  63              	pools1_setup:
  64              	.LFB232:
  65              		.loc 1 66 0
  66              		.cfi_startproc
  67              		@ args = 0, pretend = 0, frame = 0
  68              		@ frame_needed = 0, uses_anonymous_args = 0
  69 0000 08B5     		push	{r3, lr}
  70              		.cfi_def_cfa_offset 8
  71              		.cfi_offset 3, -8
  72              		.cfi_offset 14, -4
  73              		.loc 1 68 0
  74 0002 0022     		movs	r2, #0
  75 0004 4FF4F871 		mov	r1, #496
  76 0008 0248     		ldr	r0, .L4
  77 000a FFF7FEFF 		bl	chPoolObjectInit
  78              		.loc 1 69 0
  79 000e 00BF     		nop
  80 0010 08BD     		pop	{r3, pc}
  81              	.L5:
  82 0012 00BF     		.align	2
  83              	.L4:
  84 0014 00000000 		.word	mp1
  85              		.cfi_endproc
  86              	.LFE232:
  87              		.size	pools1_setup, .-pools1_setup
  88              		.section	.text.pools1_execute,"ax",%progbits
  89              		.align	1
  90              		.p2align 4,,15
  91              		.syntax unified
  92              		.thumb
  93              		.thumb_func
  94              		.fpu fpv4-sp-d16
  95              		.type	pools1_execute, %function
  96              	pools1_execute:
  97              	.LFB233:
  98              		.loc 1 71 0
  99              		.cfi_startproc
 100              		@ args = 0, pretend = 0, frame = 8
 101              		@ frame_needed = 0, uses_anonymous_args = 0
 102 0000 00B5     		push	{lr}
 103              		.cfi_def_cfa_offset 4
 104              		.cfi_offset 14, -4
 105 0002 83B0     		sub	sp, sp, #12
 106              		.cfi_def_cfa_offset 16
 107              		.loc 1 75 0
 108 0004 444B     		ldr	r3, .L22
 109 0006 1B68     		ldr	r3, [r3]
 110 0008 0522     		movs	r2, #5
 111 000a 1946     		mov	r1, r3
 112 000c 4348     		ldr	r0, .L22+4
 113 000e FFF7FEFF 		bl	chPoolLoadArray
 114              		.loc 1 78 0
ARM GAS  /tmp/ccxyj9HS.s 			page 3


 115 0012 0023     		movs	r3, #0
 116 0014 0193     		str	r3, [sp, #4]
 117 0016 12E0     		b	.L7
 118              	.L10:
 119              		.loc 1 79 0
 120 0018 4048     		ldr	r0, .L22+4
 121 001a FFF7FEFF 		bl	chPoolAlloc
 122 001e 0346     		mov	r3, r0
 123 0020 002B     		cmp	r3, #0
 124 0022 14BF     		ite	ne
 125 0024 0123     		movne	r3, #1
 126 0026 0023     		moveq	r3, #0
 127 0028 DBB2     		uxtb	r3, r3
 128 002a 1946     		mov	r1, r3
 129 002c 0120     		movs	r0, #1
 130 002e FFF7FEFF 		bl	_test_assert
 131 0032 0346     		mov	r3, r0
 132 0034 002B     		cmp	r3, #0
 133 0036 64D1     		bne	.L18
 134              		.loc 1 78 0 discriminator 2
 135 0038 019B     		ldr	r3, [sp, #4]
 136 003a 0133     		adds	r3, r3, #1
 137 003c 0193     		str	r3, [sp, #4]
 138              	.L7:
 139              		.loc 1 78 0 is_stmt 0 discriminator 1
 140 003e 019B     		ldr	r3, [sp, #4]
 141 0040 042B     		cmp	r3, #4
 142 0042 E9DD     		ble	.L10
 143              		.loc 1 82 0 is_stmt 1
 144 0044 3548     		ldr	r0, .L22+4
 145 0046 FFF7FEFF 		bl	chPoolAlloc
 146 004a 0346     		mov	r3, r0
 147 004c 002B     		cmp	r3, #0
 148 004e 0CBF     		ite	eq
 149 0050 0123     		moveq	r3, #1
 150 0052 0023     		movne	r3, #0
 151 0054 DBB2     		uxtb	r3, r3
 152 0056 1946     		mov	r1, r3
 153 0058 0220     		movs	r0, #2
 154 005a FFF7FEFF 		bl	_test_assert
 155 005e 0346     		mov	r3, r0
 156 0060 002B     		cmp	r3, #0
 157 0062 50D1     		bne	.L19
 158              		.loc 1 85 0
 159 0064 0023     		movs	r3, #0
 160 0066 0193     		str	r3, [sp, #4]
 161 0068 0AE0     		b	.L12
 162              	.L13:
 163              		.loc 1 86 0 discriminator 3
 164 006a 2B4A     		ldr	r2, .L22
 165 006c 019B     		ldr	r3, [sp, #4]
 166 006e 52F82330 		ldr	r3, [r2, r3, lsl #2]
 167 0072 1946     		mov	r1, r3
 168 0074 2948     		ldr	r0, .L22+4
 169 0076 FFF7FEFF 		bl	chPoolFree
 170              		.loc 1 85 0 discriminator 3
 171 007a 019B     		ldr	r3, [sp, #4]
ARM GAS  /tmp/ccxyj9HS.s 			page 4


 172 007c 0133     		adds	r3, r3, #1
 173 007e 0193     		str	r3, [sp, #4]
 174              	.L12:
 175              		.loc 1 85 0 is_stmt 0 discriminator 1
 176 0080 019B     		ldr	r3, [sp, #4]
 177 0082 042B     		cmp	r3, #4
 178 0084 F1DD     		ble	.L13
 179              		.loc 1 89 0 is_stmt 1
 180 0086 0023     		movs	r3, #0
 181 0088 0193     		str	r3, [sp, #4]
 182 008a 12E0     		b	.L14
 183              	.L16:
 184              		.loc 1 90 0
 185 008c 2348     		ldr	r0, .L22+4
 186 008e FFF7FEFF 		bl	chPoolAlloc
 187 0092 0346     		mov	r3, r0
 188 0094 002B     		cmp	r3, #0
 189 0096 14BF     		ite	ne
 190 0098 0123     		movne	r3, #1
 191 009a 0023     		moveq	r3, #0
 192 009c DBB2     		uxtb	r3, r3
 193 009e 1946     		mov	r1, r3
 194 00a0 0320     		movs	r0, #3
 195 00a2 FFF7FEFF 		bl	_test_assert
 196 00a6 0346     		mov	r3, r0
 197 00a8 002B     		cmp	r3, #0
 198 00aa 2ED1     		bne	.L20
 199              		.loc 1 89 0 discriminator 2
 200 00ac 019B     		ldr	r3, [sp, #4]
 201 00ae 0133     		adds	r3, r3, #1
 202 00b0 0193     		str	r3, [sp, #4]
 203              	.L14:
 204              		.loc 1 89 0 is_stmt 0 discriminator 1
 205 00b2 019B     		ldr	r3, [sp, #4]
 206 00b4 042B     		cmp	r3, #4
 207 00b6 E9DD     		ble	.L16
 208              		.loc 1 93 0 is_stmt 1
 209 00b8 1848     		ldr	r0, .L22+4
 210 00ba FFF7FEFF 		bl	chPoolAlloc
 211 00be 0346     		mov	r3, r0
 212 00c0 002B     		cmp	r3, #0
 213 00c2 0CBF     		ite	eq
 214 00c4 0123     		moveq	r3, #1
 215 00c6 0023     		movne	r3, #0
 216 00c8 DBB2     		uxtb	r3, r3
 217 00ca 1946     		mov	r1, r3
 218 00cc 0420     		movs	r0, #4
 219 00ce FFF7FEFF 		bl	_test_assert
 220 00d2 0346     		mov	r3, r0
 221 00d4 002B     		cmp	r3, #0
 222 00d6 1AD1     		bne	.L21
 223              		.loc 1 96 0
 224 00d8 114A     		ldr	r2, .L22+8
 225 00da 1021     		movs	r1, #16
 226 00dc 0F48     		ldr	r0, .L22+4
 227 00de FFF7FEFF 		bl	chPoolObjectInit
 228              		.loc 1 97 0
ARM GAS  /tmp/ccxyj9HS.s 			page 5


 229 00e2 0E48     		ldr	r0, .L22+4
 230 00e4 FFF7FEFF 		bl	chPoolAlloc
 231 00e8 0346     		mov	r3, r0
 232 00ea 002B     		cmp	r3, #0
 233 00ec 0CBF     		ite	eq
 234 00ee 0123     		moveq	r3, #1
 235 00f0 0023     		movne	r3, #0
 236 00f2 DBB2     		uxtb	r3, r3
 237 00f4 1946     		mov	r1, r3
 238 00f6 0520     		movs	r0, #5
 239 00f8 FFF7FEFF 		bl	_test_assert
 240 00fc 0346     		mov	r3, r0
 241 00fe 002B     		cmp	r3, #0
 242 0100 06E0     		b	.L6
 243              	.L18:
 244              		.loc 1 79 0
 245 0102 00BF     		nop
 246 0104 04E0     		b	.L6
 247              	.L19:
 248              		.loc 1 82 0
 249 0106 00BF     		nop
 250 0108 02E0     		b	.L6
 251              	.L20:
 252              		.loc 1 90 0
 253 010a 00BF     		nop
 254 010c 00E0     		b	.L6
 255              	.L21:
 256              		.loc 1 93 0
 257 010e 00BF     		nop
 258              	.L6:
 259              		.loc 1 98 0
 260 0110 03B0     		add	sp, sp, #12
 261              		.cfi_def_cfa_offset 4
 262              		@ sp needed
 263 0112 5DF804FB 		ldr	pc, [sp], #4
 264              	.L23:
 265 0116 00BF     		.align	2
 266              	.L22:
 267 0118 00000000 		.word	wa
 268 011c 00000000 		.word	mp1
 269 0120 00000000 		.word	null_provider
 270              		.cfi_endproc
 271              	.LFE233:
 272              		.size	pools1_execute, .-pools1_execute
 273              		.global	testpools1
 274              		.section	.rodata
 275              		.align	2
 276              	.LC0:
 277 0000 4D656D6F 		.ascii	"Memory Pools, queue/dequeue\000"
 277      72792050 
 277      6F6F6C73 
 277      2C207175 
 277      6575652F 
 278              		.section	.rodata.testpools1,"a",%progbits
 279              		.align	2
 280              		.type	testpools1, %object
 281              		.size	testpools1, 16
ARM GAS  /tmp/ccxyj9HS.s 			page 6


 282              	testpools1:
 283 0000 00000000 		.word	.LC0
 284 0004 00000000 		.word	pools1_setup
 285 0008 00000000 		.word	0
 286 000c 00000000 		.word	pools1_execute
 287              		.global	patternpools
 288              		.section	.rodata.patternpools,"a",%progbits
 289              		.align	2
 290              		.type	patternpools, %object
 291              		.size	patternpools, 8
 292              	patternpools:
 293 0000 00000000 		.word	testpools1
 294 0004 00000000 		.word	0
 295              		.text
 296              	.Letext0:
 297              		.file 2 "/usr/lib/gcc/arm-none-eabi/6.3.1/include/stddef.h"
 298              		.file 3 "/usr/arm-none-eabi/include/machine/_default_types.h"
 299              		.file 4 "/usr/arm-none-eabi/include/sys/_stdint.h"
 300              		.file 5 "../ChibiOS/os/rt/ports/ARMCMx/compilers/GCC/chtypes.h"
 301              		.file 6 "../ChibiOS/os/rt/include/chsystypes.h"
 302              		.file 7 "../ChibiOS/os/rt/include/chschd.h"
 303              		.file 8 "../ChibiOS/os/ext/CMSIS/include/core_cm4.h"
 304              		.file 9 "../ChibiOS/os/ext/CMSIS/ST/STM32F4xx/system_stm32f4xx.h"
 305              		.file 10 "../ChibiOS/os/rt/ports/ARMCMx/chcore.h"
 306              		.file 11 "../ChibiOS/os/rt/ports/ARMCMx/chcore_v7m.h"
 307              		.file 12 "../ChibiOS/os/rt/include/chtm.h"
 308              		.file 13 "../ChibiOS/os/rt/include/chstats.h"
 309              		.file 14 "../ChibiOS/os/rt/include/chsem.h"
 310              		.file 15 "../ChibiOS/os/rt/include/chmtx.h"
 311              		.file 16 "../ChibiOS/os/rt/include/chregistry.h"
 312              		.file 17 "../ChibiOS/os/rt/include/chmemcore.h"
 313              		.file 18 "../ChibiOS/os/rt/include/chmempools.h"
 314              		.file 19 "../ChibiOS/test/rt/test.h"
 315              		.section	.debug_info,"",%progbits
 316              	.Ldebug_info0:
 317 0000 850B0000 		.4byte	0xb85
 318 0004 0400     		.2byte	0x4
 319 0006 00000000 		.4byte	.Ldebug_abbrev0
 320 000a 04       		.byte	0x4
 321 000b 01       		.uleb128 0x1
 322 000c 84010000 		.4byte	.LASF166
 323 0010 0C       		.byte	0xc
 324 0011 0B080000 		.4byte	.LASF167
 325 0015 52030000 		.4byte	.LASF168
 326 0019 00000000 		.4byte	.Ldebug_ranges0+0
 327 001d 00000000 		.4byte	0
 328 0021 00000000 		.4byte	.Ldebug_line0
 329 0025 02       		.uleb128 0x2
 330 0026 04       		.byte	0x4
 331 0027 05       		.byte	0x5
 332 0028 696E7400 		.ascii	"int\000"
 333 002c 03       		.uleb128 0x3
 334 002d 1A000000 		.4byte	.LASF4
 335 0031 02       		.byte	0x2
 336 0032 D8       		.byte	0xd8
 337 0033 37000000 		.4byte	0x37
 338 0037 04       		.uleb128 0x4
ARM GAS  /tmp/ccxyj9HS.s 			page 7


 339 0038 04       		.byte	0x4
 340 0039 07       		.byte	0x7
 341 003a 24030000 		.4byte	.LASF0
 342 003e 04       		.uleb128 0x4
 343 003f 08       		.byte	0x8
 344 0040 05       		.byte	0x5
 345 0041 14010000 		.4byte	.LASF1
 346 0045 04       		.uleb128 0x4
 347 0046 08       		.byte	0x8
 348 0047 04       		.byte	0x4
 349 0048 C8040000 		.4byte	.LASF2
 350 004c 04       		.uleb128 0x4
 351 004d 01       		.byte	0x1
 352 004e 06       		.byte	0x6
 353 004f 22010000 		.4byte	.LASF3
 354 0053 03       		.uleb128 0x3
 355 0054 3E000000 		.4byte	.LASF5
 356 0058 03       		.byte	0x3
 357 0059 2B       		.byte	0x2b
 358 005a 5E000000 		.4byte	0x5e
 359 005e 04       		.uleb128 0x4
 360 005f 01       		.byte	0x1
 361 0060 08       		.byte	0x8
 362 0061 BB050000 		.4byte	.LASF6
 363 0065 04       		.uleb128 0x4
 364 0066 02       		.byte	0x2
 365 0067 05       		.byte	0x5
 366 0068 D3050000 		.4byte	.LASF7
 367 006c 03       		.uleb128 0x3
 368 006d D7060000 		.4byte	.LASF8
 369 0071 03       		.byte	0x3
 370 0072 39       		.byte	0x39
 371 0073 77000000 		.4byte	0x77
 372 0077 04       		.uleb128 0x4
 373 0078 02       		.byte	0x2
 374 0079 07       		.byte	0x7
 375 007a D9030000 		.4byte	.LASF9
 376 007e 03       		.uleb128 0x3
 377 007f 5F040000 		.4byte	.LASF10
 378 0083 03       		.byte	0x3
 379 0084 4D       		.byte	0x4d
 380 0085 89000000 		.4byte	0x89
 381 0089 04       		.uleb128 0x4
 382 008a 04       		.byte	0x4
 383 008b 05       		.byte	0x5
 384 008c 72010000 		.4byte	.LASF11
 385 0090 03       		.uleb128 0x3
 386 0091 22070000 		.4byte	.LASF12
 387 0095 03       		.byte	0x3
 388 0096 4F       		.byte	0x4f
 389 0097 9B000000 		.4byte	0x9b
 390 009b 04       		.uleb128 0x4
 391 009c 04       		.byte	0x4
 392 009d 07       		.byte	0x7
 393 009e B9060000 		.4byte	.LASF13
 394 00a2 03       		.uleb128 0x3
 395 00a3 4D050000 		.4byte	.LASF14
ARM GAS  /tmp/ccxyj9HS.s 			page 8


 396 00a7 03       		.byte	0x3
 397 00a8 69       		.byte	0x69
 398 00a9 AD000000 		.4byte	0xad
 399 00ad 04       		.uleb128 0x4
 400 00ae 08       		.byte	0x8
 401 00af 07       		.byte	0x7
 402 00b0 8D000000 		.4byte	.LASF15
 403 00b4 03       		.uleb128 0x3
 404 00b5 B8070000 		.4byte	.LASF16
 405 00b9 04       		.byte	0x4
 406 00ba 18       		.byte	0x18
 407 00bb 53000000 		.4byte	0x53
 408 00bf 03       		.uleb128 0x3
 409 00c0 39030000 		.4byte	.LASF17
 410 00c4 04       		.byte	0x4
 411 00c5 24       		.byte	0x24
 412 00c6 6C000000 		.4byte	0x6c
 413 00ca 03       		.uleb128 0x3
 414 00cb B3050000 		.4byte	.LASF18
 415 00cf 04       		.byte	0x4
 416 00d0 2C       		.byte	0x2c
 417 00d1 7E000000 		.4byte	0x7e
 418 00d5 05       		.uleb128 0x5
 419 00d6 CA000000 		.4byte	0xca
 420 00da 03       		.uleb128 0x3
 421 00db 81060000 		.4byte	.LASF19
 422 00df 04       		.byte	0x4
 423 00e0 30       		.byte	0x30
 424 00e1 90000000 		.4byte	0x90
 425 00e5 03       		.uleb128 0x3
 426 00e6 28000000 		.4byte	.LASF20
 427 00ea 04       		.byte	0x4
 428 00eb 3C       		.byte	0x3c
 429 00ec A2000000 		.4byte	0xa2
 430 00f0 03       		.uleb128 0x3
 431 00f1 6E070000 		.4byte	.LASF21
 432 00f5 05       		.byte	0x5
 433 00f6 39       		.byte	0x39
 434 00f7 DA000000 		.4byte	0xda
 435 00fb 03       		.uleb128 0x3
 436 00fc EE000000 		.4byte	.LASF22
 437 0100 05       		.byte	0x5
 438 0101 3A       		.byte	0x3a
 439 0102 E5000000 		.4byte	0xe5
 440 0106 03       		.uleb128 0x3
 441 0107 0B060000 		.4byte	.LASF23
 442 010b 05       		.byte	0x5
 443 010c 3C       		.byte	0x3c
 444 010d B4000000 		.4byte	0xb4
 445 0111 03       		.uleb128 0x3
 446 0112 7B010000 		.4byte	.LASF24
 447 0116 05       		.byte	0x5
 448 0117 3D       		.byte	0x3d
 449 0118 B4000000 		.4byte	0xb4
 450 011c 03       		.uleb128 0x3
 451 011d 63050000 		.4byte	.LASF25
 452 0121 05       		.byte	0x5
ARM GAS  /tmp/ccxyj9HS.s 			page 9


 453 0122 3E       		.byte	0x3e
 454 0123 B4000000 		.4byte	0xb4
 455 0127 03       		.uleb128 0x3
 456 0128 95050000 		.4byte	.LASF26
 457 012c 05       		.byte	0x5
 458 012d 40       		.byte	0x40
 459 012e DA000000 		.4byte	0xda
 460 0132 03       		.uleb128 0x3
 461 0133 05040000 		.4byte	.LASF27
 462 0137 05       		.byte	0x5
 463 0138 41       		.byte	0x41
 464 0139 CA000000 		.4byte	0xca
 465 013d 03       		.uleb128 0x3
 466 013e 53040000 		.4byte	.LASF28
 467 0142 05       		.byte	0x5
 468 0143 43       		.byte	0x43
 469 0144 DA000000 		.4byte	0xda
 470 0148 03       		.uleb128 0x3
 471 0149 13030000 		.4byte	.LASF29
 472 014d 05       		.byte	0x5
 473 014e 45       		.byte	0x45
 474 014f CA000000 		.4byte	0xca
 475 0153 03       		.uleb128 0x3
 476 0154 10040000 		.4byte	.LASF30
 477 0158 05       		.byte	0x5
 478 0159 46       		.byte	0x46
 479 015a DA000000 		.4byte	0xda
 480 015e 03       		.uleb128 0x3
 481 015f 04070000 		.4byte	.LASF31
 482 0163 06       		.byte	0x6
 483 0164 33       		.byte	0x33
 484 0165 DA000000 		.4byte	0xda
 485 0169 05       		.uleb128 0x5
 486 016a 5E010000 		.4byte	0x15e
 487 016e 03       		.uleb128 0x3
 488 016f EF060000 		.4byte	.LASF32
 489 0173 06       		.byte	0x6
 490 0174 3F       		.byte	0x3f
 491 0175 79010000 		.4byte	0x179
 492 0179 06       		.uleb128 0x6
 493 017a FB030000 		.4byte	.LASF54
 494 017e 60       		.byte	0x60
 495 017f 07       		.byte	0x7
 496 0180 C2       		.byte	0xc2
 497 0181 7F020000 		.4byte	0x27f
 498 0185 07       		.uleb128 0x7
 499 0186 04060000 		.4byte	.LASF33
 500 018a 07       		.byte	0x7
 501 018b C3       		.byte	0xc3
 502 018c 8A020000 		.4byte	0x28a
 503 0190 00       		.byte	0
 504 0191 07       		.uleb128 0x7
 505 0192 86050000 		.4byte	.LASF34
 506 0196 07       		.byte	0x7
 507 0197 C5       		.byte	0xc5
 508 0198 8A020000 		.4byte	0x28a
 509 019c 04       		.byte	0x4
ARM GAS  /tmp/ccxyj9HS.s 			page 10


 510 019d 07       		.uleb128 0x7
 511 019e F7000000 		.4byte	.LASF35
 512 01a2 07       		.byte	0x7
 513 01a3 C7       		.byte	0xc7
 514 01a4 27010000 		.4byte	0x127
 515 01a8 08       		.byte	0x8
 516 01a9 07       		.uleb128 0x7
 517 01aa 02050000 		.4byte	.LASF36
 518 01ae 07       		.byte	0x7
 519 01af C8       		.byte	0xc8
 520 01b0 FD040000 		.4byte	0x4fd
 521 01b4 0C       		.byte	0xc
 522 01b5 07       		.uleb128 0x7
 523 01b6 AE020000 		.4byte	.LASF37
 524 01ba 07       		.byte	0x7
 525 01bb CA       		.byte	0xca
 526 01bc 8A020000 		.4byte	0x28a
 527 01c0 10       		.byte	0x10
 528 01c1 07       		.uleb128 0x7
 529 01c2 F4040000 		.4byte	.LASF38
 530 01c6 07       		.byte	0x7
 531 01c7 CB       		.byte	0xcb
 532 01c8 8A020000 		.4byte	0x28a
 533 01cc 14       		.byte	0x14
 534 01cd 07       		.uleb128 0x7
 535 01ce 9D050000 		.4byte	.LASF39
 536 01d2 07       		.byte	0x7
 537 01d3 D2       		.byte	0xd2
 538 01d4 DD070000 		.4byte	0x7dd
 539 01d8 18       		.byte	0x18
 540 01d9 07       		.uleb128 0x7
 541 01da 19030000 		.4byte	.LASF40
 542 01de 07       		.byte	0x7
 543 01df D8       		.byte	0xd8
 544 01e0 F4070000 		.4byte	0x7f4
 545 01e4 1C       		.byte	0x1c
 546 01e5 07       		.uleb128 0x7
 547 01e6 DD050000 		.4byte	.LASF41
 548 01ea 07       		.byte	0x7
 549 01eb DD       		.byte	0xdd
 550 01ec 11010000 		.4byte	0x111
 551 01f0 20       		.byte	0x20
 552 01f1 07       		.uleb128 0x7
 553 01f2 22060000 		.4byte	.LASF42
 554 01f6 07       		.byte	0x7
 555 01f7 E1       		.byte	0xe1
 556 01f8 06010000 		.4byte	0x106
 557 01fc 21       		.byte	0x21
 558 01fd 07       		.uleb128 0x7
 559 01fe A3070000 		.4byte	.LASF43
 560 0202 07       		.byte	0x7
 561 0203 E6       		.byte	0xe6
 562 0204 1C010000 		.4byte	0x11c
 563 0208 22       		.byte	0x22
 564 0209 08       		.uleb128 0x8
 565 020a 705F7500 		.ascii	"p_u\000"
 566 020e 07       		.byte	0x7
ARM GAS  /tmp/ccxyj9HS.s 			page 11


 567 020f 3101     		.2byte	0x131
 568 0211 18070000 		.4byte	0x718
 569 0215 24       		.byte	0x24
 570 0216 09       		.uleb128 0x9
 571 0217 9E040000 		.4byte	.LASF44
 572 021b 07       		.byte	0x7
 573 021c 3601     		.2byte	0x136
 574 021e 90020000 		.4byte	0x290
 575 0222 28       		.byte	0x28
 576 0223 09       		.uleb128 0x9
 577 0224 A6030000 		.4byte	.LASF45
 578 0228 07       		.byte	0x7
 579 0229 3C01     		.2byte	0x13c
 580 022b B4020000 		.4byte	0x2b4
 581 022f 2C       		.byte	0x2c
 582 0230 09       		.uleb128 0x9
 583 0231 68070000 		.4byte	.LASF46
 584 0235 07       		.byte	0x7
 585 0236 4001     		.2byte	0x140
 586 0238 32010000 		.4byte	0x132
 587 023c 34       		.byte	0x34
 588 023d 09       		.uleb128 0x9
 589 023e 76060000 		.4byte	.LASF47
 590 0242 07       		.byte	0x7
 591 0243 4601     		.2byte	0x146
 592 0245 3D010000 		.4byte	0x13d
 593 0249 38       		.byte	0x38
 594 024a 09       		.uleb128 0x9
 595 024b C9050000 		.4byte	.LASF48
 596 024f 07       		.byte	0x7
 597 0250 4D01     		.2byte	0x14d
 598 0252 D7070000 		.4byte	0x7d7
 599 0256 3C       		.byte	0x3c
 600 0257 09       		.uleb128 0x9
 601 0258 0E070000 		.4byte	.LASF49
 602 025c 07       		.byte	0x7
 603 025d 5101     		.2byte	0x151
 604 025f 27010000 		.4byte	0x127
 605 0263 40       		.byte	0x40
 606 0264 09       		.uleb128 0x9
 607 0265 4B010000 		.4byte	.LASF50
 608 0269 07       		.byte	0x7
 609 026a 5801     		.2byte	0x158
 610 026c 67030000 		.4byte	0x367
 611 0270 44       		.byte	0x44
 612 0271 09       		.uleb128 0x9
 613 0272 2A060000 		.4byte	.LASF51
 614 0276 07       		.byte	0x7
 615 0277 5E01     		.2byte	0x15e
 616 0279 C9060000 		.4byte	0x6c9
 617 027d 48       		.byte	0x48
 618 027e 00       		.byte	0
 619 027f 03       		.uleb128 0x3
 620 0280 C0070000 		.4byte	.LASF52
 621 0284 06       		.byte	0x6
 622 0285 44       		.byte	0x44
 623 0286 8A020000 		.4byte	0x28a
ARM GAS  /tmp/ccxyj9HS.s 			page 12


 624 028a 0A       		.uleb128 0xa
 625 028b 04       		.byte	0x4
 626 028c 6E010000 		.4byte	0x16e
 627 0290 03       		.uleb128 0x3
 628 0291 74040000 		.4byte	.LASF53
 629 0295 06       		.byte	0x6
 630 0296 49       		.byte	0x49
 631 0297 9B020000 		.4byte	0x29b
 632 029b 06       		.uleb128 0x6
 633 029c A1060000 		.4byte	.LASF55
 634 02a0 04       		.byte	0x4
 635 02a1 07       		.byte	0x7
 636 02a2 B0       		.byte	0xb0
 637 02a3 B4020000 		.4byte	0x2b4
 638 02a7 07       		.uleb128 0x7
 639 02a8 04060000 		.4byte	.LASF33
 640 02ac 07       		.byte	0x7
 641 02ad B1       		.byte	0xb1
 642 02ae 8A020000 		.4byte	0x28a
 643 02b2 00       		.byte	0
 644 02b3 00       		.byte	0
 645 02b4 03       		.uleb128 0x3
 646 02b5 32060000 		.4byte	.LASF56
 647 02b9 06       		.byte	0x6
 648 02ba 50       		.byte	0x50
 649 02bb BF020000 		.4byte	0x2bf
 650 02bf 06       		.uleb128 0x6
 651 02c0 54000000 		.4byte	.LASF57
 652 02c4 08       		.byte	0x8
 653 02c5 07       		.byte	0x7
 654 02c6 B7       		.byte	0xb7
 655 02c7 E4020000 		.4byte	0x2e4
 656 02cb 07       		.uleb128 0x7
 657 02cc 04060000 		.4byte	.LASF33
 658 02d0 07       		.byte	0x7
 659 02d1 B8       		.byte	0xb8
 660 02d2 8A020000 		.4byte	0x28a
 661 02d6 00       		.byte	0
 662 02d7 07       		.uleb128 0x7
 663 02d8 86050000 		.4byte	.LASF34
 664 02dc 07       		.byte	0x7
 665 02dd B9       		.byte	0xb9
 666 02de 8A020000 		.4byte	0x28a
 667 02e2 04       		.byte	0x4
 668 02e3 00       		.byte	0
 669 02e4 03       		.uleb128 0x3
 670 02e5 0D000000 		.4byte	.LASF58
 671 02e9 06       		.byte	0x6
 672 02ea 57       		.byte	0x57
 673 02eb EF020000 		.4byte	0x2ef
 674 02ef 0B       		.uleb128 0xb
 675 02f0 45040000 		.4byte	.LASF59
 676 02f4 1C       		.byte	0x1c
 677 02f5 07       		.byte	0x7
 678 02f6 9001     		.2byte	0x190
 679 02f8 4B030000 		.4byte	0x34b
 680 02fc 09       		.uleb128 0x9
ARM GAS  /tmp/ccxyj9HS.s 			page 13


 681 02fd E0040000 		.4byte	.LASF60
 682 0301 07       		.byte	0x7
 683 0302 9101     		.2byte	0x191
 684 0304 B4020000 		.4byte	0x2b4
 685 0308 00       		.byte	0
 686 0309 09       		.uleb128 0x9
 687 030a 97040000 		.4byte	.LASF61
 688 030e 07       		.byte	0x7
 689 030f 9201     		.2byte	0x192
 690 0311 27010000 		.4byte	0x127
 691 0315 08       		.byte	0x8
 692 0316 09       		.uleb128 0x9
 693 0317 FC040000 		.4byte	.LASF62
 694 031b 07       		.byte	0x7
 695 031c 9401     		.2byte	0x194
 696 031e FD040000 		.4byte	0x4fd
 697 0322 0C       		.byte	0xc
 698 0323 09       		.uleb128 0x9
 699 0324 BE020000 		.4byte	.LASF63
 700 0328 07       		.byte	0x7
 701 0329 9701     		.2byte	0x197
 702 032b 8A020000 		.4byte	0x28a
 703 032f 10       		.byte	0x10
 704 0330 09       		.uleb128 0x9
 705 0331 38050000 		.4byte	.LASF64
 706 0335 07       		.byte	0x7
 707 0336 9801     		.2byte	0x198
 708 0338 8A020000 		.4byte	0x28a
 709 033c 14       		.byte	0x14
 710 033d 09       		.uleb128 0x9
 711 033e 2E050000 		.4byte	.LASF65
 712 0342 07       		.byte	0x7
 713 0343 9B01     		.2byte	0x19b
 714 0345 8A020000 		.4byte	0x28a
 715 0349 18       		.byte	0x18
 716 034a 00       		.byte	0
 717 034b 03       		.uleb128 0x3
 718 034c 19070000 		.4byte	.LASF66
 719 0350 06       		.byte	0x6
 720 0351 5C       		.byte	0x5c
 721 0352 56030000 		.4byte	0x356
 722 0356 0A       		.uleb128 0xa
 723 0357 04       		.byte	0x4
 724 0358 5C030000 		.4byte	0x35c
 725 035c 0C       		.uleb128 0xc
 726 035d 67030000 		.4byte	0x367
 727 0361 0D       		.uleb128 0xd
 728 0362 67030000 		.4byte	0x367
 729 0366 00       		.byte	0
 730 0367 0E       		.uleb128 0xe
 731 0368 04       		.byte	0x4
 732 0369 0F       		.uleb128 0xf
 733 036a 67030000 		.4byte	0x367
 734 036e 03       		.uleb128 0x3
 735 036f 76050000 		.4byte	.LASF67
 736 0373 06       		.byte	0x6
 737 0374 61       		.byte	0x61
ARM GAS  /tmp/ccxyj9HS.s 			page 14


 738 0375 79030000 		.4byte	0x379
 739 0379 0B       		.uleb128 0xb
 740 037a 42060000 		.4byte	.LASF68
 741 037e 14       		.byte	0x14
 742 037f 07       		.byte	0x7
 743 0380 6B01     		.2byte	0x16b
 744 0382 C8030000 		.4byte	0x3c8
 745 0386 09       		.uleb128 0x9
 746 0387 31030000 		.4byte	.LASF69
 747 038b 07       		.byte	0x7
 748 038c 6C01     		.2byte	0x16c
 749 038e FA070000 		.4byte	0x7fa
 750 0392 00       		.byte	0
 751 0393 09       		.uleb128 0x9
 752 0394 DB020000 		.4byte	.LASF70
 753 0398 07       		.byte	0x7
 754 0399 6D01     		.2byte	0x16d
 755 039b FA070000 		.4byte	0x7fa
 756 039f 04       		.byte	0x4
 757 03a0 09       		.uleb128 0x9
 758 03a1 9D030000 		.4byte	.LASF71
 759 03a5 07       		.byte	0x7
 760 03a6 6E01     		.2byte	0x16e
 761 03a8 5E010000 		.4byte	0x15e
 762 03ac 08       		.byte	0x8
 763 03ad 09       		.uleb128 0x9
 764 03ae 4B080000 		.4byte	.LASF72
 765 03b2 07       		.byte	0x7
 766 03b3 6F01     		.2byte	0x16f
 767 03b5 4B030000 		.4byte	0x34b
 768 03b9 0C       		.byte	0xc
 769 03ba 09       		.uleb128 0x9
 770 03bb 83070000 		.4byte	.LASF73
 771 03bf 07       		.byte	0x7
 772 03c0 7101     		.2byte	0x171
 773 03c2 67030000 		.4byte	0x367
 774 03c6 10       		.byte	0x10
 775 03c7 00       		.byte	0
 776 03c8 03       		.uleb128 0x3
 777 03c9 CB000000 		.4byte	.LASF74
 778 03cd 06       		.byte	0x6
 779 03ce 66       		.byte	0x66
 780 03cf D3030000 		.4byte	0x3d3
 781 03d3 0B       		.uleb128 0xb
 782 03d4 B1040000 		.4byte	.LASF75
 783 03d8 10       		.byte	0x10
 784 03d9 07       		.byte	0x7
 785 03da 7B01     		.2byte	0x17b
 786 03dc 15040000 		.4byte	0x415
 787 03e0 09       		.uleb128 0x9
 788 03e1 31030000 		.4byte	.LASF69
 789 03e5 07       		.byte	0x7
 790 03e6 7C01     		.2byte	0x17c
 791 03e8 FA070000 		.4byte	0x7fa
 792 03ec 00       		.byte	0
 793 03ed 09       		.uleb128 0x9
 794 03ee DB020000 		.4byte	.LASF70
ARM GAS  /tmp/ccxyj9HS.s 			page 15


 795 03f2 07       		.byte	0x7
 796 03f3 7E01     		.2byte	0x17e
 797 03f5 FA070000 		.4byte	0x7fa
 798 03f9 04       		.byte	0x4
 799 03fa 09       		.uleb128 0x9
 800 03fb 9D030000 		.4byte	.LASF71
 801 03ff 07       		.byte	0x7
 802 0400 8001     		.2byte	0x180
 803 0402 5E010000 		.4byte	0x15e
 804 0406 08       		.byte	0x8
 805 0407 09       		.uleb128 0x9
 806 0408 F5070000 		.4byte	.LASF76
 807 040c 07       		.byte	0x7
 808 040d 8201     		.2byte	0x182
 809 040f 69010000 		.4byte	0x169
 810 0413 0C       		.byte	0xc
 811 0414 00       		.byte	0
 812 0415 03       		.uleb128 0x3
 813 0416 65000000 		.4byte	.LASF77
 814 041a 06       		.byte	0x6
 815 041b 6B       		.byte	0x6b
 816 041c 20040000 		.4byte	0x420
 817 0420 0B       		.uleb128 0xb
 818 0421 E3020000 		.4byte	.LASF78
 819 0425 0C       		.byte	0xc
 820 0426 07       		.byte	0x7
 821 0427 A201     		.2byte	0x1a2
 822 0429 55040000 		.4byte	0x455
 823 042d 09       		.uleb128 0x9
 824 042e 2D070000 		.4byte	.LASF79
 825 0432 07       		.byte	0x7
 826 0433 AA01     		.2byte	0x1aa
 827 0435 E3070000 		.4byte	0x7e3
 828 0439 00       		.byte	0
 829 043a 09       		.uleb128 0x9
 830 043b AA070000 		.4byte	.LASF80
 831 043f 07       		.byte	0x7
 832 0440 AF01     		.2byte	0x1af
 833 0442 48010000 		.4byte	0x148
 834 0446 04       		.byte	0x4
 835 0447 09       		.uleb128 0x9
 836 0448 FB020000 		.4byte	.LASF81
 837 044c 07       		.byte	0x7
 838 044d B301     		.2byte	0x1b3
 839 044f 48010000 		.4byte	0x148
 840 0453 08       		.byte	0x8
 841 0454 00       		.byte	0
 842 0455 03       		.uleb128 0x3
 843 0456 17040000 		.4byte	.LASF82
 844 045a 06       		.byte	0x6
 845 045b 70       		.byte	0x70
 846 045c 60040000 		.4byte	0x460
 847 0460 10       		.uleb128 0x10
 848 0461 68010000 		.4byte	.LASF83
 849 0465 5802     		.2byte	0x258
 850 0467 07       		.byte	0x7
 851 0468 C201     		.2byte	0x1c2
ARM GAS  /tmp/ccxyj9HS.s 			page 16


 852 046a C9040000 		.4byte	0x4c9
 853 046e 09       		.uleb128 0x9
 854 046f B2070000 		.4byte	.LASF84
 855 0473 07       		.byte	0x7
 856 0474 C601     		.2byte	0x1c6
 857 0476 E4020000 		.4byte	0x2e4
 858 047a 00       		.byte	0
 859 047b 09       		.uleb128 0x9
 860 047c 5B010000 		.4byte	.LASF85
 861 0480 07       		.byte	0x7
 862 0481 CA01     		.2byte	0x1ca
 863 0483 C8030000 		.4byte	0x3c8
 864 0487 1C       		.byte	0x1c
 865 0488 08       		.uleb128 0x8
 866 0489 64626700 		.ascii	"dbg\000"
 867 048d 07       		.byte	0x7
 868 048e CE01     		.2byte	0x1ce
 869 0490 15040000 		.4byte	0x415
 870 0494 2C       		.byte	0x2c
 871 0495 09       		.uleb128 0x9
 872 0496 BB000000 		.4byte	.LASF86
 873 049a 07       		.byte	0x7
 874 049b D201     		.2byte	0x1d2
 875 049d 6E010000 		.4byte	0x16e
 876 04a1 38       		.byte	0x38
 877 04a2 08       		.uleb128 0x8
 878 04a3 746D00   		.ascii	"tm\000"
 879 04a6 07       		.byte	0x7
 880 04a7 D701     		.2byte	0x1d7
 881 04a9 7B060000 		.4byte	0x67b
 882 04ad 98       		.byte	0x98
 883 04ae 09       		.uleb128 0x9
 884 04af 31000000 		.4byte	.LASF87
 885 04b3 07       		.byte	0x7
 886 04b4 DD01     		.2byte	0x1dd
 887 04b6 0D070000 		.4byte	0x70d
 888 04ba A0       		.byte	0xa0
 889 04bb 09       		.uleb128 0x9
 890 04bc 04030000 		.4byte	.LASF88
 891 04c0 07       		.byte	0x7
 892 04c1 E301     		.2byte	0x1e3
 893 04c3 00080000 		.4byte	0x800
 894 04c7 D8       		.byte	0xd8
 895 04c8 00       		.byte	0
 896 04c9 04       		.uleb128 0x4
 897 04ca 04       		.byte	0x4
 898 04cb 07       		.byte	0x7
 899 04cc A8040000 		.4byte	.LASF89
 900 04d0 11       		.uleb128 0x11
 901 04d1 E1000000 		.4byte	.LASF90
 902 04d5 08       		.byte	0x8
 903 04d6 FA06     		.2byte	0x6fa
 904 04d8 D5000000 		.4byte	0xd5
 905 04dc 12       		.uleb128 0x12
 906 04dd 42030000 		.4byte	.LASF91
 907 04e1 09       		.byte	0x9
 908 04e2 4C       		.byte	0x4c
ARM GAS  /tmp/ccxyj9HS.s 			page 17


 909 04e3 DA000000 		.4byte	0xda
 910 04e7 03       		.uleb128 0x3
 911 04e8 D2020000 		.4byte	.LASF92
 912 04ec 0A       		.byte	0xa
 913 04ed 65       		.byte	0x65
 914 04ee 67030000 		.4byte	0x367
 915 04f2 03       		.uleb128 0x3
 916 04f3 69040000 		.4byte	.LASF93
 917 04f7 0A       		.byte	0xa
 918 04f8 6D       		.byte	0x6d
 919 04f9 E5000000 		.4byte	0xe5
 920 04fd 06       		.uleb128 0x6
 921 04fe 60070000 		.4byte	.LASF94
 922 0502 04       		.byte	0x4
 923 0503 0A       		.byte	0xa
 924 0504 89       		.byte	0x89
 925 0505 16050000 		.4byte	0x516
 926 0509 13       		.uleb128 0x13
 927 050a 72313300 		.ascii	"r13\000"
 928 050e 0A       		.byte	0xa
 929 050f 8A       		.byte	0x8a
 930 0510 60060000 		.4byte	0x660
 931 0514 00       		.byte	0
 932 0515 00       		.byte	0
 933 0516 06       		.uleb128 0x6
 934 0517 48000000 		.4byte	.LASF95
 935 051b 64       		.byte	0x64
 936 051c 0B       		.byte	0xb
 937 051d FD       		.byte	0xfd
 938 051e 60060000 		.4byte	0x660
 939 0522 13       		.uleb128 0x13
 940 0523 73313600 		.ascii	"s16\000"
 941 0527 0B       		.byte	0xb
 942 0528 FF       		.byte	0xff
 943 0529 E7040000 		.4byte	0x4e7
 944 052d 00       		.byte	0
 945 052e 08       		.uleb128 0x8
 946 052f 73313700 		.ascii	"s17\000"
 947 0533 0B       		.byte	0xb
 948 0534 0001     		.2byte	0x100
 949 0536 E7040000 		.4byte	0x4e7
 950 053a 04       		.byte	0x4
 951 053b 08       		.uleb128 0x8
 952 053c 73313800 		.ascii	"s18\000"
 953 0540 0B       		.byte	0xb
 954 0541 0101     		.2byte	0x101
 955 0543 E7040000 		.4byte	0x4e7
 956 0547 08       		.byte	0x8
 957 0548 08       		.uleb128 0x8
 958 0549 73313900 		.ascii	"s19\000"
 959 054d 0B       		.byte	0xb
 960 054e 0201     		.2byte	0x102
 961 0550 E7040000 		.4byte	0x4e7
 962 0554 0C       		.byte	0xc
 963 0555 08       		.uleb128 0x8
 964 0556 73323000 		.ascii	"s20\000"
 965 055a 0B       		.byte	0xb
ARM GAS  /tmp/ccxyj9HS.s 			page 18


 966 055b 0301     		.2byte	0x103
 967 055d E7040000 		.4byte	0x4e7
 968 0561 10       		.byte	0x10
 969 0562 08       		.uleb128 0x8
 970 0563 73323100 		.ascii	"s21\000"
 971 0567 0B       		.byte	0xb
 972 0568 0401     		.2byte	0x104
 973 056a E7040000 		.4byte	0x4e7
 974 056e 14       		.byte	0x14
 975 056f 08       		.uleb128 0x8
 976 0570 73323200 		.ascii	"s22\000"
 977 0574 0B       		.byte	0xb
 978 0575 0501     		.2byte	0x105
 979 0577 E7040000 		.4byte	0x4e7
 980 057b 18       		.byte	0x18
 981 057c 08       		.uleb128 0x8
 982 057d 73323300 		.ascii	"s23\000"
 983 0581 0B       		.byte	0xb
 984 0582 0601     		.2byte	0x106
 985 0584 E7040000 		.4byte	0x4e7
 986 0588 1C       		.byte	0x1c
 987 0589 08       		.uleb128 0x8
 988 058a 73323400 		.ascii	"s24\000"
 989 058e 0B       		.byte	0xb
 990 058f 0701     		.2byte	0x107
 991 0591 E7040000 		.4byte	0x4e7
 992 0595 20       		.byte	0x20
 993 0596 08       		.uleb128 0x8
 994 0597 73323500 		.ascii	"s25\000"
 995 059b 0B       		.byte	0xb
 996 059c 0801     		.2byte	0x108
 997 059e E7040000 		.4byte	0x4e7
 998 05a2 24       		.byte	0x24
 999 05a3 08       		.uleb128 0x8
 1000 05a4 73323600 		.ascii	"s26\000"
 1001 05a8 0B       		.byte	0xb
 1002 05a9 0901     		.2byte	0x109
 1003 05ab E7040000 		.4byte	0x4e7
 1004 05af 28       		.byte	0x28
 1005 05b0 08       		.uleb128 0x8
 1006 05b1 73323700 		.ascii	"s27\000"
 1007 05b5 0B       		.byte	0xb
 1008 05b6 0A01     		.2byte	0x10a
 1009 05b8 E7040000 		.4byte	0x4e7
 1010 05bc 2C       		.byte	0x2c
 1011 05bd 08       		.uleb128 0x8
 1012 05be 73323800 		.ascii	"s28\000"
 1013 05c2 0B       		.byte	0xb
 1014 05c3 0B01     		.2byte	0x10b
 1015 05c5 E7040000 		.4byte	0x4e7
 1016 05c9 30       		.byte	0x30
 1017 05ca 08       		.uleb128 0x8
 1018 05cb 73323900 		.ascii	"s29\000"
 1019 05cf 0B       		.byte	0xb
 1020 05d0 0C01     		.2byte	0x10c
 1021 05d2 E7040000 		.4byte	0x4e7
 1022 05d6 34       		.byte	0x34
ARM GAS  /tmp/ccxyj9HS.s 			page 19


 1023 05d7 08       		.uleb128 0x8
 1024 05d8 73333000 		.ascii	"s30\000"
 1025 05dc 0B       		.byte	0xb
 1026 05dd 0D01     		.2byte	0x10d
 1027 05df E7040000 		.4byte	0x4e7
 1028 05e3 38       		.byte	0x38
 1029 05e4 08       		.uleb128 0x8
 1030 05e5 73333100 		.ascii	"s31\000"
 1031 05e9 0B       		.byte	0xb
 1032 05ea 0E01     		.2byte	0x10e
 1033 05ec E7040000 		.4byte	0x4e7
 1034 05f0 3C       		.byte	0x3c
 1035 05f1 08       		.uleb128 0x8
 1036 05f2 723400   		.ascii	"r4\000"
 1037 05f5 0B       		.byte	0xb
 1038 05f6 1001     		.2byte	0x110
 1039 05f8 E7040000 		.4byte	0x4e7
 1040 05fc 40       		.byte	0x40
 1041 05fd 08       		.uleb128 0x8
 1042 05fe 723500   		.ascii	"r5\000"
 1043 0601 0B       		.byte	0xb
 1044 0602 1101     		.2byte	0x111
 1045 0604 E7040000 		.4byte	0x4e7
 1046 0608 44       		.byte	0x44
 1047 0609 08       		.uleb128 0x8
 1048 060a 723600   		.ascii	"r6\000"
 1049 060d 0B       		.byte	0xb
 1050 060e 1201     		.2byte	0x112
 1051 0610 E7040000 		.4byte	0x4e7
 1052 0614 48       		.byte	0x48
 1053 0615 08       		.uleb128 0x8
 1054 0616 723700   		.ascii	"r7\000"
 1055 0619 0B       		.byte	0xb
 1056 061a 1301     		.2byte	0x113
 1057 061c E7040000 		.4byte	0x4e7
 1058 0620 4C       		.byte	0x4c
 1059 0621 08       		.uleb128 0x8
 1060 0622 723800   		.ascii	"r8\000"
 1061 0625 0B       		.byte	0xb
 1062 0626 1401     		.2byte	0x114
 1063 0628 E7040000 		.4byte	0x4e7
 1064 062c 50       		.byte	0x50
 1065 062d 08       		.uleb128 0x8
 1066 062e 723900   		.ascii	"r9\000"
 1067 0631 0B       		.byte	0xb
 1068 0632 1501     		.2byte	0x115
 1069 0634 E7040000 		.4byte	0x4e7
 1070 0638 54       		.byte	0x54
 1071 0639 08       		.uleb128 0x8
 1072 063a 72313000 		.ascii	"r10\000"
 1073 063e 0B       		.byte	0xb
 1074 063f 1601     		.2byte	0x116
 1075 0641 E7040000 		.4byte	0x4e7
 1076 0645 58       		.byte	0x58
 1077 0646 08       		.uleb128 0x8
 1078 0647 72313100 		.ascii	"r11\000"
 1079 064b 0B       		.byte	0xb
ARM GAS  /tmp/ccxyj9HS.s 			page 20


 1080 064c 1701     		.2byte	0x117
 1081 064e E7040000 		.4byte	0x4e7
 1082 0652 5C       		.byte	0x5c
 1083 0653 08       		.uleb128 0x8
 1084 0654 6C7200   		.ascii	"lr\000"
 1085 0657 0B       		.byte	0xb
 1086 0658 1801     		.2byte	0x118
 1087 065a E7040000 		.4byte	0x4e7
 1088 065e 60       		.byte	0x60
 1089 065f 00       		.byte	0
 1090 0660 0A       		.uleb128 0xa
 1091 0661 04       		.byte	0x4
 1092 0662 16050000 		.4byte	0x516
 1093 0666 14       		.uleb128 0x14
 1094 0667 04       		.byte	0x4
 1095 0668 0C       		.byte	0xc
 1096 0669 38       		.byte	0x38
 1097 066a 7B060000 		.4byte	0x67b
 1098 066e 07       		.uleb128 0x7
 1099 066f 48070000 		.4byte	.LASF96
 1100 0673 0C       		.byte	0xc
 1101 0674 3C       		.byte	0x3c
 1102 0675 F0000000 		.4byte	0xf0
 1103 0679 00       		.byte	0
 1104 067a 00       		.byte	0
 1105 067b 03       		.uleb128 0x3
 1106 067c 17050000 		.4byte	.LASF97
 1107 0680 0C       		.byte	0xc
 1108 0681 3D       		.byte	0x3d
 1109 0682 66060000 		.4byte	0x666
 1110 0686 14       		.uleb128 0x14
 1111 0687 18       		.byte	0x18
 1112 0688 0C       		.byte	0xc
 1113 0689 48       		.byte	0x48
 1114 068a C9060000 		.4byte	0x6c9
 1115 068e 07       		.uleb128 0x7
 1116 068f F8060000 		.4byte	.LASF98
 1117 0693 0C       		.byte	0xc
 1118 0694 49       		.byte	0x49
 1119 0695 F0000000 		.4byte	0xf0
 1120 0699 00       		.byte	0
 1121 069a 07       		.uleb128 0x7
 1122 069b 74000000 		.4byte	.LASF99
 1123 069f 0C       		.byte	0xc
 1124 06a0 4A       		.byte	0x4a
 1125 06a1 F0000000 		.4byte	0xf0
 1126 06a5 04       		.byte	0x4
 1127 06a6 07       		.uleb128 0x7
 1128 06a7 0B040000 		.4byte	.LASF100
 1129 06ab 0C       		.byte	0xc
 1130 06ac 4B       		.byte	0x4b
 1131 06ad F0000000 		.4byte	0xf0
 1132 06b1 08       		.byte	0x8
 1133 06b2 13       		.uleb128 0x13
 1134 06b3 6E00     		.ascii	"n\000"
 1135 06b5 0C       		.byte	0xc
 1136 06b6 4C       		.byte	0x4c
ARM GAS  /tmp/ccxyj9HS.s 			page 21


 1137 06b7 53010000 		.4byte	0x153
 1138 06bb 0C       		.byte	0xc
 1139 06bc 07       		.uleb128 0x7
 1140 06bd 58050000 		.4byte	.LASF101
 1141 06c1 0C       		.byte	0xc
 1142 06c2 4D       		.byte	0x4d
 1143 06c3 FB000000 		.4byte	0xfb
 1144 06c7 10       		.byte	0x10
 1145 06c8 00       		.byte	0
 1146 06c9 03       		.uleb128 0x3
 1147 06ca 7A000000 		.4byte	.LASF102
 1148 06ce 0C       		.byte	0xc
 1149 06cf 4E       		.byte	0x4e
 1150 06d0 86060000 		.4byte	0x686
 1151 06d4 14       		.uleb128 0x14
 1152 06d5 38       		.byte	0x38
 1153 06d6 0D       		.byte	0xd
 1154 06d7 38       		.byte	0x38
 1155 06d8 0D070000 		.4byte	0x70d
 1156 06dc 07       		.uleb128 0x7
 1157 06dd C8030000 		.4byte	.LASF103
 1158 06e1 0D       		.byte	0xd
 1159 06e2 39       		.byte	0x39
 1160 06e3 53010000 		.4byte	0x153
 1161 06e7 00       		.byte	0
 1162 06e8 07       		.uleb128 0x7
 1163 06e9 A4050000 		.4byte	.LASF104
 1164 06ed 0D       		.byte	0xd
 1165 06ee 3A       		.byte	0x3a
 1166 06ef 53010000 		.4byte	0x153
 1167 06f3 04       		.byte	0x4
 1168 06f4 07       		.uleb128 0x7
 1169 06f5 2A080000 		.4byte	.LASF105
 1170 06f9 0D       		.byte	0xd
 1171 06fa 3B       		.byte	0x3b
 1172 06fb C9060000 		.4byte	0x6c9
 1173 06ff 08       		.byte	0x8
 1174 0700 07       		.uleb128 0x7
 1175 0701 3A040000 		.4byte	.LASF106
 1176 0705 0D       		.byte	0xd
 1177 0706 3D       		.byte	0x3d
 1178 0707 C9060000 		.4byte	0x6c9
 1179 070b 20       		.byte	0x20
 1180 070c 00       		.byte	0
 1181 070d 03       		.uleb128 0x3
 1182 070e EC030000 		.4byte	.LASF107
 1183 0712 0D       		.byte	0xd
 1184 0713 3F       		.byte	0x3f
 1185 0714 D4060000 		.4byte	0x6d4
 1186 0718 15       		.uleb128 0x15
 1187 0719 04       		.byte	0x4
 1188 071a 07       		.byte	0x7
 1189 071b FA       		.byte	0xfa
 1190 071c 75070000 		.4byte	0x775
 1191 0720 16       		.uleb128 0x16
 1192 0721 21000000 		.4byte	.LASF108
 1193 0725 07       		.byte	0x7
ARM GAS  /tmp/ccxyj9HS.s 			page 22


 1194 0726 0101     		.2byte	0x101
 1195 0728 32010000 		.4byte	0x132
 1196 072c 16       		.uleb128 0x16
 1197 072d B2000000 		.4byte	.LASF109
 1198 0731 07       		.byte	0x7
 1199 0732 0801     		.2byte	0x108
 1200 0734 32010000 		.4byte	0x132
 1201 0738 16       		.uleb128 0x16
 1202 0739 D3070000 		.4byte	.LASF110
 1203 073d 07       		.byte	0x7
 1204 073e 0F01     		.2byte	0x10f
 1205 0740 67030000 		.4byte	0x367
 1206 0744 16       		.uleb128 0x16
 1207 0745 62010000 		.4byte	.LASF111
 1208 0749 07       		.byte	0x7
 1209 074a 1601     		.2byte	0x116
 1210 074c 75070000 		.4byte	0x775
 1211 0750 16       		.uleb128 0x16
 1212 0751 96030000 		.4byte	.LASF112
 1213 0755 07       		.byte	0x7
 1214 0756 1E01     		.2byte	0x11e
 1215 0758 A0070000 		.4byte	0x7a0
 1216 075c 16       		.uleb128 0x16
 1217 075d D0060000 		.4byte	.LASF113
 1218 0761 07       		.byte	0x7
 1219 0762 2701     		.2byte	0x127
 1220 0764 D7070000 		.4byte	0x7d7
 1221 0768 16       		.uleb128 0x16
 1222 0769 FD050000 		.4byte	.LASF114
 1223 076d 07       		.byte	0x7
 1224 076e 2F01     		.2byte	0x12f
 1225 0770 3D010000 		.4byte	0x13d
 1226 0774 00       		.byte	0
 1227 0775 0A       		.uleb128 0xa
 1228 0776 04       		.byte	0x4
 1229 0777 7F020000 		.4byte	0x27f
 1230 077b 06       		.uleb128 0x6
 1231 077c 69060000 		.4byte	.LASF115
 1232 0780 0C       		.byte	0xc
 1233 0781 0E       		.byte	0xe
 1234 0782 34       		.byte	0x34
 1235 0783 A0070000 		.4byte	0x7a0
 1236 0787 07       		.uleb128 0x7
 1237 0788 B6020000 		.4byte	.LASF116
 1238 078c 0E       		.byte	0xe
 1239 078d 35       		.byte	0x35
 1240 078e B4020000 		.4byte	0x2b4
 1241 0792 00       		.byte	0
 1242 0793 07       		.uleb128 0x7
 1243 0794 CE030000 		.4byte	.LASF117
 1244 0798 0E       		.byte	0xe
 1245 0799 37       		.byte	0x37
 1246 079a 48010000 		.4byte	0x148
 1247 079e 08       		.byte	0x8
 1248 079f 00       		.byte	0
 1249 07a0 0A       		.uleb128 0xa
 1250 07a1 04       		.byte	0x4
ARM GAS  /tmp/ccxyj9HS.s 			page 23


 1251 07a2 7B070000 		.4byte	0x77b
 1252 07a6 06       		.uleb128 0x6
 1253 07a7 4F070000 		.4byte	.LASF118
 1254 07ab 10       		.byte	0x10
 1255 07ac 0F       		.byte	0xf
 1256 07ad 39       		.byte	0x39
 1257 07ae D7070000 		.4byte	0x7d7
 1258 07b2 07       		.uleb128 0x7
 1259 07b3 53010000 		.4byte	.LASF119
 1260 07b7 0F       		.byte	0xf
 1261 07b8 3A       		.byte	0x3a
 1262 07b9 B4020000 		.4byte	0x2b4
 1263 07bd 00       		.byte	0
 1264 07be 07       		.uleb128 0x7
 1265 07bf 35080000 		.4byte	.LASF120
 1266 07c3 0F       		.byte	0xf
 1267 07c4 3C       		.byte	0x3c
 1268 07c5 8A020000 		.4byte	0x28a
 1269 07c9 08       		.byte	0x8
 1270 07ca 07       		.uleb128 0x7
 1271 07cb FD060000 		.4byte	.LASF121
 1272 07cf 0F       		.byte	0xf
 1273 07d0 3E       		.byte	0x3e
 1274 07d1 32090000 		.4byte	0x932
 1275 07d5 0C       		.byte	0xc
 1276 07d6 00       		.byte	0
 1277 07d7 0A       		.uleb128 0xa
 1278 07d8 04       		.byte	0x4
 1279 07d9 A6070000 		.4byte	0x7a6
 1280 07dd 0A       		.uleb128 0xa
 1281 07de 04       		.byte	0x4
 1282 07df EF070000 		.4byte	0x7ef
 1283 07e3 05       		.uleb128 0x5
 1284 07e4 DD070000 		.4byte	0x7dd
 1285 07e8 04       		.uleb128 0x4
 1286 07e9 01       		.byte	0x1
 1287 07ea 08       		.byte	0x8
 1288 07eb CB060000 		.4byte	.LASF122
 1289 07ef 0F       		.uleb128 0xf
 1290 07f0 E8070000 		.4byte	0x7e8
 1291 07f4 0A       		.uleb128 0xa
 1292 07f5 04       		.byte	0x4
 1293 07f6 F2040000 		.4byte	0x4f2
 1294 07fa 0A       		.uleb128 0xa
 1295 07fb 04       		.byte	0x4
 1296 07fc 6E030000 		.4byte	0x36e
 1297 0800 17       		.uleb128 0x17
 1298 0801 F2040000 		.4byte	0x4f2
 1299 0805 10080000 		.4byte	0x810
 1300 0809 18       		.uleb128 0x18
 1301 080a C9040000 		.4byte	0x4c9
 1302 080e 2F       		.byte	0x2f
 1303 080f 00       		.byte	0
 1304 0810 19       		.uleb128 0x19
 1305 0811 636800   		.ascii	"ch\000"
 1306 0814 07       		.byte	0x7
 1307 0815 0902     		.2byte	0x209
ARM GAS  /tmp/ccxyj9HS.s 			page 24


 1308 0817 55040000 		.4byte	0x455
 1309 081b 14       		.uleb128 0x14
 1310 081c 16       		.byte	0x16
 1311 081d 10       		.byte	0x10
 1312 081e 34       		.byte	0x34
 1313 081f FC080000 		.4byte	0x8fc
 1314 0823 07       		.uleb128 0x7
 1315 0824 3D080000 		.4byte	.LASF123
 1316 0828 10       		.byte	0x10
 1317 0829 35       		.byte	0x35
 1318 082a FC080000 		.4byte	0x8fc
 1319 082e 00       		.byte	0
 1320 082f 07       		.uleb128 0x7
 1321 0830 83040000 		.4byte	.LASF124
 1322 0834 10       		.byte	0x10
 1323 0835 36       		.byte	0x36
 1324 0836 B4000000 		.4byte	0xb4
 1325 083a 04       		.byte	0x4
 1326 083b 07       		.uleb128 0x7
 1327 083c B1060000 		.4byte	.LASF125
 1328 0840 10       		.byte	0x10
 1329 0841 37       		.byte	0x37
 1330 0842 B4000000 		.4byte	0xb4
 1331 0846 05       		.byte	0x5
 1332 0847 07       		.uleb128 0x7
 1333 0848 00080000 		.4byte	.LASF126
 1334 084c 10       		.byte	0x10
 1335 084d 38       		.byte	0x38
 1336 084e BF000000 		.4byte	0xbf
 1337 0852 06       		.byte	0x6
 1338 0853 07       		.uleb128 0x7
 1339 0854 6B050000 		.4byte	.LASF127
 1340 0858 10       		.byte	0x10
 1341 0859 39       		.byte	0x39
 1342 085a B4000000 		.4byte	0xb4
 1343 085e 08       		.byte	0x8
 1344 085f 07       		.uleb128 0x7
 1345 0860 D4040000 		.4byte	.LASF128
 1346 0864 10       		.byte	0x10
 1347 0865 3A       		.byte	0x3a
 1348 0866 B4000000 		.4byte	0xb4
 1349 086a 09       		.byte	0x9
 1350 086b 07       		.uleb128 0x7
 1351 086c A4000000 		.4byte	.LASF129
 1352 0870 10       		.byte	0x10
 1353 0871 3B       		.byte	0x3b
 1354 0872 B4000000 		.4byte	0xb4
 1355 0876 0A       		.byte	0xa
 1356 0877 07       		.uleb128 0x7
 1357 0878 8A060000 		.4byte	.LASF130
 1358 087c 10       		.byte	0x10
 1359 087d 3C       		.byte	0x3c
 1360 087e B4000000 		.4byte	0xb4
 1361 0882 0B       		.byte	0xb
 1362 0883 07       		.uleb128 0x7
 1363 0884 23040000 		.4byte	.LASF131
 1364 0888 10       		.byte	0x10
ARM GAS  /tmp/ccxyj9HS.s 			page 25


 1365 0889 3D       		.byte	0x3d
 1366 088a B4000000 		.4byte	0xb4
 1367 088e 0C       		.byte	0xc
 1368 088f 07       		.uleb128 0x7
 1369 0890 53060000 		.4byte	.LASF132
 1370 0894 10       		.byte	0x10
 1371 0895 3E       		.byte	0x3e
 1372 0896 B4000000 		.4byte	0xb4
 1373 089a 0D       		.byte	0xd
 1374 089b 07       		.uleb128 0x7
 1375 089c 00000000 		.4byte	.LASF133
 1376 08a0 10       		.byte	0x10
 1377 08a1 3F       		.byte	0x3f
 1378 08a2 B4000000 		.4byte	0xb4
 1379 08a6 0E       		.byte	0xe
 1380 08a7 07       		.uleb128 0x7
 1381 08a8 E8040000 		.4byte	.LASF134
 1382 08ac 10       		.byte	0x10
 1383 08ad 40       		.byte	0x40
 1384 08ae B4000000 		.4byte	0xb4
 1385 08b2 0F       		.byte	0xf
 1386 08b3 07       		.uleb128 0x7
 1387 08b4 2E010000 		.4byte	.LASF135
 1388 08b8 10       		.byte	0x10
 1389 08b9 41       		.byte	0x41
 1390 08ba B4000000 		.4byte	0xb4
 1391 08be 10       		.byte	0x10
 1392 08bf 07       		.uleb128 0x7
 1393 08c0 FE000000 		.4byte	.LASF136
 1394 08c4 10       		.byte	0x10
 1395 08c5 43       		.byte	0x43
 1396 08c6 B4000000 		.4byte	0xb4
 1397 08ca 11       		.byte	0x11
 1398 08cb 07       		.uleb128 0x7
 1399 08cc 3E010000 		.4byte	.LASF137
 1400 08d0 10       		.byte	0x10
 1401 08d1 44       		.byte	0x44
 1402 08d2 B4000000 		.4byte	0xb4
 1403 08d6 12       		.byte	0x12
 1404 08d7 07       		.uleb128 0x7
 1405 08d8 8B040000 		.4byte	.LASF138
 1406 08dc 10       		.byte	0x10
 1407 08dd 45       		.byte	0x45
 1408 08de B4000000 		.4byte	0xb4
 1409 08e2 13       		.byte	0x13
 1410 08e3 07       		.uleb128 0x7
 1411 08e4 13060000 		.4byte	.LASF139
 1412 08e8 10       		.byte	0x10
 1413 08e9 46       		.byte	0x46
 1414 08ea B4000000 		.4byte	0xb4
 1415 08ee 14       		.byte	0x14
 1416 08ef 07       		.uleb128 0x7
 1417 08f0 2E040000 		.4byte	.LASF140
 1418 08f4 10       		.byte	0x10
 1419 08f5 48       		.byte	0x48
 1420 08f6 B4000000 		.4byte	0xb4
 1421 08fa 15       		.byte	0x15
ARM GAS  /tmp/ccxyj9HS.s 			page 26


 1422 08fb 00       		.byte	0
 1423 08fc 17       		.uleb128 0x17
 1424 08fd E8070000 		.4byte	0x7e8
 1425 0901 0C090000 		.4byte	0x90c
 1426 0905 18       		.uleb128 0x18
 1427 0906 C9040000 		.4byte	0x4c9
 1428 090a 03       		.byte	0x3
 1429 090b 00       		.byte	0
 1430 090c 03       		.uleb128 0x3
 1431 090d 9D020000 		.4byte	.LASF141
 1432 0911 10       		.byte	0x10
 1433 0912 49       		.byte	0x49
 1434 0913 1B080000 		.4byte	0x81b
 1435 0917 0F       		.uleb128 0xf
 1436 0918 0C090000 		.4byte	0x90c
 1437 091c 12       		.uleb128 0x12
 1438 091d B1030000 		.4byte	.LASF142
 1439 0921 10       		.byte	0x10
 1440 0922 6E       		.byte	0x6e
 1441 0923 17090000 		.4byte	0x917
 1442 0927 03       		.uleb128 0x3
 1443 0928 F3020000 		.4byte	.LASF143
 1444 092c 0F       		.byte	0xf
 1445 092d 34       		.byte	0x34
 1446 092e A6070000 		.4byte	0x7a6
 1447 0932 0A       		.uleb128 0xa
 1448 0933 04       		.byte	0x4
 1449 0934 27090000 		.4byte	0x927
 1450 0938 04       		.uleb128 0x4
 1451 0939 01       		.byte	0x1
 1452 093a 02       		.byte	0x2
 1453 093b AD050000 		.4byte	.LASF144
 1454 093f 03       		.uleb128 0x3
 1455 0940 76070000 		.4byte	.LASF145
 1456 0944 11       		.byte	0x11
 1457 0945 34       		.byte	0x34
 1458 0946 4A090000 		.4byte	0x94a
 1459 094a 0A       		.uleb128 0xa
 1460 094b 04       		.byte	0x4
 1461 094c 50090000 		.4byte	0x950
 1462 0950 1A       		.uleb128 0x1a
 1463 0951 67030000 		.4byte	0x367
 1464 0955 5F090000 		.4byte	0x95f
 1465 0959 0D       		.uleb128 0xd
 1466 095a 2C000000 		.4byte	0x2c
 1467 095e 00       		.byte	0
 1468 095f 06       		.uleb128 0x6
 1469 0960 97070000 		.4byte	.LASF146
 1470 0964 04       		.byte	0x4
 1471 0965 12       		.byte	0x12
 1472 0966 38       		.byte	0x38
 1473 0967 78090000 		.4byte	0x978
 1474 096b 07       		.uleb128 0x7
 1475 096c DA070000 		.4byte	.LASF147
 1476 0970 12       		.byte	0x12
 1477 0971 39       		.byte	0x39
 1478 0972 78090000 		.4byte	0x978
ARM GAS  /tmp/ccxyj9HS.s 			page 27


 1479 0976 00       		.byte	0
 1480 0977 00       		.byte	0
 1481 0978 0A       		.uleb128 0xa
 1482 0979 04       		.byte	0x4
 1483 097a 5F090000 		.4byte	0x95f
 1484 097e 14       		.uleb128 0x14
 1485 097f 0C       		.byte	0xc
 1486 0980 12       		.byte	0x12
 1487 0981 40       		.byte	0x40
 1488 0982 AB090000 		.4byte	0x9ab
 1489 0986 07       		.uleb128 0x7
 1490 0987 58070000 		.4byte	.LASF148
 1491 098b 12       		.byte	0x12
 1492 098c 41       		.byte	0x41
 1493 098d 78090000 		.4byte	0x978
 1494 0991 00       		.byte	0
 1495 0992 07       		.uleb128 0x7
 1496 0993 08050000 		.4byte	.LASF149
 1497 0997 12       		.byte	0x12
 1498 0998 42       		.byte	0x42
 1499 0999 2C000000 		.4byte	0x2c
 1500 099d 04       		.byte	0x4
 1501 099e 07       		.uleb128 0x7
 1502 099f C6020000 		.4byte	.LASF150
 1503 09a3 12       		.byte	0x12
 1504 09a4 44       		.byte	0x44
 1505 09a5 3F090000 		.4byte	0x93f
 1506 09a9 08       		.byte	0x8
 1507 09aa 00       		.byte	0
 1508 09ab 03       		.uleb128 0x3
 1509 09ac BA030000 		.4byte	.LASF151
 1510 09b0 12       		.byte	0x12
 1511 09b1 46       		.byte	0x46
 1512 09b2 7E090000 		.4byte	0x97e
 1513 09b6 06       		.uleb128 0x6
 1514 09b7 60060000 		.4byte	.LASF152
 1515 09bb 10       		.byte	0x10
 1516 09bc 13       		.byte	0x13
 1517 09bd 3B       		.byte	0x3b
 1518 09be F3090000 		.4byte	0x9f3
 1519 09c2 07       		.uleb128 0x7
 1520 09c3 D4030000 		.4byte	.LASF153
 1521 09c7 13       		.byte	0x13
 1522 09c8 3C       		.byte	0x3c
 1523 09c9 DD070000 		.4byte	0x7dd
 1524 09cd 00       		.byte	0
 1525 09ce 07       		.uleb128 0x7
 1526 09cf 28050000 		.4byte	.LASF154
 1527 09d3 13       		.byte	0x13
 1528 09d4 3D       		.byte	0x3d
 1529 09d5 F9090000 		.4byte	0x9f9
 1530 09d9 04       		.byte	0x4
 1531 09da 07       		.uleb128 0x7
 1532 09db 0B010000 		.4byte	.LASF155
 1533 09df 13       		.byte	0x13
 1534 09e0 3E       		.byte	0x3e
 1535 09e1 F9090000 		.4byte	0x9f9
ARM GAS  /tmp/ccxyj9HS.s 			page 28


 1536 09e5 08       		.byte	0x8
 1537 09e6 07       		.uleb128 0x7
 1538 09e7 8D050000 		.4byte	.LASF156
 1539 09eb 13       		.byte	0x13
 1540 09ec 3F       		.byte	0x3f
 1541 09ed F9090000 		.4byte	0x9f9
 1542 09f1 0C       		.byte	0xc
 1543 09f2 00       		.byte	0
 1544 09f3 0F       		.uleb128 0xf
 1545 09f4 B6090000 		.4byte	0x9b6
 1546 09f8 1B       		.uleb128 0x1b
 1547 09f9 0A       		.uleb128 0xa
 1548 09fa 04       		.byte	0x4
 1549 09fb F8090000 		.4byte	0x9f8
 1550 09ff 1C       		.uleb128 0x1c
 1551 0a00 B009     		.2byte	0x9b0
 1552 0a02 13       		.byte	0x13
 1553 0a03 44       		.byte	0x44
 1554 0a04 440A0000 		.4byte	0xa44
 1555 0a08 13       		.uleb128 0x13
 1556 0a09 543000   		.ascii	"T0\000"
 1557 0a0c 13       		.byte	0x13
 1558 0a0d 45       		.byte	0x45
 1559 0a0e 440A0000 		.4byte	0xa44
 1560 0a12 00       		.byte	0
 1561 0a13 1D       		.uleb128 0x1d
 1562 0a14 543100   		.ascii	"T1\000"
 1563 0a17 13       		.byte	0x13
 1564 0a18 46       		.byte	0x46
 1565 0a19 440A0000 		.4byte	0xa44
 1566 0a1d F001     		.2byte	0x1f0
 1567 0a1f 1D       		.uleb128 0x1d
 1568 0a20 543200   		.ascii	"T2\000"
 1569 0a23 13       		.byte	0x13
 1570 0a24 47       		.byte	0x47
 1571 0a25 440A0000 		.4byte	0xa44
 1572 0a29 E003     		.2byte	0x3e0
 1573 0a2b 1D       		.uleb128 0x1d
 1574 0a2c 543300   		.ascii	"T3\000"
 1575 0a2f 13       		.byte	0x13
 1576 0a30 48       		.byte	0x48
 1577 0a31 440A0000 		.4byte	0xa44
 1578 0a35 D005     		.2byte	0x5d0
 1579 0a37 1D       		.uleb128 0x1d
 1580 0a38 543400   		.ascii	"T4\000"
 1581 0a3b 13       		.byte	0x13
 1582 0a3c 49       		.byte	0x49
 1583 0a3d 440A0000 		.4byte	0xa44
 1584 0a41 C007     		.2byte	0x7c0
 1585 0a43 00       		.byte	0
 1586 0a44 17       		.uleb128 0x17
 1587 0a45 F2040000 		.4byte	0x4f2
 1588 0a49 540A0000 		.4byte	0xa54
 1589 0a4d 18       		.uleb128 0x18
 1590 0a4e C9040000 		.4byte	0x4c9
 1591 0a52 3D       		.byte	0x3d
 1592 0a53 00       		.byte	0
ARM GAS  /tmp/ccxyj9HS.s 			page 29


 1593 0a54 1E       		.uleb128 0x1e
 1594 0a55 8A070000 		.4byte	.LASF169
 1595 0a59 B009     		.2byte	0x9b0
 1596 0a5b 13       		.byte	0x13
 1597 0a5c 43       		.byte	0x43
 1598 0a5d 770A0000 		.4byte	0xa77
 1599 0a61 1F       		.uleb128 0x1f
 1600 0a62 776100   		.ascii	"wa\000"
 1601 0a65 13       		.byte	0x13
 1602 0a66 4A       		.byte	0x4a
 1603 0a67 FF090000 		.4byte	0x9ff
 1604 0a6b 20       		.uleb128 0x20
 1605 0a6c A7020000 		.4byte	.LASF157
 1606 0a70 13       		.byte	0x13
 1607 0a71 4B       		.byte	0x4b
 1608 0a72 770A0000 		.4byte	0xa77
 1609 0a76 00       		.byte	0
 1610 0a77 17       		.uleb128 0x17
 1611 0a78 B4000000 		.4byte	0xb4
 1612 0a7c 880A0000 		.4byte	0xa88
 1613 0a80 21       		.uleb128 0x21
 1614 0a81 C9040000 		.4byte	0x4c9
 1615 0a85 AF09     		.2byte	0x9af
 1616 0a87 00       		.byte	0
 1617 0a88 12       		.uleb128 0x12
 1618 0a89 37070000 		.4byte	.LASF158
 1619 0a8d 13       		.byte	0x13
 1620 0a8e 4F       		.byte	0x4f
 1621 0a8f 38090000 		.4byte	0x938
 1622 0a93 17       		.uleb128 0x17
 1623 0a94 8A020000 		.4byte	0x28a
 1624 0a98 A30A0000 		.4byte	0xaa3
 1625 0a9c 18       		.uleb128 0x18
 1626 0a9d C9040000 		.4byte	0x4c9
 1627 0aa1 04       		.byte	0x4
 1628 0aa2 00       		.byte	0
 1629 0aa3 12       		.uleb128 0x12
 1630 0aa4 E5050000 		.4byte	.LASF159
 1631 0aa8 13       		.byte	0x13
 1632 0aa9 A7       		.byte	0xa7
 1633 0aaa 930A0000 		.4byte	0xa93
 1634 0aae 12       		.uleb128 0x12
 1635 0aaf C6000000 		.4byte	.LASF160
 1636 0ab3 13       		.byte	0x13
 1637 0ab4 A8       		.byte	0xa8
 1638 0ab5 540A0000 		.4byte	0xa54
 1639 0ab9 17       		.uleb128 0x17
 1640 0aba 69030000 		.4byte	0x369
 1641 0abe C40A0000 		.4byte	0xac4
 1642 0ac2 22       		.uleb128 0x22
 1643 0ac3 00       		.byte	0
 1644 0ac4 0F       		.uleb128 0xf
 1645 0ac5 B90A0000 		.4byte	0xab9
 1646 0ac9 23       		.uleb128 0x23
 1647 0aca 776100   		.ascii	"wa\000"
 1648 0acd 13       		.byte	0x13
 1649 0ace A9       		.byte	0xa9
ARM GAS  /tmp/ccxyj9HS.s 			page 30


 1650 0acf C40A0000 		.4byte	0xac4
 1651 0ad3 12       		.uleb128 0x12
 1652 0ad4 ED050000 		.4byte	.LASF161
 1653 0ad8 13       		.byte	0x13
 1654 0ad9 AA       		.byte	0xaa
 1655 0ada 38090000 		.4byte	0x938
 1656 0ade 24       		.uleb128 0x24
 1657 0adf 6D703100 		.ascii	"mp1\000"
 1658 0ae3 01       		.byte	0x1
 1659 0ae4 31       		.byte	0x31
 1660 0ae5 AB090000 		.4byte	0x9ab
 1661 0ae9 05       		.uleb128 0x5
 1662 0aea 03       		.byte	0x3
 1663 0aeb 00000000 		.4byte	mp1
 1664 0aef 25       		.uleb128 0x25
 1665 0af0 96060000 		.4byte	.LASF162
 1666 0af4 01       		.byte	0x1
 1667 0af5 64       		.byte	0x64
 1668 0af6 F3090000 		.4byte	0x9f3
 1669 0afa 05       		.uleb128 0x5
 1670 0afb 03       		.byte	0x3
 1671 0afc 00000000 		.4byte	testpools1
 1672 0b00 17       		.uleb128 0x17
 1673 0b01 1B0B0000 		.4byte	0xb1b
 1674 0b05 100B0000 		.4byte	0xb10
 1675 0b09 18       		.uleb128 0x18
 1676 0b0a C9040000 		.4byte	0x4c9
 1677 0b0e 01       		.byte	0x1
 1678 0b0f 00       		.byte	0
 1679 0b10 0F       		.uleb128 0xf
 1680 0b11 000B0000 		.4byte	0xb00
 1681 0b15 0A       		.uleb128 0xa
 1682 0b16 04       		.byte	0x4
 1683 0b17 F3090000 		.4byte	0x9f3
 1684 0b1b 0F       		.uleb128 0xf
 1685 0b1c 150B0000 		.4byte	0xb15
 1686 0b20 25       		.uleb128 0x25
 1687 0b21 40050000 		.4byte	.LASF163
 1688 0b25 01       		.byte	0x1
 1689 0b26 70       		.byte	0x70
 1690 0b27 100B0000 		.4byte	0xb10
 1691 0b2b 05       		.uleb128 0x5
 1692 0b2c 03       		.byte	0x3
 1693 0b2d 00000000 		.4byte	patternpools
 1694 0b31 26       		.uleb128 0x26
 1695 0b32 53080000 		.4byte	.LASF164
 1696 0b36 01       		.byte	0x1
 1697 0b37 47       		.byte	0x47
 1698 0b38 00000000 		.4byte	.LFB233
 1699 0b3c 24010000 		.4byte	.LFE233-.LFB233
 1700 0b40 01       		.uleb128 0x1
 1701 0b41 9C       		.byte	0x9c
 1702 0b42 530B0000 		.4byte	0xb53
 1703 0b46 24       		.uleb128 0x24
 1704 0b47 6900     		.ascii	"i\000"
 1705 0b49 01       		.byte	0x1
 1706 0b4a 48       		.byte	0x48
ARM GAS  /tmp/ccxyj9HS.s 			page 31


 1707 0b4b 25000000 		.4byte	0x25
 1708 0b4f 02       		.uleb128 0x2
 1709 0b50 91       		.byte	0x91
 1710 0b51 74       		.sleb128 -12
 1711 0b52 00       		.byte	0
 1712 0b53 27       		.uleb128 0x27
 1713 0b54 E2060000 		.4byte	.LASF170
 1714 0b58 01       		.byte	0x1
 1715 0b59 42       		.byte	0x42
 1716 0b5a 00000000 		.4byte	.LFB232
 1717 0b5e 18000000 		.4byte	.LFE232-.LFB232
 1718 0b62 01       		.uleb128 0x1
 1719 0b63 9C       		.byte	0x9c
 1720 0b64 28       		.uleb128 0x28
 1721 0b65 E2070000 		.4byte	.LASF165
 1722 0b69 01       		.byte	0x1
 1723 0b6a 3C       		.byte	0x3c
 1724 0b6b 67030000 		.4byte	0x367
 1725 0b6f 00000000 		.4byte	.LFB231
 1726 0b73 0C000000 		.4byte	.LFE231-.LFB231
 1727 0b77 01       		.uleb128 0x1
 1728 0b78 9C       		.byte	0x9c
 1729 0b79 29       		.uleb128 0x29
 1730 0b7a F0070000 		.4byte	.LASF171
 1731 0b7e 01       		.byte	0x1
 1732 0b7f 3C       		.byte	0x3c
 1733 0b80 2C000000 		.4byte	0x2c
 1734 0b84 02       		.uleb128 0x2
 1735 0b85 91       		.byte	0x91
 1736 0b86 7C       		.sleb128 -4
 1737 0b87 00       		.byte	0
 1738 0b88 00       		.byte	0
 1739              		.section	.debug_abbrev,"",%progbits
 1740              	.Ldebug_abbrev0:
 1741 0000 01       		.uleb128 0x1
 1742 0001 11       		.uleb128 0x11
 1743 0002 01       		.byte	0x1
 1744 0003 25       		.uleb128 0x25
 1745 0004 0E       		.uleb128 0xe
 1746 0005 13       		.uleb128 0x13
 1747 0006 0B       		.uleb128 0xb
 1748 0007 03       		.uleb128 0x3
 1749 0008 0E       		.uleb128 0xe
 1750 0009 1B       		.uleb128 0x1b
 1751 000a 0E       		.uleb128 0xe
 1752 000b 55       		.uleb128 0x55
 1753 000c 17       		.uleb128 0x17
 1754 000d 11       		.uleb128 0x11
 1755 000e 01       		.uleb128 0x1
 1756 000f 10       		.uleb128 0x10
 1757 0010 17       		.uleb128 0x17
 1758 0011 00       		.byte	0
 1759 0012 00       		.byte	0
 1760 0013 02       		.uleb128 0x2
 1761 0014 24       		.uleb128 0x24
 1762 0015 00       		.byte	0
 1763 0016 0B       		.uleb128 0xb
ARM GAS  /tmp/ccxyj9HS.s 			page 32


 1764 0017 0B       		.uleb128 0xb
 1765 0018 3E       		.uleb128 0x3e
 1766 0019 0B       		.uleb128 0xb
 1767 001a 03       		.uleb128 0x3
 1768 001b 08       		.uleb128 0x8
 1769 001c 00       		.byte	0
 1770 001d 00       		.byte	0
 1771 001e 03       		.uleb128 0x3
 1772 001f 16       		.uleb128 0x16
 1773 0020 00       		.byte	0
 1774 0021 03       		.uleb128 0x3
 1775 0022 0E       		.uleb128 0xe
 1776 0023 3A       		.uleb128 0x3a
 1777 0024 0B       		.uleb128 0xb
 1778 0025 3B       		.uleb128 0x3b
 1779 0026 0B       		.uleb128 0xb
 1780 0027 49       		.uleb128 0x49
 1781 0028 13       		.uleb128 0x13
 1782 0029 00       		.byte	0
 1783 002a 00       		.byte	0
 1784 002b 04       		.uleb128 0x4
 1785 002c 24       		.uleb128 0x24
 1786 002d 00       		.byte	0
 1787 002e 0B       		.uleb128 0xb
 1788 002f 0B       		.uleb128 0xb
 1789 0030 3E       		.uleb128 0x3e
 1790 0031 0B       		.uleb128 0xb
 1791 0032 03       		.uleb128 0x3
 1792 0033 0E       		.uleb128 0xe
 1793 0034 00       		.byte	0
 1794 0035 00       		.byte	0
 1795 0036 05       		.uleb128 0x5
 1796 0037 35       		.uleb128 0x35
 1797 0038 00       		.byte	0
 1798 0039 49       		.uleb128 0x49
 1799 003a 13       		.uleb128 0x13
 1800 003b 00       		.byte	0
 1801 003c 00       		.byte	0
 1802 003d 06       		.uleb128 0x6
 1803 003e 13       		.uleb128 0x13
 1804 003f 01       		.byte	0x1
 1805 0040 03       		.uleb128 0x3
 1806 0041 0E       		.uleb128 0xe
 1807 0042 0B       		.uleb128 0xb
 1808 0043 0B       		.uleb128 0xb
 1809 0044 3A       		.uleb128 0x3a
 1810 0045 0B       		.uleb128 0xb
 1811 0046 3B       		.uleb128 0x3b
 1812 0047 0B       		.uleb128 0xb
 1813 0048 01       		.uleb128 0x1
 1814 0049 13       		.uleb128 0x13
 1815 004a 00       		.byte	0
 1816 004b 00       		.byte	0
 1817 004c 07       		.uleb128 0x7
 1818 004d 0D       		.uleb128 0xd
 1819 004e 00       		.byte	0
 1820 004f 03       		.uleb128 0x3
ARM GAS  /tmp/ccxyj9HS.s 			page 33


 1821 0050 0E       		.uleb128 0xe
 1822 0051 3A       		.uleb128 0x3a
 1823 0052 0B       		.uleb128 0xb
 1824 0053 3B       		.uleb128 0x3b
 1825 0054 0B       		.uleb128 0xb
 1826 0055 49       		.uleb128 0x49
 1827 0056 13       		.uleb128 0x13
 1828 0057 38       		.uleb128 0x38
 1829 0058 0B       		.uleb128 0xb
 1830 0059 00       		.byte	0
 1831 005a 00       		.byte	0
 1832 005b 08       		.uleb128 0x8
 1833 005c 0D       		.uleb128 0xd
 1834 005d 00       		.byte	0
 1835 005e 03       		.uleb128 0x3
 1836 005f 08       		.uleb128 0x8
 1837 0060 3A       		.uleb128 0x3a
 1838 0061 0B       		.uleb128 0xb
 1839 0062 3B       		.uleb128 0x3b
 1840 0063 05       		.uleb128 0x5
 1841 0064 49       		.uleb128 0x49
 1842 0065 13       		.uleb128 0x13
 1843 0066 38       		.uleb128 0x38
 1844 0067 0B       		.uleb128 0xb
 1845 0068 00       		.byte	0
 1846 0069 00       		.byte	0
 1847 006a 09       		.uleb128 0x9
 1848 006b 0D       		.uleb128 0xd
 1849 006c 00       		.byte	0
 1850 006d 03       		.uleb128 0x3
 1851 006e 0E       		.uleb128 0xe
 1852 006f 3A       		.uleb128 0x3a
 1853 0070 0B       		.uleb128 0xb
 1854 0071 3B       		.uleb128 0x3b
 1855 0072 05       		.uleb128 0x5
 1856 0073 49       		.uleb128 0x49
 1857 0074 13       		.uleb128 0x13
 1858 0075 38       		.uleb128 0x38
 1859 0076 0B       		.uleb128 0xb
 1860 0077 00       		.byte	0
 1861 0078 00       		.byte	0
 1862 0079 0A       		.uleb128 0xa
 1863 007a 0F       		.uleb128 0xf
 1864 007b 00       		.byte	0
 1865 007c 0B       		.uleb128 0xb
 1866 007d 0B       		.uleb128 0xb
 1867 007e 49       		.uleb128 0x49
 1868 007f 13       		.uleb128 0x13
 1869 0080 00       		.byte	0
 1870 0081 00       		.byte	0
 1871 0082 0B       		.uleb128 0xb
 1872 0083 13       		.uleb128 0x13
 1873 0084 01       		.byte	0x1
 1874 0085 03       		.uleb128 0x3
 1875 0086 0E       		.uleb128 0xe
 1876 0087 0B       		.uleb128 0xb
 1877 0088 0B       		.uleb128 0xb
ARM GAS  /tmp/ccxyj9HS.s 			page 34


 1878 0089 3A       		.uleb128 0x3a
 1879 008a 0B       		.uleb128 0xb
 1880 008b 3B       		.uleb128 0x3b
 1881 008c 05       		.uleb128 0x5
 1882 008d 01       		.uleb128 0x1
 1883 008e 13       		.uleb128 0x13
 1884 008f 00       		.byte	0
 1885 0090 00       		.byte	0
 1886 0091 0C       		.uleb128 0xc
 1887 0092 15       		.uleb128 0x15
 1888 0093 01       		.byte	0x1
 1889 0094 27       		.uleb128 0x27
 1890 0095 19       		.uleb128 0x19
 1891 0096 01       		.uleb128 0x1
 1892 0097 13       		.uleb128 0x13
 1893 0098 00       		.byte	0
 1894 0099 00       		.byte	0
 1895 009a 0D       		.uleb128 0xd
 1896 009b 05       		.uleb128 0x5
 1897 009c 00       		.byte	0
 1898 009d 49       		.uleb128 0x49
 1899 009e 13       		.uleb128 0x13
 1900 009f 00       		.byte	0
 1901 00a0 00       		.byte	0
 1902 00a1 0E       		.uleb128 0xe
 1903 00a2 0F       		.uleb128 0xf
 1904 00a3 00       		.byte	0
 1905 00a4 0B       		.uleb128 0xb
 1906 00a5 0B       		.uleb128 0xb
 1907 00a6 00       		.byte	0
 1908 00a7 00       		.byte	0
 1909 00a8 0F       		.uleb128 0xf
 1910 00a9 26       		.uleb128 0x26
 1911 00aa 00       		.byte	0
 1912 00ab 49       		.uleb128 0x49
 1913 00ac 13       		.uleb128 0x13
 1914 00ad 00       		.byte	0
 1915 00ae 00       		.byte	0
 1916 00af 10       		.uleb128 0x10
 1917 00b0 13       		.uleb128 0x13
 1918 00b1 01       		.byte	0x1
 1919 00b2 03       		.uleb128 0x3
 1920 00b3 0E       		.uleb128 0xe
 1921 00b4 0B       		.uleb128 0xb
 1922 00b5 05       		.uleb128 0x5
 1923 00b6 3A       		.uleb128 0x3a
 1924 00b7 0B       		.uleb128 0xb
 1925 00b8 3B       		.uleb128 0x3b
 1926 00b9 05       		.uleb128 0x5
 1927 00ba 01       		.uleb128 0x1
 1928 00bb 13       		.uleb128 0x13
 1929 00bc 00       		.byte	0
 1930 00bd 00       		.byte	0
 1931 00be 11       		.uleb128 0x11
 1932 00bf 34       		.uleb128 0x34
 1933 00c0 00       		.byte	0
 1934 00c1 03       		.uleb128 0x3
ARM GAS  /tmp/ccxyj9HS.s 			page 35


 1935 00c2 0E       		.uleb128 0xe
 1936 00c3 3A       		.uleb128 0x3a
 1937 00c4 0B       		.uleb128 0xb
 1938 00c5 3B       		.uleb128 0x3b
 1939 00c6 05       		.uleb128 0x5
 1940 00c7 49       		.uleb128 0x49
 1941 00c8 13       		.uleb128 0x13
 1942 00c9 3F       		.uleb128 0x3f
 1943 00ca 19       		.uleb128 0x19
 1944 00cb 3C       		.uleb128 0x3c
 1945 00cc 19       		.uleb128 0x19
 1946 00cd 00       		.byte	0
 1947 00ce 00       		.byte	0
 1948 00cf 12       		.uleb128 0x12
 1949 00d0 34       		.uleb128 0x34
 1950 00d1 00       		.byte	0
 1951 00d2 03       		.uleb128 0x3
 1952 00d3 0E       		.uleb128 0xe
 1953 00d4 3A       		.uleb128 0x3a
 1954 00d5 0B       		.uleb128 0xb
 1955 00d6 3B       		.uleb128 0x3b
 1956 00d7 0B       		.uleb128 0xb
 1957 00d8 49       		.uleb128 0x49
 1958 00d9 13       		.uleb128 0x13
 1959 00da 3F       		.uleb128 0x3f
 1960 00db 19       		.uleb128 0x19
 1961 00dc 3C       		.uleb128 0x3c
 1962 00dd 19       		.uleb128 0x19
 1963 00de 00       		.byte	0
 1964 00df 00       		.byte	0
 1965 00e0 13       		.uleb128 0x13
 1966 00e1 0D       		.uleb128 0xd
 1967 00e2 00       		.byte	0
 1968 00e3 03       		.uleb128 0x3
 1969 00e4 08       		.uleb128 0x8
 1970 00e5 3A       		.uleb128 0x3a
 1971 00e6 0B       		.uleb128 0xb
 1972 00e7 3B       		.uleb128 0x3b
 1973 00e8 0B       		.uleb128 0xb
 1974 00e9 49       		.uleb128 0x49
 1975 00ea 13       		.uleb128 0x13
 1976 00eb 38       		.uleb128 0x38
 1977 00ec 0B       		.uleb128 0xb
 1978 00ed 00       		.byte	0
 1979 00ee 00       		.byte	0
 1980 00ef 14       		.uleb128 0x14
 1981 00f0 13       		.uleb128 0x13
 1982 00f1 01       		.byte	0x1
 1983 00f2 0B       		.uleb128 0xb
 1984 00f3 0B       		.uleb128 0xb
 1985 00f4 3A       		.uleb128 0x3a
 1986 00f5 0B       		.uleb128 0xb
 1987 00f6 3B       		.uleb128 0x3b
 1988 00f7 0B       		.uleb128 0xb
 1989 00f8 01       		.uleb128 0x1
 1990 00f9 13       		.uleb128 0x13
 1991 00fa 00       		.byte	0
ARM GAS  /tmp/ccxyj9HS.s 			page 36


 1992 00fb 00       		.byte	0
 1993 00fc 15       		.uleb128 0x15
 1994 00fd 17       		.uleb128 0x17
 1995 00fe 01       		.byte	0x1
 1996 00ff 0B       		.uleb128 0xb
 1997 0100 0B       		.uleb128 0xb
 1998 0101 3A       		.uleb128 0x3a
 1999 0102 0B       		.uleb128 0xb
 2000 0103 3B       		.uleb128 0x3b
 2001 0104 0B       		.uleb128 0xb
 2002 0105 01       		.uleb128 0x1
 2003 0106 13       		.uleb128 0x13
 2004 0107 00       		.byte	0
 2005 0108 00       		.byte	0
 2006 0109 16       		.uleb128 0x16
 2007 010a 0D       		.uleb128 0xd
 2008 010b 00       		.byte	0
 2009 010c 03       		.uleb128 0x3
 2010 010d 0E       		.uleb128 0xe
 2011 010e 3A       		.uleb128 0x3a
 2012 010f 0B       		.uleb128 0xb
 2013 0110 3B       		.uleb128 0x3b
 2014 0111 05       		.uleb128 0x5
 2015 0112 49       		.uleb128 0x49
 2016 0113 13       		.uleb128 0x13
 2017 0114 00       		.byte	0
 2018 0115 00       		.byte	0
 2019 0116 17       		.uleb128 0x17
 2020 0117 01       		.uleb128 0x1
 2021 0118 01       		.byte	0x1
 2022 0119 49       		.uleb128 0x49
 2023 011a 13       		.uleb128 0x13
 2024 011b 01       		.uleb128 0x1
 2025 011c 13       		.uleb128 0x13
 2026 011d 00       		.byte	0
 2027 011e 00       		.byte	0
 2028 011f 18       		.uleb128 0x18
 2029 0120 21       		.uleb128 0x21
 2030 0121 00       		.byte	0
 2031 0122 49       		.uleb128 0x49
 2032 0123 13       		.uleb128 0x13
 2033 0124 2F       		.uleb128 0x2f
 2034 0125 0B       		.uleb128 0xb
 2035 0126 00       		.byte	0
 2036 0127 00       		.byte	0
 2037 0128 19       		.uleb128 0x19
 2038 0129 34       		.uleb128 0x34
 2039 012a 00       		.byte	0
 2040 012b 03       		.uleb128 0x3
 2041 012c 08       		.uleb128 0x8
 2042 012d 3A       		.uleb128 0x3a
 2043 012e 0B       		.uleb128 0xb
 2044 012f 3B       		.uleb128 0x3b
 2045 0130 05       		.uleb128 0x5
 2046 0131 49       		.uleb128 0x49
 2047 0132 13       		.uleb128 0x13
 2048 0133 3F       		.uleb128 0x3f
ARM GAS  /tmp/ccxyj9HS.s 			page 37


 2049 0134 19       		.uleb128 0x19
 2050 0135 3C       		.uleb128 0x3c
 2051 0136 19       		.uleb128 0x19
 2052 0137 00       		.byte	0
 2053 0138 00       		.byte	0
 2054 0139 1A       		.uleb128 0x1a
 2055 013a 15       		.uleb128 0x15
 2056 013b 01       		.byte	0x1
 2057 013c 27       		.uleb128 0x27
 2058 013d 19       		.uleb128 0x19
 2059 013e 49       		.uleb128 0x49
 2060 013f 13       		.uleb128 0x13
 2061 0140 01       		.uleb128 0x1
 2062 0141 13       		.uleb128 0x13
 2063 0142 00       		.byte	0
 2064 0143 00       		.byte	0
 2065 0144 1B       		.uleb128 0x1b
 2066 0145 15       		.uleb128 0x15
 2067 0146 00       		.byte	0
 2068 0147 27       		.uleb128 0x27
 2069 0148 19       		.uleb128 0x19
 2070 0149 00       		.byte	0
 2071 014a 00       		.byte	0
 2072 014b 1C       		.uleb128 0x1c
 2073 014c 13       		.uleb128 0x13
 2074 014d 01       		.byte	0x1
 2075 014e 0B       		.uleb128 0xb
 2076 014f 05       		.uleb128 0x5
 2077 0150 3A       		.uleb128 0x3a
 2078 0151 0B       		.uleb128 0xb
 2079 0152 3B       		.uleb128 0x3b
 2080 0153 0B       		.uleb128 0xb
 2081 0154 01       		.uleb128 0x1
 2082 0155 13       		.uleb128 0x13
 2083 0156 00       		.byte	0
 2084 0157 00       		.byte	0
 2085 0158 1D       		.uleb128 0x1d
 2086 0159 0D       		.uleb128 0xd
 2087 015a 00       		.byte	0
 2088 015b 03       		.uleb128 0x3
 2089 015c 08       		.uleb128 0x8
 2090 015d 3A       		.uleb128 0x3a
 2091 015e 0B       		.uleb128 0xb
 2092 015f 3B       		.uleb128 0x3b
 2093 0160 0B       		.uleb128 0xb
 2094 0161 49       		.uleb128 0x49
 2095 0162 13       		.uleb128 0x13
 2096 0163 38       		.uleb128 0x38
 2097 0164 05       		.uleb128 0x5
 2098 0165 00       		.byte	0
 2099 0166 00       		.byte	0
 2100 0167 1E       		.uleb128 0x1e
 2101 0168 17       		.uleb128 0x17
 2102 0169 01       		.byte	0x1
 2103 016a 03       		.uleb128 0x3
 2104 016b 0E       		.uleb128 0xe
 2105 016c 0B       		.uleb128 0xb
ARM GAS  /tmp/ccxyj9HS.s 			page 38


 2106 016d 05       		.uleb128 0x5
 2107 016e 3A       		.uleb128 0x3a
 2108 016f 0B       		.uleb128 0xb
 2109 0170 3B       		.uleb128 0x3b
 2110 0171 0B       		.uleb128 0xb
 2111 0172 01       		.uleb128 0x1
 2112 0173 13       		.uleb128 0x13
 2113 0174 00       		.byte	0
 2114 0175 00       		.byte	0
 2115 0176 1F       		.uleb128 0x1f
 2116 0177 0D       		.uleb128 0xd
 2117 0178 00       		.byte	0
 2118 0179 03       		.uleb128 0x3
 2119 017a 08       		.uleb128 0x8
 2120 017b 3A       		.uleb128 0x3a
 2121 017c 0B       		.uleb128 0xb
 2122 017d 3B       		.uleb128 0x3b
 2123 017e 0B       		.uleb128 0xb
 2124 017f 49       		.uleb128 0x49
 2125 0180 13       		.uleb128 0x13
 2126 0181 00       		.byte	0
 2127 0182 00       		.byte	0
 2128 0183 20       		.uleb128 0x20
 2129 0184 0D       		.uleb128 0xd
 2130 0185 00       		.byte	0
 2131 0186 03       		.uleb128 0x3
 2132 0187 0E       		.uleb128 0xe
 2133 0188 3A       		.uleb128 0x3a
 2134 0189 0B       		.uleb128 0xb
 2135 018a 3B       		.uleb128 0x3b
 2136 018b 0B       		.uleb128 0xb
 2137 018c 49       		.uleb128 0x49
 2138 018d 13       		.uleb128 0x13
 2139 018e 00       		.byte	0
 2140 018f 00       		.byte	0
 2141 0190 21       		.uleb128 0x21
 2142 0191 21       		.uleb128 0x21
 2143 0192 00       		.byte	0
 2144 0193 49       		.uleb128 0x49
 2145 0194 13       		.uleb128 0x13
 2146 0195 2F       		.uleb128 0x2f
 2147 0196 05       		.uleb128 0x5
 2148 0197 00       		.byte	0
 2149 0198 00       		.byte	0
 2150 0199 22       		.uleb128 0x22
 2151 019a 21       		.uleb128 0x21
 2152 019b 00       		.byte	0
 2153 019c 00       		.byte	0
 2154 019d 00       		.byte	0
 2155 019e 23       		.uleb128 0x23
 2156 019f 34       		.uleb128 0x34
 2157 01a0 00       		.byte	0
 2158 01a1 03       		.uleb128 0x3
 2159 01a2 08       		.uleb128 0x8
 2160 01a3 3A       		.uleb128 0x3a
 2161 01a4 0B       		.uleb128 0xb
 2162 01a5 3B       		.uleb128 0x3b
ARM GAS  /tmp/ccxyj9HS.s 			page 39


 2163 01a6 0B       		.uleb128 0xb
 2164 01a7 49       		.uleb128 0x49
 2165 01a8 13       		.uleb128 0x13
 2166 01a9 3F       		.uleb128 0x3f
 2167 01aa 19       		.uleb128 0x19
 2168 01ab 3C       		.uleb128 0x3c
 2169 01ac 19       		.uleb128 0x19
 2170 01ad 00       		.byte	0
 2171 01ae 00       		.byte	0
 2172 01af 24       		.uleb128 0x24
 2173 01b0 34       		.uleb128 0x34
 2174 01b1 00       		.byte	0
 2175 01b2 03       		.uleb128 0x3
 2176 01b3 08       		.uleb128 0x8
 2177 01b4 3A       		.uleb128 0x3a
 2178 01b5 0B       		.uleb128 0xb
 2179 01b6 3B       		.uleb128 0x3b
 2180 01b7 0B       		.uleb128 0xb
 2181 01b8 49       		.uleb128 0x49
 2182 01b9 13       		.uleb128 0x13
 2183 01ba 02       		.uleb128 0x2
 2184 01bb 18       		.uleb128 0x18
 2185 01bc 00       		.byte	0
 2186 01bd 00       		.byte	0
 2187 01be 25       		.uleb128 0x25
 2188 01bf 34       		.uleb128 0x34
 2189 01c0 00       		.byte	0
 2190 01c1 03       		.uleb128 0x3
 2191 01c2 0E       		.uleb128 0xe
 2192 01c3 3A       		.uleb128 0x3a
 2193 01c4 0B       		.uleb128 0xb
 2194 01c5 3B       		.uleb128 0x3b
 2195 01c6 0B       		.uleb128 0xb
 2196 01c7 49       		.uleb128 0x49
 2197 01c8 13       		.uleb128 0x13
 2198 01c9 3F       		.uleb128 0x3f
 2199 01ca 19       		.uleb128 0x19
 2200 01cb 02       		.uleb128 0x2
 2201 01cc 18       		.uleb128 0x18
 2202 01cd 00       		.byte	0
 2203 01ce 00       		.byte	0
 2204 01cf 26       		.uleb128 0x26
 2205 01d0 2E       		.uleb128 0x2e
 2206 01d1 01       		.byte	0x1
 2207 01d2 03       		.uleb128 0x3
 2208 01d3 0E       		.uleb128 0xe
 2209 01d4 3A       		.uleb128 0x3a
 2210 01d5 0B       		.uleb128 0xb
 2211 01d6 3B       		.uleb128 0x3b
 2212 01d7 0B       		.uleb128 0xb
 2213 01d8 27       		.uleb128 0x27
 2214 01d9 19       		.uleb128 0x19
 2215 01da 11       		.uleb128 0x11
 2216 01db 01       		.uleb128 0x1
 2217 01dc 12       		.uleb128 0x12
 2218 01dd 06       		.uleb128 0x6
 2219 01de 40       		.uleb128 0x40
ARM GAS  /tmp/ccxyj9HS.s 			page 40


 2220 01df 18       		.uleb128 0x18
 2221 01e0 9642     		.uleb128 0x2116
 2222 01e2 19       		.uleb128 0x19
 2223 01e3 01       		.uleb128 0x1
 2224 01e4 13       		.uleb128 0x13
 2225 01e5 00       		.byte	0
 2226 01e6 00       		.byte	0
 2227 01e7 27       		.uleb128 0x27
 2228 01e8 2E       		.uleb128 0x2e
 2229 01e9 00       		.byte	0
 2230 01ea 03       		.uleb128 0x3
 2231 01eb 0E       		.uleb128 0xe
 2232 01ec 3A       		.uleb128 0x3a
 2233 01ed 0B       		.uleb128 0xb
 2234 01ee 3B       		.uleb128 0x3b
 2235 01ef 0B       		.uleb128 0xb
 2236 01f0 27       		.uleb128 0x27
 2237 01f1 19       		.uleb128 0x19
 2238 01f2 11       		.uleb128 0x11
 2239 01f3 01       		.uleb128 0x1
 2240 01f4 12       		.uleb128 0x12
 2241 01f5 06       		.uleb128 0x6
 2242 01f6 40       		.uleb128 0x40
 2243 01f7 18       		.uleb128 0x18
 2244 01f8 9642     		.uleb128 0x2116
 2245 01fa 19       		.uleb128 0x19
 2246 01fb 00       		.byte	0
 2247 01fc 00       		.byte	0
 2248 01fd 28       		.uleb128 0x28
 2249 01fe 2E       		.uleb128 0x2e
 2250 01ff 01       		.byte	0x1
 2251 0200 03       		.uleb128 0x3
 2252 0201 0E       		.uleb128 0xe
 2253 0202 3A       		.uleb128 0x3a
 2254 0203 0B       		.uleb128 0xb
 2255 0204 3B       		.uleb128 0x3b
 2256 0205 0B       		.uleb128 0xb
 2257 0206 27       		.uleb128 0x27
 2258 0207 19       		.uleb128 0x19
 2259 0208 49       		.uleb128 0x49
 2260 0209 13       		.uleb128 0x13
 2261 020a 11       		.uleb128 0x11
 2262 020b 01       		.uleb128 0x1
 2263 020c 12       		.uleb128 0x12
 2264 020d 06       		.uleb128 0x6
 2265 020e 40       		.uleb128 0x40
 2266 020f 18       		.uleb128 0x18
 2267 0210 9742     		.uleb128 0x2117
 2268 0212 19       		.uleb128 0x19
 2269 0213 00       		.byte	0
 2270 0214 00       		.byte	0
 2271 0215 29       		.uleb128 0x29
 2272 0216 05       		.uleb128 0x5
 2273 0217 00       		.byte	0
 2274 0218 03       		.uleb128 0x3
 2275 0219 0E       		.uleb128 0xe
 2276 021a 3A       		.uleb128 0x3a
ARM GAS  /tmp/ccxyj9HS.s 			page 41


 2277 021b 0B       		.uleb128 0xb
 2278 021c 3B       		.uleb128 0x3b
 2279 021d 0B       		.uleb128 0xb
 2280 021e 49       		.uleb128 0x49
 2281 021f 13       		.uleb128 0x13
 2282 0220 02       		.uleb128 0x2
 2283 0221 18       		.uleb128 0x18
 2284 0222 00       		.byte	0
 2285 0223 00       		.byte	0
 2286 0224 00       		.byte	0
 2287              		.section	.debug_aranges,"",%progbits
 2288 0000 2C000000 		.4byte	0x2c
 2289 0004 0200     		.2byte	0x2
 2290 0006 00000000 		.4byte	.Ldebug_info0
 2291 000a 04       		.byte	0x4
 2292 000b 00       		.byte	0
 2293 000c 0000     		.2byte	0
 2294 000e 0000     		.2byte	0
 2295 0010 00000000 		.4byte	.LFB231
 2296 0014 0C000000 		.4byte	.LFE231-.LFB231
 2297 0018 00000000 		.4byte	.LFB232
 2298 001c 18000000 		.4byte	.LFE232-.LFB232
 2299 0020 00000000 		.4byte	.LFB233
 2300 0024 24010000 		.4byte	.LFE233-.LFB233
 2301 0028 00000000 		.4byte	0
 2302 002c 00000000 		.4byte	0
 2303              		.section	.debug_ranges,"",%progbits
 2304              	.Ldebug_ranges0:
 2305 0000 00000000 		.4byte	.LFB231
 2306 0004 0C000000 		.4byte	.LFE231
 2307 0008 00000000 		.4byte	.LFB232
 2308 000c 18000000 		.4byte	.LFE232
 2309 0010 00000000 		.4byte	.LFB233
 2310 0014 24010000 		.4byte	.LFE233
 2311 0018 00000000 		.4byte	0
 2312 001c 00000000 		.4byte	0
 2313              		.section	.debug_line,"",%progbits
 2314              	.Ldebug_line0:
 2315 0000 B7020000 		.section	.debug_str,"MS",%progbits,1
 2315      02004402 
 2315      00000201 
 2315      FB0E0D00 
 2315      01010101 
 2316              	.LASF133:
 2317 0000 63665F6F 		.ascii	"cf_off_older\000"
 2317      66665F6F 
 2317      6C646572 
 2317      00
 2318              	.LASF58:
 2319 000d 72656164 		.ascii	"ready_list_t\000"
 2319      795F6C69 
 2319      73745F74 
 2319      00
 2320              	.LASF4:
 2321 001a 73697A65 		.ascii	"size_t\000"
 2321      5F7400
 2322              	.LASF108:
ARM GAS  /tmp/ccxyj9HS.s 			page 42


 2323 0021 7264796D 		.ascii	"rdymsg\000"
 2323      736700
 2324              	.LASF20:
 2325 0028 75696E74 		.ascii	"uint64_t\000"
 2325      36345F74 
 2325      00
 2326              	.LASF87:
 2327 0031 6B65726E 		.ascii	"kernel_stats\000"
 2327      656C5F73 
 2327      74617473 
 2327      00
 2328              	.LASF5:
 2329 003e 5F5F7569 		.ascii	"__uint8_t\000"
 2329      6E74385F 
 2329      7400
 2330              	.LASF95:
 2331 0048 706F7274 		.ascii	"port_intctx\000"
 2331      5F696E74 
 2331      63747800 
 2332              	.LASF57:
 2333 0054 63685F74 		.ascii	"ch_threads_queue\000"
 2333      68726561 
 2333      64735F71 
 2333      75657565 
 2333      00
 2334              	.LASF77:
 2335 0065 73797374 		.ascii	"system_debug_t\000"
 2335      656D5F64 
 2335      65627567 
 2335      5F7400
 2336              	.LASF99:
 2337 0074 776F7273 		.ascii	"worst\000"
 2337      7400
 2338              	.LASF102:
 2339 007a 74696D65 		.ascii	"time_measurement_t\000"
 2339      5F6D6561 
 2339      73757265 
 2339      6D656E74 
 2339      5F7400
 2340              	.LASF15:
 2341 008d 6C6F6E67 		.ascii	"long long unsigned int\000"
 2341      206C6F6E 
 2341      6720756E 
 2341      7369676E 
 2341      65642069 
 2342              	.LASF129:
 2343 00a4 63685F74 		.ascii	"ch_threadsize\000"
 2343      68726561 
 2343      6473697A 
 2343      6500
 2344              	.LASF109:
 2345 00b2 65786974 		.ascii	"exitcode\000"
 2345      636F6465 
 2345      00
 2346              	.LASF86:
 2347 00bb 6D61696E 		.ascii	"mainthread\000"
 2347      74687265 
ARM GAS  /tmp/ccxyj9HS.s 			page 43


 2347      616400
 2348              	.LASF160:
 2349 00c6 74657374 		.ascii	"test\000"
 2349      00
 2350              	.LASF74:
 2351 00cb 76697274 		.ascii	"virtual_timers_list_t\000"
 2351      75616C5F 
 2351      74696D65 
 2351      72735F6C 
 2351      6973745F 
 2352              	.LASF90:
 2353 00e1 49544D5F 		.ascii	"ITM_RxBuffer\000"
 2353      52784275 
 2353      66666572 
 2353      00
 2354              	.LASF22:
 2355 00ee 72747469 		.ascii	"rttime_t\000"
 2355      6D655F74 
 2355      00
 2356              	.LASF35:
 2357 00f7 705F7072 		.ascii	"p_prio\000"
 2357      696F00
 2358              	.LASF136:
 2359 00fe 63665F6F 		.ascii	"cf_off_state\000"
 2359      66665F73 
 2359      74617465 
 2359      00
 2360              	.LASF155:
 2361 010b 74656172 		.ascii	"teardown\000"
 2361      646F776E 
 2361      00
 2362              	.LASF1:
 2363 0114 6C6F6E67 		.ascii	"long long int\000"
 2363      206C6F6E 
 2363      6720696E 
 2363      7400
 2364              	.LASF3:
 2365 0122 7369676E 		.ascii	"signed char\000"
 2365      65642063 
 2365      68617200 
 2366              	.LASF135:
 2367 012e 63665F6F 		.ascii	"cf_off_stklimit\000"
 2367      66665F73 
 2367      746B6C69 
 2367      6D697400 
 2368              	.LASF137:
 2369 013e 63665F6F 		.ascii	"cf_off_flags\000"
 2369      66665F66 
 2369      6C616773 
 2369      00
 2370              	.LASF50:
 2371 014b 705F6D70 		.ascii	"p_mpool\000"
 2371      6F6F6C00 
 2372              	.LASF119:
 2373 0153 6D5F7175 		.ascii	"m_queue\000"
 2373      65756500 
 2374              	.LASF85:
ARM GAS  /tmp/ccxyj9HS.s 			page 44


 2375 015b 76746C69 		.ascii	"vtlist\000"
 2375      737400
 2376              	.LASF111:
 2377 0162 77747472 		.ascii	"wttrp\000"
 2377      7000
 2378              	.LASF83:
 2379 0168 63685F73 		.ascii	"ch_system\000"
 2379      79737465 
 2379      6D00
 2380              	.LASF11:
 2381 0172 6C6F6E67 		.ascii	"long int\000"
 2381      20696E74 
 2381      00
 2382              	.LASF24:
 2383 017b 74737461 		.ascii	"tstate_t\000"
 2383      74655F74 
 2383      00
 2384              	.LASF166:
 2385 0184 474E5520 		.ascii	"GNU C11 6.3.1 20170620 (release) [ARM/embedded-6-br"
 2385      43313120 
 2385      362E332E 
 2385      31203230 
 2385      31373036 
 2386 01b7 616E6368 		.ascii	"anch revision 249437] -mcpu=cortex-m4 -mfloat-abi=h"
 2386      20726576 
 2386      6973696F 
 2386      6E203234 
 2386      39343337 
 2387 01ea 61726420 		.ascii	"ard -mfpu=fpv4-sp-d16 -mno-thumb-interwork -mthumb "
 2387      2D6D6670 
 2387      753D6670 
 2387      76342D73 
 2387      702D6431 
 2388 021d 2D676764 		.ascii	"-ggdb -O0 -fomit-frame-pointer -falign-functions=16"
 2388      62202D4F 
 2388      30202D66 
 2388      6F6D6974 
 2388      2D667261 
 2389 0250 202D6666 		.ascii	" -ffunction-sections -fdata-sections -fno-common -f"
 2389      756E6374 
 2389      696F6E2D 
 2389      73656374 
 2389      696F6E73 
 2390 0283 73696E67 		.ascii	"single-precision-constant\000"
 2390      6C652D70 
 2390      72656369 
 2390      73696F6E 
 2390      2D636F6E 
 2391              	.LASF141:
 2392 029d 63686465 		.ascii	"chdebug_t\000"
 2392      6275675F 
 2392      7400
 2393              	.LASF157:
 2394 02a7 62756666 		.ascii	"buffer\000"
 2394      657200
 2395              	.LASF37:
 2396 02ae 705F6E65 		.ascii	"p_newer\000"
ARM GAS  /tmp/ccxyj9HS.s 			page 45


 2396      77657200 
 2397              	.LASF116:
 2398 02b6 735F7175 		.ascii	"s_queue\000"
 2398      65756500 
 2399              	.LASF63:
 2400 02be 725F6E65 		.ascii	"r_newer\000"
 2400      77657200 
 2401              	.LASF150:
 2402 02c6 6D705F70 		.ascii	"mp_provider\000"
 2402      726F7669 
 2402      64657200 
 2403              	.LASF92:
 2404 02d2 72656761 		.ascii	"regarm_t\000"
 2404      726D5F74 
 2404      00
 2405              	.LASF70:
 2406 02db 76745F70 		.ascii	"vt_prev\000"
 2406      72657600 
 2407              	.LASF78:
 2408 02e3 63685F73 		.ascii	"ch_system_debug\000"
 2408      79737465 
 2408      6D5F6465 
 2408      62756700 
 2409              	.LASF143:
 2410 02f3 6D757465 		.ascii	"mutex_t\000"
 2410      785F7400 
 2411              	.LASF81:
 2412 02fb 6C6F636B 		.ascii	"lock_cnt\000"
 2412      5F636E74 
 2412      00
 2413              	.LASF88:
 2414 0304 69646C65 		.ascii	"idle_thread_wa\000"
 2414      5F746872 
 2414      6561645F 
 2414      776100
 2415              	.LASF29:
 2416 0313 636E745F 		.ascii	"cnt_t\000"
 2416      7400
 2417              	.LASF40:
 2418 0319 705F7374 		.ascii	"p_stklimit\000"
 2418      6B6C696D 
 2418      697400
 2419              	.LASF0:
 2420 0324 756E7369 		.ascii	"unsigned int\000"
 2420      676E6564 
 2420      20696E74 
 2420      00
 2421              	.LASF69:
 2422 0331 76745F6E 		.ascii	"vt_next\000"
 2422      65787400 
 2423              	.LASF17:
 2424 0339 75696E74 		.ascii	"uint16_t\000"
 2424      31365F74 
 2424      00
 2425              	.LASF91:
 2426 0342 53797374 		.ascii	"SystemCoreClock\000"
 2426      656D436F 
ARM GAS  /tmp/ccxyj9HS.s 			page 46


 2426      7265436C 
 2426      6F636B00 
 2427              	.LASF168:
 2428 0352 2F686F6D 		.ascii	"/home/matt/Documents/fibre-link/header-detection/pc"
 2428      652F6D61 
 2428      74742F44 
 2428      6F63756D 
 2428      656E7473 
 2429 0385 622F7374 		.ascii	"b/stm32/firmware\000"
 2429      6D33322F 
 2429      6669726D 
 2429      77617265 
 2429      00
 2430              	.LASF112:
 2431 0396 77747365 		.ascii	"wtsemp\000"
 2431      6D7000
 2432              	.LASF71:
 2433 039d 76745F64 		.ascii	"vt_delta\000"
 2433      656C7461 
 2433      00
 2434              	.LASF45:
 2435 03a6 705F6D73 		.ascii	"p_msgqueue\000"
 2435      67717565 
 2435      756500
 2436              	.LASF142:
 2437 03b1 63685F64 		.ascii	"ch_debug\000"
 2437      65627567 
 2437      00
 2438              	.LASF151:
 2439 03ba 6D656D6F 		.ascii	"memory_pool_t\000"
 2439      72795F70 
 2439      6F6F6C5F 
 2439      7400
 2440              	.LASF103:
 2441 03c8 6E5F6972 		.ascii	"n_irq\000"
 2441      7100
 2442              	.LASF117:
 2443 03ce 735F636E 		.ascii	"s_cnt\000"
 2443      7400
 2444              	.LASF153:
 2445 03d4 6E616D65 		.ascii	"name\000"
 2445      00
 2446              	.LASF9:
 2447 03d9 73686F72 		.ascii	"short unsigned int\000"
 2447      7420756E 
 2447      7369676E 
 2447      65642069 
 2447      6E7400
 2448              	.LASF107:
 2449 03ec 6B65726E 		.ascii	"kernel_stats_t\000"
 2449      656C5F73 
 2449      74617473 
 2449      5F7400
 2450              	.LASF54:
 2451 03fb 63685F74 		.ascii	"ch_thread\000"
 2451      68726561 
 2451      6400
ARM GAS  /tmp/ccxyj9HS.s 			page 47


 2452              	.LASF27:
 2453 0405 6D73675F 		.ascii	"msg_t\000"
 2453      7400
 2454              	.LASF100:
 2455 040b 6C617374 		.ascii	"last\000"
 2455      00
 2456              	.LASF30:
 2457 0410 75636E74 		.ascii	"ucnt_t\000"
 2457      5F7400
 2458              	.LASF82:
 2459 0417 63685F73 		.ascii	"ch_system_t\000"
 2459      79737465 
 2459      6D5F7400 
 2460              	.LASF131:
 2461 0423 63665F6F 		.ascii	"cf_off_ctx\000"
 2461      66665F63 
 2461      747800
 2462              	.LASF140:
 2463 042e 63665F6F 		.ascii	"cf_off_time\000"
 2463      66665F74 
 2463      696D6500 
 2464              	.LASF106:
 2465 043a 6D5F6372 		.ascii	"m_crit_isr\000"
 2465      69745F69 
 2465      737200
 2466              	.LASF59:
 2467 0445 63685F72 		.ascii	"ch_ready_list\000"
 2467      65616479 
 2467      5F6C6973 
 2467      7400
 2468              	.LASF28:
 2469 0453 6576656E 		.ascii	"eventmask_t\000"
 2469      746D6173 
 2469      6B5F7400 
 2470              	.LASF10:
 2471 045f 5F5F696E 		.ascii	"__int32_t\000"
 2471      7433325F 
 2471      7400
 2472              	.LASF93:
 2473 0469 73746B61 		.ascii	"stkalign_t\000"
 2473      6C69676E 
 2473      5F7400
 2474              	.LASF53:
 2475 0474 74687265 		.ascii	"threads_list_t\000"
 2475      6164735F 
 2475      6C697374 
 2475      5F7400
 2476              	.LASF124:
 2477 0483 63685F7A 		.ascii	"ch_zero\000"
 2477      65726F00 
 2478              	.LASF138:
 2479 048b 63665F6F 		.ascii	"cf_off_refs\000"
 2479      66665F72 
 2479      65667300 
 2480              	.LASF61:
 2481 0497 725F7072 		.ascii	"r_prio\000"
 2481      696F00
ARM GAS  /tmp/ccxyj9HS.s 			page 48


 2482              	.LASF44:
 2483 049e 705F7761 		.ascii	"p_waiting\000"
 2483      6974696E 
 2483      6700
 2484              	.LASF89:
 2485 04a8 73697A65 		.ascii	"sizetype\000"
 2485      74797065 
 2485      00
 2486              	.LASF75:
 2487 04b1 63685F76 		.ascii	"ch_virtual_timers_list\000"
 2487      69727475 
 2487      616C5F74 
 2487      696D6572 
 2487      735F6C69 
 2488              	.LASF2:
 2489 04c8 6C6F6E67 		.ascii	"long double\000"
 2489      20646F75 
 2489      626C6500 
 2490              	.LASF128:
 2491 04d4 63685F74 		.ascii	"ch_timesize\000"
 2491      696D6573 
 2491      697A6500 
 2492              	.LASF60:
 2493 04e0 725F7175 		.ascii	"r_queue\000"
 2493      65756500 
 2494              	.LASF134:
 2495 04e8 63665F6F 		.ascii	"cf_off_name\000"
 2495      66665F6E 
 2495      616D6500 
 2496              	.LASF38:
 2497 04f4 705F6F6C 		.ascii	"p_older\000"
 2497      64657200 
 2498              	.LASF62:
 2499 04fc 725F6374 		.ascii	"r_ctx\000"
 2499      7800
 2500              	.LASF36:
 2501 0502 705F6374 		.ascii	"p_ctx\000"
 2501      7800
 2502              	.LASF149:
 2503 0508 6D705F6F 		.ascii	"mp_object_size\000"
 2503      626A6563 
 2503      745F7369 
 2503      7A6500
 2504              	.LASF97:
 2505 0517 746D5F63 		.ascii	"tm_calibration_t\000"
 2505      616C6962 
 2505      72617469 
 2505      6F6E5F74 
 2505      00
 2506              	.LASF154:
 2507 0528 73657475 		.ascii	"setup\000"
 2507      7000
 2508              	.LASF65:
 2509 052e 725F6375 		.ascii	"r_current\000"
 2509      7272656E 
 2509      7400
 2510              	.LASF64:
ARM GAS  /tmp/ccxyj9HS.s 			page 49


 2511 0538 725F6F6C 		.ascii	"r_older\000"
 2511      64657200 
 2512              	.LASF163:
 2513 0540 70617474 		.ascii	"patternpools\000"
 2513      65726E70 
 2513      6F6F6C73 
 2513      00
 2514              	.LASF14:
 2515 054d 5F5F7569 		.ascii	"__uint64_t\000"
 2515      6E743634 
 2515      5F7400
 2516              	.LASF101:
 2517 0558 63756D75 		.ascii	"cumulative\000"
 2517      6C617469 
 2517      766500
 2518              	.LASF25:
 2519 0563 74726566 		.ascii	"trefs_t\000"
 2519      735F7400 
 2520              	.LASF127:
 2521 056b 63685F70 		.ascii	"ch_ptrsize\000"
 2521      74727369 
 2521      7A6500
 2522              	.LASF67:
 2523 0576 76697274 		.ascii	"virtual_timer_t\000"
 2523      75616C5F 
 2523      74696D65 
 2523      725F7400 
 2524              	.LASF34:
 2525 0586 705F7072 		.ascii	"p_prev\000"
 2525      657600
 2526              	.LASF156:
 2527 058d 65786563 		.ascii	"execute\000"
 2527      75746500 
 2528              	.LASF26:
 2529 0595 74707269 		.ascii	"tprio_t\000"
 2529      6F5F7400 
 2530              	.LASF39:
 2531 059d 705F6E61 		.ascii	"p_name\000"
 2531      6D6500
 2532              	.LASF104:
 2533 05a4 6E5F6374 		.ascii	"n_ctxswc\000"
 2533      78737763 
 2533      00
 2534              	.LASF144:
 2535 05ad 5F426F6F 		.ascii	"_Bool\000"
 2535      6C00
 2536              	.LASF18:
 2537 05b3 696E7433 		.ascii	"int32_t\000"
 2537      325F7400 
 2538              	.LASF6:
 2539 05bb 756E7369 		.ascii	"unsigned char\000"
 2539      676E6564 
 2539      20636861 
 2539      7200
 2540              	.LASF48:
 2541 05c9 705F6D74 		.ascii	"p_mtxlist\000"
 2541      786C6973 
ARM GAS  /tmp/ccxyj9HS.s 			page 50


 2541      7400
 2542              	.LASF7:
 2543 05d3 73686F72 		.ascii	"short int\000"
 2543      7420696E 
 2543      7400
 2544              	.LASF41:
 2545 05dd 705F7374 		.ascii	"p_state\000"
 2545      61746500 
 2546              	.LASF159:
 2547 05e5 74687265 		.ascii	"threads\000"
 2547      61647300 
 2548              	.LASF161:
 2549 05ed 74657374 		.ascii	"test_timer_done\000"
 2549      5F74696D 
 2549      65725F64 
 2549      6F6E6500 
 2550              	.LASF114:
 2551 05fd 65776D61 		.ascii	"ewmask\000"
 2551      736B00
 2552              	.LASF33:
 2553 0604 705F6E65 		.ascii	"p_next\000"
 2553      787400
 2554              	.LASF23:
 2555 060b 746D6F64 		.ascii	"tmode_t\000"
 2555      655F7400 
 2556              	.LASF139:
 2557 0613 63665F6F 		.ascii	"cf_off_preempt\000"
 2557      66665F70 
 2557      7265656D 
 2557      707400
 2558              	.LASF42:
 2559 0622 705F666C 		.ascii	"p_flags\000"
 2559      61677300 
 2560              	.LASF51:
 2561 062a 705F7374 		.ascii	"p_stats\000"
 2561      61747300 
 2562              	.LASF56:
 2563 0632 74687265 		.ascii	"threads_queue_t\000"
 2563      6164735F 
 2563      71756575 
 2563      655F7400 
 2564              	.LASF68:
 2565 0642 63685F76 		.ascii	"ch_virtual_timer\000"
 2565      69727475 
 2565      616C5F74 
 2565      696D6572 
 2565      00
 2566              	.LASF132:
 2567 0653 63665F6F 		.ascii	"cf_off_newer\000"
 2567      66665F6E 
 2567      65776572 
 2567      00
 2568              	.LASF152:
 2569 0660 74657374 		.ascii	"testcase\000"
 2569      63617365 
 2569      00
 2570              	.LASF115:
ARM GAS  /tmp/ccxyj9HS.s 			page 51


 2571 0669 63685F73 		.ascii	"ch_semaphore\000"
 2571      656D6170 
 2571      686F7265 
 2571      00
 2572              	.LASF47:
 2573 0676 705F6570 		.ascii	"p_epending\000"
 2573      656E6469 
 2573      6E6700
 2574              	.LASF19:
 2575 0681 75696E74 		.ascii	"uint32_t\000"
 2575      33325F74 
 2575      00
 2576              	.LASF130:
 2577 068a 63665F6F 		.ascii	"cf_off_prio\000"
 2577      66665F70 
 2577      72696F00 
 2578              	.LASF162:
 2579 0696 74657374 		.ascii	"testpools1\000"
 2579      706F6F6C 
 2579      733100
 2580              	.LASF55:
 2581 06a1 63685F74 		.ascii	"ch_threads_list\000"
 2581      68726561 
 2581      64735F6C 
 2581      69737400 
 2582              	.LASF125:
 2583 06b1 63685F73 		.ascii	"ch_size\000"
 2583      697A6500 
 2584              	.LASF13:
 2585 06b9 6C6F6E67 		.ascii	"long unsigned int\000"
 2585      20756E73 
 2585      69676E65 
 2585      6420696E 
 2585      7400
 2586              	.LASF122:
 2587 06cb 63686172 		.ascii	"char\000"
 2587      00
 2588              	.LASF113:
 2589 06d0 77746D74 		.ascii	"wtmtxp\000"
 2589      787000
 2590              	.LASF8:
 2591 06d7 5F5F7569 		.ascii	"__uint16_t\000"
 2591      6E743136 
 2591      5F7400
 2592              	.LASF170:
 2593 06e2 706F6F6C 		.ascii	"pools1_setup\000"
 2593      73315F73 
 2593      65747570 
 2593      00
 2594              	.LASF32:
 2595 06ef 74687265 		.ascii	"thread_t\000"
 2595      61645F74 
 2595      00
 2596              	.LASF98:
 2597 06f8 62657374 		.ascii	"best\000"
 2597      00
 2598              	.LASF121:
ARM GAS  /tmp/ccxyj9HS.s 			page 52


 2599 06fd 6D5F6E65 		.ascii	"m_next\000"
 2599      787400
 2600              	.LASF31:
 2601 0704 73797374 		.ascii	"systime_t\000"
 2601      696D655F 
 2601      7400
 2602              	.LASF49:
 2603 070e 705F7265 		.ascii	"p_realprio\000"
 2603      616C7072 
 2603      696F00
 2604              	.LASF66:
 2605 0719 76746675 		.ascii	"vtfunc_t\000"
 2605      6E635F74 
 2605      00
 2606              	.LASF12:
 2607 0722 5F5F7569 		.ascii	"__uint32_t\000"
 2607      6E743332 
 2607      5F7400
 2608              	.LASF79:
 2609 072d 70616E69 		.ascii	"panic_msg\000"
 2609      635F6D73 
 2609      6700
 2610              	.LASF158:
 2611 0737 74657374 		.ascii	"test_global_fail\000"
 2611      5F676C6F 
 2611      62616C5F 
 2611      6661696C 
 2611      00
 2612              	.LASF96:
 2613 0748 6F666673 		.ascii	"offset\000"
 2613      657400
 2614              	.LASF118:
 2615 074f 63685F6D 		.ascii	"ch_mutex\000"
 2615      75746578 
 2615      00
 2616              	.LASF148:
 2617 0758 6D705F6E 		.ascii	"mp_next\000"
 2617      65787400 
 2618              	.LASF94:
 2619 0760 636F6E74 		.ascii	"context\000"
 2619      65787400 
 2620              	.LASF46:
 2621 0768 705F6D73 		.ascii	"p_msg\000"
 2621      6700
 2622              	.LASF21:
 2623 076e 7274636E 		.ascii	"rtcnt_t\000"
 2623      745F7400 
 2624              	.LASF145:
 2625 0776 6D656D67 		.ascii	"memgetfunc_t\000"
 2625      65746675 
 2625      6E635F74 
 2625      00
 2626              	.LASF73:
 2627 0783 76745F70 		.ascii	"vt_par\000"
 2627      617200
 2628              	.LASF169:
 2629 078a 74657374 		.ascii	"test_buffers\000"
ARM GAS  /tmp/ccxyj9HS.s 			page 53


 2629      5F627566 
 2629      66657273 
 2629      00
 2630              	.LASF146:
 2631 0797 706F6F6C 		.ascii	"pool_header\000"
 2631      5F686561 
 2631      64657200 
 2632              	.LASF43:
 2633 07a3 705F7265 		.ascii	"p_refs\000"
 2633      667300
 2634              	.LASF80:
 2635 07aa 6973725F 		.ascii	"isr_cnt\000"
 2635      636E7400 
 2636              	.LASF84:
 2637 07b2 726C6973 		.ascii	"rlist\000"
 2637      7400
 2638              	.LASF16:
 2639 07b8 75696E74 		.ascii	"uint8_t\000"
 2639      385F7400 
 2640              	.LASF52:
 2641 07c0 74687265 		.ascii	"thread_reference_t\000"
 2641      61645F72 
 2641      65666572 
 2641      656E6365 
 2641      5F7400
 2642              	.LASF110:
 2643 07d3 77746F62 		.ascii	"wtobjp\000"
 2643      6A7000
 2644              	.LASF147:
 2645 07da 70685F6E 		.ascii	"ph_next\000"
 2645      65787400 
 2646              	.LASF165:
 2647 07e2 6E756C6C 		.ascii	"null_provider\000"
 2647      5F70726F 
 2647      76696465 
 2647      7200
 2648              	.LASF171:
 2649 07f0 73697A65 		.ascii	"size\000"
 2649      00
 2650              	.LASF76:
 2651 07f5 76745F73 		.ascii	"vt_systime\000"
 2651      79737469 
 2651      6D6500
 2652              	.LASF126:
 2653 0800 63685F76 		.ascii	"ch_version\000"
 2653      65727369 
 2653      6F6E00
 2654              	.LASF167:
 2655 080b 2E2E2F43 		.ascii	"../ChibiOS/test/rt/testpools.c\000"
 2655      68696269 
 2655      4F532F74 
 2655      6573742F 
 2655      72742F74 
 2656              	.LASF105:
 2657 082a 6D5F6372 		.ascii	"m_crit_thd\000"
 2657      69745F74 
 2657      686400
ARM GAS  /tmp/ccxyj9HS.s 			page 54


 2658              	.LASF120:
 2659 0835 6D5F6F77 		.ascii	"m_owner\000"
 2659      6E657200 
 2660              	.LASF123:
 2661 083d 63685F69 		.ascii	"ch_identifier\000"
 2661      64656E74 
 2661      69666965 
 2661      7200
 2662              	.LASF72:
 2663 084b 76745F66 		.ascii	"vt_func\000"
 2663      756E6300 
 2664              	.LASF164:
 2665 0853 706F6F6C 		.ascii	"pools1_execute\000"
 2665      73315F65 
 2665      78656375 
 2665      746500
 2666              		.ident	"GCC: (GNU Tools for ARM Embedded Processors 6-2017-q2-update) 6.3.1 20170620 (release) [AR
ARM GAS  /tmp/ccxyj9HS.s 			page 55


DEFINED SYMBOLS
                            *ABS*:0000000000000000 testpools.c
     /tmp/ccxyj9HS.s:18     .data.mp1:0000000000000000 $d
     /tmp/ccxyj9HS.s:21     .data.mp1:0000000000000000 mp1
     /tmp/ccxyj9HS.s:26     .text.null_provider:0000000000000000 $t
     /tmp/ccxyj9HS.s:33     .text.null_provider:0000000000000000 null_provider
     /tmp/ccxyj9HS.s:56     .text.pools1_setup:0000000000000000 $t
     /tmp/ccxyj9HS.s:63     .text.pools1_setup:0000000000000000 pools1_setup
     /tmp/ccxyj9HS.s:84     .text.pools1_setup:0000000000000014 $d
     /tmp/ccxyj9HS.s:89     .text.pools1_execute:0000000000000000 $t
     /tmp/ccxyj9HS.s:96     .text.pools1_execute:0000000000000000 pools1_execute
     /tmp/ccxyj9HS.s:267    .text.pools1_execute:0000000000000118 $d
     /tmp/ccxyj9HS.s:282    .rodata.testpools1:0000000000000000 testpools1
     /tmp/ccxyj9HS.s:275    .rodata:0000000000000000 $d
     /tmp/ccxyj9HS.s:279    .rodata.testpools1:0000000000000000 $d
     /tmp/ccxyj9HS.s:292    .rodata.patternpools:0000000000000000 patternpools
     /tmp/ccxyj9HS.s:289    .rodata.patternpools:0000000000000000 $d
                     .debug_frame:0000000000000010 $d

UNDEFINED SYMBOLS
chPoolObjectInit
chPoolLoadArray
chPoolAlloc
_test_assert
chPoolFree
wa
